BL51 BANKED LINKER/LOCATER V6.22.2.0                                                    12/01/2020  12:04:38  PAGE 1


BL51 BANKED LINKER/LOCATER V6.22.2.0, INVOKED BY:
C:\KEIL_V5\C51\BIN\BL51.EXE .\Objects\main.obj, .\Objects\Accescan.obj, .\Objects\Clock.obj, .\Objects\delay.obj, .\Obje
>> cts\eeprom.obj, .\Objects\io_sensores.obj, .\Objects\pantallas.obj, .\Objects\prog.obj, .\Objects\pto_paralelo.obj, .
>> \Objects\tibbo.obj, .\Objects\uart.obj, .\Objects\lintech.obj, .\Objects\verificador.obj, .\Objects\Monitor.obj TO .\
>> Objects\expedidor_v_01_raspberry PRINT (.\Listings\expedidor_v_01_raspberry.m51) RAMSIZE (256)


MEMORY MODEL: LARGE WITH FLOATING POINT ARITHMETIC


INPUT MODULES INCLUDED:
  .\Objects\main.obj (MAIN)
  .\Objects\Accescan.obj (ACCESCAN)
  .\Objects\Clock.obj (CLOCK)
  .\Objects\delay.obj (DELAY)
  .\Objects\eeprom.obj (EEPROM)
  .\Objects\io_sensores.obj (IO_SENSORES)
  .\Objects\pantallas.obj (PANTALLAS)
  .\Objects\prog.obj (PROG)
  .\Objects\pto_paralelo.obj (PTO_PARALELO)
  .\Objects\tibbo.obj (TIBBO)
  .\Objects\uart.obj (UART)
  .\Objects\lintech.obj (LINTECH)
  .\Objects\verificador.obj (VERIFICADOR)
  .\Objects\Monitor.obj (MONITOR)
  C:\KEIL_V5\C51\LIB\C51FPL.LIB (?C?FPADD)
  C:\KEIL_V5\C51\LIB\C51FPL.LIB (?C?FPMUL)
  C:\KEIL_V5\C51\LIB\C51FPL.LIB (?C?FCAST)
  C:\KEIL_V5\C51\LIB\C51FPL.LIB (?C?CASTF)
  C:\KEIL_V5\C51\LIB\C51FPL.LIB (PRINTF)
  C:\KEIL_V5\C51\LIB\C51FPL.LIB (POW)
  C:\KEIL_V5\C51\LIB\C51FPL.LIB (?C?FPGETOPN)
  C:\KEIL_V5\C51\LIB\C51FPL.LIB (?C?CHKFLOAT)
  C:\KEIL_V5\C51\LIB\C51FPL.LIB (?C?FPCMP)
  C:\KEIL_V5\C51\LIB\C51FPL.LIB (?C?FPNEG)
  C:\KEIL_V5\C51\LIB\C51FPL.LIB (?C?FPROUND)
  C:\KEIL_V5\C51\LIB\C51FPL.LIB (?C?FPCONVERT)
  C:\KEIL_V5\C51\LIB\C51FPL.LIB (EXP)
  C:\KEIL_V5\C51\LIB\C51FPL.LIB (LOG)
  C:\KEIL_V5\C51\LIB\C51FPL.LIB (?C?FPDIV)
  C:\KEIL_V5\C51\LIB\C51FPL.LIB (?C?FTNPWR)
  C:\KEIL_V5\C51\LIB\C51FPL.LIB (?C?FPSERIES)
  C:\KEIL_V5\C51\LIB\C51L.LIB (?C_STARTUP)
  C:\KEIL_V5\C51\LIB\C51L.LIB (?C?COPY)
  C:\KEIL_V5\C51\LIB\C51L.LIB (?C?CLDPTR)
  C:\KEIL_V5\C51\LIB\C51L.LIB (?C?CLDOPTR)
  C:\KEIL_V5\C51\LIB\C51L.LIB (?C?CSTPTR)
  C:\KEIL_V5\C51\LIB\C51L.LIB (?C?CSTOPTR)
  C:\KEIL_V5\C51\LIB\C51L.LIB (?C?IMUL)
  C:\KEIL_V5\C51\LIB\C51L.LIB (?C?IILDX)
  C:\KEIL_V5\C51\LIB\C51L.LIB (?C?LNEG)
  C:\KEIL_V5\C51\LIB\C51L.LIB (?C?SLCMP)
  C:\KEIL_V5\C51\LIB\C51L.LIB (?C?ULCMP)
  C:\KEIL_V5\C51\LIB\C51L.LIB (?C?ULSHR)
  C:\KEIL_V5\C51\LIB\C51L.LIB (?C?LSHL)
  C:\KEIL_V5\C51\LIB\C51L.LIB (?C?LLDCODE)
  C:\KEIL_V5\C51\LIB\C51L.LIB (?C?LLDXDATA0)
  C:\KEIL_V5\C51\LIB\C51L.LIB (?C?LLDCODE0)
BL51 BANKED LINKER/LOCATER V6.22.2.0                                                  12/01/2020  12:04:38  PAGE 2


  C:\KEIL_V5\C51\LIB\C51L.LIB (?C?LSTXDATA)
  C:\KEIL_V5\C51\LIB\C51L.LIB (?C?LSTKXDATA)
  C:\KEIL_V5\C51\LIB\C51L.LIB (?C?PLDIXDATA)
  C:\KEIL_V5\C51\LIB\C51L.LIB (?C?PSTXDATA)
  C:\KEIL_V5\C51\LIB\C51L.LIB (?C?CCASE)
  C:\KEIL_V5\C51\LIB\C51L.LIB (STRCAT)
  C:\KEIL_V5\C51\LIB\C51L.LIB (?C?STRCMP)
  C:\KEIL_V5\C51\LIB\C51L.LIB (?C?STRCPY)
  C:\KEIL_V5\C51\LIB\C51L.LIB (STRLEN)
  C:\KEIL_V5\C51\LIB\C51L.LIB (STRTOK)
  C:\KEIL_V5\C51\LIB\C51L.LIB (ATOL)
  C:\KEIL_V5\C51\LIB\C51L.LIB (ATOI)
  C:\KEIL_V5\C51\LIB\C51L.LIB (MALLOC)
  C:\KEIL_V5\C51\LIB\C51L.LIB (INIT_MEM)
  C:\KEIL_V5\C51\LIB\C51L.LIB (FREE)
  C:\KEIL_V5\C51\LIB\C51L.LIB (?C_INIT)
  C:\KEIL_V5\C51\LIB\C51L.LIB (?C?ILDIX)
  C:\KEIL_V5\C51\LIB\C51L.LIB (?C?LMUL)
  C:\KEIL_V5\C51\LIB\C51L.LIB (ISDIGIT)
  C:\KEIL_V5\C51\LIB\C51L.LIB (ISSPACE)
  C:\KEIL_V5\C51\LIB\C51L.LIB (STRSPN)
  C:\KEIL_V5\C51\LIB\C51L.LIB (STRPBRK)


LINK MAP OF MODULE:  .\Objects\expedidor_v_01_raspberry (MAIN)


            TYPE    BASE      LENGTH    RELOCATION   SEGMENT NAME
            -----------------------------------------------------

            * * * * * * *   D A T A   M E M O R Y   * * * * * * *
            REG     0000H     0008H     ABSOLUTE     "REG BANK 0"
            DATA    0008H     0005H     UNIT         _DATA_GROUP_
            DATA    000DH     0004H     UNIT         ?DT?UART
            IDATA   0011H     0009H     UNIT         ?ID?MONITOR
                    001AH     0006H                  *** GAP ***
            BIT     0020H.0   0001H.1   UNIT         _BIT_GROUP_
            BIT     0021H.1   0000H.3   UNIT         ?BI?MAIN
            BIT     0021H.4   0000H.2   UNIT         ?BI?UART
            BIT     0021H.6   0000H.1   UNIT         ?BI?EEPROM
            BIT     0021H.7   0000H.1   UNIT         ?BI?IO_SENSORES
            BIT     0022H.0   0000H.1   UNIT         ?BI?VERIFICADOR
                    0022H.1   0000H.7                *** GAP ***
            IDATA   0023H     0046H     UNIT         ?ID?MAIN
            IDATA   0069H     0001H     UNIT         ?STACK

            * * * * * * *  X D A T A   M E M O R Y  * * * * * * *
            XDATA   0000H     00B7H     UNIT         _XDATA_GROUP_
            XDATA   00B7H     008AH     UNIT         ?XD?VERIFICADOR
            XDATA   0141H     006CH     UNIT         ?XD?MAIN
            XDATA   01ADH     0059H     UNIT         ?XD?PROG
            XDATA   0206H     0050H     UNIT         ?XD?PANTALLAS
            XDATA   0256H     0008H     UNIT         ?XD?INIT_MEM
            XDATA   025EH     0003H     UNIT         ?XD?EEPROM
            XDATA   0261H     0003H     UNIT         ?XD?UART
            XDATA   0264H     0003H     UNIT         ?XD?STRTOK
            XDATA   0267H     0001H     UNIT         ?XD?ACCESCAN
BL51 BANKED LINKER/LOCATER V6.22.2.0                                                  12/01/2020  12:04:38  PAGE 3


            XDATA   0268H     0001H     UNIT         ?XD?CLOCK
            XDATA   0269H     0001H     UNIT         ?XD?IO_SENSORES

            * * * * * * *   C O D E   M E M O R Y   * * * * * * *
            CODE    0000H     0003H     ABSOLUTE     
            CODE    0003H     0008H     UNIT         ?PR?P_CK?CLOCK
            CODE    000BH     0003H     ABSOLUTE     
            CODE    000EH     0015H     UNIT         ?PR?_STRLEN?STRLEN
            CODE    0023H     0003H     ABSOLUTE     
            CODE    0026H     1308H     UNIT         ?CO?PROG
            CODE    132EH     0B8BH     UNIT         ?C?LIB_CODE
            CODE    1EB9H     07EEH     UNIT         ?CO?VERIFICADOR
            CODE    26A7H     06F4H     UNIT         ?PR?_PANTALLALCD?PANTALLAS
            CODE    2D9BH     0656H     UNIT         ?CO?PANTALLAS
            CODE    33F1H     0492H     UNIT         ?PR?_SECUENCIAEXPEDIDORMF?VERIFICADOR
            CODE    3883H     0483H     UNIT         ?PR?PRINTF?PRINTF
            CODE    3D06H     035CH     UNIT         ?PR?VER_PROG?PROG
            CODE    4062H     033EH     UNIT         ?PR?_VALIDA_TRAMA_PTO?ACCESCAN
            CODE    43A0H     02D0H     UNIT         ?PR?_TWO_BYTEHEX_DECIMAL?CLOCK
            CODE    4670H     02B7H     UNIT         ?PR?_PROG_HORARIO_DIAS?PROG
            CODE    4927H     02B2H     UNIT         ?PR?_PANTALLALCD_LINEA_2?PANTALLAS
            CODE    4BD9H     022CH     UNIT         ?PR?MENU?PROG
            CODE    4E05H     0208H     UNIT         ?PR?_HASH_ID?PROG
            CODE    500DH     01FAH     UNIT         ?PR?_PROG_HORARIO_DESDE_HASTA?PROG
            CODE    5207H     01F5H     UNIT         ?PR?PROG_FECHA_VENCIMIENTO?PROG
            CODE    53FCH     01DFH     UNIT         ?PR?_RESPONDE_LECTURA_TARJETA_SECTOR1_BLOQUE1?VERIFICADOR
            CODE    55DBH     01B3H     UNIT         ?PR?COM_ISR?UART
            CODE    578EH     01A9H     UNIT         ?PR?_ARMAR_TRAMA_PTO_PARALELO_EXPEDIDOR?VERIFICADOR
            CODE    5937H     01A5H     UNIT         ?CO?LINTECH
            CODE    5ADCH     01A4H     UNIT         ?PR?_VALIDA_TIPO_TARJETA?VERIFICADOR
            CODE    5C80H     016EH     UNIT         ?PR?_BLOCK_READ_CLOCK_ASCII?CLOCK
            CODE    5DEEH     0166H     UNIT         ?PR?_POW?POW
            CODE    5F54H     0154H     UNIT         ?PR?_ARMAR_TRAMA_MONITOR?VERIFICADOR
            CODE    60A8H     0145H     UNIT         ?PR?PROG_HORARIOS?PROG
            CODE    61EDH     0142H     UNIT         ?PR?_ARMAR_TRAMA_TARJETA_SECTOR1_BLOQUE2?VERIFICADOR
            CODE    632FH     013FH     UNIT         ?PR?_FREE?FREE
            CODE    646EH     013EH     UNIT         ?PR?PROG_SIN_COBRO?PROG
            CODE    65ACH     013EH     UNIT         ?PR?SECUENCIA_INICIO_EXPEDIDOR?VERIFICADOR
            CODE    66EAH     0137H     UNIT         ?PR?VER_HORARIO?PROG
            CODE    6821H     012BH     UNIT         ?PR?_RESPONDE_LECTURA_TARJETA_SECTOR1_BLOQUE2?VERIFICADOR
            CODE    694CH     0129H     UNIT         ?PR?LOG?LOG
            CODE    6A75H     0128H     UNIT         ?PR?_VER_HORARIO_DIAS?PROG
            CODE    6B9DH     011CH     UNIT         ?PR?LOAD_AND_SEND_ID_COD?PTO_PARALELO
            CODE    6CB9H     011AH     UNIT         ?PR?_PROG_HORARIOS_ON_OFF?PROG
            CODE    6DD3H     0119H     UNIT         ?PR?_VER_HORARIO_DESDE_HASTA?PROG
            CODE    6EECH     0115H     UNIT         ?PR?_VALIDAR_CLK?CLOCK
            CODE    7001H     010FH     UNIT         ?PR?_HORARIOS?VERIFICADOR
            CODE    7110H     010CH     UNIT         ?PR?_ATOL?ATOL
            CODE    721CH     0103H     UNIT         ?PR?_BLOQUE_HORARIO?VERIFICADOR
            CODE    731FH     0100H     UNIT         ?PR?_WR_MF?LINTECH
            CODE    741FH     00FCH     UNIT         ?PR?PROG_DEBUG?PROG
            CODE    751BH     00FCH     UNIT         ?PR?PROG_USE_LPR?PROG
            CODE    7617H     00FCH     UNIT         ?PR?TIPO_PANTALLA?PROG
            CODE    7713H     00FCH     UNIT         ?PR?PROG_ANTIPASSBACK?PROG
            CODE    780FH     00FCH     UNIT         ?PR?PROG_PLACA?PROG
            CODE    790BH     00FCH     UNIT         ?PR?PROG_VALIDAR_TIPO_VEHICULO_MENSUAL?PROG
            CODE    7A07H     00FCH     UNIT         ?PR?PROG_APB_MENSUAL?PROG
BL51 BANKED LINKER/LOCATER V6.22.2.0                                                  12/01/2020  12:04:38  PAGE 4


            CODE    7B03H     00F1H     UNIT         ?PR?_WRITE_EEPROM_TICKET?EEPROM
            CODE    7BF4H     00EAH     UNIT         ?PR?_MOV_CARD?LINTECH
            CODE    7CDEH     00E4H     UNIT         ?PR?_STRTOK?STRTOK
            CODE    7DC2H     00DEH     UNIT         ?PR?PROG_ADDRESS_HIGH_BOARD?PROG
            CODE    7EA0H     00DBH     UNIT         ?PR?_ATOI?ATOI
            CODE    7F7BH     00D7H     UNIT         ?PR?_ANALIZA_UID_CARD?VERIFICADOR
            CODE    8052H     00D6H     UNIT         ?PR?_CMD_LPR_SALIDA_WIEGAND?ACCESCAN
            CODE    8128H     00D2H     UNIT         ?C_INITSEG
            CODE    81FAH     00D1H     UNIT         ?PR?_ARMAR_TRAMA_PTO_PARALELO_EXPEDIDOR_MENSUAL?VERIFICADOR
            CODE    82CBH     00D1H     UNIT         ?PR?_MALLOC?MALLOC
            CODE    839CH     00CCH     UNIT         ?PR?_GRABA_SERIE?EEPROM
            CODE    8468H     00CBH     UNIT         ?PR?_RTA_CMD_TRANSPORTE?VERIFICADOR
            CODE    8533H     00CAH     UNIT         ?PR?READ_EEPROM_TICKET?EEPROM
            CODE    85FDH     00C9H     UNIT         ?PR?_CHECK_FECHAOUT?CLOCK
            CODE    86C6H     00C4H     UNIT         ?PR?_BLOCK_READ_CLOCK?CLOCK
            CODE    878AH     00C4H     UNIT         ?PR?_TARJETA_MENSUAL?VERIFICADOR
            CODE    884EH     00C3H     UNIT         ?PR?_RD_MF?LINTECH
            CODE    8911H     00C2H     UNIT         ?PR?PROG_TARJETA_AUTOMATICA_O_BOTON?PROG
            CODE    89D3H     00C1H     UNIT         ?PR?_RECIBE_CMD_MONITOR?MONITOR
            CODE    8A94H     00BFH     UNIT         ?CO?IO_SENSORES
            CODE    8B53H     00BEH     UNIT         ?PR?ERROR_RX_PTO?VERIFICADOR
            CODE    8C11H     00BDH     UNIT         ?PR?PROG_COD_PARK?PROG
            CODE    8CCEH     00BDH     UNIT         ?PR?PROG_TIEMPO_GRACIA?PROG
            CODE    8D8BH     00BBH     UNIT         ?PR?_VALIDA_TRAMA_MONITOR?MONITOR
            CODE    8E46H     00BAH     UNIT         ?CO?TIBBO
            CODE    8F00H     00B6H     UNIT         ?PR?PROG_ID_CLIENTE?PROG
            CODE    8FB6H     00B5H     UNIT         ?PR?_WAIT_PLACA?VERIFICADOR
            CODE    906BH     00B4H     UNIT         ?PR?_SEND_PORT?PTO_PARALELO
            CODE    911FH     00ACH     UNIT         ?PR?_HORA_MAXIMA?VERIFICADOR
            CODE    91CBH     00AAH     UNIT         ?PR?CLAVE_SEGURIDAD_S2?LINTECH
            CODE    9275H     00A9H     UNIT         ?PR?DWLOAD_EEPROM?LINTECH
            CODE    931EH     00A6H     UNIT         ?PR?_BLOCK_READ_CLOCK_HEX?CLOCK
            CODE    93C4H     00A4H     UNIT         ?PR?_ARMAR_TRAMA_TARJETA_SECTOR1_BLOQUE1_CAMCEL?VERIFICADOR
            CODE    9468H     009DH     UNIT         ?PR?_INICIALIZA?LINTECH
            CODE    9505H     009CH     UNIT         ?PR?_RESPUESTA_PLACA_CANCEL?VERIFICADOR
            CODE    95A1H     009AH     UNIT         ?PR?_RESPONDE_LECTURA_TARJETA_SECTOR1_BLOQUE0?VERIFICADOR
            CODE    963BH     009AH     UNIT         ?PR?EXP?EXP
            CODE    96D5H     0099H     UNIT         ?PR?SHOW?PROG
            CODE    976EH     0099H     UNIT         ?PR?_RECIBE_PORT?PTO_PARALELO
            CODE    9807H     0098H     UNIT         ?PR?_VALIDA_VEHICULO_CARD_MENSUAL?VERIFICADOR
            CODE    989FH     0091H     UNIT         ?PR?_HEX_ASCII?CLOCK
            CODE    9930H     0091H     UNIT         ?PR?_CARD_INSERCION?LINTECH
            CODE    99C1H     0090H     UNIT         ?PR?_LEE_CLK?CLOCK
            CODE    9A51H     0090H     UNIT         ?PR?_GETOPTION?PROG
            CODE    9AE1H     0090H     UNIT         ?PR?ENTREGA_CARD_CAPTURA?VERIFICADOR
            CODE    9B71H     008FH     UNIT         ?PR?_BLOCK_WRITE_CLOCK_ASCII?CLOCK
            CODE    9C00H     008FH     UNIT         ?PR?_RESPONDE_WRITE_TARJETA_SECTOR1_BLOQUE2?VERIFICADOR
            CODE    9C8FH     008DH     UNIT         ?PR?LOADVERIFY_EEPROM?LINTECH
            CODE    9D1CH     008CH     UNIT         ?C_C51STARTUP
            CODE    9DA8H     0089H     UNIT         ?PR?_RASPBERRY_DATA?PANTALLAS
            CODE    9E31H     0088H     UNIT         ?PR?_SEND_PORTERR?PTO_PARALELO
            CODE    9EB9H     0088H     UNIT         ?PR?RX_DATA?TIBBO
            CODE    9F41H     0088H     UNIT         ?PR?UNIQUE_IDENTIFIER_UID?LINTECH
            CODE    9FC9H     0086H     UNIT         ?PR?_CHECK_STATUS?LINTECH
            CODE    A04FH     0084H     UNIT         ?PR?_SEND_PTO_PARALELO?VERIFICADOR
            CODE    A0D3H     0084H     UNIT         ?PR?_STRSPN?STRSPN
            CODE    A157H     0081H     UNIT         ?PR?_STRPBRK?STRPBRK
BL51 BANKED LINKER/LOCATER V6.22.2.0                                                  12/01/2020  12:04:38  PAGE 5


            CODE    A1D8H     0080H     UNIT         ?PR?MSJ_LCD_INFORMATIVO?IO_SENSORES
            CODE    A258H     0080H     UNIT         ?PR?_INGRESADATO?PROG
            CODE    A2D8H     0080H     UNIT         ?PR?AUT_CARD_CHECK_STATUS?LINTECH
            CODE    A358H     0080H     UNIT         ?PR?POWER_OFF?LINTECH
            CODE    A3D8H     007FH     UNIT         ?PR?MAIN?MAIN
            CODE    A457H     007CH     UNIT         ?PR?RESPONDE_ESTADO_SENSORES_TRANSPORTE?VERIFICADOR
            CODE    A4D3H     0077H     UNIT         ?PR?RESPONDE_TIPO_TARJETA?VERIFICADOR
            CODE    A54AH     0073H     UNIT         ?PR?_DEBUGBUFFERMF?TIBBO
            CODE    A5BDH     0071H     UNIT         ?PR?_EN_HORARIO?VERIFICADOR
            CODE    A62EH     006FH     UNIT         ?PR?_ESCRIBIRMEMORIA?EEPROM
            CODE    A69DH     006FH     UNIT         ?PR?_DISPARO_LOCK_ENTRADA_VEHICULO?VERIFICADOR
            CODE    A70CH     006BH     UNIT         ?PR?_STRCAT?STRCAT
            CODE    A777H     0066H     UNIT         ?PR?_LEERMEMORIA?EEPROM
            CODE    A7DDH     0062H     UNIT         ?PR?_LISTACOMANDOS?PROG
            CODE    A83FH     005EH     UNIT         ?PR?_BYTEHEX_DECIMAL?CLOCK
            CODE    A89DH     005DH     UNIT         ?PR?_RESPUESTA_SEGUNDA_CLAVE?VERIFICADOR
            CODE    A8FAH     005CH     UNIT         ?PR?_ARMAR_TRAMA_PLACA?VERIFICADOR
            CODE    A956H     005BH     UNIT         ?PR?VALIDA_SENSOR1_AUTO?IO_SENSORES
            CODE    A9B1H     0056H     UNIT         ?PR?_WR_EEPROM?EEPROM
            CODE    AA07H     0052H     UNIT         ?PR?INGRESO_VEHICULO?VERIFICADOR
            CODE    AA59H     004EH     UNIT         ?PR?RELOJ_PANTALLA_LCD?PANTALLAS
            CODE    AAA7H     004DH     UNIT         ?PR?VARIABLE_INICIO?MAIN
            CODE    AAF4H     004DH     UNIT         ?PR?L_D_M?EEPROM
            CODE    AB41H     004CH     UNIT         ?PR?LEE_NO_TICKET?EEPROM
            CODE    AB8DH     004BH     UNIT         ?PR?_TX_AUX?TIBBO
            CODE    ABD8H     0049H     UNIT         ?PR?_DEBUG_TXT_TIBBO?TIBBO
            CODE    AC21H     0048H     UNIT         ?PR?FIRST_CLAVE?PROG
            CODE    AC69H     0047H     UNIT         ?PR?_DEBUG_CHR_TIBBO?TIBBO
            CODE    ACB0H     0047H     UNIT         ?PR?_RESPONDE_WRITE_TARJETA_SECTOR2_BLOQUE0?VERIFICADOR
            CODE    ACF7H     0046H     UNIT         ?PR?_ESCRIBIRCADENASOFT_BUFFER?MAIN
            CODE    AD3DH     0046H     UNIT         ?PR?_LCD_TXT_NUM_CHAR?PANTALLAS
            CODE    AD83H     0046H     UNIT         ?PR?_DEBUG_HEXDEC?TIBBO
            CODE    ADC9H     0046H     UNIT         ?PR?_PREGUNTA_LPR?VERIFICADOR
            CODE    AE0FH     0044H     UNIT         ?PR?_LCD_TXT?PANTALLAS
            CODE    AE53H     0043H     UNIT         ?PR?DIR_BOARD?IO_SENSORES
            CODE    AE96H     0042H     UNIT         ?PR?_VALIDARCLAVE?PROG
            CODE    AED8H     0041H     UNIT         ?PR?_MONITOR_CHR?ACCESCAN
            CODE    AF19H     0041H     UNIT         ?PR?_TWO_ONE?CLOCK
            CODE    AF5AH     0040H     UNIT         ?PR?_GETCMD?PROG
            CODE    AF9AH     003FH     UNIT         ?PR?_EB_CLK?CLOCK
            CODE    AFD9H     003EH     UNIT         ?PR?_PUTCHAR?MAIN
            CODE    B017H     003EH     UNIT         ?PR?TRAMA_VALIDACION_P_N?VERIFICADOR
            CODE    B055H     003DH     UNIT         ?PR?_HEX_BCD?CLOCK
            CODE    B092H     003DH     UNIT         ?PR?_RD_EEPROM?EEPROM
            CODE    B0CFH     003DH     UNIT         ?PR?_LOAD_SECUENCIA_EXPEDIDOR?VERIFICADOR
            CODE    B10CH     003CH     UNIT         ?PR?_INIT_MEMPOOL?INIT_MEM
            CODE    B148H     003BH     UNIT         ?CO?EEPROM
            CODE    B183H     003BH     UNIT         ?PR?_DEBUG_PTO_PARALELO?TIBBO
            CODE    B1BEH     003BH     UNIT         ?PR?_COM_PUTCHAR?UART
            CODE    B1F9H     003AH     UNIT         ?PR?_DELAY_10MS?DELAY
            CODE    B233H     0038H     UNIT         ?PR?VALIDASENSORESPASO?IO_SENSORES
            CODE    B26BH     0036H     UNIT         ?PR?_RESPONDE_WRITE_TARJETA_SECTOR1_BLOQUE1?VERIFICADOR
            CODE    B2A1H     0036H     UNIT         ?PR?_RESPONDE_WRITE_TARJETA_SECTOR1_BLOQUE0?VERIFICADOR
            CODE    B2D7H     0034H     UNIT         ?PR?INCREMENTE_TICKET?EEPROM
            CODE    B30BH     0034H     UNIT         ?PR?ADDR_HORARIOS?PROG
            CODE    B33FH     0032H     UNIT         ?PR?_DEBUG_MONITOR?TIBBO
            CODE    B371H     0031H     UNIT         ?PR?_TARJETA_ROTACION?VERIFICADOR
BL51 BANKED LINKER/LOCATER V6.22.2.0                                                  12/01/2020  12:04:38  PAGE 6


            CODE    B3A2H     0030H     UNIT         ?PR?PREGUNTA_PLACA?VERIFICADOR
            CODE    B3D2H     002EH     UNIT         ?PR?TIMER0_INT?MAIN
            CODE    B400H     002CH     UNIT         ?PR?LOAD_AND_SEND_INFO_RELOJ?PTO_PARALELO
            CODE    B42CH     002AH     UNIT         ?PR?COM_INITIALIZE?UART
            CODE    B456H     0028H     UNIT         ?PR?_WR_CLK?CLOCK
            CODE    B47EH     0028H     UNIT         ?PR?COM_BAUDRATE?UART
            CODE    B4A6H     0028H     UNIT         ?PR?_ARMAR_TRAMA_TARJETA_SECTOR1_BLOQUE0?VERIFICADOR
            CODE    B4CEH     0027H     UNIT         ?PR?_TX_CHRLCD?PANTALLAS
            CODE    B4F5H     0026H     UNIT         ?PR?COM_GETCHAR?UART
            CODE    B51BH     0026H     UNIT         ?PR?ANALIZA_PRESENCIA_MENSUAL?VERIFICADOR
            CODE    B541H     0026H     UNIT         ?PR?RX_MONITOR?MONITOR
            CODE    B567H     0023H     UNIT         ?PR?ANALIZA_PRESENCIA_ROTACION?VERIFICADOR
            CODE    B58AH     0022H     UNIT         ?PR?_E_D_M?EEPROM
            CODE    B5ACH     0020H     UNIT         ?PR?ACKD?EEPROM
            CODE    B5CCH     0020H     UNIT         ?PR?ACK_LECT?EEPROM
            CODE    B5ECH     001FH     UNIT         ?PR?VALIDASENSOR?IO_SENSORES
            CODE    B60BH     001FH     UNIT         ?PR?TIME_BIT?TIBBO
            CODE    B62AH     001EH     UNIT         ?PR?_BCD_HEX?CLOCK
            CODE    B648H     001BH     UNIT         ?PR?_DELAY_1MS?DELAY
            CODE    B663H     0018H     UNIT         ?PR?CLEAR_PLACA?MONITOR
            CODE    B67BH     0017H     UNIT         ?PR?DISPLAYCURSOR?PROG
            CODE    B692H     0017H     UNIT         ?PR?TIME_MBIT?TIBBO
            CODE    B6A9H     0016H     UNIT         ?PR?DIR_BOARD_MONITOR?IO_SENSORES
            CODE    B6BFH     0014H     UNIT         ?PR?DEBUG_DIVIDIR_TEXTO?TIBBO
            CODE    B6D3H     0014H     UNIT         ?PR?_ISSPACE?ISSPACE
            CODE    B6E7H     0012H     UNIT         ?PR?_DELAY_20US?DELAY
            CODE    B6F9H     0012H     UNIT         ?PR?START?EEPROM
            CODE    B70BH     0012H     UNIT         ?PR?BOTTON?IO_SENSORES
            CODE    B71DH     0012H     UNIT         ?PR?PULSO_BUS?PTO_PARALELO
            CODE    B72FH     0012H     UNIT         ?PR?COM_RBUFLEN?UART
            CODE    B741H     0012H     UNIT         ?PR?COM_TBUFLEN?UART
            CODE    B753H     0010H     UNIT         ?PR?INI_TIMER?MAIN
            CODE    B763H     0010H     UNIT         ?PR?INICIA_BOARD?MAIN
            CODE    B773H     000FH     UNIT         ?PR?_ISDIGIT?ISDIGIT
            CODE    B782H     000CH     UNIT         ?PR?_GETKEY?MAIN
            CODE    B78EH     000AH     UNIT         ?PR?COND_INI_PTO?PTO_PARALELO
            CODE    B798H     0009H     UNIT         ?PR?STOP?EEPROM
            CODE    B7A1H     0009H     UNIT         ?PR?CAPTURA_EXPULSA?VERIFICADOR
            CODE    B7AAH     0007H     UNIT         ?PR?COND_INI_CLOCK?CLOCK
            CODE    B7B1H     0007H     UNIT         ?PR?SEL_FUNCION?IO_SENSORES
            CODE    B7B8H     0007H     UNIT         ?PR?SEL_AUTO?IO_SENSORES
            CODE    B7BFH     0007H     UNIT         ?PR?SEL_PULSA?IO_SENSORES
            CODE    B7C6H     0007H     UNIT         ?PR?SEL_SENSOR2?IO_SENSORES
            CODE    B7CDH     0007H     UNIT         ?PR?SEL_SENSOR1?IO_SENSORES
            CODE    B7D4H     0007H     UNIT         ?PR?SEL_DIR1?IO_SENSORES
            CODE    B7DBH     0007H     UNIT         ?PR?SEL_DIR2?IO_SENSORES
            CODE    B7E2H     0006H     UNIT         ?PR?P_ME?EEPROM
            CODE    B7E8H     0005H     UNIT         ?PR?ON_TIMER0_INTERRUP?MAIN
            CODE    B7EDH     0005H     UNIT         ?CO?ACCESCAN
            CODE    B7F2H     0005H     UNIT         ?PR?COND_INI_TIBBO?TIBBO
            CODE    B7F7H     0003H     UNIT         ?PR?OFF_TIMER0_INTERRUP?MAIN
            CODE    B7FAH     0003H     UNIT         ?CO?PTO_PARALELO
            CODE    B7FDH     0001H     UNIT         ?PR?DELAY?DELAY



OVERLAY MAP OF MODULE:   .\Objects\expedidor_v_01_raspberry (MAIN)
BL51 BANKED LINKER/LOCATER V6.22.2.0                                                  12/01/2020  12:04:38  PAGE 7




SEGMENT                                             BIT_GROUP          DATA_GROUP          XDATA_GROUP
  +--> CALLED SEGMENT                            START    LENGTH     START    LENGTH     START    LENGTH
--------------------------------------------------------------------------------------------------------
?C_C51STARTUP                                    -----    -----      -----    -----      -----    -----
  +--> ?PR?MAIN?MAIN
  +--> ?C_INITSEG

?PR?MAIN?MAIN                                    -----    -----      -----    -----      0000H    0001H
  +--> ?PR?INI_TIMER?MAIN
  +--> ?PR?ON_TIMER0_INTERRUP?MAIN
  +--> ?PR?COM_INITIALIZE?UART
  +--> ?PR?COM_BAUDRATE?UART
  +--> ?PR?INICIA_BOARD?MAIN
  +--> ?PR?TIME_BIT?TIBBO
  +--> ?PR?_DELAY_20US?DELAY
  +--> ?PR?TIME_MBIT?TIBBO
  +--> ?PR?_TX_AUX?TIBBO
  +--> ?PR?SEL_FUNCION?IO_SENSORES
  +--> ?PR?MENU?PROG
  +--> ?PR?VARIABLE_INICIO?MAIN
  +--> ?PR?SECUENCIA_INICIO_EXPEDIDOR?VERIFI...
  +--> ?PR?RX_MONITOR?MONITOR
  +--> ?PR?_SECUENCIAEXPEDIDORMF?VERIFICADOR
  +--> ?PR?_RECIBE_PORT?PTO_PARALELO
  +--> ?PR?_DEBUG_PTO_PARALELO?TIBBO
  +--> ?PR?_VALIDA_TRAMA_PTO?ACCESCAN
  +--> ?PR?MSJ_LCD_INFORMATIVO?IO_SENSORES

?PR?COM_INITIALIZE?UART                          -----    -----      -----    -----      -----    -----
  +--> ?PR?COM_BAUDRATE?UART

?PR?INICIA_BOARD?MAIN                            -----    -----      -----    -----      -----    -----
  +--> ?PR?COND_INI_TIBBO?TIBBO
  +--> ?PR?COND_INI_CLOCK?CLOCK
  +--> ?PR?COND_INI_PTO?PTO_PARALELO

?PR?_TX_AUX?TIBBO                                -----    -----      -----    -----      -----    -----
  +--> ?PR?TIME_BIT?TIBBO

?PR?MENU?PROG                                    -----    -----      -----    -----      0001H    0045H
  +--> ?CO?PROG
  +--> ?PR?PRINTF?PRINTF
  +--> ?PR?_RD_EEPROM?EEPROM
  +--> ?PR?FIRST_CLAVE?PROG
  +--> ?PR?_WR_EEPROM?EEPROM
  +--> ?PR?_LEERMEMORIA?EEPROM
  +--> ?PR?_HASH_ID?PROG
  +--> ?PR?_INGRESADATO?PROG
  +--> ?PR?_GETCMD?PROG
  +--> ?PR?_ESCRIBIRMEMORIA?EEPROM
  +--> ?PR?_VALIDARCLAVE?PROG
  +--> ?PR?DISPLAYCURSOR?PROG
  +--> ?PR?_STRLEN?STRLEN
  +--> ?PR?_GETOPTION?PROG
  +--> ?PR?_STRCAT?STRCAT
BL51 BANKED LINKER/LOCATER V6.22.2.0                                                  12/01/2020  12:04:38  PAGE 8


  +--> ?PR?_LISTACOMANDOS?PROG
  +--> ?PR?PROG_ID_CLIENTE?PROG
  +--> ?PR?PROG_COD_PARK?PROG
  +--> ?PR?PROG_TIEMPO_GRACIA?PROG
  +--> ?PR?PROG_SIN_COBRO?PROG
  +--> ?PR?PROG_DEBUG?PROG
  +--> ?PR?PROG_USE_LPR?PROG
  +--> ?PR?TIPO_PANTALLA?PROG
  +--> ?PR?PROG_TARJETA_AUTOMATICA_O_BOTON?PROG
  +--> ?PR?PROG_ANTIPASSBACK?PROG
  +--> ?PR?PROG_PLACA?PROG
  +--> ?PR?PROG_ADDRESS_HIGH_BOARD?PROG
  +--> ?PR?PROG_HORARIOS?PROG
  +--> ?PR?PROG_VALIDAR_TIPO_VEHICULO_MENSUA...
  +--> ?PR?PROG_APB_MENSUAL?PROG
  +--> ?PR?VER_PROG?PROG
  +--> ?PR?SHOW?PROG
  +--> ?PR?PROG_FECHA_VENCIMIENTO?PROG

?PR?PRINTF?PRINTF                                0020H.0  0001H.1    0008H    0005H      0077H    0030H
  +--> ?PR?_PUTCHAR?MAIN

?PR?_PUTCHAR?MAIN                                -----    -----      -----    -----      00A7H    0003H
  +--> ?PR?_COM_PUTCHAR?UART

?PR?_COM_PUTCHAR?UART                            -----    -----      -----    -----      00AAH    0001H
  +--> ?PR?COM_TBUFLEN?UART

?PR?_RD_EEPROM?EEPROM                            -----    -----      -----    -----      -----    -----
  +--> ?PR?START?EEPROM
  +--> ?PR?ACK_LECT?EEPROM
  +--> ?PR?_E_D_M?EEPROM
  +--> ?PR?ACKD?EEPROM
  +--> ?PR?L_D_M?EEPROM
  +--> ?PR?STOP?EEPROM

?PR?ACK_LECT?EEPROM                              -----    -----      -----    -----      -----    -----
  +--> ?PR?_E_D_M?EEPROM

?PR?_E_D_M?EEPROM                                -----    -----      -----    -----      -----    -----
  +--> ?PR?P_ME?EEPROM

?PR?ACKD?EEPROM                                  -----    -----      -----    -----      -----    -----
  +--> ?PR?_E_D_M?EEPROM

?PR?FIRST_CLAVE?PROG                             -----    -----      -----    -----      0046H    000BH
  +--> ?PR?_BLOCK_READ_CLOCK_ASCII?CLOCK
  +--> ?PR?_HASH_ID?PROG
  +--> ?PR?_ESCRIBIRMEMORIA?EEPROM

?PR?_BLOCK_READ_CLOCK_ASCII?CLOCK                -----    -----      -----    -----      0051H    0003H
  +--> ?PR?_LEE_CLK?CLOCK

?PR?_LEE_CLK?CLOCK                               -----    -----      -----    -----      00B1H    0003H
  +--> ?PR?_DELAY_20US?DELAY
  +--> ?PR?_EB_CLK?CLOCK
  +--> ?PR?P_CK?CLOCK
BL51 BANKED LINKER/LOCATER V6.22.2.0                                                  12/01/2020  12:04:38  PAGE 9



?PR?_EB_CLK?CLOCK                                -----    -----      -----    -----      00B4H    0003H
  +--> ?PR?P_CK?CLOCK

?PR?P_CK?CLOCK                                   -----    -----      -----    -----      -----    -----
  +--> ?PR?DELAY?DELAY

?PR?_HASH_ID?PROG                                -----    -----      -----    -----      005DH    003FH
  +--> ?CO?PROG
  +--> ?PR?_LEERMEMORIA?EEPROM
  +--> ?PR?_CHECK_FECHAOUT?CLOCK
  +--> ?PR?_STRLEN?STRLEN

?PR?_LEERMEMORIA?EEPROM                          -----    -----      -----    -----      009CH    0005H
  +--> ?PR?_RD_EEPROM?EEPROM

?PR?_CHECK_FECHAOUT?CLOCK                        -----    -----      -----    -----      009CH    0012H
  +--> ?PR?_BLOCK_READ_CLOCK_HEX?CLOCK

?PR?_BLOCK_READ_CLOCK_HEX?CLOCK                  -----    -----      -----    -----      00AEH    0003H
  +--> ?PR?_LEE_CLK?CLOCK
  +--> ?PR?_BCD_HEX?CLOCK

?PR?_ESCRIBIRMEMORIA?EEPROM                      -----    -----      -----    -----      005DH    0005H
  +--> ?PR?_WR_EEPROM?EEPROM

?PR?_WR_EEPROM?EEPROM                            -----    -----      -----    -----      -----    -----
  +--> ?PR?START?EEPROM
  +--> ?PR?ACKD?EEPROM
  +--> ?PR?_E_D_M?EEPROM
  +--> ?PR?STOP?EEPROM
  +--> ?PR?_DELAY_1MS?DELAY
  +--> ?PR?_DELAY_20US?DELAY

?PR?_DELAY_1MS?DELAY                             -----    -----      -----    -----      -----    -----
  +--> ?PR?_DELAY_20US?DELAY

?PR?_INGRESADATO?PROG                            -----    -----      -----    -----      0071H    0004H
  +--> ?PR?_GETKEY?MAIN
  +--> ?CO?PROG
  +--> ?PR?PRINTF?PRINTF
  +--> ?PR?_PUTCHAR?MAIN

?PR?_GETKEY?MAIN                                 -----    -----      -----    -----      -----    -----
  +--> ?PR?COM_GETCHAR?UART

?PR?COM_GETCHAR?UART                             -----    -----      -----    -----      -----    -----
  +--> ?PR?COM_RBUFLEN?UART

?PR?_GETCMD?PROG                                 -----    -----      -----    -----      005DH    0007H
  +--> ?CO?PROG
  +--> ?PR?_STRTOK?STRTOK

?PR?_STRTOK?STRTOK                               -----    -----      -----    -----      0064H    0006H
  +--> ?PR?_STRSPN?STRSPN
  +--> ?PR?_STRPBRK?STRPBRK

BL51 BANKED LINKER/LOCATER V6.22.2.0                                                  12/01/2020  12:04:38  PAGE 10


?PR?_STRSPN?STRSPN                               -----    -----      -----    -----      006AH    0008H

?PR?_STRPBRK?STRPBRK                             -----    -----      -----    -----      006AH    0009H

?PR?_VALIDARCLAVE?PROG                           -----    -----      -----    -----      005DH    000EH

?PR?DISPLAYCURSOR?PROG                           -----    -----      -----    -----      -----    -----
  +--> ?CO?PROG
  +--> ?PR?PRINTF?PRINTF

?PR?_GETOPTION?PROG                              -----    -----      -----    -----      0046H    000BH
  +--> ?CO?PROG
  +--> ?PR?_STRTOK?STRTOK

?PR?_STRCAT?STRCAT                               -----    -----      -----    -----      0046H    0009H

?PR?_LISTACOMANDOS?PROG                          -----    -----      -----    -----      0046H    0007H

?PR?PROG_ID_CLIENTE?PROG                         -----    -----      -----    -----      0046H    000CH
  +--> ?PR?_RD_EEPROM?EEPROM
  +--> ?CO?PROG
  +--> ?PR?PRINTF?PRINTF
  +--> ?PR?_INGRESADATO?PROG
  +--> ?PR?_ATOI?ATOI
  +--> ?PR?_WR_EEPROM?EEPROM

?PR?_ATOI?ATOI                                   0020H.0  0000H.1    -----    -----      0071H    0005H
  +--> ?PR?_ISSPACE?ISSPACE
  +--> ?PR?_ISDIGIT?ISDIGIT

?PR?PROG_COD_PARK?PROG                           -----    -----      -----    -----      0046H    000CH
  +--> ?PR?_RD_EEPROM?EEPROM
  +--> ?CO?PROG
  +--> ?PR?PRINTF?PRINTF
  +--> ?PR?_INGRESADATO?PROG
  +--> ?PR?_ATOI?ATOI
  +--> ?PR?_WR_EEPROM?EEPROM

?PR?PROG_TIEMPO_GRACIA?PROG                      -----    -----      -----    -----      0046H    000CH
  +--> ?PR?_RD_EEPROM?EEPROM
  +--> ?CO?PROG
  +--> ?PR?PRINTF?PRINTF
  +--> ?PR?_INGRESADATO?PROG
  +--> ?PR?_ATOI?ATOI
  +--> ?PR?_WR_EEPROM?EEPROM

?PR?PROG_SIN_COBRO?PROG                          -----    -----      -----    -----      0046H    000CH
  +--> ?PR?_RD_EEPROM?EEPROM
  +--> ?CO?PROG
  +--> ?PR?PRINTF?PRINTF
  +--> ?PR?_INGRESADATO?PROG
  +--> ?PR?_ATOI?ATOI
  +--> ?PR?_WR_EEPROM?EEPROM

?PR?PROG_DEBUG?PROG                              -----    -----      -----    -----      0046H    000CH
  +--> ?PR?_RD_EEPROM?EEPROM
  +--> ?CO?PROG
BL51 BANKED LINKER/LOCATER V6.22.2.0                                                  12/01/2020  12:04:38  PAGE 11


  +--> ?PR?PRINTF?PRINTF
  +--> ?PR?_INGRESADATO?PROG
  +--> ?PR?_ATOI?ATOI
  +--> ?PR?_WR_EEPROM?EEPROM

?PR?PROG_USE_LPR?PROG                            -----    -----      -----    -----      0046H    000CH
  +--> ?PR?_RD_EEPROM?EEPROM
  +--> ?CO?PROG
  +--> ?PR?PRINTF?PRINTF
  +--> ?PR?_INGRESADATO?PROG
  +--> ?PR?_ATOI?ATOI
  +--> ?PR?_WR_EEPROM?EEPROM

?PR?TIPO_PANTALLA?PROG                           -----    -----      -----    -----      0046H    000CH
  +--> ?PR?_RD_EEPROM?EEPROM
  +--> ?CO?PROG
  +--> ?PR?PRINTF?PRINTF
  +--> ?PR?_INGRESADATO?PROG
  +--> ?PR?_ATOI?ATOI
  +--> ?PR?_WR_EEPROM?EEPROM

?PR?PROG_TARJETA_AUTOMATICA_O_BOTON?PROG         -----    -----      -----    -----      0046H    000CH
  +--> ?PR?_RD_EEPROM?EEPROM
  +--> ?CO?PROG
  +--> ?PR?PRINTF?PRINTF
  +--> ?PR?_INGRESADATO?PROG
  +--> ?PR?_ATOI?ATOI
  +--> ?PR?_WR_EEPROM?EEPROM

?PR?PROG_ANTIPASSBACK?PROG                       -----    -----      -----    -----      0046H    000CH
  +--> ?PR?_RD_EEPROM?EEPROM
  +--> ?CO?PROG
  +--> ?PR?PRINTF?PRINTF
  +--> ?PR?_INGRESADATO?PROG
  +--> ?PR?_ATOI?ATOI
  +--> ?PR?_WR_EEPROM?EEPROM

?PR?PROG_PLACA?PROG                              -----    -----      -----    -----      0046H    000CH
  +--> ?PR?_RD_EEPROM?EEPROM
  +--> ?CO?PROG
  +--> ?PR?PRINTF?PRINTF
  +--> ?PR?_INGRESADATO?PROG
  +--> ?PR?_ATOI?ATOI
  +--> ?PR?_WR_EEPROM?EEPROM

?PR?PROG_ADDRESS_HIGH_BOARD?PROG                 -----    -----      -----    -----      0046H    000CH
  +--> ?PR?_RD_EEPROM?EEPROM
  +--> ?CO?PROG
  +--> ?PR?PRINTF?PRINTF
  +--> ?PR?_INGRESADATO?PROG
  +--> ?PR?_ATOI?ATOI
  +--> ?PR?_WR_EEPROM?EEPROM

?PR?PROG_HORARIOS?PROG                           -----    -----      -----    -----      0046H    001BH
  +--> ?PR?ADDR_HORARIOS?PROG
  +--> ?CO?PROG
  +--> ?PR?PRINTF?PRINTF
BL51 BANKED LINKER/LOCATER V6.22.2.0                                                  12/01/2020  12:04:38  PAGE 12


  +--> ?PR?_INGRESADATO?PROG
  +--> ?PR?_ATOI?ATOI
  +--> ?PR?_PROG_HORARIOS_ON_OFF?PROG
  +--> ?PR?_WR_EEPROM?EEPROM
  +--> ?PR?_PROG_HORARIO_DIAS?PROG
  +--> ?PR?_PROG_HORARIO_DESDE_HASTA?PROG
  +--> ?PR?_RD_EEPROM?EEPROM

?PR?ADDR_HORARIOS?PROG                           -----    -----      -----    -----      0074H    000BH

?PR?_PROG_HORARIOS_ON_OFF?PROG                   -----    -----      -----    -----      0061H    0010H
  +--> ?PR?_RD_EEPROM?EEPROM
  +--> ?CO?PROG
  +--> ?PR?PRINTF?PRINTF
  +--> ?PR?_INGRESADATO?PROG
  +--> ?PR?_ATOI?ATOI
  +--> ?PR?_WR_EEPROM?EEPROM

?PR?_PROG_HORARIO_DIAS?PROG                      -----    -----      -----    -----      0061H    000FH
  +--> ?CO?PROG
  +--> ?PR?PRINTF?PRINTF
  +--> ?PR?_INGRESADATO?PROG
  +--> ?PR?_WR_EEPROM?EEPROM
  +--> ?PR?_RD_EEPROM?EEPROM

?PR?_PROG_HORARIO_DESDE_HASTA?PROG               -----    -----      -----    -----      0061H    000CH
  +--> ?CO?PROG
  +--> ?PR?PRINTF?PRINTF
  +--> ?PR?_INGRESADATO?PROG
  +--> ?PR?_WR_EEPROM?EEPROM
  +--> ?PR?_RD_EEPROM?EEPROM

?PR?PROG_VALIDAR_TIPO_VEHICULO_MENSUA...         -----    -----      -----    -----      0046H    000CH
  +--> ?PR?_RD_EEPROM?EEPROM
  +--> ?CO?PROG
  +--> ?PR?PRINTF?PRINTF
  +--> ?PR?_INGRESADATO?PROG
  +--> ?PR?_ATOI?ATOI
  +--> ?PR?_WR_EEPROM?EEPROM

?PR?PROG_APB_MENSUAL?PROG                        -----    -----      -----    -----      0046H    000CH
  +--> ?PR?_RD_EEPROM?EEPROM
  +--> ?CO?PROG
  +--> ?PR?PRINTF?PRINTF
  +--> ?PR?_INGRESADATO?PROG
  +--> ?PR?_ATOI?ATOI
  +--> ?PR?_WR_EEPROM?EEPROM

?PR?VER_PROG?PROG                                -----    -----      -----    -----      0046H    0013H
  +--> ?PR?_RD_EEPROM?EEPROM
  +--> ?CO?PROG
  +--> ?PR?PRINTF?PRINTF
  +--> ?PR?VER_HORARIO?PROG
  +--> ?PR?_LEERMEMORIA?EEPROM
  +--> ?PR?_HEX_ASCII?CLOCK

?PR?VER_HORARIO?PROG                             -----    -----      -----    -----      0059H    001BH
BL51 BANKED LINKER/LOCATER V6.22.2.0                                                  12/01/2020  12:04:38  PAGE 13


  +--> ?PR?ADDR_HORARIOS?PROG
  +--> ?CO?PROG
  +--> ?PR?PRINTF?PRINTF
  +--> ?PR?_RD_EEPROM?EEPROM
  +--> ?PR?_VER_HORARIO_DIAS?PROG
  +--> ?PR?_VER_HORARIO_DESDE_HASTA?PROG

?PR?_VER_HORARIO_DIAS?PROG                       -----    -----      -----    -----      0074H    0003H
  +--> ?PR?_RD_EEPROM?EEPROM
  +--> ?CO?PROG
  +--> ?PR?PRINTF?PRINTF

?PR?_VER_HORARIO_DESDE_HASTA?PROG                -----    -----      -----    -----      0074H    0002H
  +--> ?CO?PROG
  +--> ?PR?PRINTF?PRINTF
  +--> ?PR?_RD_EEPROM?EEPROM

?PR?_HEX_ASCII?CLOCK                             -----    -----      -----    -----      005DH    0006H
  +--> ?PR?_HEX_BCD?CLOCK

?PR?SHOW?PROG                                    -----    -----      -----    -----      -----    -----
  +--> ?CO?PROG
  +--> ?PR?PRINTF?PRINTF

?PR?PROG_FECHA_VENCIMIENTO?PROG                  -----    -----      -----    -----      0046H    0017H
  +--> ?PR?_LEERMEMORIA?EEPROM
  +--> ?PR?_HEX_ASCII?CLOCK
  +--> ?CO?PROG
  +--> ?PR?PRINTF?PRINTF
  +--> ?PR?_HASH_ID?PROG
  +--> ?PR?_INGRESADATO?PROG
  +--> ?PR?_GETCMD?PROG
  +--> ?PR?_ESCRIBIRMEMORIA?EEPROM
  +--> ?PR?_VALIDARCLAVE?PROG
  +--> ?PR?_ATOI?ATOI
  +--> ?PR?_WR_EEPROM?EEPROM

?PR?VARIABLE_INICIO?MAIN                         -----    -----      -----    -----      -----    -----
  +--> ?PR?_RD_EEPROM?EEPROM

?PR?SECUENCIA_INICIO_EXPEDIDOR?VERIFI...         -----    -----      -----    -----      0001H    0001H
  +--> ?PR?_INICIALIZA?LINTECH
  +--> ?PR?TRAMA_VALIDACION_P_N?VERIFICADOR
  +--> ?CO?VERIFICADOR
  +--> ?PR?_DEBUG_TXT_TIBBO?TIBBO
  +--> ?PR?_DEBUGBUFFERMF?TIBBO
  +--> ?PR?DWLOAD_EEPROM?LINTECH

?PR?_INICIALIZA?LINTECH                          -----    -----      -----    -----      0002H    000CH
  +--> ?CO?LINTECH
  +--> ?PR?_DEBUG_TXT_TIBBO?TIBBO
  +--> ?PR?_DEBUGBUFFERMF?TIBBO
  +--> ?PR?_ESCRIBIRCADENASOFT_BUFFER?MAIN

?PR?_DEBUG_TXT_TIBBO?TIBBO                       -----    -----      -----    -----      0037H    0004H
  +--> ?PR?_DEBUG_CHR_TIBBO?TIBBO
  +--> ?CO?TIBBO
BL51 BANKED LINKER/LOCATER V6.22.2.0                                                  12/01/2020  12:04:38  PAGE 14


  +--> ?PR?_TX_AUX?TIBBO

?PR?_DEBUG_CHR_TIBBO?TIBBO                       -----    -----      -----    -----      -----    -----
  +--> ?PR?_TX_AUX?TIBBO

?PR?_DEBUGBUFFERMF?TIBBO                         -----    -----      -----    -----      0027H    0006H
  +--> ?CO?TIBBO
  +--> ?PR?_DEBUG_TXT_TIBBO?TIBBO
  +--> ?PR?_DEBUG_CHR_TIBBO?TIBBO
  +--> ?PR?_TX_AUX?TIBBO

?PR?_ESCRIBIRCADENASOFT_BUFFER?MAIN              -----    -----      -----    -----      0027H    0006H
  +--> ?PR?_PUTCHAR?MAIN

?PR?TRAMA_VALIDACION_P_N?VERIFICADOR             -----    -----      -----    -----      -----    -----
  +--> ?CO?VERIFICADOR
  +--> ?PR?_DEBUG_TXT_TIBBO?TIBBO

?PR?DWLOAD_EEPROM?LINTECH                        -----    -----      -----    -----      0002H    0016H
  +--> ?CO?LINTECH
  +--> ?PR?_DEBUG_TXT_TIBBO?TIBBO
  +--> ?PR?_DEBUGBUFFERMF?TIBBO
  +--> ?PR?_ESCRIBIRCADENASOFT_BUFFER?MAIN

?PR?RX_MONITOR?MONITOR                           -----    -----      -----    -----      0009H    000DH
  +--> ?PR?_RECIBE_CMD_MONITOR?MONITOR
  +--> ?PR?_DEBUG_MONITOR?TIBBO
  +--> ?PR?_VALIDA_TRAMA_MONITOR?MONITOR

?PR?_RECIBE_CMD_MONITOR?MONITOR                  -----    -----      -----    -----      0016H    0009H
  +--> ?PR?RX_DATA?TIBBO

?PR?RX_DATA?TIBBO                                -----    -----      -----    -----      -----    -----
  +--> ?PR?TIME_MBIT?TIBBO
  +--> ?PR?TIME_BIT?TIBBO

?PR?_DEBUG_MONITOR?TIBBO                         -----    -----      -----    -----      0016H    0004H
  +--> ?PR?DEBUG_DIVIDIR_TEXTO?TIBBO
  +--> ?CO?TIBBO
  +--> ?PR?_DEBUG_TXT_TIBBO?TIBBO

?PR?DEBUG_DIVIDIR_TEXTO?TIBBO                    -----    -----      -----    -----      -----    -----
  +--> ?CO?TIBBO
  +--> ?PR?_DEBUG_TXT_TIBBO?TIBBO

?PR?_VALIDA_TRAMA_MONITOR?MONITOR                -----    -----      -----    -----      0016H    0006H
  +--> ?PR?_DELAY_10MS?DELAY
  +--> ?PR?_TX_AUX?TIBBO

?PR?_DELAY_10MS?DELAY                            -----    -----      -----    -----      001CH    0004H
  +--> ?PR?_DELAY_1MS?DELAY

?PR?_SECUENCIAEXPEDIDORMF?VERIFICADOR            -----    -----      -----    -----      0001H    0001H
  +--> ?PR?_CHECK_STATUS?LINTECH
  +--> ?PR?_LOAD_SECUENCIA_EXPEDIDOR?VERIFIC...
  +--> ?PR?RX_MONITOR?MONITOR
  +--> ?PR?_RTA_CMD_TRANSPORTE?VERIFICADOR
BL51 BANKED LINKER/LOCATER V6.22.2.0                                                  12/01/2020  12:04:38  PAGE 15


  +--> ?PR?_MOV_CARD?LINTECH
  +--> ?PR?_CARD_INSERCION?LINTECH
  +--> ?PR?AUT_CARD_CHECK_STATUS?LINTECH
  +--> ?PR?LOADVERIFY_EEPROM?LINTECH
  +--> ?PR?_RD_MF?LINTECH
  +--> ?PR?_WR_MF?LINTECH
  +--> ?PR?DWLOAD_EEPROM?LINTECH
  +--> ?PR?ENTREGA_CARD_CAPTURA?VERIFICADOR
  +--> ?PR?_SEND_PTO_PARALELO?VERIFICADOR
  +--> ?PR?_WAIT_PLACA?VERIFICADOR
  +--> ?PR?UNIQUE_IDENTIFIER_UID?LINTECH
  +--> ?PR?_PREGUNTA_LPR?VERIFICADOR
  +--> ?PR?PREGUNTA_PLACA?VERIFICADOR
  +--> ?PR?_VALIDA_TIPO_TARJETA?VERIFICADOR
  +--> ?PR?POWER_OFF?LINTECH
  +--> ?PR?CLAVE_SEGURIDAD_S2?LINTECH
  +--> ?PR?RESPONDE_ESTADO_SENSORES_TRANSPOR...
  +--> ?PR?RESPONDE_TIPO_TARJETA?VERIFICADOR
  +--> ?PR?_RESPONDE_LECTURA_TARJETA_SECTOR1...
  +--> ?PR?_RESPONDE_LECTURA_TARJETA_SECTOR1...
  +--> ?PR?_RESPONDE_LECTURA_TARJETA_SECTOR1...
  +--> ?PR?_RESPONDE_WRITE_TARJETA_SECTOR1_B...
  +--> ?PR?_RESPONDE_WRITE_TARJETA_SECTOR2_B...
  +--> ?PR?_RESPONDE_WRITE_TARJETA_SECTOR1_B...
  +--> ?PR?_RESPONDE_WRITE_TARJETA_SECTOR1_B...
  +--> ?PR?_DISPARO_LOCK_ENTRADA_VEHICULO?VE...
  +--> ?PR?_RESPUESTA_SEGUNDA_CLAVE?VERIFICADOR
  +--> ?PR?ANALIZA_PRESENCIA_MENSUAL?VERIFIC...
  +--> ?PR?_ANALIZA_UID_CARD?VERIFICADOR
  +--> ?PR?ANALIZA_PRESENCIA_ROTACION?VERIFI...
  +--> ?CO?VERIFICADOR
  +--> ?PR?_DEBUG_TXT_TIBBO?TIBBO

?PR?_CHECK_STATUS?LINTECH                        -----    -----      -----    -----      0002H    000BH
  +--> ?CO?LINTECH
  +--> ?PR?_DEBUG_TXT_TIBBO?TIBBO
  +--> ?PR?_DEBUGBUFFERMF?TIBBO
  +--> ?PR?_ESCRIBIRCADENASOFT_BUFFER?MAIN

?PR?_LOAD_SECUENCIA_EXPEDIDOR?VERIFIC...         -----    -----      -----    -----      0002H    0009H

?PR?_RTA_CMD_TRANSPORTE?VERIFICADOR              -----    -----      -----    -----      0002H    0005H
  +--> ?PR?TRAMA_VALIDACION_P_N?VERIFICADOR
  +--> ?CO?VERIFICADOR
  +--> ?PR?_DEBUG_TXT_TIBBO?TIBBO
  +--> ?PR?_DEBUGBUFFERMF?TIBBO
  +--> ?PR?ERROR_RX_PTO?VERIFICADOR

?PR?ERROR_RX_PTO?VERIFICADOR                     -----    -----      -----    -----      0007H    0001H
  +--> ?CO?VERIFICADOR
  +--> ?PR?_DEBUG_TXT_TIBBO?TIBBO
  +--> ?PR?_DEBUG_CHR_TIBBO?TIBBO
  +--> ?PR?_DELAY_10MS?DELAY

?PR?_MOV_CARD?LINTECH                            -----    -----      -----    -----      0002H    000CH
  +--> ?CO?LINTECH
  +--> ?PR?_DEBUG_TXT_TIBBO?TIBBO
BL51 BANKED LINKER/LOCATER V6.22.2.0                                                  12/01/2020  12:04:38  PAGE 16


  +--> ?PR?_DEBUGBUFFERMF?TIBBO
  +--> ?PR?_ESCRIBIRCADENASOFT_BUFFER?MAIN

?PR?_CARD_INSERCION?LINTECH                      -----    -----      -----    -----      0002H    000AH
  +--> ?CO?LINTECH
  +--> ?PR?_DEBUG_TXT_TIBBO?TIBBO
  +--> ?PR?_DEBUGBUFFERMF?TIBBO
  +--> ?PR?_ESCRIBIRCADENASOFT_BUFFER?MAIN

?PR?AUT_CARD_CHECK_STATUS?LINTECH                -----    -----      -----    -----      0002H    000BH
  +--> ?CO?LINTECH
  +--> ?PR?_DEBUG_TXT_TIBBO?TIBBO
  +--> ?PR?_DEBUGBUFFERMF?TIBBO
  +--> ?PR?_ESCRIBIRCADENASOFT_BUFFER?MAIN

?PR?LOADVERIFY_EEPROM?LINTECH                    -----    -----      -----    -----      0002H    0010H
  +--> ?CO?LINTECH
  +--> ?PR?_DEBUG_TXT_TIBBO?TIBBO
  +--> ?PR?_DEBUGBUFFERMF?TIBBO
  +--> ?PR?_ESCRIBIRCADENASOFT_BUFFER?MAIN

?PR?_RD_MF?LINTECH                               -----    -----      -----    -----      0002H    0012H
  +--> ?CO?LINTECH
  +--> ?PR?_DEBUG_TXT_TIBBO?TIBBO
  +--> ?PR?_DEBUG_CHR_TIBBO?TIBBO
  +--> ?PR?_DEBUGBUFFERMF?TIBBO
  +--> ?PR?_ESCRIBIRCADENASOFT_BUFFER?MAIN

?PR?_WR_MF?LINTECH                               -----    -----      -----    -----      0002H    0025H
  +--> ?CO?LINTECH
  +--> ?PR?_DEBUG_TXT_TIBBO?TIBBO
  +--> ?PR?_DEBUG_CHR_TIBBO?TIBBO
  +--> ?PR?_DEBUGBUFFERMF?TIBBO
  +--> ?PR?_ESCRIBIRCADENASOFT_BUFFER?MAIN

?PR?ENTREGA_CARD_CAPTURA?VERIFICADOR             -----    -----      -----    -----      0002H    0001H
  +--> ?CO?VERIFICADOR
  +--> ?PR?_DEBUG_TXT_TIBBO?TIBBO
  +--> ?PR?SEL_SENSOR2?IO_SENSORES
  +--> ?PR?VALIDASENSOR?IO_SENSORES
  +--> ?PR?VALIDA_SENSOR1_AUTO?IO_SENSORES

?PR?VALIDA_SENSOR1_AUTO?IO_SENSORES              -----    -----      -----    -----      0011H    0001H
  +--> ?PR?SEL_SENSOR1?IO_SENSORES
  +--> ?PR?SEL_AUTO?IO_SENSORES
  +--> ?CO?IO_SENSORES
  +--> ?PR?_DEBUG_TXT_TIBBO?TIBBO
  +--> ?PR?BOTTON?IO_SENSORES

?PR?BOTTON?IO_SENSORES                           -----    -----      -----    -----      -----    -----
  +--> ?PR?SEL_PULSA?IO_SENSORES
  +--> ?CO?IO_SENSORES
  +--> ?PR?_DEBUG_TXT_TIBBO?TIBBO

?PR?_SEND_PTO_PARALELO?VERIFICADOR               -----    -----      -----    -----      0002H    0004H
  +--> ?PR?_ARMAR_TRAMA_PTO_PARALELO_EXPEDID...
  +--> ?PR?_ARMAR_TRAMA_PTO_PARALELO_EXPEDID...
BL51 BANKED LINKER/LOCATER V6.22.2.0                                                  12/01/2020  12:04:38  PAGE 17


  +--> ?PR?INCREMENTE_TICKET?EEPROM
  +--> ?PR?_SEND_PORT?PTO_PARALELO
  +--> ?CO?VERIFICADOR
  +--> ?PR?_DEBUG_TXT_TIBBO?TIBBO
  +--> ?PR?_DEBUGBUFFERMF?TIBBO
  +--> ?PR?CLEAR_PLACA?MONITOR

?PR?_ARMAR_TRAMA_PTO_PARALELO_EXPEDID...         -----    -----      -----    -----      0006H    0006H
  +--> ?PR?_BLOCK_READ_CLOCK_HEX?CLOCK
  +--> ?PR?_RD_EEPROM?EEPROM

?PR?_ARMAR_TRAMA_PTO_PARALELO_EXPEDID...         -----    -----      -----    -----      0006H    000FH
  +--> ?PR?LEE_NO_TICKET?EEPROM
  +--> ?PR?_STRCAT?STRCAT
  +--> ?PR?_STRLEN?STRLEN
  +--> ?PR?_BLOCK_READ_CLOCK_HEX?CLOCK
  +--> ?PR?_RD_EEPROM?EEPROM

?PR?LEE_NO_TICKET?EEPROM                         -----    -----      -----    -----      001DH    000BH
  +--> ?PR?READ_EEPROM_TICKET?EEPROM
  +--> ?CO?EEPROM
  +--> ?PR?PRINTF?PRINTF
  +--> ?PR?_STRLEN?STRLEN
  +--> ?PR?_DEBUG_TXT_TIBBO?TIBBO

?PR?READ_EEPROM_TICKET?EEPROM                    -----    -----      -----    -----      0028H    0007H
  +--> ?PR?_RD_EEPROM?EEPROM

?PR?INCREMENTE_TICKET?EEPROM                     -----    -----      -----    -----      0006H    000BH
  +--> ?PR?READ_EEPROM_TICKET?EEPROM
  +--> ?CO?EEPROM
  +--> ?PR?PRINTF?PRINTF
  +--> ?PR?_WRITE_EEPROM_TICKET?EEPROM

?PR?_WRITE_EEPROM_TICKET?EEPROM                  -----    -----      -----    -----      0015H    000BH
  +--> ?CO?EEPROM
  +--> ?PR?_DEBUG_TXT_TIBBO?TIBBO
  +--> ?PR?_ATOL?ATOL
  +--> ?PR?_DEBUG_CHR_TIBBO?TIBBO
  +--> ?PR?_WR_EEPROM?EEPROM

?PR?_ATOL?ATOL                                   0020H.0  0000H.1    -----    -----      0020H    0007H
  +--> ?PR?_ISSPACE?ISSPACE
  +--> ?PR?_ISDIGIT?ISDIGIT

?PR?_SEND_PORT?PTO_PARALELO                      -----    -----      -----    -----      0015H    000AH
  +--> ?PR?PULSO_BUS?PTO_PARALELO
  +--> ?PR?_DELAY_20US?DELAY

?PR?PULSO_BUS?PTO_PARALELO                       -----    -----      -----    -----      -----    -----
  +--> ?PR?_DELAY_20US?DELAY

?PR?_WAIT_PLACA?VERIFICADOR                      -----    -----      -----    -----      0002H    0007H
  +--> ?CO?VERIFICADOR
  +--> ?PR?_DEBUG_TXT_TIBBO?TIBBO
  +--> ?PR?RX_MONITOR?MONITOR
  +--> ?PR?_RESPUESTA_PLACA_CANCEL?VERIFICADOR
BL51 BANKED LINKER/LOCATER V6.22.2.0                                                  12/01/2020  12:04:38  PAGE 18



?PR?_RESPUESTA_PLACA_CANCEL?VERIFICADOR          -----    -----      -----    -----      0009H    000AH
  +--> ?CO?VERIFICADOR
  +--> ?PR?_DEBUG_TXT_TIBBO?TIBBO
  +--> ?PR?_ARMAR_TRAMA_TARJETA_SECTOR1_BLOQ...

?PR?_ARMAR_TRAMA_TARJETA_SECTOR1_BLOQ...         -----    -----      -----    -----      0013H    0004H
  +--> ?PR?CLEAR_PLACA?MONITOR
  +--> ?PR?_RD_EEPROM?EEPROM

?PR?UNIQUE_IDENTIFIER_UID?LINTECH                -----    -----      -----    -----      0002H    000BH
  +--> ?CO?LINTECH
  +--> ?PR?_DEBUG_TXT_TIBBO?TIBBO
  +--> ?PR?_DEBUGBUFFERMF?TIBBO
  +--> ?PR?_ESCRIBIRCADENASOFT_BUFFER?MAIN

?PR?_PREGUNTA_LPR?VERIFICADOR                    -----    -----      -----    -----      0002H    0003H
  +--> ?CO?VERIFICADOR
  +--> ?PR?_DEBUG_TXT_TIBBO?TIBBO
  +--> ?PR?_RD_EEPROM?EEPROM
  +--> ?PR?_ARMAR_TRAMA_MONITOR?VERIFICADOR

?PR?_ARMAR_TRAMA_MONITOR?VERIFICADOR             -----    -----      -----    -----      0005H    000FH
  +--> ?PR?DIR_BOARD_MONITOR?IO_SENSORES
  +--> ?PR?LEE_NO_TICKET?EEPROM
  +--> ?PR?_STRCAT?STRCAT
  +--> ?PR?_BYTEHEX_DECIMAL?CLOCK
  +--> ?PR?_STRLEN?STRLEN
  +--> ?PR?_TWO_BYTEHEX_DECIMAL?CLOCK
  +--> ?PR?_BLOCK_READ_CLOCK_ASCII?CLOCK

?PR?DIR_BOARD_MONITOR?IO_SENSORES                -----    -----      -----    -----      -----    -----
  +--> ?PR?_RD_EEPROM?EEPROM

?PR?_BYTEHEX_DECIMAL?CLOCK                       -----    -----      -----    -----      0014H    0001H

?PR?_TWO_BYTEHEX_DECIMAL?CLOCK                   -----    -----      -----    -----      0014H    000CH
  +--> ?PR?_POW?POW

?PR?_POW?POW                                     -----    -----      -----    -----      0020H    000AH
  +--> ?PR?LOG?LOG
  +--> ?PR?EXP?EXP

?PR?LOG?LOG                                      0020H.0  0000H.1    -----    -----      002AH    0004H

?PR?PREGUNTA_PLACA?VERIFICADOR                   -----    -----      -----    -----      0002H    0001H
  +--> ?CO?VERIFICADOR
  +--> ?PR?_DEBUG_TXT_TIBBO?TIBBO
  +--> ?PR?_RD_EEPROM?EEPROM

?PR?_VALIDA_TIPO_TARJETA?VERIFICADOR             -----    -----      -----    -----      0002H    0007H
  +--> ?CO?VERIFICADOR
  +--> ?PR?_DEBUG_TXT_TIBBO?TIBBO
  +--> ?PR?_RD_EEPROM?EEPROM
  +--> ?PR?_TARJETA_MENSUAL?VERIFICADOR
  +--> ?PR?_SEND_PORTERR?PTO_PARALELO
  +--> ?PR?_PANTALLALCD?PANTALLAS
BL51 BANKED LINKER/LOCATER V6.22.2.0                                                  12/01/2020  12:04:38  PAGE 19


  +--> ?PR?CAPTURA_EXPULSA?VERIFICADOR
  +--> ?PR?_TARJETA_ROTACION?VERIFICADOR

?PR?_TARJETA_MENSUAL?VERIFICADOR                 -----    -----      -----    -----      0009H    0007H
  +--> ?PR?_HORARIOS?VERIFICADOR
  +--> ?PR?_CHECK_FECHAOUT?CLOCK
  +--> ?PR?_VALIDA_VEHICULO_CARD_MENSUAL?VER...
  +--> ?PR?CAPTURA_EXPULSA?VERIFICADOR
  +--> ?CO?VERIFICADOR
  +--> ?PR?_DEBUG_TXT_TIBBO?TIBBO
  +--> ?PR?_ARMAR_TRAMA_TARJETA_SECTOR1_BLOQ...
  +--> ?PR?_SEND_PORTERR?PTO_PARALELO
  +--> ?PR?_PANTALLALCD?PANTALLAS

?PR?_HORARIOS?VERIFICADOR                        -----    -----      -----    -----      0010H    0013H
  +--> ?PR?ADDR_HORARIOS?PROG
  +--> ?PR?_RD_EEPROM?EEPROM
  +--> ?PR?_LEE_CLK?CLOCK
  +--> ?CO?VERIFICADOR
  +--> ?PR?_DEBUG_TXT_TIBBO?TIBBO
  +--> ?PR?_DEBUG_CHR_TIBBO?TIBBO
  +--> ?PR?_BLOQUE_HORARIO?VERIFICADOR
  +--> ?PR?_PANTALLALCD?PANTALLAS

?PR?_BLOQUE_HORARIO?VERIFICADOR                  -----    -----      -----    -----      0023H    0007H
  +--> ?CO?VERIFICADOR
  +--> ?PR?_DEBUG_TXT_TIBBO?TIBBO
  +--> ?PR?_LEE_CLK?CLOCK
  +--> ?PR?_DEBUG_CHR_TIBBO?TIBBO
  +--> ?PR?_HORA_MAXIMA?VERIFICADOR
  +--> ?PR?_EN_HORARIO?VERIFICADOR
  +--> ?PR?_RD_EEPROM?EEPROM
  +--> ?PR?_SEND_PORTERR?PTO_PARALELO
  +--> ?PR?_PANTALLALCD?PANTALLAS

?PR?_HORA_MAXIMA?VERIFICADOR                     -----    -----      -----    -----      002FH    0008H
  +--> ?PR?_RD_EEPROM?EEPROM
  +--> ?PR?_DEBUG_CHR_TIBBO?TIBBO
  +--> ?CO?VERIFICADOR
  +--> ?PR?_DEBUG_TXT_TIBBO?TIBBO

?PR?_EN_HORARIO?VERIFICADOR                      -----    -----      -----    -----      002AH    0005H
  +--> ?CO?VERIFICADOR
  +--> ?PR?_DEBUG_TXT_TIBBO?TIBBO
  +--> ?PR?_HORA_MAXIMA?VERIFICADOR

?PR?_SEND_PORTERR?PTO_PARALELO                   -----    -----      -----    -----      002AH    0006H
  +--> ?PR?PULSO_BUS?PTO_PARALELO
  +--> ?PR?_DELAY_20US?DELAY

?PR?_PANTALLALCD?PANTALLAS                       -----    -----      -----    -----      002AH    000AH
  +--> ?CO?PANTALLAS
  +--> ?PR?_INIT_MEMPOOL?INIT_MEM
  +--> ?PR?_MALLOC?MALLOC
  +--> ?PR?_LCD_TXT?PANTALLAS
  +--> ?PR?_STRLEN?STRLEN
  +--> ?PR?_TX_CHRLCD?PANTALLAS
BL51 BANKED LINKER/LOCATER V6.22.2.0                                                  12/01/2020  12:04:38  PAGE 20


  +--> ?PR?_RASPBERRY_DATA?PANTALLAS
  +--> ?PR?_FREE?FREE

?PR?_MALLOC?MALLOC                               -----    -----      -----    -----      0034H    0006H

?PR?_LCD_TXT?PANTALLAS                           -----    -----      -----    -----      0034H    0005H
  +--> ?PR?_TX_CHRLCD?PANTALLAS

?PR?_TX_CHRLCD?PANTALLAS                         -----    -----      -----    -----      0039H    0002H
  +--> ?PR?_PUTCHAR?MAIN

?PR?_RASPBERRY_DATA?PANTALLAS                    -----    -----      -----    -----      0034H    0006H
  +--> ?PR?_STRLEN?STRLEN
  +--> ?PR?_PUTCHAR?MAIN

?PR?_FREE?FREE                                   -----    -----      -----    -----      0034H    0006H

?PR?_VALIDA_VEHICULO_CARD_MENSUAL?VER...         -----    -----      -----    -----      0010H    0004H
  +--> ?CO?VERIFICADOR
  +--> ?PR?_DEBUG_TXT_TIBBO?TIBBO
  +--> ?PR?_RD_EEPROM?EEPROM
  +--> ?PR?_SEND_PORTERR?PTO_PARALELO

?PR?_ARMAR_TRAMA_TARJETA_SECTOR1_BLOQ...         -----    -----      -----    -----      0010H    0006H
  +--> ?PR?_BLOCK_READ_CLOCK_HEX?CLOCK
  +--> ?PR?DIR_BOARD?IO_SENSORES

?PR?DIR_BOARD?IO_SENSORES                        -----    -----      -----    -----      0032H    0001H
  +--> ?PR?SEL_DIR1?IO_SENSORES
  +--> ?PR?SEL_DIR2?IO_SENSORES
  +--> ?PR?_RD_EEPROM?EEPROM

?PR?_TARJETA_ROTACION?VERIFICADOR                -----    -----      -----    -----      0009H    0006H
  +--> ?PR?_ARMAR_TRAMA_TARJETA_SECTOR1_BLOQ...

?PR?POWER_OFF?LINTECH                            -----    -----      -----    -----      0002H    000BH
  +--> ?CO?LINTECH
  +--> ?PR?_DEBUG_TXT_TIBBO?TIBBO
  +--> ?PR?_DEBUGBUFFERMF?TIBBO
  +--> ?PR?_ESCRIBIRCADENASOFT_BUFFER?MAIN

?PR?CLAVE_SEGURIDAD_S2?LINTECH                   -----    -----      -----    -----      0002H    0016H
  +--> ?CO?LINTECH
  +--> ?PR?_DEBUG_TXT_TIBBO?TIBBO
  +--> ?PR?_DEBUGBUFFERMF?TIBBO
  +--> ?PR?_ESCRIBIRCADENASOFT_BUFFER?MAIN

?PR?RESPONDE_ESTADO_SENSORES_TRANSPOR...         -----    -----      -----    -----      0002H    0001H
  +--> ?CO?VERIFICADOR
  +--> ?PR?_DEBUG_TXT_TIBBO?TIBBO
  +--> ?PR?_SEND_PORTERR?PTO_PARALELO
  +--> ?PR?INGRESO_VEHICULO?VERIFICADOR

?PR?INGRESO_VEHICULO?VERIFICADOR                 -----    -----      -----    -----      -----    -----
  +--> ?PR?VALIDASENSORESPASO?IO_SENSORES
  +--> ?PR?_RD_EEPROM?EEPROM
  +--> ?CO?VERIFICADOR
BL51 BANKED LINKER/LOCATER V6.22.2.0                                                  12/01/2020  12:04:38  PAGE 21


  +--> ?PR?_DEBUG_TXT_TIBBO?TIBBO
  +--> ?PR?_PANTALLALCD?PANTALLAS
  +--> ?PR?BOTTON?IO_SENSORES

?PR?VALIDASENSORESPASO?IO_SENSORES               -----    -----      -----    -----      0010H    0001H
  +--> ?PR?SEL_SENSOR2?IO_SENSORES
  +--> ?PR?VALIDASENSOR?IO_SENSORES
  +--> ?PR?VALIDA_SENSOR1_AUTO?IO_SENSORES
  +--> ?CO?IO_SENSORES
  +--> ?PR?_DEBUG_TXT_TIBBO?TIBBO

?PR?RESPONDE_TIPO_TARJETA?VERIFICADOR            -----    -----      -----    -----      0002H    0001H
  +--> ?CO?VERIFICADOR
  +--> ?PR?_DEBUG_TXT_TIBBO?TIBBO
  +--> ?PR?_SEND_PORTERR?PTO_PARALELO
  +--> ?PR?_PANTALLALCD?PANTALLAS
  +--> ?PR?CAPTURA_EXPULSA?VERIFICADOR

?PR?_RESPONDE_LECTURA_TARJETA_SECTOR1...         -----    -----      -----    -----      0002H    0016H
  +--> ?CO?VERIFICADOR
  +--> ?PR?_DEBUG_TXT_TIBBO?TIBBO
  +--> ?PR?_DEBUGBUFFERMF?TIBBO
  +--> ?PR?_RD_EEPROM?EEPROM
  +--> ?PR?_DEBUG_HEXDEC?TIBBO
  +--> ?PR?_DEBUG_CHR_TIBBO?TIBBO
  +--> ?PR?_SEND_PORTERR?PTO_PARALELO
  +--> ?PR?_PANTALLALCD?PANTALLAS
  +--> ?PR?CAPTURA_EXPULSA?VERIFICADOR

?PR?_DEBUG_HEXDEC?TIBBO                          -----    -----      -----    -----      0018H    0002H
  +--> ?PR?_TX_AUX?TIBBO

?PR?_RESPONDE_LECTURA_TARJETA_SECTOR1...         -----    -----      -----    -----      0002H    0004H
  +--> ?CO?VERIFICADOR
  +--> ?PR?_DEBUG_TXT_TIBBO?TIBBO
  +--> ?PR?CAPTURA_EXPULSA?VERIFICADOR

?PR?_RESPONDE_LECTURA_TARJETA_SECTOR1...         -----    -----      -----    -----      0002H    0015H
  +--> ?CO?VERIFICADOR
  +--> ?PR?_DEBUG_TXT_TIBBO?TIBBO
  +--> ?PR?_DEBUGBUFFERMF?TIBBO
  +--> ?PR?_DEBUG_CHR_TIBBO?TIBBO
  +--> ?PR?CAPTURA_EXPULSA?VERIFICADOR

?PR?_RESPONDE_WRITE_TARJETA_SECTOR1_B...         -----    -----      -----    -----      0002H    0007H
  +--> ?CO?VERIFICADOR
  +--> ?PR?_DEBUG_TXT_TIBBO?TIBBO
  +--> ?PR?_DEBUGBUFFERMF?TIBBO
  +--> ?PR?_ARMAR_TRAMA_TARJETA_SECTOR1_BLOQ...

?PR?_ARMAR_TRAMA_TARJETA_SECTOR1_BLOQ...         -----    -----      -----    -----      0009H    0003H
  +--> ?PR?LEE_NO_TICKET?EEPROM

?PR?_RESPONDE_WRITE_TARJETA_SECTOR2_B...         -----    -----      -----    -----      0002H    0003H
  +--> ?CO?VERIFICADOR
  +--> ?PR?_DEBUG_TXT_TIBBO?TIBBO
  +--> ?PR?_DEBUGBUFFERMF?TIBBO
BL51 BANKED LINKER/LOCATER V6.22.2.0                                                  12/01/2020  12:04:38  PAGE 22



?PR?_RESPONDE_WRITE_TARJETA_SECTOR1_B...         -----    -----      -----    -----      0002H    0003H
  +--> ?CO?VERIFICADOR
  +--> ?PR?_DEBUG_TXT_TIBBO?TIBBO
  +--> ?PR?_DEBUGBUFFERMF?TIBBO

?PR?_RESPONDE_WRITE_TARJETA_SECTOR1_B...         -----    -----      -----    -----      0002H    0003H
  +--> ?CO?VERIFICADOR
  +--> ?PR?_DEBUG_TXT_TIBBO?TIBBO
  +--> ?PR?_DEBUGBUFFERMF?TIBBO

?PR?_DISPARO_LOCK_ENTRADA_VEHICULO?VE...         -----    -----      -----    -----      0002H    0004H
  +--> ?CO?VERIFICADOR
  +--> ?PR?_DEBUG_TXT_TIBBO?TIBBO
  +--> ?PR?_PANTALLALCD?PANTALLAS
  +--> ?PR?_SEND_PORTERR?PTO_PARALELO
  +--> ?PR?_PANTALLALCD_LINEA_2?PANTALLAS
  +--> ?PR?VALIDA_SENSOR1_AUTO?IO_SENSORES

?PR?_PANTALLALCD_LINEA_2?PANTALLAS               -----    -----      -----    -----      0010H    000DH
  +--> ?CO?PANTALLAS
  +--> ?PR?_INIT_MEMPOOL?INIT_MEM
  +--> ?PR?_MALLOC?MALLOC
  +--> ?PR?_LCD_TXT?PANTALLAS
  +--> ?PR?_STRLEN?STRLEN
  +--> ?PR?_TX_CHRLCD?PANTALLAS
  +--> ?PR?_RASPBERRY_DATA?PANTALLAS
  +--> ?PR?LEE_NO_TICKET?EEPROM
  +--> ?PR?_STRCAT?STRCAT
  +--> ?PR?_FREE?FREE

?PR?_RESPUESTA_SEGUNDA_CLAVE?VERIFICADOR         -----    -----      -----    -----      0002H    0006H
  +--> ?CO?VERIFICADOR
  +--> ?PR?_DEBUG_TXT_TIBBO?TIBBO
  +--> ?PR?_DEBUGBUFFERMF?TIBBO
  +--> ?PR?_ARMAR_TRAMA_PLACA?VERIFICADOR

?PR?_ARMAR_TRAMA_PLACA?VERIFICADOR               -----    -----      -----    -----      0008H    0003H
  +--> ?PR?_STRLEN?STRLEN

?PR?ANALIZA_PRESENCIA_MENSUAL?VERIFIC...         -----    -----      -----    -----      0002H    0001H
  +--> ?PR?VALIDASENSORESPASO?IO_SENSORES
  +--> ?PR?_SEND_PORTERR?PTO_PARALELO
  +--> ?PR?_PANTALLALCD?PANTALLAS

?PR?_ANALIZA_UID_CARD?VERIFICADOR                -----    -----      -----    -----      0002H    0015H
  +--> ?CO?VERIFICADOR
  +--> ?PR?_DEBUG_TXT_TIBBO?TIBBO
  +--> ?PR?_DEBUGBUFFERMF?TIBBO
  +--> ?PR?_DEBUG_CHR_TIBBO?TIBBO

?PR?ANALIZA_PRESENCIA_ROTACION?VERIFI...         -----    -----      -----    -----      0002H    0001H
  +--> ?PR?VALIDASENSORESPASO?IO_SENSORES
  +--> ?PR?_SEND_PORTERR?PTO_PARALELO
  +--> ?PR?_PANTALLALCD?PANTALLAS

?PR?_RECIBE_PORT?PTO_PARALELO                    -----    -----      -----    -----      0001H    0008H
BL51 BANKED LINKER/LOCATER V6.22.2.0                                                  12/01/2020  12:04:38  PAGE 23


  +--> ?PR?OFF_TIMER0_INTERRUP?MAIN
  +--> ?PR?ON_TIMER0_INTERRUP?MAIN

?PR?_DEBUG_PTO_PARALELO?TIBBO                    -----    -----      -----    -----      0001H    0004H
  +--> ?PR?DEBUG_DIVIDIR_TEXTO?TIBBO
  +--> ?CO?TIBBO
  +--> ?PR?_DEBUG_TXT_TIBBO?TIBBO
  +--> ?PR?_DEBUGBUFFERMF?TIBBO

?PR?_VALIDA_TRAMA_PTO?ACCESCAN                   -----    -----      -----    -----      0001H    000FH
  +--> ?PR?_VALIDAR_CLK?CLOCK
  +--> ?PR?_BLOCK_WRITE_CLOCK_ASCII?CLOCK
  +--> ?PR?RELOJ_PANTALLA_LCD?PANTALLAS
  +--> ?PR?_PANTALLALCD?PANTALLAS
  +--> ?CO?ACCESCAN
  +--> ?PR?_DEBUG_TXT_TIBBO?TIBBO
  +--> ?PR?_BYTEHEX_DECIMAL?CLOCK
  +--> ?PR?_TWO_BYTEHEX_DECIMAL?CLOCK
  +--> ?PR?VALIDASENSORESPASO?IO_SENSORES
  +--> ?PR?_CMD_LPR_SALIDA_WIEGAND?ACCESCAN
  +--> ?PR?_PANTALLALCD_LINEA_2?PANTALLAS
  +--> ?PR?_GRABA_SERIE?EEPROM

?PR?_BLOCK_WRITE_CLOCK_ASCII?CLOCK               -----    -----      -----    -----      0010H    0003H
  +--> ?PR?_TWO_ONE?CLOCK
  +--> ?PR?_WR_CLK?CLOCK

?PR?_WR_CLK?CLOCK                                -----    -----      -----    -----      0013H    0002H
  +--> ?PR?_DELAY_20US?DELAY
  +--> ?PR?_EB_CLK?CLOCK

?PR?RELOJ_PANTALLA_LCD?PANTALLAS                 -----    -----      -----    -----      0010H    000DH
  +--> ?CO?PANTALLAS
  +--> ?PR?_BLOCK_READ_CLOCK?CLOCK
  +--> ?PR?_LCD_TXT_NUM_CHAR?PANTALLAS

?PR?_BLOCK_READ_CLOCK?CLOCK                      -----    -----      -----    -----      001DH    0003H
  +--> ?PR?_LEE_CLK?CLOCK

?PR?_LCD_TXT_NUM_CHAR?PANTALLAS                  -----    -----      -----    -----      001DH    0006H
  +--> ?PR?_TX_CHRLCD?PANTALLAS

?PR?_CMD_LPR_SALIDA_WIEGAND?ACCESCAN             -----    -----      -----    -----      0010H    0022H
  +--> ?PR?DIR_BOARD?IO_SENSORES
  +--> ?PR?_BLOCK_READ_CLOCK_ASCII?CLOCK
  +--> ?PR?_MONITOR_CHR?ACCESCAN

?PR?_MONITOR_CHR?ACCESCAN                        -----    -----      -----    -----      0032H    0005H
  +--> ?PR?_TX_AUX?TIBBO

?PR?_GRABA_SERIE?EEPROM                          -----    -----      -----    -----      0010H    0005H
  +--> ?CO?EEPROM
  +--> ?PR?_DEBUG_TXT_TIBBO?TIBBO
  +--> ?PR?_WRITE_EEPROM_TICKET?EEPROM
  +--> ?PR?_WR_EEPROM?EEPROM

?PR?MSJ_LCD_INFORMATIVO?IO_SENSORES              -----    -----      -----    -----      0001H    0001H
BL51 BANKED LINKER/LOCATER V6.22.2.0                                                  12/01/2020  12:04:38  PAGE 24


  +--> ?PR?SEL_FUNCION?IO_SENSORES
  +--> ?PR?LOAD_AND_SEND_INFO_RELOJ?PTO_PARA...
  +--> ?PR?LOAD_AND_SEND_ID_COD?PTO_PARALELO
  +--> ?PR?_RD_EEPROM?EEPROM
  +--> ?PR?_SEND_PORTERR?PTO_PARALELO

?PR?LOAD_AND_SEND_INFO_RELOJ?PTO_PARA...         -----    -----      -----    -----      0002H    000BH
  +--> ?PR?_BLOCK_READ_CLOCK?CLOCK
  +--> ?PR?_LEE_CLK?CLOCK
  +--> ?PR?_SEND_PORT?PTO_PARALELO

?PR?LOAD_AND_SEND_ID_COD?PTO_PARALELO            -----    -----      -----    -----      0002H    0013H
  +--> ?PR?_RD_EEPROM?EEPROM
  +--> ?CO?PTO_PARALELO
  +--> ?PR?PRINTF?PRINTF
  +--> ?PR?_SEND_PORT?PTO_PARALELO



SYMBOL TABLE OF MODULE:  .\Objects\expedidor_v_01_raspberry (MAIN)

  VALUE           TYPE          NAME
  ----------------------------------

  -------         MODULE        MAIN
  C:0000H         SYMBOL        _ICE_DUMMY_
  D:0080H         PUBLIC        P0
  D:0090H         PUBLIC        P1
  C:B3D2H         PUBLIC        timer0_int
  D:00B0H         PUBLIC        P3
  B:00A8H.7       PUBLIC        EA
  C:B7F7H         PUBLIC        off_Timer0_Interrup
  X:016AH         PUBLIC        ValTimeOutCom
  X:016BH         PUBLIC        Buffer_Rta_Lintech
  X:019DH         PUBLIC        Timer_wait
  B:0021H.1       PUBLIC        pto_paraleo
  X:019EH         PUBLIC        g_cContByteRx
  B:0080H.0       PUBLIC        rx_ip
  B:0080H.3       PUBLIC        Atascado
  C:A3D8H         PUBLIC        main
  X:019FH         PUBLIC        Timer_tivo
  C:AAA7H         PUBLIC        variable_inicio
  B:0090H.7       PUBLIC        lock
  I:0023H         PUBLIC        rbuf
  C:B7E8H         PUBLIC        on_Timer0_Interrup
  I:0055H         PUBLIC        tbuf
  B:0090H.1       PUBLIC        DataIn
  D:0089H         PUBLIC        TMOD
  X:01A1H         PUBLIC        USE_LPR
  X:01A2H         PUBLIC        Debug_Tibbo
  X:01A3H         PUBLIC        Raspberry
  X:01A4H         PUBLIC        SIN_COBRO
  X:01A6H         PUBLIC        Tipo_Vehiculo
  B:00B0H.3       PUBLIC        busy
  C:B753H         PUBLIC        ini_timer
  B:00A8H.1       PUBLIC        ET0
  B:0088H.5       PUBLIC        TF0
BL51 BANKED LINKER/LOCATER V6.22.2.0                                                  12/01/2020  12:04:38  PAGE 25


  D:008CH         PUBLIC        TH0
  X:01A7H         PUBLIC        ACK
  X:01A8H         PUBLIC        g_cEstadoComSoft
  D:008AH         PUBLIC        TL0
  B:0088H.4       PUBLIC        TR0
  C:B763H         PUBLIC        inicia_board
  X:01A9H         PUBLIC        T_GRACIA
  B:0080H.7       PUBLIC        sel_com
  X:01ABH         PUBLIC        STX_LINTECH
  C:B782H         PUBLIC        _getkey
  X:01ACH         PUBLIC        ETX
  C:ACF7H         PUBLIC        _EscribirCadenaSoft_buffer
  B:0021H.2       PUBLIC        buffer_ready
  C:AFD9H         PUBLIC        _putchar
  B:0021H.3       PUBLIC        placa_ready
  -------         PROC          TIMER0_INT
  C:B3D2H         LINE#         16
  C:B3D8H         LINE#         19
  C:B3DEH         LINE#         20
  C:B3E3H         LINE#         21
  C:B3E3H         LINE#         22
  C:B3E9H         LINE#         23
  C:B3E9H         LINE#         25
  C:B3F7H         LINE#         26
  C:B3F9H         LINE#         28
  -------         ENDPROC       TIMER0_INT
  -------         PROC          INI_TIMER
  C:B753H         LINE#         31
  C:B753H         LINE#         32
  C:B753H         LINE#         34
  C:B75BH         LINE#         36
  C:B75EH         LINE#         37
  C:B760H         LINE#         38
  C:B762H         LINE#         40
  -------         ENDPROC       INI_TIMER
  -------         PROC          ON_TIMER0_INTERRUP
  C:B7E8H         LINE#         43
  C:B7E8H         LINE#         44
  C:B7E8H         LINE#         45
  C:B7EAH         LINE#         46
  C:B7ECH         LINE#         48
  -------         ENDPROC       ON_TIMER0_INTERRUP
  -------         PROC          OFF_TIMER0_INTERRUP
  C:B7F7H         LINE#         51
  C:B7F7H         LINE#         52
  C:B7F7H         LINE#         53
  C:B7F9H         LINE#         55
  -------         ENDPROC       OFF_TIMER0_INTERRUP
  -------         PROC          _GETKEY
  -------         DO            
  D:0006H         SYMBOL        k
  -------         ENDDO         
  C:B782H         LINE#         63
  C:B782H         LINE#         64
  C:B782H         LINE#         68
  C:B782H         LINE#         69
  C:B785H         LINE#         70
BL51 BANKED LINKER/LOCATER V6.22.2.0                                                  12/01/2020  12:04:38  PAGE 26


  C:B785H         LINE#         71
  C:B78DH         LINE#         73
  C:B78DH         LINE#         74
  -------         ENDPROC       _GETKEY
  -------         PROC          _PUTCHAR
  X:00A7H         SYMBOL        c
  -------         DO            
  X:00A8H         SYMBOL        i
  -------         ENDDO         
  C:AFD9H         LINE#         78
  C:AFDEH         LINE#         79
  C:AFDEH         LINE#         82
  C:AFEDH         LINE#         83
  C:AFEDH         LINE#         84
  C:B003H         LINE#         85
  C:B003H         LINE#         87
  C:B011H         LINE#         88
  C:B011H         LINE#         90
  C:B016H         LINE#         91
  -------         ENDPROC       _PUTCHAR
  -------         PROC          _ESCRIBIRCADENASOFT_BUFFER
  X:0027H         SYMBOL        buffer
  X:002AH         SYMBOL        tamano_cadena
  -------         DO            
  X:002BH         SYMBOL        i
  X:002CH         SYMBOL        d
  -------         ENDDO         
  C:ACF7H         LINE#         95
  C:AD05H         LINE#         96
  C:AD05H         LINE#         98
  C:AD13H         LINE#         99
  C:AD13H         LINE#         100
  C:AD2AH         LINE#         101
  C:AD34H         LINE#         102
  C:AD3CH         LINE#         103
  -------         ENDPROC       _ESCRIBIRCADENASOFT_BUFFER
  -------         PROC          INICIA_BOARD
  C:B763H         LINE#         108
  C:B763H         LINE#         109
  C:B763H         LINE#         110
  C:B766H         LINE#         111
  C:B769H         LINE#         112
  C:B76CH         LINE#         113
  C:B76EH         LINE#         114
  C:B770H         LINE#         115
  C:B772H         LINE#         117
  -------         ENDPROC       INICIA_BOARD
  -------         PROC          VARIABLE_INICIO
  C:AAA7H         LINE#         122
  C:AAA7H         LINE#         123
  C:AAA7H         LINE#         126
  C:AAB8H         LINE#         127
  C:AAC9H         LINE#         128
  C:AAD7H         LINE#         129
  C:AAE5H         LINE#         130
  C:AAF3H         LINE#         132
  -------         ENDPROC       VARIABLE_INICIO
BL51 BANKED LINKER/LOCATER V6.22.2.0                                                  12/01/2020  12:04:38  PAGE 27


  -------         PROC          MAIN
  -------         DO            
  X:0141H         SYMBOL        buffer
  X:0169H         SYMBOL        Estado_Comunicacion_Secuencia_MF
  X:0000H         SYMBOL        Length_trama
  -------         ENDDO         
  C:A3D8H         LINE#         140
  C:A3D8H         LINE#         141
  C:A3D8H         LINE#         148
  C:A3DBH         LINE#         149
  C:A3DEH         LINE#         150
  C:A3E1H         LINE#         151
  C:A3E4H         LINE#         152
  C:A3E7H         LINE#         153
  C:A3E9H         LINE#         155
  C:A3ECH         LINE#         156
  C:A3F3H         LINE#         157
  C:A3F6H         LINE#         159
  C:A3FBH         LINE#         161
  C:A3FEH         LINE#         163
  C:A401H         LINE#         164
  C:A401H         LINE#         165
  C:A404H         LINE#         166
  C:A404H         LINE#         169
  C:A407H         LINE#         170
  C:A40DH         LINE#         171
  C:A413H         LINE#         173
  C:A413H         LINE#         174
  C:A413H         LINE#         177
  C:A416H         LINE#         178
  C:A416H         LINE#         179
  C:A419H         LINE#         180
  C:A419H         LINE#         184
  C:A426H         LINE#         189
  C:A42CH         LINE#         190
  C:A42CH         LINE#         192
  C:A43BH         LINE#         194
  C:A444H         LINE#         196
  C:A452H         LINE#         198
  C:A452H         LINE#         199
  C:A455H         LINE#         203
  -------         ENDPROC       MAIN
  -------         ENDMOD        MAIN

  -------         MODULE        ACCESCAN
  C:0000H         SYMBOL        _ICE_DUMMY_
  D:0080H         PUBLIC        P0
  D:0090H         PUBLIC        P1
  B:0080H.2       PUBLIC        led_err_imp
  C:AED8H         PUBLIC        _Monitor_chr
  B:0080H.3       PUBLIC        Atascado
  B:0090H.7       PUBLIC        lock
  C:4062H         PUBLIC        _Valida_Trama_Pto
  C:8052H         PUBLIC        _Cmd_LPR_Salida_wiegand
  -------         PROC          _VALIDA_TRAMA_PTO
  X:0001H         SYMBOL        buffer
  X:0004H         SYMBOL        length_trama
BL51 BANKED LINKER/LOCATER V6.22.2.0                                                  12/01/2020  12:04:38  PAGE 28


  -------         DO            
  X:0267H         SYMBOL        cont
  X:0005H         SYMBOL        buff
  -------         ENDDO         
  C:4062H         LINE#         85
  C:4070H         LINE#         86
  C:4070H         LINE#         92
  C:40A6H         LINE#         93
  C:40A6H         LINE#         94
  C:40BBH         LINE#         95
  C:40BBH         LINE#         96
  C:40CEH         LINE#         98
  C:40D1H         LINE#         100
  C:40D1H         LINE#         102
  C:40D1H         LINE#         104
  C:40E3H         LINE#         105
  C:40E3H         LINE#         106
  C:40E9H         LINE#         107
  C:40F6H         LINE#         108
  C:40F6H         LINE#         109
  C:40FBH         LINE#         110
  C:40FDH         LINE#         111
  C:4102H         LINE#         112
  C:4104H         LINE#         113
  C:4106H         LINE#         114
  C:410AH         LINE#         115
  C:410AH         LINE#         116
  C:410BH         LINE#         118
  C:4123H         LINE#         119
  C:4123H         LINE#         121
  C:4130H         LINE#         122
  C:4130H         LINE#         123
  C:4132H         LINE#         124
  C:4134H         LINE#         125
  C:4136H         LINE#         126
  C:4138H         LINE#         127
  C:4138H         LINE#         129
  C:415EH         LINE#         130
  C:415EH         LINE#         131
  C:4162H         LINE#         132
  C:4167H         LINE#         133
  C:4170H         LINE#         134
  C:4175H         LINE#         135
  C:4175H         LINE#         138
  C:4176H         LINE#         141
  C:4188H         LINE#         142
  C:4188H         LINE#         143
  C:418AH         LINE#         144
  C:418DH         LINE#         146
  C:419FH         LINE#         147
  C:419FH         LINE#         148
  C:41A1H         LINE#         149
  C:41A4H         LINE#         151
  C:41BEH         LINE#         152
  C:41BEH         LINE#         153
  C:41C0H         LINE#         154
  C:41C3H         LINE#         157
BL51 BANKED LINKER/LOCATER V6.22.2.0                                                  12/01/2020  12:04:38  PAGE 29


  C:41DDH         LINE#         158
  C:41DDH         LINE#         159
  C:41DFH         LINE#         160
  C:41E1H         LINE#         163
  C:41FBH         LINE#         164
  C:41FBH         LINE#         165
  C:41FDH         LINE#         166
  C:41FFH         LINE#         170
  C:4219H         LINE#         171
  C:4219H         LINE#         172
  C:421BH         LINE#         173
  C:421DH         LINE#         176
  C:4237H         LINE#         177
  C:4237H         LINE#         178
  C:4239H         LINE#         179
  C:423BH         LINE#         181
  C:4255H         LINE#         182
  C:4255H         LINE#         183
  C:425AH         LINE#         184
  C:425AH         LINE#         186
  C:428AH         LINE#         187
  C:428AH         LINE#         188
  C:4298H         LINE#         189
  C:429BH         LINE#         192
  C:42DEH         LINE#         193
  C:42DEH         LINE#         195
  C:42F3H         LINE#         196
  C:42F9H         LINE#         197
  C:4323H         LINE#         200
  C:432BH         LINE#         201
  C:432BH         LINE#         204
  C:4332H         LINE#         205
  C:4332H         LINE#         206
  C:4337H         LINE#         207
  C:4337H         LINE#         208
  C:4339H         LINE#         210
  C:4339H         LINE#         211
  C:4342H         LINE#         212
  C:434AH         LINE#         213
  C:434AH         LINE#         218
  C:434CH         LINE#         221
  C:434CH         LINE#         224
  C:4353H         LINE#         225
  C:4353H         LINE#         226
  C:4358H         LINE#         227
  C:4358H         LINE#         228
  C:4363H         LINE#         232
  C:4363H         LINE#         233
  C:4363H         LINE#         235
  C:4390H         LINE#         236
  C:4390H         LINE#         237
  C:439FH         LINE#         239
  C:439FH         LINE#         241
  -------         ENDPROC       _VALIDA_TRAMA_PTO
  -------         PROC          _MONITOR_CHR
  X:0032H         SYMBOL        str
  X:0035H         SYMBOL        num_char
BL51 BANKED LINKER/LOCATER V6.22.2.0                                                  12/01/2020  12:04:38  PAGE 30


  -------         DO            
  X:0036H         SYMBOL        j
  -------         ENDDO         
  C:AED8H         LINE#         396
  C:AEE6H         LINE#         397
  C:AEE6H         LINE#         399
  C:AEF4H         LINE#         400
  C:AEF4H         LINE#         401
  C:AF06H         LINE#         402
  C:AF10H         LINE#         403
  C:AF18H         LINE#         404
  -------         ENDPROC       _MONITOR_CHR
  -------         PROC          _CMD_LPR_SALIDA_WIEGAND
  X:0010H         SYMBOL        buffer
  -------         DO            
  X:0013H         SYMBOL        Buffer_Lpr
  X:0031H         SYMBOL        j
  -------         ENDDO         
  C:8052H         LINE#         409
  C:805DH         LINE#         410
  C:805DH         LINE#         412
  C:8063H         LINE#         413
  C:8068H         LINE#         414
  C:8070H         LINE#         415
  C:8074H         LINE#         416
  C:807DH         LINE#         417
  C:807DH         LINE#         418
  C:808EH         LINE#         419
  C:8090H         LINE#         421
  C:8090H         LINE#         422
  C:80A1H         LINE#         423
  C:80A1H         LINE#         427
  C:80B8H         LINE#         428
  C:80B8H         LINE#         429
  C:80C7H         LINE#         430
  C:80D1H         LINE#         432
  C:80D9H         LINE#         433
  C:80EDH         LINE#         435
  C:80FDH         LINE#         436
  C:810EH         LINE#         437
  C:811BH         LINE#         441
  -------         ENDPROC       _CMD_LPR_SALIDA_WIEGAND
  -------         ENDMOD        ACCESCAN

  -------         MODULE        CLOCK
  C:0000H         SYMBOL        _ICE_DUMMY_
  C:AF4DH         PUBLIC        _two_one
  D:0090H         PUBLIC        P1
  C:6EECH         PUBLIC        _validar_clk
  C:B456H         PUBLIC        _wr_clk
  C:85FDH         PUBLIC        _check_fechaOut
  B:00D0H.7       PUBLIC        CY
  C:0003H         PUBLIC        p_ck
  C:989FH         PUBLIC        _hex_ascii
  X:0268H         PUBLIC        data_clk
  C:B7AAH         PUBLIC        cond_ini_clock
  C:86C6H         PUBLIC        _Block_read_Clock
BL51 BANKED LINKER/LOCATER V6.22.2.0                                                  12/01/2020  12:04:38  PAGE 31


  B:0090H.4       PUBLIC        sck
  C:931EH         PUBLIC        _Block_read_Clock_Hex
  C:5C80H         PUBLIC        _Block_read_clock_ascii
  C:B071H         PUBLIC        _hex_bcd
  C:B62AH         PUBLIC        _bcd_hex
  C:A83FH         PUBLIC        _ByteHex_Decimal
  C:99CBH         PUBLIC        _lee_clk
  B:0090H.5       PUBLIC        io
  C:9B71H         PUBLIC        _Block_write_clock_ascii
  B:0090H.6       PUBLIC        rst
  C:AF9AH         PUBLIC        _eb_clk
  C:43A0H         PUBLIC        _Two_ByteHex_Decimal
  -------         PROC          P_CK
  C:0003H         LINE#         48
  C:0003H         LINE#         49
  C:0003H         LINE#         50
  C:0005H         LINE#         51
  C:0008H         LINE#         52
  C:000AH         LINE#         53
  -------         ENDPROC       P_CK
  -------         PROC          _EB_CLK
  X:00B4H         SYMBOL        dir_clk
  -------         DO            
  X:00B5H         SYMBOL        nbits
  -------         ENDDO         
  C:AF9AH         LINE#         55
  C:AF9FH         LINE#         57
  C:AFA4H         LINE#         58
  C:AFA4H         LINE#         59
  C:AFADH         LINE#         60
  C:AFB0H         LINE#         61
  C:AFB0H         LINE#         62
  C:AFB2H         LINE#         63
  C:AFB4H         LINE#         65
  C:AFB4H         LINE#         66
  C:AFB6H         LINE#         67
  C:AFB6H         LINE#         68
  C:AFB9H         LINE#         69
  C:AFD8H         LINE#         70
  -------         ENDPROC       _EB_CLK
  C:99C1H         SYMBOL        L?0082
  -------         PROC          L?0081
  -------         ENDPROC       L?0081
  C:99C1H         SYMBOL        L?0082
  -------         PROC          _LEE_CLK
  X:00B1H         SYMBOL        dir_clk
  -------         DO            
  X:00B2H         SYMBOL        nbits
  -------         ENDDO         
  C:99CBH         LINE#         72
  C:99D0H         LINE#         74
  C:99D2H         LINE#         75
  C:99D9H         LINE#         76
  C:99E1H         LINE#         77
  C:99FAH         LINE#         78
  C:99FAH         LINE#         79
  C:99FDH         LINE#         80
BL51 BANKED LINKER/LOCATER V6.22.2.0                                                  12/01/2020  12:04:38  PAGE 32


  C:99FDH         LINE#         81
  C:9A04H         LINE#         82
  C:9A0EH         LINE#         83
  C:9A13H         LINE#         84
  C:9A13H         LINE#         85
  C:9A13H         LINE#         86
  C:9A16H         LINE#         87
  C:9A16H         LINE#         88
  C:9A1DH         LINE#         89
  C:9A2EH         LINE#         90
  C:9A2EH         LINE#         91
  C:9A36H         LINE#         92
  C:9A36H         LINE#         93
  C:9A36H         LINE#         94
  C:9A39H         LINE#         95
  C:9A49H         LINE#         96
  C:9A4BH         LINE#         97
  C:9A50H         LINE#         98
  -------         ENDPROC       _LEE_CLK
  -------         PROC          _WR_CLK
  X:0013H         SYMBOL        dir_clk
  X:0014H         SYMBOL        byte
  C:B456H         LINE#         100
  C:B45EH         LINE#         101
  C:B460H         LINE#         102
  C:B467H         LINE#         103
  C:B46FH         LINE#         104
  C:B478H         LINE#         105
  C:B47BH         LINE#         106
  C:B47DH         LINE#         108
  -------         ENDPROC       _WR_CLK
  C:AF19H         SYMBOL        L?0077
  C:AF37H         SYMBOL        L?0078
  -------         PROC          L?0076
  -------         ENDPROC       L?0076
  C:AF19H         SYMBOL        L?0077
  C:AF37H         SYMBOL        L?0078
  -------         PROC          _TWO_ONE
  D:0007H         SYMBOL        byte_h
  D:0005H         SYMBOL        byte_l
  -------         DO            
  D:0007H         SYMBOL        byte_out
  -------         ENDDO         
  C:AF4DH         LINE#         110
  C:AF4DH         LINE#         111
  C:AF4DH         LINE#         113
  C:AF50H         LINE#         114
  C:AF54H         LINE#         115
  C:AF57H         LINE#         116
  C:AF59H         LINE#         117
  C:AF59H         LINE#         118
  -------         ENDPROC       _TWO_ONE
  -------         PROC          _VALIDAR_CLK
  D:0001H         SYMBOL        datos_clock
  -------         DO            
  D:0007H         SYMBOL        validador
  -------         ENDDO         
BL51 BANKED LINKER/LOCATER V6.22.2.0                                                  12/01/2020  12:04:38  PAGE 33


  C:6EECH         LINE#         122
  C:6EECH         LINE#         123
  C:6EECH         LINE#         124
  C:6EEEH         LINE#         127
  C:6F03H         LINE#         128
  C:6F03H         LINE#         130
  C:6F1BH         LINE#         131
  C:6F1BH         LINE#         133
  C:6F33H         LINE#         134
  C:6F33H         LINE#         135
  C:6F4BH         LINE#         136
  C:6F4BH         LINE#         137
  C:6F63H         LINE#         138
  C:6F63H         LINE#         139
  C:6F78H         LINE#         140
  C:6F78H         LINE#         141
  C:6F8AH         LINE#         142
  C:6F8AH         LINE#         143
  C:6F9CH         LINE#         144
  C:6F9CH         LINE#         145
  C:6FAEH         LINE#         146
  C:6FAEH         LINE#         147
  C:6FC0H         LINE#         148
  C:6FC0H         LINE#         149
  C:6FD2H         LINE#         150
  C:6FD2H         LINE#         151
  C:6FE2H         LINE#         152
  C:6FE2H         LINE#         153
  C:6FE2H         LINE#         154
  C:6FE2H         LINE#         155
  C:6FE3H         LINE#         157
  C:6FE3H         LINE#         158
  C:6FE5H         LINE#         159
  C:6FE5H         LINE#         160
  C:6FE6H         LINE#         162
  C:6FE6H         LINE#         163
  C:6FE8H         LINE#         165
  C:6FE8H         LINE#         166
  C:6FE9H         LINE#         168
  C:6FE9H         LINE#         169
  C:6FEBH         LINE#         171
  C:6FEBH         LINE#         173
  C:6FECH         LINE#         175
  C:6FECH         LINE#         176
  C:6FEEH         LINE#         178
  C:6FEEH         LINE#         179
  C:6FEFH         LINE#         181
  C:6FEFH         LINE#         182
  C:6FF1H         LINE#         184
  C:6FF1H         LINE#         185
  C:6FF2H         LINE#         187
  C:6FF2H         LINE#         188
  C:6FF4H         LINE#         190
  C:6FF4H         LINE#         191
  C:6FF5H         LINE#         193
  C:6FF5H         LINE#         194
  C:6FF7H         LINE#         196
BL51 BANKED LINKER/LOCATER V6.22.2.0                                                  12/01/2020  12:04:38  PAGE 34


  C:6FF7H         LINE#         197
  C:6FF7H         LINE#         199
  C:6FF8H         LINE#         201
  C:6FF8H         LINE#         202
  C:6FFAH         LINE#         204
  C:6FFAH         LINE#         206
  C:6FFBH         LINE#         209
  C:6FFBH         LINE#         210
  C:6FFDH         LINE#         212
  C:6FFDH         LINE#         214
  C:6FFEH         LINE#         217
  C:6FFEH         LINE#         218
  C:7000H         LINE#         220
  C:7000H         LINE#         222
  C:7000H         LINE#         224
  -------         ENDPROC       _VALIDAR_CLK
  -------         PROC          _BLOCK_WRITE_CLOCK_ASCII
  X:0010H         SYMBOL        datos_clock
  -------         DO            
  D:0007H         SYMBOL        temp
  -------         ENDDO         
  C:9B71H         LINE#         230
  C:9B7CH         LINE#         232
  C:9B7CH         LINE#         237
  C:9B86H         LINE#         238
  C:9B86H         LINE#         239
  C:9B86H         LINE#         240
  C:9B86H         LINE#         242
  C:9B90H         LINE#         243
  C:9B9AH         LINE#         244
  C:9BA4H         LINE#         245
  C:9BA4H         LINE#         246
  C:9BA4H         LINE#         247
  C:9BA4H         LINE#         249
  C:9BAEH         LINE#         250
  C:9BAEH         LINE#         251
  C:9BAEH         LINE#         252
  C:9BAEH         LINE#         254
  C:9BB8H         LINE#         255
  C:9BB8H         LINE#         256
  C:9BB8H         LINE#         257
  C:9BB8H         LINE#         259
  C:9BC2H         LINE#         260
  C:9BC2H         LINE#         261
  C:9BC2H         LINE#         262
  C:9BC2H         LINE#         264
  C:9BCCH         LINE#         265
  C:9BD6H         LINE#         266
  C:9BE0H         LINE#         267
  C:9BEAH         LINE#         269
  C:9BFAH         LINE#         270
  -------         ENDPROC       _BLOCK_WRITE_CLOCK_ASCII
  -------         PROC          _BCD_HEX
  D:0007H         SYMBOL        l_data
  -------         DO            
  D:0006H         SYMBOL        temp
  D:0005H         SYMBOL        j
BL51 BANKED LINKER/LOCATER V6.22.2.0                                                  12/01/2020  12:04:38  PAGE 35


  -------         ENDDO         
  C:B62AH         LINE#         276
  C:B62AH         LINE#         277
  C:B62AH         LINE#         279
  C:B62CH         LINE#         280
  C:B630H         LINE#         281
  C:B633H         LINE#         282
  C:B635H         LINE#         283
  C:B635H         LINE#         284
  C:B639H         LINE#         285
  C:B640H         LINE#         286
  C:B640H         LINE#         287
  C:B644H         LINE#         288
  C:B647H         LINE#         289
  C:B647H         LINE#         290
  C:B647H         LINE#         291
  -------         ENDPROC       _BCD_HEX
  C:B062H         SYMBOL        L?0080
  -------         PROC          L?0079
  -------         ENDPROC       L?0079
  C:B062H         SYMBOL        L?0080
  -------         PROC          _HEX_BCD
  D:0007H         SYMBOL        byte
  -------         DO            
  D:0006H         SYMBOL        nibble_h
  D:0005H         SYMBOL        nibble_l
  D:0004H         SYMBOL        k
  D:0007H         SYMBOL        byte_out
  -------         ENDDO         
  C:B071H         LINE#         295
  C:B071H         LINE#         296
  C:B071H         LINE#         301
  C:B073H         LINE#         302
  C:B074H         LINE#         304
  C:B07AH         LINE#         305
  C:B07AH         LINE#         306
  C:B07BH         LINE#         307
  C:B080H         LINE#         308
  C:B080H         LINE#         309
  C:B081H         LINE#         310
  C:B082H         LINE#         311
  C:B082H         LINE#         312
  C:B085H         LINE#         313
  C:B089H         LINE#         314
  C:B08CH         LINE#         315
  C:B08FH         LINE#         316
  C:B091H         LINE#         317
  C:B091H         LINE#         319
  -------         ENDPROC       _HEX_BCD
  -------         PROC          _HEX_ASCII
  X:005DH         SYMBOL        datos
  X:0060H         SYMBOL        fecha_asii
  -------         DO            
  D:0007H         SYMBOL        dato
  -------         ENDDO         
  C:989FH         LINE#         320
  C:98AAH         LINE#         321
BL51 BANKED LINKER/LOCATER V6.22.2.0                                                  12/01/2020  12:04:38  PAGE 36


  C:98AAH         LINE#         325
  C:98ADH         LINE#         326
  C:98C5H         LINE#         327
  C:98DAH         LINE#         328
  C:98DAH         LINE#         330
  C:98DDH         LINE#         331
  C:98F8H         LINE#         332
  C:9900H         LINE#         333
  C:9900H         LINE#         335
  C:9903H         LINE#         336
  C:991EH         LINE#         337
  C:9929H         LINE#         339
  -------         ENDPROC       _HEX_ASCII
  -------         PROC          _BYTEHEX_DECIMAL
  D:0001H         SYMBOL        buffer
  D:0005H         SYMBOL        valorhex
  -------         DO            
  X:0014H         SYMBOL        numero
  D:0007H         SYMBOL        centena
  D:0006H         SYMBOL        decena
  -------         ENDDO         
  C:A83FH         LINE#         347
  C:A83FH         LINE#         348
  C:A83FH         LINE#         351
  C:A841H         LINE#         352
  C:A842H         LINE#         353
  C:A847H         LINE#         355
  C:A854H         LINE#         356
  C:A854H         LINE#         357
  C:A858H         LINE#         358
  C:A859H         LINE#         359
  C:A85BH         LINE#         360
  C:A861H         LINE#         361
  C:A868H         LINE#         362
  C:A875H         LINE#         363
  C:A875H         LINE#         364
  C:A879H         LINE#         365
  C:A87AH         LINE#         366
  C:A87CH         LINE#         367
  C:A882H         LINE#         368
  C:A889H         LINE#         369
  C:A892H         LINE#         370
  C:A899H         LINE#         371
  -------         ENDPROC       _BYTEHEX_DECIMAL
  -------         PROC          _TWO_BYTEHEX_DECIMAL
  X:0014H         SYMBOL        buffer
  X:0017H         SYMBOL        id_h
  X:0018H         SYMBOL        id_l
  -------         DO            
  X:0019H         SYMBOL        valor
  D:0006H         SYMBOL        numero
  X:001BH         SYMBOL        temp
  X:001CH         SYMBOL        dmil
  X:001DH         SYMBOL        mil
  X:001EH         SYMBOL        centena
  X:001FH         SYMBOL        decena
  -------         ENDDO         
BL51 BANKED LINKER/LOCATER V6.22.2.0                                                  12/01/2020  12:04:38  PAGE 37


  C:43A0H         LINE#         378
  C:43AEH         LINE#         379
  C:43AEH         LINE#         383
  C:43B5H         LINE#         384
  C:43B9H         LINE#         385
  C:43BBH         LINE#         386
  C:43BDH         LINE#         387
  C:43BFH         LINE#         390
  C:43C4H         LINE#         391
  C:43C7H         LINE#         392
  C:43CDH         LINE#         394
  C:4428H         LINE#         395
  C:4430H         LINE#         396
  C:4433H         LINE#         397
  C:448EH         LINE#         399
  C:4496H         LINE#         400
  C:4499H         LINE#         401
  C:449FH         LINE#         402
  C:44FAH         LINE#         403
  C:4502H         LINE#         404
  C:4505H         LINE#         405
  C:4560H         LINE#         406
  C:4560H         LINE#         408
  C:4569H         LINE#         409
  C:4569H         LINE#         410
  C:4571H         LINE#         411
  C:4577H         LINE#         412
  C:4579H         LINE#         413
  C:458FH         LINE#         414
  C:4599H         LINE#         415
  C:45A2H         LINE#         416
  C:45A2H         LINE#         417
  C:45AAH         LINE#         418
  C:45B0H         LINE#         419
  C:45B2H         LINE#         420
  C:45C8H         LINE#         421
  C:45D2H         LINE#         422
  C:45DBH         LINE#         423
  C:45DBH         LINE#         424
  C:45E3H         LINE#         425
  C:45E9H         LINE#         426
  C:45EBH         LINE#         427
  C:4601H         LINE#         428
  C:460BH         LINE#         429
  C:4614H         LINE#         430
  C:4614H         LINE#         431
  C:461CH         LINE#         432
  C:4622H         LINE#         433
  C:4624H         LINE#         434
  C:463AH         LINE#         435
  C:4644H         LINE#         436
  C:4657H         LINE#         437
  C:4661H         LINE#         438
  -------         ENDPROC       _TWO_BYTEHEX_DECIMAL
  -------         PROC          _BLOCK_READ_CLOCK_ASCII
  X:0051H         SYMBOL        datos_clock
  -------         DO            
BL51 BANKED LINKER/LOCATER V6.22.2.0                                                  12/01/2020  12:04:38  PAGE 38


  D:0007H         SYMBOL        dato
  -------         ENDDO         
  C:5C80H         LINE#         444
  C:5C83H         LINE#         445
  C:5C83H         LINE#         451
  C:5C86H         LINE#         452
  C:5C9EH         LINE#         453
  C:5CA8H         LINE#         454
  C:5CBDH         LINE#         455
  C:5CC7H         LINE#         458
  C:5CCCH         LINE#         459
  C:5CE4H         LINE#         460
  C:5CEEH         LINE#         461
  C:5D03H         LINE#         462
  C:5D0DH         LINE#         465
  C:5D12H         LINE#         466
  C:5D2AH         LINE#         467
  C:5D34H         LINE#         468
  C:5D49H         LINE#         469
  C:5D53H         LINE#         473
  C:5D58H         LINE#         474
  C:5D70H         LINE#         475
  C:5D7AH         LINE#         476
  C:5D8FH         LINE#         477
  C:5D99H         LINE#         480
  C:5D9EH         LINE#         481
  C:5DB6H         LINE#         482
  C:5DC0H         LINE#         483
  C:5DD5H         LINE#         484
  C:5DDFH         LINE#         485
  -------         ENDPROC       _BLOCK_READ_CLOCK_ASCII
  -------         PROC          _BLOCK_READ_CLOCK_HEX
  X:00AEH         SYMBOL        datos_clock
  C:931EH         LINE#         489
  C:9321H         LINE#         490
  C:9321H         LINE#         493
  C:9336H         LINE#         494
  C:9340H         LINE#         496
  C:9357H         LINE#         497
  C:9361H         LINE#         499
  C:9378H         LINE#         500
  C:9382H         LINE#         502
  C:9399H         LINE#         503
  C:93A3H         LINE#         505
  C:93BAH         LINE#         506
  -------         ENDPROC       _BLOCK_READ_CLOCK_HEX
  -------         PROC          _BLOCK_READ_CLOCK
  X:001DH         SYMBOL        datos_clock
  C:86C6H         LINE#         533
  C:86C9H         LINE#         534
  C:86C9H         LINE#         536
  C:86DBH         LINE#         537
  C:86E5H         LINE#         539
  C:86F9H         LINE#         540
  C:8703H         LINE#         542
  C:8717H         LINE#         543
  C:8721H         LINE#         545
BL51 BANKED LINKER/LOCATER V6.22.2.0                                                  12/01/2020  12:04:38  PAGE 39


  C:8735H         LINE#         546
  C:873FH         LINE#         548
  C:8753H         LINE#         549
  C:875DH         LINE#         551
  C:8771H         LINE#         552
  C:877BH         LINE#         553
  -------         ENDPROC       _BLOCK_READ_CLOCK
  -------         PROC          COND_INI_CLOCK
  C:B7AAH         LINE#         556
  C:B7AAH         LINE#         557
  C:B7AAH         LINE#         558
  C:B7ACH         LINE#         559
  C:B7AEH         LINE#         560
  C:B7B0H         LINE#         561
  -------         ENDPROC       COND_INI_CLOCK
  -------         PROC          _CHECK_FECHAOUT
  X:009CH         SYMBOL        buffer
  -------         DO            
  X:009FH         SYMBOL        fecha_inicio
  X:00A3H         SYMBOL        fecha_fin
  X:00A7H         SYMBOL        datos_clk
  X:00ADH         SYMBOL        temp
  -------         ENDDO         
  C:85FDH         LINE#         571
  C:8608H         LINE#         572
  C:8608H         LINE#         578
  C:8611H         LINE#         579
  C:8640H         LINE#         580
  C:8693H         LINE#         583
  C:86B3H         LINE#         584
  C:86B3H         LINE#         585
  C:86B9H         LINE#         586
  C:86BBH         LINE#         588
  C:86BBH         LINE#         589
  C:86C0H         LINE#         590
  C:86C0H         LINE#         594
  C:86C5H         LINE#         595
  -------         ENDPROC       _CHECK_FECHAOUT
  -------         ENDMOD        CLOCK

  -------         MODULE        DELAY
  C:0000H         SYMBOL        _ICE_DUMMY_
  C:B1F9H         PUBLIC        _Delay_10ms
  C:B6E7H         PUBLIC        _Delay_20us
  C:B648H         PUBLIC        _Delay_1ms
  C:B7FDH         PUBLIC        Delay
  -------         PROC          _DELAY_20US
  D:0006H         SYMBOL        cntd_us
  -------         DO            
  D:0004H         SYMBOL        i
  -------         ENDDO         
  C:B6E7H         LINE#         20
  C:B6E7H         LINE#         21
  C:B6E7H         LINE#         24
  C:B6F1H         LINE#         26
  C:B6F8H         LINE#         27
  -------         ENDPROC       _DELAY_20US
BL51 BANKED LINKER/LOCATER V6.22.2.0                                                  12/01/2020  12:04:38  PAGE 40


  -------         PROC          _DELAY_1MS
  D:0002H         SYMBOL        cntd_ms
  -------         DO            
  D:0082H         SYMBOL        i
  -------         ENDDO         
  C:B648H         LINE#         38
  C:B64CH         LINE#         39
  C:B64CH         LINE#         41
  C:B662H         LINE#         42
  -------         ENDPROC       _DELAY_1MS
  -------         PROC          _DELAY_10MS
  X:001CH         SYMBOL        cntd_10ms
  -------         DO            
  X:001EH         SYMBOL        i
  -------         ENDDO         
  C:B1F9H         LINE#         54
  C:B201H         LINE#         55
  C:B201H         LINE#         57
  C:B232H         LINE#         58
  -------         ENDPROC       _DELAY_10MS
  -------         PROC          DELAY
  C:B7FDH         LINE#         60
  C:B7FDH         LINE#         62
  -------         ENDPROC       DELAY
  -------         ENDMOD        DELAY

  -------         MODULE        EEPROM
  C:0000H         SYMBOL        _ICE_DUMMY_
  D:0090H         PUBLIC        P1
  C:7B03H         PUBLIC        _Write_EEprom_Ticket
  C:A62EH         PUBLIC        _EscribirMemoria
  X:025EH         PUBLIC        l_chr
  C:B5AFH         PUBLIC        ackd
  B:0021H.6       PUBLIC        memory_flag
  B:00D0H.7       PUBLIC        CY
  C:B7E2H         PUBLIC        p_me
  C:B701H         PUBLIC        start
  B:0090H.2       PUBLIC        sda
  C:B5CFH         PUBLIC        ack_lect
  B:0090H.3       PUBLIC        scl
  C:B096H         PUBLIC        _rd_eeprom
  C:B798H         PUBLIC        stop
  X:025FH         PUBLIC        l_data_eeprom
  C:A9C8H         PUBLIC        _wr_eeprom
  C:A777H         PUBLIC        _LeerMemoria
  C:B2D7H         PUBLIC        Incremente_Ticket
  X:0260H         PUBLIC        byte_rd
  C:8533H         PUBLIC        Read_EEprom_Ticket
  C:B58AH         PUBLIC        _e_d_m
  C:839CH         PUBLIC        _graba_serie
  C:AB41H         PUBLIC        Lee_No_Ticket
  C:AAF4H         PUBLIC        l_d_m
  -------         PROC          L?0057
  -------         ENDPROC       L?0057
  -------         PROC          ACKD
  -------         DO            
  D:0006H         SYMBOL        i
BL51 BANKED LINKER/LOCATER V6.22.2.0                                                  12/01/2020  12:04:38  PAGE 41


  -------         ENDDO         
  C:B5AFH         LINE#         35
  C:B5AFH         LINE#         36
  C:B5AFH         LINE#         38
  C:B5B1H         LINE#         39
  C:B5B3H         LINE#         40
  C:B5B5H         LINE#         41
  C:B5B8H         LINE#         42
  C:B5B8H         LINE#         43
  C:B5BBH         LINE#         44
  C:B5BBH         LINE#         45
  C:B5BDH         LINE#         46
  C:B5BFH         LINE#         48
  C:B5C0H         LINE#         49
  C:B5C0H         LINE#         50
  C:B5CBH         LINE#         52
  C:B5CBH         LINE#         53
  C:B5CBH         LINE#         55
  C:B5CBH         LINE#         56
  -------         ENDPROC       ACKD
  -------         PROC          L?0061
  -------         ENDPROC       L?0061
  -------         PROC          ACK_LECT
  -------         DO            
  D:0006H         SYMBOL        i
  -------         ENDDO         
  C:B5CFH         LINE#         59
  C:B5CFH         LINE#         60
  C:B5CFH         LINE#         62
  C:B5D1H         LINE#         63
  C:B5D3H         LINE#         64
  C:B5D5H         LINE#         65
  C:B5D8H         LINE#         66
  C:B5D8H         LINE#         67
  C:B5DBH         LINE#         68
  C:B5DBH         LINE#         69
  C:B5DDH         LINE#         70
  C:B5DFH         LINE#         71
  C:B5E0H         LINE#         72
  C:B5E0H         LINE#         73
  C:B5EBH         LINE#         74
  -------         ENDPROC       ACK_LECT
  -------         PROC          P_ME
  C:B7E2H         LINE#         76
  C:B7E2H         LINE#         77
  C:B7E2H         LINE#         78
  C:B7E4H         LINE#         79
  C:B7E5H         LINE#         80
  C:B7E7H         LINE#         81
  -------         ENDPROC       P_ME
  -------         PROC          _E_D_M
  D:0007H         SYMBOL        a_serial_eeprom
  -------         DO            
  D:0006H         SYMBOL        nbits
  -------         ENDDO         
  C:B58AH         LINE#         83
  C:B58AH         LINE#         84
BL51 BANKED LINKER/LOCATER V6.22.2.0                                                  12/01/2020  12:04:38  PAGE 42


  C:B58AH         LINE#         86
  C:B596H         LINE#         87
  C:B596H         LINE#         88
  C:B59AH         LINE#         89
  C:B59DH         LINE#         90
  C:B59DH         LINE#         91
  C:B59FH         LINE#         92
  C:B5A1H         LINE#         94
  C:B5A1H         LINE#         95
  C:B5A3H         LINE#         96
  C:B5A3H         LINE#         97
  C:B5A5H         LINE#         98
  C:B5A8H         LINE#         99
  C:B5ABH         LINE#         101
  -------         ENDPROC       _E_D_M
  -------         PROC          L?0058
  -------         ENDPROC       L?0058
  -------         PROC          START
  C:B701H         LINE#         103
  C:B701H         LINE#         104
  C:B701H         LINE#         105
  C:B703H         LINE#         106
  C:B705H         LINE#         107
  C:B706H         LINE#         108
  C:B708H         LINE#         109
  C:B70AH         LINE#         111
  -------         ENDPROC       START
  -------         PROC          STOP
  C:B798H         LINE#         113
  C:B798H         LINE#         114
  C:B798H         LINE#         115
  C:B79AH         LINE#         116
  C:B79CH         LINE#         117
  C:B79EH         LINE#         118
  C:B7A0H         LINE#         120
  -------         ENDPROC       STOP
  -------         PROC          L_D_M
  -------         DO            
  D:0003H         SYMBOL        nbits
  -------         ENDDO         
  C:AAF4H         LINE#         122
  C:AAF4H         LINE#         123
  C:AAF4H         LINE#         125
  C:AB01H         LINE#         126
  C:AB01H         LINE#         127
  C:AB03H         LINE#         128
  C:AB06H         LINE#         129
  C:AB06H         LINE#         130
  C:AB0DH         LINE#         131
  C:AB16H         LINE#         132
  C:AB16H         LINE#         133
  C:AB1AH         LINE#         134
  C:AB1CH         LINE#         135
  C:AB1CH         LINE#         136
  C:AB1CH         LINE#         137
  C:AB1FH         LINE#         138
  C:AB1FH         LINE#         139
BL51 BANKED LINKER/LOCATER V6.22.2.0                                                  12/01/2020  12:04:38  PAGE 43


  C:AB26H         LINE#         140
  C:AB30H         LINE#         141
  C:AB30H         LINE#         142
  C:AB34H         LINE#         143
  C:AB36H         LINE#         144
  C:AB36H         LINE#         145
  C:AB36H         LINE#         146
  C:AB39H         LINE#         147
  C:AB3BH         LINE#         148
  C:AB40H         LINE#         149
  -------         ENDPROC       L_D_M
  -------         PROC          L?0056
  -------         ENDPROC       L?0056
  -------         PROC          _WR_EEPROM
  D:0002H         SYMBOL        control
  D:0004H         SYMBOL        Dir
  D:0003H         SYMBOL        data_eeprom
  -------         DO            
  D:0005H         SYMBOL        dir_h
  D:0001H         SYMBOL        dir_l
  -------         ENDDO         
  C:A9C8H         LINE#         155
  C:A9CAH         LINE#         156
  C:A9CAH         LINE#         158
  C:A9CEH         LINE#         159
  C:A9CEH         LINE#         160
  C:A9CEH         LINE#         163
  C:A9CEH         LINE#         164
  C:A9CEH         LINE#         166
  C:A9D1H         LINE#         167
  C:A9D3H         LINE#         168
  C:A9D6H         LINE#         169
  C:A9D8H         LINE#         170
  C:A9DBH         LINE#         171
  C:A9E0H         LINE#         172
  C:A9E3H         LINE#         173
  C:A9E8H         LINE#         174
  C:A9EBH         LINE#         175
  C:A9EEH         LINE#         176
  C:A9F5H         LINE#         178
  C:A9F7H         LINE#         179
  C:A9F9H         LINE#         180
  C:AA00H         LINE#         181
  -------         ENDPROC       _WR_EEPROM
  C:B092H         SYMBOL        L?0060
  -------         PROC          L?0059
  -------         ENDPROC       L?0059
  C:B092H         SYMBOL        L?0060
  -------         PROC          _RD_EEPROM
  D:0003H         SYMBOL        control
  D:0004H         SYMBOL        Dir
  -------         DO            
  D:0005H         SYMBOL        dir_h
  D:0002H         SYMBOL        dir_l
  -------         ENDDO         
  C:B096H         LINE#         219
  C:B098H         LINE#         220
BL51 BANKED LINKER/LOCATER V6.22.2.0                                                  12/01/2020  12:04:38  PAGE 44


  C:B098H         LINE#         223
  C:B09CH         LINE#         224
  C:B09CH         LINE#         225
  C:B09CH         LINE#         227
  C:B09CH         LINE#         228
  C:B09CH         LINE#         230
  C:B09FH         LINE#         231
  C:B0A1H         LINE#         232
  C:B0A4H         LINE#         233
  C:B0A6H         LINE#         234
  C:B0A9H         LINE#         235
  C:B0AEH         LINE#         236
  C:B0B1H         LINE#         237
  C:B0B4H         LINE#         238
  C:B0BAH         LINE#         239
  C:B0BDH         LINE#         240
  C:B0BFH         LINE#         241
  C:B0C2H         LINE#         242
  C:B0C5H         LINE#         243
  C:B0C7H         LINE#         244
  C:B0C9H         LINE#         245
  C:B0CEH         LINE#         246
  -------         ENDPROC       _RD_EEPROM
  -------         PROC          _GRABA_SERIE
  X:0010H         SYMBOL        buffer
  -------         DO            
  X:0013H         SYMBOL        j
  X:0014H         SYMBOL        error
  -------         ENDDO         
  C:839CH         LINE#         253
  C:83A7H         LINE#         254
  C:83A7H         LINE#         257
  C:83ACH         LINE#         262
  C:83BEH         LINE#         264
  C:83D1H         LINE#         265
  C:83D1H         LINE#         266
  C:83FAH         LINE#         267
  C:83FAH         LINE#         268
  C:8400H         LINE#         270
  C:8409H         LINE#         271
  C:8417H         LINE#         272
  C:8420H         LINE#         273
  C:8420H         LINE#         275
  C:8428H         LINE#         279
  C:842EH         LINE#         280
  C:842EH         LINE#         281
  C:843CH         LINE#         283
  C:843CH         LINE#         285
  C:843CH         LINE#         286
  C:8446H         LINE#         287
  C:8451H         LINE#         288
  C:845CH         LINE#         289
  C:8467H         LINE#         291
  C:8467H         LINE#         292
  -------         ENDPROC       _GRABA_SERIE
  -------         PROC          _WRITE_EEPROM_TICKET
  X:0015H         SYMBOL        buffer
BL51 BANKED LINKER/LOCATER V6.22.2.0                                                  12/01/2020  12:04:38  PAGE 45


  -------         DO            
  X:0018H         SYMBOL        cod_3
  X:0019H         SYMBOL        cod_2
  X:001AH         SYMBOL        cod_1
  X:001BH         SYMBOL        cod_0
  X:001CH         SYMBOL        Noticket
  D:0004H         SYMBOL        Bnoticket
  -------         ENDDO         
  C:7B03H         LINE#         293
  C:7B0EH         LINE#         294
  C:7B0EH         LINE#         296
  C:7B16H         LINE#         297
  C:7B1FH         LINE#         298
  C:7B2DH         LINE#         299
  C:7B36H         LINE#         300
  C:7B4AH         LINE#         302
  C:7B53H         LINE#         303
  C:7B66H         LINE#         304
  C:7B6BH         LINE#         305
  C:7B6EH         LINE#         307
  C:7B81H         LINE#         308
  C:7B86H         LINE#         309
  C:7B89H         LINE#         311
  C:7B9CH         LINE#         312
  C:7BA1H         LINE#         313
  C:7BA4H         LINE#         315
  C:7BB0H         LINE#         316
  C:7BB3H         LINE#         317
  C:7BBCH         LINE#         319
  C:7BCAH         LINE#         320
  C:7BD8H         LINE#         321
  C:7BE6H         LINE#         322
  -------         ENDPROC       _WRITE_EEPROM_TICKET
  -------         PROC          LEE_NO_TICKET
  -------         DO            
  D:0004H         SYMBOL        Noticket
  X:001DH         SYMBOL        Lee_No_Ticket
  D:0007H         SYMBOL        num_chr
  -------         ENDDO         
  C:AB41H         LINE#         327
  C:AB41H         LINE#         328
  C:AB41H         LINE#         332
  C:AB44H         LINE#         333
  C:AB5FH         LINE#         334
  C:AB68H         LINE#         335
  C:AB74H         LINE#         336
  C:AB7DH         LINE#         337
  C:AB86H         LINE#         338
  C:AB8CH         LINE#         339
  -------         ENDPROC       LEE_NO_TICKET
  -------         PROC          READ_EEPROM_TICKET
  -------         DO            
  D:0001H         SYMBOL        cod3
  X:0028H         SYMBOL        cod2
  X:0029H         SYMBOL        cod1
  X:002AH         SYMBOL        cod0
  X:002BH         SYMBOL        Noticket
BL51 BANKED LINKER/LOCATER V6.22.2.0                                                  12/01/2020  12:04:38  PAGE 46


  -------         ENDDO         
  C:8533H         LINE#         343
  C:8533H         LINE#         344
  C:8533H         LINE#         346
  C:853DH         LINE#         347
  C:8544H         LINE#         348
  C:854EH         LINE#         349
  C:855CH         LINE#         350
  C:8566H         LINE#         352
  C:8586H         LINE#         353
  C:85ABH         LINE#         354
  C:85D0H         LINE#         355
  C:85EEH         LINE#         356
  C:85FCH         LINE#         357
  -------         ENDPROC       READ_EEPROM_TICKET
  -------         PROC          INCREMENTE_TICKET
  -------         DO            
  D:0004H         SYMBOL        Noticket
  X:0006H         SYMBOL        Lee_No_Ticket
  -------         ENDDO         
  C:B2D7H         LINE#         361
  C:B2D7H         LINE#         362
  C:B2D7H         LINE#         366
  C:B2DAH         LINE#         367
  C:B2E7H         LINE#         368
  C:B302H         LINE#         369
  -------         ENDPROC       INCREMENTE_TICKET
  -------         PROC          _LEERMEMORIA
  X:009CH         SYMBOL        addres
  X:009EH         SYMBOL        res
  -------         DO            
  D:0007H         SYMBOL        i
  -------         ENDDO         
  C:A777H         LINE#         375
  C:A788H         LINE#         376
  C:A788H         LINE#         378
  C:A788H         LINE#         379
  C:A7A4H         LINE#         380
  C:A7B3H         LINE#         381
  C:A7C1H         LINE#         382
  C:A7CBH         LINE#         383
  C:A7CEH         LINE#         384
  -------         ENDPROC       _LEERMEMORIA
  -------         PROC          _ESCRIBIRMEMORIA
  X:005DH         SYMBOL        addres
  X:005FH         SYMBOL        res
  C:A62EH         LINE#         386
  C:A63FH         LINE#         387
  C:A63FH         LINE#         390
  C:A64FH         LINE#         391
  C:A656H         LINE#         392
  C:A659H         LINE#         394
  C:A667H         LINE#         395
  C:A671H         LINE#         396
  C:A673H         LINE#         397
  C:A676H         LINE#         398
  C:A684H         LINE#         399
BL51 BANKED LINKER/LOCATER V6.22.2.0                                                  12/01/2020  12:04:38  PAGE 47


  C:A68EH         LINE#         400
  -------         ENDPROC       _ESCRIBIRMEMORIA
  -------         ENDMOD        EEPROM

  -------         MODULE        IO_SENSORES
  C:0000H         SYMBOL        _ICE_DUMMY_
  D:0090H         PUBLIC        P1
  D:00B0H         PUBLIC        P3
  C:AE53H         PUBLIC        Dir_board
  B:0021H.7       PUBLIC        PULSADOR_BOTTON
  C:B7BFH         PUBLIC        sel_Pulsa
  B:0090H.1       PUBLIC        DataIn
  C:B6A9H         PUBLIC        Dir_Board_Monitor
  C:B7B8H         PUBLIC        sel_Auto
  C:B233H         PUBLIC        ValidaSensoresPaso
  B:00B0H.3       PUBLIC        busy
  C:B5ECH         PUBLIC        ValidaSensor
  C:B7CDH         PUBLIC        sel_Sensor1
  C:B7C6H         PUBLIC        sel_Sensor2
  C:A956H         PUBLIC        Valida_Sensor1_Auto
  B:00B0H.5       PUBLIC        sel_A
  B:00B0H.6       PUBLIC        sel_B
  B:00B0H.7       PUBLIC        sel_C
  C:A1D8H         PUBLIC        msj_lcd_informativo
  C:B7D4H         PUBLIC        sel_Dir1
  C:B7DBH         PUBLIC        sel_Dir2
  C:B70BH         PUBLIC        Botton
  C:B7B1H         PUBLIC        sel_Funcion
  -------         PROC          SEL_FUNCION
  C:B7B1H         LINE#         32
  C:B7B1H         LINE#         33
  C:B7B1H         LINE#         34
  C:B7B3H         LINE#         35
  C:B7B5H         LINE#         36
  C:B7B7H         LINE#         37
  -------         ENDPROC       SEL_FUNCION
  -------         PROC          SEL_AUTO
  C:B7B8H         LINE#         39
  C:B7B8H         LINE#         40
  C:B7B8H         LINE#         41
  C:B7BAH         LINE#         42
  C:B7BCH         LINE#         43
  C:B7BEH         LINE#         44
  -------         ENDPROC       SEL_AUTO
  -------         PROC          SEL_PULSA
  C:B7BFH         LINE#         46
  C:B7BFH         LINE#         47
  C:B7BFH         LINE#         48
  C:B7C1H         LINE#         49
  C:B7C3H         LINE#         50
  C:B7C5H         LINE#         51
  -------         ENDPROC       SEL_PULSA
  -------         PROC          SEL_SENSOR2
  C:B7C6H         LINE#         54
  C:B7C6H         LINE#         55
  C:B7C6H         LINE#         56
  C:B7C8H         LINE#         57
BL51 BANKED LINKER/LOCATER V6.22.2.0                                                  12/01/2020  12:04:38  PAGE 48


  C:B7CAH         LINE#         58
  C:B7CCH         LINE#         59
  -------         ENDPROC       SEL_SENSOR2
  -------         PROC          SEL_SENSOR1
  C:B7CDH         LINE#         61
  C:B7CDH         LINE#         62
  C:B7CDH         LINE#         63
  C:B7CFH         LINE#         64
  C:B7D1H         LINE#         65
  C:B7D3H         LINE#         66
  -------         ENDPROC       SEL_SENSOR1
  -------         PROC          SEL_DIR1
  C:B7D4H         LINE#         68
  C:B7D4H         LINE#         69
  C:B7D4H         LINE#         70
  C:B7D6H         LINE#         71
  C:B7D8H         LINE#         72
  C:B7DAH         LINE#         73
  -------         ENDPROC       SEL_DIR1
  -------         PROC          SEL_DIR2
  C:B7DBH         LINE#         75
  C:B7DBH         LINE#         76
  C:B7DBH         LINE#         77
  C:B7DDH         LINE#         78
  C:B7DFH         LINE#         79
  C:B7E1H         LINE#         80
  -------         ENDPROC       SEL_DIR2
  -------         PROC          BOTTON
  C:B70BH         LINE#         81
  C:B70BH         LINE#         82
  C:B70BH         LINE#         83
  C:B70EH         LINE#         84
  C:B711H         LINE#         85
  C:B711H         LINE#         86
  C:B71AH         LINE#         87
  C:B71CH         LINE#         88
  C:B71CH         LINE#         90
  -------         ENDPROC       BOTTON
  -------         PROC          VALIDASENSOR
  -------         DO            
  D:0007H         SYMBOL        Valido
  D:0004H         SYMBOL        Tmin
  -------         ENDDO         
  C:B5ECH         LINE#         92
  C:B5ECH         LINE#         93
  C:B5ECH         LINE#         95
  C:B5EEH         LINE#         96
  C:B5F2H         LINE#         97
  C:B5FDH         LINE#         98
  C:B5FDH         LINE#         99
  C:B602H         LINE#         100
  C:B606H         LINE#         101
  C:B606H         LINE#         102
  C:B608H         LINE#         103
  C:B608H         LINE#         104
  C:B60AH         LINE#         105
  C:B60AH         LINE#         106
BL51 BANKED LINKER/LOCATER V6.22.2.0                                                  12/01/2020  12:04:38  PAGE 49


  -------         ENDPROC       VALIDASENSOR
  -------         PROC          DIR_BOARD
  -------         DO            
  X:0032H         SYMBOL        Board
  D:0007H         SYMBOL        Board_High
  -------         ENDDO         
  C:AE53H         LINE#         110
  C:AE53H         LINE#         111
  C:AE53H         LINE#         112
  C:AE59H         LINE#         114
  C:AE5CH         LINE#         115
  C:AE5FH         LINE#         116
  C:AE5FH         LINE#         117
  C:AE62H         LINE#         118
  C:AE62H         LINE#         119
  C:AE65H         LINE#         120
  C:AE68H         LINE#         121
  C:AE68H         LINE#         122
  C:AE6FH         LINE#         123
  C:AE6FH         LINE#         124
  C:AE77H         LINE#         125
  C:AE77H         LINE#         126
  C:AE7FH         LINE#         128
  C:AE82H         LINE#         129
  C:AE82H         LINE#         130
  C:AE88H         LINE#         131
  C:AE88H         LINE#         132
  C:AE8AH         LINE#         133
  C:AE8CH         LINE#         134
  C:AE8EH         LINE#         135
  C:AE8EH         LINE#         137
  C:AE8EH         LINE#         138
  C:AE95H         LINE#         139
  -------         ENDPROC       DIR_BOARD
  -------         PROC          DIR_BOARD_MONITOR
  -------         DO            
  D:0007H         SYMBOL        Board_High
  -------         ENDDO         
  C:B6A9H         LINE#         140
  C:B6A9H         LINE#         141
  C:B6A9H         LINE#         144
  C:B6B2H         LINE#         145
  C:B6B5H         LINE#         146
  C:B6B5H         LINE#         147
  C:B6B8H         LINE#         148
  C:B6B8H         LINE#         149
  C:B6BAH         LINE#         150
  C:B6BAH         LINE#         151
  C:B6BAH         LINE#         152
  C:B6BEH         LINE#         153
  -------         ENDPROC       DIR_BOARD_MONITOR
  -------         PROC          VALIDA_SENSOR1_AUTO
  -------         DO            
  X:0011H         SYMBOL        sensor
  -------         ENDDO         
  C:A956H         LINE#         157
  C:A956H         LINE#         158
BL51 BANKED LINKER/LOCATER V6.22.2.0                                                  12/01/2020  12:04:38  PAGE 50


  C:A956H         LINE#         160
  C:A959H         LINE#         161
  C:A95CH         LINE#         162
  C:A95FH         LINE#         163
  C:A964H         LINE#         164
  C:A964H         LINE#         165
  C:A96BH         LINE#         166
  C:A96FH         LINE#         167
  C:A96FH         LINE#         168
  C:A96FH         LINE#         169
  C:A971H         LINE#         171
  C:A971H         LINE#         172
  C:A978H         LINE#         173
  C:A97DH         LINE#         174
  C:A97DH         LINE#         175
  C:A97DH         LINE#         176
  C:A97DH         LINE#         179
  C:A97FH         LINE#         181
  C:A982H         LINE#         182
  C:A987H         LINE#         183
  C:A987H         LINE#         185
  C:A98EH         LINE#         186
  C:A994H         LINE#         187
  C:A99AH         LINE#         188
  C:A99DH         LINE#         189
  C:A99FH         LINE#         191
  C:A99FH         LINE#         192
  C:A9A6H         LINE#         193
  C:A9ABH         LINE#         194
  C:A9ABH         LINE#         197
  C:A9ABH         LINE#         199
  C:A9B0H         LINE#         200
  -------         ENDPROC       VALIDA_SENSOR1_AUTO
  -------         PROC          VALIDASENSORESPASO
  -------         DO            
  X:0010H         SYMBOL        sensor
  -------         ENDDO         
  C:B233H         LINE#         205
  C:B233H         LINE#         206
  C:B233H         LINE#         208
  C:B236H         LINE#         209
  C:B239H         LINE#         210
  C:B239H         LINE#         211
  C:B247H         LINE#         212
  C:B247H         LINE#         213
  C:B24FH         LINE#         215
  C:B251H         LINE#         217
  C:B251H         LINE#         218
  C:B257H         LINE#         219
  C:B259H         LINE#         220
  C:B259H         LINE#         221
  C:B259H         LINE#         222
  C:B259H         LINE#         223
  C:B262H         LINE#         224
  C:B265H         LINE#         225
  C:B265H         LINE#         226
  C:B26AH         LINE#         227
BL51 BANKED LINKER/LOCATER V6.22.2.0                                                  12/01/2020  12:04:38  PAGE 51


  -------         ENDPROC       VALIDASENSORESPASO
  -------         PROC          MSJ_LCD_INFORMATIVO
  -------         DO            
  X:0001H         SYMBOL        info
  X:0269H         SYMBOL        toggle
  -------         ENDDO         
  C:A1D8H         LINE#         237
  C:A1D8H         LINE#         238
  C:A1D8H         LINE#         239
  C:A1DDH         LINE#         241
  C:A1E0H         LINE#         242
  C:A1E3H         LINE#         243
  C:A1E3H         LINE#         244
  C:A1EFH         LINE#         245
  C:A1EFH         LINE#         246
  C:A1F2H         LINE#         247
  C:A1F2H         LINE#         248
  C:A1F4H         LINE#         249
  C:A1F7H         LINE#         250
  C:A1FDH         LINE#         251
  C:A1FDH         LINE#         252
  C:A1FFH         LINE#         253
  C:A20DH         LINE#         254
  C:A20DH         LINE#         255
  C:A210H         LINE#         256
  C:A210H         LINE#         257
  C:A212H         LINE#         258
  C:A215H         LINE#         259
  C:A21BH         LINE#         260
  C:A21BH         LINE#         261
  C:A21DH         LINE#         262
  C:A22BH         LINE#         263
  C:A22BH         LINE#         264
  C:A22EH         LINE#         265
  C:A22EH         LINE#         266
  C:A230H         LINE#         267
  C:A23EH         LINE#         268
  C:A23EH         LINE#         269
  C:A240H         LINE#         270
  C:A247H         LINE#         272
  C:A24CH         LINE#         273
  C:A24CH         LINE#         275
  C:A24CH         LINE#         277
  C:A24CH         LINE#         279
  C:A24FH         LINE#         280
  C:A252H         LINE#         281
  C:A252H         LINE#         282
  C:A257H         LINE#         283
  C:A257H         LINE#         285
  -------         ENDPROC       MSJ_LCD_INFORMATIVO
  -------         ENDMOD        IO_SENSORES

  -------         MODULE        PANTALLAS
  C:0000H         SYMBOL        _ICE_DUMMY_
  D:0080H         PUBLIC        P0
  C:AA59H         PUBLIC        Reloj_Pantalla_Lcd
  C:26A7H         PUBLIC        _PantallaLCD
BL51 BANKED LINKER/LOCATER V6.22.2.0                                                  12/01/2020  12:04:38  PAGE 52


  C:AE17H         PUBLIC        _LCD_txt
  C:9DB7H         PUBLIC        _Raspberry_data
  C:B4D7H         PUBLIC        _tx_chrlcd
  C:33D8H         SYMBOL        _?ix1000
  C:33DEH         SYMBOL        _?ix1001
  C:33E4H         SYMBOL        _?ix1002
  C:AD3DH         PUBLIC        _LCD_txt_num_char
  X:0206H         PUBLIC        malloc_memoria
  C:4927H         PUBLIC        _PantallaLCD_LINEA_2
  B:0098H.4       PUBLIC        REN
  B:0080H.7       PUBLIC        sel_com
  -------         PROC          _PANTALLALCD
  X:002AH         SYMBOL        cod_msg
  -------         DO            
  X:002BH         SYMBOL        Ini_LCD_Line_one
  X:0031H         SYMBOL        num_chr
  X:0032H         SYMBOL        msjpantalla
  -------         ENDDO         
  C:26A7H         LINE#         90
  C:26ACH         LINE#         91
  C:26ACH         LINE#         93
  C:26BFH         LINE#         100
  C:26CAH         LINE#         101
  C:26D9H         LINE#         102
  C:26DBH         LINE#         104
  C:26E4H         LINE#         105
  C:26E4H         LINE#         106
  C:26EEH         LINE#         108
  C:274AH         LINE#         109
  C:274AH         LINE#         111
  C:274AH         LINE#         112
  C:2758H         LINE#         113
  C:275EH         LINE#         114
  C:2761H         LINE#         115
  C:2767H         LINE#         116
  C:276AH         LINE#         118
  C:276AH         LINE#         120
  C:2778H         LINE#         121
  C:277EH         LINE#         122
  C:2781H         LINE#         123
  C:2787H         LINE#         124
  C:278AH         LINE#         126
  C:278AH         LINE#         128
  C:2798H         LINE#         129
  C:279EH         LINE#         130
  C:27A1H         LINE#         131
  C:27A7H         LINE#         132
  C:27AAH         LINE#         133
  C:27AAH         LINE#         134
  C:27B8H         LINE#         135
  C:27BEH         LINE#         136
  C:27C1H         LINE#         137
  C:27C7H         LINE#         138
  C:27CAH         LINE#         139
  C:27CAH         LINE#         140
  C:27D8H         LINE#         141
  C:27DEH         LINE#         142
BL51 BANKED LINKER/LOCATER V6.22.2.0                                                  12/01/2020  12:04:38  PAGE 53


  C:27E1H         LINE#         143
  C:27E7H         LINE#         144
  C:27EAH         LINE#         145
  C:27EAH         LINE#         146
  C:27F8H         LINE#         147
  C:27FEH         LINE#         148
  C:2801H         LINE#         149
  C:2807H         LINE#         150
  C:280AH         LINE#         151
  C:280AH         LINE#         153
  C:2818H         LINE#         154
  C:281EH         LINE#         155
  C:2821H         LINE#         156
  C:2827H         LINE#         157
  C:282AH         LINE#         158
  C:282AH         LINE#         164
  C:282AH         LINE#         165
  C:2838H         LINE#         166
  C:283EH         LINE#         167
  C:2841H         LINE#         168
  C:2847H         LINE#         169
  C:284AH         LINE#         170
  C:284AH         LINE#         171
  C:2858H         LINE#         172
  C:285EH         LINE#         173
  C:2861H         LINE#         174
  C:2867H         LINE#         175
  C:286AH         LINE#         177
  C:286AH         LINE#         178
  C:2878H         LINE#         179
  C:287EH         LINE#         180
  C:2881H         LINE#         181
  C:2887H         LINE#         182
  C:288AH         LINE#         184
  C:288AH         LINE#         185
  C:2898H         LINE#         186
  C:289EH         LINE#         187
  C:28A1H         LINE#         188
  C:28A7H         LINE#         189
  C:28AAH         LINE#         194
  C:28AAH         LINE#         196
  C:28B8H         LINE#         197
  C:28BEH         LINE#         198
  C:28C1H         LINE#         199
  C:28C7H         LINE#         200
  C:28CAH         LINE#         202
  C:28CAH         LINE#         204
  C:28D8H         LINE#         205
  C:28DEH         LINE#         206
  C:28E1H         LINE#         207
  C:28E7H         LINE#         208
  C:28EAH         LINE#         210
  C:28EAH         LINE#         211
  C:28F8H         LINE#         212
  C:28FEH         LINE#         213
  C:2901H         LINE#         214
  C:2907H         LINE#         215
BL51 BANKED LINKER/LOCATER V6.22.2.0                                                  12/01/2020  12:04:38  PAGE 54


  C:290AH         LINE#         217
  C:290AH         LINE#         219
  C:2918H         LINE#         220
  C:291EH         LINE#         221
  C:2921H         LINE#         222
  C:2927H         LINE#         223
  C:292AH         LINE#         225
  C:292AH         LINE#         227
  C:2938H         LINE#         228
  C:293EH         LINE#         229
  C:2941H         LINE#         230
  C:2947H         LINE#         231
  C:294AH         LINE#         233
  C:294AH         LINE#         234
  C:2958H         LINE#         235
  C:295EH         LINE#         236
  C:2961H         LINE#         237
  C:2967H         LINE#         238
  C:296AH         LINE#         240
  C:296AH         LINE#         241
  C:2978H         LINE#         242
  C:297EH         LINE#         243
  C:2981H         LINE#         244
  C:2987H         LINE#         245
  C:298AH         LINE#         247
  C:298AH         LINE#         249
  C:2998H         LINE#         250
  C:299EH         LINE#         251
  C:29A1H         LINE#         252
  C:29A7H         LINE#         253
  C:29AAH         LINE#         255
  C:29AAH         LINE#         256
  C:29B8H         LINE#         257
  C:29BEH         LINE#         258
  C:29C1H         LINE#         259
  C:29C7H         LINE#         260
  C:29CAH         LINE#         261
  C:29CAH         LINE#         262
  C:29D8H         LINE#         263
  C:29DEH         LINE#         264
  C:29E1H         LINE#         265
  C:29E7H         LINE#         266
  C:29EAH         LINE#         267
  C:29EAH         LINE#         268
  C:29F8H         LINE#         269
  C:29FEH         LINE#         270
  C:2A01H         LINE#         271
  C:2A07H         LINE#         272
  C:2A0AH         LINE#         273
  C:2A0AH         LINE#         274
  C:2A18H         LINE#         275
  C:2A1BH         LINE#         276
  C:2A21H         LINE#         277
  C:2A23H         LINE#         281
  C:2A23H         LINE#         282
  C:2A31H         LINE#         283
  C:2A37H         LINE#         284
BL51 BANKED LINKER/LOCATER V6.22.2.0                                                  12/01/2020  12:04:38  PAGE 55


  C:2A3AH         LINE#         285
  C:2A40H         LINE#         286
  C:2A42H         LINE#         287
  C:2A42H         LINE#         288
  C:2A50H         LINE#         289
  C:2A56H         LINE#         290
  C:2A59H         LINE#         291
  C:2A5FH         LINE#         292
  C:2A61H         LINE#         293
  C:2A61H         LINE#         294
  C:2A6FH         LINE#         295
  C:2A75H         LINE#         296
  C:2A78H         LINE#         297
  C:2A83H         LINE#         298
  C:2A83H         LINE#         307
  C:2A83H         LINE#         309
  C:2A83H         LINE#         310
  C:2A83H         LINE#         311
  C:2A85H         LINE#         313
  C:2A86H         LINE#         315
  C:2A86H         LINE#         316
  C:2A88H         LINE#         317
  C:2AEAH         LINE#         318
  C:2AEAH         LINE#         321
  C:2AEAH         LINE#         322
  C:2AFEH         LINE#         323
  C:2AFEH         LINE#         325
  C:2B01H         LINE#         326
  C:2B01H         LINE#         329
  C:2B15H         LINE#         330
  C:2B15H         LINE#         331
  C:2B18H         LINE#         333
  C:2B18H         LINE#         334
  C:2B2CH         LINE#         335
  C:2B2CH         LINE#         337
  C:2B2FH         LINE#         338
  C:2B2FH         LINE#         339
  C:2B43H         LINE#         340
  C:2B43H         LINE#         342
  C:2B46H         LINE#         343
  C:2B46H         LINE#         344
  C:2B5AH         LINE#         345
  C:2B5AH         LINE#         347
  C:2B5DH         LINE#         348
  C:2B5DH         LINE#         349
  C:2B71H         LINE#         350
  C:2B71H         LINE#         352
  C:2B74H         LINE#         353
  C:2B74H         LINE#         354
  C:2B88H         LINE#         355
  C:2B88H         LINE#         357
  C:2B8BH         LINE#         358
  C:2B8BH         LINE#         359
  C:2B9FH         LINE#         360
  C:2B9FH         LINE#         362
  C:2BA2H         LINE#         364
  C:2BA2H         LINE#         365
BL51 BANKED LINKER/LOCATER V6.22.2.0                                                  12/01/2020  12:04:38  PAGE 56


  C:2BB6H         LINE#         366
  C:2BB6H         LINE#         368
  C:2BB9H         LINE#         370
  C:2BB9H         LINE#         371
  C:2BCDH         LINE#         372
  C:2BCDH         LINE#         374
  C:2BD0H         LINE#         376
  C:2BD0H         LINE#         377
  C:2BE4H         LINE#         378
  C:2BE4H         LINE#         380
  C:2BE7H         LINE#         382
  C:2BE7H         LINE#         383
  C:2BFBH         LINE#         384
  C:2BFBH         LINE#         386
  C:2BFEH         LINE#         390
  C:2BFEH         LINE#         391
  C:2C12H         LINE#         392
  C:2C12H         LINE#         394
  C:2C15H         LINE#         396
  C:2C15H         LINE#         397
  C:2C29H         LINE#         398
  C:2C29H         LINE#         400
  C:2C2CH         LINE#         402
  C:2C2CH         LINE#         403
  C:2C40H         LINE#         404
  C:2C40H         LINE#         410
  C:2C43H         LINE#         411
  C:2C43H         LINE#         412
  C:2C57H         LINE#         413
  C:2C57H         LINE#         415
  C:2C5AH         LINE#         416
  C:2C5AH         LINE#         417
  C:2C6EH         LINE#         418
  C:2C6EH         LINE#         420
  C:2C71H         LINE#         421
  C:2C71H         LINE#         422
  C:2C85H         LINE#         423
  C:2C85H         LINE#         425
  C:2C88H         LINE#         426
  C:2C88H         LINE#         427
  C:2C9CH         LINE#         428
  C:2C9CH         LINE#         430
  C:2C9FH         LINE#         432
  C:2C9FH         LINE#         433
  C:2CB3H         LINE#         434
  C:2CB3H         LINE#         436
  C:2CB6H         LINE#         438
  C:2CB6H         LINE#         439
  C:2CCAH         LINE#         440
  C:2CCAH         LINE#         442
  C:2CCDH         LINE#         443
  C:2CCDH         LINE#         444
  C:2CE1H         LINE#         445
  C:2CE1H         LINE#         447
  C:2CE4H         LINE#         448
  C:2CE4H         LINE#         449
  C:2CF8H         LINE#         450
BL51 BANKED LINKER/LOCATER V6.22.2.0                                                  12/01/2020  12:04:38  PAGE 57


  C:2CF8H         LINE#         452
  C:2CFBH         LINE#         453
  C:2CFBH         LINE#         454
  C:2D0FH         LINE#         455
  C:2D0FH         LINE#         457
  C:2D11H         LINE#         459
  C:2D11H         LINE#         460
  C:2D25H         LINE#         461
  C:2D25H         LINE#         463
  C:2D27H         LINE#         464
  C:2D27H         LINE#         465
  C:2D3BH         LINE#         466
  C:2D3BH         LINE#         468
  C:2D3DH         LINE#         469
  C:2D3DH         LINE#         470
  C:2D51H         LINE#         471
  C:2D51H         LINE#         473
  C:2D53H         LINE#         478
  C:2D53H         LINE#         479
  C:2D67H         LINE#         480
  C:2D67H         LINE#         482
  C:2D69H         LINE#         483
  C:2D69H         LINE#         484
  C:2D80H         LINE#         485
  C:2D86H         LINE#         487
  C:2D86H         LINE#         495
  C:2D86H         LINE#         496
  C:2D86H         LINE#         497
  C:2D86H         LINE#         498
  C:2D91H         LINE#         499
  C:2D98H         LINE#         500
  C:2D9AH         LINE#         501
  C:2D9AH         LINE#         505
  -------         ENDPROC       _PANTALLALCD
  -------         PROC          _PANTALLALCD_LINEA_2
  X:0010H         SYMBOL        cod_msg
  X:0011H         SYMBOL        buffer
  -------         DO            
  X:0014H         SYMBOL        Ini_LCD_Line_one
  X:001AH         SYMBOL        num_chr
  X:001BH         SYMBOL        msjpantalla
  -------         ENDDO         
  C:4927H         LINE#         506
  C:4935H         LINE#         507
  C:4935H         LINE#         509
  C:4948H         LINE#         513
  C:4953H         LINE#         514
  C:4962H         LINE#         518
  C:4964H         LINE#         520
  C:496DH         LINE#         521
  C:496DH         LINE#         524
  C:497BH         LINE#         525
  C:497BH         LINE#         527
  C:497BH         LINE#         528
  C:497EH         LINE#         529
  C:498CH         LINE#         530
  C:49A1H         LINE#         531
BL51 BANKED LINKER/LOCATER V6.22.2.0                                                  12/01/2020  12:04:38  PAGE 58


  C:49A7H         LINE#         532
  C:49ADH         LINE#         533
  C:49B3H         LINE#         534
  C:49B3H         LINE#         535
  C:49B5H         LINE#         536
  C:49B5H         LINE#         537
  C:49B8H         LINE#         538
  C:49C6H         LINE#         539
  C:49DBH         LINE#         540
  C:49E1H         LINE#         541
  C:49E7H         LINE#         542
  C:49F2H         LINE#         543
  C:4A02H         LINE#         544
  C:4A02H         LINE#         548
  C:4A02H         LINE#         550
  C:4A02H         LINE#         552
  C:4A02H         LINE#         553
  C:4A04H         LINE#         554
  C:4A05H         LINE#         556
  C:4A05H         LINE#         557
  C:4A07H         LINE#         558
  C:4A21H         LINE#         559
  C:4A21H         LINE#         560
  C:4A21H         LINE#         562
  C:4A38H         LINE#         563
  C:4A38H         LINE#         564
  C:4A38H         LINE#         565
  C:4A38H         LINE#         568
  C:4A3BH         LINE#         570
  C:4A3BH         LINE#         571
  C:4A52H         LINE#         572
  C:4A65H         LINE#         573
  C:4A7FH         LINE#         574
  C:4A7FH         LINE#         575
  C:4A7FH         LINE#         576
  C:4A7FH         LINE#         578
  C:4A82H         LINE#         579
  C:4A82H         LINE#         581
  C:4A96H         LINE#         582
  C:4A99H         LINE#         583
  C:4A9CH         LINE#         584
  C:4A9CH         LINE#         586
  C:4AB1H         LINE#         588
  C:4AB1H         LINE#         589
  C:4AB3H         LINE#         591
  C:4AB3H         LINE#         593
  C:4ACCH         LINE#         595
  C:4ACFH         LINE#         597
  C:4ACFH         LINE#         598
  C:4AE2H         LINE#         599
  C:4AE2H         LINE#         600
  C:4AE9H         LINE#         602
  C:4B0AH         LINE#         604
  C:4B27H         LINE#         605
  C:4B2AH         LINE#         607
  C:4B2AH         LINE#         608
  C:4B31H         LINE#         610
BL51 BANKED LINKER/LOCATER V6.22.2.0                                                  12/01/2020  12:04:38  PAGE 59


  C:4B31H         LINE#         611
  C:4B31H         LINE#         614
  C:4B34H         LINE#         616
  C:4B34H         LINE#         617
  C:4B4BH         LINE#         618
  C:4B5EH         LINE#         619
  C:4B78H         LINE#         620
  C:4BA4H         LINE#         621
  C:4BC1H         LINE#         622
  C:4BC4H         LINE#         624
  C:4BC4H         LINE#         626
  C:4BC4H         LINE#         628
  C:4BC4H         LINE#         629
  C:4BC4H         LINE#         630
  C:4BCFH         LINE#         631
  C:4BD6H         LINE#         632
  C:4BD8H         LINE#         633
  C:4BD8H         LINE#         634
  -------         ENDPROC       _PANTALLALCD_LINEA_2
  C:B4CEH         SYMBOL        L?0164
  C:B4D1H         SYMBOL        L?0165
  C:B4D2H         SYMBOL        L?0166
  -------         PROC          L?0163
  -------         ENDPROC       L?0163
  C:B4CEH         SYMBOL        L?0164
  C:B4D1H         SYMBOL        L?0165
  C:B4D2H         SYMBOL        L?0166
  -------         PROC          _TX_CHRLCD
  D:0007H         SYMBOL        data_com
  X:0039H         SYMBOL        enable_char_add
  -------         DO            
  X:003AH         SYMBOL        d
  -------         ENDDO         
  C:B4D7H         LINE#         640
  C:B4DCH         LINE#         641
  C:B4DCH         LINE#         643
  C:B4E4H         LINE#         644
  C:B4F4H         LINE#         646
  -------         ENDPROC       _TX_CHRLCD
  -------         PROC          L?0170
  -------         ENDPROC       L?0170
  -------         PROC          _LCD_TXT
  X:0034H         SYMBOL        msg
  X:0037H         SYMBOL        enable_char_add
  -------         DO            
  X:0038H         SYMBOL        i
  -------         ENDDO         
  C:AE17H         LINE#         653
  C:AE25H         LINE#         654
  C:AE25H         LINE#         657
  C:AE42H         LINE#         658
  C:AE42H         LINE#         659
  C:AE4AH         LINE#         660
  C:AE52H         LINE#         661
  -------         ENDPROC       _LCD_TXT
  -------         PROC          _LCD_TXT_NUM_CHAR
  X:001DH         SYMBOL        msg
BL51 BANKED LINKER/LOCATER V6.22.2.0                                                  12/01/2020  12:04:38  PAGE 60


  X:0020H         SYMBOL        length_char
  X:0021H         SYMBOL        enable_char_add
  -------         DO            
  X:0022H         SYMBOL        i
  -------         ENDDO         
  C:AD3DH         LINE#         668
  C:AD4BH         LINE#         669
  C:AD4BH         LINE#         672
  C:AD5EH         LINE#         673
  C:AD5EH         LINE#         674
  C:AD7AH         LINE#         675
  C:AD82H         LINE#         676
  -------         ENDPROC       _LCD_TXT_NUM_CHAR
  C:9DABH         SYMBOL        L?0168
  C:9DAEH         SYMBOL        L?0169
  -------         PROC          L?0167
  -------         ENDPROC       L?0167
  C:9DABH         SYMBOL        L?0168
  C:9DAEH         SYMBOL        L?0169
  -------         PROC          _RASPBERRY_DATA
  X:0034H         SYMBOL        msjpantalla
  -------         DO            
  X:0037H         SYMBOL        i
  X:0038H         SYMBOL        lenth_cadena
  X:0039H         SYMBOL        d
  -------         ENDDO         
  C:9DB7H         LINE#         678
  C:9DC2H         LINE#         679
  C:9DC2H         LINE#         684
  C:9DCAH         LINE#         686
  C:9DDCH         LINE#         687
  C:9DDCH         LINE#         689
  C:9DEEH         LINE#         690
  C:9DEEH         LINE#         691
  C:9DF3H         LINE#         692
  C:9E11H         LINE#         694
  C:9E19H         LINE#         697
  C:9E2BH         LINE#         698
  C:9E2BH         LINE#         700
  C:9E30H         LINE#         702
  -------         ENDPROC       _RASPBERRY_DATA
  -------         PROC          RELOJ_PANTALLA_LCD
  -------         DO            
  X:0010H         SYMBOL        Ini_Clock_LCD
  -------         ENDDO         
  C:AA59H         LINE#         710
  C:AA59H         LINE#         711
  C:AA59H         LINE#         713
  C:AA6CH         LINE#         714
  C:AA72H         LINE#         715
  C:AA72H         LINE#         716
  C:AA74H         LINE#         717
  C:AA7DH         LINE#         721
  C:AA7FH         LINE#         722
  C:AA8FH         LINE#         724
  C:AA91H         LINE#         725
  C:AA93H         LINE#         727
BL51 BANKED LINKER/LOCATER V6.22.2.0                                                  12/01/2020  12:04:38  PAGE 61


  C:AA94H         LINE#         729
  C:AA94H         LINE#         730
  C:AA96H         LINE#         731
  C:AA9BH         LINE#         732
  C:AAA4H         LINE#         736
  C:AAA6H         LINE#         737
  C:AAA6H         LINE#         738
  -------         ENDPROC       RELOJ_PANTALLA_LCD
  -------         ENDMOD        PANTALLAS

  -------         MODULE        PROG
  C:0000H         SYMBOL        _ICE_DUMMY_
  C:5207H         PUBLIC        Prog_fecha_vencimiento
  C:646EH         PUBLIC        Prog_Sin_Cobro
  C:6DD3H         PUBLIC        _Ver_Horario_Desde_Hasta
  C:741FH         PUBLIC        Prog_debug
  C:7713H         PUBLIC        Prog_AntiPassBack
  C:9A64H         PUBLIC        _GetOption
  X:01B1H         PUBLIC        validacion
  C:790BH         PUBLIC        Prog_Validar_Tipo_Vehiculo_Mensual
  X:01BCH         PUBLIC        cursor
  C:6CB9H         PUBLIC        _Prog_Horarios_on_off
  C:96D5H         PUBLIC        Show
  C:3D06H         PUBLIC        Ver_Prog
  C:B30BH         PUBLIC        Addr_Horarios
  C:8F00H         PUBLIC        prog_id_cliente
  C:AE9EH         PUBLIC        _ValidarClave
  C:4BD9H         PUBLIC        menu
  C:751BH         PUBLIC        Prog_Use_Lpr
  C:A7DDH         PUBLIC        _ListaComandos
  C:12F7H         SYMBOL        _?ix1000
  C:1302H         SYMBOL        _?ix1001
  C:1312H         SYMBOL        _?ix1002
  C:1322H         SYMBOL        _?ix1003
  C:1326H         SYMBOL        _?ix1004
  C:60A8H         PUBLIC        Prog_Horarios
  C:132AH         SYMBOL        _?ix1005
  C:7A07H         PUBLIC        Prog_Apb_Mensual
  C:8911H         PUBLIC        Prog_tarjeta_automatica_o_boton
  C:4E05H         PUBLIC        _hash_id
  C:4670H         PUBLIC        _Prog_Horario_dias
  C:8CCEH         PUBLIC        Prog_tiempo_gracia
  C:A260H         PUBLIC        _IngresaDato
  X:01D0H         PUBLIC        comandos
  C:AC21H         PUBLIC        First_Clave
  C:B67BH         PUBLIC        DisplayCursor
  C:780FH         PUBLIC        Prog_Placa
  C:8C11H         PUBLIC        prog_cod_park
  C:66EAH         PUBLIC        Ver_Horario
  C:6A75H         PUBLIC        _Ver_Horario_dias
  C:500DH         PUBLIC        _Prog_Horario_Desde_Hasta
  C:7617H         PUBLIC        tipo_pantalla
  C:7DC2H         PUBLIC        Prog_Address_High_Board
  C:AF60H         PUBLIC        _GetCMD
  -------         PROC          _HASH_ID
  X:005DH         SYMBOL        clave
  -------         DO            
BL51 BANKED LINKER/LOCATER V6.22.2.0                                                  12/01/2020  12:04:38  PAGE 62


  X:0060H         SYMBOL        len_clave
  X:0061H         SYMBOL        i
  X:01ADH         SYMBOL        temp
  X:01AFH         SYMBOL        temp1
  X:0062H         SYMBOL        aleatorio
  X:006DH         SYMBOL        suma
  X:007DH         SYMBOL        xxor
  X:008DH         SYMBOL        usuario1
  X:0098H         SYMBOL        vencimiento_password
  -------         ENDDO         
  C:4E05H         LINE#         121
  C:4E10H         LINE#         122
  C:4E10H         LINE#         125
  C:4E23H         LINE#         127
  C:4E36H         LINE#         128
  C:4E49H         LINE#         132
  C:4E56H         LINE#         133
  C:4E72H         LINE#         135
  C:4E72H         LINE#         136
  C:4E76H         LINE#         137
  C:4E78H         LINE#         139
  C:4E78H         LINE#         140
  C:4E7FH         LINE#         141
  C:4E7FH         LINE#         142
  C:4E92H         LINE#         143
  C:4EA6H         LINE#         144
  C:4EA6H         LINE#         145
  C:4ED2H         LINE#         146
  C:4EDDH         LINE#         147
  C:4EEAH         LINE#         148
  C:4F08H         LINE#         149
  C:4F13H         LINE#         150
  C:4F20H         LINE#         151
  C:4F44H         LINE#         152
  C:4F4CH         LINE#         153
  C:4F4CH         LINE#         154
  C:4F51H         LINE#         155
  C:4F51H         LINE#         156
  C:4F6AH         LINE#         157
  C:4F6AH         LINE#         158
  C:4F76H         LINE#         160
  C:4F76H         LINE#         161
  C:4F85H         LINE#         162
  C:4F85H         LINE#         163
  C:4F91H         LINE#         164
  C:4F91H         LINE#         165
  C:4FAAH         LINE#         166
  C:4FAAH         LINE#         167
  C:4FB5H         LINE#         168
  C:4FB5H         LINE#         169
  C:4FCEH         LINE#         170
  C:4FCEH         LINE#         171
  C:4FD9H         LINE#         172
  C:4FD9H         LINE#         173
  C:4FEEH         LINE#         175
  C:4FF7H         LINE#         176
  C:5006H         LINE#         178
BL51 BANKED LINKER/LOCATER V6.22.2.0                                                  12/01/2020  12:04:38  PAGE 63


  C:500CH         LINE#         179
  -------         ENDPROC       _HASH_ID
  -------         PROC          _LISTACOMANDOS
  X:0046H         SYMBOL        cmd
  -------         DO            
  X:0049H         SYMBOL        buf
  X:004CH         SYMBOL        i
  -------         ENDDO         
  C:A7DDH         LINE#         186
  C:A7E8H         LINE#         187
  C:A7E8H         LINE#         191
  C:A7FBH         LINE#         192
  C:A7FBH         LINE#         193
  C:A813H         LINE#         194
  C:A82EH         LINE#         195
  C:A834H         LINE#         196
  C:A83CH         LINE#         198
  C:A83EH         LINE#         199
  -------         ENDPROC       _LISTACOMANDOS
  -------         PROC          L?0274
  -------         ENDPROC       L?0274
  -------         PROC          _VALIDARCLAVE
  X:005DH         SYMBOL        buffer
  -------         DO            
  X:0060H         SYMBOL        buf
  -------         ENDDO         
  C:AE9EH         LINE#         205
  C:AEA9H         LINE#         206
  C:AEA9H         LINE#         209
  C:AEB8H         LINE#         210
  C:AED3H         LINE#         211
  C:AED5H         LINE#         214
  C:AED7H         LINE#         215
  -------         ENDPROC       _VALIDARCLAVE
  -------         PROC          L?0275
  -------         ENDPROC       L?0275
  -------         PROC          _GETCMD
  X:005DH         SYMBOL        in
  -------         DO            
  X:0060H         SYMBOL        tokens
  -------         ENDDO         
  C:AF60H         LINE#         222
  C:AF6BH         LINE#         223
  C:AF6BH         LINE#         224
  C:AF7EH         LINE#         225
  -------         ENDPROC       _GETCMD
  -------         PROC          L?0273
  -------         ENDPROC       L?0273
  -------         PROC          _GETOPTION
  X:0046H         SYMBOL        in
  -------         DO            
  X:0049H         SYMBOL        tokensSpace
  X:004DH         SYMBOL        tokensQuote
  -------         ENDDO         
  C:9A64H         LINE#         231
  C:9A6FH         LINE#         232
  C:9A6FH         LINE#         233
BL51 BANKED LINKER/LOCATER V6.22.2.0                                                  12/01/2020  12:04:38  PAGE 64


  C:9A82H         LINE#         234
  C:9A95H         LINE#         237
  C:9AA7H         LINE#         238
  C:9AB3H         LINE#         241
  C:9ABAH         LINE#         242
  C:9AC7H         LINE#         244
  C:9AE0H         LINE#         245
  -------         ENDPROC       _GETOPTION
  -------         PROC          DISPLAYCURSOR
  C:B67BH         LINE#         250
  C:B67BH         LINE#         251
  C:B67BH         LINE#         252
  -------         ENDPROC       DISPLAYCURSOR
  C:A25CH         SYMBOL        L?0272
  -------         PROC          L?0271
  -------         ENDPROC       L?0271
  C:A25CH         SYMBOL        L?0272
  -------         PROC          _INGRESADATO
  X:0071H         SYMBOL        buffer
  X:0074H         SYMBOL        modo
  -------         DO            
  D:0006H         SYMBOL        i
  -------         ENDDO         
  C:A260H         LINE#         259
  C:A26EH         LINE#         260
  C:A26EH         LINE#         265
  C:A26EH         LINE#         266
  C:A280H         LINE#         267
  C:A286H         LINE#         268
  C:A286H         LINE#         269
  C:A2A1H         LINE#         270
  C:A2A3H         LINE#         272
  C:A2A3H         LINE#         273
  C:A2A8H         LINE#         274
  C:A2A8H         LINE#         275
  C:A2B9H         LINE#         276
  C:A2C3H         LINE#         277
  C:A2D2H         LINE#         279
  C:A2D7H         LINE#         283
  -------         ENDPROC       _INGRESADATO
  -------         PROC          PROG_ID_CLIENTE
  -------         DO            
  X:0046H         SYMBOL        buffer
  X:0050H         SYMBOL        dataee
  -------         ENDDO         
  C:8F00H         LINE#         300
  C:8F00H         LINE#         301
  C:8F00H         LINE#         305
  C:8F12H         LINE#         306
  C:8F2FH         LINE#         308
  C:8F46H         LINE#         310
  C:8F4FH         LINE#         311
  C:8F56H         LINE#         312
  C:8F67H         LINE#         313
  C:8F70H         LINE#         315
  C:8F82H         LINE#         316
  C:8F9FH         LINE#         317
BL51 BANKED LINKER/LOCATER V6.22.2.0                                                  12/01/2020  12:04:38  PAGE 65


  -------         ENDPROC       PROG_ID_CLIENTE
  -------         PROC          PROG_COD_PARK
  -------         DO            
  X:0046H         SYMBOL        buffer
  X:0050H         SYMBOL        dataee
  -------         ENDDO         
  C:8C11H         LINE#         322
  C:8C11H         LINE#         323
  C:8C11H         LINE#         327
  C:8C24H         LINE#         328
  C:8C41H         LINE#         330
  C:8C58H         LINE#         332
  C:8C61H         LINE#         333
  C:8C6CH         LINE#         334
  C:8C7DH         LINE#         335
  C:8C87H         LINE#         337
  C:8C9AH         LINE#         338
  C:8CB7H         LINE#         339
  -------         ENDPROC       PROG_COD_PARK
  -------         PROC          PROG_TIEMPO_GRACIA
  -------         DO            
  X:0046H         SYMBOL        buffer
  X:0050H         SYMBOL        dataee
  -------         ENDDO         
  C:8CCEH         LINE#         344
  C:8CCEH         LINE#         345
  C:8CCEH         LINE#         349
  C:8CE1H         LINE#         350
  C:8CFEH         LINE#         352
  C:8D15H         LINE#         354
  C:8D1EH         LINE#         355
  C:8D29H         LINE#         356
  C:8D3AH         LINE#         357
  C:8D44H         LINE#         359
  C:8D57H         LINE#         360
  C:8D74H         LINE#         361
  -------         ENDPROC       PROG_TIEMPO_GRACIA
  -------         PROC          PROG_SIN_COBRO
  -------         DO            
  X:0046H         SYMBOL        buffer
  X:0050H         SYMBOL        dataee
  -------         ENDDO         
  C:646EH         LINE#         367
  C:646EH         LINE#         368
  C:646EH         LINE#         374
  C:6481H         LINE#         375
  C:649EH         LINE#         376
  C:64A8H         LINE#         377
  C:64A8H         LINE#         378
  C:64BBH         LINE#         379
  C:64BDH         LINE#         380
  C:64C9H         LINE#         381
  C:64C9H         LINE#         382
  C:64DCH         LINE#         383
  C:64DEH         LINE#         385
  C:64DEH         LINE#         386
  C:64F5H         LINE#         387
BL51 BANKED LINKER/LOCATER V6.22.2.0                                                  12/01/2020  12:04:38  PAGE 66


  C:64F5H         LINE#         389
  C:64FEH         LINE#         390
  C:6509H         LINE#         391
  C:651AH         LINE#         392
  C:6524H         LINE#         394
  C:6537H         LINE#         395
  C:6554H         LINE#         396
  C:655EH         LINE#         397
  C:655EH         LINE#         398
  C:6571H         LINE#         399
  C:6573H         LINE#         400
  C:657FH         LINE#         401
  C:657FH         LINE#         402
  C:6592H         LINE#         403
  C:6594H         LINE#         405
  C:6594H         LINE#         406
  C:65ABH         LINE#         407
  C:65ABH         LINE#         409
  -------         ENDPROC       PROG_SIN_COBRO
  -------         PROC          PROG_DEBUG
  -------         DO            
  X:0046H         SYMBOL        buffer
  X:0050H         SYMBOL        dataee
  -------         ENDDO         
  C:741FH         LINE#         415
  C:741FH         LINE#         416
  C:741FH         LINE#         421
  C:7432H         LINE#         422
  C:744FH         LINE#         423
  C:7459H         LINE#         424
  C:7459H         LINE#         425
  C:746CH         LINE#         426
  C:746EH         LINE#         428
  C:746EH         LINE#         429
  C:7485H         LINE#         430
  C:7485H         LINE#         432
  C:748EH         LINE#         433
  C:7499H         LINE#         434
  C:74AAH         LINE#         435
  C:74B4H         LINE#         437
  C:74C7H         LINE#         438
  C:74E4H         LINE#         439
  C:74EEH         LINE#         440
  C:74EEH         LINE#         441
  C:7501H         LINE#         442
  C:7503H         LINE#         444
  C:7503H         LINE#         445
  C:751AH         LINE#         446
  C:751AH         LINE#         447
  -------         ENDPROC       PROG_DEBUG
  -------         PROC          PROG_USE_LPR
  -------         DO            
  X:0046H         SYMBOL        buffer
  X:0050H         SYMBOL        dataee
  -------         ENDDO         
  C:751BH         LINE#         452
  C:751BH         LINE#         453
BL51 BANKED LINKER/LOCATER V6.22.2.0                                                  12/01/2020  12:04:38  PAGE 67


  C:751BH         LINE#         458
  C:752EH         LINE#         459
  C:754BH         LINE#         460
  C:7555H         LINE#         461
  C:7555H         LINE#         462
  C:7568H         LINE#         463
  C:756AH         LINE#         465
  C:756AH         LINE#         466
  C:7581H         LINE#         467
  C:7581H         LINE#         469
  C:758AH         LINE#         470
  C:7595H         LINE#         471
  C:75A6H         LINE#         472
  C:75B0H         LINE#         474
  C:75C3H         LINE#         475
  C:75E0H         LINE#         476
  C:75EAH         LINE#         477
  C:75EAH         LINE#         478
  C:75FDH         LINE#         479
  C:75FFH         LINE#         481
  C:75FFH         LINE#         482
  C:7616H         LINE#         483
  C:7616H         LINE#         484
  -------         ENDPROC       PROG_USE_LPR
  -------         PROC          TIPO_PANTALLA
  -------         DO            
  X:0046H         SYMBOL        buffer
  X:0050H         SYMBOL        dataee
  -------         ENDDO         
  C:7617H         LINE#         491
  C:7617H         LINE#         492
  C:7617H         LINE#         497
  C:762AH         LINE#         498
  C:7647H         LINE#         499
  C:7651H         LINE#         500
  C:7651H         LINE#         501
  C:7664H         LINE#         502
  C:7666H         LINE#         504
  C:7666H         LINE#         505
  C:767DH         LINE#         506
  C:767DH         LINE#         508
  C:7686H         LINE#         509
  C:7691H         LINE#         510
  C:76A2H         LINE#         511
  C:76ACH         LINE#         513
  C:76BFH         LINE#         514
  C:76DCH         LINE#         515
  C:76E6H         LINE#         516
  C:76E6H         LINE#         517
  C:76F9H         LINE#         518
  C:76FBH         LINE#         520
  C:76FBH         LINE#         521
  C:7712H         LINE#         522
  C:7712H         LINE#         524
  -------         ENDPROC       TIPO_PANTALLA
  -------         PROC          PROG_TARJETA_AUTOMATICA_O_BOTON
  -------         DO            
BL51 BANKED LINKER/LOCATER V6.22.2.0                                                  12/01/2020  12:04:38  PAGE 68


  X:0046H         SYMBOL        buffer
  X:0050H         SYMBOL        dataee
  -------         ENDDO         
  C:8911H         LINE#         525
  C:8911H         LINE#         526
  C:8911H         LINE#         531
  C:8924H         LINE#         532
  C:8941H         LINE#         533
  C:894DH         LINE#         534
  C:894DH         LINE#         535
  C:8951H         LINE#         536
  C:8953H         LINE#         538
  C:8953H         LINE#         539
  C:895AH         LINE#         540
  C:895AH         LINE#         542
  C:8963H         LINE#         543
  C:896EH         LINE#         544
  C:897FH         LINE#         545
  C:8989H         LINE#         547
  C:899CH         LINE#         548
  C:89B9H         LINE#         549
  C:89C5H         LINE#         550
  C:89C5H         LINE#         551
  C:89C9H         LINE#         552
  C:89CBH         LINE#         554
  C:89CBH         LINE#         555
  C:89D2H         LINE#         556
  C:89D2H         LINE#         557
  -------         ENDPROC       PROG_TARJETA_AUTOMATICA_O_BOTON
  -------         PROC          PROG_ANTIPASSBACK
  -------         DO            
  X:0046H         SYMBOL        buffer
  X:0050H         SYMBOL        dataee
  -------         ENDDO         
  C:7713H         LINE#         558
  C:7713H         LINE#         559
  C:7713H         LINE#         564
  C:7726H         LINE#         565
  C:7743H         LINE#         566
  C:774DH         LINE#         567
  C:774DH         LINE#         568
  C:7760H         LINE#         569
  C:7762H         LINE#         571
  C:7762H         LINE#         572
  C:7779H         LINE#         573
  C:7779H         LINE#         575
  C:7782H         LINE#         576
  C:778DH         LINE#         577
  C:779EH         LINE#         578
  C:77A8H         LINE#         580
  C:77BBH         LINE#         581
  C:77D8H         LINE#         582
  C:77E2H         LINE#         583
  C:77E2H         LINE#         584
  C:77F5H         LINE#         585
  C:77F7H         LINE#         587
  C:77F7H         LINE#         588
BL51 BANKED LINKER/LOCATER V6.22.2.0                                                  12/01/2020  12:04:38  PAGE 69


  C:780EH         LINE#         589
  C:780EH         LINE#         590
  -------         ENDPROC       PROG_ANTIPASSBACK
  -------         PROC          PROG_PLACA
  -------         DO            
  X:0046H         SYMBOL        buffer
  X:0050H         SYMBOL        dataee
  -------         ENDDO         
  C:780FH         LINE#         591
  C:780FH         LINE#         592
  C:780FH         LINE#         597
  C:7822H         LINE#         598
  C:783FH         LINE#         599
  C:7849H         LINE#         600
  C:7849H         LINE#         601
  C:785CH         LINE#         602
  C:785EH         LINE#         604
  C:785EH         LINE#         605
  C:7875H         LINE#         606
  C:7875H         LINE#         608
  C:787EH         LINE#         609
  C:7889H         LINE#         610
  C:789AH         LINE#         611
  C:78A4H         LINE#         613
  C:78B7H         LINE#         614
  C:78D4H         LINE#         615
  C:78DEH         LINE#         616
  C:78DEH         LINE#         617
  C:78F1H         LINE#         618
  C:78F3H         LINE#         620
  C:78F3H         LINE#         621
  C:790AH         LINE#         622
  C:790AH         LINE#         623
  -------         ENDPROC       PROG_PLACA
  -------         PROC          PROG_ADDRESS_HIGH_BOARD
  -------         DO            
  X:0046H         SYMBOL        buffer
  X:0050H         SYMBOL        dataee
  -------         ENDDO         
  C:7DC2H         LINE#         624
  C:7DC2H         LINE#         625
  C:7DC2H         LINE#         630
  C:7DD5H         LINE#         631
  C:7DF2H         LINE#         632
  C:7DFCH         LINE#         633
  C:7DFCH         LINE#         634
  C:7E00H         LINE#         635
  C:7E02H         LINE#         637
  C:7E02H         LINE#         638
  C:7E19H         LINE#         639
  C:7E19H         LINE#         641
  C:7E22H         LINE#         642
  C:7E2DH         LINE#         643
  C:7E3EH         LINE#         644
  C:7E48H         LINE#         646
  C:7E5BH         LINE#         647
  C:7E78H         LINE#         648
BL51 BANKED LINKER/LOCATER V6.22.2.0                                                  12/01/2020  12:04:38  PAGE 70


  C:7E82H         LINE#         649
  C:7E82H         LINE#         650
  C:7E86H         LINE#         651
  C:7E88H         LINE#         653
  C:7E88H         LINE#         654
  C:7E9FH         LINE#         655
  C:7E9FH         LINE#         656
  -------         ENDPROC       PROG_ADDRESS_HIGH_BOARD
  -------         PROC          ADDR_HORARIOS
  -------         DO            
  X:0074H         SYMBOL        ee_addr_horario
  -------         ENDDO         
  C:B30BH         LINE#         658
  C:B30BH         LINE#         659
  C:B30BH         LINE#         662
  C:B311H         LINE#         663
  C:B315H         LINE#         664
  C:B319H         LINE#         665
  C:B31DH         LINE#         666
  C:B321H         LINE#         667
  C:B325H         LINE#         668
  C:B329H         LINE#         669
  C:B32DH         LINE#         670
  C:B331H         LINE#         671
  C:B335H         LINE#         672
  C:B338H         LINE#         673
  C:B33EH         LINE#         674
  -------         ENDPROC       ADDR_HORARIOS
  -------         PROC          _PROG_HORARIOS_ON_OFF
  X:0061H         SYMBOL        addr
  -------         DO            
  X:0063H         SYMBOL        buffer
  X:006DH         SYMBOL        dataee
  X:006FH         SYMBOL        habilitado
  -------         ENDDO         
  C:6CB9H         LINE#         675
  C:6CC3H         LINE#         676
  C:6CC3H         LINE#         679
  C:6CD2H         LINE#         680
  C:6CEFH         LINE#         681
  C:6CF9H         LINE#         682
  C:6CF9H         LINE#         683
  C:6D0CH         LINE#         684
  C:6D0EH         LINE#         686
  C:6D0EH         LINE#         687
  C:6D25H         LINE#         688
  C:6D25H         LINE#         689
  C:6D2EH         LINE#         690
  C:6D39H         LINE#         691
  C:6D4AH         LINE#         692
  C:6D59H         LINE#         694
  C:6D70H         LINE#         695
  C:6D8DH         LINE#         696
  C:6D9AH         LINE#         697
  C:6D9AH         LINE#         698
  C:6D9DH         LINE#         699
  C:6DB0H         LINE#         700
BL51 BANKED LINKER/LOCATER V6.22.2.0                                                  12/01/2020  12:04:38  PAGE 71


  C:6DB2H         LINE#         702
  C:6DB2H         LINE#         703
  C:6DB7H         LINE#         704
  C:6DCCH         LINE#         705
  C:6DCCH         LINE#         706
  C:6DD2H         LINE#         707
  -------         ENDPROC       _PROG_HORARIOS_ON_OFF
  -------         PROC          _PROG_HORARIO_DESDE_HASTA
  X:0061H         SYMBOL        addr
  -------         DO            
  X:0063H         SYMBOL        buffer
  D:0007H         SYMBOL        dataee
  -------         ENDDO         
  C:500DH         LINE#         708
  C:5015H         LINE#         709
  C:5015H         LINE#         714
  C:501EH         LINE#         715
  C:5021H         LINE#         716
  C:502AH         LINE#         717
  C:5042H         LINE#         718
  C:5055H         LINE#         719
  C:5063H         LINE#         720
  C:507BH         LINE#         721
  C:508EH         LINE#         722
  C:509CH         LINE#         723
  C:50B4H         LINE#         724
  C:50C7H         LINE#         725
  C:50D5H         LINE#         726
  C:50EDH         LINE#         727
  C:5100H         LINE#         728
  C:510EH         LINE#         732
  C:5117H         LINE#         733
  C:511AH         LINE#         735
  C:5123H         LINE#         737
  C:513BH         LINE#         738
  C:514EH         LINE#         739
  C:515CH         LINE#         740
  C:5174H         LINE#         741
  C:5187H         LINE#         742
  C:5195H         LINE#         743
  C:51ADH         LINE#         744
  C:51C0H         LINE#         745
  C:51CEH         LINE#         746
  C:51E6H         LINE#         747
  C:51F9H         LINE#         748
  -------         ENDPROC       _PROG_HORARIO_DESDE_HASTA
  -------         PROC          _VER_HORARIO_DESDE_HASTA
  X:0074H         SYMBOL        addr
  -------         DO            
  D:0007H         SYMBOL        dataee
  -------         ENDDO         
  C:6DD3H         LINE#         750
  C:6DDBH         LINE#         751
  C:6DDBH         LINE#         753
  C:6DE4H         LINE#         754
  C:6DF7H         LINE#         755
  C:6E05H         LINE#         756
BL51 BANKED LINKER/LOCATER V6.22.2.0                                                  12/01/2020  12:04:38  PAGE 72


  C:6E18H         LINE#         757
  C:6E26H         LINE#         758
  C:6E39H         LINE#         759
  C:6E47H         LINE#         760
  C:6E5AH         LINE#         761
  C:6E68H         LINE#         763
  C:6E7BH         LINE#         764
  C:6E89H         LINE#         766
  C:6E9CH         LINE#         767
  C:6EAAH         LINE#         769
  C:6EBDH         LINE#         770
  C:6ECBH         LINE#         772
  C:6EDEH         LINE#         773
  -------         ENDPROC       _VER_HORARIO_DESDE_HASTA
  -------         PROC          _PROG_HORARIO_DIAS
  X:0061H         SYMBOL        addr
  -------         DO            
  X:0063H         SYMBOL        buffer
  X:006DH         SYMBOL        dataee
  X:006EH         SYMBOL        j
  X:006FH         SYMBOL        temp
  -------         ENDDO         
  C:4670H         LINE#         775
  C:4678H         LINE#         776
  C:4678H         LINE#         780
  C:4681H         LINE#         781
  C:468AH         LINE#         782
  C:4693H         LINE#         783
  C:469EH         LINE#         786
  C:46A7H         LINE#         788
  C:46BDH         LINE#         789
  C:46BDH         LINE#         791
  C:46D0H         LINE#         792
  C:46D0H         LINE#         793
  C:46D9H         LINE#         795
  C:46EEH         LINE#         796
  C:4706H         LINE#         797
  C:4713H         LINE#         798
  C:4713H         LINE#         800
  C:4729H         LINE#         801
  C:4729H         LINE#         802
  C:4732H         LINE#         803
  C:4747H         LINE#         804
  C:475FH         LINE#         805
  C:476CH         LINE#         806
  C:476CH         LINE#         808
  C:4782H         LINE#         809
  C:4782H         LINE#         810
  C:478BH         LINE#         811
  C:47A0H         LINE#         812
  C:47B8H         LINE#         813
  C:47C5H         LINE#         814
  C:47C5H         LINE#         816
  C:47DBH         LINE#         817
  C:47DBH         LINE#         818
  C:47E4H         LINE#         819
  C:47F9H         LINE#         820
BL51 BANKED LINKER/LOCATER V6.22.2.0                                                  12/01/2020  12:04:38  PAGE 73


  C:4811H         LINE#         821
  C:481EH         LINE#         822
  C:481EH         LINE#         824
  C:4834H         LINE#         825
  C:4834H         LINE#         826
  C:483DH         LINE#         827
  C:4852H         LINE#         828
  C:486AH         LINE#         829
  C:4877H         LINE#         830
  C:4877H         LINE#         832
  C:488DH         LINE#         833
  C:488DH         LINE#         834
  C:4896H         LINE#         835
  C:48ABH         LINE#         836
  C:48C3H         LINE#         837
  C:48D0H         LINE#         838
  C:48D0H         LINE#         840
  C:48E6H         LINE#         841
  C:48E6H         LINE#         842
  C:48EFH         LINE#         843
  C:48FEH         LINE#         844
  C:4910H         LINE#         845
  C:491DH         LINE#         846
  C:491DH         LINE#         847
  C:4926H         LINE#         849
  -------         ENDPROC       _PROG_HORARIO_DIAS
  -------         PROC          _VER_HORARIO_DIAS
  X:0074H         SYMBOL        addr
  -------         DO            
  X:0076H         SYMBOL        dataee
  -------         ENDDO         
  C:6A75H         LINE#         850
  C:6A7DH         LINE#         851
  C:6A7DH         LINE#         854
  C:6A8DH         LINE#         855
  C:6A93H         LINE#         856
  C:6A93H         LINE#         857
  C:6A97H         LINE#         858
  C:6A99H         LINE#         860
  C:6A99H         LINE#         861
  C:6AA0H         LINE#         862
  C:6AA0H         LINE#         865
  C:6AB8H         LINE#         866
  C:6ABEH         LINE#         867
  C:6ABEH         LINE#         868
  C:6AC2H         LINE#         869
  C:6AC4H         LINE#         871
  C:6AC4H         LINE#         872
  C:6ACBH         LINE#         873
  C:6ACBH         LINE#         876
  C:6AE3H         LINE#         877
  C:6AE9H         LINE#         878
  C:6AE9H         LINE#         879
  C:6AEDH         LINE#         880
  C:6AEFH         LINE#         882
  C:6AEFH         LINE#         883
  C:6AF6H         LINE#         884
BL51 BANKED LINKER/LOCATER V6.22.2.0                                                  12/01/2020  12:04:38  PAGE 74


  C:6AF6H         LINE#         886
  C:6B0EH         LINE#         887
  C:6B14H         LINE#         888
  C:6B14H         LINE#         889
  C:6B18H         LINE#         890
  C:6B1AH         LINE#         892
  C:6B1AH         LINE#         893
  C:6B21H         LINE#         894
  C:6B21H         LINE#         896
  C:6B39H         LINE#         897
  C:6B3FH         LINE#         898
  C:6B3FH         LINE#         899
  C:6B43H         LINE#         900
  C:6B45H         LINE#         902
  C:6B45H         LINE#         903
  C:6B4CH         LINE#         904
  C:6B4CH         LINE#         907
  C:6B64H         LINE#         908
  C:6B6AH         LINE#         909
  C:6B6AH         LINE#         910
  C:6B6EH         LINE#         911
  C:6B70H         LINE#         913
  C:6B70H         LINE#         914
  C:6B77H         LINE#         915
  C:6B77H         LINE#         917
  C:6B89H         LINE#         918
  C:6B8FH         LINE#         919
  C:6B8FH         LINE#         920
  C:6B93H         LINE#         921
  C:6B95H         LINE#         923
  C:6B95H         LINE#         924
  C:6B9CH         LINE#         925
  C:6B9CH         LINE#         926
  -------         ENDPROC       _VER_HORARIO_DIAS
  -------         PROC          PROG_HORARIOS
  -------         DO            
  X:0046H         SYMBOL        buffer
  X:0050H         SYMBOL        ee_addr_horario
  X:005BH         SYMBOL        addr
  X:005DH         SYMBOL        temp
  X:005FH         SYMBOL        dataee
  X:0060H         SYMBOL        j
  -------         ENDDO         
  C:60A8H         LINE#         927
  C:60A8H         LINE#         928
  C:60A8H         LINE#         937
  C:60B4H         LINE#         941
  C:60BDH         LINE#         942
  C:60C8H         LINE#         944
  C:60D7H         LINE#         948
  C:60EDH         LINE#         949
  C:60F3H         LINE#         953
  C:6101H         LINE#         954
  C:6109H         LINE#         955
  C:6109H         LINE#         957
  C:6118H         LINE#         958
  C:612CH         LINE#         959
BL51 BANKED LINKER/LOCATER V6.22.2.0                                                  12/01/2020  12:04:38  PAGE 75


  C:612CH         LINE#         960
  C:6140H         LINE#         961
  C:6148H         LINE#         963
  C:6158H         LINE#         966
  C:615BH         LINE#         970
  C:6166H         LINE#         973
  C:616FH         LINE#         974
  C:617AH         LINE#         975
  C:6189H         LINE#         976
  C:619CH         LINE#         978
  C:61B4H         LINE#         979
  C:61CEH         LINE#         980
  C:61D6H         LINE#         981
  C:61D6H         LINE#         983
  C:61E4H         LINE#         984
  C:61ECH         LINE#         985
  C:61ECH         LINE#         986
  C:61ECH         LINE#         988
  -------         ENDPROC       PROG_HORARIOS
  -------         PROC          PROG_VALIDAR_TIPO_VEHICULO_MENSUAL
  -------         DO            
  X:0046H         SYMBOL        buffer
  X:0050H         SYMBOL        dataee
  -------         ENDDO         
  C:790BH         LINE#         989
  C:790BH         LINE#         990
  C:790BH         LINE#         995
  C:791EH         LINE#         996
  C:793BH         LINE#         997
  C:7945H         LINE#         998
  C:7945H         LINE#         999
  C:7958H         LINE#         1000
  C:795AH         LINE#         1002
  C:795AH         LINE#         1003
  C:7971H         LINE#         1004
  C:7971H         LINE#         1006
  C:797AH         LINE#         1007
  C:7985H         LINE#         1008
  C:7996H         LINE#         1009
  C:79A0H         LINE#         1011
  C:79B3H         LINE#         1012
  C:79D0H         LINE#         1013
  C:79DAH         LINE#         1014
  C:79DAH         LINE#         1015
  C:79EDH         LINE#         1016
  C:79EFH         LINE#         1018
  C:79EFH         LINE#         1019
  C:7A06H         LINE#         1020
  C:7A06H         LINE#         1021
  -------         ENDPROC       PROG_VALIDAR_TIPO_VEHICULO_MENSUAL
  -------         PROC          PROG_APB_MENSUAL
  -------         DO            
  X:0046H         SYMBOL        buffer
  X:0050H         SYMBOL        dataee
  -------         ENDDO         
  C:7A07H         LINE#         1022
  C:7A07H         LINE#         1023
BL51 BANKED LINKER/LOCATER V6.22.2.0                                                  12/01/2020  12:04:38  PAGE 76


  C:7A07H         LINE#         1028
  C:7A1AH         LINE#         1029
  C:7A37H         LINE#         1030
  C:7A41H         LINE#         1031
  C:7A41H         LINE#         1032
  C:7A54H         LINE#         1033
  C:7A56H         LINE#         1035
  C:7A56H         LINE#         1036
  C:7A6DH         LINE#         1037
  C:7A6DH         LINE#         1039
  C:7A76H         LINE#         1040
  C:7A81H         LINE#         1041
  C:7A92H         LINE#         1042
  C:7A9CH         LINE#         1044
  C:7AAFH         LINE#         1045
  C:7ACCH         LINE#         1046
  C:7AD6H         LINE#         1047
  C:7AD6H         LINE#         1048
  C:7AE9H         LINE#         1049
  C:7AEBH         LINE#         1051
  C:7AEBH         LINE#         1052
  C:7B02H         LINE#         1053
  C:7B02H         LINE#         1054
  -------         ENDPROC       PROG_APB_MENSUAL
  -------         PROC          PROG_FECHA_VENCIMIENTO
  -------         DO            
  X:0046H         SYMBOL        buffer
  X:0051H         SYMBOL        cmd
  X:0054H         SYMBOL        fecha
  X:005BH         SYMBOL        dataee
  -------         ENDDO         
  C:5207H         LINE#         1056
  C:5207H         LINE#         1057
  C:5207H         LINE#         1064
  C:5214H         LINE#         1065
  C:522BH         LINE#         1068
  C:5242H         LINE#         1070
  C:5242H         LINE#         1071
  C:524BH         LINE#         1072
  C:5258H         LINE#         1073
  C:526FH         LINE#         1074
  C:5281H         LINE#         1075
  C:528AH         LINE#         1080
  C:5295H         LINE#         1081
  C:52A9H         LINE#         1082
  C:52B6H         LINE#         1084
  C:52BFH         LINE#         1087
  C:52C8H         LINE#         1088
  C:52D3H         LINE#         1089
  C:52EAH         LINE#         1091
  C:52F2H         LINE#         1092
  C:52FAH         LINE#         1093
  C:52FDH         LINE#         1095
  C:530EH         LINE#         1096
  C:531FH         LINE#         1098
  C:532EH         LINE#         1099
  C:5336H         LINE#         1100
BL51 BANKED LINKER/LOCATER V6.22.2.0                                                  12/01/2020  12:04:38  PAGE 77


  C:533EH         LINE#         1101
  C:5341H         LINE#         1102
  C:5352H         LINE#         1103
  C:5363H         LINE#         1104
  C:5372H         LINE#         1105
  C:537AH         LINE#         1106
  C:5382H         LINE#         1107
  C:5385H         LINE#         1108
  C:5396H         LINE#         1109
  C:53A7H         LINE#         1110
  C:53B6H         LINE#         1111
  C:53C1H         LINE#         1113
  C:53CEH         LINE#         1115
  C:53E5H         LINE#         1116
  -------         ENDPROC       PROG_FECHA_VENCIMIENTO
  -------         PROC          VER_HORARIO
  -------         DO            
  X:0059H         SYMBOL        buffer
  X:0063H         SYMBOL        ee_addr_horario
  X:006EH         SYMBOL        conta
  X:006FH         SYMBOL        addr
  X:0071H         SYMBOL        temp
  X:0073H         SYMBOL        dataee
  -------         ENDDO         
  C:66EAH         LINE#         1119
  C:66EAH         LINE#         1120
  C:66EAH         LINE#         1129
  C:66F6H         LINE#         1130
  C:670CH         LINE#         1131
  C:670CH         LINE#         1133
  C:671CH         LINE#         1136
  C:6735H         LINE#         1137
  C:673BH         LINE#         1140
  C:6749H         LINE#         1141
  C:6758H         LINE#         1142
  C:6772H         LINE#         1143
  C:677DH         LINE#         1144
  C:677DH         LINE#         1145
  C:6786H         LINE#         1147
  C:678FH         LINE#         1148
  C:679FH         LINE#         1149
  C:67A2H         LINE#         1151
  C:67ADH         LINE#         1152
  C:67C5H         LINE#         1153
  C:67DFH         LINE#         1154
  C:67E9H         LINE#         1155
  C:67E9H         LINE#         1156
  C:67F0H         LINE#         1158
  C:67FEH         LINE#         1159
  C:6806H         LINE#         1160
  C:6808H         LINE#         1162
  C:6808H         LINE#         1163
  C:680CH         LINE#         1164
  C:680CH         LINE#         1165
  C:680EH         LINE#         1167
  C:680EH         LINE#         1168
  C:6817H         LINE#         1169
BL51 BANKED LINKER/LOCATER V6.22.2.0                                                  12/01/2020  12:04:38  PAGE 78


  C:6817H         LINE#         1171
  C:6820H         LINE#         1174
  -------         ENDPROC       VER_HORARIO
  -------         PROC          VER_PROG
  -------         DO            
  X:0046H         SYMBOL        buffer
  X:0050H         SYMBOL        dataee
  X:0052H         SYMBOL        fecha
  -------         ENDDO         
  C:3D06H         LINE#         1175
  C:3D06H         LINE#         1176
  C:3D06H         LINE#         1182
  C:3D18H         LINE#         1183
  C:3D35H         LINE#         1185
  C:3D4CH         LINE#         1187
  C:3D5FH         LINE#         1188
  C:3D7CH         LINE#         1190
  C:3D93H         LINE#         1192
  C:3DA6H         LINE#         1193
  C:3DC3H         LINE#         1194
  C:3DD1H         LINE#         1195
  C:3DD1H         LINE#         1196
  C:3DD5H         LINE#         1197
  C:3DD7H         LINE#         1199
  C:3DD7H         LINE#         1200
  C:3DDEH         LINE#         1201
  C:3DDEH         LINE#         1203
  C:3DF1H         LINE#         1204
  C:3E0EH         LINE#         1205
  C:3E1AH         LINE#         1206
  C:3E1AH         LINE#         1207
  C:3E1EH         LINE#         1208
  C:3E20H         LINE#         1210
  C:3E20H         LINE#         1211
  C:3E27H         LINE#         1212
  C:3E27H         LINE#         1214
  C:3E3AH         LINE#         1215
  C:3E57H         LINE#         1216
  C:3E63H         LINE#         1217
  C:3E63H         LINE#         1218
  C:3E67H         LINE#         1219
  C:3E69H         LINE#         1221
  C:3E69H         LINE#         1222
  C:3E70H         LINE#         1223
  C:3E70H         LINE#         1225
  C:3E83H         LINE#         1226
  C:3EA0H         LINE#         1227
  C:3EACH         LINE#         1228
  C:3EACH         LINE#         1229
  C:3EB0H         LINE#         1230
  C:3EB2H         LINE#         1232
  C:3EB2H         LINE#         1233
  C:3EB9H         LINE#         1234
  C:3EB9H         LINE#         1236
  C:3ECCH         LINE#         1237
  C:3EE9H         LINE#         1238
  C:3EF5H         LINE#         1239
BL51 BANKED LINKER/LOCATER V6.22.2.0                                                  12/01/2020  12:04:38  PAGE 79


  C:3EF5H         LINE#         1240
  C:3EF9H         LINE#         1241
  C:3EFBH         LINE#         1243
  C:3EFBH         LINE#         1244
  C:3F02H         LINE#         1245
  C:3F02H         LINE#         1247
  C:3F15H         LINE#         1248
  C:3F32H         LINE#         1249
  C:3F3EH         LINE#         1250
  C:3F3EH         LINE#         1251
  C:3F42H         LINE#         1252
  C:3F44H         LINE#         1254
  C:3F44H         LINE#         1255
  C:3F4BH         LINE#         1256
  C:3F4BH         LINE#         1259
  C:3F5EH         LINE#         1260
  C:3F7BH         LINE#         1262
  C:3F92H         LINE#         1264
  C:3F95H         LINE#         1268
  C:3FA8H         LINE#         1269
  C:3FC5H         LINE#         1270
  C:3FD1H         LINE#         1271
  C:3FD1H         LINE#         1272
  C:3FD5H         LINE#         1273
  C:3FD7H         LINE#         1275
  C:3FD7H         LINE#         1276
  C:3FDEH         LINE#         1277
  C:3FDEH         LINE#         1279
  C:3FF1H         LINE#         1280
  C:400EH         LINE#         1281
  C:401AH         LINE#         1282
  C:401AH         LINE#         1283
  C:401EH         LINE#         1284
  C:4020H         LINE#         1286
  C:4020H         LINE#         1287
  C:4027H         LINE#         1288
  C:4027H         LINE#         1290
  C:4034H         LINE#         1292
  C:404BH         LINE#         1293
  -------         ENDPROC       VER_PROG
  -------         PROC          SHOW
  C:96D5H         LINE#         1299
  C:96D5H         LINE#         1300
  C:96D5H         LINE#         1301
  C:96DEH         LINE#         1302
  C:96E7H         LINE#         1303
  C:96F0H         LINE#         1304
  C:96F9H         LINE#         1305
  C:9702H         LINE#         1306
  C:970BH         LINE#         1307
  C:9714H         LINE#         1308
  C:971DH         LINE#         1309
  C:9726H         LINE#         1310
  C:972FH         LINE#         1311
  C:9738H         LINE#         1312
  C:9741H         LINE#         1313
  C:974AH         LINE#         1314
BL51 BANKED LINKER/LOCATER V6.22.2.0                                                  12/01/2020  12:04:38  PAGE 80


  C:9753H         LINE#         1315
  C:975CH         LINE#         1316
  C:9765H         LINE#         1317
  -------         ENDPROC       SHOW
  -------         PROC          FIRST_CLAVE
  -------         DO            
  X:0046H         SYMBOL        clave
  -------         ENDDO         
  C:AC21H         LINE#         1324
  C:AC21H         LINE#         1325
  C:AC21H         LINE#         1329
  C:AC2AH         LINE#         1330
  C:AC2FH         LINE#         1331
  C:AC41H         LINE#         1332
  C:AC4EH         LINE#         1333
  C:AC54H         LINE#         1334
  C:AC57H         LINE#         1335
  C:AC5AH         LINE#         1336
  C:AC5CH         LINE#         1338
  -------         ENDPROC       FIRST_CLAVE
  -------         PROC          MENU
  -------         DO            
  X:0001H         SYMBOL        cmd
  X:0004H         SYMBOL        option1
  X:0007H         SYMBOL        option2
  X:000AH         SYMBOL        opt_buffer
  X:0032H         SYMBOL        buffer
  -------         ENDDO         
  C:4BD9H         LINE#         1342
  C:4BD9H         LINE#         1343
  C:4BD9H         LINE#         1352
  C:4BE2H         LINE#         1357
  C:4BEEH         LINE#         1358
  C:4BEEH         LINE#         1359
  C:4BF1H         LINE#         1360
  C:4BFBH         LINE#         1363
  C:4BFBH         LINE#         1365
  C:4BFBH         LINE#         1366
  C:4C04H         LINE#         1367
  C:4C11H         LINE#         1368
  C:4C16H         LINE#         1369
  C:4C2CH         LINE#         1370
  C:4C3EH         LINE#         1371
  C:4C47H         LINE#         1376
  C:4C52H         LINE#         1377
  C:4C60H         LINE#         1378
  C:4C6DH         LINE#         1380
  C:4C76H         LINE#         1384
  C:4C79H         LINE#         1385
  C:4C79H         LINE#         1386
  C:4C79H         LINE#         1387
  C:4C7CH         LINE#         1390
  C:4C87H         LINE#         1391
  C:4C95H         LINE#         1392
  C:4CA9H         LINE#         1393
  C:4CBDH         LINE#         1398
  C:4CD3H         LINE#         1399
BL51 BANKED LINKER/LOCATER V6.22.2.0                                                  12/01/2020  12:04:38  PAGE 81


  C:4CD3H         LINE#         1401
  C:4CE2H         LINE#         1402
  C:4CE4H         LINE#         1403
  C:4CF4H         LINE#         1404
  C:4CF4H         LINE#         1406
  C:4D03H         LINE#         1407
  C:4D21H         LINE#         1408
  C:4D21H         LINE#         1414
  C:4D34H         LINE#         1415
  C:4D34H         LINE#         1416
  C:4D7DH         LINE#         1417
  C:4D7DH         LINE#         1418
  C:4D7DH         LINE#         1419
  C:4D80H         LINE#         1421
  C:4D83H         LINE#         1423
  C:4D83H         LINE#         1424
  C:4D86H         LINE#         1425
  C:4D89H         LINE#         1426
  C:4D89H         LINE#         1427
  C:4D8CH         LINE#         1428
  C:4D8FH         LINE#         1429
  C:4D8FH         LINE#         1430
  C:4D92H         LINE#         1431
  C:4D95H         LINE#         1432
  C:4D95H         LINE#         1433
  C:4D98H         LINE#         1434
  C:4D9BH         LINE#         1435
  C:4D9BH         LINE#         1436
  C:4D9EH         LINE#         1437
  C:4DA1H         LINE#         1438
  C:4DA1H         LINE#         1439
  C:4DA4H         LINE#         1440
  C:4DA7H         LINE#         1441
  C:4DA7H         LINE#         1442
  C:4DAAH         LINE#         1443
  C:4DADH         LINE#         1444
  C:4DADH         LINE#         1445
  C:4DB0H         LINE#         1446
  C:4DB3H         LINE#         1447
  C:4DB3H         LINE#         1448
  C:4DB6H         LINE#         1449
  C:4DB9H         LINE#         1450
  C:4DB9H         LINE#         1451
  C:4DBCH         LINE#         1452
  C:4DBFH         LINE#         1453
  C:4DBFH         LINE#         1454
  C:4DC2H         LINE#         1455
  C:4DC5H         LINE#         1456
  C:4DC5H         LINE#         1457
  C:4DC8H         LINE#         1458
  C:4DCBH         LINE#         1459
  C:4DCBH         LINE#         1460
  C:4DCEH         LINE#         1461
  C:4DD1H         LINE#         1462
  C:4DD1H         LINE#         1463
  C:4DD4H         LINE#         1464
  C:4DD7H         LINE#         1465
BL51 BANKED LINKER/LOCATER V6.22.2.0                                                  12/01/2020  12:04:38  PAGE 82


  C:4DD7H         LINE#         1466
  C:4DDAH         LINE#         1467
  C:4DDDH         LINE#         1468
  C:4DDDH         LINE#         1470
  C:4DDDH         LINE#         1471
  C:4DDDH         LINE#         1472
  C:4DE0H         LINE#         1473
  C:4DE3H         LINE#         1476
  C:4DE3H         LINE#         1477
  C:4E01H         LINE#         1478
  C:4E04H         LINE#         1479
  C:4E04H         LINE#         1480
  C:4E04H         LINE#         1481
  C:4E04H         LINE#         1482
  -------         ENDPROC       MENU
  -------         ENDMOD        PROG

  -------         MODULE        PTO_PARALELO
  C:0000H         SYMBOL        _ICE_DUMMY_
  D:0080H         PUBLIC        P0
  D:00A0H         PUBLIC        P2
  D:00B0H         PUBLIC        P3
  B:0080H.2       PUBLIC        led_err_imp
  C:6B9DH         PUBLIC        load_and_send_id_cod
  C:976EH         PUBLIC        _recibe_port
  B:00B0H.2       PUBLIC        ready
  B:0080H.6       PUBLIC        rx_in_data
  C:B71DH         PUBLIC        Pulso_Bus
  C:9E31H         PUBLIC        _send_portERR
  B:00B0H.3       PUBLIC        busy
  C:B400H         PUBLIC        load_and_send_info_reloj
  C:906BH         PUBLIC        _send_port
  B:00B0H.4       PUBLIC        port_clk
  C:B78EH         PUBLIC        cond_ini_pto
  -------         PROC          _RECIBE_PORT
  X:0001H         SYMBOL        buffer_port
  -------         DO            
  D:0006H         SYMBOL        count
  X:0004H         SYMBOL        time_out
  X:0005H         SYMBOL        num_data
  X:0006H         SYMBOL        T_ANCHO
  X:0008H         SYMBOL        data_temp
  -------         ENDDO         
  C:976EH         LINE#         48
  C:9779H         LINE#         49
  C:9779H         LINE#         53
  C:9782H         LINE#         54
  C:9785H         LINE#         57
  C:9788H         LINE#         58
  C:9788H         LINE#         60
  C:978BH         LINE#         61
  C:9790H         LINE#         62
  C:9792H         LINE#         63
  C:9796H         LINE#         64
  C:9798H         LINE#         67
  C:979DH         LINE#         68
  C:97A6H         LINE#         69
BL51 BANKED LINKER/LOCATER V6.22.2.0                                                  12/01/2020  12:04:38  PAGE 83


  C:97A6H         LINE#         70
  C:97A9H         LINE#         71
  C:97A9H         LINE#         73
  C:97AEH         LINE#         74
  C:97B2H         LINE#         75
  C:97B2H         LINE#         76
  C:97B4H         LINE#         77
  C:97B6H         LINE#         78
  C:97B6H         LINE#         79
  C:97B6H         LINE#         81
  C:97B6H         LINE#         82
  C:97C3H         LINE#         83
  C:97C3H         LINE#         85
  C:97C6H         LINE#         86
  C:97C6H         LINE#         88
  C:97CCH         LINE#         90
  C:97CEH         LINE#         91
  C:97E2H         LINE#         92
  C:97ECH         LINE#         93
  C:97F2H         LINE#         94
  C:97F8H         LINE#         95
  C:97FAH         LINE#         96
  C:97FAH         LINE#         97
  C:97FAH         LINE#         98
  C:97FAH         LINE#         101
  C:97FCH         LINE#         102
  C:97FEH         LINE#         103
  C:97FEH         LINE#         104
  C:9801H         LINE#         106
  C:9806H         LINE#         107
  -------         ENDPROC       _RECIBE_PORT
  -------         PROC          _SEND_PORT
  X:0015H         SYMBOL        buffer_port
  X:0018H         SYMBOL        length_char
  -------         DO            
  X:0019H         SYMBOL        cont
  X:001DH         SYMBOL        timeOut
  X:001EH         SYMBOL        length
  -------         ENDDO         
  C:906BH         LINE#         114
  C:9079H         LINE#         115
  C:9079H         LINE#         120
  C:907DH         LINE#         122
  C:907FH         LINE#         123
  C:9081H         LINE#         124
  C:9083H         LINE#         125
  C:9088H         LINE#         126
  C:908AH         LINE#         127
  C:9094H         LINE#         129
  C:909DH         LINE#         130
  C:909DH         LINE#         131
  C:909FH         LINE#         132
  C:90A1H         LINE#         133
  C:90C5H         LINE#         134
  C:90D9H         LINE#         135
  C:90D9H         LINE#         136
  C:90DCH         LINE#         137
BL51 BANKED LINKER/LOCATER V6.22.2.0                                                  12/01/2020  12:04:38  PAGE 84


  C:90DEH         LINE#         138
  C:90DEH         LINE#         139
  C:90E0H         LINE#         140
  C:90E9H         LINE#         141
  C:90E9H         LINE#         145
  C:90E9H         LINE#         147
  C:90F9H         LINE#         148
  C:90FCH         LINE#         149
  C:9106H         LINE#         151
  C:910CH         LINE#         152
  C:910FH         LINE#         154
  C:910FH         LINE#         156
  C:9112H         LINE#         157
  C:9114H         LINE#         158
  C:9116H         LINE#         159
  C:9118H         LINE#         160
  -------         ENDPROC       _SEND_PORT
  -------         PROC          PULSO_BUS
  C:B71DH         LINE#         435
  C:B71DH         LINE#         436
  C:B71DH         LINE#         437
  C:B71FH         LINE#         438
  C:B726H         LINE#         439
  C:B728H         LINE#         440
  -------         ENDPROC       PULSO_BUS
  -------         PROC          _SEND_PORTERR
  X:002AH         SYMBOL        cod_err
  -------         DO            
  X:002BH         SYMBOL        timeOut
  X:002CH         SYMBOL        cont
  -------         ENDDO         
  C:9E31H         LINE#         445
  C:9E37H         LINE#         446
  C:9E37H         LINE#         450
  C:9E39H         LINE#         451
  C:9E3BH         LINE#         452
  C:9E3EH         LINE#         453
  C:9E46H         LINE#         455
  C:9E48H         LINE#         456
  C:9E4AH         LINE#         457
  C:9E53H         LINE#         458
  C:9E53H         LINE#         459
  C:9E75H         LINE#         460
  C:9E89H         LINE#         461
  C:9E89H         LINE#         462
  C:9E8EH         LINE#         463
  C:9E8EH         LINE#         464
  C:9E90H         LINE#         465
  C:9E99H         LINE#         466
  C:9E99H         LINE#         467
  C:9E9FH         LINE#         468
  C:9EA2H         LINE#         469
  C:9EA2H         LINE#         470
  C:9EA4H         LINE#         471
  C:9EA6H         LINE#         472
  C:9EA8H         LINE#         474
  C:9EABH         LINE#         476
BL51 BANKED LINKER/LOCATER V6.22.2.0                                                  12/01/2020  12:04:38  PAGE 85


  C:9EB2H         LINE#         477
  -------         ENDPROC       _SEND_PORTERR
  -------         PROC          COND_INI_PTO
  C:B78EH         LINE#         483
  C:B78EH         LINE#         484
  C:B78EH         LINE#         486
  C:B790H         LINE#         487
  C:B792H         LINE#         488
  C:B794H         LINE#         489
  C:B797H         LINE#         490
  -------         ENDPROC       COND_INI_PTO
  -------         PROC          LOAD_AND_SEND_INFO_RELOJ
  -------         DO            
  X:0002H         SYMBOL        buffer_info
  -------         ENDDO         
  C:B400H         LINE#         495
  C:B400H         LINE#         496
  C:B400H         LINE#         499
  C:B406H         LINE#         501
  C:B40AH         LINE#         503
  C:B413H         LINE#         504
  C:B41DH         LINE#         505
  C:B421H         LINE#         509
  -------         ENDPROC       LOAD_AND_SEND_INFO_RELOJ
  -------         PROC          LOAD_AND_SEND_ID_COD
  -------         DO            
  X:0002H         SYMBOL        buffer_info
  X:000DH         SYMBOL        buf
  X:0011H         SYMBOL        i
  X:0012H         SYMBOL        k
  X:0013H         SYMBOL        ID_CLIENTE
  X:0014H         SYMBOL        COD_PARK
  -------         ENDDO         
  C:6B9DH         LINE#         516
  C:6B9DH         LINE#         517
  C:6B9DH         LINE#         523
  C:6BA2H         LINE#         524
  C:6BAEH         LINE#         525
  C:6BBCH         LINE#         526
  C:6BC2H         LINE#         527
  C:6BC6H         LINE#         528
  C:6BE5H         LINE#         529
  C:6BEBH         LINE#         530
  C:6BEBH         LINE#         531
  C:6BFCH         LINE#         532
  C:6BFCH         LINE#         533
  C:6C0BH         LINE#         534
  C:6C11H         LINE#         535
  C:6C13H         LINE#         536
  C:6C2BH         LINE#         538
  C:6C33H         LINE#         541
  C:6C52H         LINE#         543
  C:6C57H         LINE#         544
  C:6C57H         LINE#         545
  C:6C68H         LINE#         546
  C:6C68H         LINE#         547
  C:6C77H         LINE#         548
BL51 BANKED LINKER/LOCATER V6.22.2.0                                                  12/01/2020  12:04:38  PAGE 86


  C:6C7DH         LINE#         549
  C:6C97H         LINE#         550
  C:6C9FH         LINE#         553
  C:6CB0H         LINE#         554
  -------         ENDPROC       LOAD_AND_SEND_ID_COD
  -------         ENDMOD        PTO_PARALELO

  -------         MODULE        TIBBO
  C:0000H         SYMBOL        _ICE_DUMMY_
  C:AD83H         PUBLIC        _Debug_HexDec
  C:ABE3H         PUBLIC        _Debug_txt_Tibbo
  D:0080H         PUBLIC        P0
  D:0090H         PUBLIC        P1
  B:0090H.0       PUBLIC        txd2
  B:00A8H.7       PUBLIC        EA
  C:AB90H         PUBLIC        _tx_aux
  B:0080H.0       PUBLIC        rx_ip
  C:B6CAH         PUBLIC        Debug_Dividir_texto
  C:B7F2H         PUBLIC        cond_ini_tibbo
  C:B692H         PUBLIC        time_mbit
  C:9EB9H         PUBLIC        rx_Data
  C:B611H         PUBLIC        time_bit
  C:B183H         PUBLIC        _Debug_pto_paralelo
  C:B33FH         PUBLIC        _Debug_monitor
  C:A54AH         PUBLIC        _DebugBufferMF
  C:AC69H         PUBLIC        _Debug_chr_Tibbo
  C:B60BH         SYMBOL        L?0066
  -------         PROC          L?0065
  -------         ENDPROC       L?0065
  C:B60BH         SYMBOL        L?0066
  -------         PROC          TIME_BIT
  -------         DO            
  D:0007H         SYMBOL        j
  -------         ENDDO         
  C:B611H         LINE#         19
  C:B611H         LINE#         20
  C:B611H         LINE#         23
  C:B61DH         LINE#         24
  C:B61DH         LINE#         25
  C:B61EH         LINE#         26
  C:B61FH         LINE#         27
  C:B620H         LINE#         28
  C:B621H         LINE#         29
  C:B622H         LINE#         30
  C:B623H         LINE#         31
  C:B624H         LINE#         32
  C:B625H         LINE#         33
  C:B626H         LINE#         38
  C:B629H         LINE#         39
  -------         ENDPROC       TIME_BIT
  -------         PROC          TIME_MBIT
  -------         DO            
  D:0007H         SYMBOL        j
  -------         ENDDO         
  C:B692H         LINE#         42
  C:B692H         LINE#         43
  C:B692H         LINE#         45
BL51 BANKED LINKER/LOCATER V6.22.2.0                                                  12/01/2020  12:04:38  PAGE 87


  C:B69EH         LINE#         46
  C:B69EH         LINE#         47
  C:B69FH         LINE#         48
  C:B6A0H         LINE#         49
  C:B6A1H         LINE#         50
  C:B6A2H         LINE#         51
  C:B6A3H         LINE#         52
  C:B6A4H         LINE#         53
  C:B6A5H         LINE#         54
  C:B6A8H         LINE#         56
  -------         ENDPROC       TIME_MBIT
  -------         PROC          L?0070
  -------         ENDPROC       L?0070
  -------         PROC          _TX_AUX
  D:0006H         SYMBOL        caracter
  -------         DO            
  D:0004H         SYMBOL        j
  D:0005H         SYMBOL        temporal
  D:0006H         SYMBOL        bitTX
  -------         ENDDO         
  C:AB90H         LINE#         61
  C:AB92H         LINE#         62
  C:AB92H         LINE#         65
  C:AB94H         LINE#         66
  C:AB96H         LINE#         67
  C:AB99H         LINE#         68
  C:AB9AH         LINE#         69
  C:AB9BH         LINE#         70
  C:AB9DH         LINE#         71
  C:ABA1H         LINE#         72
  C:ABA3H         LINE#         73
  C:ABA3H         LINE#         74
  C:ABA5H         LINE#         75
  C:ABA7H         LINE#         77
  C:ABA7H         LINE#         78
  C:ABA9H         LINE#         79
  C:ABA9H         LINE#         80
  C:ABACH         LINE#         81
  C:ABB8H         LINE#         82
  C:ABB8H         LINE#         83
  C:ABBCH         LINE#         84
  C:ABBFH         LINE#         85
  C:ABC1H         LINE#         86
  C:ABC1H         LINE#         87
  C:ABC3H         LINE#         88
  C:ABC5H         LINE#         90
  C:ABC5H         LINE#         91
  C:ABC7H         LINE#         92
  C:ABC7H         LINE#         93
  C:ABCAH         LINE#         94
  C:ABCDH         LINE#         95
  C:ABCFH         LINE#         96
  C:ABD2H         LINE#         97
  C:ABD5H         LINE#         99
  C:ABD7H         LINE#         100
  -------         ENDPROC       _TX_AUX
  -------         PROC          _DEBUG_HEXDEC
BL51 BANKED LINKER/LOCATER V6.22.2.0                                                  12/01/2020  12:04:38  PAGE 88


  D:0007H         SYMBOL        xfc
  -------         DO            
  X:0018H         SYMBOL        valor
  D:0006H         SYMBOL        centena
  D:0003H         SYMBOL        decena
  D:0002H         SYMBOL        unidad
  -------         ENDDO         
  C:AD83H         LINE#         103
  C:AD83H         LINE#         104
  C:AD83H         LINE#         107
  C:AD8AH         LINE#         109
  C:AD8BH         LINE#         110
  C:AD8CH         LINE#         111
  C:AD8DH         LINE#         112
  C:AD95H         LINE#         113
  C:AD95H         LINE#         114
  C:AD9FH         LINE#         115
  C:AD9FH         LINE#         116
  C:ADA3H         LINE#         117
  C:ADA4H         LINE#         118
  C:ADA6H         LINE#         119
  C:ADB0H         LINE#         120
  C:ADB0H         LINE#         121
  C:ADB4H         LINE#         122
  C:ADB5H         LINE#         123
  C:ADB7H         LINE#         124
  C:ADB9H         LINE#         125
  C:ADBDH         LINE#         126
  C:ADC1H         LINE#         127
  C:ADC8H         LINE#         129
  C:ADC8H         LINE#         130
  -------         ENDPROC       _DEBUG_HEXDEC
  -------         PROC          _DEBUG_CHR_TIBBO
  D:0003H         SYMBOL        Dat
  -------         DO            
  D:0007H         SYMBOL        temp
  -------         ENDDO         
  C:AC69H         LINE#         135
  C:AC6BH         LINE#         136
  C:AC6BH         LINE#         138
  C:AC73H         LINE#         139
  C:AC73H         LINE#         140
  C:AC7AH         LINE#         141
  C:AC8DH         LINE#         143
  C:AC90H         LINE#         145
  C:AC94H         LINE#         146
  C:ACA7H         LINE#         147
  C:ACAAH         LINE#         148
  C:ACAFH         LINE#         150
  C:ACAFH         LINE#         151
  -------         ENDPROC       _DEBUG_CHR_TIBBO
  -------         PROC          _DEBUGBUFFERMF
  X:0027H         SYMBOL        str
  X:002AH         SYMBOL        num_char
  X:002BH         SYMBOL        io
  -------         DO            
  X:002CH         SYMBOL        j
BL51 BANKED LINKER/LOCATER V6.22.2.0                                                  12/01/2020  12:04:38  PAGE 89


  -------         ENDDO         
  C:A54AH         LINE#         158
  C:A558H         LINE#         159
  C:A558H         LINE#         163
  C:A560H         LINE#         164
  C:A560H         LINE#         165
  C:A56FH         LINE#         166
  C:A56FH         LINE#         167
  C:A573H         LINE#         168
  C:A57CH         LINE#         169
  C:A58EH         LINE#         170
  C:A58EH         LINE#         171
  C:A5A0H         LINE#         172
  C:A5AAH         LINE#         173
  C:A5B2H         LINE#         174
  C:A5B7H         LINE#         175
  C:A5BCH         LINE#         176
  C:A5BCH         LINE#         178
  -------         ENDPROC       _DEBUGBUFFERMF
  C:ABDDH         SYMBOL        L?0068
  -------         PROC          L?0067
  -------         ENDPROC       L?0067
  C:ABDDH         SYMBOL        L?0068
  -------         PROC          _DEBUG_TXT_TIBBO
  X:0037H         SYMBOL        str
  -------         DO            
  X:003AH         SYMBOL        i
  -------         ENDDO         
  C:ABE3H         LINE#         183
  C:ABEEH         LINE#         184
  C:ABEEH         LINE#         186
  C:ABF1H         LINE#         188
  C:ABF9H         LINE#         189
  C:ABF9H         LINE#         190
  C:AC15H         LINE#         191
  C:AC15H         LINE#         192
  C:AC18H         LINE#         193
  C:AC20H         LINE#         195
  C:AC20H         LINE#         196
  -------         ENDPROC       _DEBUG_TXT_TIBBO
  -------         PROC          L?0069
  -------         ENDPROC       L?0069
  -------         PROC          DEBUG_DIVIDIR_TEXTO
  C:B6CAH         LINE#         198
  C:B6CAH         LINE#         199
  C:B6CAH         LINE#         200
  -------         ENDPROC       DEBUG_DIVIDIR_TEXTO
  -------         PROC          RX_DATA
  -------         DO            
  D:0006H         SYMBOL        temporal
  -------         ENDDO         
  C:9EB9H         LINE#         206
  C:9EB9H         LINE#         207
  C:9EB9H         LINE#         210
  C:9EBBH         LINE#         211
  C:9EBEH         LINE#         213
  C:9EC1H         LINE#         215
BL51 BANKED LINKER/LOCATER V6.22.2.0                                                  12/01/2020  12:04:38  PAGE 90


  C:9ECDH         LINE#         216
  C:9ECDH         LINE#         218
  C:9ED0H         LINE#         220
  C:9EDCH         LINE#         221
  C:9EDCH         LINE#         223
  C:9EDFH         LINE#         225
  C:9EEBH         LINE#         226
  C:9EEBH         LINE#         228
  C:9EEEH         LINE#         230
  C:9EFAH         LINE#         231
  C:9EFAH         LINE#         233
  C:9EFDH         LINE#         235
  C:9F09H         LINE#         236
  C:9F09H         LINE#         238
  C:9F0CH         LINE#         240
  C:9F18H         LINE#         241
  C:9F18H         LINE#         243
  C:9F1BH         LINE#         245
  C:9F27H         LINE#         246
  C:9F27H         LINE#         248
  C:9F2AH         LINE#         249
  C:9F38H         LINE#         251
  C:9F3BH         LINE#         252
  C:9F3EH         LINE#         253
  C:9F3EH         LINE#         254
  C:9F3EH         LINE#         257
  C:9F40H         LINE#         259
  -------         ENDPROC       RX_DATA
  -------         PROC          COND_INI_TIBBO
  C:B7F2H         LINE#         277
  C:B7F2H         LINE#         278
  C:B7F2H         LINE#         280
  C:B7F4H         LINE#         281
  C:B7F6H         LINE#         282
  -------         ENDPROC       COND_INI_TIBBO
  -------         PROC          _DEBUG_PTO_PARALELO
  X:0001H         SYMBOL        buffer
  X:0004H         SYMBOL        Length_trama
  C:B183H         LINE#         283
  C:B186H         LINE#         284
  C:B186H         LINE#         285
  C:B189H         LINE#         286
  C:B192H         LINE#         287
  C:B1A9H         LINE#         288
  C:B1ACH         LINE#         289
  C:B1B5H         LINE#         290
  C:B1B8H         LINE#         291
  C:B1BBH         LINE#         292
  -------         ENDPROC       _DEBUG_PTO_PARALELO
  -------         PROC          _DEBUG_MONITOR
  X:0016H         SYMBOL        buffer
  X:0019H         SYMBOL        Length_trama
  C:B33FH         LINE#         295
  C:B342H         LINE#         296
  C:B342H         LINE#         297
  C:B345H         LINE#         298
  C:B34EH         LINE#         299
BL51 BANKED LINKER/LOCATER V6.22.2.0                                                  12/01/2020  12:04:38  PAGE 91


  C:B35CH         LINE#         300
  C:B35FH         LINE#         301
  C:B368H         LINE#         302
  C:B36BH         LINE#         303
  C:B36EH         LINE#         304
  -------         ENDPROC       _DEBUG_MONITOR
  -------         ENDMOD        TIBBO

  -------         MODULE        UART
  C:0000H         SYMBOL        _ICE_DUMMY_
  C:B4F5H         PUBLIC        com_getchar
  C:B72FH         PUBLIC        com_rbuflen
  C:B741H         PUBLIC        com_tbuflen
  B:00A8H.4       PUBLIC        ES
  B:0098H.0       PUBLIC        RI
  C:B1BEH         PUBLIC        _com_putchar
  B:0098H.1       PUBLIC        TI
  B:0021H.4       PUBLIC        aSk
  B:00B8H.4       PUBLIC        PS
  D:000DH         SYMBOL        r_in
  D:000EH         SYMBOL        r_out
  D:000FH         SYMBOL        t_in
  D:0010H         SYMBOL        t_out
  D:0099H         PUBLIC        SBUF
  D:0087H         PUBLIC        PCON
  D:0089H         PUBLIC        TMOD
  B:0021H.5       SYMBOL        ti_restart
  B:00A8H.3       PUBLIC        ET1
  D:008DH         PUBLIC        TH1
  B:0098H.7       PUBLIC        SM0
  B:0098H.6       PUBLIC        SM1
  D:008BH         PUBLIC        TL1
  B:0098H.5       PUBLIC        SM2
  B:0088H.6       PUBLIC        TR1
  C:B42CH         PUBLIC        com_initialize
  X:0263H         PUBLIC        cnt__ask_off
  B:0098H.4       PUBLIC        REN
  C:B47EH         PUBLIC        com_baudrate
  C:55DBH         SYMBOL        com_isr
  -------         PROC          COM_ISR
  -------         DO            
  X:0261H         SYMBOL        cDatoRx
  D:0006H         SYMBOL        k
  D:0007H         SYMBOL        bcc
  X:0262H         SYMBOL        num_datos
  -------         ENDDO         
  C:55DBH         LINE#         96
  C:55F0H         LINE#         104
  C:55F6H         LINE#         105
  C:55F6H         LINE#         107
  C:55F8H         LINE#         108
  C:55FEH         LINE#         109
  C:560EH         LINE#         110
  C:560EH         LINE#         111
  C:5619H         LINE#         112
  C:561BH         LINE#         114
  C:561BH         LINE#         115
BL51 BANKED LINKER/LOCATER V6.22.2.0                                                  12/01/2020  12:04:38  PAGE 92


  C:562BH         LINE#         116
  C:562BH         LINE#         117
  C:5630H         LINE#         118
  C:5630H         LINE#         119
  C:5647H         LINE#         120
  C:5647H         LINE#         124
  C:5647H         LINE#         127
  C:5656H         LINE#         128
  C:5656H         LINE#         129
  C:5658H         LINE#         130
  C:5660H         LINE#         131
  C:5665H         LINE#         133
  C:5665H         LINE#         134
  C:5668H         LINE#         138
  C:5668H         LINE#         139
  C:5668H         LINE#         140
  C:5680H         LINE#         141
  C:568FH         LINE#         142
  C:568FH         LINE#         143
  C:568FH         LINE#         144
  C:5691H         LINE#         146
  C:5691H         LINE#         147
  C:5693H         LINE#         148
  C:5693H         LINE#         149
  C:5693H         LINE#         150
  C:5696H         LINE#         154
  C:5696H         LINE#         156
  C:569FH         LINE#         157
  C:569FH         LINE#         159
  C:56A5H         LINE#         160
  C:56B8H         LINE#         161
  C:56B8H         LINE#         162
  C:56BBH         LINE#         164
  C:56BBH         LINE#         165
  C:56D0H         LINE#         166
  C:56D6H         LINE#         167
  C:56D6H         LINE#         169
  C:56D9H         LINE#         173
  C:56D9H         LINE#         175
  C:56F1H         LINE#         176
  C:56F7H         LINE#         177
  C:56FAH         LINE#         178
  C:56FAH         LINE#         179
  C:5712H         LINE#         180
  C:5712H         LINE#         181
  C:5713H         LINE#         182
  C:5720H         LINE#         183
  C:5720H         LINE#         184
  C:572DH         LINE#         185
  C:5730H         LINE#         186
  C:573EH         LINE#         187
  C:573EH         LINE#         188
  C:5740H         LINE#         189
  C:5745H         LINE#         190
  C:5747H         LINE#         191
  C:574BH         LINE#         193
  C:574DH         LINE#         195
BL51 BANKED LINKER/LOCATER V6.22.2.0                                                  12/01/2020  12:04:38  PAGE 93


  C:574DH         LINE#         196
  C:574DH         LINE#         197
  C:574DH         LINE#         198
  C:574FH         LINE#         200
  C:574FH         LINE#         201
  C:574FH         LINE#         202
  C:574FH         LINE#         204
  C:5751H         LINE#         206
  C:5751H         LINE#         207
  C:5757H         LINE#         208
  C:5757H         LINE#         210
  C:5759H         LINE#         215
  C:5759H         LINE#         216
  C:575EH         LINE#         217
  C:575EH         LINE#         218
  C:575EH         LINE#         219
  C:575EH         LINE#         224
  C:5761H         LINE#         225
  C:5761H         LINE#         226
  C:5763H         LINE#         228
  C:5769H         LINE#         229
  C:5769H         LINE#         230
  C:5773H         LINE#         232
  C:5775H         LINE#         233
  C:5777H         LINE#         234
  C:5779H         LINE#         236
  C:5779H         LINE#         237
  C:577BH         LINE#         238
  C:577BH         LINE#         239
  C:577BH         LINE#         241
  -------         ENDPROC       COM_ISR
  -------         PROC          COM_INITIALIZE
  C:B42CH         LINE#         257
  C:B433H         LINE#         258
  C:B433H         LINE#         262
  C:B436H         LINE#         267
  C:B439H         LINE#         268
  C:B43BH         LINE#         270
  C:B43DH         LINE#         271
  C:B43FH         LINE#         276
  C:B443H         LINE#         277
  C:B445H         LINE#         278
  C:B447H         LINE#         280
  C:B449H         LINE#         281
  C:B44BH         LINE#         282
  C:B44DH         LINE#         284
  C:B44FH         LINE#         285
  C:B451H         LINE#         286
  -------         ENDPROC       COM_INITIALIZE
  -------         PROC          COM_BAUDRATE
  C:B47EH         LINE#         292
  C:B485H         LINE#         294
  C:B485H         LINE#         298
  C:B487H         LINE#         299
  C:B48AH         LINE#         300
  C:B48CH         LINE#         305
  C:B48EH         LINE#         306
BL51 BANKED LINKER/LOCATER V6.22.2.0                                                  12/01/2020  12:04:38  PAGE 94


  C:B490H         LINE#         308
  C:B493H         LINE#         310
  C:B496H         LINE#         311
  C:B499H         LINE#         313
  C:B49CH         LINE#         314
  C:B49FH         LINE#         315
  C:B4A1H         LINE#         316
  -------         ENDPROC       COM_BAUDRATE
  -------         PROC          _COM_PUTCHAR
  X:00AAH         SYMBOL        c
  C:B1BEH         LINE#         322
  C:B1CAH         LINE#         323
  C:B1CAH         LINE#         327
  C:B1D7H         LINE#         328
  C:B1DBH         LINE#         334
  C:B1E9H         LINE#         336
  C:B1EBH         LINE#         338
  C:B1EEH         LINE#         339
  C:B1EEH         LINE#         340
  C:B1F0H         LINE#         341
  C:B1F2H         LINE#         342
  C:B1F2H         LINE#         344
  C:B1F4H         LINE#         345
  -------         ENDPROC       _COM_PUTCHAR
  -------         PROC          COM_GETCHAR
  C:B4F5H         LINE#         351
  C:B4FCH         LINE#         352
  C:B4FCH         LINE#         353
  C:B502H         LINE#         354
  C:B508H         LINE#         356
  C:B516H         LINE#         357
  -------         ENDPROC       COM_GETCHAR
  -------         PROC          COM_RBUFLEN
  C:B72FH         LINE#         363
  C:B736H         LINE#         364
  C:B736H         LINE#         365
  C:B73CH         LINE#         366
  -------         ENDPROC       COM_RBUFLEN
  -------         PROC          COM_TBUFLEN
  C:B741H         LINE#         372
  C:B748H         LINE#         373
  C:B748H         LINE#         374
  C:B74EH         LINE#         375
  -------         ENDPROC       COM_TBUFLEN
  -------         ENDMOD        UART

  -------         MODULE        LINTECH
  C:0000H         SYMBOL        _ICE_DUMMY_
  C:9468H         PUBLIC        _Inicializa
  C:884EH         PUBLIC        _RD_MF
  C:9275H         PUBLIC        Dwload_EEprom
  C:9930H         PUBLIC        _Card_Insercion
  C:7BF4H         PUBLIC        _Mov_Card
  C:731FH         PUBLIC        _WR_MF
  C:9C8FH         PUBLIC        LoadVerify_EEprom
  C:9F41H         PUBLIC        Unique_Identifier_UID
  C:A358H         PUBLIC        Power_off
BL51 BANKED LINKER/LOCATER V6.22.2.0                                                  12/01/2020  12:04:38  PAGE 95


  C:9FC9H         PUBLIC        _Check_Status
  C:91CBH         PUBLIC        Clave_Seguridad_S2
  C:A2D8H         PUBLIC        Aut_Card_check_Status
  -------         PROC          _INICIALIZA
  X:0002H         SYMBOL        TipoMovimiento
  -------         DO            
  D:0003H         SYMBOL        j
  X:0003H         SYMBOL        bcc
  X:0004H         SYMBOL        g_scArrTxComSoft
  -------         ENDDO         
  C:9468H         LINE#         68
  C:946DH         LINE#         69
  C:946DH         LINE#         72
  C:9470H         LINE#         73
  C:9486H         LINE#         74
  C:9486H         LINE#         76
  C:948FH         LINE#         78
  C:9495H         LINE#         79
  C:9498H         LINE#         80
  C:949AH         LINE#         81
  C:949EH         LINE#         82
  C:94A2H         LINE#         83
  C:94A6H         LINE#         84
  C:94AEH         LINE#         85
  C:94B2H         LINE#         86
  C:94BEH         LINE#         87
  C:94BEH         LINE#         88
  C:94D2H         LINE#         89
  C:94D5H         LINE#         90
  C:94DDH         LINE#         91
  C:94DFH         LINE#         92
  C:94E4H         LINE#         93
  C:94F3H         LINE#         94
  C:94FEH         LINE#         95
  C:9504H         LINE#         96
  C:9504H         LINE#         97
  -------         ENDPROC       _INICIALIZA
  -------         PROC          _CHECK_STATUS
  X:0002H         SYMBOL        Detalle
  -------         DO            
  D:0006H         SYMBOL        j
  D:0007H         SYMBOL        bcc
  X:0003H         SYMBOL        g_scArrTxComSoft
  -------         ENDDO         
  C:9FC9H         LINE#         109
  C:9FCEH         LINE#         110
  C:9FCEH         LINE#         114
  C:9FD4H         LINE#         115
  C:9FD4H         LINE#         116
  C:9FD8H         LINE#         117
  C:9FDAH         LINE#         119
  C:9FDAH         LINE#         120
  C:9FE1H         LINE#         121
  C:9FE1H         LINE#         122
  C:9FE3H         LINE#         124
  C:9FE9H         LINE#         125
  C:9FECH         LINE#         126
BL51 BANKED LINKER/LOCATER V6.22.2.0                                                  12/01/2020  12:04:38  PAGE 96


  C:9FEEH         LINE#         127
  C:9FF2H         LINE#         128
  C:9FF6H         LINE#         129
  C:9FFAH         LINE#         130
  C:A002H         LINE#         131
  C:A006H         LINE#         132
  C:A012H         LINE#         133
  C:A012H         LINE#         134
  C:A01FH         LINE#         135
  C:A022H         LINE#         136
  C:A027H         LINE#         137
  C:A029H         LINE#         138
  C:A02EH         LINE#         139
  C:A03DH         LINE#         140
  C:A048H         LINE#         141
  C:A04EH         LINE#         142
  -------         ENDPROC       _CHECK_STATUS
  -------         PROC          _CARD_INSERCION
  D:0007H         SYMBOL        Tipo
  -------         DO            
  D:0006H         SYMBOL        j
  D:0007H         SYMBOL        bcc
  X:0002H         SYMBOL        g_scArrTxComSoft
  -------         ENDDO         
  C:9930H         LINE#         152
  C:9930H         LINE#         153
  C:9930H         LINE#         156
  C:993DH         LINE#         157
  C:993DH         LINE#         158
  C:9944H         LINE#         159
  C:994AH         LINE#         160
  C:994CH         LINE#         162
  C:994CH         LINE#         164
  C:9953H         LINE#         165
  C:9959H         LINE#         167
  C:9959H         LINE#         169
  C:995BH         LINE#         171
  C:9961H         LINE#         172
  C:9964H         LINE#         173
  C:9966H         LINE#         174
  C:996AH         LINE#         175
  C:996EH         LINE#         176
  C:9972H         LINE#         178
  C:9978H         LINE#         179
  C:9984H         LINE#         180
  C:9984H         LINE#         181
  C:9991H         LINE#         182
  C:9994H         LINE#         184
  C:9999H         LINE#         186
  C:999BH         LINE#         187
  C:99A0H         LINE#         188
  C:99AFH         LINE#         189
  C:99BAH         LINE#         190
  C:99C0H         LINE#         191
  -------         ENDPROC       _CARD_INSERCION
  -------         PROC          _MOV_CARD
  X:0002H         SYMBOL        Posicion
BL51 BANKED LINKER/LOCATER V6.22.2.0                                                  12/01/2020  12:04:38  PAGE 97


  -------         DO            
  D:0003H         SYMBOL        j
  X:0003H         SYMBOL        bcc
  X:0004H         SYMBOL        g_scArrTxComSoft
  -------         ENDDO         
  C:7BF4H         LINE#         202
  C:7BF9H         LINE#         203
  C:7BF9H         LINE#         206
  C:7BFCH         LINE#         208
  C:7C1CH         LINE#         209
  C:7C1CH         LINE#         210
  C:7C23H         LINE#         211
  C:7C23H         LINE#         212
  C:7C29H         LINE#         213
  C:7C2BH         LINE#         214
  C:7C32H         LINE#         215
  C:7C32H         LINE#         216
  C:7C38H         LINE#         217
  C:7C3AH         LINE#         218
  C:7C41H         LINE#         219
  C:7C41H         LINE#         220
  C:7C47H         LINE#         221
  C:7C49H         LINE#         222
  C:7C50H         LINE#         223
  C:7C50H         LINE#         224
  C:7C56H         LINE#         225
  C:7C58H         LINE#         226
  C:7C5FH         LINE#         227
  C:7C5FH         LINE#         228
  C:7C68H         LINE#         229
  C:7C68H         LINE#         231
  C:7C6EH         LINE#         232
  C:7C71H         LINE#         233
  C:7C73H         LINE#         234
  C:7C77H         LINE#         235
  C:7C7BH         LINE#         236
  C:7C7FH         LINE#         237
  C:7C87H         LINE#         238
  C:7C8BH         LINE#         239
  C:7C97H         LINE#         240
  C:7C97H         LINE#         241
  C:7CABH         LINE#         242
  C:7CAEH         LINE#         243
  C:7CB6H         LINE#         244
  C:7CB8H         LINE#         245
  C:7CBDH         LINE#         246
  C:7CCCH         LINE#         247
  C:7CD7H         LINE#         248
  C:7CDDH         LINE#         249
  C:7CDDH         LINE#         251
  -------         ENDPROC       _MOV_CARD
  -------         PROC          AUT_CARD_CHECK_STATUS
  -------         DO            
  D:0003H         SYMBOL        j
  X:0002H         SYMBOL        bcc
  X:0003H         SYMBOL        g_scArrTxComSoft
  -------         ENDDO         
BL51 BANKED LINKER/LOCATER V6.22.2.0                                                  12/01/2020  12:04:38  PAGE 98


  C:A2D8H         LINE#         257
  C:A2D8H         LINE#         258
  C:A2D8H         LINE#         261
  C:A2DDH         LINE#         263
  C:A2E6H         LINE#         265
  C:A2ECH         LINE#         266
  C:A2EFH         LINE#         267
  C:A2F1H         LINE#         268
  C:A2F5H         LINE#         269
  C:A2F9H         LINE#         270
  C:A2FDH         LINE#         271
  C:A301H         LINE#         272
  C:A305H         LINE#         273
  C:A311H         LINE#         274
  C:A311H         LINE#         275
  C:A325H         LINE#         276
  C:A328H         LINE#         277
  C:A330H         LINE#         278
  C:A332H         LINE#         279
  C:A337H         LINE#         280
  C:A346H         LINE#         281
  C:A351H         LINE#         282
  C:A357H         LINE#         283
  -------         ENDPROC       AUT_CARD_CHECK_STATUS
  -------         PROC          CLAVE_SEGURIDAD_S2
  -------         DO            
  D:0003H         SYMBOL        j
  X:0002H         SYMBOL        bcc
  X:0003H         SYMBOL        g_scArrTxComSoft
  -------         ENDDO         
  C:91CBH         LINE#         286
  C:91CBH         LINE#         287
  C:91CBH         LINE#         290
  C:91D0H         LINE#         291
  C:91D9H         LINE#         294
  C:91DFH         LINE#         295
  C:91E2H         LINE#         296
  C:91E4H         LINE#         297
  C:91E8H         LINE#         298
  C:91ECH         LINE#         299
  C:91F0H         LINE#         300
  C:91F4H         LINE#         301
  C:91F7H         LINE#         302
  C:91FBH         LINE#         303
  C:91FEH         LINE#         304
  C:9202H         LINE#         306
  C:9206H         LINE#         308
  C:920AH         LINE#         309
  C:920EH         LINE#         310
  C:9212H         LINE#         311
  C:9216H         LINE#         312
  C:921AH         LINE#         313
  C:921EH         LINE#         316
  C:9222H         LINE#         318
  C:922EH         LINE#         319
  C:922EH         LINE#         320
  C:9242H         LINE#         321
BL51 BANKED LINKER/LOCATER V6.22.2.0                                                  12/01/2020  12:04:38  PAGE 99


  C:9245H         LINE#         322
  C:924DH         LINE#         323
  C:924FH         LINE#         324
  C:9254H         LINE#         325
  C:9263H         LINE#         326
  C:926EH         LINE#         327
  C:9274H         LINE#         330
  -------         ENDPROC       CLAVE_SEGURIDAD_S2
  -------         PROC          DWLOAD_EEPROM
  -------         DO            
  D:0003H         SYMBOL        j
  X:0002H         SYMBOL        bcc
  X:0003H         SYMBOL        g_scArrTxComSoft
  -------         ENDDO         
  C:9275H         LINE#         335
  C:9275H         LINE#         336
  C:9275H         LINE#         339
  C:927AH         LINE#         340
  C:9283H         LINE#         342
  C:9289H         LINE#         343
  C:928CH         LINE#         344
  C:928EH         LINE#         345
  C:9292H         LINE#         346
  C:9296H         LINE#         347
  C:929AH         LINE#         348
  C:929EH         LINE#         349
  C:92A1H         LINE#         350
  C:92A5H         LINE#         351
  C:92A8H         LINE#         352
  C:92ABH         LINE#         353
  C:92AFH         LINE#         354
  C:92B3H         LINE#         355
  C:92B7H         LINE#         356
  C:92BBH         LINE#         357
  C:92BFH         LINE#         358
  C:92C3H         LINE#         359
  C:92C7H         LINE#         360
  C:92CBH         LINE#         362
  C:92D7H         LINE#         363
  C:92D7H         LINE#         364
  C:92EBH         LINE#         365
  C:92EEH         LINE#         366
  C:92F6H         LINE#         367
  C:92F8H         LINE#         368
  C:92FDH         LINE#         369
  C:930CH         LINE#         370
  C:9317H         LINE#         371
  C:931DH         LINE#         372
  -------         ENDPROC       DWLOAD_EEPROM
  -------         PROC          LOADVERIFY_EEPROM
  -------         DO            
  D:0003H         SYMBOL        j
  X:0002H         SYMBOL        bcc
  X:0003H         SYMBOL        g_scArrTxComSoft
  -------         ENDDO         
  C:9C8FH         LINE#         378
  C:9C8FH         LINE#         379
BL51 BANKED LINKER/LOCATER V6.22.2.0                                                  12/01/2020  12:04:38  PAGE 100


  C:9C8FH         LINE#         382
  C:9C94H         LINE#         383
  C:9C9DH         LINE#         386
  C:9CA3H         LINE#         387
  C:9CA6H         LINE#         388
  C:9CA8H         LINE#         389
  C:9CACH         LINE#         390
  C:9CB0H         LINE#         391
  C:9CB4H         LINE#         392
  C:9CB8H         LINE#         393
  C:9CBBH         LINE#         394
  C:9CBFH         LINE#         395
  C:9CC2H         LINE#         396
  C:9CC5H         LINE#         397
  C:9CC9H         LINE#         402
  C:9CD5H         LINE#         403
  C:9CD5H         LINE#         404
  C:9CE9H         LINE#         405
  C:9CECH         LINE#         406
  C:9CF4H         LINE#         407
  C:9CF6H         LINE#         408
  C:9CFBH         LINE#         409
  C:9D0AH         LINE#         410
  C:9D15H         LINE#         411
  C:9D1BH         LINE#         413
  -------         ENDPROC       LOADVERIFY_EEPROM
  -------         PROC          _RD_MF
  X:0002H         SYMBOL        Sector
  X:0003H         SYMBOL        Bloque
  -------         DO            
  D:0003H         SYMBOL        j
  X:0004H         SYMBOL        bcc
  X:0005H         SYMBOL        g_scArrTxComSoft
  -------         ENDDO         
  C:884EH         LINE#         419
  C:8856H         LINE#         420
  C:8856H         LINE#         424
  C:8859H         LINE#         426
  C:8862H         LINE#         427
  C:886AH         LINE#         429
  C:8873H         LINE#         430
  C:887BH         LINE#         431
  C:8884H         LINE#         434
  C:888AH         LINE#         435
  C:888DH         LINE#         436
  C:888FH         LINE#         437
  C:8893H         LINE#         438
  C:8897H         LINE#         439
  C:889BH         LINE#         440
  C:889FH         LINE#         441
  C:88A2H         LINE#         442
  C:88A6H         LINE#         443
  C:88AEH         LINE#         444
  C:88B6H         LINE#         445
  C:88BAH         LINE#         446
  C:88BEH         LINE#         448
  C:88CAH         LINE#         449
BL51 BANKED LINKER/LOCATER V6.22.2.0                                                  12/01/2020  12:04:38  PAGE 101


  C:88CAH         LINE#         450
  C:88DEH         LINE#         451
  C:88E1H         LINE#         452
  C:88E9H         LINE#         455
  C:88EBH         LINE#         456
  C:88F0H         LINE#         457
  C:88FFH         LINE#         458
  C:890AH         LINE#         459
  C:8910H         LINE#         461
  -------         ENDPROC       _RD_MF
  -------         PROC          _WR_MF
  X:0002H         SYMBOL        Sector
  X:0003H         SYMBOL        Bloque
  X:0004H         SYMBOL        buffer
  -------         DO            
  D:0005H         SYMBOL        j
  X:0007H         SYMBOL        bcc
  X:0008H         SYMBOL        g_scArrTxComSoft
  -------         ENDDO         
  C:731FH         LINE#         468
  C:7330H         LINE#         470
  C:7330H         LINE#         473
  C:7333H         LINE#         475
  C:733CH         LINE#         476
  C:7344H         LINE#         478
  C:734DH         LINE#         479
  C:7355H         LINE#         480
  C:735EH         LINE#         482
  C:7364H         LINE#         483
  C:7367H         LINE#         484
  C:7369H         LINE#         485
  C:736DH         LINE#         487
  C:7371H         LINE#         488
  C:7375H         LINE#         489
  C:7379H         LINE#         490
  C:737CH         LINE#         491
  C:7380H         LINE#         492
  C:7388H         LINE#         493
  C:7390H         LINE#         494
  C:7394H         LINE#         496
  C:73A0H         LINE#         497
  C:73A0H         LINE#         498
  C:73C0H         LINE#         499
  C:73C3H         LINE#         501
  C:73C9H         LINE#         503
  C:73D5H         LINE#         504
  C:73D5H         LINE#         505
  C:73ECH         LINE#         506
  C:73EFH         LINE#         507
  C:73F7H         LINE#         510
  C:73F9H         LINE#         511
  C:73FEH         LINE#         512
  C:740DH         LINE#         513
  C:7418H         LINE#         514
  C:741EH         LINE#         516
  -------         ENDPROC       _WR_MF
  -------         PROC          UNIQUE_IDENTIFIER_UID
BL51 BANKED LINKER/LOCATER V6.22.2.0                                                  12/01/2020  12:04:38  PAGE 102


  -------         DO            
  D:0003H         SYMBOL        j
  X:0002H         SYMBOL        bcc
  X:0003H         SYMBOL        g_scArrTxComSoft
  -------         ENDDO         
  C:9F41H         LINE#         521
  C:9F41H         LINE#         522
  C:9F41H         LINE#         525
  C:9F46H         LINE#         527
  C:9F4FH         LINE#         529
  C:9F55H         LINE#         530
  C:9F58H         LINE#         531
  C:9F5AH         LINE#         532
  C:9F5EH         LINE#         533
  C:9F62H         LINE#         534
  C:9F66H         LINE#         535
  C:9F6AH         LINE#         536
  C:9F6EH         LINE#         537
  C:9F72H         LINE#         538
  C:9F76H         LINE#         539
  C:9F82H         LINE#         540
  C:9F82H         LINE#         541
  C:9F96H         LINE#         542
  C:9F99H         LINE#         543
  C:9FA1H         LINE#         544
  C:9FA3H         LINE#         545
  C:9FA8H         LINE#         546
  C:9FB7H         LINE#         547
  C:9FC2H         LINE#         548
  C:9FC8H         LINE#         549
  -------         ENDPROC       UNIQUE_IDENTIFIER_UID
  -------         PROC          POWER_OFF
  -------         DO            
  D:0003H         SYMBOL        j
  X:0002H         SYMBOL        bcc
  X:0003H         SYMBOL        g_scArrTxComSoft
  -------         ENDDO         
  C:A358H         LINE#         550
  C:A358H         LINE#         551
  C:A358H         LINE#         554
  C:A35DH         LINE#         556
  C:A366H         LINE#         558
  C:A36CH         LINE#         559
  C:A36FH         LINE#         560
  C:A371H         LINE#         561
  C:A375H         LINE#         562
  C:A379H         LINE#         563
  C:A37DH         LINE#         564
  C:A381H         LINE#         565
  C:A385H         LINE#         566
  C:A391H         LINE#         567
  C:A391H         LINE#         568
  C:A3A5H         LINE#         569
  C:A3A8H         LINE#         570
  C:A3B0H         LINE#         571
  C:A3B2H         LINE#         572
  C:A3B7H         LINE#         573
BL51 BANKED LINKER/LOCATER V6.22.2.0                                                  12/01/2020  12:04:38  PAGE 103


  C:A3C6H         LINE#         574
  C:A3D1H         LINE#         575
  C:A3D7H         LINE#         578
  -------         ENDPROC       POWER_OFF
  -------         ENDMOD        LINTECH

  -------         MODULE        VERIFICADOR
  C:0000H         SYMBOL        _ICE_DUMMY_
  D:0080H         PUBLIC        P0
  C:B51BH         PUBLIC        Analiza_Presencia_Mensual
  C:AA07H         PUBLIC        Ingreso_Vehiculo
  D:0090H         PUBLIC        P1
  C:B4A6H         PUBLIC        _Armar_Trama_Tarjeta_Sector1_Bloque0
  D:00B0H         PUBLIC        P3
  C:5ADCH         PUBLIC        _Valida_Tipo_Tarjeta
  C:B0EBH         PUBLIC        _Load_Secuencia_Expedidor
  C:61EDH         PUBLIC        _Armar_Trama_Tarjeta_Sector1_Bloque2
  C:578EH         PUBLIC        _Armar_Trama_Pto_Paralelo_Expedidor
  C:878AH         PUBLIC        _Tarjeta_Mensual
  C:B567H         PUBLIC        Analiza_Presencia_rotacion
  C:A69DH         PUBLIC        _Disparo_Lock_Entrada_Vehiculo
  C:B3A2H         PUBLIC        Pregunta_Placa
  C:9807H         PUBLIC        _Valida_Vehiculo_Card_Mensual
  C:A8FAH         PUBLIC        _Armar_Trama_Placa
  C:8468H         PUBLIC        _rta_cmd_transporte
  C:B7A1H         PUBLIC        Captura_Expulsa
  C:5F54H         PUBLIC        _Armar_Trama_Monitor
  C:65ACH         PUBLIC        Secuencia_inicio_expedidor
  C:7F7BH         PUBLIC        _Analiza_Uid_Card
  B:0080H.0       PUBLIC        rx_ip
  C:721CH         PUBLIC        _Bloque_Horario
  B:0090H.7       PUBLIC        lock
  C:93C4H         PUBLIC        _Armar_Trama_Tarjeta_Sector1_Bloque1_Camcel
  C:95A1H         PUBLIC        _Responde_Lectura_Tarjeta_Sector1_Bloque0
  C:8B53H         PUBLIC        error_rx_pto
  C:53FCH         PUBLIC        _Responde_Lectura_Tarjeta_Sector1_Bloque1
  C:6821H         PUBLIC        _Responde_Lectura_Tarjeta_Sector1_Bloque2
  C:9505H         PUBLIC        _Respuesta_Placa_Cancel
  B:0090H.1       PUBLIC        DataIn
  C:A04FH         PUBLIC        _Send_Pto_Paralelo
  C:B017H         PUBLIC        Trama_Validacion_P_N
  B:0022H.0       PUBLIC        MenSual
  C:81FAH         PUBLIC        _Armar_Trama_Pto_Paralelo_Expedidor_Mensual
  B:0080H.3       PUBLIC        Rele_Atasco
  C:7001H         PUBLIC        _Horarios
  C:911FH         PUBLIC        _Hora_Maxima
  C:33F1H         PUBLIC        _SecuenciaExpedidorMF
  C:ADC9H         PUBLIC        _Pregunta_Lpr
  C:8FB6H         PUBLIC        _Wait_Placa
  C:A457H         PUBLIC        Responde_Estado_Sensores_Transporte
  C:9AE1H         PUBLIC        Entrega_Card_Captura
  C:A89DH         PUBLIC        _Respuesta_Segunda_clave
  X:0140H         SYMBOL        Estado
  C:B2A1H         PUBLIC        _Responde_Write_Tarjeta_Sector1_Bloque0
  C:B26BH         PUBLIC        _Responde_Write_Tarjeta_Sector1_Bloque1
  C:ACB0H         PUBLIC        _Responde_Write_Tarjeta_Sector2_Bloque0
  C:9C00H         PUBLIC        _Responde_Write_Tarjeta_Sector1_Bloque2
BL51 BANKED LINKER/LOCATER V6.22.2.0                                                  12/01/2020  12:04:38  PAGE 104


  C:A5BDH         PUBLIC        _En_Horario
  C:A4D3H         PUBLIC        Responde_Tipo_Tarjeta
  C:B371H         PUBLIC        _Tarjeta_Rotacion
  -------         PROC          CAPTURA_EXPULSA
  -------         DO            
  D:0007H         SYMBOL        Estado_expedidor
  -------         ENDDO         
  C:B7A1H         LINE#         532
  C:B7A1H         LINE#         533
  C:B7A1H         LINE#         537
  C:B7A4H         LINE#         538
  C:B7A4H         LINE#         539
  C:B7A6H         LINE#         540
  C:B7A7H         LINE#         542
  C:B7A7H         LINE#         544
  C:B7A9H         LINE#         545
  C:B7A9H         LINE#         548
  C:B7A9H         LINE#         549
  -------         ENDPROC       CAPTURA_EXPULSA
  -------         PROC          TRAMA_VALIDACION_P_N
  -------         DO            
  D:0007H         SYMBOL        Trama_Validacion_P_N
  -------         ENDDO         
  C:B017H         LINE#         560
  C:B017H         LINE#         561
  C:B017H         LINE#         562
  C:B019H         LINE#         564
  C:B02FH         LINE#         565
  C:B02FH         LINE#         566
  C:B032H         LINE#         567
  C:B032H         LINE#         568
  C:B034H         LINE#         571
  C:B03CH         LINE#         572
  C:B03CH         LINE#         574
  C:B03EH         LINE#         576
  C:B03FH         LINE#         577
  C:B043H         LINE#         578
  C:B043H         LINE#         580
  C:B045H         LINE#         582
  C:B046H         LINE#         584
  C:B046H         LINE#         585
  C:B04FH         LINE#         586
  C:B051H         LINE#         588
  C:B051H         LINE#         589
  C:B052H         LINE#         591
  C:B052H         LINE#         593
  C:B054H         LINE#         595
  C:B054H         LINE#         597
  C:B054H         LINE#         599
  C:B054H         LINE#         600
  -------         ENDPROC       TRAMA_VALIDACION_P_N
  -------         PROC          ERROR_RX_PTO
  -------         DO            
  X:00B7H         SYMBOL        cnt_espera_ask_on
  X:0007H         SYMBOL        error_rx_pto
  -------         ENDDO         
  C:8B53H         LINE#         624
BL51 BANKED LINKER/LOCATER V6.22.2.0                                                  12/01/2020  12:04:38  PAGE 105


  C:8B53H         LINE#         625
  C:8B53H         LINE#         628
  C:8B59H         LINE#         632
  C:8B62H         LINE#         633
  C:8B6AH         LINE#         634
  C:8B73H         LINE#         635
  C:8B7BH         LINE#         636
  C:8B84H         LINE#         637
  C:8B87H         LINE#         639
  C:8B87H         LINE#         640
  C:8B8DH         LINE#         641
  C:8B97H         LINE#         642
  C:8B97H         LINE#         643
  C:8BA0H         LINE#         644
  C:8BA2H         LINE#         645
  C:8BA9H         LINE#         646
  C:8BAEH         LINE#         647
  C:8BB4H         LINE#         648
  C:8BB9H         LINE#         649
  C:8BBBH         LINE#         650
  C:8BC2H         LINE#         651
  C:8BC8H         LINE#         652
  C:8BC8H         LINE#         654
  C:8BC8H         LINE#         655
  C:8BCDH         LINE#         656
  C:8BCDH         LINE#         657
  C:8BCDH         LINE#         658
  C:8BCFH         LINE#         660
  C:8BCFH         LINE#         661
  C:8BDDH         LINE#         662
  C:8BF0H         LINE#         663
  C:8BF0H         LINE#         664
  C:8BF1H         LINE#         666
  C:8BF7H         LINE#         667
  C:8BFBH         LINE#         668
  C:8BFDH         LINE#         669
  C:8BFDH         LINE#         670
  C:8BFFH         LINE#         672
  C:8BFFH         LINE#         673
  C:8C00H         LINE#         674
  C:8C05H         LINE#         675
  C:8C0BH         LINE#         676
  C:8C0BH         LINE#         677
  C:8C0BH         LINE#         678
  C:8C10H         LINE#         679
  -------         ENDPROC       ERROR_RX_PTO
  -------         PROC          _RTA_CMD_TRANSPORTE
  X:0002H         SYMBOL        secuencia_Expedidor
  -------         DO            
  X:0005H         SYMBOL        temp
  X:0006H         SYMBOL        EstadoComSeqMF
  -------         ENDDO         
  C:8468H         LINE#         695
  C:8473H         LINE#         696
  C:8473H         LINE#         702
  C:8480H         LINE#         703
  C:8480H         LINE#         704
BL51 BANKED LINKER/LOCATER V6.22.2.0                                                  12/01/2020  12:04:38  PAGE 106


  C:8488H         LINE#         705
  C:8488H         LINE#         706
  C:8496H         LINE#         707
  C:8499H         LINE#         708
  C:849FH         LINE#         709
  C:849FH         LINE#         710
  C:84A8H         LINE#         711
  C:84BCH         LINE#         712
  C:84CDH         LINE#         714
  C:84CFH         LINE#         716
  C:84CFH         LINE#         719
  C:84E7H         LINE#         720
  C:84E7H         LINE#         721
  C:84F2H         LINE#         722
  C:84F4H         LINE#         724
  C:84F4H         LINE#         725
  C:8502H         LINE#         726
  C:8502H         LINE#         727
  C:8502H         LINE#         728
  C:8504H         LINE#         730
  C:8504H         LINE#         732
  C:8518H         LINE#         733
  C:852DH         LINE#         734
  C:852DH         LINE#         735
  C:8532H         LINE#         736
  -------         ENDPROC       _RTA_CMD_TRANSPORTE
  -------         PROC          ANALIZA_PRESENCIA_MENSUAL
  -------         DO            
  X:0002H         SYMBOL        Estado_expedidor
  -------         ENDDO         
  C:B51BH         LINE#         740
  C:B51BH         LINE#         741
  C:B51BH         LINE#         743
  C:B521H         LINE#         744
  C:B521H         LINE#         745
  C:B523H         LINE#         746
  C:B529H         LINE#         747
  C:B52BH         LINE#         749
  C:B52BH         LINE#         751
  C:B530H         LINE#         752
  C:B535H         LINE#         753
  C:B53BH         LINE#         755
  C:B53BH         LINE#         756
  C:B540H         LINE#         757
  -------         ENDPROC       ANALIZA_PRESENCIA_MENSUAL
  -------         PROC          ANALIZA_PRESENCIA_ROTACION
  -------         DO            
  X:0002H         SYMBOL        Estado_expedidor
  -------         ENDDO         
  C:B567H         LINE#         758
  C:B567H         LINE#         759
  C:B567H         LINE#         761
  C:B56DH         LINE#         762
  C:B56DH         LINE#         764
  C:B573H         LINE#         765
  C:B575H         LINE#         767
  C:B575H         LINE#         769
BL51 BANKED LINKER/LOCATER V6.22.2.0                                                  12/01/2020  12:04:38  PAGE 107


  C:B57AH         LINE#         770
  C:B57FH         LINE#         771
  C:B584H         LINE#         773
  C:B584H         LINE#         774
  C:B589H         LINE#         775
  -------         ENDPROC       ANALIZA_PRESENCIA_ROTACION
  -------         PROC          _ANALIZA_UID_CARD
  X:0002H         SYMBOL        Atributos_Expedidor
  -------         DO            
  X:0005H         SYMBOL        Estado_expedidor
  D:0007H         SYMBOL        temp
  X:0006H         SYMBOL        buffer_UID
  -------         ENDDO         
  C:7F7BH         LINE#         779
  C:7F86H         LINE#         780
  C:7F86H         LINE#         784
  C:7F96H         LINE#         785
  C:7F96H         LINE#         787
  C:7FA2H         LINE#         788
  C:7FA2H         LINE#         789
  C:7FBAH         LINE#         791
  C:7FBDH         LINE#         793
  C:7FC6H         LINE#         794
  C:7FD7H         LINE#         797
  C:7FE0H         LINE#         798
  C:7FE8H         LINE#         799
  C:7FF0H         LINE#         800
  C:7FF8H         LINE#         801
  C:8000H         LINE#         802
  C:8009H         LINE#         804
  C:8020H         LINE#         805
  C:802AH         LINE#         806
  C:8034H         LINE#         807
  C:803EH         LINE#         808
  C:8044H         LINE#         809
  C:8046H         LINE#         811
  C:8046H         LINE#         812
  C:804CH         LINE#         813
  C:804CH         LINE#         814
  C:8051H         LINE#         815
  -------         ENDPROC       _ANALIZA_UID_CARD
  -------         PROC          INGRESO_VEHICULO
  -------         DO            
  D:0007H         SYMBOL        CardAutomatic
  X:00B9H         SYMBOL        pulseboton
  -------         ENDDO         
  C:AA07H         LINE#         819
  C:AA07H         LINE#         820
  C:AA07H         LINE#         824
  C:AA0DH         LINE#         825
  C:AA0DH         LINE#         826
  C:AA16H         LINE#         828
  C:AA1BH         LINE#         829
  C:AA1BH         LINE#         830
  C:AA24H         LINE#         832
  C:AA24H         LINE#         833
  C:AA26H         LINE#         835
BL51 BANKED LINKER/LOCATER V6.22.2.0                                                  12/01/2020  12:04:38  PAGE 108


  C:AA26H         LINE#         837
  C:AA2CH         LINE#         838
  C:AA31H         LINE#         839
  C:AA33H         LINE#         841
  C:AA33H         LINE#         842
  C:AA39H         LINE#         845
  C:AA39H         LINE#         846
  C:AA3CH         LINE#         847
  C:AA3FH         LINE#         848
  C:AA3FH         LINE#         849
  C:AA41H         LINE#         850
  C:AA46H         LINE#         851
  C:AA4CH         LINE#         852
  C:AA4EH         LINE#         872
  C:AA4EH         LINE#         874
  C:AA53H         LINE#         875
  C:AA53H         LINE#         876
  C:AA58H         LINE#         877
  -------         ENDPROC       INGRESO_VEHICULO
  -------         PROC          RESPONDE_ESTADO_SENSORES_TRANSPORTE
  -------         DO            
  X:0002H         SYMBOL        Estado_expedidor
  -------         ENDDO         
  C:A457H         LINE#         884
  C:A457H         LINE#         885
  C:A457H         LINE#         888
  C:A460H         LINE#         890
  C:A468H         LINE#         891
  C:A468H         LINE#         893
  C:A473H         LINE#         894
  C:A473H         LINE#         895
  C:A477H         LINE#         896
  C:A477H         LINE#         897
  C:A480H         LINE#         898
  C:A485H         LINE#         900
  C:A485H         LINE#         901
  C:A487H         LINE#         903
  C:A487H         LINE#         905
  C:A48FH         LINE#         907
  C:A48FH         LINE#         908
  C:A491H         LINE#         910
  C:A491H         LINE#         912
  C:A49AH         LINE#         914
  C:A49FH         LINE#         917
  C:A49FH         LINE#         918
  C:A49FH         LINE#         919
  C:A4A1H         LINE#         920
  C:A4A8H         LINE#         921
  C:A4A8H         LINE#         923
  C:A4AEH         LINE#         925
  C:A4AEH         LINE#         926
  C:A4B0H         LINE#         927
  C:A4B7H         LINE#         929
  C:A4B7H         LINE#         930
  C:A4C0H         LINE#         931
  C:A4C6H         LINE#         932
  C:A4C8H         LINE#         934
BL51 BANKED LINKER/LOCATER V6.22.2.0                                                  12/01/2020  12:04:38  PAGE 109


  C:A4C8H         LINE#         935
  C:A4CDH         LINE#         936
  C:A4CDH         LINE#         937
  C:A4D2H         LINE#         938
  -------         ENDPROC       RESPONDE_ESTADO_SENSORES_TRANSPORTE
  -------         PROC          RESPONDE_TIPO_TARJETA
  -------         DO            
  X:0002H         SYMBOL        Estado_expedidor
  -------         ENDDO         
  C:A4D3H         LINE#         954
  C:A4D3H         LINE#         955
  C:A4D3H         LINE#         958
  C:A4DCH         LINE#         960
  C:A4E4H         LINE#         961
  C:A4E4H         LINE#         962
  C:A4EFH         LINE#         963
  C:A4EFH         LINE#         964
  C:A4F8H         LINE#         965
  C:A4FEH         LINE#         966
  C:A4FEH         LINE#         967
  C:A501H         LINE#         968
  C:A503H         LINE#         970
  C:A503H         LINE#         971
  C:A506H         LINE#         972
  C:A506H         LINE#         973
  C:A508H         LINE#         975
  C:A508H         LINE#         976
  C:A50FH         LINE#         977
  C:A50FH         LINE#         979
  C:A515H         LINE#         981
  C:A515H         LINE#         982
  C:A515H         LINE#         984
  C:A515H         LINE#         986
  C:A517H         LINE#         988
  C:A517H         LINE#         989
  C:A517H         LINE#         990
  C:A517H         LINE#         991
  C:A517H         LINE#         992
  C:A517H         LINE#         993
  C:A519H         LINE#         995
  C:A519H         LINE#         996
  C:A520H         LINE#         997
  C:A520H         LINE#         1000
  C:A529H         LINE#         1002
  C:A52EH         LINE#         1003
  C:A533H         LINE#         1005
  C:A53BH         LINE#         1008
  C:A53DH         LINE#         1010
  C:A53DH         LINE#         1011
  C:A53FH         LINE#         1012
  C:A544H         LINE#         1013
  C:A544H         LINE#         1014
  C:A544H         LINE#         1016
  C:A549H         LINE#         1017
  -------         ENDPROC       RESPONDE_TIPO_TARJETA
  -------         PROC          _RESPONDE_LECTURA_TARJETA_SECTOR1_BLOQUE1
  X:0002H         SYMBOL        Atributos_Expedidor
BL51 BANKED LINKER/LOCATER V6.22.2.0                                                  12/01/2020  12:04:38  PAGE 110


  -------         DO            
  D:0007H         SYMBOL        temp
  X:0005H         SYMBOL        Estado_expedidor
  X:0006H         SYMBOL        buffer_S1_B1
  X:0017H         SYMBOL        ID_CLIENTE
  D:0007H         SYMBOL        COD_PARK
  X:00BAH         SYMBOL        falla
  -------         ENDDO         
  C:53FCH         LINE#         1029
  C:5407H         LINE#         1030
  C:5407H         LINE#         1037
  C:5410H         LINE#         1041
  C:5420H         LINE#         1042
  C:5420H         LINE#         1044
  C:542CH         LINE#         1045
  C:542CH         LINE#         1046
  C:5444H         LINE#         1048
  C:5447H         LINE#         1051
  C:5450H         LINE#         1052
  C:5461H         LINE#         1053
  C:546EH         LINE#         1054
  C:5477H         LINE#         1057
  C:5496H         LINE#         1058
  C:5496H         LINE#         1060
  C:549FH         LINE#         1061
  C:54A7H         LINE#         1062
  C:54B0H         LINE#         1064
  C:54B9H         LINE#         1065
  C:54C1H         LINE#         1066
  C:54CAH         LINE#         1068
  C:54D3H         LINE#         1069
  C:54DBH         LINE#         1070
  C:54E4H         LINE#         1072
  C:54EDH         LINE#         1073
  C:54F5H         LINE#         1074
  C:54FEH         LINE#         1076
  C:5507H         LINE#         1077
  C:550FH         LINE#         1078
  C:5518H         LINE#         1080
  C:552FH         LINE#         1082
  C:5539H         LINE#         1083
  C:5543H         LINE#         1084
  C:554DH         LINE#         1086
  C:5552H         LINE#         1087
  C:5565H         LINE#         1088
  C:556AH         LINE#         1089
  C:5570H         LINE#         1091
  C:5572H         LINE#         1093
  C:5572H         LINE#         1094
  C:5577H         LINE#         1095
  C:5580H         LINE#         1096
  C:5585H         LINE#         1097
  C:5587H         LINE#         1098
  C:5587H         LINE#         1099
  C:5587H         LINE#         1100
  C:5589H         LINE#         1102
  C:5589H         LINE#         1104
BL51 BANKED LINKER/LOCATER V6.22.2.0                                                  12/01/2020  12:04:38  PAGE 111


  C:5591H         LINE#         1105
  C:5591H         LINE#         1106
  C:5597H         LINE#         1107
  C:5597H         LINE#         1108
  C:55A4H         LINE#         1110
  C:55A4H         LINE#         1111
  C:55ADH         LINE#         1112
  C:55B3H         LINE#         1114
  C:55B5H         LINE#         1116
  C:55B5H         LINE#         1117
  C:55BAH         LINE#         1118
  C:55C3H         LINE#         1119
  C:55C8H         LINE#         1120
  C:55CDH         LINE#         1121
  C:55D5H         LINE#         1122
  C:55D5H         LINE#         1123
  C:55D5H         LINE#         1125
  C:55DAH         LINE#         1126
  -------         ENDPROC       _RESPONDE_LECTURA_TARJETA_SECTOR1_BLOQUE1
  -------         PROC          _RESPONDE_LECTURA_TARJETA_SECTOR1_BLOQUE2
  X:0002H         SYMBOL        Atributos_Expedidor
  -------         DO            
  D:0007H         SYMBOL        temp
  X:0005H         SYMBOL        Estado_expedidor
  X:0006H         SYMBOL        buffer_S1_B2
  -------         ENDDO         
  C:6821H         LINE#         1131
  C:682CH         LINE#         1132
  C:682CH         LINE#         1138
  C:6835H         LINE#         1142
  C:6845H         LINE#         1143
  C:6845H         LINE#         1145
  C:6851H         LINE#         1146
  C:6851H         LINE#         1147
  C:6869H         LINE#         1148
  C:686CH         LINE#         1149
  C:6875H         LINE#         1150
  C:6886H         LINE#         1154
  C:688FH         LINE#         1155
  C:689CH         LINE#         1156
  C:68B8H         LINE#         1157
  C:68C1H         LINE#         1159
  C:68CAH         LINE#         1161
  C:68E6H         LINE#         1162
  C:68F0H         LINE#         1163
  C:68F9H         LINE#         1166
  C:6902H         LINE#         1167
  C:690AH         LINE#         1168
  C:6913H         LINE#         1172
  C:692AH         LINE#         1175
  C:6936H         LINE#         1176
  C:693CH         LINE#         1179
  C:693EH         LINE#         1181
  C:693EH         LINE#         1182
  C:6946H         LINE#         1183
  C:6946H         LINE#         1184
  C:694BH         LINE#         1185
BL51 BANKED LINKER/LOCATER V6.22.2.0                                                  12/01/2020  12:04:38  PAGE 112


  -------         ENDPROC       _RESPONDE_LECTURA_TARJETA_SECTOR1_BLOQUE2
  -------         PROC          _RESPONDE_LECTURA_TARJETA_SECTOR1_BLOQUE0
  X:0002H         SYMBOL        Nombre_Mensual
  -------         DO            
  D:0007H         SYMBOL        temp
  X:0005H         SYMBOL        Estado_expedidor
  -------         ENDDO         
  C:95A1H         LINE#         1187
  C:95ACH         LINE#         1188
  C:95ACH         LINE#         1194
  C:95B5H         LINE#         1198
  C:95C2H         LINE#         1199
  C:95C2H         LINE#         1201
  C:95CEH         LINE#         1202
  C:95CEH         LINE#         1203
  C:95EEH         LINE#         1204
  C:95F1H         LINE#         1205
  C:9605H         LINE#         1206
  C:960EH         LINE#         1207
  C:961CH         LINE#         1208
  C:9625H         LINE#         1209
  C:962BH         LINE#         1212
  C:962DH         LINE#         1214
  C:962DH         LINE#         1215
  C:9635H         LINE#         1216
  C:9635H         LINE#         1217
  C:963AH         LINE#         1218
  -------         ENDPROC       _RESPONDE_LECTURA_TARJETA_SECTOR1_BLOQUE0
  -------         PROC          _RESPONDE_WRITE_TARJETA_SECTOR1_BLOQUE1
  X:0002H         SYMBOL        Buffer_Write_MF
  -------         DO            
  D:0007H         SYMBOL        Estado_expedidor
  -------         ENDDO         
  C:B26BH         LINE#         1219
  C:B276H         LINE#         1220
  C:B276H         LINE#         1222
  C:B27FH         LINE#         1223
  C:B288H         LINE#         1224
  C:B29EH         LINE#         1225
  C:B2A0H         LINE#         1226
  C:B2A0H         LINE#         1227
  -------         ENDPROC       _RESPONDE_WRITE_TARJETA_SECTOR1_BLOQUE1
  -------         PROC          _RESPONDE_WRITE_TARJETA_SECTOR1_BLOQUE2
  X:0002H         SYMBOL        Atributos_Expedidor
  X:0005H         SYMBOL        Buffer_Write_MF
  -------         DO            
  X:0008H         SYMBOL        Estado_expedidor
  -------         ENDDO         
  C:9C00H         LINE#         1228
  C:9C0BH         LINE#         1229
  C:9C0BH         LINE#         1231
  C:9C14H         LINE#         1232
  C:9C1DH         LINE#         1233
  C:9C33H         LINE#         1234
  C:9C43H         LINE#         1235
  C:9C43H         LINE#         1236
  C:9C46H         LINE#         1237
BL51 BANKED LINKER/LOCATER V6.22.2.0                                                  12/01/2020  12:04:38  PAGE 113


  C:9C58H         LINE#         1238
  C:9C66H         LINE#         1239
  C:9C6CH         LINE#         1240
  C:9C6EH         LINE#         1242
  C:9C6EH         LINE#         1243
  C:9C71H         LINE#         1244
  C:9C83H         LINE#         1245
  C:9C89H         LINE#         1247
  C:9C89H         LINE#         1248
  C:9C8EH         LINE#         1249
  -------         ENDPROC       _RESPONDE_WRITE_TARJETA_SECTOR1_BLOQUE2
  -------         PROC          _RESPONDE_WRITE_TARJETA_SECTOR1_BLOQUE0
  X:0002H         SYMBOL        Buffer_Write_MF
  C:B2A1H         LINE#         1252
  C:B2ACH         LINE#         1253
  C:B2ACH         LINE#         1255
  C:B2B5H         LINE#         1256
  C:B2BEH         LINE#         1257
  C:B2D4H         LINE#         1259
  C:B2D6H         LINE#         1260
  -------         ENDPROC       _RESPONDE_WRITE_TARJETA_SECTOR1_BLOQUE0
  -------         PROC          _RESPONDE_WRITE_TARJETA_SECTOR2_BLOQUE0
  X:0002H         SYMBOL        Buffer_Write_MF
  C:ACB0H         LINE#         1263
  C:ACBBH         LINE#         1264
  C:ACBBH         LINE#         1266
  C:ACC4H         LINE#         1267
  C:ACCDH         LINE#         1268
  C:ACD6H         LINE#         1269
  C:ACDFH         LINE#         1270
  C:ACF4H         LINE#         1271
  C:ACF6H         LINE#         1272
  -------         ENDPROC       _RESPONDE_WRITE_TARJETA_SECTOR2_BLOQUE0
  -------         PROC          _PREGUNTA_LPR
  X:0002H         SYMBOL        Atributos_Expedidor
  -------         DO            
  D:0007H         SYMBOL        Estado_expedidor
  -------         ENDDO         
  C:ADC9H         LINE#         1276
  C:ADD4H         LINE#         1277
  C:ADD4H         LINE#         1279
  C:ADDDH         LINE#         1280
  C:ADEBH         LINE#         1281
  C:ADEBH         LINE#         1283
  C:ADFCH         LINE#         1284
  C:AE08H         LINE#         1285
  C:AE08H         LINE#         1286
  C:AE0CH         LINE#         1287
  C:AE0CH         LINE#         1288
  C:AE0CH         LINE#         1291
  C:AE0EH         LINE#         1293
  C:AE0EH         LINE#         1294
  -------         ENDPROC       _PREGUNTA_LPR
  -------         PROC          PREGUNTA_PLACA
  -------         DO            
  X:0002H         SYMBOL        Estado_expedidor
  -------         ENDDO         
BL51 BANKED LINKER/LOCATER V6.22.2.0                                                  12/01/2020  12:04:38  PAGE 114


  C:B3A2H         LINE#         1295
  C:B3A2H         LINE#         1296
  C:B3A2H         LINE#         1298
  C:B3ABH         LINE#         1299
  C:B3BAH         LINE#         1300
  C:B3BAH         LINE#         1302
  C:B3BDH         LINE#         1303
  C:B3C2H         LINE#         1304
  C:B3C7H         LINE#         1305
  C:B3C9H         LINE#         1307
  C:B3C9H         LINE#         1308
  C:B3CCH         LINE#         1309
  C:B3CCH         LINE#         1310
  C:B3D1H         LINE#         1311
  -------         ENDPROC       PREGUNTA_PLACA
  -------         PROC          _RESPUESTA_SEGUNDA_CLAVE
  X:0002H         SYMBOL        Atributos_Expedidor
  X:0005H         SYMBOL        Buffer_Write_MF
  C:A89DH         LINE#         1312
  C:A8A8H         LINE#         1313
  C:A8A8H         LINE#         1315
  C:A8B1H         LINE#         1316
  C:A8C7H         LINE#         1319
  C:A8D7H         LINE#         1320
  C:A8E9H         LINE#         1321
  C:A8F7H         LINE#         1323
  C:A8F9H         LINE#         1324
  -------         ENDPROC       _RESPUESTA_SEGUNDA_CLAVE
  -------         PROC          _RESPUESTA_PLACA_CANCEL
  X:0009H         SYMBOL        Atributos_Expedidor
  X:000CH         SYMBOL        Buffer_Write_MF
  -------         DO            
  X:000FH         SYMBOL        Estado_expedidor
  X:0010H         SYMBOL        Cancel
  -------         ENDDO         
  C:9505H         LINE#         1325
  C:9510H         LINE#         1326
  C:9510H         LINE#         1328
  C:951EH         LINE#         1329
  C:9527H         LINE#         1330
  C:9530H         LINE#         1331
  C:9539H         LINE#         1333
  C:9554H         LINE#         1334
  C:9554H         LINE#         1335
  C:9564H         LINE#         1336
  C:9577H         LINE#         1337
  C:9585H         LINE#         1338
  C:958BH         LINE#         1339
  C:958DH         LINE#         1341
  C:958DH         LINE#         1342
  C:9593H         LINE#         1343
  C:9593H         LINE#         1344
  C:9596H         LINE#         1345
  C:9598H         LINE#         1347
  C:9598H         LINE#         1349
  C:959BH         LINE#         1350
  C:959BH         LINE#         1351
BL51 BANKED LINKER/LOCATER V6.22.2.0                                                  12/01/2020  12:04:38  PAGE 115


  C:959BH         LINE#         1352
  C:95A0H         LINE#         1353
  -------         ENDPROC       _RESPUESTA_PLACA_CANCEL
  -------         PROC          _ARMAR_TRAMA_TARJETA_SECTOR1_BLOQUE1_CAMCEL
  X:0013H         SYMBOL        Buffer_Write_MF
  -------         DO            
  X:0016H         SYMBOL        ID_CLIENTE
  D:0007H         SYMBOL        COD_PARK
  -------         ENDDO         
  C:93C4H         LINE#         1356
  C:93CFH         LINE#         1357
  C:93CFH         LINE#         1361
  C:93D2H         LINE#         1362
  C:93DFH         LINE#         1363
  C:93E8H         LINE#         1365
  C:93F8H         LINE#         1366
  C:940AH         LINE#         1367
  C:9411H         LINE#         1368
  C:941BH         LINE#         1369
  C:9422H         LINE#         1370
  C:9429H         LINE#         1371
  C:9430H         LINE#         1372
  C:9437H         LINE#         1373
  C:943EH         LINE#         1374
  C:9445H         LINE#         1375
  C:944CH         LINE#         1376
  C:9453H         LINE#         1377
  C:945AH         LINE#         1378
  C:9461H         LINE#         1379
  -------         ENDPROC       _ARMAR_TRAMA_TARJETA_SECTOR1_BLOQUE1_CAMCEL
  -------         PROC          _ARMAR_TRAMA_TARJETA_SECTOR1_BLOQUE2
  X:0010H         SYMBOL        Atributos_Expedidor
  X:0013H         SYMBOL        Buffer_Write_MF
  C:61EDH         LINE#         1385
  C:61F8H         LINE#         1386
  C:61F8H         LINE#         1390
  C:6204H         LINE#         1394
  C:6216H         LINE#         1395
  C:621DH         LINE#         1396
  C:6224H         LINE#         1398
  C:6239H         LINE#         1399
  C:6239H         LINE#         1400
  C:6250H         LINE#         1401
  C:6269H         LINE#         1402
  C:6269H         LINE#         1403
  C:626CH         LINE#         1407
  C:626CH         LINE#         1409
  C:629BH         LINE#         1410
  C:62CAH         LINE#         1412
  C:62E2H         LINE#         1413
  C:62E2H         LINE#         1414
  C:62EFH         LINE#         1415
  C:62F1H         LINE#         1417
  C:62F1H         LINE#         1418
  C:6301H         LINE#         1419
  C:6301H         LINE#         1420
  C:6301H         LINE#         1422
BL51 BANKED LINKER/LOCATER V6.22.2.0                                                  12/01/2020  12:04:38  PAGE 116


  C:6313H         LINE#         1423
  C:631AH         LINE#         1424
  C:6321H         LINE#         1425
  C:6328H         LINE#         1426
  -------         ENDPROC       _ARMAR_TRAMA_TARJETA_SECTOR1_BLOQUE2
  -------         PROC          _ARMAR_TRAMA_TARJETA_SECTOR1_BLOQUE0
  X:0009H         SYMBOL        Buffer_Write_MF
  C:B4A6H         LINE#         1428
  C:B4B1H         LINE#         1429
  C:B4B1H         LINE#         1431
  -------         ENDPROC       _ARMAR_TRAMA_TARJETA_SECTOR1_BLOQUE0
  -------         PROC          _ARMAR_TRAMA_PTO_PARALELO_EXPEDIDOR
  X:0006H         SYMBOL        h
  -------         DO            
  X:00BBH         SYMBOL        buffer
  X:0009H         SYMBOL        ticket
  X:0014H         SYMBOL        j
  -------         ENDDO         
  C:578EH         LINE#         1433
  C:5799H         LINE#         1434
  C:5799H         LINE#         1441
  C:579FH         LINE#         1442
  C:57A3H         LINE#         1443
  C:57A6H         LINE#         1444
  C:57B2H         LINE#         1445
  C:57C9H         LINE#         1446
  C:57D7H         LINE#         1448
  C:57E8H         LINE#         1450
  C:57F8H         LINE#         1451
  C:580AH         LINE#         1452
  C:5818H         LINE#         1453
  C:5826H         LINE#         1454
  C:5834H         LINE#         1455
  C:5842H         LINE#         1456
  C:584FH         LINE#         1458
  C:585EH         LINE#         1459
  C:585EH         LINE#         1460
  C:5861H         LINE#         1461
  C:5861H         LINE#         1462
  C:5875H         LINE#         1463
  C:5884H         LINE#         1464
  C:5893H         LINE#         1465
  C:58A2H         LINE#         1466
  C:58B1H         LINE#         1467
  C:58C0H         LINE#         1468
  C:58C8H         LINE#         1469
  C:58CAH         LINE#         1471
  C:58CAH         LINE#         1472
  C:58DBH         LINE#         1473
  C:58E3H         LINE#         1474
  C:58E3H         LINE#         1475
  C:58E5H         LINE#         1477
  C:58E5H         LINE#         1478
  C:58F6H         LINE#         1479
  C:5902H         LINE#         1480
  C:5902H         LINE#         1481
  C:5910H         LINE#         1482
BL51 BANKED LINKER/LOCATER V6.22.2.0                                                  12/01/2020  12:04:38  PAGE 117


  C:591EH         LINE#         1483
  C:5930H         LINE#         1485
  C:5936H         LINE#         1486
  -------         ENDPROC       _ARMAR_TRAMA_PTO_PARALELO_EXPEDIDOR
  -------         PROC          _ARMAR_TRAMA_PTO_PARALELO_EXPEDIDOR_MENSUAL
  X:0006H         SYMBOL        Atributos_Expedidor
  X:0009H         SYMBOL        j
  -------         DO            
  X:00D7H         SYMBOL        buffer
  -------         ENDDO         
  C:81FAH         LINE#         1487
  C:8205H         LINE#         1488
  C:8205H         LINE#         1494
  C:820BH         LINE#         1495
  C:820FH         LINE#         1496
  C:8224H         LINE#         1497
  C:822EH         LINE#         1498
  C:8238H         LINE#         1499
  C:8242H         LINE#         1502
  C:824BH         LINE#         1503
  C:8252H         LINE#         1504
  C:8257H         LINE#         1505
  C:825CH         LINE#         1506
  C:8261H         LINE#         1507
  C:8266H         LINE#         1510
  C:8272H         LINE#         1511
  C:8272H         LINE#         1513
  C:8279H         LINE#         1514
  C:827DH         LINE#         1515
  C:8281H         LINE#         1516
  C:8285H         LINE#         1517
  C:8289H         LINE#         1518
  C:828DH         LINE#         1520
  C:828DH         LINE#         1522
  C:82A3H         LINE#         1523
  C:82A3H         LINE#         1524
  C:82A6H         LINE#         1525
  C:82A8H         LINE#         1527
  C:82A8H         LINE#         1528
  C:82ABH         LINE#         1529
  C:82ABH         LINE#         1531
  C:82B1H         LINE#         1532
  C:82B4H         LINE#         1533
  C:82C4H         LINE#         1534
  C:82CAH         LINE#         1535
  -------         ENDPROC       _ARMAR_TRAMA_PTO_PARALELO_EXPEDIDOR_MENSUAL
  -------         PROC          _ARMAR_TRAMA_MONITOR
  X:0005H         SYMBOL        Atributos_Expedidor
  -------         DO            
  X:00F3H         SYMBOL        buffer
  X:0008H         SYMBOL        ticket
  X:0013H         SYMBOL        j
  -------         ENDDO         
  C:5F54H         LINE#         1536
  C:5F5FH         LINE#         1537
  C:5F5FH         LINE#         1543
  C:5F64H         LINE#         1544
BL51 BANKED LINKER/LOCATER V6.22.2.0                                                  12/01/2020  12:04:38  PAGE 118


  C:5F6AH         LINE#         1545
  C:5F72H         LINE#         1546
  C:5F76H         LINE#         1547
  C:5F7FH         LINE#         1548
  C:5F7FH         LINE#         1549
  C:5F82H         LINE#         1550
  C:5F84H         LINE#         1552
  C:5F84H         LINE#         1553
  C:5F87H         LINE#         1554
  C:5F87H         LINE#         1557
  C:5F8AH         LINE#         1558
  C:5F8AH         LINE#         1559
  C:5F8FH         LINE#         1560
  C:5F9BH         LINE#         1561
  C:5FB2H         LINE#         1562
  C:5FB5H         LINE#         1564
  C:5FB5H         LINE#         1565
  C:5FD0H         LINE#         1566
  C:5FDEH         LINE#         1567
  C:5FECH         LINE#         1568
  C:5FF8H         LINE#         1569
  C:6006H         LINE#         1570
  C:603FH         LINE#         1572
  C:603FH         LINE#         1573
  C:604DH         LINE#         1574
  C:605BH         LINE#         1577
  C:6068H         LINE#         1578
  C:6076H         LINE#         1580
  C:6084H         LINE#         1581
  C:6091H         LINE#         1582
  C:609DH         LINE#         1583
  C:60A2H         LINE#         1584
  C:60A7H         LINE#         1585
  -------         ENDPROC       _ARMAR_TRAMA_MONITOR
  -------         PROC          _ARMAR_TRAMA_PLACA
  X:0008H         SYMBOL        Buffer_Write_MF
  -------         DO            
  D:0006H         SYMBOL        j
  D:0007H         SYMBOL        len_placa
  -------         ENDDO         
  C:A8FAH         LINE#         1586
  C:A905H         LINE#         1587
  C:A905H         LINE#         1590
  C:A90EH         LINE#         1591
  C:A915H         LINE#         1592
  C:A915H         LINE#         1593
  C:A92FH         LINE#         1594
  C:A932H         LINE#         1595
  C:A93EH         LINE#         1596
  C:A93EH         LINE#         1597
  C:A952H         LINE#         1598
  C:A955H         LINE#         1599
  -------         ENDPROC       _ARMAR_TRAMA_PLACA
  C:B0CFH         SYMBOL        L?0381
  -------         PROC          L?0380
  -------         ENDPROC       L?0380
  C:B0CFH         SYMBOL        L?0381
BL51 BANKED LINKER/LOCATER V6.22.2.0                                                  12/01/2020  12:04:38  PAGE 119


  -------         PROC          _LOAD_SECUENCIA_EXPEDIDOR
  D:0001H         SYMBOL        Secuencia_Expedidor
  D:0004H         SYMBOL        estadoactivo
  X:0007H         SYMBOL        estadoactual
  X:0009H         SYMBOL        estadofuturo
  C:B0EBH         LINE#         1600
  C:B0EBH         LINE#         1601
  C:B0EBH         LINE#         1602
  C:B0F2H         LINE#         1603
  C:B0FAH         LINE#         1604
  C:B105H         LINE#         1605
  C:B10BH         LINE#         1606
  -------         ENDPROC       _LOAD_SECUENCIA_EXPEDIDOR
  -------         PROC          _DISPARO_LOCK_ENTRADA_VEHICULO
  X:0002H         SYMBOL        Nombre_Mensual
  -------         DO            
  X:0005H         SYMBOL        Estado_expedidor
  -------         ENDDO         
  C:A69DH         LINE#         1607
  C:A6A8H         LINE#         1608
  C:A6A8H         LINE#         1610
  C:A6B1H         LINE#         1612
  C:A6B6H         LINE#         1614
  C:A6BDH         LINE#         1615
  C:A6BDH         LINE#         1617
  C:A6C6H         LINE#         1619
  C:A6C8H         LINE#         1620
  C:A6CDH         LINE#         1621
  C:A6DDH         LINE#         1622
  C:A6E3H         LINE#         1625
  C:A6E5H         LINE#         1626
  C:A6ECH         LINE#         1627
  C:A6ECH         LINE#         1628
  C:A6F2H         LINE#         1629
  C:A6F2H         LINE#         1630
  C:A6F8H         LINE#         1631
  C:A6FEH         LINE#         1632
  C:A700H         LINE#         1634
  C:A700H         LINE#         1635
  C:A706H         LINE#         1636
  C:A706H         LINE#         1638
  C:A706H         LINE#         1639
  C:A70BH         LINE#         1640
  -------         ENDPROC       _DISPARO_LOCK_ENTRADA_VEHICULO
  -------         PROC          _SEND_PTO_PARALELO
  D:0001H         SYMBOL        Atributos_Expedidor
  -------         DO            
  X:0002H         SYMBOL        Trama_Expedidor
  X:0005H         SYMBOL        leng_trama_pto
  -------         ENDDO         
  C:A04FH         LINE#         1641
  C:A04FH         LINE#         1642
  C:A04FH         LINE#         1645
  C:A052H         LINE#         1646
  C:A052H         LINE#         1647
  C:A06EH         LINE#         1648
  C:A070H         LINE#         1650
BL51 BANKED LINKER/LOCATER V6.22.2.0                                                  12/01/2020  12:04:38  PAGE 120


  C:A070H         LINE#         1651
  C:A084H         LINE#         1652
  C:A087H         LINE#         1653
  C:A087H         LINE#         1655
  C:A098H         LINE#         1656
  C:A0A1H         LINE#         1657
  C:A0B7H         LINE#         1658
  C:A0C0H         LINE#         1661
  C:A0C3H         LINE#         1662
  C:A0C9H         LINE#         1663
  C:A0CEH         LINE#         1664
  C:A0D0H         LINE#         1665
  C:A0D2H         LINE#         1666
  -------         ENDPROC       _SEND_PTO_PARALELO
  -------         PROC          ENTREGA_CARD_CAPTURA
  -------         DO            
  X:0002H         SYMBOL        Estado_expedidor
  -------         ENDDO         
  C:9AE1H         LINE#         1670
  C:9AE1H         LINE#         1671
  C:9AE1H         LINE#         1675
  C:9AEAH         LINE#         1676
  C:9AEDH         LINE#         1677
  C:9AF0H         LINE#         1678
  C:9AF0H         LINE#         1679
  C:9AFAH         LINE#         1680
  C:9AFAH         LINE#         1681
  C:9AFCH         LINE#         1682
  C:9AFEH         LINE#         1683
  C:9B07H         LINE#         1684
  C:9B07H         LINE#         1685
  C:9B07H         LINE#         1687
  C:9B09H         LINE#         1689
  C:9B09H         LINE#         1690
  C:9B0FH         LINE#         1691
  C:9B0FH         LINE#         1693
  C:9B15H         LINE#         1695
  C:9B28H         LINE#         1696
  C:9B28H         LINE#         1697
  C:9B35H         LINE#         1698
  C:9B35H         LINE#         1699
  C:9B37H         LINE#         1700
  C:9B40H         LINE#         1702
  C:9B42H         LINE#         1703
  C:9B42H         LINE#         1704
  C:9B44H         LINE#         1705
  C:9B51H         LINE#         1706
  C:9B51H         LINE#         1707
  C:9B57H         LINE#         1708
  C:9B57H         LINE#         1709
  C:9B57H         LINE#         1711
  C:9B59H         LINE#         1713
  C:9B59H         LINE#         1714
  C:9B5BH         LINE#         1715
  C:9B64H         LINE#         1716
  C:9B66H         LINE#         1717
  C:9B6BH         LINE#         1718
BL51 BANKED LINKER/LOCATER V6.22.2.0                                                  12/01/2020  12:04:38  PAGE 121


  C:9B6BH         LINE#         1719
  C:9B6BH         LINE#         1721
  C:9B70H         LINE#         1722
  -------         ENDPROC       ENTREGA_CARD_CAPTURA
  -------         PROC          _WAIT_PLACA
  X:0002H         SYMBOL        Atributos_Expedidor
  X:0005H         SYMBOL        Buffer_Write_MF
  -------         DO            
  X:0008H         SYMBOL        Estado_expedidor
  -------         ENDDO         
  C:8FB6H         LINE#         1723
  C:8FC1H         LINE#         1724
  C:8FC1H         LINE#         1727
  C:8FCAH         LINE#         1729
  C:8FE0H         LINE#         1730
  C:8FE0H         LINE#         1731
  C:8FE3H         LINE#         1732
  C:8FE3H         LINE#         1734
  C:8FE6H         LINE#         1735
  C:8FE6H         LINE#         1736
  C:8FE8H         LINE#         1738
  C:8FEBH         LINE#         1739
  C:8FEBH         LINE#         1740
  C:9013H         LINE#         1741
  C:9015H         LINE#         1744
  C:9015H         LINE#         1745
  C:901BH         LINE#         1746
  C:902EH         LINE#         1747
  C:902EH         LINE#         1748
  C:903BH         LINE#         1749
  C:903BH         LINE#         1750
  C:904AH         LINE#         1751
  C:9050H         LINE#         1752
  C:9052H         LINE#         1753
  C:905FH         LINE#         1754
  C:905FH         LINE#         1755
  C:9065H         LINE#         1756
  C:9065H         LINE#         1757
  C:9065H         LINE#         1758
  C:9065H         LINE#         1759
  C:906AH         LINE#         1760
  -------         ENDPROC       _WAIT_PLACA
  -------         PROC          _VALIDA_VEHICULO_CARD_MENSUAL
  X:0010H         SYMBOL        Atributos_Expedidor
  -------         DO            
  X:0013H         SYMBOL        Estado_expedidor
  -------         ENDDO         
  C:9807H         LINE#         1761
  C:9812H         LINE#         1762
  C:9812H         LINE#         1765
  C:981BH         LINE#         1766
  C:9830H         LINE#         1767
  C:9830H         LINE#         1768
  C:9834H         LINE#         1769
  C:9836H         LINE#         1771
  C:9836H         LINE#         1772
  C:983DH         LINE#         1773
BL51 BANKED LINKER/LOCATER V6.22.2.0                                                  12/01/2020  12:04:38  PAGE 122


  C:983DH         LINE#         1775
  C:9846H         LINE#         1776
  C:9854H         LINE#         1777
  C:9854H         LINE#         1778
  C:986DH         LINE#         1779
  C:986DH         LINE#         1780
  C:9873H         LINE#         1781
  C:9873H         LINE#         1782
  C:9875H         LINE#         1785
  C:9875H         LINE#         1786
  C:987AH         LINE#         1787
  C:9883H         LINE#         1788
  C:9888H         LINE#         1789
  C:9888H         LINE#         1790
  C:988AH         LINE#         1792
  C:988AH         LINE#         1793
  C:9893H         LINE#         1794
  C:9899H         LINE#         1795
  C:9899H         LINE#         1796
  C:989EH         LINE#         1797
  -------         ENDPROC       _VALIDA_VEHICULO_CARD_MENSUAL
  -------         PROC          _TARJETA_MENSUAL
  X:0009H         SYMBOL        Atributos_Expedidor
  X:000CH         SYMBOL        Buffer_Write_MF
  -------         DO            
  X:000FH         SYMBOL        Estado_expedidor
  -------         ENDDO         
  C:878AH         LINE#         1798
  C:8795H         LINE#         1799
  C:8795H         LINE#         1804
  C:87A0H         LINE#         1805
  C:87A0H         LINE#         1806
  C:87BEH         LINE#         1807
  C:87BEH         LINE#         1809
  C:87CFH         LINE#         1810
  C:87CFH         LINE#         1811
  C:87D7H         LINE#         1812
  C:87D9H         LINE#         1814
  C:87D9H         LINE#         1815
  C:87E2H         LINE#         1816
  C:87F2H         LINE#         1817
  C:8805H         LINE#         1818
  C:8825H         LINE#         1819
  C:882BH         LINE#         1820
  C:882BH         LINE#         1821
  C:882DH         LINE#         1823
  C:882DH         LINE#         1824
  C:8832H         LINE#         1826
  C:8837H         LINE#         1827
  C:8840H         LINE#         1828
  C:8840H         LINE#         1829
  C:8840H         LINE#         1830
  C:8842H         LINE#         1832
  C:8842H         LINE#         1834
  C:8848H         LINE#         1835
  C:8848H         LINE#         1836
  C:884DH         LINE#         1837
BL51 BANKED LINKER/LOCATER V6.22.2.0                                                  12/01/2020  12:04:38  PAGE 123


  -------         ENDPROC       _TARJETA_MENSUAL
  -------         PROC          _TARJETA_ROTACION
  D:0001H         SYMBOL        Atributos_Expedidor
  X:000CH         SYMBOL        Buffer_Write_MF
  C:B371H         LINE#         1838
  C:B371H         LINE#         1839
  C:B371H         LINE#         1840
  C:B376H         LINE#         1841
  C:B37FH         LINE#         1842
  C:B39FH         LINE#         1843
  C:B3A1H         LINE#         1846
  -------         ENDPROC       _TARJETA_ROTACION
  -------         PROC          _VALIDA_TIPO_TARJETA
  X:0002H         SYMBOL        Atributos_Expedidor
  X:0005H         SYMBOL        Buffer_Write_MF
  -------         DO            
  X:0008H         SYMBOL        Estado_expedidor
  -------         ENDDO         
  C:5ADCH         LINE#         1847
  C:5AE7H         LINE#         1848
  C:5AE7H         LINE#         1850
  C:5AF4H         LINE#         1851
  C:5AF4H         LINE#         1852
  C:5AFDH         LINE#         1853
  C:5B03H         LINE#         1854
  C:5B03H         LINE#         1858
  C:5B11H         LINE#         1859
  C:5B11H         LINE#         1862
  C:5B2EH         LINE#         1863
  C:5B2EH         LINE#         1864
  C:5B4BH         LINE#         1866
  C:5B4DH         LINE#         1868
  C:5B4DH         LINE#         1869
  C:5B56H         LINE#         1870
  C:5B58H         LINE#         1871
  C:5B58H         LINE#         1872
  C:5B58H         LINE#         1873
  C:5B5BH         LINE#         1876
  C:5B5BH         LINE#         1877
  C:5B64H         LINE#         1879
  C:5B87H         LINE#         1880
  C:5B87H         LINE#         1881
  C:5B8AH         LINE#         1883
  C:5B8AH         LINE#         1884
  C:5B8FH         LINE#         1885
  C:5B94H         LINE#         1886
  C:5B97H         LINE#         1887
  C:5B97H         LINE#         1888
  C:5B9AH         LINE#         1889
  C:5BB2H         LINE#         1890
  C:5BB2H         LINE#         1892
  C:5BBBH         LINE#         1893
  C:5BC1H         LINE#         1894
  C:5BC1H         LINE#         1895
  C:5BCDH         LINE#         1896
  C:5BCDH         LINE#         1897
  C:5BEAH         LINE#         1899
BL51 BANKED LINKER/LOCATER V6.22.2.0                                                  12/01/2020  12:04:38  PAGE 124


  C:5BEAH         LINE#         1900
  C:5C0AH         LINE#         1901
  C:5C0CH         LINE#         1903
  C:5C0CH         LINE#         1904
  C:5C15H         LINE#         1905
  C:5C1AH         LINE#         1906
  C:5C1FH         LINE#         1907
  C:5C22H         LINE#         1908
  C:5C22H         LINE#         1909
  C:5C24H         LINE#         1911
  C:5C24H         LINE#         1912
  C:5C2DH         LINE#         1913
  C:5C50H         LINE#         1914
  C:5C50H         LINE#         1915
  C:5C52H         LINE#         1917
  C:5C52H         LINE#         1919
  C:5C57H         LINE#         1920
  C:5C5CH         LINE#         1921
  C:5C62H         LINE#         1922
  C:5C62H         LINE#         1923
  C:5C64H         LINE#         1925
  C:5C64H         LINE#         1926
  C:5C6DH         LINE#         1927
  C:5C72H         LINE#         1929
  C:5C7AH         LINE#         1930
  C:5C7AH         LINE#         1932
  C:5C7FH         LINE#         1933
  -------         ENDPROC       _VALIDA_TIPO_TARJETA
  -------         PROC          _HORARIOS
  X:0010H         SYMBOL        Atributos_Expedidor
  -------         DO            
  X:0013H         SYMBOL        Estado_Horario
  X:0014H         SYMBOL        Addr_horarios
  X:001FH         SYMBOL        dia_semana
  X:0020H         SYMBOL        EE_dia_semana
  X:0021H         SYMBOL        addr
  -------         ENDDO         
  C:7001H         LINE#         2027
  C:700CH         LINE#         2028
  C:700CH         LINE#         2034
  C:7017H         LINE#         2035
  C:7017H         LINE#         2037
  C:7023H         LINE#         2039
  C:7049H         LINE#         2043
  C:705CH         LINE#         2044
  C:705CH         LINE#         2046
  C:7066H         LINE#         2047
  C:706FH         LINE#         2048
  C:7077H         LINE#         2049
  C:7080H         LINE#         2052
  C:70A5H         LINE#         2053
  C:70AEH         LINE#         2054
  C:70B6H         LINE#         2055
  C:70BFH         LINE#         2057
  C:70C9H         LINE#         2058
  C:70C9H         LINE#         2060
  C:70D7H         LINE#         2061
BL51 BANKED LINKER/LOCATER V6.22.2.0                                                  12/01/2020  12:04:38  PAGE 125


  C:70D9H         LINE#         2063
  C:70D9H         LINE#         2065
  C:70E2H         LINE#         2066
  C:70E7H         LINE#         2067
  C:70E7H         LINE#         2068
  C:70E9H         LINE#         2070
  C:70E9H         LINE#         2072
  C:70EEH         LINE#         2073
  C:70F3H         LINE#         2074
  C:70F9H         LINE#         2076
  C:70F9H         LINE#         2078
  C:70FBH         LINE#         2080
  C:70FBH         LINE#         2081
  C:7101H         LINE#         2083
  C:710AH         LINE#         2084
  C:710AH         LINE#         2085
  C:710FH         LINE#         2086
  -------         ENDPROC       _HORARIOS
  -------         PROC          _HORA_MAXIMA
  X:002FH         SYMBOL        addr
  -------         DO            
  X:0031H         SYMBOL        Hora_High
  X:0032H         SYMBOL        Minuto_High
  X:0033H         SYMBOL        HoraIni
  X:0034H         SYMBOL        MinutoIni
  X:0035H         SYMBOL        Hora_Prog
  -------         ENDDO         
  C:911FH         LINE#         2087
  C:9127H         LINE#         2088
  C:9127H         LINE#         2093
  C:913CH         LINE#         2094
  C:915CH         LINE#         2095
  C:9179H         LINE#         2096
  C:9199H         LINE#         2097
  C:91A1H         LINE#         2098
  C:91A9H         LINE#         2099
  C:91B2H         LINE#         2101
  C:91CAH         LINE#         2102
  -------         ENDPROC       _HORA_MAXIMA
  -------         PROC          _EN_HORARIO
  X:002AH         SYMBOL        HoraNow
  D:0004H         SYMBOL        Hora_Prog
  X:002CH         SYMBOL        addr
  -------         DO            
  X:002EH         SYMBOL        Estado_Horario
  -------         ENDDO         
  C:A5BDH         LINE#         2103
  C:A5CBH         LINE#         2104
  C:A5CBH         LINE#         2107
  C:A5D8H         LINE#         2108
  C:A5D8H         LINE#         2111
  C:A5E1H         LINE#         2112
  C:A5F6H         LINE#         2115
  C:A605H         LINE#         2116
  C:A605H         LINE#         2118
  C:A60CH         LINE#         2119
  C:A612H         LINE#         2120
BL51 BANKED LINKER/LOCATER V6.22.2.0                                                  12/01/2020  12:04:38  PAGE 126


  C:A614H         LINE#         2122
  C:A614H         LINE#         2125
  C:A618H         LINE#         2126
  C:A618H         LINE#         2127
  C:A618H         LINE#         2129
  C:A61AH         LINE#         2131
  C:A61AH         LINE#         2134
  C:A623H         LINE#         2135
  C:A628H         LINE#         2137
  C:A628H         LINE#         2138
  C:A62DH         LINE#         2139
  -------         ENDPROC       _EN_HORARIO
  -------         PROC          _BLOQUE_HORARIO
  X:0023H         SYMBOL        addr
  -------         DO            
  X:0025H         SYMBOL        Estado_Horario
  X:0026H         SYMBOL        HoraNow
  X:0028H         SYMBOL        Hora_Prog
  -------         ENDDO         
  C:721CH         LINE#         2141
  C:7224H         LINE#         2142
  C:7224H         LINE#         2148
  C:722DH         LINE#         2149
  C:7235H         LINE#         2150
  C:723DH         LINE#         2151
  C:7246H         LINE#         2152
  C:7274H         LINE#         2157
  C:727DH         LINE#         2158
  C:7292H         LINE#         2159
  C:72AAH         LINE#         2160
  C:72ACH         LINE#         2161
  C:72ACH         LINE#         2164
  C:72C4H         LINE#         2165
  C:72C4H         LINE#         2166
  C:72CDH         LINE#         2167
  C:72E8H         LINE#         2168
  C:7306H         LINE#         2169
  C:7308H         LINE#         2171
  C:7308H         LINE#         2172
  C:730DH         LINE#         2173
  C:7312H         LINE#         2174
  C:7317H         LINE#         2175
  C:7317H         LINE#         2176
  C:7317H         LINE#         2178
  C:731EH         LINE#         2179
  -------         ENDPROC       _BLOQUE_HORARIO
  -------         PROC          SECUENCIA_INICIO_EXPEDIDOR
  -------         DO            
  X:0001H         SYMBOL        temp
  -------         ENDDO         
  C:65ACH         LINE#         2188
  C:65ACH         LINE#         2189
  C:65ACH         LINE#         2191
  C:65CCH         LINE#         2192
  C:65CCH         LINE#         2193
  C:65CCH         LINE#         2196
  C:65D1H         LINE#         2197
BL51 BANKED LINKER/LOCATER V6.22.2.0                                                  12/01/2020  12:04:38  PAGE 127


  C:65D7H         LINE#         2200
  C:65D9H         LINE#         2201
  C:65D9H         LINE#         2212
  C:65D9H         LINE#         2214
  C:65E7H         LINE#         2215
  C:65E7H         LINE#         2216
  C:65F3H         LINE#         2217
  C:65F3H         LINE#         2218
  C:65F9H         LINE#         2219
  C:65FCH         LINE#         2220
  C:6604H         LINE#         2221
  C:6604H         LINE#         2222
  C:660BH         LINE#         2223
  C:661FH         LINE#         2224
  C:661FH         LINE#         2225
  C:6621H         LINE#         2227
  C:6621H         LINE#         2228
  C:6628H         LINE#         2229
  C:662EH         LINE#         2230
  C:662EH         LINE#         2231
  C:6631H         LINE#         2233
  C:6631H         LINE#         2234
  C:663AH         LINE#         2235
  C:664EH         LINE#         2236
  C:6654H         LINE#         2237
  C:6654H         LINE#         2238
  C:6657H         LINE#         2239
  C:6657H         LINE#         2245
  C:6657H         LINE#         2247
  C:665AH         LINE#         2248
  C:6660H         LINE#         2252
  C:6662H         LINE#         2253
  C:6662H         LINE#         2263
  C:6662H         LINE#         2265
  C:6670H         LINE#         2266
  C:6670H         LINE#         2267
  C:667CH         LINE#         2268
  C:667CH         LINE#         2269
  C:6682H         LINE#         2270
  C:6684H         LINE#         2271
  C:668CH         LINE#         2272
  C:668CH         LINE#         2273
  C:6693H         LINE#         2274
  C:66A7H         LINE#         2275
  C:66A7H         LINE#         2276
  C:66A9H         LINE#         2278
  C:66A9H         LINE#         2279
  C:66B0H         LINE#         2280
  C:66B6H         LINE#         2281
  C:66B6H         LINE#         2282
  C:66B8H         LINE#         2284
  C:66B8H         LINE#         2285
  C:66C1H         LINE#         2286
  C:66D5H         LINE#         2287
  C:66DAH         LINE#         2288
  C:66DAH         LINE#         2290
  C:66DCH         LINE#         2291
BL51 BANKED LINKER/LOCATER V6.22.2.0                                                  12/01/2020  12:04:38  PAGE 128


  C:66DCH         LINE#         2297
  C:66DCH         LINE#         2299
  C:66E2H         LINE#         2300
  C:66E2H         LINE#         2303
  C:66E2H         LINE#         2304
  C:66E9H         LINE#         2305
  C:66E9H         LINE#         2306
  C:66E9H         LINE#         2307
  -------         ENDPROC       SECUENCIA_INICIO_EXPEDIDOR
  -------         PROC          _SECUENCIAEXPEDIDORMF
  X:0001H         SYMBOL        EstadoActivo
  -------         DO            
  X:010BH         SYMBOL        Buffer_Write_MF
  X:011CH         SYMBOL        Atributos_Expedidor
  X:012BH         SYMBOL        Secuencia_Expedidor
  X:012FH         SYMBOL        Nombre_Mensual
  -------         ENDDO         
  C:33F1H         LINE#         2317
  C:33F6H         LINE#         2318
  C:33F6H         LINE#         2324
  C:3453H         LINE#         2325
  C:3453H         LINE#         2328
  C:3453H         LINE#         2330
  C:3466H         LINE#         2331
  C:3466H         LINE#         2334
  C:3468H         LINE#         2335
  C:346AH         LINE#         2336
  C:346FH         LINE#         2337
  C:3477H         LINE#         2338
  C:347CH         LINE#         2339
  C:347FH         LINE#         2340
  C:347FH         LINE#         2341
  C:3485H         LINE#         2342
  C:3485H         LINE#         2343
  C:3488H         LINE#         2344
  C:3488H         LINE#         2345
  C:3488H         LINE#         2347
  C:348BH         LINE#         2348
  C:348BH         LINE#         2350
  C:3494H         LINE#         2351
  C:3497H         LINE#         2352
  C:3497H         LINE#         2353
  C:349CH         LINE#         2354
  C:34BCH         LINE#         2355
  C:34BFH         LINE#         2356
  C:34BFH         LINE#         2357
  C:34C4H         LINE#         2358
  C:34CCH         LINE#         2359
  C:34D2H         LINE#         2360
  C:34D5H         LINE#         2361
  C:34D5H         LINE#         2362
  C:34D8H         LINE#         2363
  C:34E0H         LINE#         2364
  C:34E6H         LINE#         2365
  C:34E9H         LINE#         2366
  C:34E9H         LINE#         2367
  C:34ECH         LINE#         2368
BL51 BANKED LINKER/LOCATER V6.22.2.0                                                  12/01/2020  12:04:38  PAGE 129


  C:3511H         LINE#         2369
  C:3517H         LINE#         2370
  C:3519H         LINE#         2371
  C:351CH         LINE#         2372
  C:351CH         LINE#         2373
  C:3527H         LINE#         2374
  C:352FH         LINE#         2375
  C:3535H         LINE#         2376
  C:3538H         LINE#         2377
  C:3538H         LINE#         2378
  C:3549H         LINE#         2379
  C:3551H         LINE#         2380
  C:3557H         LINE#         2381
  C:355AH         LINE#         2382
  C:355AH         LINE#         2383
  C:355FH         LINE#         2384
  C:357DH         LINE#         2385
  C:3580H         LINE#         2386
  C:3580H         LINE#         2387
  C:3585H         LINE#         2388
  C:35A5H         LINE#         2389
  C:35A8H         LINE#         2390
  C:35A8H         LINE#         2391
  C:35ADH         LINE#         2392
  C:35AFH         LINE#         2393
  C:35CDH         LINE#         2394
  C:35D0H         LINE#         2395
  C:35D0H         LINE#         2396
  C:35D5H         LINE#         2397
  C:35F5H         LINE#         2398
  C:35F8H         LINE#         2399
  C:35F8H         LINE#         2400
  C:360EH         LINE#         2401
  C:360EH         LINE#         2402
  C:3613H         LINE#         2403
  C:361BH         LINE#         2404
  C:3621H         LINE#         2405
  C:3621H         LINE#         2406
  C:3624H         LINE#         2407
  C:3624H         LINE#         2408
  C:3627H         LINE#         2409
  C:3647H         LINE#         2410
  C:364AH         LINE#         2411
  C:364AH         LINE#         2412
  C:364CH         LINE#         2413
  C:364FH         LINE#         2414
  C:3652H         LINE#         2415
  C:3652H         LINE#         2416
  C:365BH         LINE#         2417
  C:365EH         LINE#         2418
  C:365EH         LINE#         2419
  C:3675H         LINE#         2420
  C:3678H         LINE#         2421
  C:3678H         LINE#         2422
  C:367BH         LINE#         2423
  C:3683H         LINE#         2424
  C:3689H         LINE#         2425
BL51 BANKED LINKER/LOCATER V6.22.2.0                                                  12/01/2020  12:04:38  PAGE 130


  C:368CH         LINE#         2426
  C:368CH         LINE#         2427
  C:3695H         LINE#         2428
  C:3698H         LINE#         2429
  C:3698H         LINE#         2430
  C:369AH         LINE#         2431
  C:369DH         LINE#         2432
  C:36A0H         LINE#         2433
  C:36A0H         LINE#         2434
  C:36B7H         LINE#         2435
  C:36BAH         LINE#         2436
  C:36BAH         LINE#         2437
  C:36BFH         LINE#         2438
  C:36C7H         LINE#         2439
  C:36CDH         LINE#         2440
  C:36D0H         LINE#         2441
  C:36D0H         LINE#         2442
  C:36D3H         LINE#         2443
  C:36F3H         LINE#         2444
  C:36F6H         LINE#         2445
  C:36F6H         LINE#         2446
  C:36F9H         LINE#         2447
  C:3719H         LINE#         2448
  C:371CH         LINE#         2449
  C:371CH         LINE#         2450
  C:371FH         LINE#         2451
  C:3727H         LINE#         2452
  C:372AH         LINE#         2453
  C:372CH         LINE#         2457
  C:372CH         LINE#         2458
  C:3732H         LINE#         2459
  C:3738H         LINE#         2460
  C:3738H         LINE#         2461
  C:3740H         LINE#         2462
  C:3746H         LINE#         2464
  C:3749H         LINE#         2465
  C:3751H         LINE#         2466
  C:3751H         LINE#         2468
  C:3754H         LINE#         2469
  C:3757H         LINE#         2470
  C:375FH         LINE#         2471
  C:375FH         LINE#         2472
  C:376DH         LINE#         2473
  C:376DH         LINE#         2474
  C:3776H         LINE#         2475
  C:3779H         LINE#         2476
  C:3785H         LINE#         2477
  C:3785H         LINE#         2478
  C:378EH         LINE#         2479
  C:3791H         LINE#         2481
  C:3791H         LINE#         2482
  C:379AH         LINE#         2483
  C:379AH         LINE#         2484
  C:379DH         LINE#         2485
  C:37A5H         LINE#         2486
  C:37A5H         LINE#         2487
  C:37B3H         LINE#         2488
BL51 BANKED LINKER/LOCATER V6.22.2.0                                                  12/01/2020  12:04:38  PAGE 131


  C:37B3H         LINE#         2489
  C:37C9H         LINE#         2490
  C:37CCH         LINE#         2491
  C:37D8H         LINE#         2492
  C:37D8H         LINE#         2493
  C:37E1H         LINE#         2494
  C:37E4H         LINE#         2495
  C:37F2H         LINE#         2496
  C:37F2H         LINE#         2497
  C:37FBH         LINE#         2498
  C:37FDH         LINE#         2500
  C:37FDH         LINE#         2501
  C:3806H         LINE#         2502
  C:3806H         LINE#         2503
  C:3808H         LINE#         2504
  C:3810H         LINE#         2505
  C:3810H         LINE#         2506
  C:3819H         LINE#         2507
  C:381BH         LINE#         2508
  C:3823H         LINE#         2509
  C:3823H         LINE#         2510
  C:3839H         LINE#         2511
  C:383BH         LINE#         2512
  C:3843H         LINE#         2513
  C:3843H         LINE#         2514
  C:3846H         LINE#         2515
  C:3848H         LINE#         2517
  C:3850H         LINE#         2518
  C:3850H         LINE#         2519
  C:3859H         LINE#         2520
  C:385BH         LINE#         2523
  C:3863H         LINE#         2524
  C:3863H         LINE#         2525
  C:386BH         LINE#         2526
  C:386DH         LINE#         2528
  C:386DH         LINE#         2529
  C:3876H         LINE#         2530
  C:3876H         LINE#         2531
  C:3878H         LINE#         2532
  C:3878H         LINE#         2533
  C:387DH         LINE#         2534
  C:387DH         LINE#         2536
  C:387DH         LINE#         2537
  C:3882H         LINE#         2538
  -------         ENDPROC       _SECUENCIAEXPEDIDORMF
  -------         ENDMOD        VERIFICADOR

  -------         MODULE        MONITOR
  C:0000H         SYMBOL        _ICE_DUMMY_
  D:0080H         PUBLIC        P0
  D:0090H         PUBLIC        P1
  I:0011H         PUBLIC        placa
  C:B541H         PUBLIC        Rx_Monitor
  B:0080H.0       PUBLIC        rx_ip
  B:0090H.7       PUBLIC        lock
  C:89D3H         PUBLIC        _recibe_cmd_Monitor
  C:B663H         PUBLIC        clear_placa
BL51 BANKED LINKER/LOCATER V6.22.2.0                                                  12/01/2020  12:04:38  PAGE 132


  C:8D8BH         PUBLIC        _Valida_Trama_Monitor
  -------         PROC          _RECIBE_CMD_MONITOR
  X:0016H         SYMBOL        buffer_cmd
  -------         DO            
  X:0019H         SYMBOL        j
  X:001AH         SYMBOL        NumDatos
  X:001BH         SYMBOL        time_out
  X:001CH         SYMBOL        MaxChrRx
  X:001DH         SYMBOL        contador
  -------         ENDDO         
  C:89D3H         LINE#         50
  C:89DEH         LINE#         51
  C:89DEH         LINE#         55
  C:89E3H         LINE#         56
  C:89E9H         LINE#         58
  C:89F4H         LINE#         59
  C:89F4H         LINE#         60
  C:8A05H         LINE#         61
  C:8A05H         LINE#         62
  C:8A0CH         LINE#         63
  C:8A10H         LINE#         64
  C:8A19H         LINE#         65
  C:8A19H         LINE#         66
  C:8A27H         LINE#         67
  C:8A3EH         LINE#         68
  C:8A3EH         LINE#         69
  C:8A44H         LINE#         70
  C:8A4AH         LINE#         71
  C:8A4AH         LINE#         72
  C:8A4CH         LINE#         73
  C:8A54H         LINE#         74
  C:8A5AH         LINE#         75
  C:8A6CH         LINE#         76
  C:8A76H         LINE#         77
  C:8A7FH         LINE#         79
  C:8A8EH         LINE#         82
  C:8A8EH         LINE#         83
  C:8A93H         LINE#         84
  -------         ENDPROC       _RECIBE_CMD_MONITOR
  -------         PROC          _VALIDA_TRAMA_MONITOR
  X:0016H         SYMBOL        buffer
  D:0005H         SYMBOL        length_trama
  -------         DO            
  X:0019H         SYMBOL        j
  X:001AH         SYMBOL        p
  X:001BH         SYMBOL        cont
  -------         ENDDO         
  C:8D8BH         LINE#         89
  C:8D96H         LINE#         90
  C:8D96H         LINE#         91
  C:8D99H         LINE#         92
  C:8D9DH         LINE#         93
  C:8DA0H         LINE#         94
  C:8DA2H         LINE#         97
  C:8DB6H         LINE#         98
  C:8DB6H         LINE#         100
  C:8DB8H         LINE#         102
BL51 BANKED LINKER/LOCATER V6.22.2.0                                                  12/01/2020  12:04:38  PAGE 133


  C:8DBFH         LINE#         103
  C:8DC4H         LINE#         106
  C:8DC4H         LINE#         108
  C:8DDFH         LINE#         109
  C:8DDFH         LINE#         112
  C:8DDFH         LINE#         113
  C:8E00H         LINE#         114
  C:8E04H         LINE#         115
  C:8E0AH         LINE#         116
  C:8E1CH         LINE#         117
  C:8E34H         LINE#         118
  C:8E3DH         LINE#         119
  C:8E3FH         LINE#         120
  C:8E45H         LINE#         123
  C:8E45H         LINE#         126
  -------         ENDPROC       _VALIDA_TRAMA_MONITOR
  -------         PROC          CLEAR_PLACA
  -------         DO            
  D:0007H         SYMBOL        i
  -------         ENDDO         
  C:B663H         LINE#         127
  C:B663H         LINE#         128
  C:B663H         LINE#         130
  C:B66FH         LINE#         131
  C:B66FH         LINE#         132
  C:B675H         LINE#         133
  C:B678H         LINE#         134
  C:B67AH         LINE#         135
  -------         ENDPROC       CLEAR_PLACA
  -------         PROC          RX_MONITOR
  -------         DO            
  X:0009H         SYMBOL        Length_trama
  X:000AH         SYMBOL        buffer1
  -------         ENDDO         
  C:B541H         LINE#         136
  C:B541H         LINE#         137
  C:B541H         LINE#         140
  C:B550H         LINE#         141
  C:B559H         LINE#         142
  -------         ENDPROC       RX_MONITOR
  -------         ENDMOD        MONITOR

  -------         MODULE        ?C?FPADD
  C:1335H         PUBLIC        ?C?FPADD
  C:1331H         PUBLIC        ?C?FPSUB
  -------         ENDMOD        ?C?FPADD

  -------         MODULE        ?C?FPMUL
  C:1426H         PUBLIC        ?C?FPMUL
  -------         ENDMOD        ?C?FPMUL

  -------         MODULE        ?C?FCAST
  C:1536H         PUBLIC        ?C?FCASTC
  C:1531H         PUBLIC        ?C?FCASTI
  C:152CH         PUBLIC        ?C?FCASTL
  -------         ENDMOD        ?C?FCAST

BL51 BANKED LINKER/LOCATER V6.22.2.0                                                  12/01/2020  12:04:38  PAGE 134


  -------         MODULE        ?C?CASTF
  C:156AH         PUBLIC        ?C?CASTF
  -------         ENDMOD        ?C?CASTF

  -------         MODULE        PRINTF
  X:0077H         PUBLIC        ?_PRINTF?BYTE
  X:0077H         PUBLIC        ?_SPRINTF?BYTE
  C:38EEH         PUBLIC        _PRINTF
  C:38E8H         PUBLIC        _SPRINTF
  -------         ENDMOD        PRINTF

  -------         MODULE        POW
  X:0020H         PUBLIC        ?_pow?BYTE
  C:5DEEH         PUBLIC        _pow
  -------         ENDMOD        POW

  -------         MODULE        ?C?CHKFLOAT
  C:15EBH         PUBLIC        ?C?CHKFLOAT
  -------         ENDMOD        ?C?CHKFLOAT

  -------         MODULE        ?C?FPCMP
  C:1607H         PUBLIC        ?C?FPCMP
  C:1605H         PUBLIC        ?C?FPCMP3
  -------         ENDMOD        ?C?FPCMP

  -------         MODULE        ?C?FPNEG
  C:167EH         PUBLIC        ?C?FPNEG
  -------         ENDMOD        ?C?FPNEG

  -------         MODULE        ?C?FPROUND
  C:168FH         PUBLIC        ?C?FPROUND
  -------         ENDMOD        ?C?FPROUND

  -------         MODULE        ?C?FPCONVERT
  C:16CCH         PUBLIC        ?C?FPCONVERT
  -------         ENDMOD        ?C?FPCONVERT

  -------         MODULE        EXP
  C:9673H         PUBLIC        _EXP
  -------         ENDMOD        EXP

  -------         MODULE        LOG
  C:6980H         PUBLIC        _LOG
  C:697CH         PUBLIC        _LOG10
  -------         ENDMOD        LOG

  -------         MODULE        ?C?FPDIV
  C:17D4H         PUBLIC        ?C?FPDIV
  -------         ENDMOD        ?C?FPDIV

  -------         MODULE        ?C?FTNPWR
  C:18A1H         PUBLIC        ?C?FTNPWR
  -------         ENDMOD        ?C?FTNPWR

  -------         MODULE        ?C?COPY
  C:19FEH         PUBLIC        ?C?COPY
  -------         ENDMOD        ?C?COPY
BL51 BANKED LINKER/LOCATER V6.22.2.0                                                  12/01/2020  12:04:38  PAGE 135



  -------         MODULE        ?C?CLDPTR
  C:1A24H         PUBLIC        ?C?CLDPTR
  -------         ENDMOD        ?C?CLDPTR

  -------         MODULE        ?C?CLDOPTR
  C:1A3DH         PUBLIC        ?C?CLDOPTR
  -------         ENDMOD        ?C?CLDOPTR

  -------         MODULE        ?C?CSTPTR
  C:1A6AH         PUBLIC        ?C?CSTPTR
  -------         ENDMOD        ?C?CSTPTR

  -------         MODULE        ?C?CSTOPTR
  C:1A7CH         PUBLIC        ?C?CSTOPTR
  -------         ENDMOD        ?C?CSTOPTR

  -------         MODULE        ?C?IMUL
  C:1A9EH         PUBLIC        ?C?IMUL
  -------         ENDMOD        ?C?IMUL

  -------         MODULE        ?C?IILDX
  C:1AB0H         PUBLIC        ?C?IILDX
  -------         ENDMOD        ?C?IILDX

  -------         MODULE        ?C?LNEG
  C:1AC6H         PUBLIC        ?C?LNEG
  -------         ENDMOD        ?C?LNEG

  -------         MODULE        ?C?SLCMP
  C:1AD4H         PUBLIC        ?C?SLCMP
  -------         ENDMOD        ?C?SLCMP

  -------         MODULE        ?C?ULCMP
  C:1AEAH         PUBLIC        ?C?ULCMP
  -------         ENDMOD        ?C?ULCMP

  -------         MODULE        ?C?ULSHR
  C:1AFBH         PUBLIC        ?C?ULSHR
  -------         ENDMOD        ?C?ULSHR

  -------         MODULE        ?C?LSHL
  C:1B0EH         PUBLIC        ?C?LSHL
  -------         ENDMOD        ?C?LSHL

  -------         MODULE        ?C?LLDCODE
  C:1B21H         PUBLIC        ?C?LLDCODE
  -------         ENDMOD        ?C?LLDCODE

  -------         MODULE        ?C?LLDXDATA0
  C:1B31H         PUBLIC        ?C?LLDXDATA0
  -------         ENDMOD        ?C?LLDXDATA0

  -------         MODULE        ?C?LLDCODE0
  C:1B3DH         PUBLIC        ?C?LLDCODE0
  -------         ENDMOD        ?C?LLDCODE0

BL51 BANKED LINKER/LOCATER V6.22.2.0                                                  12/01/2020  12:04:38  PAGE 136


  -------         MODULE        ?C?LSTXDATA
  C:1B4DH         PUBLIC        ?C?LSTXDATA
  -------         ENDMOD        ?C?LSTXDATA

  -------         MODULE        ?C?LSTKXDATA
  C:1B59H         PUBLIC        ?C?LSTKXDATA
  -------         ENDMOD        ?C?LSTKXDATA

  -------         MODULE        ?C?PLDIXDATA
  C:1B8AH         PUBLIC        ?C?PLDIXDATA
  -------         ENDMOD        ?C?PLDIXDATA

  -------         MODULE        ?C?PSTXDATA
  C:1BA1H         PUBLIC        ?C?PSTXDATA
  -------         ENDMOD        ?C?PSTXDATA

  -------         MODULE        ?C?CCASE
  C:1BAAH         PUBLIC        ?C?CCASE
  -------         ENDMOD        ?C?CCASE

  -------         MODULE        STRCAT
  X:0046H         PUBLIC        ?_strcat?BYTE
  C:A70CH         PUBLIC        _strcat
  -------         ENDMOD        STRCAT

  -------         MODULE        ?C?STRCMP
  C:1D4EH         PUBLIC        ?C?STRCMP
  -------         ENDMOD        ?C?STRCMP

  -------         MODULE        ?C?STRCPY
  C:1E37H         PUBLIC        ?C?STRCPY
  -------         ENDMOD        ?C?STRCPY

  -------         MODULE        STRLEN
  C:000EH         PUBLIC        _STRLEN
  -------         ENDMOD        STRLEN

  -------         MODULE        STRTOK
  X:0064H         PUBLIC        ?_strtok?BYTE
  C:7CDEH         PUBLIC        _strtok
  -------         ENDMOD        STRTOK

  -------         MODULE        ATOL
  C:7110H         PUBLIC        _atol
  -------         ENDMOD        ATOL

  -------         MODULE        ATOI
  C:7EA0H         PUBLIC        _atoi
  -------         ENDMOD        ATOI

  -------         MODULE        MALLOC
  C:82CBH         PUBLIC        _malloc
  -------         ENDMOD        MALLOC

  -------         MODULE        INIT_MEM
  X:0256H         PUBLIC        __mem_avail__
  C:B10CH         PUBLIC        _init_mempool
BL51 BANKED LINKER/LOCATER V6.22.2.0                                                  12/01/2020  12:04:38  PAGE 137


  -------         ENDMOD        INIT_MEM

  -------         MODULE        FREE
  C:632FH         PUBLIC        _free
  -------         ENDMOD        FREE

  -------         MODULE        ?C?ILDIX
  C:1E54H         PUBLIC        ?C?ILDIX
  -------         ENDMOD        ?C?ILDIX

  -------         MODULE        ?C?LMUL
  C:1E6AH         PUBLIC        ?C?LMUL
  -------         ENDMOD        ?C?LMUL

  -------         MODULE        ISDIGIT
  C:B773H         PUBLIC        _isdigit
  -------         ENDMOD        ISDIGIT

  -------         MODULE        ISSPACE
  C:B6D3H         PUBLIC        _isspace
  -------         ENDMOD        ISSPACE

  -------         MODULE        STRSPN
  X:006AH         PUBLIC        ?_strspn?BYTE
  C:A0D3H         PUBLIC        _strspn
  -------         ENDMOD        STRSPN

  -------         MODULE        STRPBRK
  X:006AH         PUBLIC        ?_strpbrk?BYTE
  C:A157H         PUBLIC        _strpbrk
  -------         ENDMOD        STRPBRK

Program Size: data=99.1 xdata=618 code=47102
LINK/LOCATE RUN COMPLETE.  0 WARNING(S),  0 ERROR(S)
