BL51 BANKED LINKER/LOCATER V6.22.2.0                                                    10/01/2020  09:24:10  PAGE 1


BL51 BANKED LINKER/LOCATER V6.22.2.0, INVOKED BY:
C:\KEIL_V5\C51\BIN\BL51.EXE .\Objects\main.obj, .\Objects\Accescan.obj, .\Objects\Clock.obj, .\Objects\delay.obj, .\Obje
>> cts\eeprom.obj, .\Objects\io_sensores.obj, .\Objects\pantallas.obj, .\Objects\prog.obj, .\Objects\pto_paralelo.obj, .
>> \Objects\tibbo.obj, .\Objects\uart.obj, .\Objects\lintech.obj, .\Objects\verificador.obj, .\Objects\Monitor.obj TO .\
>> Objects\expedidor_v_01_raspberry PRINT (.\Listings\expedidor_v_01_raspberry.m51) RAMSIZE (256)


MEMORY MODEL: LARGE WITH FLOATING POINT ARITHMETIC


INPUT MODULES INCLUDED:
  .\Objects\main.obj (MAIN)
  .\Objects\Accescan.obj (ACCESCAN)
  .\Objects\Clock.obj (CLOCK)
  .\Objects\delay.obj (DELAY)
  .\Objects\eeprom.obj (EEPROM)
  .\Objects\io_sensores.obj (IO_SENSORES)
  .\Objects\pantallas.obj (PANTALLAS)
  .\Objects\prog.obj (PROG)
  .\Objects\pto_paralelo.obj (PTO_PARALELO)
  .\Objects\tibbo.obj (TIBBO)
  .\Objects\uart.obj (UART)
  .\Objects\lintech.obj (LINTECH)
  .\Objects\verificador.obj (VERIFICADOR)
  .\Objects\Monitor.obj (MONITOR)
  C:\KEIL_V5\C51\LIB\C51FPL.LIB (?C?FPADD)
  C:\KEIL_V5\C51\LIB\C51FPL.LIB (?C?FPMUL)
  C:\KEIL_V5\C51\LIB\C51FPL.LIB (?C?FCAST)
  C:\KEIL_V5\C51\LIB\C51FPL.LIB (?C?CASTF)
  C:\KEIL_V5\C51\LIB\C51FPL.LIB (PRINTF)
  C:\KEIL_V5\C51\LIB\C51FPL.LIB (POW)
  C:\KEIL_V5\C51\LIB\C51FPL.LIB (?C?FPGETOPN)
  C:\KEIL_V5\C51\LIB\C51FPL.LIB (?C?CHKFLOAT)
  C:\KEIL_V5\C51\LIB\C51FPL.LIB (?C?FPCMP)
  C:\KEIL_V5\C51\LIB\C51FPL.LIB (?C?FPNEG)
  C:\KEIL_V5\C51\LIB\C51FPL.LIB (?C?FPROUND)
  C:\KEIL_V5\C51\LIB\C51FPL.LIB (?C?FPCONVERT)
  C:\KEIL_V5\C51\LIB\C51FPL.LIB (EXP)
  C:\KEIL_V5\C51\LIB\C51FPL.LIB (LOG)
  C:\KEIL_V5\C51\LIB\C51FPL.LIB (?C?FPDIV)
  C:\KEIL_V5\C51\LIB\C51FPL.LIB (?C?FTNPWR)
  C:\KEIL_V5\C51\LIB\C51FPL.LIB (?C?FPSERIES)
  C:\KEIL_V5\C51\LIB\C51L.LIB (?C_STARTUP)
  C:\KEIL_V5\C51\LIB\C51L.LIB (?C?COPY)
  C:\KEIL_V5\C51\LIB\C51L.LIB (?C?CLDPTR)
  C:\KEIL_V5\C51\LIB\C51L.LIB (?C?CLDOPTR)
  C:\KEIL_V5\C51\LIB\C51L.LIB (?C?CSTPTR)
  C:\KEIL_V5\C51\LIB\C51L.LIB (?C?CSTOPTR)
  C:\KEIL_V5\C51\LIB\C51L.LIB (?C?IMUL)
  C:\KEIL_V5\C51\LIB\C51L.LIB (?C?IILDX)
  C:\KEIL_V5\C51\LIB\C51L.LIB (?C?LNEG)
  C:\KEIL_V5\C51\LIB\C51L.LIB (?C?SLCMP)
  C:\KEIL_V5\C51\LIB\C51L.LIB (?C?ULCMP)
  C:\KEIL_V5\C51\LIB\C51L.LIB (?C?ULSHR)
  C:\KEIL_V5\C51\LIB\C51L.LIB (?C?LSHL)
  C:\KEIL_V5\C51\LIB\C51L.LIB (?C?LLDCODE)
  C:\KEIL_V5\C51\LIB\C51L.LIB (?C?LLDXDATA0)
  C:\KEIL_V5\C51\LIB\C51L.LIB (?C?LLDCODE0)
BL51 BANKED LINKER/LOCATER V6.22.2.0                                                  10/01/2020  09:24:10  PAGE 2


  C:\KEIL_V5\C51\LIB\C51L.LIB (?C?LSTXDATA)
  C:\KEIL_V5\C51\LIB\C51L.LIB (?C?LSTKXDATA)
  C:\KEIL_V5\C51\LIB\C51L.LIB (?C?PLDIXDATA)
  C:\KEIL_V5\C51\LIB\C51L.LIB (?C?PSTXDATA)
  C:\KEIL_V5\C51\LIB\C51L.LIB (?C?CCASE)
  C:\KEIL_V5\C51\LIB\C51L.LIB (STRCAT)
  C:\KEIL_V5\C51\LIB\C51L.LIB (?C?STRCMP)
  C:\KEIL_V5\C51\LIB\C51L.LIB (?C?STRCPY)
  C:\KEIL_V5\C51\LIB\C51L.LIB (STRLEN)
  C:\KEIL_V5\C51\LIB\C51L.LIB (STRTOK)
  C:\KEIL_V5\C51\LIB\C51L.LIB (ATOL)
  C:\KEIL_V5\C51\LIB\C51L.LIB (ATOI)
  C:\KEIL_V5\C51\LIB\C51L.LIB (MALLOC)
  C:\KEIL_V5\C51\LIB\C51L.LIB (INIT_MEM)
  C:\KEIL_V5\C51\LIB\C51L.LIB (FREE)
  C:\KEIL_V5\C51\LIB\C51L.LIB (?C_INIT)
  C:\KEIL_V5\C51\LIB\C51L.LIB (?C?ILDIX)
  C:\KEIL_V5\C51\LIB\C51L.LIB (?C?LMUL)
  C:\KEIL_V5\C51\LIB\C51L.LIB (ISDIGIT)
  C:\KEIL_V5\C51\LIB\C51L.LIB (ISSPACE)
  C:\KEIL_V5\C51\LIB\C51L.LIB (STRSPN)
  C:\KEIL_V5\C51\LIB\C51L.LIB (STRPBRK)


LINK MAP OF MODULE:  .\Objects\expedidor_v_01_raspberry (MAIN)


            TYPE    BASE      LENGTH    RELOCATION   SEGMENT NAME
            -----------------------------------------------------

            * * * * * * *   D A T A   M E M O R Y   * * * * * * *
            REG     0000H     0008H     ABSOLUTE     "REG BANK 0"
            DATA    0008H     0005H     UNIT         _DATA_GROUP_
            DATA    000DH     0004H     UNIT         ?DT?UART
            IDATA   0011H     0009H     UNIT         ?ID?MONITOR
                    001AH     0006H                  *** GAP ***
            BIT     0020H.0   0001H.1   UNIT         _BIT_GROUP_
            BIT     0021H.1   0000H.2   UNIT         ?BI?MAIN
            BIT     0021H.3   0000H.2   UNIT         ?BI?UART
            BIT     0021H.5   0000H.1   UNIT         ?BI?EEPROM
            BIT     0021H.6   0000H.1   UNIT         ?BI?VERIFICADOR
                    0021H.7   0000H.1                *** GAP ***
            IDATA   0022H     0046H     UNIT         ?ID?MAIN
            IDATA   0068H     0001H     UNIT         ?STACK

            * * * * * * *  X D A T A   M E M O R Y  * * * * * * *
            XDATA   0000H     00B8H     UNIT         _XDATA_GROUP_
            XDATA   00B8H     008AH     UNIT         ?XD?VERIFICADOR
            XDATA   0142H     006BH     UNIT         ?XD?MAIN
            XDATA   01ADH     0059H     UNIT         ?XD?PROG
            XDATA   0206H     0050H     UNIT         ?XD?PANTALLAS
            XDATA   0256H     0008H     UNIT         ?XD?INIT_MEM
            XDATA   025EH     0003H     UNIT         ?XD?EEPROM
            XDATA   0261H     0003H     UNIT         ?XD?UART
            XDATA   0264H     0003H     UNIT         ?XD?STRTOK
            XDATA   0267H     0001H     UNIT         ?XD?ACCESCAN
            XDATA   0268H     0001H     UNIT         ?XD?CLOCK
BL51 BANKED LINKER/LOCATER V6.22.2.0                                                  10/01/2020  09:24:10  PAGE 3


            XDATA   0269H     0001H     UNIT         ?XD?IO_SENSORES

            * * * * * * *   C O D E   M E M O R Y   * * * * * * *
            CODE    0000H     0003H     ABSOLUTE     
            CODE    0003H     0008H     UNIT         ?PR?P_CK?CLOCK
            CODE    000BH     0003H     ABSOLUTE     
            CODE    000EH     0015H     UNIT         ?PR?_STRLEN?STRLEN
            CODE    0023H     0003H     ABSOLUTE     
            CODE    0026H     1308H     UNIT         ?CO?PROG
            CODE    132EH     0B8BH     UNIT         ?C?LIB_CODE
            CODE    1EB9H     072CH     UNIT         ?CO?VERIFICADOR
            CODE    25E5H     06F4H     UNIT         ?PR?_PANTALLALCD?PANTALLAS
            CODE    2CD9H     0656H     UNIT         ?CO?PANTALLAS
            CODE    332FH     0483H     UNIT         ?PR?PRINTF?PRINTF
            CODE    37B2H     0435H     UNIT         ?PR?_SECUENCIAEXPEDIDORMF?VERIFICADOR
            CODE    3BE7H     035CH     UNIT         ?PR?VER_PROG?PROG
            CODE    3F43H     033EH     UNIT         ?PR?_VALIDA_TRAMA_PTO?ACCESCAN
            CODE    4281H     02D0H     UNIT         ?PR?_TWO_BYTEHEX_DECIMAL?CLOCK
            CODE    4551H     02B7H     UNIT         ?PR?_PROG_HORARIO_DIAS?PROG
            CODE    4808H     02ABH     UNIT         ?PR?_PANTALLALCD_LINEA_2?PANTALLAS
            CODE    4AB3H     022CH     UNIT         ?PR?MENU?PROG
            CODE    4CDFH     0208H     UNIT         ?PR?_HASH_ID?PROG
            CODE    4EE7H     01FAH     UNIT         ?PR?_PROG_HORARIO_DESDE_HASTA?PROG
            CODE    50E1H     01F5H     UNIT         ?PR?PROG_FECHA_VENCIMIENTO?PROG
            CODE    52D6H     01DFH     UNIT         ?PR?_RESPONDE_LECTURA_TARJETA_SECTOR1_BLOQUE1?VERIFICADOR
            CODE    54B5H     01B3H     UNIT         ?PR?COM_ISR?UART
            CODE    5668H     01A9H     UNIT         ?PR?_ARMAR_TRAMA_PTO_PARALELO_EXPEDIDOR?VERIFICADOR
            CODE    5811H     01A1H     UNIT         ?PR?_VALIDA_TIPO_TARJETA?VERIFICADOR
            CODE    59B2H     017AH     UNIT         ?CO?LINTECH
            CODE    5B2CH     016EH     UNIT         ?PR?_BLOCK_READ_CLOCK_ASCII?CLOCK
            CODE    5C9AH     0166H     UNIT         ?PR?_POW?POW
            CODE    5E00H     0154H     UNIT         ?PR?_ARMAR_TRAMA_MONITOR?VERIFICADOR
            CODE    5F54H     0145H     UNIT         ?PR?PROG_HORARIOS?PROG
            CODE    6099H     0142H     UNIT         ?PR?_ARMAR_TRAMA_TARJETA_SECTOR1_BLOQUE2?VERIFICADOR
            CODE    61DBH     013FH     UNIT         ?PR?_FREE?FREE
            CODE    631AH     013EH     UNIT         ?PR?PROG_SIN_COBRO?PROG
            CODE    6458H     013EH     UNIT         ?PR?SECUENCIA_INICIO_EXPEDIDOR?VERIFICADOR
            CODE    6596H     0137H     UNIT         ?PR?VER_HORARIO?PROG
            CODE    66CDH     012BH     UNIT         ?PR?_RESPONDE_LECTURA_TARJETA_SECTOR1_BLOQUE2?VERIFICADOR
            CODE    67F8H     0129H     UNIT         ?PR?LOG?LOG
            CODE    6921H     0128H     UNIT         ?PR?_VER_HORARIO_DIAS?PROG
            CODE    6A49H     011CH     UNIT         ?PR?LOAD_AND_SEND_ID_COD?PTO_PARALELO
            CODE    6B65H     011AH     UNIT         ?PR?_PROG_HORARIOS_ON_OFF?PROG
            CODE    6C7FH     0119H     UNIT         ?PR?_VER_HORARIO_DESDE_HASTA?PROG
            CODE    6D98H     0115H     UNIT         ?PR?_VALIDAR_CLK?CLOCK
            CODE    6EADH     010FH     UNIT         ?PR?_HORARIOS?VERIFICADOR
            CODE    6FBCH     010CH     UNIT         ?PR?_ATOL?ATOL
            CODE    70C8H     0103H     UNIT         ?PR?_BLOQUE_HORARIO?VERIFICADOR
            CODE    71CBH     0100H     UNIT         ?PR?_WR_MF?LINTECH
            CODE    72CBH     00FCH     UNIT         ?PR?PROG_DEBUG?PROG
            CODE    73C7H     00FCH     UNIT         ?PR?PROG_USE_LPR?PROG
            CODE    74C3H     00FCH     UNIT         ?PR?TIPO_PANTALLA?PROG
            CODE    75BFH     00FCH     UNIT         ?PR?PROG_ANTIPASSBACK?PROG
            CODE    76BBH     00FCH     UNIT         ?PR?PROG_PLACA?PROG
            CODE    77B7H     00FCH     UNIT         ?PR?PROG_VALIDAR_TIPO_VEHICULO_MENSUAL?PROG
            CODE    78B3H     00FCH     UNIT         ?PR?PROG_APB_MENSUAL?PROG
            CODE    79AFH     00F1H     UNIT         ?PR?_WRITE_EEPROM_TICKET?EEPROM
BL51 BANKED LINKER/LOCATER V6.22.2.0                                                  10/01/2020  09:24:10  PAGE 4


            CODE    7AA0H     00EAH     UNIT         ?PR?_MOV_CARD?LINTECH
            CODE    7B8AH     00E4H     UNIT         ?PR?_STRTOK?STRTOK
            CODE    7C6EH     00DEH     UNIT         ?PR?PROG_ADDRESS_HIGH_BOARD?PROG
            CODE    7D4CH     00DBH     UNIT         ?PR?_ATOI?ATOI
            CODE    7E27H     00D7H     UNIT         ?PR?_ANALIZA_UID_CARD?VERIFICADOR
            CODE    7EFEH     00D6H     UNIT         ?PR?_CMD_LPR_SALIDA_WIEGAND?ACCESCAN
            CODE    7FD4H     00D1H     UNIT         ?PR?_ARMAR_TRAMA_PTO_PARALELO_EXPEDIDOR_MENSUAL?VERIFICADOR
            CODE    80A5H     00D1H     UNIT         ?PR?_MALLOC?MALLOC
            CODE    8176H     00CCH     UNIT         ?PR?_GRABA_SERIE?EEPROM
            CODE    8242H     00CBH     UNIT         ?PR?_RTA_CMD_TRANSPORTE?VERIFICADOR
            CODE    830DH     00CAH     UNIT         ?C_INITSEG
            CODE    83D7H     00CAH     UNIT         ?PR?READ_EEPROM_TICKET?EEPROM
            CODE    84A1H     00C9H     UNIT         ?PR?_CHECK_FECHAOUT?CLOCK
            CODE    856AH     00C4H     UNIT         ?PR?_BLOCK_READ_CLOCK?CLOCK
            CODE    862EH     00C4H     UNIT         ?PR?_TARJETA_MENSUAL?VERIFICADOR
            CODE    86F2H     00C3H     UNIT         ?PR?_RD_MF?LINTECH
            CODE    87B5H     00C2H     UNIT         ?PR?PROG_TARJETA_AUTOMATICA_O_BOTON?PROG
            CODE    8877H     00C1H     UNIT         ?PR?_RECIBE_CMD_MONITOR?MONITOR
            CODE    8938H     00BEH     UNIT         ?PR?ERROR_RX_PTO?VERIFICADOR
            CODE    89F6H     00BDH     UNIT         ?PR?PROG_COD_PARK?PROG
            CODE    8AB3H     00BDH     UNIT         ?PR?PROG_TIEMPO_GRACIA?PROG
            CODE    8B70H     00BAH     UNIT         ?CO?TIBBO
            CODE    8C2AH     00B6H     UNIT         ?PR?PROG_ID_CLIENTE?PROG
            CODE    8CE0H     00B4H     UNIT         ?PR?_SEND_PORT?PTO_PARALELO
            CODE    8D94H     00ADH     UNIT         ?CO?IO_SENSORES
            CODE    8E41H     00ACH     UNIT         ?PR?_HORA_MAXIMA?VERIFICADOR
            CODE    8EEDH     00AAH     UNIT         ?PR?CLAVE_SEGURIDAD_S2?LINTECH
            CODE    8F97H     00A9H     UNIT         ?PR?DWLOAD_EEPROM?LINTECH
            CODE    9040H     00A6H     UNIT         ?PR?_BLOCK_READ_CLOCK_HEX?CLOCK
            CODE    90E6H     00A3H     UNIT         ?PR?_WAIT_PLACA?VERIFICADOR
            CODE    9189H     009DH     UNIT         ?PR?_INICIALIZA?LINTECH
            CODE    9226H     009AH     UNIT         ?PR?_RESPONDE_LECTURA_TARJETA_SECTOR1_BLOQUE0?VERIFICADOR
            CODE    92C0H     009AH     UNIT         ?PR?EXP?EXP
            CODE    935AH     0099H     UNIT         ?PR?SHOW?PROG
            CODE    93F3H     0099H     UNIT         ?PR?_RECIBE_PORT?PTO_PARALELO
            CODE    948CH     0098H     UNIT         ?PR?_VALIDA_VEHICULO_CARD_MENSUAL?VERIFICADOR
            CODE    9524H     0095H     UNIT         ?PR?_VALIDA_TRAMA_MONITOR?MONITOR
            CODE    95B9H     0091H     UNIT         ?PR?_HEX_ASCII?CLOCK
            CODE    964AH     0091H     UNIT         ?PR?_CARD_INSERCION?LINTECH
            CODE    96DBH     0091H     UNIT         ?PR?LOADVERIFY_EEPROM?LINTECH
            CODE    976CH     0090H     UNIT         ?PR?_LEE_CLK?CLOCK
            CODE    97FCH     0090H     UNIT         ?PR?_GETOPTION?PROG
            CODE    988CH     008FH     UNIT         ?PR?_BLOCK_WRITE_CLOCK_ASCII?CLOCK
            CODE    991BH     008FH     UNIT         ?PR?_RESPONDE_WRITE_TARJETA_SECTOR1_BLOQUE2?VERIFICADOR
            CODE    99AAH     008CH     UNIT         ?C_C51STARTUP
            CODE    9A36H     0089H     UNIT         ?PR?_RASPBERRY_DATA?PANTALLAS
            CODE    9ABFH     0088H     UNIT         ?PR?_SEND_PORTERR?PTO_PARALELO
            CODE    9B47H     0088H     UNIT         ?PR?RX_DATA?TIBBO
            CODE    9BCFH     0088H     UNIT         ?PR?UNIQUE_IDENTIFIER_UID?LINTECH
            CODE    9C57H     0084H     UNIT         ?PR?_STRSPN?STRSPN
            CODE    9CDBH     0082H     UNIT         ?PR?_SEND_PTO_PARALELO?VERIFICADOR
            CODE    9D5DH     0081H     UNIT         ?PR?MAIN?MAIN
            CODE    9DDEH     0081H     UNIT         ?PR?_STRPBRK?STRPBRK
            CODE    9E5FH     0080H     UNIT         ?PR?MSJ_LCD_INFORMATIVO?IO_SENSORES
            CODE    9EDFH     0080H     UNIT         ?PR?_INGRESADATO?PROG
            CODE    9F5FH     0080H     UNIT         ?PR?AUT_CARD_CHECK_STATUS?LINTECH
            CODE    9FDFH     0080H     UNIT         ?PR?POWER_OFF?LINTECH
BL51 BANKED LINKER/LOCATER V6.22.2.0                                                  10/01/2020  09:24:10  PAGE 5


            CODE    A05FH     007CH     UNIT         ?PR?_CHECK_STATUS?LINTECH
            CODE    A0DBH     007CH     UNIT         ?PR?RESPONDE_ESTADO_SENSORES_TRANSPORTE?VERIFICADOR
            CODE    A157H     0079H     UNIT         ?PR?ENTREGA_CARD_CAPTURA?VERIFICADOR
            CODE    A1D0H     0073H     UNIT         ?PR?_DEBUGBUFFERMF?TIBBO
            CODE    A243H     0071H     UNIT         ?PR?RESPONDE_TIPO_TARJETA?VERIFICADOR
            CODE    A2B4H     0071H     UNIT         ?PR?_EN_HORARIO?VERIFICADOR
            CODE    A325H     006FH     UNIT         ?PR?_ESCRIBIRMEMORIA?EEPROM
            CODE    A394H     006BH     UNIT         ?PR?_STRCAT?STRCAT
            CODE    A3FFH     0066H     UNIT         ?PR?_LEERMEMORIA?EEPROM
            CODE    A465H     0066H     UNIT         ?PR?_DISPARO_LOCK_ENTRADA_VEHICULO?VERIFICADOR
            CODE    A4CBH     0062H     UNIT         ?PR?_LISTACOMANDOS?PROG
            CODE    A52DH     0061H     UNIT         ?PR?_PREGUNTA_LPR?VERIFICADOR
            CODE    A58EH     005EH     UNIT         ?PR?_BYTEHEX_DECIMAL?CLOCK
            CODE    A5ECH     005DH     UNIT         ?PR?_RESPUESTA_SEGUNDA_CLAVE?VERIFICADOR
            CODE    A649H     0059H     UNIT         ?PR?INGRESO_VEHICULO?VERIFICADOR
            CODE    A6A2H     0058H     UNIT         ?PR?VALIDA_SENSOR1_AUTO?IO_SENSORES
            CODE    A6FAH     0058H     UNIT         ?PR?_ARMAR_TRAMA_PLACA?VERIFICADOR
            CODE    A752H     0056H     UNIT         ?PR?_WR_EEPROM?EEPROM
            CODE    A7A8H     004EH     UNIT         ?PR?RELOJ_PANTALLA_LCD?PANTALLAS
            CODE    A7F6H     004DH     UNIT         ?PR?VARIABLE_INICIO?MAIN
            CODE    A843H     004DH     UNIT         ?PR?L_D_M?EEPROM
            CODE    A890H     004CH     UNIT         ?PR?LEE_NO_TICKET?EEPROM
            CODE    A8DCH     004BH     UNIT         ?PR?_TX_AUX?TIBBO
            CODE    A927H     0049H     UNIT         ?PR?_DEBUG_TXT_TIBBO?TIBBO
            CODE    A970H     0048H     UNIT         ?PR?FIRST_CLAVE?PROG
            CODE    A9B8H     0047H     UNIT         ?PR?_DEBUG_CHR_TIBBO?TIBBO
            CODE    A9FFH     0047H     UNIT         ?PR?_RESPONDE_WRITE_TARJETA_SECTOR2_BLOQUE0?VERIFICADOR
            CODE    AA46H     0046H     UNIT         ?PR?_ESCRIBIRCADENASOFT_BUFFER?MAIN
            CODE    AA8CH     0046H     UNIT         ?PR?_LCD_TXT_NUM_CHAR?PANTALLAS
            CODE    AAD2H     0046H     UNIT         ?PR?_DEBUG_HEXDEC?TIBBO
            CODE    AB18H     0044H     UNIT         ?PR?_LCD_TXT?PANTALLAS
            CODE    AB5CH     0043H     UNIT         ?PR?DIR_BOARD?IO_SENSORES
            CODE    AB9FH     0042H     UNIT         ?PR?_VALIDARCLAVE?PROG
            CODE    ABE1H     0041H     UNIT         ?PR?_MONITOR_CHR?ACCESCAN
            CODE    AC22H     0041H     UNIT         ?PR?_TWO_ONE?CLOCK
            CODE    AC63H     0040H     UNIT         ?PR?_GETCMD?PROG
            CODE    ACA3H     003FH     UNIT         ?PR?_EB_CLK?CLOCK
            CODE    ACE2H     003EH     UNIT         ?PR?_PUTCHAR?MAIN
            CODE    AD20H     003DH     UNIT         ?PR?_HEX_BCD?CLOCK
            CODE    AD5DH     003DH     UNIT         ?PR?_RD_EEPROM?EEPROM
            CODE    AD9AH     003DH     UNIT         ?PR?_LOAD_SECUENCIA_EXPEDIDOR?VERIFICADOR
            CODE    ADD7H     003CH     UNIT         ?PR?_INIT_MEMPOOL?INIT_MEM
            CODE    AE13H     003BH     UNIT         ?CO?EEPROM
            CODE    AE4EH     003BH     UNIT         ?PR?_DEBUG_PTO_PARALELO?TIBBO
            CODE    AE89H     003BH     UNIT         ?PR?_COM_PUTCHAR?UART
            CODE    AEC4H     003AH     UNIT         ?PR?_DELAY_10MS?DELAY
            CODE    AEFEH     0038H     UNIT         ?PR?VALIDASENSORESPASO?IO_SENSORES
            CODE    AF36H     0036H     UNIT         ?PR?_RESPONDE_WRITE_TARJETA_SECTOR1_BLOQUE0?VERIFICADOR
            CODE    AF6CH     0034H     UNIT         ?PR?INCREMENTE_TICKET?EEPROM
            CODE    AFA0H     0034H     UNIT         ?PR?ADDR_HORARIOS?PROG
            CODE    AFD4H     0033H     UNIT         ?PR?TRAMA_VALIDACION_P_N?VERIFICADOR
            CODE    B007H     0032H     UNIT         ?PR?_DEBUG_MONITOR?TIBBO
            CODE    B039H     0031H     UNIT         ?PR?_TARJETA_ROTACION?VERIFICADOR
            CODE    B06AH     002EH     UNIT         ?PR?TIMER0_INT?MAIN
            CODE    B098H     002CH     UNIT         ?PR?LOAD_AND_SEND_INFO_RELOJ?PTO_PARALELO
            CODE    B0C4H     002AH     UNIT         ?PR?COM_INITIALIZE?UART
            CODE    B0EEH     0028H     UNIT         ?PR?_WR_CLK?CLOCK
BL51 BANKED LINKER/LOCATER V6.22.2.0                                                  10/01/2020  09:24:10  PAGE 6


            CODE    B116H     0028H     UNIT         ?PR?COM_BAUDRATE?UART
            CODE    B13EH     0028H     UNIT         ?PR?_ARMAR_TRAMA_TARJETA_SECTOR1_BLOQUE0?VERIFICADOR
            CODE    B166H     0027H     UNIT         ?PR?_TX_CHRLCD?PANTALLAS
            CODE    B18DH     0026H     UNIT         ?PR?COM_GETCHAR?UART
            CODE    B1B3H     0026H     UNIT         ?PR?ANALIZA_PRESENCIA_MENSUAL?VERIFICADOR
            CODE    B1D9H     0026H     UNIT         ?PR?RX_MONITOR?MONITOR
            CODE    B1FFH     0023H     UNIT         ?PR?ANALIZA_PRESENCIA_ROTACION?VERIFICADOR
            CODE    B222H     0022H     UNIT         ?PR?_E_D_M?EEPROM
            CODE    B244H     0020H     UNIT         ?PR?ACKD?EEPROM
            CODE    B264H     0020H     UNIT         ?PR?ACK_LECT?EEPROM
            CODE    B284H     001FH     UNIT         ?PR?VALIDASENSOR?IO_SENSORES
            CODE    B2A3H     001FH     UNIT         ?PR?TIME_BIT?TIBBO
            CODE    B2C2H     001EH     UNIT         ?PR?_BCD_HEX?CLOCK
            CODE    B2E0H     001BH     UNIT         ?PR?_DELAY_1MS?DELAY
            CODE    B2FBH     0018H     UNIT         ?PR?CLEAR_PLACA?MONITOR
            CODE    B313H     0017H     UNIT         ?PR?DISPLAYCURSOR?PROG
            CODE    B32AH     0017H     UNIT         ?PR?TIME_MBIT?TIBBO
            CODE    B341H     0016H     UNIT         ?PR?DIR_BOARD_MONITOR?IO_SENSORES
            CODE    B357H     0014H     UNIT         ?PR?DEBUG_DIVIDIR_TEXTO?TIBBO
            CODE    B36BH     0014H     UNIT         ?PR?_ISSPACE?ISSPACE
            CODE    B37FH     0012H     UNIT         ?PR?_DELAY_20US?DELAY
            CODE    B391H     0012H     UNIT         ?PR?START?EEPROM
            CODE    B3A3H     0012H     UNIT         ?PR?PULSO_BUS?PTO_PARALELO
            CODE    B3B5H     0012H     UNIT         ?PR?COM_RBUFLEN?UART
            CODE    B3C7H     0012H     UNIT         ?PR?COM_TBUFLEN?UART
            CODE    B3D9H     0010H     UNIT         ?PR?INI_TIMER?MAIN
            CODE    B3E9H     0010H     UNIT         ?PR?INICIA_BOARD?MAIN
            CODE    B3F9H     000FH     UNIT         ?PR?_ISDIGIT?ISDIGIT
            CODE    B408H     000CH     UNIT         ?PR?_GETKEY?MAIN
            CODE    B414H     000AH     UNIT         ?PR?COND_INI_PTO?PTO_PARALELO
            CODE    B41EH     0009H     UNIT         ?PR?STOP?EEPROM
            CODE    B427H     0009H     UNIT         ?PR?CAPTURA_EXPULSA?VERIFICADOR
            CODE    B430H     0007H     UNIT         ?PR?COND_INI_CLOCK?CLOCK
            CODE    B437H     0007H     UNIT         ?PR?SEL_FUNCION?IO_SENSORES
            CODE    B43EH     0007H     UNIT         ?PR?SEL_AUTO?IO_SENSORES
            CODE    B445H     0007H     UNIT         ?PR?SEL_PULSA?IO_SENSORES
            CODE    B44CH     0007H     UNIT         ?PR?SEL_SENSOR2?IO_SENSORES
            CODE    B453H     0007H     UNIT         ?PR?SEL_SENSOR1?IO_SENSORES
            CODE    B45AH     0007H     UNIT         ?PR?SEL_DIR1?IO_SENSORES
            CODE    B461H     0007H     UNIT         ?PR?SEL_DIR2?IO_SENSORES
            CODE    B468H     0006H     UNIT         ?PR?P_ME?EEPROM
            CODE    B46EH     0005H     UNIT         ?PR?ON_TIMER0_INTERRUP?MAIN
            CODE    B473H     0005H     UNIT         ?CO?ACCESCAN
            CODE    B478H     0005H     UNIT         ?PR?COND_INI_TIBBO?TIBBO
            CODE    B47DH     0003H     UNIT         ?PR?OFF_TIMER0_INTERRUP?MAIN
            CODE    B480H     0003H     UNIT         ?CO?PTO_PARALELO
            CODE    B483H     0001H     UNIT         ?PR?DELAY?DELAY



OVERLAY MAP OF MODULE:   .\Objects\expedidor_v_01_raspberry (MAIN)


SEGMENT                                             BIT_GROUP          DATA_GROUP          XDATA_GROUP
  +--> CALLED SEGMENT                            START    LENGTH     START    LENGTH     START    LENGTH
--------------------------------------------------------------------------------------------------------
?C_C51STARTUP                                    -----    -----      -----    -----      -----    -----
BL51 BANKED LINKER/LOCATER V6.22.2.0                                                  10/01/2020  09:24:10  PAGE 7


  +--> ?PR?MAIN?MAIN
  +--> ?C_INITSEG

?PR?MAIN?MAIN                                    -----    -----      -----    -----      0000H    0002H
  +--> ?PR?INI_TIMER?MAIN
  +--> ?PR?ON_TIMER0_INTERRUP?MAIN
  +--> ?PR?COM_INITIALIZE?UART
  +--> ?PR?COM_BAUDRATE?UART
  +--> ?PR?INICIA_BOARD?MAIN
  +--> ?PR?TIME_BIT?TIBBO
  +--> ?PR?_DELAY_20US?DELAY
  +--> ?PR?TIME_MBIT?TIBBO
  +--> ?PR?_TX_AUX?TIBBO
  +--> ?PR?SEL_FUNCION?IO_SENSORES
  +--> ?PR?MENU?PROG
  +--> ?PR?VARIABLE_INICIO?MAIN
  +--> ?PR?SECUENCIA_INICIO_EXPEDIDOR?VERIFI...
  +--> ?PR?RX_MONITOR?MONITOR
  +--> ?PR?_SECUENCIAEXPEDIDORMF?VERIFICADOR
  +--> ?PR?_RECIBE_PORT?PTO_PARALELO
  +--> ?PR?_DEBUG_PTO_PARALELO?TIBBO
  +--> ?PR?_VALIDA_TRAMA_PTO?ACCESCAN
  +--> ?PR?MSJ_LCD_INFORMATIVO?IO_SENSORES

?PR?COM_INITIALIZE?UART                          -----    -----      -----    -----      -----    -----
  +--> ?PR?COM_BAUDRATE?UART

?PR?INICIA_BOARD?MAIN                            -----    -----      -----    -----      -----    -----
  +--> ?PR?COND_INI_TIBBO?TIBBO
  +--> ?PR?COND_INI_CLOCK?CLOCK
  +--> ?PR?COND_INI_PTO?PTO_PARALELO

?PR?_TX_AUX?TIBBO                                -----    -----      -----    -----      -----    -----
  +--> ?PR?TIME_BIT?TIBBO

?PR?MENU?PROG                                    -----    -----      -----    -----      0002H    0045H
  +--> ?CO?PROG
  +--> ?PR?PRINTF?PRINTF
  +--> ?PR?_RD_EEPROM?EEPROM
  +--> ?PR?FIRST_CLAVE?PROG
  +--> ?PR?_WR_EEPROM?EEPROM
  +--> ?PR?_LEERMEMORIA?EEPROM
  +--> ?PR?_HASH_ID?PROG
  +--> ?PR?_INGRESADATO?PROG
  +--> ?PR?_GETCMD?PROG
  +--> ?PR?_ESCRIBIRMEMORIA?EEPROM
  +--> ?PR?_VALIDARCLAVE?PROG
  +--> ?PR?DISPLAYCURSOR?PROG
  +--> ?PR?_STRLEN?STRLEN
  +--> ?PR?_GETOPTION?PROG
  +--> ?PR?_STRCAT?STRCAT
  +--> ?PR?_LISTACOMANDOS?PROG
  +--> ?PR?PROG_ID_CLIENTE?PROG
  +--> ?PR?PROG_COD_PARK?PROG
  +--> ?PR?PROG_TIEMPO_GRACIA?PROG
  +--> ?PR?PROG_SIN_COBRO?PROG
  +--> ?PR?PROG_DEBUG?PROG
BL51 BANKED LINKER/LOCATER V6.22.2.0                                                  10/01/2020  09:24:10  PAGE 8


  +--> ?PR?PROG_USE_LPR?PROG
  +--> ?PR?TIPO_PANTALLA?PROG
  +--> ?PR?PROG_TARJETA_AUTOMATICA_O_BOTON?PROG
  +--> ?PR?PROG_ANTIPASSBACK?PROG
  +--> ?PR?PROG_PLACA?PROG
  +--> ?PR?PROG_ADDRESS_HIGH_BOARD?PROG
  +--> ?PR?PROG_HORARIOS?PROG
  +--> ?PR?PROG_VALIDAR_TIPO_VEHICULO_MENSUA...
  +--> ?PR?PROG_APB_MENSUAL?PROG
  +--> ?PR?VER_PROG?PROG
  +--> ?PR?SHOW?PROG
  +--> ?PR?PROG_FECHA_VENCIMIENTO?PROG

?PR?PRINTF?PRINTF                                0020H.0  0001H.1    0008H    0005H      0078H    0030H
  +--> ?PR?_PUTCHAR?MAIN

?PR?_PUTCHAR?MAIN                                -----    -----      -----    -----      00A8H    0003H
  +--> ?PR?_COM_PUTCHAR?UART

?PR?_COM_PUTCHAR?UART                            -----    -----      -----    -----      00ABH    0001H
  +--> ?PR?COM_TBUFLEN?UART

?PR?_RD_EEPROM?EEPROM                            -----    -----      -----    -----      -----    -----
  +--> ?PR?START?EEPROM
  +--> ?PR?ACK_LECT?EEPROM
  +--> ?PR?_E_D_M?EEPROM
  +--> ?PR?ACKD?EEPROM
  +--> ?PR?L_D_M?EEPROM
  +--> ?PR?STOP?EEPROM

?PR?ACK_LECT?EEPROM                              -----    -----      -----    -----      -----    -----
  +--> ?PR?_E_D_M?EEPROM

?PR?_E_D_M?EEPROM                                -----    -----      -----    -----      -----    -----
  +--> ?PR?P_ME?EEPROM

?PR?ACKD?EEPROM                                  -----    -----      -----    -----      -----    -----
  +--> ?PR?_E_D_M?EEPROM

?PR?FIRST_CLAVE?PROG                             -----    -----      -----    -----      0047H    000BH
  +--> ?PR?_BLOCK_READ_CLOCK_ASCII?CLOCK
  +--> ?PR?_HASH_ID?PROG
  +--> ?PR?_ESCRIBIRMEMORIA?EEPROM

?PR?_BLOCK_READ_CLOCK_ASCII?CLOCK                -----    -----      -----    -----      0052H    0003H
  +--> ?PR?_LEE_CLK?CLOCK

?PR?_LEE_CLK?CLOCK                               -----    -----      -----    -----      00B2H    0003H
  +--> ?PR?_DELAY_20US?DELAY
  +--> ?PR?_EB_CLK?CLOCK
  +--> ?PR?P_CK?CLOCK

?PR?_EB_CLK?CLOCK                                -----    -----      -----    -----      00B5H    0003H
  +--> ?PR?P_CK?CLOCK

?PR?P_CK?CLOCK                                   -----    -----      -----    -----      -----    -----
  +--> ?PR?DELAY?DELAY
BL51 BANKED LINKER/LOCATER V6.22.2.0                                                  10/01/2020  09:24:10  PAGE 9



?PR?_HASH_ID?PROG                                -----    -----      -----    -----      005EH    003FH
  +--> ?CO?PROG
  +--> ?PR?_LEERMEMORIA?EEPROM
  +--> ?PR?_CHECK_FECHAOUT?CLOCK
  +--> ?PR?_STRLEN?STRLEN

?PR?_LEERMEMORIA?EEPROM                          -----    -----      -----    -----      009DH    0005H
  +--> ?PR?_RD_EEPROM?EEPROM

?PR?_CHECK_FECHAOUT?CLOCK                        -----    -----      -----    -----      009DH    0012H
  +--> ?PR?_BLOCK_READ_CLOCK_HEX?CLOCK

?PR?_BLOCK_READ_CLOCK_HEX?CLOCK                  -----    -----      -----    -----      00AFH    0003H
  +--> ?PR?_LEE_CLK?CLOCK
  +--> ?PR?_BCD_HEX?CLOCK

?PR?_ESCRIBIRMEMORIA?EEPROM                      -----    -----      -----    -----      005EH    0005H
  +--> ?PR?_WR_EEPROM?EEPROM

?PR?_WR_EEPROM?EEPROM                            -----    -----      -----    -----      -----    -----
  +--> ?PR?START?EEPROM
  +--> ?PR?ACKD?EEPROM
  +--> ?PR?_E_D_M?EEPROM
  +--> ?PR?STOP?EEPROM
  +--> ?PR?_DELAY_1MS?DELAY
  +--> ?PR?_DELAY_20US?DELAY

?PR?_DELAY_1MS?DELAY                             -----    -----      -----    -----      -----    -----
  +--> ?PR?_DELAY_20US?DELAY

?PR?_INGRESADATO?PROG                            -----    -----      -----    -----      0072H    0004H
  +--> ?PR?_GETKEY?MAIN
  +--> ?CO?PROG
  +--> ?PR?PRINTF?PRINTF
  +--> ?PR?_PUTCHAR?MAIN

?PR?_GETKEY?MAIN                                 -----    -----      -----    -----      -----    -----
  +--> ?PR?COM_GETCHAR?UART

?PR?COM_GETCHAR?UART                             -----    -----      -----    -----      -----    -----
  +--> ?PR?COM_RBUFLEN?UART

?PR?_GETCMD?PROG                                 -----    -----      -----    -----      005EH    0007H
  +--> ?CO?PROG
  +--> ?PR?_STRTOK?STRTOK

?PR?_STRTOK?STRTOK                               -----    -----      -----    -----      0065H    0006H
  +--> ?PR?_STRSPN?STRSPN
  +--> ?PR?_STRPBRK?STRPBRK

?PR?_STRSPN?STRSPN                               -----    -----      -----    -----      006BH    0008H

?PR?_STRPBRK?STRPBRK                             -----    -----      -----    -----      006BH    0009H

?PR?_VALIDARCLAVE?PROG                           -----    -----      -----    -----      005EH    000EH

BL51 BANKED LINKER/LOCATER V6.22.2.0                                                  10/01/2020  09:24:10  PAGE 10


?PR?DISPLAYCURSOR?PROG                           -----    -----      -----    -----      -----    -----
  +--> ?CO?PROG
  +--> ?PR?PRINTF?PRINTF

?PR?_GETOPTION?PROG                              -----    -----      -----    -----      0047H    000BH
  +--> ?CO?PROG
  +--> ?PR?_STRTOK?STRTOK

?PR?_STRCAT?STRCAT                               -----    -----      -----    -----      0047H    0009H

?PR?_LISTACOMANDOS?PROG                          -----    -----      -----    -----      0047H    0007H

?PR?PROG_ID_CLIENTE?PROG                         -----    -----      -----    -----      0047H    000CH
  +--> ?PR?_RD_EEPROM?EEPROM
  +--> ?CO?PROG
  +--> ?PR?PRINTF?PRINTF
  +--> ?PR?_INGRESADATO?PROG
  +--> ?PR?_ATOI?ATOI
  +--> ?PR?_WR_EEPROM?EEPROM

?PR?_ATOI?ATOI                                   0020H.0  0000H.1    -----    -----      0072H    0005H
  +--> ?PR?_ISSPACE?ISSPACE
  +--> ?PR?_ISDIGIT?ISDIGIT

?PR?PROG_COD_PARK?PROG                           -----    -----      -----    -----      0047H    000CH
  +--> ?PR?_RD_EEPROM?EEPROM
  +--> ?CO?PROG
  +--> ?PR?PRINTF?PRINTF
  +--> ?PR?_INGRESADATO?PROG
  +--> ?PR?_ATOI?ATOI
  +--> ?PR?_WR_EEPROM?EEPROM

?PR?PROG_TIEMPO_GRACIA?PROG                      -----    -----      -----    -----      0047H    000CH
  +--> ?PR?_RD_EEPROM?EEPROM
  +--> ?CO?PROG
  +--> ?PR?PRINTF?PRINTF
  +--> ?PR?_INGRESADATO?PROG
  +--> ?PR?_ATOI?ATOI
  +--> ?PR?_WR_EEPROM?EEPROM

?PR?PROG_SIN_COBRO?PROG                          -----    -----      -----    -----      0047H    000CH
  +--> ?PR?_RD_EEPROM?EEPROM
  +--> ?CO?PROG
  +--> ?PR?PRINTF?PRINTF
  +--> ?PR?_INGRESADATO?PROG
  +--> ?PR?_ATOI?ATOI
  +--> ?PR?_WR_EEPROM?EEPROM

?PR?PROG_DEBUG?PROG                              -----    -----      -----    -----      0047H    000CH
  +--> ?PR?_RD_EEPROM?EEPROM
  +--> ?CO?PROG
  +--> ?PR?PRINTF?PRINTF
  +--> ?PR?_INGRESADATO?PROG
  +--> ?PR?_ATOI?ATOI
  +--> ?PR?_WR_EEPROM?EEPROM

?PR?PROG_USE_LPR?PROG                            -----    -----      -----    -----      0047H    000CH
BL51 BANKED LINKER/LOCATER V6.22.2.0                                                  10/01/2020  09:24:10  PAGE 11


  +--> ?PR?_RD_EEPROM?EEPROM
  +--> ?CO?PROG
  +--> ?PR?PRINTF?PRINTF
  +--> ?PR?_INGRESADATO?PROG
  +--> ?PR?_ATOI?ATOI
  +--> ?PR?_WR_EEPROM?EEPROM

?PR?TIPO_PANTALLA?PROG                           -----    -----      -----    -----      0047H    000CH
  +--> ?PR?_RD_EEPROM?EEPROM
  +--> ?CO?PROG
  +--> ?PR?PRINTF?PRINTF
  +--> ?PR?_INGRESADATO?PROG
  +--> ?PR?_ATOI?ATOI
  +--> ?PR?_WR_EEPROM?EEPROM

?PR?PROG_TARJETA_AUTOMATICA_O_BOTON?PROG         -----    -----      -----    -----      0047H    000CH
  +--> ?PR?_RD_EEPROM?EEPROM
  +--> ?CO?PROG
  +--> ?PR?PRINTF?PRINTF
  +--> ?PR?_INGRESADATO?PROG
  +--> ?PR?_ATOI?ATOI
  +--> ?PR?_WR_EEPROM?EEPROM

?PR?PROG_ANTIPASSBACK?PROG                       -----    -----      -----    -----      0047H    000CH
  +--> ?PR?_RD_EEPROM?EEPROM
  +--> ?CO?PROG
  +--> ?PR?PRINTF?PRINTF
  +--> ?PR?_INGRESADATO?PROG
  +--> ?PR?_ATOI?ATOI
  +--> ?PR?_WR_EEPROM?EEPROM

?PR?PROG_PLACA?PROG                              -----    -----      -----    -----      0047H    000CH
  +--> ?PR?_RD_EEPROM?EEPROM
  +--> ?CO?PROG
  +--> ?PR?PRINTF?PRINTF
  +--> ?PR?_INGRESADATO?PROG
  +--> ?PR?_ATOI?ATOI
  +--> ?PR?_WR_EEPROM?EEPROM

?PR?PROG_ADDRESS_HIGH_BOARD?PROG                 -----    -----      -----    -----      0047H    000CH
  +--> ?PR?_RD_EEPROM?EEPROM
  +--> ?CO?PROG
  +--> ?PR?PRINTF?PRINTF
  +--> ?PR?_INGRESADATO?PROG
  +--> ?PR?_ATOI?ATOI
  +--> ?PR?_WR_EEPROM?EEPROM

?PR?PROG_HORARIOS?PROG                           -----    -----      -----    -----      0047H    001BH
  +--> ?PR?ADDR_HORARIOS?PROG
  +--> ?CO?PROG
  +--> ?PR?PRINTF?PRINTF
  +--> ?PR?_INGRESADATO?PROG
  +--> ?PR?_ATOI?ATOI
  +--> ?PR?_PROG_HORARIOS_ON_OFF?PROG
  +--> ?PR?_WR_EEPROM?EEPROM
  +--> ?PR?_PROG_HORARIO_DIAS?PROG
  +--> ?PR?_PROG_HORARIO_DESDE_HASTA?PROG
BL51 BANKED LINKER/LOCATER V6.22.2.0                                                  10/01/2020  09:24:10  PAGE 12


  +--> ?PR?_RD_EEPROM?EEPROM

?PR?ADDR_HORARIOS?PROG                           -----    -----      -----    -----      0075H    000BH

?PR?_PROG_HORARIOS_ON_OFF?PROG                   -----    -----      -----    -----      0062H    0010H
  +--> ?PR?_RD_EEPROM?EEPROM
  +--> ?CO?PROG
  +--> ?PR?PRINTF?PRINTF
  +--> ?PR?_INGRESADATO?PROG
  +--> ?PR?_ATOI?ATOI
  +--> ?PR?_WR_EEPROM?EEPROM

?PR?_PROG_HORARIO_DIAS?PROG                      -----    -----      -----    -----      0062H    000FH
  +--> ?CO?PROG
  +--> ?PR?PRINTF?PRINTF
  +--> ?PR?_INGRESADATO?PROG
  +--> ?PR?_WR_EEPROM?EEPROM
  +--> ?PR?_RD_EEPROM?EEPROM

?PR?_PROG_HORARIO_DESDE_HASTA?PROG               -----    -----      -----    -----      0062H    000CH
  +--> ?CO?PROG
  +--> ?PR?PRINTF?PRINTF
  +--> ?PR?_INGRESADATO?PROG
  +--> ?PR?_WR_EEPROM?EEPROM
  +--> ?PR?_RD_EEPROM?EEPROM

?PR?PROG_VALIDAR_TIPO_VEHICULO_MENSUA...         -----    -----      -----    -----      0047H    000CH
  +--> ?PR?_RD_EEPROM?EEPROM
  +--> ?CO?PROG
  +--> ?PR?PRINTF?PRINTF
  +--> ?PR?_INGRESADATO?PROG
  +--> ?PR?_ATOI?ATOI
  +--> ?PR?_WR_EEPROM?EEPROM

?PR?PROG_APB_MENSUAL?PROG                        -----    -----      -----    -----      0047H    000CH
  +--> ?PR?_RD_EEPROM?EEPROM
  +--> ?CO?PROG
  +--> ?PR?PRINTF?PRINTF
  +--> ?PR?_INGRESADATO?PROG
  +--> ?PR?_ATOI?ATOI
  +--> ?PR?_WR_EEPROM?EEPROM

?PR?VER_PROG?PROG                                -----    -----      -----    -----      0047H    0013H
  +--> ?PR?_RD_EEPROM?EEPROM
  +--> ?CO?PROG
  +--> ?PR?PRINTF?PRINTF
  +--> ?PR?VER_HORARIO?PROG
  +--> ?PR?_LEERMEMORIA?EEPROM
  +--> ?PR?_HEX_ASCII?CLOCK

?PR?VER_HORARIO?PROG                             -----    -----      -----    -----      005AH    001BH
  +--> ?PR?ADDR_HORARIOS?PROG
  +--> ?CO?PROG
  +--> ?PR?PRINTF?PRINTF
  +--> ?PR?_RD_EEPROM?EEPROM
  +--> ?PR?_VER_HORARIO_DIAS?PROG
  +--> ?PR?_VER_HORARIO_DESDE_HASTA?PROG
BL51 BANKED LINKER/LOCATER V6.22.2.0                                                  10/01/2020  09:24:10  PAGE 13



?PR?_VER_HORARIO_DIAS?PROG                       -----    -----      -----    -----      0075H    0003H
  +--> ?PR?_RD_EEPROM?EEPROM
  +--> ?CO?PROG
  +--> ?PR?PRINTF?PRINTF

?PR?_VER_HORARIO_DESDE_HASTA?PROG                -----    -----      -----    -----      0075H    0002H
  +--> ?CO?PROG
  +--> ?PR?PRINTF?PRINTF
  +--> ?PR?_RD_EEPROM?EEPROM

?PR?_HEX_ASCII?CLOCK                             -----    -----      -----    -----      005EH    0006H
  +--> ?PR?_HEX_BCD?CLOCK

?PR?SHOW?PROG                                    -----    -----      -----    -----      -----    -----
  +--> ?CO?PROG
  +--> ?PR?PRINTF?PRINTF

?PR?PROG_FECHA_VENCIMIENTO?PROG                  -----    -----      -----    -----      0047H    0017H
  +--> ?PR?_LEERMEMORIA?EEPROM
  +--> ?PR?_HEX_ASCII?CLOCK
  +--> ?CO?PROG
  +--> ?PR?PRINTF?PRINTF
  +--> ?PR?_HASH_ID?PROG
  +--> ?PR?_INGRESADATO?PROG
  +--> ?PR?_GETCMD?PROG
  +--> ?PR?_ESCRIBIRMEMORIA?EEPROM
  +--> ?PR?_VALIDARCLAVE?PROG
  +--> ?PR?_ATOI?ATOI
  +--> ?PR?_WR_EEPROM?EEPROM

?PR?VARIABLE_INICIO?MAIN                         -----    -----      -----    -----      -----    -----
  +--> ?PR?_RD_EEPROM?EEPROM

?PR?SECUENCIA_INICIO_EXPEDIDOR?VERIFI...         -----    -----      -----    -----      0002H    0001H
  +--> ?PR?_INICIALIZA?LINTECH
  +--> ?PR?TRAMA_VALIDACION_P_N?VERIFICADOR
  +--> ?CO?VERIFICADOR
  +--> ?PR?_DEBUG_TXT_TIBBO?TIBBO
  +--> ?PR?_DEBUGBUFFERMF?TIBBO
  +--> ?PR?DWLOAD_EEPROM?LINTECH

?PR?_INICIALIZA?LINTECH                          -----    -----      -----    -----      0003H    000CH
  +--> ?CO?LINTECH
  +--> ?PR?_DEBUG_TXT_TIBBO?TIBBO
  +--> ?PR?_DEBUGBUFFERMF?TIBBO
  +--> ?PR?_ESCRIBIRCADENASOFT_BUFFER?MAIN

?PR?_DEBUG_TXT_TIBBO?TIBBO                       -----    -----      -----    -----      0038H    0004H
  +--> ?PR?_DEBUG_CHR_TIBBO?TIBBO
  +--> ?CO?TIBBO
  +--> ?PR?_TX_AUX?TIBBO

?PR?_DEBUG_CHR_TIBBO?TIBBO                       -----    -----      -----    -----      -----    -----
  +--> ?PR?_TX_AUX?TIBBO

?PR?_DEBUGBUFFERMF?TIBBO                         -----    -----      -----    -----      0028H    0006H
BL51 BANKED LINKER/LOCATER V6.22.2.0                                                  10/01/2020  09:24:10  PAGE 14


  +--> ?CO?TIBBO
  +--> ?PR?_DEBUG_TXT_TIBBO?TIBBO
  +--> ?PR?_DEBUG_CHR_TIBBO?TIBBO
  +--> ?PR?_TX_AUX?TIBBO

?PR?_ESCRIBIRCADENASOFT_BUFFER?MAIN              -----    -----      -----    -----      0028H    0006H
  +--> ?PR?_PUTCHAR?MAIN

?PR?TRAMA_VALIDACION_P_N?VERIFICADOR             -----    -----      -----    -----      -----    -----
  +--> ?CO?VERIFICADOR
  +--> ?PR?_DEBUG_TXT_TIBBO?TIBBO

?PR?DWLOAD_EEPROM?LINTECH                        -----    -----      -----    -----      0003H    0016H
  +--> ?CO?LINTECH
  +--> ?PR?_DEBUG_TXT_TIBBO?TIBBO
  +--> ?PR?_DEBUGBUFFERMF?TIBBO
  +--> ?PR?_ESCRIBIRCADENASOFT_BUFFER?MAIN

?PR?RX_MONITOR?MONITOR                           -----    -----      -----    -----      0008H    000DH
  +--> ?PR?_RECIBE_CMD_MONITOR?MONITOR
  +--> ?PR?_DEBUG_MONITOR?TIBBO
  +--> ?PR?_VALIDA_TRAMA_MONITOR?MONITOR

?PR?_RECIBE_CMD_MONITOR?MONITOR                  -----    -----      -----    -----      0015H    0009H
  +--> ?PR?RX_DATA?TIBBO

?PR?RX_DATA?TIBBO                                -----    -----      -----    -----      -----    -----
  +--> ?PR?TIME_MBIT?TIBBO
  +--> ?PR?TIME_BIT?TIBBO

?PR?_DEBUG_MONITOR?TIBBO                         -----    -----      -----    -----      0015H    0004H
  +--> ?PR?DEBUG_DIVIDIR_TEXTO?TIBBO
  +--> ?CO?TIBBO
  +--> ?PR?_DEBUG_TXT_TIBBO?TIBBO

?PR?DEBUG_DIVIDIR_TEXTO?TIBBO                    -----    -----      -----    -----      -----    -----
  +--> ?CO?TIBBO
  +--> ?PR?_DEBUG_TXT_TIBBO?TIBBO

?PR?_VALIDA_TRAMA_MONITOR?MONITOR                -----    -----      -----    -----      0015H    0003H

?PR?_SECUENCIAEXPEDIDORMF?VERIFICADOR            -----    -----      -----    -----      0002H    0001H
  +--> ?PR?_CHECK_STATUS?LINTECH
  +--> ?PR?_LOAD_SECUENCIA_EXPEDIDOR?VERIFIC...
  +--> ?PR?_RTA_CMD_TRANSPORTE?VERIFICADOR
  +--> ?PR?RESPONDE_ESTADO_SENSORES_TRANSPOR...
  +--> ?PR?RESPONDE_TIPO_TARJETA?VERIFICADOR
  +--> ?PR?_RESPONDE_LECTURA_TARJETA_SECTOR1...
  +--> ?PR?_RESPONDE_LECTURA_TARJETA_SECTOR1...
  +--> ?PR?_RESPONDE_LECTURA_TARJETA_SECTOR1...
  +--> ?PR?_RESPONDE_WRITE_TARJETA_SECTOR1_B...
  +--> ?PR?_RESPONDE_WRITE_TARJETA_SECTOR2_B...
  +--> ?PR?_RESPONDE_WRITE_TARJETA_SECTOR1_B...
  +--> ?PR?_DISPARO_LOCK_ENTRADA_VEHICULO?VE...
  +--> ?PR?_RESPUESTA_SEGUNDA_CLAVE?VERIFICADOR
  +--> ?PR?ANALIZA_PRESENCIA_MENSUAL?VERIFIC...
  +--> ?PR?_ANALIZA_UID_CARD?VERIFICADOR
BL51 BANKED LINKER/LOCATER V6.22.2.0                                                  10/01/2020  09:24:10  PAGE 15


  +--> ?CO?VERIFICADOR
  +--> ?PR?_DEBUG_TXT_TIBBO?TIBBO
  +--> ?PR?_MOV_CARD?LINTECH
  +--> ?PR?_CARD_INSERCION?LINTECH
  +--> ?PR?AUT_CARD_CHECK_STATUS?LINTECH
  +--> ?PR?LOADVERIFY_EEPROM?LINTECH
  +--> ?PR?_RD_MF?LINTECH
  +--> ?PR?_WR_MF?LINTECH
  +--> ?PR?DWLOAD_EEPROM?LINTECH
  +--> ?PR?ENTREGA_CARD_CAPTURA?VERIFICADOR
  +--> ?PR?_SEND_PTO_PARALELO?VERIFICADOR
  +--> ?PR?_WAIT_PLACA?VERIFICADOR
  +--> ?PR?UNIQUE_IDENTIFIER_UID?LINTECH
  +--> ?PR?_PREGUNTA_LPR?VERIFICADOR
  +--> ?PR?_VALIDA_TIPO_TARJETA?VERIFICADOR
  +--> ?PR?ANALIZA_PRESENCIA_ROTACION?VERIFI...
  +--> ?PR?POWER_OFF?LINTECH

?PR?_CHECK_STATUS?LINTECH                        -----    -----      -----    -----      0003H    000BH
  +--> ?CO?LINTECH
  +--> ?PR?_DEBUG_TXT_TIBBO?TIBBO
  +--> ?PR?_DEBUGBUFFERMF?TIBBO
  +--> ?PR?_ESCRIBIRCADENASOFT_BUFFER?MAIN

?PR?_LOAD_SECUENCIA_EXPEDIDOR?VERIFIC...         -----    -----      -----    -----      0008H    0009H

?PR?_RTA_CMD_TRANSPORTE?VERIFICADOR              -----    -----      -----    -----      0003H    0005H
  +--> ?PR?TRAMA_VALIDACION_P_N?VERIFICADOR
  +--> ?CO?VERIFICADOR
  +--> ?PR?_DEBUG_TXT_TIBBO?TIBBO
  +--> ?PR?_DEBUGBUFFERMF?TIBBO
  +--> ?PR?ERROR_RX_PTO?VERIFICADOR

?PR?ERROR_RX_PTO?VERIFICADOR                     -----    -----      -----    -----      0008H    0001H
  +--> ?CO?VERIFICADOR
  +--> ?PR?_DEBUG_TXT_TIBBO?TIBBO
  +--> ?PR?_DEBUG_CHR_TIBBO?TIBBO
  +--> ?PR?_DELAY_10MS?DELAY

?PR?_DELAY_10MS?DELAY                            -----    -----      -----    -----      0009H    0004H
  +--> ?PR?_DELAY_1MS?DELAY

?PR?RESPONDE_ESTADO_SENSORES_TRANSPOR...         -----    -----      -----    -----      0003H    0001H
  +--> ?CO?VERIFICADOR
  +--> ?PR?_DEBUG_TXT_TIBBO?TIBBO
  +--> ?PR?_SEND_PORTERR?PTO_PARALELO
  +--> ?PR?INGRESO_VEHICULO?VERIFICADOR

?PR?_SEND_PORTERR?PTO_PARALELO                   -----    -----      -----    -----      002BH    0006H
  +--> ?PR?PULSO_BUS?PTO_PARALELO
  +--> ?PR?_DELAY_20US?DELAY

?PR?PULSO_BUS?PTO_PARALELO                       -----    -----      -----    -----      -----    -----
  +--> ?PR?_DELAY_20US?DELAY

?PR?INGRESO_VEHICULO?VERIFICADOR                 -----    -----      -----    -----      -----    -----
  +--> ?PR?VALIDASENSORESPASO?IO_SENSORES
BL51 BANKED LINKER/LOCATER V6.22.2.0                                                  10/01/2020  09:24:10  PAGE 16


  +--> ?PR?_RD_EEPROM?EEPROM
  +--> ?CO?VERIFICADOR
  +--> ?PR?_DEBUG_TXT_TIBBO?TIBBO
  +--> ?PR?_PANTALLALCD?PANTALLAS
  +--> ?PR?SEL_PULSA?IO_SENSORES

?PR?VALIDASENSORESPASO?IO_SENSORES               -----    -----      -----    -----      0011H    0001H
  +--> ?PR?SEL_SENSOR2?IO_SENSORES
  +--> ?PR?VALIDASENSOR?IO_SENSORES
  +--> ?PR?VALIDA_SENSOR1_AUTO?IO_SENSORES
  +--> ?CO?IO_SENSORES
  +--> ?PR?_DEBUG_TXT_TIBBO?TIBBO

?PR?VALIDA_SENSOR1_AUTO?IO_SENSORES              -----    -----      -----    -----      0012H    0001H
  +--> ?PR?SEL_SENSOR1?IO_SENSORES
  +--> ?PR?SEL_AUTO?IO_SENSORES
  +--> ?CO?IO_SENSORES
  +--> ?PR?_DEBUG_TXT_TIBBO?TIBBO

?PR?_PANTALLALCD?PANTALLAS                       -----    -----      -----    -----      002BH    000AH
  +--> ?CO?PANTALLAS
  +--> ?PR?_INIT_MEMPOOL?INIT_MEM
  +--> ?PR?_MALLOC?MALLOC
  +--> ?PR?_LCD_TXT?PANTALLAS
  +--> ?PR?_STRLEN?STRLEN
  +--> ?PR?_TX_CHRLCD?PANTALLAS
  +--> ?PR?_RASPBERRY_DATA?PANTALLAS
  +--> ?PR?_FREE?FREE

?PR?_MALLOC?MALLOC                               -----    -----      -----    -----      0035H    0006H

?PR?_LCD_TXT?PANTALLAS                           -----    -----      -----    -----      0035H    0005H
  +--> ?PR?_TX_CHRLCD?PANTALLAS

?PR?_TX_CHRLCD?PANTALLAS                         -----    -----      -----    -----      003AH    0002H
  +--> ?PR?_PUTCHAR?MAIN

?PR?_RASPBERRY_DATA?PANTALLAS                    -----    -----      -----    -----      0035H    0006H
  +--> ?PR?_STRLEN?STRLEN
  +--> ?PR?_PUTCHAR?MAIN

?PR?_FREE?FREE                                   -----    -----      -----    -----      0035H    0006H

?PR?RESPONDE_TIPO_TARJETA?VERIFICADOR            -----    -----      -----    -----      0003H    0001H
  +--> ?CO?VERIFICADOR
  +--> ?PR?_DEBUG_TXT_TIBBO?TIBBO
  +--> ?PR?_SEND_PORTERR?PTO_PARALELO
  +--> ?PR?_PANTALLALCD?PANTALLAS
  +--> ?PR?CAPTURA_EXPULSA?VERIFICADOR

?PR?_RESPONDE_LECTURA_TARJETA_SECTOR1...         -----    -----      -----    -----      0003H    0016H
  +--> ?CO?VERIFICADOR
  +--> ?PR?_DEBUG_TXT_TIBBO?TIBBO
  +--> ?PR?_DEBUGBUFFERMF?TIBBO
  +--> ?PR?_RD_EEPROM?EEPROM
  +--> ?PR?_DEBUG_HEXDEC?TIBBO
  +--> ?PR?_DEBUG_CHR_TIBBO?TIBBO
BL51 BANKED LINKER/LOCATER V6.22.2.0                                                  10/01/2020  09:24:10  PAGE 17


  +--> ?PR?_SEND_PORTERR?PTO_PARALELO
  +--> ?PR?_PANTALLALCD?PANTALLAS
  +--> ?PR?CAPTURA_EXPULSA?VERIFICADOR

?PR?_DEBUG_HEXDEC?TIBBO                          -----    -----      -----    -----      0019H    0002H
  +--> ?PR?_TX_AUX?TIBBO

?PR?_RESPONDE_LECTURA_TARJETA_SECTOR1...         -----    -----      -----    -----      0003H    0004H
  +--> ?CO?VERIFICADOR
  +--> ?PR?_DEBUG_TXT_TIBBO?TIBBO
  +--> ?PR?CAPTURA_EXPULSA?VERIFICADOR

?PR?_RESPONDE_LECTURA_TARJETA_SECTOR1...         -----    -----      -----    -----      0003H    0015H
  +--> ?CO?VERIFICADOR
  +--> ?PR?_DEBUG_TXT_TIBBO?TIBBO
  +--> ?PR?_DEBUGBUFFERMF?TIBBO
  +--> ?PR?_DEBUG_CHR_TIBBO?TIBBO
  +--> ?PR?CAPTURA_EXPULSA?VERIFICADOR

?PR?_RESPONDE_WRITE_TARJETA_SECTOR1_B...         -----    -----      -----    -----      0003H    0007H
  +--> ?CO?VERIFICADOR
  +--> ?PR?_DEBUG_TXT_TIBBO?TIBBO
  +--> ?PR?_DEBUGBUFFERMF?TIBBO
  +--> ?PR?_ARMAR_TRAMA_TARJETA_SECTOR1_BLOQ...

?PR?_ARMAR_TRAMA_TARJETA_SECTOR1_BLOQ...         -----    -----      -----    -----      000AH    0003H
  +--> ?PR?LEE_NO_TICKET?EEPROM

?PR?LEE_NO_TICKET?EEPROM                         -----    -----      -----    -----      001EH    000BH
  +--> ?PR?READ_EEPROM_TICKET?EEPROM
  +--> ?CO?EEPROM
  +--> ?PR?PRINTF?PRINTF
  +--> ?PR?_STRLEN?STRLEN
  +--> ?PR?_DEBUG_TXT_TIBBO?TIBBO

?PR?READ_EEPROM_TICKET?EEPROM                    -----    -----      -----    -----      0029H    0007H
  +--> ?PR?_RD_EEPROM?EEPROM

?PR?_RESPONDE_WRITE_TARJETA_SECTOR2_B...         -----    -----      -----    -----      0003H    0003H
  +--> ?CO?VERIFICADOR
  +--> ?PR?_DEBUG_TXT_TIBBO?TIBBO
  +--> ?PR?_DEBUGBUFFERMF?TIBBO

?PR?_RESPONDE_WRITE_TARJETA_SECTOR1_B...         -----    -----      -----    -----      0003H    0003H
  +--> ?CO?VERIFICADOR
  +--> ?PR?_DEBUG_TXT_TIBBO?TIBBO
  +--> ?PR?_DEBUGBUFFERMF?TIBBO

?PR?_DISPARO_LOCK_ENTRADA_VEHICULO?VE...         -----    -----      -----    -----      0003H    0004H
  +--> ?CO?VERIFICADOR
  +--> ?PR?_DEBUG_TXT_TIBBO?TIBBO
  +--> ?PR?_PANTALLALCD?PANTALLAS
  +--> ?PR?_SEND_PORTERR?PTO_PARALELO
  +--> ?PR?_PANTALLALCD_LINEA_2?PANTALLAS
  +--> ?PR?VALIDA_SENSOR1_AUTO?IO_SENSORES

?PR?_PANTALLALCD_LINEA_2?PANTALLAS               -----    -----      -----    -----      0011H    000DH
BL51 BANKED LINKER/LOCATER V6.22.2.0                                                  10/01/2020  09:24:10  PAGE 18


  +--> ?CO?PANTALLAS
  +--> ?PR?_INIT_MEMPOOL?INIT_MEM
  +--> ?PR?_MALLOC?MALLOC
  +--> ?PR?_LCD_TXT?PANTALLAS
  +--> ?PR?_STRLEN?STRLEN
  +--> ?PR?_TX_CHRLCD?PANTALLAS
  +--> ?PR?_RASPBERRY_DATA?PANTALLAS
  +--> ?PR?LEE_NO_TICKET?EEPROM
  +--> ?PR?_STRCAT?STRCAT
  +--> ?PR?_FREE?FREE

?PR?_RESPUESTA_SEGUNDA_CLAVE?VERIFICADOR         -----    -----      -----    -----      0003H    0006H
  +--> ?CO?VERIFICADOR
  +--> ?PR?_DEBUG_TXT_TIBBO?TIBBO
  +--> ?PR?_DEBUGBUFFERMF?TIBBO
  +--> ?PR?_ARMAR_TRAMA_PLACA?VERIFICADOR

?PR?_ARMAR_TRAMA_PLACA?VERIFICADOR               -----    -----      -----    -----      0009H    0003H

?PR?ANALIZA_PRESENCIA_MENSUAL?VERIFIC...         -----    -----      -----    -----      0003H    0001H
  +--> ?PR?VALIDASENSORESPASO?IO_SENSORES
  +--> ?PR?_SEND_PORTERR?PTO_PARALELO
  +--> ?PR?_PANTALLALCD?PANTALLAS

?PR?_ANALIZA_UID_CARD?VERIFICADOR                -----    -----      -----    -----      0003H    0015H
  +--> ?CO?VERIFICADOR
  +--> ?PR?_DEBUG_TXT_TIBBO?TIBBO
  +--> ?PR?_DEBUGBUFFERMF?TIBBO
  +--> ?PR?_DEBUG_CHR_TIBBO?TIBBO

?PR?_MOV_CARD?LINTECH                            -----    -----      -----    -----      0003H    000CH
  +--> ?CO?LINTECH
  +--> ?PR?_DEBUG_TXT_TIBBO?TIBBO
  +--> ?PR?_DEBUGBUFFERMF?TIBBO
  +--> ?PR?_ESCRIBIRCADENASOFT_BUFFER?MAIN

?PR?_CARD_INSERCION?LINTECH                      -----    -----      -----    -----      0003H    000AH
  +--> ?CO?LINTECH
  +--> ?PR?_DEBUG_TXT_TIBBO?TIBBO
  +--> ?PR?_DEBUGBUFFERMF?TIBBO
  +--> ?PR?_ESCRIBIRCADENASOFT_BUFFER?MAIN

?PR?AUT_CARD_CHECK_STATUS?LINTECH                -----    -----      -----    -----      0003H    000BH
  +--> ?CO?LINTECH
  +--> ?PR?_DEBUG_TXT_TIBBO?TIBBO
  +--> ?PR?_DEBUGBUFFERMF?TIBBO
  +--> ?PR?_ESCRIBIRCADENASOFT_BUFFER?MAIN

?PR?LOADVERIFY_EEPROM?LINTECH                    -----    -----      -----    -----      0003H    0010H
  +--> ?CO?LINTECH
  +--> ?PR?_DEBUG_TXT_TIBBO?TIBBO
  +--> ?PR?_DEBUGBUFFERMF?TIBBO
  +--> ?PR?_ESCRIBIRCADENASOFT_BUFFER?MAIN

?PR?_RD_MF?LINTECH                               -----    -----      -----    -----      0003H    0012H
  +--> ?CO?LINTECH
  +--> ?PR?_DEBUG_TXT_TIBBO?TIBBO
BL51 BANKED LINKER/LOCATER V6.22.2.0                                                  10/01/2020  09:24:10  PAGE 19


  +--> ?PR?_DEBUG_CHR_TIBBO?TIBBO
  +--> ?PR?_DEBUGBUFFERMF?TIBBO
  +--> ?PR?_ESCRIBIRCADENASOFT_BUFFER?MAIN

?PR?_WR_MF?LINTECH                               -----    -----      -----    -----      0003H    0025H
  +--> ?CO?LINTECH
  +--> ?PR?_DEBUG_TXT_TIBBO?TIBBO
  +--> ?PR?_DEBUG_CHR_TIBBO?TIBBO
  +--> ?PR?_DEBUGBUFFERMF?TIBBO
  +--> ?PR?_ESCRIBIRCADENASOFT_BUFFER?MAIN

?PR?ENTREGA_CARD_CAPTURA?VERIFICADOR             -----    -----      -----    -----      0003H    0001H
  +--> ?CO?VERIFICADOR
  +--> ?PR?_DEBUG_TXT_TIBBO?TIBBO
  +--> ?PR?SEL_SENSOR2?IO_SENSORES
  +--> ?PR?VALIDASENSOR?IO_SENSORES
  +--> ?PR?VALIDA_SENSOR1_AUTO?IO_SENSORES

?PR?_SEND_PTO_PARALELO?VERIFICADOR               -----    -----      -----    -----      0003H    0004H
  +--> ?PR?_ARMAR_TRAMA_PTO_PARALELO_EXPEDID...
  +--> ?PR?_ARMAR_TRAMA_PTO_PARALELO_EXPEDID...
  +--> ?PR?INCREMENTE_TICKET?EEPROM
  +--> ?PR?_SEND_PORT?PTO_PARALELO
  +--> ?CO?VERIFICADOR
  +--> ?PR?_DEBUG_TXT_TIBBO?TIBBO
  +--> ?PR?_DEBUGBUFFERMF?TIBBO
  +--> ?PR?CLEAR_PLACA?MONITOR

?PR?_ARMAR_TRAMA_PTO_PARALELO_EXPEDID...         -----    -----      -----    -----      0007H    0006H
  +--> ?PR?_BLOCK_READ_CLOCK_HEX?CLOCK
  +--> ?PR?_RD_EEPROM?EEPROM

?PR?_ARMAR_TRAMA_PTO_PARALELO_EXPEDID...         -----    -----      -----    -----      0007H    000FH
  +--> ?PR?LEE_NO_TICKET?EEPROM
  +--> ?PR?_STRCAT?STRCAT
  +--> ?PR?_STRLEN?STRLEN
  +--> ?PR?_BLOCK_READ_CLOCK_HEX?CLOCK
  +--> ?PR?_RD_EEPROM?EEPROM

?PR?INCREMENTE_TICKET?EEPROM                     -----    -----      -----    -----      0007H    000BH
  +--> ?PR?READ_EEPROM_TICKET?EEPROM
  +--> ?CO?EEPROM
  +--> ?PR?PRINTF?PRINTF
  +--> ?PR?_WRITE_EEPROM_TICKET?EEPROM

?PR?_WRITE_EEPROM_TICKET?EEPROM                  -----    -----      -----    -----      0016H    000BH
  +--> ?CO?EEPROM
  +--> ?PR?_DEBUG_TXT_TIBBO?TIBBO
  +--> ?PR?_ATOL?ATOL
  +--> ?PR?_DEBUG_CHR_TIBBO?TIBBO
  +--> ?PR?_WR_EEPROM?EEPROM

?PR?_ATOL?ATOL                                   0020H.0  0000H.1    -----    -----      0021H    0007H
  +--> ?PR?_ISSPACE?ISSPACE
  +--> ?PR?_ISDIGIT?ISDIGIT

?PR?_SEND_PORT?PTO_PARALELO                      -----    -----      -----    -----      0016H    000AH
BL51 BANKED LINKER/LOCATER V6.22.2.0                                                  10/01/2020  09:24:10  PAGE 20


  +--> ?PR?PULSO_BUS?PTO_PARALELO
  +--> ?PR?_DELAY_20US?DELAY

?PR?_WAIT_PLACA?VERIFICADOR                      -----    -----      -----    -----      0003H    0005H
  +--> ?PR?RX_MONITOR?MONITOR
  +--> ?PR?CLAVE_SEGURIDAD_S2?LINTECH
  +--> ?PR?_LOAD_SECUENCIA_EXPEDIDOR?VERIFIC...

?PR?CLAVE_SEGURIDAD_S2?LINTECH                   -----    -----      -----    -----      0008H    0016H
  +--> ?CO?LINTECH
  +--> ?PR?_DEBUG_TXT_TIBBO?TIBBO
  +--> ?PR?_DEBUGBUFFERMF?TIBBO
  +--> ?PR?_ESCRIBIRCADENASOFT_BUFFER?MAIN

?PR?UNIQUE_IDENTIFIER_UID?LINTECH                -----    -----      -----    -----      0003H    000BH
  +--> ?CO?LINTECH
  +--> ?PR?_DEBUG_TXT_TIBBO?TIBBO
  +--> ?PR?_DEBUGBUFFERMF?TIBBO
  +--> ?PR?_ESCRIBIRCADENASOFT_BUFFER?MAIN

?PR?_PREGUNTA_LPR?VERIFICADOR                    -----    -----      -----    -----      0003H    0004H
  +--> ?PR?_RD_EEPROM?EEPROM
  +--> ?PR?_ARMAR_TRAMA_MONITOR?VERIFICADOR
  +--> ?PR?_DEBUG_TXT_TIBBO?TIBBO

?PR?_ARMAR_TRAMA_MONITOR?VERIFICADOR             -----    -----      -----    -----      0007H    000FH
  +--> ?PR?DIR_BOARD_MONITOR?IO_SENSORES
  +--> ?PR?LEE_NO_TICKET?EEPROM
  +--> ?PR?_STRCAT?STRCAT
  +--> ?PR?_BYTEHEX_DECIMAL?CLOCK
  +--> ?PR?_STRLEN?STRLEN
  +--> ?PR?_TWO_BYTEHEX_DECIMAL?CLOCK
  +--> ?PR?_BLOCK_READ_CLOCK_ASCII?CLOCK

?PR?DIR_BOARD_MONITOR?IO_SENSORES                -----    -----      -----    -----      -----    -----
  +--> ?PR?_RD_EEPROM?EEPROM

?PR?_BYTEHEX_DECIMAL?CLOCK                       -----    -----      -----    -----      0016H    0001H

?PR?_TWO_BYTEHEX_DECIMAL?CLOCK                   -----    -----      -----    -----      0016H    000CH
  +--> ?PR?_POW?POW

?PR?_POW?POW                                     -----    -----      -----    -----      0022H    000AH
  +--> ?PR?LOG?LOG
  +--> ?PR?EXP?EXP

?PR?LOG?LOG                                      0020H.0  0000H.1    -----    -----      002CH    0004H

?PR?_VALIDA_TIPO_TARJETA?VERIFICADOR             -----    -----      -----    -----      0003H    0007H
  +--> ?CO?VERIFICADOR
  +--> ?PR?_DEBUG_TXT_TIBBO?TIBBO
  +--> ?PR?_RD_EEPROM?EEPROM
  +--> ?PR?_TARJETA_MENSUAL?VERIFICADOR
  +--> ?PR?_SEND_PORTERR?PTO_PARALELO
  +--> ?PR?_PANTALLALCD?PANTALLAS
  +--> ?PR?CAPTURA_EXPULSA?VERIFICADOR
  +--> ?PR?_TARJETA_ROTACION?VERIFICADOR
BL51 BANKED LINKER/LOCATER V6.22.2.0                                                  10/01/2020  09:24:10  PAGE 21



?PR?_TARJETA_MENSUAL?VERIFICADOR                 -----    -----      -----    -----      000AH    0007H
  +--> ?PR?_HORARIOS?VERIFICADOR
  +--> ?PR?_CHECK_FECHAOUT?CLOCK
  +--> ?PR?_VALIDA_VEHICULO_CARD_MENSUAL?VER...
  +--> ?PR?CAPTURA_EXPULSA?VERIFICADOR
  +--> ?CO?VERIFICADOR
  +--> ?PR?_DEBUG_TXT_TIBBO?TIBBO
  +--> ?PR?_ARMAR_TRAMA_TARJETA_SECTOR1_BLOQ...
  +--> ?PR?_SEND_PORTERR?PTO_PARALELO
  +--> ?PR?_PANTALLALCD?PANTALLAS

?PR?_HORARIOS?VERIFICADOR                        -----    -----      -----    -----      0011H    0013H
  +--> ?PR?ADDR_HORARIOS?PROG
  +--> ?PR?_RD_EEPROM?EEPROM
  +--> ?PR?_LEE_CLK?CLOCK
  +--> ?CO?VERIFICADOR
  +--> ?PR?_DEBUG_TXT_TIBBO?TIBBO
  +--> ?PR?_DEBUG_CHR_TIBBO?TIBBO
  +--> ?PR?_BLOQUE_HORARIO?VERIFICADOR
  +--> ?PR?_PANTALLALCD?PANTALLAS

?PR?_BLOQUE_HORARIO?VERIFICADOR                  -----    -----      -----    -----      0024H    0007H
  +--> ?CO?VERIFICADOR
  +--> ?PR?_DEBUG_TXT_TIBBO?TIBBO
  +--> ?PR?_LEE_CLK?CLOCK
  +--> ?PR?_DEBUG_CHR_TIBBO?TIBBO
  +--> ?PR?_HORA_MAXIMA?VERIFICADOR
  +--> ?PR?_EN_HORARIO?VERIFICADOR
  +--> ?PR?_RD_EEPROM?EEPROM
  +--> ?PR?_SEND_PORTERR?PTO_PARALELO
  +--> ?PR?_PANTALLALCD?PANTALLAS

?PR?_HORA_MAXIMA?VERIFICADOR                     -----    -----      -----    -----      0030H    0008H
  +--> ?PR?_RD_EEPROM?EEPROM
  +--> ?PR?_DEBUG_CHR_TIBBO?TIBBO
  +--> ?CO?VERIFICADOR
  +--> ?PR?_DEBUG_TXT_TIBBO?TIBBO

?PR?_EN_HORARIO?VERIFICADOR                      -----    -----      -----    -----      002BH    0005H
  +--> ?CO?VERIFICADOR
  +--> ?PR?_DEBUG_TXT_TIBBO?TIBBO
  +--> ?PR?_HORA_MAXIMA?VERIFICADOR

?PR?_VALIDA_VEHICULO_CARD_MENSUAL?VER...         -----    -----      -----    -----      0011H    0004H
  +--> ?CO?VERIFICADOR
  +--> ?PR?_DEBUG_TXT_TIBBO?TIBBO
  +--> ?PR?_RD_EEPROM?EEPROM
  +--> ?PR?_SEND_PORTERR?PTO_PARALELO

?PR?_ARMAR_TRAMA_TARJETA_SECTOR1_BLOQ...         -----    -----      -----    -----      0011H    0006H
  +--> ?PR?_BLOCK_READ_CLOCK_HEX?CLOCK
  +--> ?PR?DIR_BOARD?IO_SENSORES

?PR?DIR_BOARD?IO_SENSORES                        -----    -----      -----    -----      0033H    0001H
  +--> ?PR?SEL_DIR1?IO_SENSORES
  +--> ?PR?SEL_DIR2?IO_SENSORES
BL51 BANKED LINKER/LOCATER V6.22.2.0                                                  10/01/2020  09:24:10  PAGE 22


  +--> ?PR?_RD_EEPROM?EEPROM

?PR?_TARJETA_ROTACION?VERIFICADOR                -----    -----      -----    -----      000AH    0006H
  +--> ?PR?_ARMAR_TRAMA_TARJETA_SECTOR1_BLOQ...

?PR?ANALIZA_PRESENCIA_ROTACION?VERIFI...         -----    -----      -----    -----      0003H    0001H
  +--> ?PR?VALIDASENSORESPASO?IO_SENSORES
  +--> ?PR?_SEND_PORTERR?PTO_PARALELO
  +--> ?PR?_PANTALLALCD?PANTALLAS

?PR?POWER_OFF?LINTECH                            -----    -----      -----    -----      0003H    000BH
  +--> ?CO?LINTECH
  +--> ?PR?_DEBUG_TXT_TIBBO?TIBBO
  +--> ?PR?_DEBUGBUFFERMF?TIBBO
  +--> ?PR?_ESCRIBIRCADENASOFT_BUFFER?MAIN

?PR?_RECIBE_PORT?PTO_PARALELO                    -----    -----      -----    -----      0002H    0008H
  +--> ?PR?OFF_TIMER0_INTERRUP?MAIN
  +--> ?PR?ON_TIMER0_INTERRUP?MAIN

?PR?_DEBUG_PTO_PARALELO?TIBBO                    -----    -----      -----    -----      0002H    0004H
  +--> ?PR?DEBUG_DIVIDIR_TEXTO?TIBBO
  +--> ?CO?TIBBO
  +--> ?PR?_DEBUG_TXT_TIBBO?TIBBO
  +--> ?PR?_DEBUGBUFFERMF?TIBBO

?PR?_VALIDA_TRAMA_PTO?ACCESCAN                   -----    -----      -----    -----      0002H    000FH
  +--> ?PR?_VALIDAR_CLK?CLOCK
  +--> ?PR?_BLOCK_WRITE_CLOCK_ASCII?CLOCK
  +--> ?PR?RELOJ_PANTALLA_LCD?PANTALLAS
  +--> ?PR?_PANTALLALCD?PANTALLAS
  +--> ?CO?ACCESCAN
  +--> ?PR?_DEBUG_TXT_TIBBO?TIBBO
  +--> ?PR?_BYTEHEX_DECIMAL?CLOCK
  +--> ?PR?_TWO_BYTEHEX_DECIMAL?CLOCK
  +--> ?PR?VALIDASENSORESPASO?IO_SENSORES
  +--> ?PR?_CMD_LPR_SALIDA_WIEGAND?ACCESCAN
  +--> ?PR?_PANTALLALCD_LINEA_2?PANTALLAS
  +--> ?PR?_GRABA_SERIE?EEPROM

?PR?_BLOCK_WRITE_CLOCK_ASCII?CLOCK               -----    -----      -----    -----      0011H    0003H
  +--> ?PR?_TWO_ONE?CLOCK
  +--> ?PR?_WR_CLK?CLOCK

?PR?_WR_CLK?CLOCK                                -----    -----      -----    -----      0014H    0002H
  +--> ?PR?_DELAY_20US?DELAY
  +--> ?PR?_EB_CLK?CLOCK

?PR?RELOJ_PANTALLA_LCD?PANTALLAS                 -----    -----      -----    -----      0011H    000DH
  +--> ?CO?PANTALLAS
  +--> ?PR?_BLOCK_READ_CLOCK?CLOCK
  +--> ?PR?_LCD_TXT_NUM_CHAR?PANTALLAS

?PR?_BLOCK_READ_CLOCK?CLOCK                      -----    -----      -----    -----      001EH    0003H
  +--> ?PR?_LEE_CLK?CLOCK

?PR?_LCD_TXT_NUM_CHAR?PANTALLAS                  -----    -----      -----    -----      001EH    0006H
BL51 BANKED LINKER/LOCATER V6.22.2.0                                                  10/01/2020  09:24:10  PAGE 23


  +--> ?PR?_TX_CHRLCD?PANTALLAS

?PR?_CMD_LPR_SALIDA_WIEGAND?ACCESCAN             -----    -----      -----    -----      0011H    0022H
  +--> ?PR?DIR_BOARD?IO_SENSORES
  +--> ?PR?_BLOCK_READ_CLOCK_ASCII?CLOCK
  +--> ?PR?_MONITOR_CHR?ACCESCAN

?PR?_MONITOR_CHR?ACCESCAN                        -----    -----      -----    -----      0033H    0005H
  +--> ?PR?_TX_AUX?TIBBO

?PR?_GRABA_SERIE?EEPROM                          -----    -----      -----    -----      0011H    0005H
  +--> ?CO?EEPROM
  +--> ?PR?_DEBUG_TXT_TIBBO?TIBBO
  +--> ?PR?_WRITE_EEPROM_TICKET?EEPROM
  +--> ?PR?_WR_EEPROM?EEPROM

?PR?MSJ_LCD_INFORMATIVO?IO_SENSORES              -----    -----      -----    -----      0002H    0001H
  +--> ?PR?SEL_FUNCION?IO_SENSORES
  +--> ?PR?LOAD_AND_SEND_INFO_RELOJ?PTO_PARA...
  +--> ?PR?LOAD_AND_SEND_ID_COD?PTO_PARALELO
  +--> ?PR?_RD_EEPROM?EEPROM
  +--> ?PR?_SEND_PORTERR?PTO_PARALELO

?PR?LOAD_AND_SEND_INFO_RELOJ?PTO_PARA...         -----    -----      -----    -----      0003H    000BH
  +--> ?PR?_BLOCK_READ_CLOCK?CLOCK
  +--> ?PR?_LEE_CLK?CLOCK
  +--> ?PR?_SEND_PORT?PTO_PARALELO

?PR?LOAD_AND_SEND_ID_COD?PTO_PARALELO            -----    -----      -----    -----      0003H    0013H
  +--> ?PR?_RD_EEPROM?EEPROM
  +--> ?CO?PTO_PARALELO
  +--> ?PR?PRINTF?PRINTF
  +--> ?PR?_SEND_PORT?PTO_PARALELO



SYMBOL TABLE OF MODULE:  .\Objects\expedidor_v_01_raspberry (MAIN)

  VALUE           TYPE          NAME
  ----------------------------------

  -------         MODULE        MAIN
  C:0000H         SYMBOL        _ICE_DUMMY_
  D:0080H         PUBLIC        P0
  D:0090H         PUBLIC        P1
  C:B06AH         PUBLIC        timer0_int
  D:00B0H         PUBLIC        P3
  B:00A8H.7       PUBLIC        EA
  C:B47DH         PUBLIC        off_Timer0_Interrup
  X:016AH         PUBLIC        ValTimeOutCom
  X:016BH         PUBLIC        Buffer_Rta_Lintech
  X:019DH         PUBLIC        Timer_wait
  X:019EH         PUBLIC        g_cContByteRx
  B:0080H.0       PUBLIC        rx_ip
  B:0080H.3       PUBLIC        Atascado
  C:9D5DH         PUBLIC        main
  X:019FH         PUBLIC        Timer_tivo
BL51 BANKED LINKER/LOCATER V6.22.2.0                                                  10/01/2020  09:24:10  PAGE 24


  C:A7F6H         PUBLIC        variable_inicio
  B:0090H.7       PUBLIC        lock
  I:0022H         PUBLIC        rbuf
  C:B46EH         PUBLIC        on_Timer0_Interrup
  I:0054H         PUBLIC        tbuf
  B:0090H.1       PUBLIC        DataIn
  D:0089H         PUBLIC        TMOD
  X:01A1H         PUBLIC        USE_LPR
  X:01A2H         PUBLIC        Debug_Tibbo
  X:01A3H         PUBLIC        Raspberry
  X:01A4H         PUBLIC        SIN_COBRO
  X:01A6H         PUBLIC        Tipo_Vehiculo
  B:00B0H.3       PUBLIC        busy
  C:B3D9H         PUBLIC        ini_timer
  B:00A8H.1       PUBLIC        ET0
  B:0088H.5       PUBLIC        TF0
  D:008CH         PUBLIC        TH0
  X:01A7H         PUBLIC        ACK
  X:01A8H         PUBLIC        g_cEstadoComSoft
  D:008AH         PUBLIC        TL0
  B:0088H.4       PUBLIC        TR0
  C:B3E9H         PUBLIC        inicia_board
  X:01A9H         PUBLIC        T_GRACIA
  B:0080H.7       PUBLIC        sel_com
  X:01ABH         PUBLIC        STX_LINTECH
  C:B408H         PUBLIC        _getkey
  X:01ACH         PUBLIC        ETX
  C:AA46H         PUBLIC        _EscribirCadenaSoft_buffer
  B:0021H.1       PUBLIC        buffer_ready
  C:ACE2H         PUBLIC        _putchar
  B:0021H.2       PUBLIC        placa_ready
  -------         PROC          TIMER0_INT
  C:B06AH         LINE#         16
  C:B070H         LINE#         19
  C:B076H         LINE#         20
  C:B07BH         LINE#         21
  C:B07BH         LINE#         22
  C:B081H         LINE#         23
  C:B081H         LINE#         25
  C:B08FH         LINE#         26
  C:B091H         LINE#         28
  -------         ENDPROC       TIMER0_INT
  -------         PROC          INI_TIMER
  C:B3D9H         LINE#         31
  C:B3D9H         LINE#         32
  C:B3D9H         LINE#         34
  C:B3E1H         LINE#         36
  C:B3E4H         LINE#         37
  C:B3E6H         LINE#         38
  C:B3E8H         LINE#         40
  -------         ENDPROC       INI_TIMER
  -------         PROC          ON_TIMER0_INTERRUP
  C:B46EH         LINE#         43
  C:B46EH         LINE#         44
  C:B46EH         LINE#         45
  C:B470H         LINE#         46
  C:B472H         LINE#         48
BL51 BANKED LINKER/LOCATER V6.22.2.0                                                  10/01/2020  09:24:10  PAGE 25


  -------         ENDPROC       ON_TIMER0_INTERRUP
  -------         PROC          OFF_TIMER0_INTERRUP
  C:B47DH         LINE#         51
  C:B47DH         LINE#         52
  C:B47DH         LINE#         53
  C:B47FH         LINE#         55
  -------         ENDPROC       OFF_TIMER0_INTERRUP
  -------         PROC          _GETKEY
  -------         DO            
  D:0006H         SYMBOL        k
  -------         ENDDO         
  C:B408H         LINE#         63
  C:B408H         LINE#         64
  C:B408H         LINE#         68
  C:B408H         LINE#         69
  C:B40BH         LINE#         70
  C:B40BH         LINE#         71
  C:B413H         LINE#         73
  C:B413H         LINE#         74
  -------         ENDPROC       _GETKEY
  -------         PROC          _PUTCHAR
  X:00A8H         SYMBOL        c
  -------         DO            
  X:00A9H         SYMBOL        i
  -------         ENDDO         
  C:ACE2H         LINE#         78
  C:ACE7H         LINE#         79
  C:ACE7H         LINE#         82
  C:ACF6H         LINE#         83
  C:ACF6H         LINE#         84
  C:AD0CH         LINE#         85
  C:AD0CH         LINE#         87
  C:AD1AH         LINE#         88
  C:AD1AH         LINE#         90
  C:AD1FH         LINE#         91
  -------         ENDPROC       _PUTCHAR
  -------         PROC          _ESCRIBIRCADENASOFT_BUFFER
  X:0028H         SYMBOL        buffer
  X:002BH         SYMBOL        tamano_cadena
  -------         DO            
  X:002CH         SYMBOL        i
  X:002DH         SYMBOL        d
  -------         ENDDO         
  C:AA46H         LINE#         95
  C:AA54H         LINE#         96
  C:AA54H         LINE#         98
  C:AA62H         LINE#         99
  C:AA62H         LINE#         100
  C:AA79H         LINE#         101
  C:AA83H         LINE#         102
  C:AA8BH         LINE#         103
  -------         ENDPROC       _ESCRIBIRCADENASOFT_BUFFER
  -------         PROC          INICIA_BOARD
  C:B3E9H         LINE#         108
  C:B3E9H         LINE#         109
  C:B3E9H         LINE#         110
  C:B3ECH         LINE#         111
BL51 BANKED LINKER/LOCATER V6.22.2.0                                                  10/01/2020  09:24:10  PAGE 26


  C:B3EFH         LINE#         112
  C:B3F2H         LINE#         113
  C:B3F4H         LINE#         114
  C:B3F6H         LINE#         115
  C:B3F8H         LINE#         117
  -------         ENDPROC       INICIA_BOARD
  -------         PROC          VARIABLE_INICIO
  C:A7F6H         LINE#         122
  C:A7F6H         LINE#         123
  C:A7F6H         LINE#         126
  C:A807H         LINE#         127
  C:A818H         LINE#         128
  C:A826H         LINE#         129
  C:A834H         LINE#         130
  C:A842H         LINE#         132
  -------         ENDPROC       VARIABLE_INICIO
  -------         PROC          MAIN
  -------         DO            
  X:0142H         SYMBOL        buffer
  X:0000H         SYMBOL        Estado_Comunicacion_Secuencia_MF
  X:0001H         SYMBOL        Length_trama
  -------         ENDDO         
  C:9D5DH         LINE#         140
  C:9D5DH         LINE#         141
  C:9D5DH         LINE#         144
  C:9D62H         LINE#         148
  C:9D65H         LINE#         149
  C:9D68H         LINE#         150
  C:9D6BH         LINE#         151
  C:9D6EH         LINE#         152
  C:9D71H         LINE#         153
  C:9D73H         LINE#         155
  C:9D76H         LINE#         156
  C:9D7DH         LINE#         157
  C:9D80H         LINE#         159
  C:9D85H         LINE#         161
  C:9D88H         LINE#         163
  C:9D8BH         LINE#         164
  C:9D8BH         LINE#         165
  C:9D8EH         LINE#         166
  C:9D8EH         LINE#         169
  C:9D91H         LINE#         170
  C:9D97H         LINE#         171
  C:9D9DH         LINE#         173
  C:9D9DH         LINE#         174
  C:9D9DH         LINE#         177
  C:9DA0H         LINE#         178
  C:9DA0H         LINE#         179
  C:9DA3H         LINE#         180
  C:9DA3H         LINE#         184
  C:9DB0H         LINE#         189
  C:9DB3H         LINE#         190
  C:9DB3H         LINE#         192
  C:9DC2H         LINE#         194
  C:9DCBH         LINE#         196
  C:9DD9H         LINE#         198
  C:9DD9H         LINE#         199
BL51 BANKED LINKER/LOCATER V6.22.2.0                                                  10/01/2020  09:24:10  PAGE 27


  C:9DDCH         LINE#         203
  -------         ENDPROC       MAIN
  -------         ENDMOD        MAIN

  -------         MODULE        ACCESCAN
  C:0000H         SYMBOL        _ICE_DUMMY_
  D:0080H         PUBLIC        P0
  D:0090H         PUBLIC        P1
  B:0080H.2       PUBLIC        led_err_imp
  C:ABE1H         PUBLIC        _Monitor_chr
  B:0080H.3       PUBLIC        Atascado
  B:0090H.7       PUBLIC        lock
  C:3F43H         PUBLIC        _Valida_Trama_Pto
  C:7EFEH         PUBLIC        _Cmd_LPR_Salida_wiegand
  -------         PROC          _VALIDA_TRAMA_PTO
  X:0002H         SYMBOL        buffer
  X:0005H         SYMBOL        length_trama
  -------         DO            
  X:0267H         SYMBOL        cont
  X:0006H         SYMBOL        buff
  -------         ENDDO         
  C:3F43H         LINE#         85
  C:3F51H         LINE#         86
  C:3F51H         LINE#         92
  C:3F87H         LINE#         93
  C:3F87H         LINE#         94
  C:3F9CH         LINE#         95
  C:3F9CH         LINE#         96
  C:3FAFH         LINE#         98
  C:3FB2H         LINE#         100
  C:3FB2H         LINE#         102
  C:3FB2H         LINE#         104
  C:3FC4H         LINE#         105
  C:3FC4H         LINE#         106
  C:3FCAH         LINE#         107
  C:3FD7H         LINE#         108
  C:3FD7H         LINE#         109
  C:3FDCH         LINE#         110
  C:3FDEH         LINE#         111
  C:3FE3H         LINE#         112
  C:3FE5H         LINE#         113
  C:3FE7H         LINE#         114
  C:3FEBH         LINE#         115
  C:3FEBH         LINE#         116
  C:3FECH         LINE#         118
  C:4004H         LINE#         119
  C:4004H         LINE#         121
  C:4011H         LINE#         122
  C:4011H         LINE#         123
  C:4013H         LINE#         124
  C:4015H         LINE#         125
  C:4017H         LINE#         126
  C:4019H         LINE#         127
  C:4019H         LINE#         129
  C:403FH         LINE#         130
  C:403FH         LINE#         131
  C:4043H         LINE#         132
BL51 BANKED LINKER/LOCATER V6.22.2.0                                                  10/01/2020  09:24:10  PAGE 28


  C:4048H         LINE#         133
  C:4051H         LINE#         134
  C:4056H         LINE#         135
  C:4056H         LINE#         138
  C:4057H         LINE#         141
  C:4069H         LINE#         142
  C:4069H         LINE#         143
  C:406BH         LINE#         144
  C:406EH         LINE#         146
  C:4080H         LINE#         147
  C:4080H         LINE#         148
  C:4082H         LINE#         149
  C:4085H         LINE#         151
  C:409FH         LINE#         152
  C:409FH         LINE#         153
  C:40A1H         LINE#         154
  C:40A4H         LINE#         157
  C:40BEH         LINE#         158
  C:40BEH         LINE#         159
  C:40C0H         LINE#         160
  C:40C2H         LINE#         163
  C:40DCH         LINE#         164
  C:40DCH         LINE#         165
  C:40DEH         LINE#         166
  C:40E0H         LINE#         170
  C:40FAH         LINE#         171
  C:40FAH         LINE#         172
  C:40FCH         LINE#         173
  C:40FEH         LINE#         176
  C:4118H         LINE#         177
  C:4118H         LINE#         178
  C:411AH         LINE#         179
  C:411CH         LINE#         181
  C:4136H         LINE#         182
  C:4136H         LINE#         183
  C:413BH         LINE#         184
  C:413BH         LINE#         186
  C:416BH         LINE#         187
  C:416BH         LINE#         188
  C:4179H         LINE#         189
  C:417CH         LINE#         192
  C:41BFH         LINE#         193
  C:41BFH         LINE#         195
  C:41D4H         LINE#         196
  C:41DAH         LINE#         197
  C:4204H         LINE#         200
  C:420CH         LINE#         201
  C:420CH         LINE#         204
  C:4213H         LINE#         205
  C:4213H         LINE#         206
  C:4218H         LINE#         207
  C:4218H         LINE#         208
  C:421AH         LINE#         210
  C:421AH         LINE#         211
  C:4223H         LINE#         212
  C:422BH         LINE#         213
  C:422BH         LINE#         218
BL51 BANKED LINKER/LOCATER V6.22.2.0                                                  10/01/2020  09:24:10  PAGE 29


  C:422DH         LINE#         221
  C:422DH         LINE#         224
  C:4234H         LINE#         225
  C:4234H         LINE#         226
  C:4239H         LINE#         227
  C:4239H         LINE#         228
  C:4244H         LINE#         232
  C:4244H         LINE#         233
  C:4244H         LINE#         235
  C:4271H         LINE#         236
  C:4271H         LINE#         237
  C:4280H         LINE#         239
  C:4280H         LINE#         241
  -------         ENDPROC       _VALIDA_TRAMA_PTO
  -------         PROC          _MONITOR_CHR
  X:0033H         SYMBOL        str
  X:0036H         SYMBOL        num_char
  -------         DO            
  X:0037H         SYMBOL        j
  -------         ENDDO         
  C:ABE1H         LINE#         396
  C:ABEFH         LINE#         397
  C:ABEFH         LINE#         399
  C:ABFDH         LINE#         400
  C:ABFDH         LINE#         401
  C:AC0FH         LINE#         402
  C:AC19H         LINE#         403
  C:AC21H         LINE#         404
  -------         ENDPROC       _MONITOR_CHR
  -------         PROC          _CMD_LPR_SALIDA_WIEGAND
  X:0011H         SYMBOL        buffer
  -------         DO            
  X:0014H         SYMBOL        Buffer_Lpr
  X:0032H         SYMBOL        j
  -------         ENDDO         
  C:7EFEH         LINE#         409
  C:7F09H         LINE#         410
  C:7F09H         LINE#         412
  C:7F0FH         LINE#         413
  C:7F14H         LINE#         414
  C:7F1CH         LINE#         415
  C:7F20H         LINE#         416
  C:7F29H         LINE#         417
  C:7F29H         LINE#         418
  C:7F3AH         LINE#         419
  C:7F3CH         LINE#         421
  C:7F3CH         LINE#         422
  C:7F4DH         LINE#         423
  C:7F4DH         LINE#         427
  C:7F64H         LINE#         428
  C:7F64H         LINE#         429
  C:7F73H         LINE#         430
  C:7F7DH         LINE#         432
  C:7F85H         LINE#         433
  C:7F99H         LINE#         435
  C:7FA9H         LINE#         436
  C:7FBAH         LINE#         437
BL51 BANKED LINKER/LOCATER V6.22.2.0                                                  10/01/2020  09:24:10  PAGE 30


  C:7FC7H         LINE#         441
  -------         ENDPROC       _CMD_LPR_SALIDA_WIEGAND
  -------         ENDMOD        ACCESCAN

  -------         MODULE        CLOCK
  C:0000H         SYMBOL        _ICE_DUMMY_
  C:AC56H         PUBLIC        _two_one
  D:0090H         PUBLIC        P1
  C:6D98H         PUBLIC        _validar_clk
  C:B0EEH         PUBLIC        _wr_clk
  C:84A1H         PUBLIC        _check_fechaOut
  B:00D0H.7       PUBLIC        CY
  C:0003H         PUBLIC        p_ck
  C:95B9H         PUBLIC        _hex_ascii
  X:0268H         PUBLIC        data_clk
  C:B430H         PUBLIC        cond_ini_clock
  C:856AH         PUBLIC        _Block_read_Clock
  B:0090H.4       PUBLIC        sck
  C:9040H         PUBLIC        _Block_read_Clock_Hex
  C:5B2CH         PUBLIC        _Block_read_clock_ascii
  C:AD3CH         PUBLIC        _hex_bcd
  C:B2C2H         PUBLIC        _bcd_hex
  C:A58EH         PUBLIC        _ByteHex_Decimal
  C:9776H         PUBLIC        _lee_clk
  B:0090H.5       PUBLIC        io
  C:988CH         PUBLIC        _Block_write_clock_ascii
  B:0090H.6       PUBLIC        rst
  C:ACA3H         PUBLIC        _eb_clk
  C:4281H         PUBLIC        _Two_ByteHex_Decimal
  -------         PROC          P_CK
  C:0003H         LINE#         48
  C:0003H         LINE#         49
  C:0003H         LINE#         50
  C:0005H         LINE#         51
  C:0008H         LINE#         52
  C:000AH         LINE#         53
  -------         ENDPROC       P_CK
  -------         PROC          _EB_CLK
  X:00B5H         SYMBOL        dir_clk
  -------         DO            
  X:00B6H         SYMBOL        nbits
  -------         ENDDO         
  C:ACA3H         LINE#         55
  C:ACA8H         LINE#         57
  C:ACADH         LINE#         58
  C:ACADH         LINE#         59
  C:ACB6H         LINE#         60
  C:ACB9H         LINE#         61
  C:ACB9H         LINE#         62
  C:ACBBH         LINE#         63
  C:ACBDH         LINE#         65
  C:ACBDH         LINE#         66
  C:ACBFH         LINE#         67
  C:ACBFH         LINE#         68
  C:ACC2H         LINE#         69
  C:ACE1H         LINE#         70
  -------         ENDPROC       _EB_CLK
BL51 BANKED LINKER/LOCATER V6.22.2.0                                                  10/01/2020  09:24:10  PAGE 31


  C:976CH         SYMBOL        L?0082
  -------         PROC          L?0081
  -------         ENDPROC       L?0081
  C:976CH         SYMBOL        L?0082
  -------         PROC          _LEE_CLK
  X:00B2H         SYMBOL        dir_clk
  -------         DO            
  X:00B3H         SYMBOL        nbits
  -------         ENDDO         
  C:9776H         LINE#         72
  C:977BH         LINE#         74
  C:977DH         LINE#         75
  C:9784H         LINE#         76
  C:978CH         LINE#         77
  C:97A5H         LINE#         78
  C:97A5H         LINE#         79
  C:97A8H         LINE#         80
  C:97A8H         LINE#         81
  C:97AFH         LINE#         82
  C:97B9H         LINE#         83
  C:97BEH         LINE#         84
  C:97BEH         LINE#         85
  C:97BEH         LINE#         86
  C:97C1H         LINE#         87
  C:97C1H         LINE#         88
  C:97C8H         LINE#         89
  C:97D9H         LINE#         90
  C:97D9H         LINE#         91
  C:97E1H         LINE#         92
  C:97E1H         LINE#         93
  C:97E1H         LINE#         94
  C:97E4H         LINE#         95
  C:97F4H         LINE#         96
  C:97F6H         LINE#         97
  C:97FBH         LINE#         98
  -------         ENDPROC       _LEE_CLK
  -------         PROC          _WR_CLK
  X:0014H         SYMBOL        dir_clk
  X:0015H         SYMBOL        byte
  C:B0EEH         LINE#         100
  C:B0F6H         LINE#         101
  C:B0F8H         LINE#         102
  C:B0FFH         LINE#         103
  C:B107H         LINE#         104
  C:B110H         LINE#         105
  C:B113H         LINE#         106
  C:B115H         LINE#         108
  -------         ENDPROC       _WR_CLK
  C:AC22H         SYMBOL        L?0077
  C:AC40H         SYMBOL        L?0078
  -------         PROC          L?0076
  -------         ENDPROC       L?0076
  C:AC22H         SYMBOL        L?0077
  C:AC40H         SYMBOL        L?0078
  -------         PROC          _TWO_ONE
  D:0007H         SYMBOL        byte_h
  D:0005H         SYMBOL        byte_l
BL51 BANKED LINKER/LOCATER V6.22.2.0                                                  10/01/2020  09:24:10  PAGE 32


  -------         DO            
  D:0007H         SYMBOL        byte_out
  -------         ENDDO         
  C:AC56H         LINE#         110
  C:AC56H         LINE#         111
  C:AC56H         LINE#         113
  C:AC59H         LINE#         114
  C:AC5DH         LINE#         115
  C:AC60H         LINE#         116
  C:AC62H         LINE#         117
  C:AC62H         LINE#         118
  -------         ENDPROC       _TWO_ONE
  -------         PROC          _VALIDAR_CLK
  D:0001H         SYMBOL        datos_clock
  -------         DO            
  D:0007H         SYMBOL        validador
  -------         ENDDO         
  C:6D98H         LINE#         122
  C:6D98H         LINE#         123
  C:6D98H         LINE#         124
  C:6D9AH         LINE#         127
  C:6DAFH         LINE#         128
  C:6DAFH         LINE#         130
  C:6DC7H         LINE#         131
  C:6DC7H         LINE#         133
  C:6DDFH         LINE#         134
  C:6DDFH         LINE#         135
  C:6DF7H         LINE#         136
  C:6DF7H         LINE#         137
  C:6E0FH         LINE#         138
  C:6E0FH         LINE#         139
  C:6E24H         LINE#         140
  C:6E24H         LINE#         141
  C:6E36H         LINE#         142
  C:6E36H         LINE#         143
  C:6E48H         LINE#         144
  C:6E48H         LINE#         145
  C:6E5AH         LINE#         146
  C:6E5AH         LINE#         147
  C:6E6CH         LINE#         148
  C:6E6CH         LINE#         149
  C:6E7EH         LINE#         150
  C:6E7EH         LINE#         151
  C:6E8EH         LINE#         152
  C:6E8EH         LINE#         153
  C:6E8EH         LINE#         154
  C:6E8EH         LINE#         155
  C:6E8FH         LINE#         157
  C:6E8FH         LINE#         158
  C:6E91H         LINE#         159
  C:6E91H         LINE#         160
  C:6E92H         LINE#         162
  C:6E92H         LINE#         163
  C:6E94H         LINE#         165
  C:6E94H         LINE#         166
  C:6E95H         LINE#         168
  C:6E95H         LINE#         169
BL51 BANKED LINKER/LOCATER V6.22.2.0                                                  10/01/2020  09:24:10  PAGE 33


  C:6E97H         LINE#         171
  C:6E97H         LINE#         173
  C:6E98H         LINE#         175
  C:6E98H         LINE#         176
  C:6E9AH         LINE#         178
  C:6E9AH         LINE#         179
  C:6E9BH         LINE#         181
  C:6E9BH         LINE#         182
  C:6E9DH         LINE#         184
  C:6E9DH         LINE#         185
  C:6E9EH         LINE#         187
  C:6E9EH         LINE#         188
  C:6EA0H         LINE#         190
  C:6EA0H         LINE#         191
  C:6EA1H         LINE#         193
  C:6EA1H         LINE#         194
  C:6EA3H         LINE#         196
  C:6EA3H         LINE#         197
  C:6EA3H         LINE#         199
  C:6EA4H         LINE#         201
  C:6EA4H         LINE#         202
  C:6EA6H         LINE#         204
  C:6EA6H         LINE#         206
  C:6EA7H         LINE#         209
  C:6EA7H         LINE#         210
  C:6EA9H         LINE#         212
  C:6EA9H         LINE#         214
  C:6EAAH         LINE#         217
  C:6EAAH         LINE#         218
  C:6EACH         LINE#         220
  C:6EACH         LINE#         222
  C:6EACH         LINE#         224
  -------         ENDPROC       _VALIDAR_CLK
  -------         PROC          _BLOCK_WRITE_CLOCK_ASCII
  X:0011H         SYMBOL        datos_clock
  -------         DO            
  D:0007H         SYMBOL        temp
  -------         ENDDO         
  C:988CH         LINE#         230
  C:9897H         LINE#         232
  C:9897H         LINE#         237
  C:98A1H         LINE#         238
  C:98A1H         LINE#         239
  C:98A1H         LINE#         240
  C:98A1H         LINE#         242
  C:98ABH         LINE#         243
  C:98B5H         LINE#         244
  C:98BFH         LINE#         245
  C:98BFH         LINE#         246
  C:98BFH         LINE#         247
  C:98BFH         LINE#         249
  C:98C9H         LINE#         250
  C:98C9H         LINE#         251
  C:98C9H         LINE#         252
  C:98C9H         LINE#         254
  C:98D3H         LINE#         255
  C:98D3H         LINE#         256
BL51 BANKED LINKER/LOCATER V6.22.2.0                                                  10/01/2020  09:24:10  PAGE 34


  C:98D3H         LINE#         257
  C:98D3H         LINE#         259
  C:98DDH         LINE#         260
  C:98DDH         LINE#         261
  C:98DDH         LINE#         262
  C:98DDH         LINE#         264
  C:98E7H         LINE#         265
  C:98F1H         LINE#         266
  C:98FBH         LINE#         267
  C:9905H         LINE#         269
  C:9915H         LINE#         270
  -------         ENDPROC       _BLOCK_WRITE_CLOCK_ASCII
  -------         PROC          _BCD_HEX
  D:0007H         SYMBOL        l_data
  -------         DO            
  D:0006H         SYMBOL        temp
  D:0005H         SYMBOL        j
  -------         ENDDO         
  C:B2C2H         LINE#         276
  C:B2C2H         LINE#         277
  C:B2C2H         LINE#         279
  C:B2C4H         LINE#         280
  C:B2C8H         LINE#         281
  C:B2CBH         LINE#         282
  C:B2CDH         LINE#         283
  C:B2CDH         LINE#         284
  C:B2D1H         LINE#         285
  C:B2D8H         LINE#         286
  C:B2D8H         LINE#         287
  C:B2DCH         LINE#         288
  C:B2DFH         LINE#         289
  C:B2DFH         LINE#         290
  C:B2DFH         LINE#         291
  -------         ENDPROC       _BCD_HEX
  C:AD2DH         SYMBOL        L?0080
  -------         PROC          L?0079
  -------         ENDPROC       L?0079
  C:AD2DH         SYMBOL        L?0080
  -------         PROC          _HEX_BCD
  D:0007H         SYMBOL        byte
  -------         DO            
  D:0006H         SYMBOL        nibble_h
  D:0005H         SYMBOL        nibble_l
  D:0004H         SYMBOL        k
  D:0007H         SYMBOL        byte_out
  -------         ENDDO         
  C:AD3CH         LINE#         295
  C:AD3CH         LINE#         296
  C:AD3CH         LINE#         301
  C:AD3EH         LINE#         302
  C:AD3FH         LINE#         304
  C:AD45H         LINE#         305
  C:AD45H         LINE#         306
  C:AD46H         LINE#         307
  C:AD4BH         LINE#         308
  C:AD4BH         LINE#         309
  C:AD4CH         LINE#         310
BL51 BANKED LINKER/LOCATER V6.22.2.0                                                  10/01/2020  09:24:10  PAGE 35


  C:AD4DH         LINE#         311
  C:AD4DH         LINE#         312
  C:AD50H         LINE#         313
  C:AD54H         LINE#         314
  C:AD57H         LINE#         315
  C:AD5AH         LINE#         316
  C:AD5CH         LINE#         317
  C:AD5CH         LINE#         319
  -------         ENDPROC       _HEX_BCD
  -------         PROC          _HEX_ASCII
  X:005EH         SYMBOL        datos
  X:0061H         SYMBOL        fecha_asii
  -------         DO            
  D:0007H         SYMBOL        dato
  -------         ENDDO         
  C:95B9H         LINE#         320
  C:95C4H         LINE#         321
  C:95C4H         LINE#         325
  C:95C7H         LINE#         326
  C:95DFH         LINE#         327
  C:95F4H         LINE#         328
  C:95F4H         LINE#         330
  C:95F7H         LINE#         331
  C:9612H         LINE#         332
  C:961AH         LINE#         333
  C:961AH         LINE#         335
  C:961DH         LINE#         336
  C:9638H         LINE#         337
  C:9643H         LINE#         339
  -------         ENDPROC       _HEX_ASCII
  -------         PROC          _BYTEHEX_DECIMAL
  D:0001H         SYMBOL        buffer
  D:0005H         SYMBOL        valorhex
  -------         DO            
  X:0016H         SYMBOL        numero
  D:0007H         SYMBOL        centena
  D:0006H         SYMBOL        decena
  -------         ENDDO         
  C:A58EH         LINE#         347
  C:A58EH         LINE#         348
  C:A58EH         LINE#         351
  C:A590H         LINE#         352
  C:A591H         LINE#         353
  C:A596H         LINE#         355
  C:A5A3H         LINE#         356
  C:A5A3H         LINE#         357
  C:A5A7H         LINE#         358
  C:A5A8H         LINE#         359
  C:A5AAH         LINE#         360
  C:A5B0H         LINE#         361
  C:A5B7H         LINE#         362
  C:A5C4H         LINE#         363
  C:A5C4H         LINE#         364
  C:A5C8H         LINE#         365
  C:A5C9H         LINE#         366
  C:A5CBH         LINE#         367
  C:A5D1H         LINE#         368
BL51 BANKED LINKER/LOCATER V6.22.2.0                                                  10/01/2020  09:24:10  PAGE 36


  C:A5D8H         LINE#         369
  C:A5E1H         LINE#         370
  C:A5E8H         LINE#         371
  -------         ENDPROC       _BYTEHEX_DECIMAL
  -------         PROC          _TWO_BYTEHEX_DECIMAL
  X:0016H         SYMBOL        buffer
  X:0019H         SYMBOL        id_h
  X:001AH         SYMBOL        id_l
  -------         DO            
  X:001BH         SYMBOL        valor
  D:0006H         SYMBOL        numero
  X:001DH         SYMBOL        temp
  X:001EH         SYMBOL        dmil
  X:001FH         SYMBOL        mil
  X:0020H         SYMBOL        centena
  X:0021H         SYMBOL        decena
  -------         ENDDO         
  C:4281H         LINE#         378
  C:428FH         LINE#         379
  C:428FH         LINE#         383
  C:4296H         LINE#         384
  C:429AH         LINE#         385
  C:429CH         LINE#         386
  C:429EH         LINE#         387
  C:42A0H         LINE#         390
  C:42A5H         LINE#         391
  C:42A8H         LINE#         392
  C:42AEH         LINE#         394
  C:4309H         LINE#         395
  C:4311H         LINE#         396
  C:4314H         LINE#         397
  C:436FH         LINE#         399
  C:4377H         LINE#         400
  C:437AH         LINE#         401
  C:4380H         LINE#         402
  C:43DBH         LINE#         403
  C:43E3H         LINE#         404
  C:43E6H         LINE#         405
  C:4441H         LINE#         406
  C:4441H         LINE#         408
  C:444AH         LINE#         409
  C:444AH         LINE#         410
  C:4452H         LINE#         411
  C:4458H         LINE#         412
  C:445AH         LINE#         413
  C:4470H         LINE#         414
  C:447AH         LINE#         415
  C:4483H         LINE#         416
  C:4483H         LINE#         417
  C:448BH         LINE#         418
  C:4491H         LINE#         419
  C:4493H         LINE#         420
  C:44A9H         LINE#         421
  C:44B3H         LINE#         422
  C:44BCH         LINE#         423
  C:44BCH         LINE#         424
  C:44C4H         LINE#         425
BL51 BANKED LINKER/LOCATER V6.22.2.0                                                  10/01/2020  09:24:10  PAGE 37


  C:44CAH         LINE#         426
  C:44CCH         LINE#         427
  C:44E2H         LINE#         428
  C:44ECH         LINE#         429
  C:44F5H         LINE#         430
  C:44F5H         LINE#         431
  C:44FDH         LINE#         432
  C:4503H         LINE#         433
  C:4505H         LINE#         434
  C:451BH         LINE#         435
  C:4525H         LINE#         436
  C:4538H         LINE#         437
  C:4542H         LINE#         438
  -------         ENDPROC       _TWO_BYTEHEX_DECIMAL
  -------         PROC          _BLOCK_READ_CLOCK_ASCII
  X:0052H         SYMBOL        datos_clock
  -------         DO            
  D:0007H         SYMBOL        dato
  -------         ENDDO         
  C:5B2CH         LINE#         444
  C:5B2FH         LINE#         445
  C:5B2FH         LINE#         451
  C:5B32H         LINE#         452
  C:5B4AH         LINE#         453
  C:5B54H         LINE#         454
  C:5B69H         LINE#         455
  C:5B73H         LINE#         458
  C:5B78H         LINE#         459
  C:5B90H         LINE#         460
  C:5B9AH         LINE#         461
  C:5BAFH         LINE#         462
  C:5BB9H         LINE#         465
  C:5BBEH         LINE#         466
  C:5BD6H         LINE#         467
  C:5BE0H         LINE#         468
  C:5BF5H         LINE#         469
  C:5BFFH         LINE#         473
  C:5C04H         LINE#         474
  C:5C1CH         LINE#         475
  C:5C26H         LINE#         476
  C:5C3BH         LINE#         477
  C:5C45H         LINE#         480
  C:5C4AH         LINE#         481
  C:5C62H         LINE#         482
  C:5C6CH         LINE#         483
  C:5C81H         LINE#         484
  C:5C8BH         LINE#         485
  -------         ENDPROC       _BLOCK_READ_CLOCK_ASCII
  -------         PROC          _BLOCK_READ_CLOCK_HEX
  X:00AFH         SYMBOL        datos_clock
  C:9040H         LINE#         489
  C:9043H         LINE#         490
  C:9043H         LINE#         493
  C:9058H         LINE#         494
  C:9062H         LINE#         496
  C:9079H         LINE#         497
  C:9083H         LINE#         499
BL51 BANKED LINKER/LOCATER V6.22.2.0                                                  10/01/2020  09:24:10  PAGE 38


  C:909AH         LINE#         500
  C:90A4H         LINE#         502
  C:90BBH         LINE#         503
  C:90C5H         LINE#         505
  C:90DCH         LINE#         506
  -------         ENDPROC       _BLOCK_READ_CLOCK_HEX
  -------         PROC          _BLOCK_READ_CLOCK
  X:001EH         SYMBOL        datos_clock
  C:856AH         LINE#         533
  C:856DH         LINE#         534
  C:856DH         LINE#         536
  C:857FH         LINE#         537
  C:8589H         LINE#         539
  C:859DH         LINE#         540
  C:85A7H         LINE#         542
  C:85BBH         LINE#         543
  C:85C5H         LINE#         545
  C:85D9H         LINE#         546
  C:85E3H         LINE#         548
  C:85F7H         LINE#         549
  C:8601H         LINE#         551
  C:8615H         LINE#         552
  C:861FH         LINE#         553
  -------         ENDPROC       _BLOCK_READ_CLOCK
  -------         PROC          COND_INI_CLOCK
  C:B430H         LINE#         556
  C:B430H         LINE#         557
  C:B430H         LINE#         558
  C:B432H         LINE#         559
  C:B434H         LINE#         560
  C:B436H         LINE#         561
  -------         ENDPROC       COND_INI_CLOCK
  -------         PROC          _CHECK_FECHAOUT
  X:009DH         SYMBOL        buffer
  -------         DO            
  X:00A0H         SYMBOL        fecha_inicio
  X:00A4H         SYMBOL        fecha_fin
  X:00A8H         SYMBOL        datos_clk
  X:00AEH         SYMBOL        temp
  -------         ENDDO         
  C:84A1H         LINE#         571
  C:84ACH         LINE#         572
  C:84ACH         LINE#         578
  C:84B5H         LINE#         579
  C:84E4H         LINE#         580
  C:8537H         LINE#         583
  C:8557H         LINE#         584
  C:8557H         LINE#         585
  C:855DH         LINE#         586
  C:855FH         LINE#         588
  C:855FH         LINE#         589
  C:8564H         LINE#         590
  C:8564H         LINE#         594
  C:8569H         LINE#         595
  -------         ENDPROC       _CHECK_FECHAOUT
  -------         ENDMOD        CLOCK

BL51 BANKED LINKER/LOCATER V6.22.2.0                                                  10/01/2020  09:24:10  PAGE 39


  -------         MODULE        DELAY
  C:0000H         SYMBOL        _ICE_DUMMY_
  C:AEC4H         PUBLIC        _Delay_10ms
  C:B37FH         PUBLIC        _Delay_20us
  C:B2E0H         PUBLIC        _Delay_1ms
  C:B483H         PUBLIC        Delay
  -------         PROC          _DELAY_20US
  D:0006H         SYMBOL        cntd_us
  -------         DO            
  D:0004H         SYMBOL        i
  -------         ENDDO         
  C:B37FH         LINE#         20
  C:B37FH         LINE#         21
  C:B37FH         LINE#         24
  C:B389H         LINE#         26
  C:B390H         LINE#         27
  -------         ENDPROC       _DELAY_20US
  -------         PROC          _DELAY_1MS
  D:0002H         SYMBOL        cntd_ms
  -------         DO            
  D:0082H         SYMBOL        i
  -------         ENDDO         
  C:B2E0H         LINE#         38
  C:B2E4H         LINE#         39
  C:B2E4H         LINE#         41
  C:B2FAH         LINE#         42
  -------         ENDPROC       _DELAY_1MS
  -------         PROC          _DELAY_10MS
  X:0009H         SYMBOL        cntd_10ms
  -------         DO            
  X:000BH         SYMBOL        i
  -------         ENDDO         
  C:AEC4H         LINE#         54
  C:AECCH         LINE#         55
  C:AECCH         LINE#         57
  C:AEFDH         LINE#         58
  -------         ENDPROC       _DELAY_10MS
  -------         PROC          DELAY
  C:B483H         LINE#         60
  C:B483H         LINE#         62
  -------         ENDPROC       DELAY
  -------         ENDMOD        DELAY

  -------         MODULE        EEPROM
  C:0000H         SYMBOL        _ICE_DUMMY_
  D:0090H         PUBLIC        P1
  C:79AFH         PUBLIC        _Write_EEprom_Ticket
  C:A325H         PUBLIC        _EscribirMemoria
  X:025EH         PUBLIC        l_chr
  C:B247H         PUBLIC        ackd
  B:0021H.5       PUBLIC        memory_flag
  B:00D0H.7       PUBLIC        CY
  C:B468H         PUBLIC        p_me
  C:B399H         PUBLIC        start
  B:0090H.2       PUBLIC        sda
  C:B267H         PUBLIC        ack_lect
  B:0090H.3       PUBLIC        scl
BL51 BANKED LINKER/LOCATER V6.22.2.0                                                  10/01/2020  09:24:10  PAGE 40


  C:AD61H         PUBLIC        _rd_eeprom
  C:B41EH         PUBLIC        stop
  X:025FH         PUBLIC        l_data_eeprom
  C:A769H         PUBLIC        _wr_eeprom
  C:A3FFH         PUBLIC        _LeerMemoria
  C:AF6CH         PUBLIC        Incremente_Ticket
  X:0260H         PUBLIC        byte_rd
  C:83D7H         PUBLIC        Read_EEprom_Ticket
  C:B222H         PUBLIC        _e_d_m
  C:8176H         PUBLIC        _graba_serie
  C:A890H         PUBLIC        Lee_No_Ticket
  C:A843H         PUBLIC        l_d_m
  -------         PROC          L?0057
  -------         ENDPROC       L?0057
  -------         PROC          ACKD
  -------         DO            
  D:0006H         SYMBOL        i
  -------         ENDDO         
  C:B247H         LINE#         35
  C:B247H         LINE#         36
  C:B247H         LINE#         38
  C:B249H         LINE#         39
  C:B24BH         LINE#         40
  C:B24DH         LINE#         41
  C:B250H         LINE#         42
  C:B250H         LINE#         43
  C:B253H         LINE#         44
  C:B253H         LINE#         45
  C:B255H         LINE#         46
  C:B257H         LINE#         48
  C:B258H         LINE#         49
  C:B258H         LINE#         50
  C:B263H         LINE#         52
  C:B263H         LINE#         53
  C:B263H         LINE#         55
  C:B263H         LINE#         56
  -------         ENDPROC       ACKD
  -------         PROC          L?0061
  -------         ENDPROC       L?0061
  -------         PROC          ACK_LECT
  -------         DO            
  D:0006H         SYMBOL        i
  -------         ENDDO         
  C:B267H         LINE#         59
  C:B267H         LINE#         60
  C:B267H         LINE#         62
  C:B269H         LINE#         63
  C:B26BH         LINE#         64
  C:B26DH         LINE#         65
  C:B270H         LINE#         66
  C:B270H         LINE#         67
  C:B273H         LINE#         68
  C:B273H         LINE#         69
  C:B275H         LINE#         70
  C:B277H         LINE#         71
  C:B278H         LINE#         72
  C:B278H         LINE#         73
BL51 BANKED LINKER/LOCATER V6.22.2.0                                                  10/01/2020  09:24:10  PAGE 41


  C:B283H         LINE#         74
  -------         ENDPROC       ACK_LECT
  -------         PROC          P_ME
  C:B468H         LINE#         76
  C:B468H         LINE#         77
  C:B468H         LINE#         78
  C:B46AH         LINE#         79
  C:B46BH         LINE#         80
  C:B46DH         LINE#         81
  -------         ENDPROC       P_ME
  -------         PROC          _E_D_M
  D:0007H         SYMBOL        a_serial_eeprom
  -------         DO            
  D:0006H         SYMBOL        nbits
  -------         ENDDO         
  C:B222H         LINE#         83
  C:B222H         LINE#         84
  C:B222H         LINE#         86
  C:B22EH         LINE#         87
  C:B22EH         LINE#         88
  C:B232H         LINE#         89
  C:B235H         LINE#         90
  C:B235H         LINE#         91
  C:B237H         LINE#         92
  C:B239H         LINE#         94
  C:B239H         LINE#         95
  C:B23BH         LINE#         96
  C:B23BH         LINE#         97
  C:B23DH         LINE#         98
  C:B240H         LINE#         99
  C:B243H         LINE#         101
  -------         ENDPROC       _E_D_M
  -------         PROC          L?0058
  -------         ENDPROC       L?0058
  -------         PROC          START
  C:B399H         LINE#         103
  C:B399H         LINE#         104
  C:B399H         LINE#         105
  C:B39BH         LINE#         106
  C:B39DH         LINE#         107
  C:B39EH         LINE#         108
  C:B3A0H         LINE#         109
  C:B3A2H         LINE#         111
  -------         ENDPROC       START
  -------         PROC          STOP
  C:B41EH         LINE#         113
  C:B41EH         LINE#         114
  C:B41EH         LINE#         115
  C:B420H         LINE#         116
  C:B422H         LINE#         117
  C:B424H         LINE#         118
  C:B426H         LINE#         120
  -------         ENDPROC       STOP
  -------         PROC          L_D_M
  -------         DO            
  D:0003H         SYMBOL        nbits
  -------         ENDDO         
BL51 BANKED LINKER/LOCATER V6.22.2.0                                                  10/01/2020  09:24:10  PAGE 42


  C:A843H         LINE#         122
  C:A843H         LINE#         123
  C:A843H         LINE#         125
  C:A850H         LINE#         126
  C:A850H         LINE#         127
  C:A852H         LINE#         128
  C:A855H         LINE#         129
  C:A855H         LINE#         130
  C:A85CH         LINE#         131
  C:A865H         LINE#         132
  C:A865H         LINE#         133
  C:A869H         LINE#         134
  C:A86BH         LINE#         135
  C:A86BH         LINE#         136
  C:A86BH         LINE#         137
  C:A86EH         LINE#         138
  C:A86EH         LINE#         139
  C:A875H         LINE#         140
  C:A87FH         LINE#         141
  C:A87FH         LINE#         142
  C:A883H         LINE#         143
  C:A885H         LINE#         144
  C:A885H         LINE#         145
  C:A885H         LINE#         146
  C:A888H         LINE#         147
  C:A88AH         LINE#         148
  C:A88FH         LINE#         149
  -------         ENDPROC       L_D_M
  -------         PROC          L?0056
  -------         ENDPROC       L?0056
  -------         PROC          _WR_EEPROM
  D:0002H         SYMBOL        control
  D:0004H         SYMBOL        Dir
  D:0003H         SYMBOL        data_eeprom
  -------         DO            
  D:0005H         SYMBOL        dir_h
  D:0001H         SYMBOL        dir_l
  -------         ENDDO         
  C:A769H         LINE#         155
  C:A76BH         LINE#         156
  C:A76BH         LINE#         158
  C:A76FH         LINE#         159
  C:A76FH         LINE#         160
  C:A76FH         LINE#         163
  C:A76FH         LINE#         164
  C:A76FH         LINE#         166
  C:A772H         LINE#         167
  C:A774H         LINE#         168
  C:A777H         LINE#         169
  C:A779H         LINE#         170
  C:A77CH         LINE#         171
  C:A781H         LINE#         172
  C:A784H         LINE#         173
  C:A789H         LINE#         174
  C:A78CH         LINE#         175
  C:A78FH         LINE#         176
  C:A796H         LINE#         178
BL51 BANKED LINKER/LOCATER V6.22.2.0                                                  10/01/2020  09:24:10  PAGE 43


  C:A798H         LINE#         179
  C:A79AH         LINE#         180
  C:A7A1H         LINE#         181
  -------         ENDPROC       _WR_EEPROM
  C:AD5DH         SYMBOL        L?0060
  -------         PROC          L?0059
  -------         ENDPROC       L?0059
  C:AD5DH         SYMBOL        L?0060
  -------         PROC          _RD_EEPROM
  D:0003H         SYMBOL        control
  D:0004H         SYMBOL        Dir
  -------         DO            
  D:0005H         SYMBOL        dir_h
  D:0002H         SYMBOL        dir_l
  -------         ENDDO         
  C:AD61H         LINE#         219
  C:AD63H         LINE#         220
  C:AD63H         LINE#         223
  C:AD67H         LINE#         224
  C:AD67H         LINE#         225
  C:AD67H         LINE#         227
  C:AD67H         LINE#         228
  C:AD67H         LINE#         230
  C:AD6AH         LINE#         231
  C:AD6CH         LINE#         232
  C:AD6FH         LINE#         233
  C:AD71H         LINE#         234
  C:AD74H         LINE#         235
  C:AD79H         LINE#         236
  C:AD7CH         LINE#         237
  C:AD7FH         LINE#         238
  C:AD85H         LINE#         239
  C:AD88H         LINE#         240
  C:AD8AH         LINE#         241
  C:AD8DH         LINE#         242
  C:AD90H         LINE#         243
  C:AD92H         LINE#         244
  C:AD94H         LINE#         245
  C:AD99H         LINE#         246
  -------         ENDPROC       _RD_EEPROM
  -------         PROC          _GRABA_SERIE
  X:0011H         SYMBOL        buffer
  -------         DO            
  X:0014H         SYMBOL        j
  X:0015H         SYMBOL        error
  -------         ENDDO         
  C:8176H         LINE#         253
  C:8181H         LINE#         254
  C:8181H         LINE#         257
  C:8186H         LINE#         262
  C:8198H         LINE#         264
  C:81ABH         LINE#         265
  C:81ABH         LINE#         266
  C:81D4H         LINE#         267
  C:81D4H         LINE#         268
  C:81DAH         LINE#         270
  C:81E3H         LINE#         271
BL51 BANKED LINKER/LOCATER V6.22.2.0                                                  10/01/2020  09:24:10  PAGE 44


  C:81F1H         LINE#         272
  C:81FAH         LINE#         273
  C:81FAH         LINE#         275
  C:8202H         LINE#         279
  C:8208H         LINE#         280
  C:8208H         LINE#         281
  C:8216H         LINE#         283
  C:8216H         LINE#         285
  C:8216H         LINE#         286
  C:8220H         LINE#         287
  C:822BH         LINE#         288
  C:8236H         LINE#         289
  C:8241H         LINE#         291
  C:8241H         LINE#         292
  -------         ENDPROC       _GRABA_SERIE
  -------         PROC          _WRITE_EEPROM_TICKET
  X:0016H         SYMBOL        buffer
  -------         DO            
  X:0019H         SYMBOL        cod_3
  X:001AH         SYMBOL        cod_2
  X:001BH         SYMBOL        cod_1
  X:001CH         SYMBOL        cod_0
  X:001DH         SYMBOL        Noticket
  D:0004H         SYMBOL        Bnoticket
  -------         ENDDO         
  C:79AFH         LINE#         293
  C:79BAH         LINE#         294
  C:79BAH         LINE#         296
  C:79C2H         LINE#         297
  C:79CBH         LINE#         298
  C:79D9H         LINE#         299
  C:79E2H         LINE#         300
  C:79F6H         LINE#         302
  C:79FFH         LINE#         303
  C:7A12H         LINE#         304
  C:7A17H         LINE#         305
  C:7A1AH         LINE#         307
  C:7A2DH         LINE#         308
  C:7A32H         LINE#         309
  C:7A35H         LINE#         311
  C:7A48H         LINE#         312
  C:7A4DH         LINE#         313
  C:7A50H         LINE#         315
  C:7A5CH         LINE#         316
  C:7A5FH         LINE#         317
  C:7A68H         LINE#         319
  C:7A76H         LINE#         320
  C:7A84H         LINE#         321
  C:7A92H         LINE#         322
  -------         ENDPROC       _WRITE_EEPROM_TICKET
  -------         PROC          LEE_NO_TICKET
  -------         DO            
  D:0004H         SYMBOL        Noticket
  X:001EH         SYMBOL        Lee_No_Ticket
  D:0007H         SYMBOL        num_chr
  -------         ENDDO         
  C:A890H         LINE#         327
BL51 BANKED LINKER/LOCATER V6.22.2.0                                                  10/01/2020  09:24:10  PAGE 45


  C:A890H         LINE#         328
  C:A890H         LINE#         332
  C:A893H         LINE#         333
  C:A8AEH         LINE#         334
  C:A8B7H         LINE#         335
  C:A8C3H         LINE#         336
  C:A8CCH         LINE#         337
  C:A8D5H         LINE#         338
  C:A8DBH         LINE#         339
  -------         ENDPROC       LEE_NO_TICKET
  -------         PROC          READ_EEPROM_TICKET
  -------         DO            
  D:0001H         SYMBOL        cod3
  X:0029H         SYMBOL        cod2
  X:002AH         SYMBOL        cod1
  X:002BH         SYMBOL        cod0
  X:002CH         SYMBOL        Noticket
  -------         ENDDO         
  C:83D7H         LINE#         343
  C:83D7H         LINE#         344
  C:83D7H         LINE#         346
  C:83E1H         LINE#         347
  C:83E8H         LINE#         348
  C:83F2H         LINE#         349
  C:8400H         LINE#         350
  C:840AH         LINE#         352
  C:842AH         LINE#         353
  C:844FH         LINE#         354
  C:8474H         LINE#         355
  C:8492H         LINE#         356
  C:84A0H         LINE#         357
  -------         ENDPROC       READ_EEPROM_TICKET
  -------         PROC          INCREMENTE_TICKET
  -------         DO            
  D:0004H         SYMBOL        Noticket
  X:0007H         SYMBOL        Lee_No_Ticket
  -------         ENDDO         
  C:AF6CH         LINE#         361
  C:AF6CH         LINE#         362
  C:AF6CH         LINE#         366
  C:AF6FH         LINE#         367
  C:AF7CH         LINE#         368
  C:AF97H         LINE#         369
  -------         ENDPROC       INCREMENTE_TICKET
  -------         PROC          _LEERMEMORIA
  X:009DH         SYMBOL        addres
  X:009FH         SYMBOL        res
  -------         DO            
  D:0007H         SYMBOL        i
  -------         ENDDO         
  C:A3FFH         LINE#         375
  C:A410H         LINE#         376
  C:A410H         LINE#         378
  C:A410H         LINE#         379
  C:A42CH         LINE#         380
  C:A43BH         LINE#         381
  C:A449H         LINE#         382
BL51 BANKED LINKER/LOCATER V6.22.2.0                                                  10/01/2020  09:24:10  PAGE 46


  C:A453H         LINE#         383
  C:A456H         LINE#         384
  -------         ENDPROC       _LEERMEMORIA
  -------         PROC          _ESCRIBIRMEMORIA
  X:005EH         SYMBOL        addres
  X:0060H         SYMBOL        res
  C:A325H         LINE#         386
  C:A336H         LINE#         387
  C:A336H         LINE#         390
  C:A346H         LINE#         391
  C:A34DH         LINE#         392
  C:A350H         LINE#         394
  C:A35EH         LINE#         395
  C:A368H         LINE#         396
  C:A36AH         LINE#         397
  C:A36DH         LINE#         398
  C:A37BH         LINE#         399
  C:A385H         LINE#         400
  -------         ENDPROC       _ESCRIBIRMEMORIA
  -------         ENDMOD        EEPROM

  -------         MODULE        IO_SENSORES
  C:0000H         SYMBOL        _ICE_DUMMY_
  D:0090H         PUBLIC        P1
  D:00B0H         PUBLIC        P3
  C:AB5CH         PUBLIC        Dir_board
  C:B445H         PUBLIC        sel_Pulsa
  B:0090H.1       PUBLIC        DataIn
  C:B341H         PUBLIC        Dir_Board_Monitor
  C:B43EH         PUBLIC        sel_Auto
  C:AEFEH         PUBLIC        ValidaSensoresPaso
  B:00B0H.3       PUBLIC        busy
  C:B284H         PUBLIC        ValidaSensor
  C:B453H         PUBLIC        sel_Sensor1
  C:B44CH         PUBLIC        sel_Sensor2
  C:A6A2H         PUBLIC        Valida_Sensor1_Auto
  B:00B0H.5       PUBLIC        sel_A
  B:00B0H.6       PUBLIC        sel_B
  B:00B0H.7       PUBLIC        sel_C
  C:9E5FH         PUBLIC        msj_lcd_informativo
  C:B45AH         PUBLIC        sel_Dir1
  C:B461H         PUBLIC        sel_Dir2
  C:B437H         PUBLIC        sel_Funcion
  -------         PROC          SEL_FUNCION
  C:B437H         LINE#         31
  C:B437H         LINE#         32
  C:B437H         LINE#         33
  C:B439H         LINE#         34
  C:B43BH         LINE#         35
  C:B43DH         LINE#         36
  -------         ENDPROC       SEL_FUNCION
  -------         PROC          SEL_AUTO
  C:B43EH         LINE#         38
  C:B43EH         LINE#         39
  C:B43EH         LINE#         40
  C:B440H         LINE#         41
  C:B442H         LINE#         42
BL51 BANKED LINKER/LOCATER V6.22.2.0                                                  10/01/2020  09:24:10  PAGE 47


  C:B444H         LINE#         43
  -------         ENDPROC       SEL_AUTO
  -------         PROC          SEL_PULSA
  C:B445H         LINE#         45
  C:B445H         LINE#         46
  C:B445H         LINE#         47
  C:B447H         LINE#         48
  C:B449H         LINE#         49
  C:B44BH         LINE#         50
  -------         ENDPROC       SEL_PULSA
  -------         PROC          SEL_SENSOR2
  C:B44CH         LINE#         53
  C:B44CH         LINE#         54
  C:B44CH         LINE#         55
  C:B44EH         LINE#         56
  C:B450H         LINE#         57
  C:B452H         LINE#         58
  -------         ENDPROC       SEL_SENSOR2
  -------         PROC          SEL_SENSOR1
  C:B453H         LINE#         60
  C:B453H         LINE#         61
  C:B453H         LINE#         62
  C:B455H         LINE#         63
  C:B457H         LINE#         64
  C:B459H         LINE#         65
  -------         ENDPROC       SEL_SENSOR1
  -------         PROC          SEL_DIR1
  C:B45AH         LINE#         67
  C:B45AH         LINE#         68
  C:B45AH         LINE#         69
  C:B45CH         LINE#         70
  C:B45EH         LINE#         71
  C:B460H         LINE#         72
  -------         ENDPROC       SEL_DIR1
  -------         PROC          SEL_DIR2
  C:B461H         LINE#         74
  C:B461H         LINE#         75
  C:B461H         LINE#         76
  C:B463H         LINE#         77
  C:B465H         LINE#         78
  C:B467H         LINE#         79
  -------         ENDPROC       SEL_DIR2
  -------         PROC          VALIDASENSOR
  -------         DO            
  D:0007H         SYMBOL        Valido
  D:0004H         SYMBOL        Tmin
  -------         ENDDO         
  C:B284H         LINE#         81
  C:B284H         LINE#         82
  C:B284H         LINE#         84
  C:B286H         LINE#         85
  C:B28AH         LINE#         86
  C:B295H         LINE#         87
  C:B295H         LINE#         88
  C:B29AH         LINE#         89
  C:B29EH         LINE#         90
  C:B29EH         LINE#         91
BL51 BANKED LINKER/LOCATER V6.22.2.0                                                  10/01/2020  09:24:10  PAGE 48


  C:B2A0H         LINE#         92
  C:B2A0H         LINE#         93
  C:B2A2H         LINE#         94
  C:B2A2H         LINE#         95
  -------         ENDPROC       VALIDASENSOR
  -------         PROC          DIR_BOARD
  -------         DO            
  X:0033H         SYMBOL        Board
  D:0007H         SYMBOL        Board_High
  -------         ENDDO         
  C:AB5CH         LINE#         99
  C:AB5CH         LINE#         100
  C:AB5CH         LINE#         101
  C:AB62H         LINE#         103
  C:AB65H         LINE#         104
  C:AB68H         LINE#         105
  C:AB68H         LINE#         106
  C:AB6BH         LINE#         107
  C:AB6BH         LINE#         108
  C:AB6EH         LINE#         109
  C:AB71H         LINE#         110
  C:AB71H         LINE#         111
  C:AB78H         LINE#         112
  C:AB78H         LINE#         113
  C:AB80H         LINE#         114
  C:AB80H         LINE#         115
  C:AB88H         LINE#         117
  C:AB8BH         LINE#         118
  C:AB8BH         LINE#         119
  C:AB91H         LINE#         120
  C:AB91H         LINE#         121
  C:AB93H         LINE#         122
  C:AB95H         LINE#         123
  C:AB97H         LINE#         124
  C:AB97H         LINE#         126
  C:AB97H         LINE#         127
  C:AB9EH         LINE#         128
  -------         ENDPROC       DIR_BOARD
  -------         PROC          DIR_BOARD_MONITOR
  -------         DO            
  D:0007H         SYMBOL        Board_High
  -------         ENDDO         
  C:B341H         LINE#         129
  C:B341H         LINE#         130
  C:B341H         LINE#         133
  C:B34AH         LINE#         134
  C:B34DH         LINE#         135
  C:B34DH         LINE#         136
  C:B350H         LINE#         137
  C:B350H         LINE#         138
  C:B352H         LINE#         139
  C:B352H         LINE#         140
  C:B352H         LINE#         141
  C:B356H         LINE#         142
  -------         ENDPROC       DIR_BOARD_MONITOR
  -------         PROC          VALIDA_SENSOR1_AUTO
  -------         DO            
BL51 BANKED LINKER/LOCATER V6.22.2.0                                                  10/01/2020  09:24:10  PAGE 49


  X:0012H         SYMBOL        sensor
  -------         ENDDO         
  C:A6A2H         LINE#         146
  C:A6A2H         LINE#         147
  C:A6A2H         LINE#         149
  C:A6A5H         LINE#         150
  C:A6A8H         LINE#         151
  C:A6ABH         LINE#         152
  C:A6B0H         LINE#         153
  C:A6B0H         LINE#         154
  C:A6B7H         LINE#         155
  C:A6BBH         LINE#         156
  C:A6BBH         LINE#         158
  C:A6BDH         LINE#         160
  C:A6BDH         LINE#         161
  C:A6C4H         LINE#         162
  C:A6C9H         LINE#         163
  C:A6C9H         LINE#         164
  C:A6C9H         LINE#         167
  C:A6CBH         LINE#         169
  C:A6CEH         LINE#         170
  C:A6D3H         LINE#         171
  C:A6D3H         LINE#         173
  C:A6DAH         LINE#         174
  C:A6E0H         LINE#         175
  C:A6E6H         LINE#         176
  C:A6E8H         LINE#         178
  C:A6E8H         LINE#         179
  C:A6EFH         LINE#         180
  C:A6F4H         LINE#         181
  C:A6F4H         LINE#         184
  C:A6F4H         LINE#         185
  C:A6F9H         LINE#         186
  -------         ENDPROC       VALIDA_SENSOR1_AUTO
  -------         PROC          VALIDASENSORESPASO
  -------         DO            
  X:0011H         SYMBOL        sensor
  -------         ENDDO         
  C:AEFEH         LINE#         191
  C:AEFEH         LINE#         192
  C:AEFEH         LINE#         194
  C:AF01H         LINE#         195
  C:AF04H         LINE#         196
  C:AF04H         LINE#         197
  C:AF12H         LINE#         198
  C:AF12H         LINE#         199
  C:AF1AH         LINE#         201
  C:AF1CH         LINE#         203
  C:AF1CH         LINE#         204
  C:AF22H         LINE#         205
  C:AF24H         LINE#         206
  C:AF24H         LINE#         207
  C:AF24H         LINE#         208
  C:AF24H         LINE#         209
  C:AF2DH         LINE#         210
  C:AF30H         LINE#         211
  C:AF30H         LINE#         212
BL51 BANKED LINKER/LOCATER V6.22.2.0                                                  10/01/2020  09:24:10  PAGE 50


  C:AF35H         LINE#         213
  -------         ENDPROC       VALIDASENSORESPASO
  -------         PROC          MSJ_LCD_INFORMATIVO
  -------         DO            
  X:0002H         SYMBOL        info
  X:0269H         SYMBOL        toggle
  -------         ENDDO         
  C:9E5FH         LINE#         223
  C:9E5FH         LINE#         224
  C:9E5FH         LINE#         225
  C:9E64H         LINE#         227
  C:9E67H         LINE#         228
  C:9E6AH         LINE#         229
  C:9E6AH         LINE#         230
  C:9E76H         LINE#         231
  C:9E76H         LINE#         232
  C:9E79H         LINE#         233
  C:9E79H         LINE#         234
  C:9E7BH         LINE#         235
  C:9E7EH         LINE#         236
  C:9E84H         LINE#         237
  C:9E84H         LINE#         238
  C:9E86H         LINE#         239
  C:9E94H         LINE#         240
  C:9E94H         LINE#         241
  C:9E97H         LINE#         242
  C:9E97H         LINE#         243
  C:9E99H         LINE#         244
  C:9E9CH         LINE#         245
  C:9EA2H         LINE#         246
  C:9EA2H         LINE#         247
  C:9EA4H         LINE#         248
  C:9EB2H         LINE#         249
  C:9EB2H         LINE#         250
  C:9EB5H         LINE#         251
  C:9EB5H         LINE#         252
  C:9EB7H         LINE#         253
  C:9EC5H         LINE#         254
  C:9EC5H         LINE#         255
  C:9EC7H         LINE#         256
  C:9ECEH         LINE#         258
  C:9ED3H         LINE#         259
  C:9ED3H         LINE#         261
  C:9ED3H         LINE#         263
  C:9ED3H         LINE#         265
  C:9ED6H         LINE#         266
  C:9ED9H         LINE#         267
  C:9ED9H         LINE#         268
  C:9EDEH         LINE#         269
  C:9EDEH         LINE#         271
  -------         ENDPROC       MSJ_LCD_INFORMATIVO
  -------         ENDMOD        IO_SENSORES

  -------         MODULE        PANTALLAS
  C:0000H         SYMBOL        _ICE_DUMMY_
  D:0080H         PUBLIC        P0
  C:A7A8H         PUBLIC        Reloj_Pantalla_Lcd
BL51 BANKED LINKER/LOCATER V6.22.2.0                                                  10/01/2020  09:24:10  PAGE 51


  C:25E5H         PUBLIC        _PantallaLCD
  C:AB20H         PUBLIC        _LCD_txt
  C:9A45H         PUBLIC        _Raspberry_data
  C:B16FH         PUBLIC        _tx_chrlcd
  C:3316H         SYMBOL        _?ix1000
  C:331CH         SYMBOL        _?ix1001
  C:3322H         SYMBOL        _?ix1002
  C:AA8CH         PUBLIC        _LCD_txt_num_char
  X:0206H         PUBLIC        malloc_memoria
  C:4808H         PUBLIC        _PantallaLCD_LINEA_2
  B:0098H.4       PUBLIC        REN
  B:0080H.7       PUBLIC        sel_com
  -------         PROC          _PANTALLALCD
  X:002BH         SYMBOL        cod_msg
  -------         DO            
  X:002CH         SYMBOL        Ini_LCD_Line_one
  X:0032H         SYMBOL        num_chr
  X:0033H         SYMBOL        msjpantalla
  -------         ENDDO         
  C:25E5H         LINE#         90
  C:25EAH         LINE#         91
  C:25EAH         LINE#         93
  C:25FDH         LINE#         100
  C:2608H         LINE#         101
  C:2617H         LINE#         102
  C:2619H         LINE#         104
  C:2622H         LINE#         105
  C:2622H         LINE#         106
  C:262CH         LINE#         108
  C:2688H         LINE#         109
  C:2688H         LINE#         111
  C:2688H         LINE#         112
  C:2696H         LINE#         113
  C:269CH         LINE#         114
  C:269FH         LINE#         115
  C:26A5H         LINE#         116
  C:26A8H         LINE#         118
  C:26A8H         LINE#         120
  C:26B6H         LINE#         121
  C:26BCH         LINE#         122
  C:26BFH         LINE#         123
  C:26C5H         LINE#         124
  C:26C8H         LINE#         126
  C:26C8H         LINE#         128
  C:26D6H         LINE#         129
  C:26DCH         LINE#         130
  C:26DFH         LINE#         131
  C:26E5H         LINE#         132
  C:26E8H         LINE#         133
  C:26E8H         LINE#         134
  C:26F6H         LINE#         135
  C:26FCH         LINE#         136
  C:26FFH         LINE#         137
  C:2705H         LINE#         138
  C:2708H         LINE#         139
  C:2708H         LINE#         140
  C:2716H         LINE#         141
BL51 BANKED LINKER/LOCATER V6.22.2.0                                                  10/01/2020  09:24:10  PAGE 52


  C:271CH         LINE#         142
  C:271FH         LINE#         143
  C:2725H         LINE#         144
  C:2728H         LINE#         145
  C:2728H         LINE#         146
  C:2736H         LINE#         147
  C:273CH         LINE#         148
  C:273FH         LINE#         149
  C:2745H         LINE#         150
  C:2748H         LINE#         151
  C:2748H         LINE#         153
  C:2756H         LINE#         154
  C:275CH         LINE#         155
  C:275FH         LINE#         156
  C:2765H         LINE#         157
  C:2768H         LINE#         158
  C:2768H         LINE#         164
  C:2768H         LINE#         165
  C:2776H         LINE#         166
  C:277CH         LINE#         167
  C:277FH         LINE#         168
  C:2785H         LINE#         169
  C:2788H         LINE#         170
  C:2788H         LINE#         171
  C:2796H         LINE#         172
  C:279CH         LINE#         173
  C:279FH         LINE#         174
  C:27A5H         LINE#         175
  C:27A8H         LINE#         177
  C:27A8H         LINE#         178
  C:27B6H         LINE#         179
  C:27BCH         LINE#         180
  C:27BFH         LINE#         181
  C:27C5H         LINE#         182
  C:27C8H         LINE#         184
  C:27C8H         LINE#         185
  C:27D6H         LINE#         186
  C:27DCH         LINE#         187
  C:27DFH         LINE#         188
  C:27E5H         LINE#         189
  C:27E8H         LINE#         194
  C:27E8H         LINE#         196
  C:27F6H         LINE#         197
  C:27FCH         LINE#         198
  C:27FFH         LINE#         199
  C:2805H         LINE#         200
  C:2808H         LINE#         202
  C:2808H         LINE#         204
  C:2816H         LINE#         205
  C:281CH         LINE#         206
  C:281FH         LINE#         207
  C:2825H         LINE#         208
  C:2828H         LINE#         210
  C:2828H         LINE#         211
  C:2836H         LINE#         212
  C:283CH         LINE#         213
  C:283FH         LINE#         214
BL51 BANKED LINKER/LOCATER V6.22.2.0                                                  10/01/2020  09:24:10  PAGE 53


  C:2845H         LINE#         215
  C:2848H         LINE#         217
  C:2848H         LINE#         219
  C:2856H         LINE#         220
  C:285CH         LINE#         221
  C:285FH         LINE#         222
  C:2865H         LINE#         223
  C:2868H         LINE#         225
  C:2868H         LINE#         227
  C:2876H         LINE#         228
  C:287CH         LINE#         229
  C:287FH         LINE#         230
  C:2885H         LINE#         231
  C:2888H         LINE#         233
  C:2888H         LINE#         234
  C:2896H         LINE#         235
  C:289CH         LINE#         236
  C:289FH         LINE#         237
  C:28A5H         LINE#         238
  C:28A8H         LINE#         240
  C:28A8H         LINE#         241
  C:28B6H         LINE#         242
  C:28BCH         LINE#         243
  C:28BFH         LINE#         244
  C:28C5H         LINE#         245
  C:28C8H         LINE#         247
  C:28C8H         LINE#         249
  C:28D6H         LINE#         250
  C:28DCH         LINE#         251
  C:28DFH         LINE#         252
  C:28E5H         LINE#         253
  C:28E8H         LINE#         255
  C:28E8H         LINE#         256
  C:28F6H         LINE#         257
  C:28FCH         LINE#         258
  C:28FFH         LINE#         259
  C:2905H         LINE#         260
  C:2908H         LINE#         261
  C:2908H         LINE#         262
  C:2916H         LINE#         263
  C:291CH         LINE#         264
  C:291FH         LINE#         265
  C:2925H         LINE#         266
  C:2928H         LINE#         267
  C:2928H         LINE#         268
  C:2936H         LINE#         269
  C:293CH         LINE#         270
  C:293FH         LINE#         271
  C:2945H         LINE#         272
  C:2948H         LINE#         273
  C:2948H         LINE#         274
  C:2956H         LINE#         275
  C:2959H         LINE#         276
  C:295FH         LINE#         277
  C:2961H         LINE#         281
  C:2961H         LINE#         282
  C:296FH         LINE#         283
BL51 BANKED LINKER/LOCATER V6.22.2.0                                                  10/01/2020  09:24:10  PAGE 54


  C:2975H         LINE#         284
  C:2978H         LINE#         285
  C:297EH         LINE#         286
  C:2980H         LINE#         287
  C:2980H         LINE#         288
  C:298EH         LINE#         289
  C:2994H         LINE#         290
  C:2997H         LINE#         291
  C:299DH         LINE#         292
  C:299FH         LINE#         293
  C:299FH         LINE#         294
  C:29ADH         LINE#         295
  C:29B3H         LINE#         296
  C:29B6H         LINE#         297
  C:29C1H         LINE#         298
  C:29C1H         LINE#         307
  C:29C1H         LINE#         309
  C:29C1H         LINE#         310
  C:29C1H         LINE#         311
  C:29C3H         LINE#         313
  C:29C4H         LINE#         315
  C:29C4H         LINE#         316
  C:29C6H         LINE#         317
  C:2A28H         LINE#         318
  C:2A28H         LINE#         321
  C:2A28H         LINE#         322
  C:2A3CH         LINE#         323
  C:2A3CH         LINE#         325
  C:2A3FH         LINE#         326
  C:2A3FH         LINE#         329
  C:2A53H         LINE#         330
  C:2A53H         LINE#         331
  C:2A56H         LINE#         333
  C:2A56H         LINE#         334
  C:2A6AH         LINE#         335
  C:2A6AH         LINE#         337
  C:2A6DH         LINE#         338
  C:2A6DH         LINE#         339
  C:2A81H         LINE#         340
  C:2A81H         LINE#         342
  C:2A84H         LINE#         343
  C:2A84H         LINE#         344
  C:2A98H         LINE#         345
  C:2A98H         LINE#         347
  C:2A9BH         LINE#         348
  C:2A9BH         LINE#         349
  C:2AAFH         LINE#         350
  C:2AAFH         LINE#         352
  C:2AB2H         LINE#         353
  C:2AB2H         LINE#         354
  C:2AC6H         LINE#         355
  C:2AC6H         LINE#         357
  C:2AC9H         LINE#         358
  C:2AC9H         LINE#         359
  C:2ADDH         LINE#         360
  C:2ADDH         LINE#         362
  C:2AE0H         LINE#         364
BL51 BANKED LINKER/LOCATER V6.22.2.0                                                  10/01/2020  09:24:10  PAGE 55


  C:2AE0H         LINE#         365
  C:2AF4H         LINE#         366
  C:2AF4H         LINE#         368
  C:2AF7H         LINE#         370
  C:2AF7H         LINE#         371
  C:2B0BH         LINE#         372
  C:2B0BH         LINE#         374
  C:2B0EH         LINE#         376
  C:2B0EH         LINE#         377
  C:2B22H         LINE#         378
  C:2B22H         LINE#         380
  C:2B25H         LINE#         382
  C:2B25H         LINE#         383
  C:2B39H         LINE#         384
  C:2B39H         LINE#         386
  C:2B3CH         LINE#         390
  C:2B3CH         LINE#         391
  C:2B50H         LINE#         392
  C:2B50H         LINE#         394
  C:2B53H         LINE#         396
  C:2B53H         LINE#         397
  C:2B67H         LINE#         398
  C:2B67H         LINE#         400
  C:2B6AH         LINE#         402
  C:2B6AH         LINE#         403
  C:2B7EH         LINE#         404
  C:2B7EH         LINE#         410
  C:2B81H         LINE#         411
  C:2B81H         LINE#         412
  C:2B95H         LINE#         413
  C:2B95H         LINE#         415
  C:2B98H         LINE#         416
  C:2B98H         LINE#         417
  C:2BACH         LINE#         418
  C:2BACH         LINE#         420
  C:2BAFH         LINE#         421
  C:2BAFH         LINE#         422
  C:2BC3H         LINE#         423
  C:2BC3H         LINE#         425
  C:2BC6H         LINE#         426
  C:2BC6H         LINE#         427
  C:2BDAH         LINE#         428
  C:2BDAH         LINE#         430
  C:2BDDH         LINE#         432
  C:2BDDH         LINE#         433
  C:2BF1H         LINE#         434
  C:2BF1H         LINE#         436
  C:2BF4H         LINE#         438
  C:2BF4H         LINE#         439
  C:2C08H         LINE#         440
  C:2C08H         LINE#         442
  C:2C0BH         LINE#         443
  C:2C0BH         LINE#         444
  C:2C1FH         LINE#         445
  C:2C1FH         LINE#         447
  C:2C22H         LINE#         448
  C:2C22H         LINE#         449
BL51 BANKED LINKER/LOCATER V6.22.2.0                                                  10/01/2020  09:24:10  PAGE 56


  C:2C36H         LINE#         450
  C:2C36H         LINE#         452
  C:2C39H         LINE#         453
  C:2C39H         LINE#         454
  C:2C4DH         LINE#         455
  C:2C4DH         LINE#         457
  C:2C4FH         LINE#         459
  C:2C4FH         LINE#         460
  C:2C63H         LINE#         461
  C:2C63H         LINE#         463
  C:2C65H         LINE#         464
  C:2C65H         LINE#         465
  C:2C79H         LINE#         466
  C:2C79H         LINE#         468
  C:2C7BH         LINE#         469
  C:2C7BH         LINE#         470
  C:2C8FH         LINE#         471
  C:2C8FH         LINE#         473
  C:2C91H         LINE#         478
  C:2C91H         LINE#         479
  C:2CA5H         LINE#         480
  C:2CA5H         LINE#         482
  C:2CA7H         LINE#         483
  C:2CA7H         LINE#         484
  C:2CBEH         LINE#         485
  C:2CC4H         LINE#         487
  C:2CC4H         LINE#         495
  C:2CC4H         LINE#         496
  C:2CC4H         LINE#         497
  C:2CC4H         LINE#         498
  C:2CCFH         LINE#         499
  C:2CD6H         LINE#         500
  C:2CD8H         LINE#         501
  C:2CD8H         LINE#         505
  -------         ENDPROC       _PANTALLALCD
  -------         PROC          _PANTALLALCD_LINEA_2
  X:0011H         SYMBOL        cod_msg
  X:0012H         SYMBOL        buffer
  -------         DO            
  X:0015H         SYMBOL        Ini_LCD_Line_one
  X:001BH         SYMBOL        num_chr
  X:001CH         SYMBOL        msjpantalla
  -------         ENDDO         
  C:4808H         LINE#         506
  C:4816H         LINE#         507
  C:4816H         LINE#         509
  C:4829H         LINE#         513
  C:4834H         LINE#         514
  C:4843H         LINE#         518
  C:4845H         LINE#         520
  C:484EH         LINE#         521
  C:484EH         LINE#         524
  C:485CH         LINE#         525
  C:485CH         LINE#         527
  C:485CH         LINE#         528
  C:485FH         LINE#         529
  C:486DH         LINE#         530
BL51 BANKED LINKER/LOCATER V6.22.2.0                                                  10/01/2020  09:24:10  PAGE 57


  C:4882H         LINE#         531
  C:4888H         LINE#         532
  C:488EH         LINE#         533
  C:4894H         LINE#         534
  C:4894H         LINE#         535
  C:4896H         LINE#         536
  C:4896H         LINE#         537
  C:4899H         LINE#         538
  C:48A7H         LINE#         539
  C:48BCH         LINE#         540
  C:48C2H         LINE#         541
  C:48C8H         LINE#         542
  C:48D3H         LINE#         543
  C:48E3H         LINE#         544
  C:48E3H         LINE#         548
  C:48E3H         LINE#         550
  C:48E3H         LINE#         552
  C:48E3H         LINE#         553
  C:48E5H         LINE#         554
  C:48E6H         LINE#         556
  C:48E6H         LINE#         557
  C:48E8H         LINE#         558
  C:4902H         LINE#         559
  C:4902H         LINE#         560
  C:4902H         LINE#         562
  C:4919H         LINE#         563
  C:4919H         LINE#         564
  C:4919H         LINE#         565
  C:4919H         LINE#         568
  C:491CH         LINE#         570
  C:491CH         LINE#         571
  C:4933H         LINE#         572
  C:4946H         LINE#         573
  C:4960H         LINE#         574
  C:4960H         LINE#         575
  C:4960H         LINE#         576
  C:4960H         LINE#         578
  C:4963H         LINE#         579
  C:4963H         LINE#         581
  C:4977H         LINE#         582
  C:497AH         LINE#         583
  C:497DH         LINE#         584
  C:497DH         LINE#         586
  C:4992H         LINE#         588
  C:4992H         LINE#         589
  C:4994H         LINE#         591
  C:4994H         LINE#         593
  C:49ADH         LINE#         595
  C:49B0H         LINE#         597
  C:49B0H         LINE#         598
  C:49C3H         LINE#         599
  C:49C3H         LINE#         600
  C:49CAH         LINE#         602
  C:49EBH         LINE#         604
  C:4A08H         LINE#         605
  C:4A0BH         LINE#         607
  C:4A0BH         LINE#         608
BL51 BANKED LINKER/LOCATER V6.22.2.0                                                  10/01/2020  09:24:10  PAGE 58


  C:4A12H         LINE#         610
  C:4A12H         LINE#         611
  C:4A12H         LINE#         614
  C:4A15H         LINE#         616
  C:4A15H         LINE#         617
  C:4A2CH         LINE#         618
  C:4A3FH         LINE#         619
  C:4A59H         LINE#         620
  C:4A85H         LINE#         621
  C:4AA2H         LINE#         622
  C:4AA5H         LINE#         624
  C:4AA5H         LINE#         626
  C:4AA5H         LINE#         628
  C:4AA5H         LINE#         629
  C:4AA5H         LINE#         630
  C:4AB0H         LINE#         631
  C:4AB2H         LINE#         632
  C:4AB2H         LINE#         633
  -------         ENDPROC       _PANTALLALCD_LINEA_2
  C:B166H         SYMBOL        L?0164
  C:B169H         SYMBOL        L?0165
  C:B16AH         SYMBOL        L?0166
  -------         PROC          L?0163
  -------         ENDPROC       L?0163
  C:B166H         SYMBOL        L?0164
  C:B169H         SYMBOL        L?0165
  C:B16AH         SYMBOL        L?0166
  -------         PROC          _TX_CHRLCD
  D:0007H         SYMBOL        data_com
  X:003AH         SYMBOL        enable_char_add
  -------         DO            
  X:003BH         SYMBOL        d
  -------         ENDDO         
  C:B16FH         LINE#         639
  C:B174H         LINE#         640
  C:B174H         LINE#         642
  C:B17CH         LINE#         643
  C:B18CH         LINE#         645
  -------         ENDPROC       _TX_CHRLCD
  -------         PROC          L?0170
  -------         ENDPROC       L?0170
  -------         PROC          _LCD_TXT
  X:0035H         SYMBOL        msg
  X:0038H         SYMBOL        enable_char_add
  -------         DO            
  X:0039H         SYMBOL        i
  -------         ENDDO         
  C:AB20H         LINE#         652
  C:AB2EH         LINE#         653
  C:AB2EH         LINE#         656
  C:AB4BH         LINE#         657
  C:AB4BH         LINE#         658
  C:AB53H         LINE#         659
  C:AB5BH         LINE#         660
  -------         ENDPROC       _LCD_TXT
  -------         PROC          _LCD_TXT_NUM_CHAR
  X:001EH         SYMBOL        msg
BL51 BANKED LINKER/LOCATER V6.22.2.0                                                  10/01/2020  09:24:10  PAGE 59


  X:0021H         SYMBOL        length_char
  X:0022H         SYMBOL        enable_char_add
  -------         DO            
  X:0023H         SYMBOL        i
  -------         ENDDO         
  C:AA8CH         LINE#         667
  C:AA9AH         LINE#         668
  C:AA9AH         LINE#         671
  C:AAADH         LINE#         672
  C:AAADH         LINE#         673
  C:AAC9H         LINE#         674
  C:AAD1H         LINE#         675
  -------         ENDPROC       _LCD_TXT_NUM_CHAR
  C:9A39H         SYMBOL        L?0168
  C:9A3CH         SYMBOL        L?0169
  -------         PROC          L?0167
  -------         ENDPROC       L?0167
  C:9A39H         SYMBOL        L?0168
  C:9A3CH         SYMBOL        L?0169
  -------         PROC          _RASPBERRY_DATA
  X:0035H         SYMBOL        msjpantalla
  -------         DO            
  X:0038H         SYMBOL        i
  X:0039H         SYMBOL        lenth_cadena
  X:003AH         SYMBOL        d
  -------         ENDDO         
  C:9A45H         LINE#         677
  C:9A50H         LINE#         678
  C:9A50H         LINE#         683
  C:9A58H         LINE#         685
  C:9A6AH         LINE#         686
  C:9A6AH         LINE#         688
  C:9A7CH         LINE#         689
  C:9A7CH         LINE#         690
  C:9A81H         LINE#         691
  C:9A9FH         LINE#         693
  C:9AA7H         LINE#         696
  C:9AB9H         LINE#         697
  C:9AB9H         LINE#         699
  C:9ABEH         LINE#         701
  -------         ENDPROC       _RASPBERRY_DATA
  -------         PROC          RELOJ_PANTALLA_LCD
  -------         DO            
  X:0011H         SYMBOL        Ini_Clock_LCD
  -------         ENDDO         
  C:A7A8H         LINE#         709
  C:A7A8H         LINE#         710
  C:A7A8H         LINE#         712
  C:A7BBH         LINE#         713
  C:A7C1H         LINE#         714
  C:A7C1H         LINE#         715
  C:A7C3H         LINE#         716
  C:A7CCH         LINE#         720
  C:A7CEH         LINE#         721
  C:A7DEH         LINE#         723
  C:A7E0H         LINE#         724
  C:A7E2H         LINE#         726
BL51 BANKED LINKER/LOCATER V6.22.2.0                                                  10/01/2020  09:24:10  PAGE 60


  C:A7E3H         LINE#         728
  C:A7E3H         LINE#         729
  C:A7E5H         LINE#         730
  C:A7EAH         LINE#         731
  C:A7F3H         LINE#         735
  C:A7F5H         LINE#         736
  C:A7F5H         LINE#         737
  -------         ENDPROC       RELOJ_PANTALLA_LCD
  -------         ENDMOD        PANTALLAS

  -------         MODULE        PROG
  C:0000H         SYMBOL        _ICE_DUMMY_
  C:50E1H         PUBLIC        Prog_fecha_vencimiento
  C:631AH         PUBLIC        Prog_Sin_Cobro
  C:6C7FH         PUBLIC        _Ver_Horario_Desde_Hasta
  C:72CBH         PUBLIC        Prog_debug
  C:75BFH         PUBLIC        Prog_AntiPassBack
  C:980FH         PUBLIC        _GetOption
  X:01B1H         PUBLIC        validacion
  C:77B7H         PUBLIC        Prog_Validar_Tipo_Vehiculo_Mensual
  X:01BCH         PUBLIC        cursor
  C:6B65H         PUBLIC        _Prog_Horarios_on_off
  C:935AH         PUBLIC        Show
  C:3BE7H         PUBLIC        Ver_Prog
  C:AFA0H         PUBLIC        Addr_Horarios
  C:8C2AH         PUBLIC        prog_id_cliente
  C:ABA7H         PUBLIC        _ValidarClave
  C:4AB3H         PUBLIC        menu
  C:73C7H         PUBLIC        Prog_Use_Lpr
  C:A4CBH         PUBLIC        _ListaComandos
  C:12F7H         SYMBOL        _?ix1000
  C:1302H         SYMBOL        _?ix1001
  C:1312H         SYMBOL        _?ix1002
  C:1322H         SYMBOL        _?ix1003
  C:1326H         SYMBOL        _?ix1004
  C:5F54H         PUBLIC        Prog_Horarios
  C:132AH         SYMBOL        _?ix1005
  C:78B3H         PUBLIC        Prog_Apb_Mensual
  C:87B5H         PUBLIC        Prog_tarjeta_automatica_o_boton
  C:4CDFH         PUBLIC        _hash_id
  C:4551H         PUBLIC        _Prog_Horario_dias
  C:8AB3H         PUBLIC        Prog_tiempo_gracia
  C:9EE7H         PUBLIC        _IngresaDato
  X:01D0H         PUBLIC        comandos
  C:A970H         PUBLIC        First_Clave
  C:B313H         PUBLIC        DisplayCursor
  C:76BBH         PUBLIC        Prog_Placa
  C:89F6H         PUBLIC        prog_cod_park
  C:6596H         PUBLIC        Ver_Horario
  C:6921H         PUBLIC        _Ver_Horario_dias
  C:4EE7H         PUBLIC        _Prog_Horario_Desde_Hasta
  C:74C3H         PUBLIC        tipo_pantalla
  C:7C6EH         PUBLIC        Prog_Address_High_Board
  C:AC69H         PUBLIC        _GetCMD
  -------         PROC          _HASH_ID
  X:005EH         SYMBOL        clave
  -------         DO            
BL51 BANKED LINKER/LOCATER V6.22.2.0                                                  10/01/2020  09:24:10  PAGE 61


  X:0061H         SYMBOL        len_clave
  X:0062H         SYMBOL        i
  X:01ADH         SYMBOL        temp
  X:01AFH         SYMBOL        temp1
  X:0063H         SYMBOL        aleatorio
  X:006EH         SYMBOL        suma
  X:007EH         SYMBOL        xxor
  X:008EH         SYMBOL        usuario1
  X:0099H         SYMBOL        vencimiento_password
  -------         ENDDO         
  C:4CDFH         LINE#         121
  C:4CEAH         LINE#         122
  C:4CEAH         LINE#         125
  C:4CFDH         LINE#         127
  C:4D10H         LINE#         128
  C:4D23H         LINE#         132
  C:4D30H         LINE#         133
  C:4D4CH         LINE#         135
  C:4D4CH         LINE#         136
  C:4D50H         LINE#         137
  C:4D52H         LINE#         139
  C:4D52H         LINE#         140
  C:4D59H         LINE#         141
  C:4D59H         LINE#         142
  C:4D6CH         LINE#         143
  C:4D80H         LINE#         144
  C:4D80H         LINE#         145
  C:4DACH         LINE#         146
  C:4DB7H         LINE#         147
  C:4DC4H         LINE#         148
  C:4DE2H         LINE#         149
  C:4DEDH         LINE#         150
  C:4DFAH         LINE#         151
  C:4E1EH         LINE#         152
  C:4E26H         LINE#         153
  C:4E26H         LINE#         154
  C:4E2BH         LINE#         155
  C:4E2BH         LINE#         156
  C:4E44H         LINE#         157
  C:4E44H         LINE#         158
  C:4E50H         LINE#         160
  C:4E50H         LINE#         161
  C:4E5FH         LINE#         162
  C:4E5FH         LINE#         163
  C:4E6BH         LINE#         164
  C:4E6BH         LINE#         165
  C:4E84H         LINE#         166
  C:4E84H         LINE#         167
  C:4E8FH         LINE#         168
  C:4E8FH         LINE#         169
  C:4EA8H         LINE#         170
  C:4EA8H         LINE#         171
  C:4EB3H         LINE#         172
  C:4EB3H         LINE#         173
  C:4EC8H         LINE#         175
  C:4ED1H         LINE#         176
  C:4EE0H         LINE#         178
BL51 BANKED LINKER/LOCATER V6.22.2.0                                                  10/01/2020  09:24:10  PAGE 62


  C:4EE6H         LINE#         179
  -------         ENDPROC       _HASH_ID
  -------         PROC          _LISTACOMANDOS
  X:0047H         SYMBOL        cmd
  -------         DO            
  X:004AH         SYMBOL        buf
  X:004DH         SYMBOL        i
  -------         ENDDO         
  C:A4CBH         LINE#         186
  C:A4D6H         LINE#         187
  C:A4D6H         LINE#         191
  C:A4E9H         LINE#         192
  C:A4E9H         LINE#         193
  C:A501H         LINE#         194
  C:A51CH         LINE#         195
  C:A522H         LINE#         196
  C:A52AH         LINE#         198
  C:A52CH         LINE#         199
  -------         ENDPROC       _LISTACOMANDOS
  -------         PROC          L?0274
  -------         ENDPROC       L?0274
  -------         PROC          _VALIDARCLAVE
  X:005EH         SYMBOL        buffer
  -------         DO            
  X:0061H         SYMBOL        buf
  -------         ENDDO         
  C:ABA7H         LINE#         205
  C:ABB2H         LINE#         206
  C:ABB2H         LINE#         209
  C:ABC1H         LINE#         210
  C:ABDCH         LINE#         211
  C:ABDEH         LINE#         214
  C:ABE0H         LINE#         215
  -------         ENDPROC       _VALIDARCLAVE
  -------         PROC          L?0275
  -------         ENDPROC       L?0275
  -------         PROC          _GETCMD
  X:005EH         SYMBOL        in
  -------         DO            
  X:0061H         SYMBOL        tokens
  -------         ENDDO         
  C:AC69H         LINE#         222
  C:AC74H         LINE#         223
  C:AC74H         LINE#         224
  C:AC87H         LINE#         225
  -------         ENDPROC       _GETCMD
  -------         PROC          L?0273
  -------         ENDPROC       L?0273
  -------         PROC          _GETOPTION
  X:0047H         SYMBOL        in
  -------         DO            
  X:004AH         SYMBOL        tokensSpace
  X:004EH         SYMBOL        tokensQuote
  -------         ENDDO         
  C:980FH         LINE#         231
  C:981AH         LINE#         232
  C:981AH         LINE#         233
BL51 BANKED LINKER/LOCATER V6.22.2.0                                                  10/01/2020  09:24:10  PAGE 63


  C:982DH         LINE#         234
  C:9840H         LINE#         237
  C:9852H         LINE#         238
  C:985EH         LINE#         241
  C:9865H         LINE#         242
  C:9872H         LINE#         244
  C:988BH         LINE#         245
  -------         ENDPROC       _GETOPTION
  -------         PROC          DISPLAYCURSOR
  C:B313H         LINE#         250
  C:B313H         LINE#         251
  C:B313H         LINE#         252
  -------         ENDPROC       DISPLAYCURSOR
  C:9EE3H         SYMBOL        L?0272
  -------         PROC          L?0271
  -------         ENDPROC       L?0271
  C:9EE3H         SYMBOL        L?0272
  -------         PROC          _INGRESADATO
  X:0072H         SYMBOL        buffer
  X:0075H         SYMBOL        modo
  -------         DO            
  D:0006H         SYMBOL        i
  -------         ENDDO         
  C:9EE7H         LINE#         259
  C:9EF5H         LINE#         260
  C:9EF5H         LINE#         265
  C:9EF5H         LINE#         266
  C:9F07H         LINE#         267
  C:9F0DH         LINE#         268
  C:9F0DH         LINE#         269
  C:9F28H         LINE#         270
  C:9F2AH         LINE#         272
  C:9F2AH         LINE#         273
  C:9F2FH         LINE#         274
  C:9F2FH         LINE#         275
  C:9F40H         LINE#         276
  C:9F4AH         LINE#         277
  C:9F59H         LINE#         279
  C:9F5EH         LINE#         283
  -------         ENDPROC       _INGRESADATO
  -------         PROC          PROG_ID_CLIENTE
  -------         DO            
  X:0047H         SYMBOL        buffer
  X:0051H         SYMBOL        dataee
  -------         ENDDO         
  C:8C2AH         LINE#         300
  C:8C2AH         LINE#         301
  C:8C2AH         LINE#         305
  C:8C3CH         LINE#         306
  C:8C59H         LINE#         308
  C:8C70H         LINE#         310
  C:8C79H         LINE#         311
  C:8C80H         LINE#         312
  C:8C91H         LINE#         313
  C:8C9AH         LINE#         315
  C:8CACH         LINE#         316
  C:8CC9H         LINE#         317
BL51 BANKED LINKER/LOCATER V6.22.2.0                                                  10/01/2020  09:24:10  PAGE 64


  -------         ENDPROC       PROG_ID_CLIENTE
  -------         PROC          PROG_COD_PARK
  -------         DO            
  X:0047H         SYMBOL        buffer
  X:0051H         SYMBOL        dataee
  -------         ENDDO         
  C:89F6H         LINE#         322
  C:89F6H         LINE#         323
  C:89F6H         LINE#         327
  C:8A09H         LINE#         328
  C:8A26H         LINE#         330
  C:8A3DH         LINE#         332
  C:8A46H         LINE#         333
  C:8A51H         LINE#         334
  C:8A62H         LINE#         335
  C:8A6CH         LINE#         337
  C:8A7FH         LINE#         338
  C:8A9CH         LINE#         339
  -------         ENDPROC       PROG_COD_PARK
  -------         PROC          PROG_TIEMPO_GRACIA
  -------         DO            
  X:0047H         SYMBOL        buffer
  X:0051H         SYMBOL        dataee
  -------         ENDDO         
  C:8AB3H         LINE#         344
  C:8AB3H         LINE#         345
  C:8AB3H         LINE#         349
  C:8AC6H         LINE#         350
  C:8AE3H         LINE#         352
  C:8AFAH         LINE#         354
  C:8B03H         LINE#         355
  C:8B0EH         LINE#         356
  C:8B1FH         LINE#         357
  C:8B29H         LINE#         359
  C:8B3CH         LINE#         360
  C:8B59H         LINE#         361
  -------         ENDPROC       PROG_TIEMPO_GRACIA
  -------         PROC          PROG_SIN_COBRO
  -------         DO            
  X:0047H         SYMBOL        buffer
  X:0051H         SYMBOL        dataee
  -------         ENDDO         
  C:631AH         LINE#         367
  C:631AH         LINE#         368
  C:631AH         LINE#         374
  C:632DH         LINE#         375
  C:634AH         LINE#         376
  C:6354H         LINE#         377
  C:6354H         LINE#         378
  C:6367H         LINE#         379
  C:6369H         LINE#         380
  C:6375H         LINE#         381
  C:6375H         LINE#         382
  C:6388H         LINE#         383
  C:638AH         LINE#         385
  C:638AH         LINE#         386
  C:63A1H         LINE#         387
BL51 BANKED LINKER/LOCATER V6.22.2.0                                                  10/01/2020  09:24:10  PAGE 65


  C:63A1H         LINE#         389
  C:63AAH         LINE#         390
  C:63B5H         LINE#         391
  C:63C6H         LINE#         392
  C:63D0H         LINE#         394
  C:63E3H         LINE#         395
  C:6400H         LINE#         396
  C:640AH         LINE#         397
  C:640AH         LINE#         398
  C:641DH         LINE#         399
  C:641FH         LINE#         400
  C:642BH         LINE#         401
  C:642BH         LINE#         402
  C:643EH         LINE#         403
  C:6440H         LINE#         405
  C:6440H         LINE#         406
  C:6457H         LINE#         407
  C:6457H         LINE#         409
  -------         ENDPROC       PROG_SIN_COBRO
  -------         PROC          PROG_DEBUG
  -------         DO            
  X:0047H         SYMBOL        buffer
  X:0051H         SYMBOL        dataee
  -------         ENDDO         
  C:72CBH         LINE#         415
  C:72CBH         LINE#         416
  C:72CBH         LINE#         421
  C:72DEH         LINE#         422
  C:72FBH         LINE#         423
  C:7305H         LINE#         424
  C:7305H         LINE#         425
  C:7318H         LINE#         426
  C:731AH         LINE#         428
  C:731AH         LINE#         429
  C:7331H         LINE#         430
  C:7331H         LINE#         432
  C:733AH         LINE#         433
  C:7345H         LINE#         434
  C:7356H         LINE#         435
  C:7360H         LINE#         437
  C:7373H         LINE#         438
  C:7390H         LINE#         439
  C:739AH         LINE#         440
  C:739AH         LINE#         441
  C:73ADH         LINE#         442
  C:73AFH         LINE#         444
  C:73AFH         LINE#         445
  C:73C6H         LINE#         446
  C:73C6H         LINE#         447
  -------         ENDPROC       PROG_DEBUG
  -------         PROC          PROG_USE_LPR
  -------         DO            
  X:0047H         SYMBOL        buffer
  X:0051H         SYMBOL        dataee
  -------         ENDDO         
  C:73C7H         LINE#         452
  C:73C7H         LINE#         453
BL51 BANKED LINKER/LOCATER V6.22.2.0                                                  10/01/2020  09:24:10  PAGE 66


  C:73C7H         LINE#         458
  C:73DAH         LINE#         459
  C:73F7H         LINE#         460
  C:7401H         LINE#         461
  C:7401H         LINE#         462
  C:7414H         LINE#         463
  C:7416H         LINE#         465
  C:7416H         LINE#         466
  C:742DH         LINE#         467
  C:742DH         LINE#         469
  C:7436H         LINE#         470
  C:7441H         LINE#         471
  C:7452H         LINE#         472
  C:745CH         LINE#         474
  C:746FH         LINE#         475
  C:748CH         LINE#         476
  C:7496H         LINE#         477
  C:7496H         LINE#         478
  C:74A9H         LINE#         479
  C:74ABH         LINE#         481
  C:74ABH         LINE#         482
  C:74C2H         LINE#         483
  C:74C2H         LINE#         484
  -------         ENDPROC       PROG_USE_LPR
  -------         PROC          TIPO_PANTALLA
  -------         DO            
  X:0047H         SYMBOL        buffer
  X:0051H         SYMBOL        dataee
  -------         ENDDO         
  C:74C3H         LINE#         491
  C:74C3H         LINE#         492
  C:74C3H         LINE#         497
  C:74D6H         LINE#         498
  C:74F3H         LINE#         499
  C:74FDH         LINE#         500
  C:74FDH         LINE#         501
  C:7510H         LINE#         502
  C:7512H         LINE#         504
  C:7512H         LINE#         505
  C:7529H         LINE#         506
  C:7529H         LINE#         508
  C:7532H         LINE#         509
  C:753DH         LINE#         510
  C:754EH         LINE#         511
  C:7558H         LINE#         513
  C:756BH         LINE#         514
  C:7588H         LINE#         515
  C:7592H         LINE#         516
  C:7592H         LINE#         517
  C:75A5H         LINE#         518
  C:75A7H         LINE#         520
  C:75A7H         LINE#         521
  C:75BEH         LINE#         522
  C:75BEH         LINE#         524
  -------         ENDPROC       TIPO_PANTALLA
  -------         PROC          PROG_TARJETA_AUTOMATICA_O_BOTON
  -------         DO            
BL51 BANKED LINKER/LOCATER V6.22.2.0                                                  10/01/2020  09:24:10  PAGE 67


  X:0047H         SYMBOL        buffer
  X:0051H         SYMBOL        dataee
  -------         ENDDO         
  C:87B5H         LINE#         525
  C:87B5H         LINE#         526
  C:87B5H         LINE#         531
  C:87C8H         LINE#         532
  C:87E5H         LINE#         533
  C:87F1H         LINE#         534
  C:87F1H         LINE#         535
  C:87F5H         LINE#         536
  C:87F7H         LINE#         538
  C:87F7H         LINE#         539
  C:87FEH         LINE#         540
  C:87FEH         LINE#         542
  C:8807H         LINE#         543
  C:8812H         LINE#         544
  C:8823H         LINE#         545
  C:882DH         LINE#         547
  C:8840H         LINE#         548
  C:885DH         LINE#         549
  C:8869H         LINE#         550
  C:8869H         LINE#         551
  C:886DH         LINE#         552
  C:886FH         LINE#         554
  C:886FH         LINE#         555
  C:8876H         LINE#         556
  C:8876H         LINE#         557
  -------         ENDPROC       PROG_TARJETA_AUTOMATICA_O_BOTON
  -------         PROC          PROG_ANTIPASSBACK
  -------         DO            
  X:0047H         SYMBOL        buffer
  X:0051H         SYMBOL        dataee
  -------         ENDDO         
  C:75BFH         LINE#         558
  C:75BFH         LINE#         559
  C:75BFH         LINE#         564
  C:75D2H         LINE#         565
  C:75EFH         LINE#         566
  C:75F9H         LINE#         567
  C:75F9H         LINE#         568
  C:760CH         LINE#         569
  C:760EH         LINE#         571
  C:760EH         LINE#         572
  C:7625H         LINE#         573
  C:7625H         LINE#         575
  C:762EH         LINE#         576
  C:7639H         LINE#         577
  C:764AH         LINE#         578
  C:7654H         LINE#         580
  C:7667H         LINE#         581
  C:7684H         LINE#         582
  C:768EH         LINE#         583
  C:768EH         LINE#         584
  C:76A1H         LINE#         585
  C:76A3H         LINE#         587
  C:76A3H         LINE#         588
BL51 BANKED LINKER/LOCATER V6.22.2.0                                                  10/01/2020  09:24:10  PAGE 68


  C:76BAH         LINE#         589
  C:76BAH         LINE#         590
  -------         ENDPROC       PROG_ANTIPASSBACK
  -------         PROC          PROG_PLACA
  -------         DO            
  X:0047H         SYMBOL        buffer
  X:0051H         SYMBOL        dataee
  -------         ENDDO         
  C:76BBH         LINE#         591
  C:76BBH         LINE#         592
  C:76BBH         LINE#         597
  C:76CEH         LINE#         598
  C:76EBH         LINE#         599
  C:76F5H         LINE#         600
  C:76F5H         LINE#         601
  C:7708H         LINE#         602
  C:770AH         LINE#         604
  C:770AH         LINE#         605
  C:7721H         LINE#         606
  C:7721H         LINE#         608
  C:772AH         LINE#         609
  C:7735H         LINE#         610
  C:7746H         LINE#         611
  C:7750H         LINE#         613
  C:7763H         LINE#         614
  C:7780H         LINE#         615
  C:778AH         LINE#         616
  C:778AH         LINE#         617
  C:779DH         LINE#         618
  C:779FH         LINE#         620
  C:779FH         LINE#         621
  C:77B6H         LINE#         622
  C:77B6H         LINE#         623
  -------         ENDPROC       PROG_PLACA
  -------         PROC          PROG_ADDRESS_HIGH_BOARD
  -------         DO            
  X:0047H         SYMBOL        buffer
  X:0051H         SYMBOL        dataee
  -------         ENDDO         
  C:7C6EH         LINE#         624
  C:7C6EH         LINE#         625
  C:7C6EH         LINE#         630
  C:7C81H         LINE#         631
  C:7C9EH         LINE#         632
  C:7CA8H         LINE#         633
  C:7CA8H         LINE#         634
  C:7CACH         LINE#         635
  C:7CAEH         LINE#         637
  C:7CAEH         LINE#         638
  C:7CC5H         LINE#         639
  C:7CC5H         LINE#         641
  C:7CCEH         LINE#         642
  C:7CD9H         LINE#         643
  C:7CEAH         LINE#         644
  C:7CF4H         LINE#         646
  C:7D07H         LINE#         647
  C:7D24H         LINE#         648
BL51 BANKED LINKER/LOCATER V6.22.2.0                                                  10/01/2020  09:24:10  PAGE 69


  C:7D2EH         LINE#         649
  C:7D2EH         LINE#         650
  C:7D32H         LINE#         651
  C:7D34H         LINE#         653
  C:7D34H         LINE#         654
  C:7D4BH         LINE#         655
  C:7D4BH         LINE#         656
  -------         ENDPROC       PROG_ADDRESS_HIGH_BOARD
  -------         PROC          ADDR_HORARIOS
  -------         DO            
  X:0075H         SYMBOL        ee_addr_horario
  -------         ENDDO         
  C:AFA0H         LINE#         658
  C:AFA0H         LINE#         659
  C:AFA0H         LINE#         662
  C:AFA6H         LINE#         663
  C:AFAAH         LINE#         664
  C:AFAEH         LINE#         665
  C:AFB2H         LINE#         666
  C:AFB6H         LINE#         667
  C:AFBAH         LINE#         668
  C:AFBEH         LINE#         669
  C:AFC2H         LINE#         670
  C:AFC6H         LINE#         671
  C:AFCAH         LINE#         672
  C:AFCDH         LINE#         673
  C:AFD3H         LINE#         674
  -------         ENDPROC       ADDR_HORARIOS
  -------         PROC          _PROG_HORARIOS_ON_OFF
  X:0062H         SYMBOL        addr
  -------         DO            
  X:0064H         SYMBOL        buffer
  X:006EH         SYMBOL        dataee
  X:0070H         SYMBOL        habilitado
  -------         ENDDO         
  C:6B65H         LINE#         675
  C:6B6FH         LINE#         676
  C:6B6FH         LINE#         679
  C:6B7EH         LINE#         680
  C:6B9BH         LINE#         681
  C:6BA5H         LINE#         682
  C:6BA5H         LINE#         683
  C:6BB8H         LINE#         684
  C:6BBAH         LINE#         686
  C:6BBAH         LINE#         687
  C:6BD1H         LINE#         688
  C:6BD1H         LINE#         689
  C:6BDAH         LINE#         690
  C:6BE5H         LINE#         691
  C:6BF6H         LINE#         692
  C:6C05H         LINE#         694
  C:6C1CH         LINE#         695
  C:6C39H         LINE#         696
  C:6C46H         LINE#         697
  C:6C46H         LINE#         698
  C:6C49H         LINE#         699
  C:6C5CH         LINE#         700
BL51 BANKED LINKER/LOCATER V6.22.2.0                                                  10/01/2020  09:24:10  PAGE 70


  C:6C5EH         LINE#         702
  C:6C5EH         LINE#         703
  C:6C63H         LINE#         704
  C:6C78H         LINE#         705
  C:6C78H         LINE#         706
  C:6C7EH         LINE#         707
  -------         ENDPROC       _PROG_HORARIOS_ON_OFF
  -------         PROC          _PROG_HORARIO_DESDE_HASTA
  X:0062H         SYMBOL        addr
  -------         DO            
  X:0064H         SYMBOL        buffer
  D:0007H         SYMBOL        dataee
  -------         ENDDO         
  C:4EE7H         LINE#         708
  C:4EEFH         LINE#         709
  C:4EEFH         LINE#         714
  C:4EF8H         LINE#         715
  C:4EFBH         LINE#         716
  C:4F04H         LINE#         717
  C:4F1CH         LINE#         718
  C:4F2FH         LINE#         719
  C:4F3DH         LINE#         720
  C:4F55H         LINE#         721
  C:4F68H         LINE#         722
  C:4F76H         LINE#         723
  C:4F8EH         LINE#         724
  C:4FA1H         LINE#         725
  C:4FAFH         LINE#         726
  C:4FC7H         LINE#         727
  C:4FDAH         LINE#         728
  C:4FE8H         LINE#         732
  C:4FF1H         LINE#         733
  C:4FF4H         LINE#         735
  C:4FFDH         LINE#         737
  C:5015H         LINE#         738
  C:5028H         LINE#         739
  C:5036H         LINE#         740
  C:504EH         LINE#         741
  C:5061H         LINE#         742
  C:506FH         LINE#         743
  C:5087H         LINE#         744
  C:509AH         LINE#         745
  C:50A8H         LINE#         746
  C:50C0H         LINE#         747
  C:50D3H         LINE#         748
  -------         ENDPROC       _PROG_HORARIO_DESDE_HASTA
  -------         PROC          _VER_HORARIO_DESDE_HASTA
  X:0075H         SYMBOL        addr
  -------         DO            
  D:0007H         SYMBOL        dataee
  -------         ENDDO         
  C:6C7FH         LINE#         750
  C:6C87H         LINE#         751
  C:6C87H         LINE#         753
  C:6C90H         LINE#         754
  C:6CA3H         LINE#         755
  C:6CB1H         LINE#         756
BL51 BANKED LINKER/LOCATER V6.22.2.0                                                  10/01/2020  09:24:10  PAGE 71


  C:6CC4H         LINE#         757
  C:6CD2H         LINE#         758
  C:6CE5H         LINE#         759
  C:6CF3H         LINE#         760
  C:6D06H         LINE#         761
  C:6D14H         LINE#         763
  C:6D27H         LINE#         764
  C:6D35H         LINE#         766
  C:6D48H         LINE#         767
  C:6D56H         LINE#         769
  C:6D69H         LINE#         770
  C:6D77H         LINE#         772
  C:6D8AH         LINE#         773
  -------         ENDPROC       _VER_HORARIO_DESDE_HASTA
  -------         PROC          _PROG_HORARIO_DIAS
  X:0062H         SYMBOL        addr
  -------         DO            
  X:0064H         SYMBOL        buffer
  X:006EH         SYMBOL        dataee
  X:006FH         SYMBOL        j
  X:0070H         SYMBOL        temp
  -------         ENDDO         
  C:4551H         LINE#         775
  C:4559H         LINE#         776
  C:4559H         LINE#         780
  C:4562H         LINE#         781
  C:456BH         LINE#         782
  C:4574H         LINE#         783
  C:457FH         LINE#         786
  C:4588H         LINE#         788
  C:459EH         LINE#         789
  C:459EH         LINE#         791
  C:45B1H         LINE#         792
  C:45B1H         LINE#         793
  C:45BAH         LINE#         795
  C:45CFH         LINE#         796
  C:45E7H         LINE#         797
  C:45F4H         LINE#         798
  C:45F4H         LINE#         800
  C:460AH         LINE#         801
  C:460AH         LINE#         802
  C:4613H         LINE#         803
  C:4628H         LINE#         804
  C:4640H         LINE#         805
  C:464DH         LINE#         806
  C:464DH         LINE#         808
  C:4663H         LINE#         809
  C:4663H         LINE#         810
  C:466CH         LINE#         811
  C:4681H         LINE#         812
  C:4699H         LINE#         813
  C:46A6H         LINE#         814
  C:46A6H         LINE#         816
  C:46BCH         LINE#         817
  C:46BCH         LINE#         818
  C:46C5H         LINE#         819
  C:46DAH         LINE#         820
BL51 BANKED LINKER/LOCATER V6.22.2.0                                                  10/01/2020  09:24:10  PAGE 72


  C:46F2H         LINE#         821
  C:46FFH         LINE#         822
  C:46FFH         LINE#         824
  C:4715H         LINE#         825
  C:4715H         LINE#         826
  C:471EH         LINE#         827
  C:4733H         LINE#         828
  C:474BH         LINE#         829
  C:4758H         LINE#         830
  C:4758H         LINE#         832
  C:476EH         LINE#         833
  C:476EH         LINE#         834
  C:4777H         LINE#         835
  C:478CH         LINE#         836
  C:47A4H         LINE#         837
  C:47B1H         LINE#         838
  C:47B1H         LINE#         840
  C:47C7H         LINE#         841
  C:47C7H         LINE#         842
  C:47D0H         LINE#         843
  C:47DFH         LINE#         844
  C:47F1H         LINE#         845
  C:47FEH         LINE#         846
  C:47FEH         LINE#         847
  C:4807H         LINE#         849
  -------         ENDPROC       _PROG_HORARIO_DIAS
  -------         PROC          _VER_HORARIO_DIAS
  X:0075H         SYMBOL        addr
  -------         DO            
  X:0077H         SYMBOL        dataee
  -------         ENDDO         
  C:6921H         LINE#         850
  C:6929H         LINE#         851
  C:6929H         LINE#         854
  C:6939H         LINE#         855
  C:693FH         LINE#         856
  C:693FH         LINE#         857
  C:6943H         LINE#         858
  C:6945H         LINE#         860
  C:6945H         LINE#         861
  C:694CH         LINE#         862
  C:694CH         LINE#         865
  C:6964H         LINE#         866
  C:696AH         LINE#         867
  C:696AH         LINE#         868
  C:696EH         LINE#         869
  C:6970H         LINE#         871
  C:6970H         LINE#         872
  C:6977H         LINE#         873
  C:6977H         LINE#         876
  C:698FH         LINE#         877
  C:6995H         LINE#         878
  C:6995H         LINE#         879
  C:6999H         LINE#         880
  C:699BH         LINE#         882
  C:699BH         LINE#         883
  C:69A2H         LINE#         884
BL51 BANKED LINKER/LOCATER V6.22.2.0                                                  10/01/2020  09:24:10  PAGE 73


  C:69A2H         LINE#         886
  C:69BAH         LINE#         887
  C:69C0H         LINE#         888
  C:69C0H         LINE#         889
  C:69C4H         LINE#         890
  C:69C6H         LINE#         892
  C:69C6H         LINE#         893
  C:69CDH         LINE#         894
  C:69CDH         LINE#         896
  C:69E5H         LINE#         897
  C:69EBH         LINE#         898
  C:69EBH         LINE#         899
  C:69EFH         LINE#         900
  C:69F1H         LINE#         902
  C:69F1H         LINE#         903
  C:69F8H         LINE#         904
  C:69F8H         LINE#         907
  C:6A10H         LINE#         908
  C:6A16H         LINE#         909
  C:6A16H         LINE#         910
  C:6A1AH         LINE#         911
  C:6A1CH         LINE#         913
  C:6A1CH         LINE#         914
  C:6A23H         LINE#         915
  C:6A23H         LINE#         917
  C:6A35H         LINE#         918
  C:6A3BH         LINE#         919
  C:6A3BH         LINE#         920
  C:6A3FH         LINE#         921
  C:6A41H         LINE#         923
  C:6A41H         LINE#         924
  C:6A48H         LINE#         925
  C:6A48H         LINE#         926
  -------         ENDPROC       _VER_HORARIO_DIAS
  -------         PROC          PROG_HORARIOS
  -------         DO            
  X:0047H         SYMBOL        buffer
  X:0051H         SYMBOL        ee_addr_horario
  X:005CH         SYMBOL        addr
  X:005EH         SYMBOL        temp
  X:0060H         SYMBOL        dataee
  X:0061H         SYMBOL        j
  -------         ENDDO         
  C:5F54H         LINE#         927
  C:5F54H         LINE#         928
  C:5F54H         LINE#         937
  C:5F60H         LINE#         941
  C:5F69H         LINE#         942
  C:5F74H         LINE#         944
  C:5F83H         LINE#         948
  C:5F99H         LINE#         949
  C:5F9FH         LINE#         953
  C:5FADH         LINE#         954
  C:5FB5H         LINE#         955
  C:5FB5H         LINE#         957
  C:5FC4H         LINE#         958
  C:5FD8H         LINE#         959
BL51 BANKED LINKER/LOCATER V6.22.2.0                                                  10/01/2020  09:24:10  PAGE 74


  C:5FD8H         LINE#         960
  C:5FECH         LINE#         961
  C:5FF4H         LINE#         963
  C:6004H         LINE#         966
  C:6007H         LINE#         970
  C:6012H         LINE#         973
  C:601BH         LINE#         974
  C:6026H         LINE#         975
  C:6035H         LINE#         976
  C:6048H         LINE#         978
  C:6060H         LINE#         979
  C:607AH         LINE#         980
  C:6082H         LINE#         981
  C:6082H         LINE#         983
  C:6090H         LINE#         984
  C:6098H         LINE#         985
  C:6098H         LINE#         986
  C:6098H         LINE#         988
  -------         ENDPROC       PROG_HORARIOS
  -------         PROC          PROG_VALIDAR_TIPO_VEHICULO_MENSUAL
  -------         DO            
  X:0047H         SYMBOL        buffer
  X:0051H         SYMBOL        dataee
  -------         ENDDO         
  C:77B7H         LINE#         989
  C:77B7H         LINE#         990
  C:77B7H         LINE#         995
  C:77CAH         LINE#         996
  C:77E7H         LINE#         997
  C:77F1H         LINE#         998
  C:77F1H         LINE#         999
  C:7804H         LINE#         1000
  C:7806H         LINE#         1002
  C:7806H         LINE#         1003
  C:781DH         LINE#         1004
  C:781DH         LINE#         1006
  C:7826H         LINE#         1007
  C:7831H         LINE#         1008
  C:7842H         LINE#         1009
  C:784CH         LINE#         1011
  C:785FH         LINE#         1012
  C:787CH         LINE#         1013
  C:7886H         LINE#         1014
  C:7886H         LINE#         1015
  C:7899H         LINE#         1016
  C:789BH         LINE#         1018
  C:789BH         LINE#         1019
  C:78B2H         LINE#         1020
  C:78B2H         LINE#         1021
  -------         ENDPROC       PROG_VALIDAR_TIPO_VEHICULO_MENSUAL
  -------         PROC          PROG_APB_MENSUAL
  -------         DO            
  X:0047H         SYMBOL        buffer
  X:0051H         SYMBOL        dataee
  -------         ENDDO         
  C:78B3H         LINE#         1022
  C:78B3H         LINE#         1023
BL51 BANKED LINKER/LOCATER V6.22.2.0                                                  10/01/2020  09:24:10  PAGE 75


  C:78B3H         LINE#         1028
  C:78C6H         LINE#         1029
  C:78E3H         LINE#         1030
  C:78EDH         LINE#         1031
  C:78EDH         LINE#         1032
  C:7900H         LINE#         1033
  C:7902H         LINE#         1035
  C:7902H         LINE#         1036
  C:7919H         LINE#         1037
  C:7919H         LINE#         1039
  C:7922H         LINE#         1040
  C:792DH         LINE#         1041
  C:793EH         LINE#         1042
  C:7948H         LINE#         1044
  C:795BH         LINE#         1045
  C:7978H         LINE#         1046
  C:7982H         LINE#         1047
  C:7982H         LINE#         1048
  C:7995H         LINE#         1049
  C:7997H         LINE#         1051
  C:7997H         LINE#         1052
  C:79AEH         LINE#         1053
  C:79AEH         LINE#         1054
  -------         ENDPROC       PROG_APB_MENSUAL
  -------         PROC          PROG_FECHA_VENCIMIENTO
  -------         DO            
  X:0047H         SYMBOL        buffer
  X:0052H         SYMBOL        cmd
  X:0055H         SYMBOL        fecha
  X:005CH         SYMBOL        dataee
  -------         ENDDO         
  C:50E1H         LINE#         1056
  C:50E1H         LINE#         1057
  C:50E1H         LINE#         1064
  C:50EEH         LINE#         1065
  C:5105H         LINE#         1068
  C:511CH         LINE#         1070
  C:511CH         LINE#         1071
  C:5125H         LINE#         1072
  C:5132H         LINE#         1073
  C:5149H         LINE#         1074
  C:515BH         LINE#         1075
  C:5164H         LINE#         1080
  C:516FH         LINE#         1081
  C:5183H         LINE#         1082
  C:5190H         LINE#         1084
  C:5199H         LINE#         1087
  C:51A2H         LINE#         1088
  C:51ADH         LINE#         1089
  C:51C4H         LINE#         1091
  C:51CCH         LINE#         1092
  C:51D4H         LINE#         1093
  C:51D7H         LINE#         1095
  C:51E8H         LINE#         1096
  C:51F9H         LINE#         1098
  C:5208H         LINE#         1099
  C:5210H         LINE#         1100
BL51 BANKED LINKER/LOCATER V6.22.2.0                                                  10/01/2020  09:24:10  PAGE 76


  C:5218H         LINE#         1101
  C:521BH         LINE#         1102
  C:522CH         LINE#         1103
  C:523DH         LINE#         1104
  C:524CH         LINE#         1105
  C:5254H         LINE#         1106
  C:525CH         LINE#         1107
  C:525FH         LINE#         1108
  C:5270H         LINE#         1109
  C:5281H         LINE#         1110
  C:5290H         LINE#         1111
  C:529BH         LINE#         1113
  C:52A8H         LINE#         1115
  C:52BFH         LINE#         1116
  -------         ENDPROC       PROG_FECHA_VENCIMIENTO
  -------         PROC          VER_HORARIO
  -------         DO            
  X:005AH         SYMBOL        buffer
  X:0064H         SYMBOL        ee_addr_horario
  X:006FH         SYMBOL        conta
  X:0070H         SYMBOL        addr
  X:0072H         SYMBOL        temp
  X:0074H         SYMBOL        dataee
  -------         ENDDO         
  C:6596H         LINE#         1119
  C:6596H         LINE#         1120
  C:6596H         LINE#         1129
  C:65A2H         LINE#         1130
  C:65B8H         LINE#         1131
  C:65B8H         LINE#         1133
  C:65C8H         LINE#         1136
  C:65E1H         LINE#         1137
  C:65E7H         LINE#         1140
  C:65F5H         LINE#         1141
  C:6604H         LINE#         1142
  C:661EH         LINE#         1143
  C:6629H         LINE#         1144
  C:6629H         LINE#         1145
  C:6632H         LINE#         1147
  C:663BH         LINE#         1148
  C:664BH         LINE#         1149
  C:664EH         LINE#         1151
  C:6659H         LINE#         1152
  C:6671H         LINE#         1153
  C:668BH         LINE#         1154
  C:6695H         LINE#         1155
  C:6695H         LINE#         1156
  C:669CH         LINE#         1158
  C:66AAH         LINE#         1159
  C:66B2H         LINE#         1160
  C:66B4H         LINE#         1162
  C:66B4H         LINE#         1163
  C:66B8H         LINE#         1164
  C:66B8H         LINE#         1165
  C:66BAH         LINE#         1167
  C:66BAH         LINE#         1168
  C:66C3H         LINE#         1169
BL51 BANKED LINKER/LOCATER V6.22.2.0                                                  10/01/2020  09:24:10  PAGE 77


  C:66C3H         LINE#         1171
  C:66CCH         LINE#         1174
  -------         ENDPROC       VER_HORARIO
  -------         PROC          VER_PROG
  -------         DO            
  X:0047H         SYMBOL        buffer
  X:0051H         SYMBOL        dataee
  X:0053H         SYMBOL        fecha
  -------         ENDDO         
  C:3BE7H         LINE#         1175
  C:3BE7H         LINE#         1176
  C:3BE7H         LINE#         1182
  C:3BF9H         LINE#         1183
  C:3C16H         LINE#         1185
  C:3C2DH         LINE#         1187
  C:3C40H         LINE#         1188
  C:3C5DH         LINE#         1190
  C:3C74H         LINE#         1192
  C:3C87H         LINE#         1193
  C:3CA4H         LINE#         1194
  C:3CB2H         LINE#         1195
  C:3CB2H         LINE#         1196
  C:3CB6H         LINE#         1197
  C:3CB8H         LINE#         1199
  C:3CB8H         LINE#         1200
  C:3CBFH         LINE#         1201
  C:3CBFH         LINE#         1203
  C:3CD2H         LINE#         1204
  C:3CEFH         LINE#         1205
  C:3CFBH         LINE#         1206
  C:3CFBH         LINE#         1207
  C:3CFFH         LINE#         1208
  C:3D01H         LINE#         1210
  C:3D01H         LINE#         1211
  C:3D08H         LINE#         1212
  C:3D08H         LINE#         1214
  C:3D1BH         LINE#         1215
  C:3D38H         LINE#         1216
  C:3D44H         LINE#         1217
  C:3D44H         LINE#         1218
  C:3D48H         LINE#         1219
  C:3D4AH         LINE#         1221
  C:3D4AH         LINE#         1222
  C:3D51H         LINE#         1223
  C:3D51H         LINE#         1225
  C:3D64H         LINE#         1226
  C:3D81H         LINE#         1227
  C:3D8DH         LINE#         1228
  C:3D8DH         LINE#         1229
  C:3D91H         LINE#         1230
  C:3D93H         LINE#         1232
  C:3D93H         LINE#         1233
  C:3D9AH         LINE#         1234
  C:3D9AH         LINE#         1236
  C:3DADH         LINE#         1237
  C:3DCAH         LINE#         1238
  C:3DD6H         LINE#         1239
BL51 BANKED LINKER/LOCATER V6.22.2.0                                                  10/01/2020  09:24:10  PAGE 78


  C:3DD6H         LINE#         1240
  C:3DDAH         LINE#         1241
  C:3DDCH         LINE#         1243
  C:3DDCH         LINE#         1244
  C:3DE3H         LINE#         1245
  C:3DE3H         LINE#         1247
  C:3DF6H         LINE#         1248
  C:3E13H         LINE#         1249
  C:3E1FH         LINE#         1250
  C:3E1FH         LINE#         1251
  C:3E23H         LINE#         1252
  C:3E25H         LINE#         1254
  C:3E25H         LINE#         1255
  C:3E2CH         LINE#         1256
  C:3E2CH         LINE#         1259
  C:3E3FH         LINE#         1260
  C:3E5CH         LINE#         1262
  C:3E73H         LINE#         1264
  C:3E76H         LINE#         1268
  C:3E89H         LINE#         1269
  C:3EA6H         LINE#         1270
  C:3EB2H         LINE#         1271
  C:3EB2H         LINE#         1272
  C:3EB6H         LINE#         1273
  C:3EB8H         LINE#         1275
  C:3EB8H         LINE#         1276
  C:3EBFH         LINE#         1277
  C:3EBFH         LINE#         1279
  C:3ED2H         LINE#         1280
  C:3EEFH         LINE#         1281
  C:3EFBH         LINE#         1282
  C:3EFBH         LINE#         1283
  C:3EFFH         LINE#         1284
  C:3F01H         LINE#         1286
  C:3F01H         LINE#         1287
  C:3F08H         LINE#         1288
  C:3F08H         LINE#         1290
  C:3F15H         LINE#         1292
  C:3F2CH         LINE#         1293
  -------         ENDPROC       VER_PROG
  -------         PROC          SHOW
  C:935AH         LINE#         1299
  C:935AH         LINE#         1300
  C:935AH         LINE#         1301
  C:9363H         LINE#         1302
  C:936CH         LINE#         1303
  C:9375H         LINE#         1304
  C:937EH         LINE#         1305
  C:9387H         LINE#         1306
  C:9390H         LINE#         1307
  C:9399H         LINE#         1308
  C:93A2H         LINE#         1309
  C:93ABH         LINE#         1310
  C:93B4H         LINE#         1311
  C:93BDH         LINE#         1312
  C:93C6H         LINE#         1313
  C:93CFH         LINE#         1314
BL51 BANKED LINKER/LOCATER V6.22.2.0                                                  10/01/2020  09:24:10  PAGE 79


  C:93D8H         LINE#         1315
  C:93E1H         LINE#         1316
  C:93EAH         LINE#         1317
  -------         ENDPROC       SHOW
  -------         PROC          FIRST_CLAVE
  -------         DO            
  X:0047H         SYMBOL        clave
  -------         ENDDO         
  C:A970H         LINE#         1324
  C:A970H         LINE#         1325
  C:A970H         LINE#         1329
  C:A979H         LINE#         1330
  C:A97EH         LINE#         1331
  C:A990H         LINE#         1332
  C:A99DH         LINE#         1333
  C:A9A3H         LINE#         1334
  C:A9A6H         LINE#         1335
  C:A9A9H         LINE#         1336
  C:A9ABH         LINE#         1338
  -------         ENDPROC       FIRST_CLAVE
  -------         PROC          MENU
  -------         DO            
  X:0002H         SYMBOL        cmd
  X:0005H         SYMBOL        option1
  X:0008H         SYMBOL        option2
  X:000BH         SYMBOL        opt_buffer
  X:0033H         SYMBOL        buffer
  -------         ENDDO         
  C:4AB3H         LINE#         1342
  C:4AB3H         LINE#         1343
  C:4AB3H         LINE#         1352
  C:4ABCH         LINE#         1357
  C:4AC8H         LINE#         1358
  C:4AC8H         LINE#         1359
  C:4ACBH         LINE#         1360
  C:4AD5H         LINE#         1363
  C:4AD5H         LINE#         1365
  C:4AD5H         LINE#         1366
  C:4ADEH         LINE#         1367
  C:4AEBH         LINE#         1368
  C:4AF0H         LINE#         1369
  C:4B06H         LINE#         1370
  C:4B18H         LINE#         1371
  C:4B21H         LINE#         1376
  C:4B2CH         LINE#         1377
  C:4B3AH         LINE#         1378
  C:4B47H         LINE#         1380
  C:4B50H         LINE#         1384
  C:4B53H         LINE#         1385
  C:4B53H         LINE#         1386
  C:4B53H         LINE#         1387
  C:4B56H         LINE#         1390
  C:4B61H         LINE#         1391
  C:4B6FH         LINE#         1392
  C:4B83H         LINE#         1393
  C:4B97H         LINE#         1398
  C:4BADH         LINE#         1399
BL51 BANKED LINKER/LOCATER V6.22.2.0                                                  10/01/2020  09:24:10  PAGE 80


  C:4BADH         LINE#         1401
  C:4BBCH         LINE#         1402
  C:4BBEH         LINE#         1403
  C:4BCEH         LINE#         1404
  C:4BCEH         LINE#         1406
  C:4BDDH         LINE#         1407
  C:4BFBH         LINE#         1408
  C:4BFBH         LINE#         1414
  C:4C0EH         LINE#         1415
  C:4C0EH         LINE#         1416
  C:4C57H         LINE#         1417
  C:4C57H         LINE#         1418
  C:4C57H         LINE#         1419
  C:4C5AH         LINE#         1421
  C:4C5DH         LINE#         1423
  C:4C5DH         LINE#         1424
  C:4C60H         LINE#         1425
  C:4C63H         LINE#         1426
  C:4C63H         LINE#         1427
  C:4C66H         LINE#         1428
  C:4C69H         LINE#         1429
  C:4C69H         LINE#         1430
  C:4C6CH         LINE#         1431
  C:4C6FH         LINE#         1432
  C:4C6FH         LINE#         1433
  C:4C72H         LINE#         1434
  C:4C75H         LINE#         1435
  C:4C75H         LINE#         1436
  C:4C78H         LINE#         1437
  C:4C7BH         LINE#         1438
  C:4C7BH         LINE#         1439
  C:4C7EH         LINE#         1440
  C:4C81H         LINE#         1441
  C:4C81H         LINE#         1442
  C:4C84H         LINE#         1443
  C:4C87H         LINE#         1444
  C:4C87H         LINE#         1445
  C:4C8AH         LINE#         1446
  C:4C8DH         LINE#         1447
  C:4C8DH         LINE#         1448
  C:4C90H         LINE#         1449
  C:4C93H         LINE#         1450
  C:4C93H         LINE#         1451
  C:4C96H         LINE#         1452
  C:4C99H         LINE#         1453
  C:4C99H         LINE#         1454
  C:4C9CH         LINE#         1455
  C:4C9FH         LINE#         1456
  C:4C9FH         LINE#         1457
  C:4CA2H         LINE#         1458
  C:4CA5H         LINE#         1459
  C:4CA5H         LINE#         1460
  C:4CA8H         LINE#         1461
  C:4CABH         LINE#         1462
  C:4CABH         LINE#         1463
  C:4CAEH         LINE#         1464
  C:4CB1H         LINE#         1465
BL51 BANKED LINKER/LOCATER V6.22.2.0                                                  10/01/2020  09:24:10  PAGE 81


  C:4CB1H         LINE#         1466
  C:4CB4H         LINE#         1467
  C:4CB7H         LINE#         1468
  C:4CB7H         LINE#         1470
  C:4CB7H         LINE#         1471
  C:4CB7H         LINE#         1472
  C:4CBAH         LINE#         1473
  C:4CBDH         LINE#         1476
  C:4CBDH         LINE#         1477
  C:4CDBH         LINE#         1478
  C:4CDEH         LINE#         1479
  C:4CDEH         LINE#         1480
  C:4CDEH         LINE#         1481
  C:4CDEH         LINE#         1482
  -------         ENDPROC       MENU
  -------         ENDMOD        PROG

  -------         MODULE        PTO_PARALELO
  C:0000H         SYMBOL        _ICE_DUMMY_
  D:0080H         PUBLIC        P0
  D:00A0H         PUBLIC        P2
  D:00B0H         PUBLIC        P3
  B:0080H.2       PUBLIC        led_err_imp
  C:6A49H         PUBLIC        load_and_send_id_cod
  C:93F3H         PUBLIC        _recibe_port
  B:00B0H.2       PUBLIC        ready
  B:0080H.6       PUBLIC        rx_in_data
  C:B3A3H         PUBLIC        Pulso_Bus
  C:9ABFH         PUBLIC        _send_portERR
  B:00B0H.3       PUBLIC        busy
  C:B098H         PUBLIC        load_and_send_info_reloj
  C:8CE0H         PUBLIC        _send_port
  B:00B0H.4       PUBLIC        port_clk
  C:B414H         PUBLIC        cond_ini_pto
  -------         PROC          _RECIBE_PORT
  X:0002H         SYMBOL        buffer_port
  -------         DO            
  D:0006H         SYMBOL        count
  X:0005H         SYMBOL        time_out
  X:0006H         SYMBOL        num_data
  X:0007H         SYMBOL        T_ANCHO
  X:0009H         SYMBOL        data_temp
  -------         ENDDO         
  C:93F3H         LINE#         48
  C:93FEH         LINE#         49
  C:93FEH         LINE#         53
  C:9407H         LINE#         54
  C:940AH         LINE#         57
  C:940DH         LINE#         58
  C:940DH         LINE#         60
  C:9410H         LINE#         61
  C:9415H         LINE#         62
  C:9417H         LINE#         63
  C:941BH         LINE#         64
  C:941DH         LINE#         67
  C:9422H         LINE#         68
  C:942BH         LINE#         69
BL51 BANKED LINKER/LOCATER V6.22.2.0                                                  10/01/2020  09:24:10  PAGE 82


  C:942BH         LINE#         70
  C:942EH         LINE#         71
  C:942EH         LINE#         73
  C:9433H         LINE#         74
  C:9437H         LINE#         75
  C:9437H         LINE#         76
  C:9439H         LINE#         77
  C:943BH         LINE#         78
  C:943BH         LINE#         79
  C:943BH         LINE#         81
  C:943BH         LINE#         82
  C:9448H         LINE#         83
  C:9448H         LINE#         85
  C:944BH         LINE#         86
  C:944BH         LINE#         88
  C:9451H         LINE#         90
  C:9453H         LINE#         91
  C:9467H         LINE#         92
  C:9471H         LINE#         93
  C:9477H         LINE#         94
  C:947DH         LINE#         95
  C:947FH         LINE#         96
  C:947FH         LINE#         97
  C:947FH         LINE#         98
  C:947FH         LINE#         101
  C:9481H         LINE#         102
  C:9483H         LINE#         103
  C:9483H         LINE#         104
  C:9486H         LINE#         106
  C:948BH         LINE#         107
  -------         ENDPROC       _RECIBE_PORT
  -------         PROC          _SEND_PORT
  X:0016H         SYMBOL        buffer_port
  X:0019H         SYMBOL        length_char
  -------         DO            
  X:001AH         SYMBOL        cont
  X:001EH         SYMBOL        timeOut
  X:001FH         SYMBOL        length
  -------         ENDDO         
  C:8CE0H         LINE#         114
  C:8CEEH         LINE#         115
  C:8CEEH         LINE#         120
  C:8CF2H         LINE#         122
  C:8CF4H         LINE#         123
  C:8CF6H         LINE#         124
  C:8CF8H         LINE#         125
  C:8CFDH         LINE#         126
  C:8CFFH         LINE#         127
  C:8D09H         LINE#         129
  C:8D12H         LINE#         130
  C:8D12H         LINE#         131
  C:8D14H         LINE#         132
  C:8D16H         LINE#         133
  C:8D3AH         LINE#         134
  C:8D4EH         LINE#         135
  C:8D4EH         LINE#         136
  C:8D51H         LINE#         137
BL51 BANKED LINKER/LOCATER V6.22.2.0                                                  10/01/2020  09:24:10  PAGE 83


  C:8D53H         LINE#         138
  C:8D53H         LINE#         139
  C:8D55H         LINE#         140
  C:8D5EH         LINE#         141
  C:8D5EH         LINE#         145
  C:8D5EH         LINE#         147
  C:8D6EH         LINE#         148
  C:8D71H         LINE#         149
  C:8D7BH         LINE#         151
  C:8D81H         LINE#         152
  C:8D84H         LINE#         154
  C:8D84H         LINE#         156
  C:8D87H         LINE#         157
  C:8D89H         LINE#         158
  C:8D8BH         LINE#         159
  C:8D8DH         LINE#         160
  -------         ENDPROC       _SEND_PORT
  -------         PROC          PULSO_BUS
  C:B3A3H         LINE#         435
  C:B3A3H         LINE#         436
  C:B3A3H         LINE#         437
  C:B3A5H         LINE#         438
  C:B3ACH         LINE#         439
  C:B3AEH         LINE#         440
  -------         ENDPROC       PULSO_BUS
  -------         PROC          _SEND_PORTERR
  X:002BH         SYMBOL        cod_err
  -------         DO            
  X:002CH         SYMBOL        timeOut
  X:002DH         SYMBOL        cont
  -------         ENDDO         
  C:9ABFH         LINE#         445
  C:9AC5H         LINE#         446
  C:9AC5H         LINE#         450
  C:9AC7H         LINE#         451
  C:9AC9H         LINE#         452
  C:9ACCH         LINE#         453
  C:9AD4H         LINE#         455
  C:9AD6H         LINE#         456
  C:9AD8H         LINE#         457
  C:9AE1H         LINE#         458
  C:9AE1H         LINE#         459
  C:9B03H         LINE#         460
  C:9B17H         LINE#         461
  C:9B17H         LINE#         462
  C:9B1CH         LINE#         463
  C:9B1CH         LINE#         464
  C:9B1EH         LINE#         465
  C:9B27H         LINE#         466
  C:9B27H         LINE#         467
  C:9B2DH         LINE#         468
  C:9B30H         LINE#         469
  C:9B30H         LINE#         470
  C:9B32H         LINE#         471
  C:9B34H         LINE#         472
  C:9B36H         LINE#         474
  C:9B39H         LINE#         476
BL51 BANKED LINKER/LOCATER V6.22.2.0                                                  10/01/2020  09:24:10  PAGE 84


  C:9B40H         LINE#         477
  -------         ENDPROC       _SEND_PORTERR
  -------         PROC          COND_INI_PTO
  C:B414H         LINE#         483
  C:B414H         LINE#         484
  C:B414H         LINE#         486
  C:B416H         LINE#         487
  C:B418H         LINE#         488
  C:B41AH         LINE#         489
  C:B41DH         LINE#         490
  -------         ENDPROC       COND_INI_PTO
  -------         PROC          LOAD_AND_SEND_INFO_RELOJ
  -------         DO            
  X:0003H         SYMBOL        buffer_info
  -------         ENDDO         
  C:B098H         LINE#         495
  C:B098H         LINE#         496
  C:B098H         LINE#         499
  C:B09EH         LINE#         501
  C:B0A2H         LINE#         503
  C:B0ABH         LINE#         504
  C:B0B5H         LINE#         505
  C:B0B9H         LINE#         509
  -------         ENDPROC       LOAD_AND_SEND_INFO_RELOJ
  -------         PROC          LOAD_AND_SEND_ID_COD
  -------         DO            
  X:0003H         SYMBOL        buffer_info
  X:000EH         SYMBOL        buf
  X:0012H         SYMBOL        i
  X:0013H         SYMBOL        k
  X:0014H         SYMBOL        ID_CLIENTE
  X:0015H         SYMBOL        COD_PARK
  -------         ENDDO         
  C:6A49H         LINE#         516
  C:6A49H         LINE#         517
  C:6A49H         LINE#         523
  C:6A4EH         LINE#         524
  C:6A5AH         LINE#         525
  C:6A68H         LINE#         526
  C:6A6EH         LINE#         527
  C:6A72H         LINE#         528
  C:6A91H         LINE#         529
  C:6A97H         LINE#         530
  C:6A97H         LINE#         531
  C:6AA8H         LINE#         532
  C:6AA8H         LINE#         533
  C:6AB7H         LINE#         534
  C:6ABDH         LINE#         535
  C:6ABFH         LINE#         536
  C:6AD7H         LINE#         538
  C:6ADFH         LINE#         541
  C:6AFEH         LINE#         543
  C:6B03H         LINE#         544
  C:6B03H         LINE#         545
  C:6B14H         LINE#         546
  C:6B14H         LINE#         547
  C:6B23H         LINE#         548
BL51 BANKED LINKER/LOCATER V6.22.2.0                                                  10/01/2020  09:24:10  PAGE 85


  C:6B29H         LINE#         549
  C:6B43H         LINE#         550
  C:6B4BH         LINE#         553
  C:6B5CH         LINE#         554
  -------         ENDPROC       LOAD_AND_SEND_ID_COD
  -------         ENDMOD        PTO_PARALELO

  -------         MODULE        TIBBO
  C:0000H         SYMBOL        _ICE_DUMMY_
  C:AAD2H         PUBLIC        _Debug_HexDec
  C:A932H         PUBLIC        _Debug_txt_Tibbo
  D:0080H         PUBLIC        P0
  D:0090H         PUBLIC        P1
  B:0090H.0       PUBLIC        txd2
  B:00A8H.7       PUBLIC        EA
  C:A8DFH         PUBLIC        _tx_aux
  B:0080H.0       PUBLIC        rx_ip
  C:B362H         PUBLIC        Debug_Dividir_texto
  C:B478H         PUBLIC        cond_ini_tibbo
  C:B32AH         PUBLIC        time_mbit
  C:9B47H         PUBLIC        rx_Data
  C:B2A9H         PUBLIC        time_bit
  C:AE4EH         PUBLIC        _Debug_pto_paralelo
  C:B007H         PUBLIC        _Debug_monitor
  C:A1D0H         PUBLIC        _DebugBufferMF
  C:A9B8H         PUBLIC        _Debug_chr_Tibbo
  C:B2A3H         SYMBOL        L?0066
  -------         PROC          L?0065
  -------         ENDPROC       L?0065
  C:B2A3H         SYMBOL        L?0066
  -------         PROC          TIME_BIT
  -------         DO            
  D:0007H         SYMBOL        j
  -------         ENDDO         
  C:B2A9H         LINE#         19
  C:B2A9H         LINE#         20
  C:B2A9H         LINE#         23
  C:B2B5H         LINE#         24
  C:B2B5H         LINE#         25
  C:B2B6H         LINE#         26
  C:B2B7H         LINE#         27
  C:B2B8H         LINE#         28
  C:B2B9H         LINE#         29
  C:B2BAH         LINE#         30
  C:B2BBH         LINE#         31
  C:B2BCH         LINE#         32
  C:B2BDH         LINE#         33
  C:B2BEH         LINE#         38
  C:B2C1H         LINE#         39
  -------         ENDPROC       TIME_BIT
  -------         PROC          TIME_MBIT
  -------         DO            
  D:0007H         SYMBOL        j
  -------         ENDDO         
  C:B32AH         LINE#         42
  C:B32AH         LINE#         43
  C:B32AH         LINE#         45
BL51 BANKED LINKER/LOCATER V6.22.2.0                                                  10/01/2020  09:24:10  PAGE 86


  C:B336H         LINE#         46
  C:B336H         LINE#         47
  C:B337H         LINE#         48
  C:B338H         LINE#         49
  C:B339H         LINE#         50
  C:B33AH         LINE#         51
  C:B33BH         LINE#         52
  C:B33CH         LINE#         53
  C:B33DH         LINE#         54
  C:B340H         LINE#         56
  -------         ENDPROC       TIME_MBIT
  -------         PROC          L?0070
  -------         ENDPROC       L?0070
  -------         PROC          _TX_AUX
  D:0006H         SYMBOL        caracter
  -------         DO            
  D:0004H         SYMBOL        j
  D:0005H         SYMBOL        temporal
  D:0006H         SYMBOL        bitTX
  -------         ENDDO         
  C:A8DFH         LINE#         61
  C:A8E1H         LINE#         62
  C:A8E1H         LINE#         65
  C:A8E3H         LINE#         66
  C:A8E5H         LINE#         67
  C:A8E8H         LINE#         68
  C:A8E9H         LINE#         69
  C:A8EAH         LINE#         70
  C:A8ECH         LINE#         71
  C:A8F0H         LINE#         72
  C:A8F2H         LINE#         73
  C:A8F2H         LINE#         74
  C:A8F4H         LINE#         75
  C:A8F6H         LINE#         77
  C:A8F6H         LINE#         78
  C:A8F8H         LINE#         79
  C:A8F8H         LINE#         80
  C:A8FBH         LINE#         81
  C:A907H         LINE#         82
  C:A907H         LINE#         83
  C:A90BH         LINE#         84
  C:A90EH         LINE#         85
  C:A910H         LINE#         86
  C:A910H         LINE#         87
  C:A912H         LINE#         88
  C:A914H         LINE#         90
  C:A914H         LINE#         91
  C:A916H         LINE#         92
  C:A916H         LINE#         93
  C:A919H         LINE#         94
  C:A91CH         LINE#         95
  C:A91EH         LINE#         96
  C:A921H         LINE#         97
  C:A924H         LINE#         99
  C:A926H         LINE#         100
  -------         ENDPROC       _TX_AUX
  -------         PROC          _DEBUG_HEXDEC
BL51 BANKED LINKER/LOCATER V6.22.2.0                                                  10/01/2020  09:24:10  PAGE 87


  D:0007H         SYMBOL        xfc
  -------         DO            
  X:0019H         SYMBOL        valor
  D:0006H         SYMBOL        centena
  D:0003H         SYMBOL        decena
  D:0002H         SYMBOL        unidad
  -------         ENDDO         
  C:AAD2H         LINE#         103
  C:AAD2H         LINE#         104
  C:AAD2H         LINE#         107
  C:AAD9H         LINE#         109
  C:AADAH         LINE#         110
  C:AADBH         LINE#         111
  C:AADCH         LINE#         112
  C:AAE4H         LINE#         113
  C:AAE4H         LINE#         114
  C:AAEEH         LINE#         115
  C:AAEEH         LINE#         116
  C:AAF2H         LINE#         117
  C:AAF3H         LINE#         118
  C:AAF5H         LINE#         119
  C:AAFFH         LINE#         120
  C:AAFFH         LINE#         121
  C:AB03H         LINE#         122
  C:AB04H         LINE#         123
  C:AB06H         LINE#         124
  C:AB08H         LINE#         125
  C:AB0CH         LINE#         126
  C:AB10H         LINE#         127
  C:AB17H         LINE#         129
  C:AB17H         LINE#         130
  -------         ENDPROC       _DEBUG_HEXDEC
  -------         PROC          _DEBUG_CHR_TIBBO
  D:0003H         SYMBOL        Dat
  -------         DO            
  D:0007H         SYMBOL        temp
  -------         ENDDO         
  C:A9B8H         LINE#         135
  C:A9BAH         LINE#         136
  C:A9BAH         LINE#         138
  C:A9C2H         LINE#         139
  C:A9C2H         LINE#         140
  C:A9C9H         LINE#         141
  C:A9DCH         LINE#         143
  C:A9DFH         LINE#         145
  C:A9E3H         LINE#         146
  C:A9F6H         LINE#         147
  C:A9F9H         LINE#         148
  C:A9FEH         LINE#         150
  C:A9FEH         LINE#         151
  -------         ENDPROC       _DEBUG_CHR_TIBBO
  -------         PROC          _DEBUGBUFFERMF
  X:0028H         SYMBOL        str
  X:002BH         SYMBOL        num_char
  X:002CH         SYMBOL        io
  -------         DO            
  X:002DH         SYMBOL        j
BL51 BANKED LINKER/LOCATER V6.22.2.0                                                  10/01/2020  09:24:10  PAGE 88


  -------         ENDDO         
  C:A1D0H         LINE#         158
  C:A1DEH         LINE#         159
  C:A1DEH         LINE#         163
  C:A1E6H         LINE#         164
  C:A1E6H         LINE#         165
  C:A1F5H         LINE#         166
  C:A1F5H         LINE#         167
  C:A1F9H         LINE#         168
  C:A202H         LINE#         169
  C:A214H         LINE#         170
  C:A214H         LINE#         171
  C:A226H         LINE#         172
  C:A230H         LINE#         173
  C:A238H         LINE#         174
  C:A23DH         LINE#         175
  C:A242H         LINE#         176
  C:A242H         LINE#         178
  -------         ENDPROC       _DEBUGBUFFERMF
  C:A92CH         SYMBOL        L?0068
  -------         PROC          L?0067
  -------         ENDPROC       L?0067
  C:A92CH         SYMBOL        L?0068
  -------         PROC          _DEBUG_TXT_TIBBO
  X:0038H         SYMBOL        str
  -------         DO            
  X:003BH         SYMBOL        i
  -------         ENDDO         
  C:A932H         LINE#         183
  C:A93DH         LINE#         184
  C:A93DH         LINE#         186
  C:A940H         LINE#         188
  C:A948H         LINE#         189
  C:A948H         LINE#         190
  C:A964H         LINE#         191
  C:A964H         LINE#         192
  C:A967H         LINE#         193
  C:A96FH         LINE#         195
  C:A96FH         LINE#         196
  -------         ENDPROC       _DEBUG_TXT_TIBBO
  -------         PROC          L?0069
  -------         ENDPROC       L?0069
  -------         PROC          DEBUG_DIVIDIR_TEXTO
  C:B362H         LINE#         198
  C:B362H         LINE#         199
  C:B362H         LINE#         200
  -------         ENDPROC       DEBUG_DIVIDIR_TEXTO
  -------         PROC          RX_DATA
  -------         DO            
  D:0006H         SYMBOL        temporal
  -------         ENDDO         
  C:9B47H         LINE#         206
  C:9B47H         LINE#         207
  C:9B47H         LINE#         210
  C:9B49H         LINE#         211
  C:9B4CH         LINE#         213
  C:9B4FH         LINE#         215
BL51 BANKED LINKER/LOCATER V6.22.2.0                                                  10/01/2020  09:24:10  PAGE 89


  C:9B5BH         LINE#         216
  C:9B5BH         LINE#         218
  C:9B5EH         LINE#         220
  C:9B6AH         LINE#         221
  C:9B6AH         LINE#         223
  C:9B6DH         LINE#         225
  C:9B79H         LINE#         226
  C:9B79H         LINE#         228
  C:9B7CH         LINE#         230
  C:9B88H         LINE#         231
  C:9B88H         LINE#         233
  C:9B8BH         LINE#         235
  C:9B97H         LINE#         236
  C:9B97H         LINE#         238
  C:9B9AH         LINE#         240
  C:9BA6H         LINE#         241
  C:9BA6H         LINE#         243
  C:9BA9H         LINE#         245
  C:9BB5H         LINE#         246
  C:9BB5H         LINE#         248
  C:9BB8H         LINE#         249
  C:9BC6H         LINE#         251
  C:9BC9H         LINE#         252
  C:9BCCH         LINE#         253
  C:9BCCH         LINE#         254
  C:9BCCH         LINE#         257
  C:9BCEH         LINE#         259
  -------         ENDPROC       RX_DATA
  -------         PROC          COND_INI_TIBBO
  C:B478H         LINE#         277
  C:B478H         LINE#         278
  C:B478H         LINE#         280
  C:B47AH         LINE#         281
  C:B47CH         LINE#         282
  -------         ENDPROC       COND_INI_TIBBO
  -------         PROC          _DEBUG_PTO_PARALELO
  X:0002H         SYMBOL        buffer
  X:0005H         SYMBOL        Length_trama
  C:AE4EH         LINE#         283
  C:AE51H         LINE#         284
  C:AE51H         LINE#         285
  C:AE54H         LINE#         286
  C:AE5DH         LINE#         287
  C:AE74H         LINE#         288
  C:AE77H         LINE#         289
  C:AE80H         LINE#         290
  C:AE83H         LINE#         291
  C:AE86H         LINE#         292
  -------         ENDPROC       _DEBUG_PTO_PARALELO
  -------         PROC          _DEBUG_MONITOR
  X:0015H         SYMBOL        buffer
  X:0018H         SYMBOL        Length_trama
  C:B007H         LINE#         295
  C:B00AH         LINE#         296
  C:B00AH         LINE#         297
  C:B00DH         LINE#         298
  C:B016H         LINE#         299
BL51 BANKED LINKER/LOCATER V6.22.2.0                                                  10/01/2020  09:24:10  PAGE 90


  C:B024H         LINE#         300
  C:B027H         LINE#         301
  C:B030H         LINE#         302
  C:B033H         LINE#         303
  C:B036H         LINE#         304
  -------         ENDPROC       _DEBUG_MONITOR
  -------         ENDMOD        TIBBO

  -------         MODULE        UART
  C:0000H         SYMBOL        _ICE_DUMMY_
  C:B18DH         PUBLIC        com_getchar
  C:B3B5H         PUBLIC        com_rbuflen
  C:B3C7H         PUBLIC        com_tbuflen
  B:00A8H.4       PUBLIC        ES
  B:0098H.0       PUBLIC        RI
  C:AE89H         PUBLIC        _com_putchar
  B:0098H.1       PUBLIC        TI
  B:0021H.3       PUBLIC        aSk
  B:00B8H.4       PUBLIC        PS
  D:000DH         SYMBOL        r_in
  D:000EH         SYMBOL        r_out
  D:000FH         SYMBOL        t_in
  D:0010H         SYMBOL        t_out
  D:0099H         PUBLIC        SBUF
  D:0087H         PUBLIC        PCON
  D:0089H         PUBLIC        TMOD
  B:0021H.4       SYMBOL        ti_restart
  B:00A8H.3       PUBLIC        ET1
  D:008DH         PUBLIC        TH1
  B:0098H.7       PUBLIC        SM0
  B:0098H.6       PUBLIC        SM1
  D:008BH         PUBLIC        TL1
  B:0098H.5       PUBLIC        SM2
  B:0088H.6       PUBLIC        TR1
  C:B0C4H         PUBLIC        com_initialize
  X:0263H         PUBLIC        cnt__ask_off
  B:0098H.4       PUBLIC        REN
  C:B116H         PUBLIC        com_baudrate
  C:54B5H         SYMBOL        com_isr
  -------         PROC          COM_ISR
  -------         DO            
  X:0261H         SYMBOL        cDatoRx
  D:0006H         SYMBOL        k
  D:0007H         SYMBOL        bcc
  X:0262H         SYMBOL        num_datos
  -------         ENDDO         
  C:54B5H         LINE#         96
  C:54CAH         LINE#         104
  C:54D0H         LINE#         105
  C:54D0H         LINE#         107
  C:54D2H         LINE#         108
  C:54D8H         LINE#         109
  C:54E8H         LINE#         110
  C:54E8H         LINE#         111
  C:54F3H         LINE#         112
  C:54F5H         LINE#         114
  C:54F5H         LINE#         115
BL51 BANKED LINKER/LOCATER V6.22.2.0                                                  10/01/2020  09:24:10  PAGE 91


  C:5505H         LINE#         116
  C:5505H         LINE#         117
  C:550AH         LINE#         118
  C:550AH         LINE#         119
  C:5521H         LINE#         120
  C:5521H         LINE#         124
  C:5521H         LINE#         127
  C:5530H         LINE#         128
  C:5530H         LINE#         129
  C:5532H         LINE#         130
  C:553AH         LINE#         131
  C:553FH         LINE#         133
  C:553FH         LINE#         134
  C:5542H         LINE#         138
  C:5542H         LINE#         139
  C:5542H         LINE#         140
  C:555AH         LINE#         141
  C:5569H         LINE#         142
  C:5569H         LINE#         143
  C:5569H         LINE#         144
  C:556BH         LINE#         146
  C:556BH         LINE#         147
  C:556DH         LINE#         148
  C:556DH         LINE#         149
  C:556DH         LINE#         150
  C:5570H         LINE#         154
  C:5570H         LINE#         156
  C:5579H         LINE#         157
  C:5579H         LINE#         159
  C:557FH         LINE#         160
  C:5592H         LINE#         161
  C:5592H         LINE#         162
  C:5595H         LINE#         164
  C:5595H         LINE#         165
  C:55AAH         LINE#         166
  C:55B0H         LINE#         167
  C:55B0H         LINE#         169
  C:55B3H         LINE#         173
  C:55B3H         LINE#         175
  C:55CBH         LINE#         176
  C:55D1H         LINE#         177
  C:55D4H         LINE#         178
  C:55D4H         LINE#         179
  C:55ECH         LINE#         180
  C:55ECH         LINE#         181
  C:55EDH         LINE#         182
  C:55FAH         LINE#         183
  C:55FAH         LINE#         184
  C:5607H         LINE#         185
  C:560AH         LINE#         186
  C:5618H         LINE#         187
  C:5618H         LINE#         188
  C:561AH         LINE#         189
  C:561FH         LINE#         190
  C:5621H         LINE#         191
  C:5625H         LINE#         193
  C:5627H         LINE#         195
BL51 BANKED LINKER/LOCATER V6.22.2.0                                                  10/01/2020  09:24:10  PAGE 92


  C:5627H         LINE#         196
  C:5627H         LINE#         197
  C:5627H         LINE#         198
  C:5629H         LINE#         200
  C:5629H         LINE#         201
  C:5629H         LINE#         202
  C:5629H         LINE#         204
  C:562BH         LINE#         206
  C:562BH         LINE#         207
  C:5631H         LINE#         208
  C:5631H         LINE#         210
  C:5633H         LINE#         215
  C:5633H         LINE#         216
  C:5638H         LINE#         217
  C:5638H         LINE#         218
  C:5638H         LINE#         219
  C:5638H         LINE#         224
  C:563BH         LINE#         225
  C:563BH         LINE#         226
  C:563DH         LINE#         228
  C:5643H         LINE#         229
  C:5643H         LINE#         230
  C:564DH         LINE#         232
  C:564FH         LINE#         233
  C:5651H         LINE#         234
  C:5653H         LINE#         236
  C:5653H         LINE#         237
  C:5655H         LINE#         238
  C:5655H         LINE#         239
  C:5655H         LINE#         241
  -------         ENDPROC       COM_ISR
  -------         PROC          COM_INITIALIZE
  C:B0C4H         LINE#         257
  C:B0CBH         LINE#         258
  C:B0CBH         LINE#         262
  C:B0CEH         LINE#         267
  C:B0D1H         LINE#         268
  C:B0D3H         LINE#         270
  C:B0D5H         LINE#         271
  C:B0D7H         LINE#         276
  C:B0DBH         LINE#         277
  C:B0DDH         LINE#         278
  C:B0DFH         LINE#         280
  C:B0E1H         LINE#         281
  C:B0E3H         LINE#         282
  C:B0E5H         LINE#         284
  C:B0E7H         LINE#         285
  C:B0E9H         LINE#         286
  -------         ENDPROC       COM_INITIALIZE
  -------         PROC          COM_BAUDRATE
  C:B116H         LINE#         292
  C:B11DH         LINE#         294
  C:B11DH         LINE#         298
  C:B11FH         LINE#         299
  C:B122H         LINE#         300
  C:B124H         LINE#         305
  C:B126H         LINE#         306
BL51 BANKED LINKER/LOCATER V6.22.2.0                                                  10/01/2020  09:24:10  PAGE 93


  C:B128H         LINE#         308
  C:B12BH         LINE#         310
  C:B12EH         LINE#         311
  C:B131H         LINE#         313
  C:B134H         LINE#         314
  C:B137H         LINE#         315
  C:B139H         LINE#         316
  -------         ENDPROC       COM_BAUDRATE
  -------         PROC          _COM_PUTCHAR
  X:00ABH         SYMBOL        c
  C:AE89H         LINE#         322
  C:AE95H         LINE#         323
  C:AE95H         LINE#         327
  C:AEA2H         LINE#         328
  C:AEA6H         LINE#         334
  C:AEB4H         LINE#         336
  C:AEB6H         LINE#         338
  C:AEB9H         LINE#         339
  C:AEB9H         LINE#         340
  C:AEBBH         LINE#         341
  C:AEBDH         LINE#         342
  C:AEBDH         LINE#         344
  C:AEBFH         LINE#         345
  -------         ENDPROC       _COM_PUTCHAR
  -------         PROC          COM_GETCHAR
  C:B18DH         LINE#         351
  C:B194H         LINE#         352
  C:B194H         LINE#         353
  C:B19AH         LINE#         354
  C:B1A0H         LINE#         356
  C:B1AEH         LINE#         357
  -------         ENDPROC       COM_GETCHAR
  -------         PROC          COM_RBUFLEN
  C:B3B5H         LINE#         363
  C:B3BCH         LINE#         364
  C:B3BCH         LINE#         365
  C:B3C2H         LINE#         366
  -------         ENDPROC       COM_RBUFLEN
  -------         PROC          COM_TBUFLEN
  C:B3C7H         LINE#         372
  C:B3CEH         LINE#         373
  C:B3CEH         LINE#         374
  C:B3D4H         LINE#         375
  -------         ENDPROC       COM_TBUFLEN
  -------         ENDMOD        UART

  -------         MODULE        LINTECH
  C:0000H         SYMBOL        _ICE_DUMMY_
  C:9189H         PUBLIC        _Inicializa
  C:86F2H         PUBLIC        _RD_MF
  C:8F97H         PUBLIC        Dwload_EEprom
  C:964AH         PUBLIC        _Card_Insercion
  C:7AA0H         PUBLIC        _Mov_Card
  C:71CBH         PUBLIC        _WR_MF
  C:96DBH         PUBLIC        LoadVerify_EEprom
  C:9BCFH         PUBLIC        Unique_Identifier_UID
  C:9FDFH         PUBLIC        Power_off
BL51 BANKED LINKER/LOCATER V6.22.2.0                                                  10/01/2020  09:24:10  PAGE 94


  C:A05FH         PUBLIC        _Check_Status
  C:8EEDH         PUBLIC        Clave_Seguridad_S2
  C:9F5FH         PUBLIC        Aut_Card_check_Status
  -------         PROC          _INICIALIZA
  X:0003H         SYMBOL        TipoMovimiento
  -------         DO            
  D:0003H         SYMBOL        j
  X:0004H         SYMBOL        bcc
  X:0005H         SYMBOL        g_scArrTxComSoft
  -------         ENDDO         
  C:9189H         LINE#         66
  C:918EH         LINE#         67
  C:918EH         LINE#         70
  C:9191H         LINE#         71
  C:91A7H         LINE#         72
  C:91A7H         LINE#         74
  C:91B0H         LINE#         76
  C:91B6H         LINE#         77
  C:91B9H         LINE#         78
  C:91BBH         LINE#         79
  C:91BFH         LINE#         80
  C:91C3H         LINE#         81
  C:91C7H         LINE#         82
  C:91CFH         LINE#         83
  C:91D3H         LINE#         84
  C:91DFH         LINE#         85
  C:91DFH         LINE#         86
  C:91F3H         LINE#         87
  C:91F6H         LINE#         88
  C:91FEH         LINE#         89
  C:9200H         LINE#         90
  C:9205H         LINE#         91
  C:9214H         LINE#         92
  C:921FH         LINE#         93
  C:9225H         LINE#         94
  C:9225H         LINE#         95
  -------         ENDPROC       _INICIALIZA
  -------         PROC          _CHECK_STATUS
  X:0003H         SYMBOL        Detalle
  -------         DO            
  D:0006H         SYMBOL        j
  D:0007H         SYMBOL        bcc
  X:0004H         SYMBOL        g_scArrTxComSoft
  -------         ENDDO         
  C:A05FH         LINE#         107
  C:A064H         LINE#         108
  C:A064H         LINE#         111
  C:A06DH         LINE#         113
  C:A06FH         LINE#         115
  C:A075H         LINE#         116
  C:A078H         LINE#         117
  C:A07AH         LINE#         118
  C:A07EH         LINE#         119
  C:A082H         LINE#         120
  C:A086H         LINE#         121
  C:A08EH         LINE#         122
  C:A092H         LINE#         123
BL51 BANKED LINKER/LOCATER V6.22.2.0                                                  10/01/2020  09:24:10  PAGE 95


  C:A09EH         LINE#         124
  C:A09EH         LINE#         125
  C:A0ABH         LINE#         126
  C:A0AEH         LINE#         127
  C:A0B3H         LINE#         128
  C:A0B5H         LINE#         129
  C:A0BAH         LINE#         130
  C:A0C9H         LINE#         131
  C:A0D4H         LINE#         132
  C:A0DAH         LINE#         133
  -------         ENDPROC       _CHECK_STATUS
  -------         PROC          _CARD_INSERCION
  D:0007H         SYMBOL        Tipo
  -------         DO            
  D:0006H         SYMBOL        j
  D:0007H         SYMBOL        bcc
  X:0003H         SYMBOL        g_scArrTxComSoft
  -------         ENDDO         
  C:964AH         LINE#         143
  C:964AH         LINE#         144
  C:964AH         LINE#         147
  C:9657H         LINE#         148
  C:9657H         LINE#         149
  C:965EH         LINE#         150
  C:9664H         LINE#         151
  C:9666H         LINE#         153
  C:9666H         LINE#         155
  C:966DH         LINE#         156
  C:9673H         LINE#         158
  C:9673H         LINE#         160
  C:9675H         LINE#         162
  C:967BH         LINE#         163
  C:967EH         LINE#         164
  C:9680H         LINE#         165
  C:9684H         LINE#         166
  C:9688H         LINE#         167
  C:968CH         LINE#         169
  C:9692H         LINE#         170
  C:969EH         LINE#         171
  C:969EH         LINE#         172
  C:96ABH         LINE#         173
  C:96AEH         LINE#         175
  C:96B3H         LINE#         177
  C:96B5H         LINE#         178
  C:96BAH         LINE#         179
  C:96C9H         LINE#         180
  C:96D4H         LINE#         181
  C:96DAH         LINE#         182
  -------         ENDPROC       _CARD_INSERCION
  -------         PROC          _MOV_CARD
  X:0003H         SYMBOL        Posicion
  -------         DO            
  D:0003H         SYMBOL        j
  X:0004H         SYMBOL        bcc
  X:0005H         SYMBOL        g_scArrTxComSoft
  -------         ENDDO         
  C:7AA0H         LINE#         193
BL51 BANKED LINKER/LOCATER V6.22.2.0                                                  10/01/2020  09:24:10  PAGE 96


  C:7AA5H         LINE#         194
  C:7AA5H         LINE#         197
  C:7AA8H         LINE#         199
  C:7AC8H         LINE#         200
  C:7AC8H         LINE#         201
  C:7ACFH         LINE#         202
  C:7ACFH         LINE#         203
  C:7AD5H         LINE#         204
  C:7AD7H         LINE#         205
  C:7ADEH         LINE#         206
  C:7ADEH         LINE#         207
  C:7AE4H         LINE#         208
  C:7AE6H         LINE#         209
  C:7AEDH         LINE#         210
  C:7AEDH         LINE#         211
  C:7AF3H         LINE#         212
  C:7AF5H         LINE#         213
  C:7AFCH         LINE#         214
  C:7AFCH         LINE#         215
  C:7B02H         LINE#         216
  C:7B04H         LINE#         217
  C:7B0BH         LINE#         218
  C:7B0BH         LINE#         219
  C:7B14H         LINE#         220
  C:7B14H         LINE#         222
  C:7B1AH         LINE#         223
  C:7B1DH         LINE#         224
  C:7B1FH         LINE#         225
  C:7B23H         LINE#         226
  C:7B27H         LINE#         227
  C:7B2BH         LINE#         228
  C:7B33H         LINE#         229
  C:7B37H         LINE#         230
  C:7B43H         LINE#         231
  C:7B43H         LINE#         232
  C:7B57H         LINE#         233
  C:7B5AH         LINE#         234
  C:7B62H         LINE#         235
  C:7B64H         LINE#         236
  C:7B69H         LINE#         237
  C:7B78H         LINE#         238
  C:7B83H         LINE#         239
  C:7B89H         LINE#         240
  C:7B89H         LINE#         242
  -------         ENDPROC       _MOV_CARD
  -------         PROC          AUT_CARD_CHECK_STATUS
  -------         DO            
  D:0003H         SYMBOL        j
  X:0003H         SYMBOL        bcc
  X:0004H         SYMBOL        g_scArrTxComSoft
  -------         ENDDO         
  C:9F5FH         LINE#         248
  C:9F5FH         LINE#         249
  C:9F5FH         LINE#         252
  C:9F64H         LINE#         254
  C:9F6DH         LINE#         256
  C:9F73H         LINE#         257
BL51 BANKED LINKER/LOCATER V6.22.2.0                                                  10/01/2020  09:24:10  PAGE 97


  C:9F76H         LINE#         258
  C:9F78H         LINE#         259
  C:9F7CH         LINE#         260
  C:9F80H         LINE#         261
  C:9F84H         LINE#         262
  C:9F88H         LINE#         263
  C:9F8CH         LINE#         264
  C:9F98H         LINE#         265
  C:9F98H         LINE#         266
  C:9FACH         LINE#         267
  C:9FAFH         LINE#         268
  C:9FB7H         LINE#         269
  C:9FB9H         LINE#         270
  C:9FBEH         LINE#         271
  C:9FCDH         LINE#         272
  C:9FD8H         LINE#         273
  C:9FDEH         LINE#         274
  -------         ENDPROC       AUT_CARD_CHECK_STATUS
  -------         PROC          CLAVE_SEGURIDAD_S2
  -------         DO            
  D:0003H         SYMBOL        j
  X:0008H         SYMBOL        bcc
  X:0009H         SYMBOL        g_scArrTxComSoft
  -------         ENDDO         
  C:8EEDH         LINE#         277
  C:8EEDH         LINE#         278
  C:8EEDH         LINE#         281
  C:8EF2H         LINE#         282
  C:8EFBH         LINE#         285
  C:8F01H         LINE#         286
  C:8F04H         LINE#         287
  C:8F06H         LINE#         288
  C:8F0AH         LINE#         289
  C:8F0EH         LINE#         290
  C:8F12H         LINE#         291
  C:8F16H         LINE#         292
  C:8F19H         LINE#         293
  C:8F1DH         LINE#         294
  C:8F20H         LINE#         295
  C:8F24H         LINE#         297
  C:8F28H         LINE#         299
  C:8F2CH         LINE#         300
  C:8F30H         LINE#         301
  C:8F34H         LINE#         302
  C:8F38H         LINE#         303
  C:8F3CH         LINE#         304
  C:8F40H         LINE#         307
  C:8F44H         LINE#         309
  C:8F50H         LINE#         310
  C:8F50H         LINE#         311
  C:8F64H         LINE#         312
  C:8F67H         LINE#         313
  C:8F6FH         LINE#         314
  C:8F71H         LINE#         315
  C:8F76H         LINE#         316
  C:8F85H         LINE#         317
  C:8F90H         LINE#         318
BL51 BANKED LINKER/LOCATER V6.22.2.0                                                  10/01/2020  09:24:10  PAGE 98


  C:8F96H         LINE#         321
  -------         ENDPROC       CLAVE_SEGURIDAD_S2
  -------         PROC          DWLOAD_EEPROM
  -------         DO            
  D:0003H         SYMBOL        j
  X:0003H         SYMBOL        bcc
  X:0004H         SYMBOL        g_scArrTxComSoft
  -------         ENDDO         
  C:8F97H         LINE#         326
  C:8F97H         LINE#         327
  C:8F97H         LINE#         330
  C:8F9CH         LINE#         331
  C:8FA5H         LINE#         333
  C:8FABH         LINE#         334
  C:8FAEH         LINE#         335
  C:8FB0H         LINE#         336
  C:8FB4H         LINE#         337
  C:8FB8H         LINE#         338
  C:8FBCH         LINE#         339
  C:8FC0H         LINE#         340
  C:8FC3H         LINE#         341
  C:8FC7H         LINE#         342
  C:8FCAH         LINE#         343
  C:8FCDH         LINE#         344
  C:8FD1H         LINE#         345
  C:8FD5H         LINE#         346
  C:8FD9H         LINE#         347
  C:8FDDH         LINE#         348
  C:8FE1H         LINE#         349
  C:8FE5H         LINE#         350
  C:8FE9H         LINE#         351
  C:8FEDH         LINE#         353
  C:8FF9H         LINE#         354
  C:8FF9H         LINE#         355
  C:900DH         LINE#         356
  C:9010H         LINE#         357
  C:9018H         LINE#         358
  C:901AH         LINE#         359
  C:901FH         LINE#         360
  C:902EH         LINE#         361
  C:9039H         LINE#         362
  C:903FH         LINE#         363
  -------         ENDPROC       DWLOAD_EEPROM
  -------         PROC          LOADVERIFY_EEPROM
  -------         DO            
  D:0003H         SYMBOL        j
  X:0003H         SYMBOL        bcc
  X:0004H         SYMBOL        g_scArrTxComSoft
  -------         ENDDO         
  C:96DBH         LINE#         369
  C:96DBH         LINE#         370
  C:96DBH         LINE#         373
  C:96E0H         LINE#         374
  C:96E9H         LINE#         377
  C:96EFH         LINE#         378
  C:96F2H         LINE#         379
  C:96F4H         LINE#         380
BL51 BANKED LINKER/LOCATER V6.22.2.0                                                  10/01/2020  09:24:10  PAGE 99


  C:96F8H         LINE#         381
  C:96FCH         LINE#         382
  C:9700H         LINE#         383
  C:9704H         LINE#         384
  C:9707H         LINE#         385
  C:970BH         LINE#         386
  C:970EH         LINE#         387
  C:9711H         LINE#         388
  C:9715H         LINE#         389
  C:9719H         LINE#         393
  C:9725H         LINE#         394
  C:9725H         LINE#         395
  C:9739H         LINE#         396
  C:973CH         LINE#         397
  C:9744H         LINE#         398
  C:9746H         LINE#         399
  C:974BH         LINE#         400
  C:975AH         LINE#         401
  C:9765H         LINE#         402
  C:976BH         LINE#         404
  -------         ENDPROC       LOADVERIFY_EEPROM
  -------         PROC          _RD_MF
  X:0003H         SYMBOL        Sector
  X:0004H         SYMBOL        Bloque
  -------         DO            
  D:0003H         SYMBOL        j
  X:0005H         SYMBOL        bcc
  X:0006H         SYMBOL        g_scArrTxComSoft
  -------         ENDDO         
  C:86F2H         LINE#         410
  C:86FAH         LINE#         411
  C:86FAH         LINE#         415
  C:86FDH         LINE#         417
  C:8706H         LINE#         418
  C:870EH         LINE#         420
  C:8717H         LINE#         421
  C:871FH         LINE#         422
  C:8728H         LINE#         425
  C:872EH         LINE#         426
  C:8731H         LINE#         427
  C:8733H         LINE#         428
  C:8737H         LINE#         429
  C:873BH         LINE#         430
  C:873FH         LINE#         431
  C:8743H         LINE#         432
  C:8746H         LINE#         433
  C:874AH         LINE#         434
  C:8752H         LINE#         435
  C:875AH         LINE#         436
  C:875EH         LINE#         437
  C:8762H         LINE#         439
  C:876EH         LINE#         440
  C:876EH         LINE#         441
  C:8782H         LINE#         442
  C:8785H         LINE#         443
  C:878DH         LINE#         446
  C:878FH         LINE#         447
BL51 BANKED LINKER/LOCATER V6.22.2.0                                                  10/01/2020  09:24:10  PAGE 100


  C:8794H         LINE#         448
  C:87A3H         LINE#         449
  C:87AEH         LINE#         450
  C:87B4H         LINE#         452
  -------         ENDPROC       _RD_MF
  -------         PROC          _WR_MF
  X:0003H         SYMBOL        Sector
  X:0004H         SYMBOL        Bloque
  X:0005H         SYMBOL        buffer
  -------         DO            
  D:0005H         SYMBOL        j
  X:0008H         SYMBOL        bcc
  X:0009H         SYMBOL        g_scArrTxComSoft
  -------         ENDDO         
  C:71CBH         LINE#         459
  C:71DCH         LINE#         461
  C:71DCH         LINE#         464
  C:71DFH         LINE#         466
  C:71E8H         LINE#         467
  C:71F0H         LINE#         469
  C:71F9H         LINE#         470
  C:7201H         LINE#         471
  C:720AH         LINE#         473
  C:7210H         LINE#         474
  C:7213H         LINE#         475
  C:7215H         LINE#         476
  C:7219H         LINE#         478
  C:721DH         LINE#         479
  C:7221H         LINE#         480
  C:7225H         LINE#         481
  C:7228H         LINE#         482
  C:722CH         LINE#         483
  C:7234H         LINE#         484
  C:723CH         LINE#         485
  C:7240H         LINE#         487
  C:724CH         LINE#         488
  C:724CH         LINE#         489
  C:726CH         LINE#         490
  C:726FH         LINE#         492
  C:7275H         LINE#         494
  C:7281H         LINE#         495
  C:7281H         LINE#         496
  C:7298H         LINE#         497
  C:729BH         LINE#         498
  C:72A3H         LINE#         501
  C:72A5H         LINE#         502
  C:72AAH         LINE#         503
  C:72B9H         LINE#         504
  C:72C4H         LINE#         505
  C:72CAH         LINE#         507
  -------         ENDPROC       _WR_MF
  -------         PROC          UNIQUE_IDENTIFIER_UID
  -------         DO            
  D:0003H         SYMBOL        j
  X:0003H         SYMBOL        bcc
  X:0004H         SYMBOL        g_scArrTxComSoft
  -------         ENDDO         
BL51 BANKED LINKER/LOCATER V6.22.2.0                                                  10/01/2020  09:24:10  PAGE 101


  C:9BCFH         LINE#         512
  C:9BCFH         LINE#         513
  C:9BCFH         LINE#         516
  C:9BD4H         LINE#         518
  C:9BDDH         LINE#         520
  C:9BE3H         LINE#         521
  C:9BE6H         LINE#         522
  C:9BE8H         LINE#         523
  C:9BECH         LINE#         524
  C:9BF0H         LINE#         525
  C:9BF4H         LINE#         526
  C:9BF8H         LINE#         527
  C:9BFCH         LINE#         528
  C:9C00H         LINE#         529
  C:9C04H         LINE#         530
  C:9C10H         LINE#         531
  C:9C10H         LINE#         532
  C:9C24H         LINE#         533
  C:9C27H         LINE#         534
  C:9C2FH         LINE#         535
  C:9C31H         LINE#         536
  C:9C36H         LINE#         537
  C:9C45H         LINE#         538
  C:9C50H         LINE#         539
  C:9C56H         LINE#         540
  -------         ENDPROC       UNIQUE_IDENTIFIER_UID
  -------         PROC          POWER_OFF
  -------         DO            
  D:0003H         SYMBOL        j
  X:0003H         SYMBOL        bcc
  X:0004H         SYMBOL        g_scArrTxComSoft
  -------         ENDDO         
  C:9FDFH         LINE#         541
  C:9FDFH         LINE#         542
  C:9FDFH         LINE#         545
  C:9FE4H         LINE#         547
  C:9FEDH         LINE#         549
  C:9FF3H         LINE#         550
  C:9FF6H         LINE#         551
  C:9FF8H         LINE#         552
  C:9FFCH         LINE#         553
  C:A000H         LINE#         554
  C:A004H         LINE#         555
  C:A008H         LINE#         556
  C:A00CH         LINE#         557
  C:A018H         LINE#         558
  C:A018H         LINE#         559
  C:A02CH         LINE#         560
  C:A02FH         LINE#         561
  C:A037H         LINE#         562
  C:A039H         LINE#         563
  C:A03EH         LINE#         564
  C:A04DH         LINE#         565
  C:A058H         LINE#         566
  C:A05EH         LINE#         569
  -------         ENDPROC       POWER_OFF
  -------         ENDMOD        LINTECH
BL51 BANKED LINKER/LOCATER V6.22.2.0                                                  10/01/2020  09:24:10  PAGE 102



  -------         MODULE        VERIFICADOR
  C:0000H         SYMBOL        _ICE_DUMMY_
  D:0080H         PUBLIC        P0
  C:B1B3H         PUBLIC        Analiza_Presencia_Mensual
  C:A649H         PUBLIC        Ingreso_Vehiculo
  D:0090H         PUBLIC        P1
  C:B13EH         PUBLIC        _Armar_Trama_Tarjeta_Sector1_Bloque0
  D:00B0H         PUBLIC        P3
  C:5811H         PUBLIC        _Valida_Tipo_Tarjeta
  C:ADB6H         PUBLIC        _Load_Secuencia_Expedidor
  C:6099H         PUBLIC        _Armar_Trama_Tarjeta_Sector1_Bloque2
  C:5668H         PUBLIC        _Armar_Trama_Pto_Paralelo_Expedidor
  C:862EH         PUBLIC        _Tarjeta_Mensual
  C:B1FFH         PUBLIC        Analiza_Presencia_rotacion
  C:A465H         PUBLIC        _Disparo_Lock_Entrada_Vehiculo
  C:948CH         PUBLIC        _Valida_Vehiculo_Card_Mensual
  C:A6FAH         PUBLIC        _Armar_Trama_Placa
  C:8242H         PUBLIC        _rta_cmd_transporte
  C:B427H         PUBLIC        Captura_Expulsa
  C:5E00H         PUBLIC        _Armar_Trama_Monitor
  C:6458H         PUBLIC        Secuencia_inicio_expedidor
  C:7E27H         PUBLIC        _Analiza_Uid_Card
  B:0080H.0       PUBLIC        rx_ip
  C:70C8H         PUBLIC        _Bloque_Horario
  B:0090H.7       PUBLIC        lock
  C:9226H         PUBLIC        _Responde_Lectura_Tarjeta_Sector1_Bloque0
  C:8938H         PUBLIC        error_rx_pto
  C:52D6H         PUBLIC        _Responde_Lectura_Tarjeta_Sector1_Bloque1
  C:66CDH         PUBLIC        _Responde_Lectura_Tarjeta_Sector1_Bloque2
  B:0090H.1       PUBLIC        DataIn
  C:9CDBH         PUBLIC        _Send_Pto_Paralelo
  C:AFD4H         PUBLIC        Trama_Validacion_P_N
  B:0021H.6       PUBLIC        MenSual
  C:7FD4H         PUBLIC        _Armar_Trama_Pto_Paralelo_Expedidor_Mensual
  B:0080H.3       PUBLIC        Rele_Atasco
  C:6EADH         PUBLIC        _Horarios
  C:8E41H         PUBLIC        _Hora_Maxima
  C:37B2H         PUBLIC        _SecuenciaExpedidorMF
  C:A52DH         PUBLIC        _Pregunta_Lpr
  C:90E6H         PUBLIC        _Wait_Placa
  C:A0DBH         PUBLIC        Responde_Estado_Sensores_Transporte
  C:A157H         PUBLIC        Entrega_Card_Captura
  C:A5ECH         PUBLIC        _Respuesta_Segunda_clave
  X:0141H         SYMBOL        Estado
  C:AF36H         PUBLIC        _Responde_Write_Tarjeta_Sector1_Bloque0
  C:A9FFH         PUBLIC        _Responde_Write_Tarjeta_Sector2_Bloque0
  C:991BH         PUBLIC        _Responde_Write_Tarjeta_Sector1_Bloque2
  C:A2B4H         PUBLIC        _En_Horario
  C:A243H         PUBLIC        Responde_Tipo_Tarjeta
  C:B039H         PUBLIC        _Tarjeta_Rotacion
  -------         PROC          CAPTURA_EXPULSA
  -------         DO            
  D:0007H         SYMBOL        Estado_expedidor
  -------         ENDDO         
  C:B427H         LINE#         523
  C:B427H         LINE#         524
BL51 BANKED LINKER/LOCATER V6.22.2.0                                                  10/01/2020  09:24:10  PAGE 103


  C:B427H         LINE#         528
  C:B42AH         LINE#         529
  C:B42AH         LINE#         530
  C:B42CH         LINE#         531
  C:B42DH         LINE#         533
  C:B42DH         LINE#         535
  C:B42FH         LINE#         536
  C:B42FH         LINE#         539
  C:B42FH         LINE#         540
  -------         ENDPROC       CAPTURA_EXPULSA
  -------         PROC          TRAMA_VALIDACION_P_N
  -------         DO            
  D:0007H         SYMBOL        Trama_Validacion_P_N
  -------         ENDDO         
  C:AFD4H         LINE#         551
  C:AFD4H         LINE#         552
  C:AFD4H         LINE#         553
  C:AFD6H         LINE#         555
  C:AFE1H         LINE#         556
  C:AFE1H         LINE#         557
  C:AFE4H         LINE#         558
  C:AFE4H         LINE#         559
  C:AFE6H         LINE#         562
  C:AFEEH         LINE#         563
  C:AFEEH         LINE#         565
  C:AFF0H         LINE#         567
  C:AFF1H         LINE#         568
  C:AFF5H         LINE#         569
  C:AFF5H         LINE#         571
  C:AFF7H         LINE#         573
  C:AFF8H         LINE#         575
  C:AFF8H         LINE#         576
  C:B001H         LINE#         577
  C:B003H         LINE#         579
  C:B003H         LINE#         580
  C:B004H         LINE#         582
  C:B004H         LINE#         584
  C:B006H         LINE#         586
  C:B006H         LINE#         588
  C:B006H         LINE#         590
  C:B006H         LINE#         591
  -------         ENDPROC       TRAMA_VALIDACION_P_N
  -------         PROC          ERROR_RX_PTO
  -------         DO            
  X:00B8H         SYMBOL        cnt_espera_ask_on
  X:0008H         SYMBOL        error_rx_pto
  -------         ENDDO         
  C:8938H         LINE#         615
  C:8938H         LINE#         616
  C:8938H         LINE#         619
  C:893EH         LINE#         623
  C:8947H         LINE#         624
  C:894FH         LINE#         625
  C:8958H         LINE#         626
  C:8960H         LINE#         627
  C:8969H         LINE#         628
  C:896CH         LINE#         630
BL51 BANKED LINKER/LOCATER V6.22.2.0                                                  10/01/2020  09:24:10  PAGE 104


  C:896CH         LINE#         631
  C:8972H         LINE#         632
  C:897CH         LINE#         633
  C:897CH         LINE#         634
  C:8985H         LINE#         635
  C:8987H         LINE#         636
  C:898EH         LINE#         637
  C:8993H         LINE#         638
  C:8999H         LINE#         639
  C:899EH         LINE#         640
  C:89A0H         LINE#         641
  C:89A7H         LINE#         642
  C:89ADH         LINE#         643
  C:89ADH         LINE#         645
  C:89ADH         LINE#         646
  C:89B2H         LINE#         647
  C:89B2H         LINE#         648
  C:89B2H         LINE#         649
  C:89B4H         LINE#         651
  C:89B4H         LINE#         652
  C:89C2H         LINE#         653
  C:89D5H         LINE#         654
  C:89D5H         LINE#         655
  C:89D6H         LINE#         657
  C:89DCH         LINE#         658
  C:89E0H         LINE#         659
  C:89E2H         LINE#         660
  C:89E2H         LINE#         661
  C:89E4H         LINE#         663
  C:89E4H         LINE#         664
  C:89E5H         LINE#         665
  C:89EAH         LINE#         666
  C:89F0H         LINE#         667
  C:89F0H         LINE#         668
  C:89F0H         LINE#         669
  C:89F5H         LINE#         670
  -------         ENDPROC       ERROR_RX_PTO
  -------         PROC          _RTA_CMD_TRANSPORTE
  X:0003H         SYMBOL        secuencia_Expedidor
  -------         DO            
  X:0006H         SYMBOL        temp
  X:0007H         SYMBOL        EstadoComSeqMF
  -------         ENDDO         
  C:8242H         LINE#         686
  C:824DH         LINE#         687
  C:824DH         LINE#         692
  C:825AH         LINE#         693
  C:825AH         LINE#         694
  C:8262H         LINE#         695
  C:8262H         LINE#         696
  C:8270H         LINE#         697
  C:8273H         LINE#         698
  C:8279H         LINE#         699
  C:8279H         LINE#         700
  C:8282H         LINE#         701
  C:8296H         LINE#         702
  C:82A7H         LINE#         703
BL51 BANKED LINKER/LOCATER V6.22.2.0                                                  10/01/2020  09:24:10  PAGE 105


  C:82A9H         LINE#         705
  C:82A9H         LINE#         708
  C:82C1H         LINE#         709
  C:82C1H         LINE#         710
  C:82CCH         LINE#         711
  C:82CEH         LINE#         713
  C:82CEH         LINE#         714
  C:82DCH         LINE#         715
  C:82DCH         LINE#         716
  C:82DCH         LINE#         717
  C:82DEH         LINE#         719
  C:82DEH         LINE#         721
  C:82F2H         LINE#         722
  C:8307H         LINE#         723
  C:8307H         LINE#         724
  C:830CH         LINE#         725
  -------         ENDPROC       _RTA_CMD_TRANSPORTE
  -------         PROC          ANALIZA_PRESENCIA_MENSUAL
  -------         DO            
  X:0003H         SYMBOL        Estado_expedidor
  -------         ENDDO         
  C:B1B3H         LINE#         729
  C:B1B3H         LINE#         730
  C:B1B3H         LINE#         732
  C:B1B9H         LINE#         733
  C:B1B9H         LINE#         734
  C:B1BBH         LINE#         735
  C:B1C1H         LINE#         736
  C:B1C3H         LINE#         738
  C:B1C3H         LINE#         740
  C:B1C8H         LINE#         741
  C:B1CDH         LINE#         742
  C:B1D3H         LINE#         744
  C:B1D3H         LINE#         745
  C:B1D8H         LINE#         746
  -------         ENDPROC       ANALIZA_PRESENCIA_MENSUAL
  -------         PROC          ANALIZA_PRESENCIA_ROTACION
  -------         DO            
  X:0003H         SYMBOL        Estado_expedidor
  -------         ENDDO         
  C:B1FFH         LINE#         747
  C:B1FFH         LINE#         748
  C:B1FFH         LINE#         750
  C:B205H         LINE#         751
  C:B205H         LINE#         753
  C:B20BH         LINE#         754
  C:B20DH         LINE#         756
  C:B20DH         LINE#         758
  C:B212H         LINE#         759
  C:B217H         LINE#         760
  C:B21CH         LINE#         762
  C:B21CH         LINE#         763
  C:B221H         LINE#         764
  -------         ENDPROC       ANALIZA_PRESENCIA_ROTACION
  -------         PROC          _ANALIZA_UID_CARD
  X:0003H         SYMBOL        Atributos_Expedidor
  -------         DO            
BL51 BANKED LINKER/LOCATER V6.22.2.0                                                  10/01/2020  09:24:10  PAGE 106


  X:0006H         SYMBOL        Estado_expedidor
  D:0007H         SYMBOL        temp
  X:0007H         SYMBOL        buffer_UID
  -------         ENDDO         
  C:7E27H         LINE#         768
  C:7E32H         LINE#         769
  C:7E32H         LINE#         773
  C:7E42H         LINE#         774
  C:7E42H         LINE#         776
  C:7E4EH         LINE#         777
  C:7E4EH         LINE#         778
  C:7E66H         LINE#         780
  C:7E69H         LINE#         782
  C:7E72H         LINE#         783
  C:7E83H         LINE#         786
  C:7E8CH         LINE#         787
  C:7E94H         LINE#         788
  C:7E9CH         LINE#         789
  C:7EA4H         LINE#         790
  C:7EACH         LINE#         791
  C:7EB5H         LINE#         793
  C:7ECCH         LINE#         794
  C:7ED6H         LINE#         795
  C:7EE0H         LINE#         796
  C:7EEAH         LINE#         797
  C:7EF0H         LINE#         798
  C:7EF2H         LINE#         800
  C:7EF2H         LINE#         801
  C:7EF8H         LINE#         802
  C:7EF8H         LINE#         803
  C:7EFDH         LINE#         804
  -------         ENDPROC       _ANALIZA_UID_CARD
  -------         PROC          INGRESO_VEHICULO
  -------         DO            
  D:0007H         SYMBOL        CardAutomatic
  X:00BAH         SYMBOL        pulseboton
  -------         ENDDO         
  C:A649H         LINE#         808
  C:A649H         LINE#         809
  C:A649H         LINE#         813
  C:A64FH         LINE#         814
  C:A64FH         LINE#         815
  C:A658H         LINE#         817
  C:A65DH         LINE#         818
  C:A65DH         LINE#         819
  C:A666H         LINE#         821
  C:A666H         LINE#         822
  C:A668H         LINE#         824
  C:A668H         LINE#         825
  C:A66EH         LINE#         826
  C:A673H         LINE#         827
  C:A675H         LINE#         829
  C:A675H         LINE#         830
  C:A67BH         LINE#         833
  C:A67BH         LINE#         834
  C:A67EH         LINE#         835
  C:A681H         LINE#         836
BL51 BANKED LINKER/LOCATER V6.22.2.0                                                  10/01/2020  09:24:10  PAGE 107


  C:A681H         LINE#         837
  C:A68AH         LINE#         838
  C:A68FH         LINE#         839
  C:A695H         LINE#         840
  C:A697H         LINE#         849
  C:A697H         LINE#         851
  C:A69CH         LINE#         852
  C:A69CH         LINE#         853
  C:A6A1H         LINE#         854
  -------         ENDPROC       INGRESO_VEHICULO
  -------         PROC          RESPONDE_ESTADO_SENSORES_TRANSPORTE
  -------         DO            
  X:0003H         SYMBOL        Estado_expedidor
  -------         ENDDO         
  C:A0DBH         LINE#         861
  C:A0DBH         LINE#         862
  C:A0DBH         LINE#         865
  C:A0E4H         LINE#         867
  C:A0ECH         LINE#         868
  C:A0ECH         LINE#         870
  C:A0F7H         LINE#         871
  C:A0F7H         LINE#         872
  C:A0FBH         LINE#         873
  C:A0FBH         LINE#         874
  C:A104H         LINE#         875
  C:A109H         LINE#         877
  C:A109H         LINE#         878
  C:A10BH         LINE#         880
  C:A10BH         LINE#         882
  C:A113H         LINE#         884
  C:A113H         LINE#         885
  C:A115H         LINE#         887
  C:A115H         LINE#         889
  C:A11EH         LINE#         891
  C:A123H         LINE#         894
  C:A123H         LINE#         895
  C:A123H         LINE#         896
  C:A125H         LINE#         897
  C:A12CH         LINE#         898
  C:A12CH         LINE#         900
  C:A132H         LINE#         902
  C:A132H         LINE#         903
  C:A134H         LINE#         904
  C:A13BH         LINE#         906
  C:A13BH         LINE#         907
  C:A144H         LINE#         908
  C:A14AH         LINE#         909
  C:A14CH         LINE#         911
  C:A14CH         LINE#         912
  C:A151H         LINE#         913
  C:A151H         LINE#         914
  C:A156H         LINE#         915
  -------         ENDPROC       RESPONDE_ESTADO_SENSORES_TRANSPORTE
  -------         PROC          RESPONDE_TIPO_TARJETA
  -------         DO            
  X:0003H         SYMBOL        Estado_expedidor
  -------         ENDDO         
BL51 BANKED LINKER/LOCATER V6.22.2.0                                                  10/01/2020  09:24:10  PAGE 108


  C:A243H         LINE#         931
  C:A243H         LINE#         932
  C:A243H         LINE#         935
  C:A24CH         LINE#         937
  C:A254H         LINE#         938
  C:A254H         LINE#         939
  C:A259H         LINE#         940
  C:A259H         LINE#         941
  C:A262H         LINE#         942
  C:A268H         LINE#         943
  C:A268H         LINE#         944
  C:A26BH         LINE#         945
  C:A26DH         LINE#         947
  C:A26DH         LINE#         948
  C:A270H         LINE#         949
  C:A270H         LINE#         950
  C:A272H         LINE#         952
  C:A272H         LINE#         953
  C:A279H         LINE#         954
  C:A279H         LINE#         955
  C:A27FH         LINE#         956
  C:A27FH         LINE#         957
  C:A27FH         LINE#         959
  C:A27FH         LINE#         961
  C:A281H         LINE#         963
  C:A281H         LINE#         964
  C:A281H         LINE#         965
  C:A281H         LINE#         966
  C:A281H         LINE#         967
  C:A281H         LINE#         968
  C:A283H         LINE#         970
  C:A283H         LINE#         971
  C:A28AH         LINE#         972
  C:A28AH         LINE#         973
  C:A293H         LINE#         975
  C:A298H         LINE#         976
  C:A29DH         LINE#         978
  C:A2A5H         LINE#         981
  C:A2A7H         LINE#         983
  C:A2A7H         LINE#         984
  C:A2A9H         LINE#         985
  C:A2AEH         LINE#         986
  C:A2AEH         LINE#         987
  C:A2AEH         LINE#         989
  C:A2B3H         LINE#         990
  -------         ENDPROC       RESPONDE_TIPO_TARJETA
  -------         PROC          _RESPONDE_LECTURA_TARJETA_SECTOR1_BLOQUE1
  X:0003H         SYMBOL        Atributos_Expedidor
  -------         DO            
  D:0007H         SYMBOL        temp
  X:0006H         SYMBOL        Estado_expedidor
  X:0007H         SYMBOL        buffer_S1_B1
  X:0018H         SYMBOL        ID_CLIENTE
  D:0007H         SYMBOL        COD_PARK
  X:00BBH         SYMBOL        falla
  -------         ENDDO         
  C:52D6H         LINE#         1002
BL51 BANKED LINKER/LOCATER V6.22.2.0                                                  10/01/2020  09:24:10  PAGE 109


  C:52E1H         LINE#         1003
  C:52E1H         LINE#         1010
  C:52EAH         LINE#         1014
  C:52FAH         LINE#         1015
  C:52FAH         LINE#         1017
  C:5306H         LINE#         1018
  C:5306H         LINE#         1019
  C:531EH         LINE#         1021
  C:5321H         LINE#         1024
  C:532AH         LINE#         1025
  C:533BH         LINE#         1026
  C:5348H         LINE#         1027
  C:5351H         LINE#         1030
  C:5370H         LINE#         1031
  C:5370H         LINE#         1033
  C:5379H         LINE#         1034
  C:5381H         LINE#         1035
  C:538AH         LINE#         1037
  C:5393H         LINE#         1038
  C:539BH         LINE#         1039
  C:53A4H         LINE#         1041
  C:53ADH         LINE#         1042
  C:53B5H         LINE#         1043
  C:53BEH         LINE#         1045
  C:53C7H         LINE#         1046
  C:53CFH         LINE#         1047
  C:53D8H         LINE#         1049
  C:53E1H         LINE#         1050
  C:53E9H         LINE#         1051
  C:53F2H         LINE#         1053
  C:5409H         LINE#         1055
  C:5413H         LINE#         1056
  C:541DH         LINE#         1057
  C:5427H         LINE#         1059
  C:542CH         LINE#         1060
  C:543FH         LINE#         1061
  C:5444H         LINE#         1062
  C:544AH         LINE#         1064
  C:544CH         LINE#         1066
  C:544CH         LINE#         1067
  C:5451H         LINE#         1068
  C:545AH         LINE#         1069
  C:545FH         LINE#         1070
  C:5461H         LINE#         1071
  C:5461H         LINE#         1072
  C:5461H         LINE#         1073
  C:5463H         LINE#         1075
  C:5463H         LINE#         1077
  C:546BH         LINE#         1078
  C:546BH         LINE#         1079
  C:5471H         LINE#         1080
  C:5471H         LINE#         1081
  C:547EH         LINE#         1083
  C:547EH         LINE#         1084
  C:5487H         LINE#         1085
  C:548DH         LINE#         1087
  C:548FH         LINE#         1089
BL51 BANKED LINKER/LOCATER V6.22.2.0                                                  10/01/2020  09:24:10  PAGE 110


  C:548FH         LINE#         1090
  C:5494H         LINE#         1091
  C:549DH         LINE#         1092
  C:54A2H         LINE#         1093
  C:54A7H         LINE#         1094
  C:54AFH         LINE#         1095
  C:54AFH         LINE#         1096
  C:54AFH         LINE#         1098
  C:54B4H         LINE#         1099
  -------         ENDPROC       _RESPONDE_LECTURA_TARJETA_SECTOR1_BLOQUE1
  -------         PROC          _RESPONDE_LECTURA_TARJETA_SECTOR1_BLOQUE2
  X:0003H         SYMBOL        Atributos_Expedidor
  -------         DO            
  D:0007H         SYMBOL        temp
  X:0006H         SYMBOL        Estado_expedidor
  X:0007H         SYMBOL        buffer_S1_B2
  -------         ENDDO         
  C:66CDH         LINE#         1104
  C:66D8H         LINE#         1105
  C:66D8H         LINE#         1111
  C:66E1H         LINE#         1115
  C:66F1H         LINE#         1116
  C:66F1H         LINE#         1118
  C:66FDH         LINE#         1119
  C:66FDH         LINE#         1120
  C:6715H         LINE#         1121
  C:6718H         LINE#         1122
  C:6721H         LINE#         1123
  C:6732H         LINE#         1127
  C:673BH         LINE#         1128
  C:6748H         LINE#         1129
  C:6764H         LINE#         1130
  C:676DH         LINE#         1132
  C:6776H         LINE#         1134
  C:6792H         LINE#         1135
  C:679CH         LINE#         1136
  C:67A5H         LINE#         1139
  C:67AEH         LINE#         1140
  C:67B6H         LINE#         1141
  C:67BFH         LINE#         1145
  C:67D6H         LINE#         1148
  C:67E2H         LINE#         1149
  C:67E8H         LINE#         1152
  C:67EAH         LINE#         1154
  C:67EAH         LINE#         1155
  C:67F2H         LINE#         1156
  C:67F2H         LINE#         1157
  C:67F7H         LINE#         1158
  -------         ENDPROC       _RESPONDE_LECTURA_TARJETA_SECTOR1_BLOQUE2
  -------         PROC          _RESPONDE_LECTURA_TARJETA_SECTOR1_BLOQUE0
  X:0003H         SYMBOL        Nombre_Mensual
  -------         DO            
  D:0007H         SYMBOL        temp
  X:0006H         SYMBOL        Estado_expedidor
  -------         ENDDO         
  C:9226H         LINE#         1160
  C:9231H         LINE#         1161
BL51 BANKED LINKER/LOCATER V6.22.2.0                                                  10/01/2020  09:24:10  PAGE 111


  C:9231H         LINE#         1167
  C:923AH         LINE#         1171
  C:9247H         LINE#         1172
  C:9247H         LINE#         1174
  C:9253H         LINE#         1175
  C:9253H         LINE#         1176
  C:9273H         LINE#         1177
  C:9276H         LINE#         1178
  C:928AH         LINE#         1179
  C:9293H         LINE#         1180
  C:92A1H         LINE#         1181
  C:92AAH         LINE#         1182
  C:92B0H         LINE#         1185
  C:92B2H         LINE#         1187
  C:92B2H         LINE#         1188
  C:92BAH         LINE#         1189
  C:92BAH         LINE#         1190
  C:92BFH         LINE#         1191
  -------         ENDPROC       _RESPONDE_LECTURA_TARJETA_SECTOR1_BLOQUE0
  -------         PROC          _RESPONDE_WRITE_TARJETA_SECTOR1_BLOQUE2
  X:0003H         SYMBOL        Atributos_Expedidor
  X:0006H         SYMBOL        Buffer_Write_MF
  -------         DO            
  X:0009H         SYMBOL        Estado_expedidor
  -------         ENDDO         
  C:991BH         LINE#         1192
  C:9926H         LINE#         1193
  C:9926H         LINE#         1195
  C:992FH         LINE#         1196
  C:9938H         LINE#         1197
  C:994EH         LINE#         1198
  C:995EH         LINE#         1199
  C:995EH         LINE#         1200
  C:9961H         LINE#         1201
  C:9973H         LINE#         1202
  C:9981H         LINE#         1203
  C:9987H         LINE#         1204
  C:9989H         LINE#         1206
  C:9989H         LINE#         1207
  C:998CH         LINE#         1208
  C:999EH         LINE#         1209
  C:99A4H         LINE#         1211
  C:99A4H         LINE#         1212
  C:99A9H         LINE#         1213
  -------         ENDPROC       _RESPONDE_WRITE_TARJETA_SECTOR1_BLOQUE2
  -------         PROC          _RESPONDE_WRITE_TARJETA_SECTOR1_BLOQUE0
  X:0003H         SYMBOL        Buffer_Write_MF
  C:AF36H         LINE#         1216
  C:AF41H         LINE#         1217
  C:AF41H         LINE#         1219
  C:AF4AH         LINE#         1220
  C:AF53H         LINE#         1221
  C:AF69H         LINE#         1223
  C:AF6BH         LINE#         1224
  -------         ENDPROC       _RESPONDE_WRITE_TARJETA_SECTOR1_BLOQUE0
  -------         PROC          _PREGUNTA_LPR
  X:0003H         SYMBOL        Atributos_Expedidor
BL51 BANKED LINKER/LOCATER V6.22.2.0                                                  10/01/2020  09:24:10  PAGE 112


  -------         DO            
  X:0006H         SYMBOL        Estado_expedidor
  -------         ENDDO         
  C:A52DH         LINE#         1227
  C:A538H         LINE#         1228
  C:A538H         LINE#         1230
  C:A546H         LINE#         1231
  C:A546H         LINE#         1233
  C:A557H         LINE#         1234
  C:A563H         LINE#         1235
  C:A563H         LINE#         1236
  C:A567H         LINE#         1237
  C:A567H         LINE#         1238
  C:A567H         LINE#         1240
  C:A576H         LINE#         1241
  C:A576H         LINE#         1243
  C:A579H         LINE#         1244
  C:A57EH         LINE#         1245
  C:A583H         LINE#         1246
  C:A585H         LINE#         1248
  C:A585H         LINE#         1249
  C:A588H         LINE#         1250
  C:A588H         LINE#         1251
  C:A58DH         LINE#         1252
  -------         ENDPROC       _PREGUNTA_LPR
  -------         PROC          _RESPONDE_WRITE_TARJETA_SECTOR2_BLOQUE0
  X:0003H         SYMBOL        Buffer_Write_MF
  C:A9FFH         LINE#         1255
  C:AA0AH         LINE#         1256
  C:AA0AH         LINE#         1258
  C:AA13H         LINE#         1259
  C:AA1CH         LINE#         1260
  C:AA25H         LINE#         1261
  C:AA2EH         LINE#         1262
  C:AA43H         LINE#         1263
  C:AA45H         LINE#         1264
  -------         ENDPROC       _RESPONDE_WRITE_TARJETA_SECTOR2_BLOQUE0
  -------         PROC          _RESPUESTA_SEGUNDA_CLAVE
  X:0003H         SYMBOL        Atributos_Expedidor
  X:0006H         SYMBOL        Buffer_Write_MF
  C:A5ECH         LINE#         1265
  C:A5F7H         LINE#         1266
  C:A5F7H         LINE#         1267
  C:A600H         LINE#         1268
  C:A616H         LINE#         1269
  C:A626H         LINE#         1270
  C:A638H         LINE#         1271
  C:A646H         LINE#         1272
  C:A648H         LINE#         1273
  -------         ENDPROC       _RESPUESTA_SEGUNDA_CLAVE
  -------         PROC          _ARMAR_TRAMA_TARJETA_SECTOR1_BLOQUE2
  X:0011H         SYMBOL        Atributos_Expedidor
  X:0014H         SYMBOL        Buffer_Write_MF
  C:6099H         LINE#         1285
  C:60A4H         LINE#         1286
  C:60A4H         LINE#         1290
  C:60B0H         LINE#         1294
BL51 BANKED LINKER/LOCATER V6.22.2.0                                                  10/01/2020  09:24:10  PAGE 113


  C:60C2H         LINE#         1295
  C:60C9H         LINE#         1296
  C:60D0H         LINE#         1298
  C:60E5H         LINE#         1299
  C:60E5H         LINE#         1300
  C:60FCH         LINE#         1301
  C:6115H         LINE#         1302
  C:6115H         LINE#         1303
  C:6118H         LINE#         1307
  C:6118H         LINE#         1309
  C:6147H         LINE#         1310
  C:6176H         LINE#         1312
  C:618EH         LINE#         1313
  C:618EH         LINE#         1314
  C:619BH         LINE#         1315
  C:619DH         LINE#         1317
  C:619DH         LINE#         1318
  C:61ADH         LINE#         1319
  C:61ADH         LINE#         1320
  C:61ADH         LINE#         1322
  C:61BFH         LINE#         1323
  C:61C6H         LINE#         1324
  C:61CDH         LINE#         1325
  C:61D4H         LINE#         1326
  -------         ENDPROC       _ARMAR_TRAMA_TARJETA_SECTOR1_BLOQUE2
  -------         PROC          _ARMAR_TRAMA_TARJETA_SECTOR1_BLOQUE0
  X:000AH         SYMBOL        Buffer_Write_MF
  C:B13EH         LINE#         1328
  C:B149H         LINE#         1329
  C:B149H         LINE#         1331
  -------         ENDPROC       _ARMAR_TRAMA_TARJETA_SECTOR1_BLOQUE0
  -------         PROC          _ARMAR_TRAMA_PTO_PARALELO_EXPEDIDOR
  X:0007H         SYMBOL        h
  -------         DO            
  X:00BCH         SYMBOL        buffer
  X:000AH         SYMBOL        ticket
  X:0015H         SYMBOL        j
  -------         ENDDO         
  C:5668H         LINE#         1333
  C:5673H         LINE#         1334
  C:5673H         LINE#         1341
  C:5679H         LINE#         1342
  C:567DH         LINE#         1343
  C:5680H         LINE#         1344
  C:568CH         LINE#         1345
  C:56A3H         LINE#         1346
  C:56B1H         LINE#         1348
  C:56C2H         LINE#         1350
  C:56D2H         LINE#         1351
  C:56E4H         LINE#         1352
  C:56F2H         LINE#         1353
  C:5700H         LINE#         1354
  C:570EH         LINE#         1355
  C:571CH         LINE#         1356
  C:5729H         LINE#         1358
  C:5738H         LINE#         1359
  C:5738H         LINE#         1360
BL51 BANKED LINKER/LOCATER V6.22.2.0                                                  10/01/2020  09:24:10  PAGE 114


  C:573BH         LINE#         1361
  C:573BH         LINE#         1362
  C:574FH         LINE#         1363
  C:575EH         LINE#         1364
  C:576DH         LINE#         1365
  C:577CH         LINE#         1366
  C:578BH         LINE#         1367
  C:579AH         LINE#         1368
  C:57A2H         LINE#         1369
  C:57A4H         LINE#         1371
  C:57A4H         LINE#         1372
  C:57B5H         LINE#         1373
  C:57BDH         LINE#         1374
  C:57BDH         LINE#         1375
  C:57BFH         LINE#         1377
  C:57BFH         LINE#         1378
  C:57D0H         LINE#         1379
  C:57DCH         LINE#         1380
  C:57DCH         LINE#         1381
  C:57EAH         LINE#         1382
  C:57F8H         LINE#         1383
  C:580AH         LINE#         1385
  C:5810H         LINE#         1386
  -------         ENDPROC       _ARMAR_TRAMA_PTO_PARALELO_EXPEDIDOR
  -------         PROC          _ARMAR_TRAMA_PTO_PARALELO_EXPEDIDOR_MENSUAL
  X:0007H         SYMBOL        Atributos_Expedidor
  X:000AH         SYMBOL        j
  -------         DO            
  X:00D8H         SYMBOL        buffer
  -------         ENDDO         
  C:7FD4H         LINE#         1387
  C:7FDFH         LINE#         1388
  C:7FDFH         LINE#         1394
  C:7FE5H         LINE#         1395
  C:7FE9H         LINE#         1396
  C:7FFEH         LINE#         1397
  C:8008H         LINE#         1398
  C:8012H         LINE#         1399
  C:801CH         LINE#         1402
  C:8025H         LINE#         1403
  C:802CH         LINE#         1404
  C:8031H         LINE#         1405
  C:8036H         LINE#         1406
  C:803BH         LINE#         1407
  C:8040H         LINE#         1410
  C:804CH         LINE#         1411
  C:804CH         LINE#         1413
  C:8053H         LINE#         1414
  C:8057H         LINE#         1415
  C:805BH         LINE#         1416
  C:805FH         LINE#         1417
  C:8063H         LINE#         1418
  C:8067H         LINE#         1420
  C:8067H         LINE#         1422
  C:807DH         LINE#         1423
  C:807DH         LINE#         1424
  C:8080H         LINE#         1425
BL51 BANKED LINKER/LOCATER V6.22.2.0                                                  10/01/2020  09:24:10  PAGE 115


  C:8082H         LINE#         1427
  C:8082H         LINE#         1428
  C:8085H         LINE#         1429
  C:8085H         LINE#         1431
  C:808BH         LINE#         1432
  C:808EH         LINE#         1433
  C:809EH         LINE#         1434
  C:80A4H         LINE#         1435
  -------         ENDPROC       _ARMAR_TRAMA_PTO_PARALELO_EXPEDIDOR_MENSUAL
  -------         PROC          _ARMAR_TRAMA_MONITOR
  X:0007H         SYMBOL        Atributos_Expedidor
  -------         DO            
  X:00F4H         SYMBOL        buffer
  X:000AH         SYMBOL        ticket
  X:0015H         SYMBOL        j
  -------         ENDDO         
  C:5E00H         LINE#         1436
  C:5E0BH         LINE#         1437
  C:5E0BH         LINE#         1443
  C:5E10H         LINE#         1444
  C:5E16H         LINE#         1445
  C:5E1EH         LINE#         1446
  C:5E22H         LINE#         1447
  C:5E2BH         LINE#         1448
  C:5E2BH         LINE#         1449
  C:5E2EH         LINE#         1450
  C:5E30H         LINE#         1452
  C:5E30H         LINE#         1453
  C:5E33H         LINE#         1454
  C:5E33H         LINE#         1457
  C:5E36H         LINE#         1458
  C:5E36H         LINE#         1459
  C:5E3BH         LINE#         1460
  C:5E47H         LINE#         1461
  C:5E5EH         LINE#         1462
  C:5E61H         LINE#         1464
  C:5E61H         LINE#         1465
  C:5E7CH         LINE#         1466
  C:5E8AH         LINE#         1467
  C:5E98H         LINE#         1468
  C:5EA4H         LINE#         1469
  C:5EB2H         LINE#         1470
  C:5EEBH         LINE#         1472
  C:5EEBH         LINE#         1473
  C:5EF9H         LINE#         1474
  C:5F07H         LINE#         1477
  C:5F14H         LINE#         1478
  C:5F22H         LINE#         1480
  C:5F30H         LINE#         1481
  C:5F3DH         LINE#         1482
  C:5F49H         LINE#         1483
  C:5F4EH         LINE#         1484
  C:5F53H         LINE#         1485
  -------         ENDPROC       _ARMAR_TRAMA_MONITOR
  -------         PROC          _ARMAR_TRAMA_PLACA
  X:0009H         SYMBOL        Buffer_Write_MF
  -------         DO            
BL51 BANKED LINKER/LOCATER V6.22.2.0                                                  10/01/2020  09:24:10  PAGE 116


  D:0007H         SYMBOL        j
  -------         ENDDO         
  C:A6FAH         LINE#         1486
  C:A705H         LINE#         1487
  C:A705H         LINE#         1490
  C:A711H         LINE#         1491
  C:A711H         LINE#         1492
  C:A72BH         LINE#         1493
  C:A72EH         LINE#         1494
  C:A73AH         LINE#         1495
  C:A73AH         LINE#         1496
  C:A74EH         LINE#         1497
  C:A751H         LINE#         1498
  -------         ENDPROC       _ARMAR_TRAMA_PLACA
  C:AD9AH         SYMBOL        L?0361
  C:ADA3H         SYMBOL        L?0362
  -------         PROC          L?0360
  -------         ENDPROC       L?0360
  C:AD9AH         SYMBOL        L?0361
  C:ADA3H         SYMBOL        L?0362
  -------         PROC          _LOAD_SECUENCIA_EXPEDIDOR
  D:0001H         SYMBOL        Secuencia_Expedidor
  D:0004H         SYMBOL        estadoactivo
  X:000DH         SYMBOL        estadoactual
  X:000FH         SYMBOL        estadofuturo
  C:ADB6H         LINE#         1499
  C:ADB6H         LINE#         1500
  C:ADB6H         LINE#         1501
  C:ADBDH         LINE#         1502
  C:ADC5H         LINE#         1503
  C:ADD0H         LINE#         1504
  C:ADD6H         LINE#         1505
  -------         ENDPROC       _LOAD_SECUENCIA_EXPEDIDOR
  -------         PROC          _DISPARO_LOCK_ENTRADA_VEHICULO
  X:0003H         SYMBOL        Nombre_Mensual
  -------         DO            
  X:0006H         SYMBOL        Estado_expedidor
  -------         ENDDO         
  C:A465H         LINE#         1506
  C:A470H         LINE#         1507
  C:A470H         LINE#         1509
  C:A479H         LINE#         1511
  C:A47EH         LINE#         1513
  C:A485H         LINE#         1514
  C:A485H         LINE#         1515
  C:A48EH         LINE#         1516
  C:A490H         LINE#         1517
  C:A495H         LINE#         1518
  C:A4A5H         LINE#         1519
  C:A4ABH         LINE#         1522
  C:A4ADH         LINE#         1523
  C:A4B4H         LINE#         1524
  C:A4B4H         LINE#         1525
  C:A4BDH         LINE#         1526
  C:A4BDH         LINE#         1527
  C:A4C0H         LINE#         1528
  C:A4C2H         LINE#         1530
BL51 BANKED LINKER/LOCATER V6.22.2.0                                                  10/01/2020  09:24:10  PAGE 117


  C:A4C2H         LINE#         1531
  C:A4C5H         LINE#         1532
  C:A4C5H         LINE#         1534
  C:A4C5H         LINE#         1535
  C:A4CAH         LINE#         1536
  -------         ENDPROC       _DISPARO_LOCK_ENTRADA_VEHICULO
  -------         PROC          _SEND_PTO_PARALELO
  D:0001H         SYMBOL        Atributos_Expedidor
  -------         DO            
  X:0003H         SYMBOL        Trama_Expedidor
  X:0006H         SYMBOL        leng_trama_pto
  -------         ENDDO         
  C:9CDBH         LINE#         1537
  C:9CDBH         LINE#         1538
  C:9CDBH         LINE#         1541
  C:9CDEH         LINE#         1542
  C:9CDEH         LINE#         1543
  C:9CFAH         LINE#         1544
  C:9CFCH         LINE#         1546
  C:9CFCH         LINE#         1547
  C:9D10H         LINE#         1548
  C:9D13H         LINE#         1549
  C:9D13H         LINE#         1551
  C:9D24H         LINE#         1552
  C:9D2DH         LINE#         1553
  C:9D43H         LINE#         1554
  C:9D4CH         LINE#         1557
  C:9D4FH         LINE#         1558
  C:9D55H         LINE#         1559
  C:9D5AH         LINE#         1560
  C:9D5CH         LINE#         1561
  -------         ENDPROC       _SEND_PTO_PARALELO
  -------         PROC          ENTREGA_CARD_CAPTURA
  -------         DO            
  X:0003H         SYMBOL        Estado_expedidor
  -------         ENDDO         
  C:A157H         LINE#         1565
  C:A157H         LINE#         1566
  C:A157H         LINE#         1570
  C:A160H         LINE#         1571
  C:A163H         LINE#         1572
  C:A166H         LINE#         1573
  C:A166H         LINE#         1574
  C:A170H         LINE#         1575
  C:A170H         LINE#         1576
  C:A172H         LINE#         1577
  C:A17BH         LINE#         1578
  C:A17BH         LINE#         1579
  C:A17BH         LINE#         1581
  C:A17DH         LINE#         1583
  C:A17DH         LINE#         1584
  C:A183H         LINE#         1585
  C:A183H         LINE#         1587
  C:A189H         LINE#         1589
  C:A19CH         LINE#         1590
  C:A19CH         LINE#         1591
  C:A1ACH         LINE#         1592
BL51 BANKED LINKER/LOCATER V6.22.2.0                                                  10/01/2020  09:24:10  PAGE 118


  C:A1ACH         LINE#         1593
  C:A1AEH         LINE#         1594
  C:A1AEH         LINE#         1595
  C:A1B0H         LINE#         1596
  C:A1BBH         LINE#         1597
  C:A1BBH         LINE#         1598
  C:A1C1H         LINE#         1599
  C:A1C1H         LINE#         1600
  C:A1C1H         LINE#         1602
  C:A1C3H         LINE#         1604
  C:A1C3H         LINE#         1605
  C:A1C5H         LINE#         1606
  C:A1CAH         LINE#         1607
  C:A1CAH         LINE#         1608
  C:A1CAH         LINE#         1610
  C:A1CFH         LINE#         1611
  -------         ENDPROC       ENTREGA_CARD_CAPTURA
  -------         PROC          _WAIT_PLACA
  X:0003H         SYMBOL        secuencia_expedidor
  X:0006H         SYMBOL        estadoactivo
  -------         DO            
  X:0007H         SYMBOL        Estado_expedidor
  -------         ENDDO         
  C:90E6H         LINE#         1612
  C:90F4H         LINE#         1613
  C:90F4H         LINE#         1617
  C:910AH         LINE#         1618
  C:910AH         LINE#         1619
  C:910DH         LINE#         1620
  C:910DH         LINE#         1622
  C:9110H         LINE#         1623
  C:9110H         LINE#         1624
  C:9112H         LINE#         1626
  C:9115H         LINE#         1627
  C:9115H         LINE#         1628
  C:9118H         LINE#         1629
  C:912CH         LINE#         1630
  C:913FH         LINE#         1631
  C:9141H         LINE#         1633
  C:9141H         LINE#         1634
  C:9147H         LINE#         1635
  C:915AH         LINE#         1636
  C:915AH         LINE#         1637
  C:916AH         LINE#         1638
  C:916AH         LINE#         1639
  C:9170H         LINE#         1640
  C:9172H         LINE#         1641
  C:917DH         LINE#         1642
  C:917DH         LINE#         1643
  C:9183H         LINE#         1644
  C:9183H         LINE#         1645
  C:9183H         LINE#         1646
  C:9183H         LINE#         1647
  C:9188H         LINE#         1648
  -------         ENDPROC       _WAIT_PLACA
  -------         PROC          _VALIDA_VEHICULO_CARD_MENSUAL
  X:0011H         SYMBOL        Atributos_Expedidor
BL51 BANKED LINKER/LOCATER V6.22.2.0                                                  10/01/2020  09:24:10  PAGE 119


  -------         DO            
  X:0014H         SYMBOL        Estado_expedidor
  -------         ENDDO         
  C:948CH         LINE#         1649
  C:9497H         LINE#         1650
  C:9497H         LINE#         1653
  C:94A0H         LINE#         1654
  C:94B5H         LINE#         1655
  C:94B5H         LINE#         1656
  C:94B9H         LINE#         1657
  C:94BBH         LINE#         1659
  C:94BBH         LINE#         1660
  C:94C2H         LINE#         1661
  C:94C2H         LINE#         1663
  C:94CBH         LINE#         1664
  C:94D9H         LINE#         1665
  C:94D9H         LINE#         1666
  C:94F2H         LINE#         1667
  C:94F2H         LINE#         1668
  C:94F8H         LINE#         1669
  C:94F8H         LINE#         1670
  C:94FAH         LINE#         1673
  C:94FAH         LINE#         1674
  C:94FFH         LINE#         1675
  C:9508H         LINE#         1676
  C:950DH         LINE#         1677
  C:950DH         LINE#         1678
  C:950FH         LINE#         1680
  C:950FH         LINE#         1681
  C:9518H         LINE#         1682
  C:951EH         LINE#         1683
  C:951EH         LINE#         1684
  C:9523H         LINE#         1685
  -------         ENDPROC       _VALIDA_VEHICULO_CARD_MENSUAL
  -------         PROC          _TARJETA_MENSUAL
  X:000AH         SYMBOL        Atributos_Expedidor
  X:000DH         SYMBOL        Buffer_Write_MF
  -------         DO            
  X:0010H         SYMBOL        Estado_expedidor
  -------         ENDDO         
  C:862EH         LINE#         1686
  C:8639H         LINE#         1687
  C:8639H         LINE#         1692
  C:8644H         LINE#         1693
  C:8644H         LINE#         1694
  C:8662H         LINE#         1695
  C:8662H         LINE#         1697
  C:8673H         LINE#         1698
  C:8673H         LINE#         1699
  C:867BH         LINE#         1700
  C:867DH         LINE#         1702
  C:867DH         LINE#         1703
  C:8686H         LINE#         1704
  C:8696H         LINE#         1705
  C:86A9H         LINE#         1706
  C:86C9H         LINE#         1707
  C:86CFH         LINE#         1708
BL51 BANKED LINKER/LOCATER V6.22.2.0                                                  10/01/2020  09:24:10  PAGE 120


  C:86CFH         LINE#         1709
  C:86D1H         LINE#         1711
  C:86D1H         LINE#         1712
  C:86D6H         LINE#         1714
  C:86DBH         LINE#         1715
  C:86E4H         LINE#         1716
  C:86E4H         LINE#         1717
  C:86E4H         LINE#         1718
  C:86E6H         LINE#         1720
  C:86E6H         LINE#         1722
  C:86ECH         LINE#         1723
  C:86ECH         LINE#         1724
  C:86F1H         LINE#         1725
  -------         ENDPROC       _TARJETA_MENSUAL
  -------         PROC          _TARJETA_ROTACION
  D:0001H         SYMBOL        Atributos_Expedidor
  X:000DH         SYMBOL        Buffer_Write_MF
  C:B039H         LINE#         1726
  C:B039H         LINE#         1727
  C:B039H         LINE#         1728
  C:B03EH         LINE#         1729
  C:B047H         LINE#         1730
  C:B067H         LINE#         1731
  C:B069H         LINE#         1734
  -------         ENDPROC       _TARJETA_ROTACION
  -------         PROC          _VALIDA_TIPO_TARJETA
  X:0003H         SYMBOL        Atributos_Expedidor
  X:0006H         SYMBOL        Buffer_Write_MF
  -------         DO            
  X:0009H         SYMBOL        Estado_expedidor
  -------         ENDDO         
  C:5811H         LINE#         1735
  C:581CH         LINE#         1736
  C:581CH         LINE#         1738
  C:5829H         LINE#         1739
  C:5829H         LINE#         1740
  C:5832H         LINE#         1741
  C:5838H         LINE#         1742
  C:5838H         LINE#         1747
  C:5846H         LINE#         1748
  C:5846H         LINE#         1751
  C:5863H         LINE#         1752
  C:5863H         LINE#         1753
  C:5880H         LINE#         1755
  C:5882H         LINE#         1757
  C:5882H         LINE#         1758
  C:588BH         LINE#         1759
  C:588DH         LINE#         1761
  C:588DH         LINE#         1762
  C:588DH         LINE#         1763
  C:5890H         LINE#         1766
  C:5890H         LINE#         1767
  C:5899H         LINE#         1769
  C:58BCH         LINE#         1770
  C:58BCH         LINE#         1771
  C:58BFH         LINE#         1773
  C:58BFH         LINE#         1774
BL51 BANKED LINKER/LOCATER V6.22.2.0                                                  10/01/2020  09:24:10  PAGE 121


  C:58C4H         LINE#         1775
  C:58C9H         LINE#         1776
  C:58CCH         LINE#         1777
  C:58CCH         LINE#         1778
  C:58CFH         LINE#         1779
  C:58E7H         LINE#         1780
  C:58E7H         LINE#         1782
  C:58F0H         LINE#         1783
  C:58F6H         LINE#         1784
  C:58F6H         LINE#         1785
  C:5902H         LINE#         1786
  C:5902H         LINE#         1787
  C:591FH         LINE#         1789
  C:591FH         LINE#         1790
  C:593FH         LINE#         1791
  C:5941H         LINE#         1793
  C:5941H         LINE#         1794
  C:594AH         LINE#         1795
  C:594FH         LINE#         1796
  C:5954H         LINE#         1797
  C:5957H         LINE#         1798
  C:5957H         LINE#         1799
  C:5959H         LINE#         1801
  C:5959H         LINE#         1802
  C:5962H         LINE#         1803
  C:5985H         LINE#         1804
  C:5985H         LINE#         1805
  C:5987H         LINE#         1807
  C:5987H         LINE#         1808
  C:598CH         LINE#         1809
  C:5991H         LINE#         1810
  C:5994H         LINE#         1811
  C:5994H         LINE#         1812
  C:5996H         LINE#         1814
  C:5996H         LINE#         1815
  C:599FH         LINE#         1816
  C:59A4H         LINE#         1818
  C:59ACH         LINE#         1819
  C:59ACH         LINE#         1821
  C:59B1H         LINE#         1822
  -------         ENDPROC       _VALIDA_TIPO_TARJETA
  -------         PROC          _HORARIOS
  X:0011H         SYMBOL        Atributos_Expedidor
  -------         DO            
  X:0014H         SYMBOL        Estado_Horario
  X:0015H         SYMBOL        Addr_horarios
  X:0020H         SYMBOL        dia_semana
  X:0021H         SYMBOL        EE_dia_semana
  X:0022H         SYMBOL        addr
  -------         ENDDO         
  C:6EADH         LINE#         1916
  C:6EB8H         LINE#         1917
  C:6EB8H         LINE#         1923
  C:6EC3H         LINE#         1924
  C:6EC3H         LINE#         1926
  C:6ECFH         LINE#         1928
  C:6EF5H         LINE#         1932
BL51 BANKED LINKER/LOCATER V6.22.2.0                                                  10/01/2020  09:24:10  PAGE 122


  C:6F08H         LINE#         1933
  C:6F08H         LINE#         1935
  C:6F12H         LINE#         1936
  C:6F1BH         LINE#         1937
  C:6F23H         LINE#         1938
  C:6F2CH         LINE#         1941
  C:6F51H         LINE#         1942
  C:6F5AH         LINE#         1943
  C:6F62H         LINE#         1944
  C:6F6BH         LINE#         1946
  C:6F75H         LINE#         1947
  C:6F75H         LINE#         1949
  C:6F83H         LINE#         1950
  C:6F85H         LINE#         1952
  C:6F85H         LINE#         1954
  C:6F8EH         LINE#         1955
  C:6F93H         LINE#         1956
  C:6F93H         LINE#         1957
  C:6F95H         LINE#         1959
  C:6F95H         LINE#         1961
  C:6F9AH         LINE#         1962
  C:6F9FH         LINE#         1963
  C:6FA5H         LINE#         1965
  C:6FA5H         LINE#         1967
  C:6FA7H         LINE#         1969
  C:6FA7H         LINE#         1970
  C:6FADH         LINE#         1972
  C:6FB6H         LINE#         1973
  C:6FB6H         LINE#         1974
  C:6FBBH         LINE#         1975
  -------         ENDPROC       _HORARIOS
  -------         PROC          _HORA_MAXIMA
  X:0030H         SYMBOL        addr
  -------         DO            
  X:0032H         SYMBOL        Hora_High
  X:0033H         SYMBOL        Minuto_High
  X:0034H         SYMBOL        HoraIni
  X:0035H         SYMBOL        MinutoIni
  X:0036H         SYMBOL        Hora_Prog
  -------         ENDDO         
  C:8E41H         LINE#         1976
  C:8E49H         LINE#         1977
  C:8E49H         LINE#         1982
  C:8E5EH         LINE#         1983
  C:8E7EH         LINE#         1984
  C:8E9BH         LINE#         1985
  C:8EBBH         LINE#         1986
  C:8EC3H         LINE#         1987
  C:8ECBH         LINE#         1988
  C:8ED4H         LINE#         1990
  C:8EECH         LINE#         1991
  -------         ENDPROC       _HORA_MAXIMA
  -------         PROC          _EN_HORARIO
  X:002BH         SYMBOL        HoraNow
  D:0004H         SYMBOL        Hora_Prog
  X:002DH         SYMBOL        addr
  -------         DO            
BL51 BANKED LINKER/LOCATER V6.22.2.0                                                  10/01/2020  09:24:10  PAGE 123


  X:002FH         SYMBOL        Estado_Horario
  -------         ENDDO         
  C:A2B4H         LINE#         1992
  C:A2C2H         LINE#         1993
  C:A2C2H         LINE#         1996
  C:A2CFH         LINE#         1997
  C:A2CFH         LINE#         2000
  C:A2D8H         LINE#         2001
  C:A2EDH         LINE#         2004
  C:A2FCH         LINE#         2005
  C:A2FCH         LINE#         2007
  C:A303H         LINE#         2008
  C:A309H         LINE#         2009
  C:A30BH         LINE#         2011
  C:A30BH         LINE#         2014
  C:A30FH         LINE#         2015
  C:A30FH         LINE#         2016
  C:A30FH         LINE#         2018
  C:A311H         LINE#         2020
  C:A311H         LINE#         2023
  C:A31AH         LINE#         2024
  C:A31FH         LINE#         2026
  C:A31FH         LINE#         2027
  C:A324H         LINE#         2028
  -------         ENDPROC       _EN_HORARIO
  -------         PROC          _BLOQUE_HORARIO
  X:0024H         SYMBOL        addr
  -------         DO            
  X:0026H         SYMBOL        Estado_Horario
  X:0027H         SYMBOL        HoraNow
  X:0029H         SYMBOL        Hora_Prog
  -------         ENDDO         
  C:70C8H         LINE#         2030
  C:70D0H         LINE#         2031
  C:70D0H         LINE#         2037
  C:70D9H         LINE#         2038
  C:70E1H         LINE#         2039
  C:70E9H         LINE#         2040
  C:70F2H         LINE#         2041
  C:7120H         LINE#         2046
  C:7129H         LINE#         2047
  C:713EH         LINE#         2048
  C:7156H         LINE#         2049
  C:7158H         LINE#         2050
  C:7158H         LINE#         2053
  C:7170H         LINE#         2054
  C:7170H         LINE#         2055
  C:7179H         LINE#         2056
  C:7194H         LINE#         2057
  C:71B2H         LINE#         2058
  C:71B4H         LINE#         2060
  C:71B4H         LINE#         2061
  C:71B9H         LINE#         2062
  C:71BEH         LINE#         2063
  C:71C3H         LINE#         2064
  C:71C3H         LINE#         2065
  C:71C3H         LINE#         2067
BL51 BANKED LINKER/LOCATER V6.22.2.0                                                  10/01/2020  09:24:10  PAGE 124


  C:71CAH         LINE#         2068
  -------         ENDPROC       _BLOQUE_HORARIO
  -------         PROC          SECUENCIA_INICIO_EXPEDIDOR
  -------         DO            
  X:0002H         SYMBOL        temp
  -------         ENDDO         
  C:6458H         LINE#         2076
  C:6458H         LINE#         2077
  C:6458H         LINE#         2079
  C:6478H         LINE#         2080
  C:6478H         LINE#         2081
  C:6478H         LINE#         2084
  C:647DH         LINE#         2085
  C:6483H         LINE#         2088
  C:6485H         LINE#         2089
  C:6485H         LINE#         2100
  C:6485H         LINE#         2102
  C:6493H         LINE#         2103
  C:6493H         LINE#         2104
  C:649FH         LINE#         2105
  C:649FH         LINE#         2106
  C:64A5H         LINE#         2107
  C:64A8H         LINE#         2108
  C:64B0H         LINE#         2109
  C:64B0H         LINE#         2110
  C:64B7H         LINE#         2111
  C:64CBH         LINE#         2112
  C:64CBH         LINE#         2113
  C:64CDH         LINE#         2115
  C:64CDH         LINE#         2116
  C:64D4H         LINE#         2117
  C:64DAH         LINE#         2118
  C:64DAH         LINE#         2119
  C:64DDH         LINE#         2121
  C:64DDH         LINE#         2122
  C:64E6H         LINE#         2123
  C:64FAH         LINE#         2124
  C:6500H         LINE#         2125
  C:6500H         LINE#         2126
  C:6503H         LINE#         2127
  C:6503H         LINE#         2133
  C:6503H         LINE#         2135
  C:6506H         LINE#         2136
  C:650CH         LINE#         2140
  C:650EH         LINE#         2141
  C:650EH         LINE#         2151
  C:650EH         LINE#         2153
  C:651CH         LINE#         2154
  C:651CH         LINE#         2155
  C:6528H         LINE#         2156
  C:6528H         LINE#         2157
  C:652EH         LINE#         2158
  C:6530H         LINE#         2159
  C:6538H         LINE#         2160
  C:6538H         LINE#         2161
  C:653FH         LINE#         2162
  C:6553H         LINE#         2163
BL51 BANKED LINKER/LOCATER V6.22.2.0                                                  10/01/2020  09:24:10  PAGE 125


  C:6553H         LINE#         2164
  C:6555H         LINE#         2166
  C:6555H         LINE#         2167
  C:655CH         LINE#         2168
  C:6562H         LINE#         2169
  C:6562H         LINE#         2170
  C:6564H         LINE#         2172
  C:6564H         LINE#         2173
  C:656DH         LINE#         2174
  C:6581H         LINE#         2175
  C:6586H         LINE#         2176
  C:6586H         LINE#         2178
  C:6588H         LINE#         2179
  C:6588H         LINE#         2185
  C:6588H         LINE#         2187
  C:658EH         LINE#         2188
  C:658EH         LINE#         2191
  C:658EH         LINE#         2192
  C:6595H         LINE#         2193
  C:6595H         LINE#         2194
  C:6595H         LINE#         2195
  -------         ENDPROC       SECUENCIA_INICIO_EXPEDIDOR
  -------         PROC          _SECUENCIAEXPEDIDORMF
  X:0002H         SYMBOL        EstadoActivo
  -------         DO            
  X:010CH         SYMBOL        Buffer_Write_MF
  X:011DH         SYMBOL        Atributos_Expedidor
  X:012CH         SYMBOL        Secuencia_Expedidor
  X:0130H         SYMBOL        Nombre_Mensual
  -------         ENDDO         
  C:37B2H         LINE#         2205
  C:37B7H         LINE#         2206
  C:37B7H         LINE#         2212
  C:380EH         LINE#         2213
  C:380EH         LINE#         2216
  C:380EH         LINE#         2218
  C:3824H         LINE#         2219
  C:3824H         LINE#         2220
  C:3826H         LINE#         2221
  C:3828H         LINE#         2222
  C:382DH         LINE#         2223
  C:3835H         LINE#         2224
  C:383AH         LINE#         2226
  C:383AH         LINE#         2228
  C:383DH         LINE#         2230
  C:383DH         LINE#         2232
  C:3846H         LINE#         2234
  C:3849H         LINE#         2241
  C:3849H         LINE#         2242
  C:384FH         LINE#         2243
  C:3855H         LINE#         2244
  C:3855H         LINE#         2245
  C:3858H         LINE#         2247
  C:385BH         LINE#         2248
  C:3863H         LINE#         2249
  C:3863H         LINE#         2251
  C:3866H         LINE#         2252
BL51 BANKED LINKER/LOCATER V6.22.2.0                                                  10/01/2020  09:24:10  PAGE 126


  C:3869H         LINE#         2253
  C:3871H         LINE#         2254
  C:3871H         LINE#         2255
  C:387FH         LINE#         2256
  C:387FH         LINE#         2257
  C:3888H         LINE#         2258
  C:388BH         LINE#         2259
  C:3897H         LINE#         2260
  C:3897H         LINE#         2261
  C:38A0H         LINE#         2262
  C:38A3H         LINE#         2264
  C:38A3H         LINE#         2265
  C:38ACH         LINE#         2266
  C:38ACH         LINE#         2267
  C:38AFH         LINE#         2268
  C:38B7H         LINE#         2269
  C:38B7H         LINE#         2270
  C:38C5H         LINE#         2271
  C:38C5H         LINE#         2272
  C:38DBH         LINE#         2273
  C:38DEH         LINE#         2274
  C:38EAH         LINE#         2275
  C:38EAH         LINE#         2276
  C:38F3H         LINE#         2277
  C:38F6H         LINE#         2279
  C:38F6H         LINE#         2280
  C:38FFH         LINE#         2281
  C:38FFH         LINE#         2282
  C:3902H         LINE#         2283
  C:390AH         LINE#         2284
  C:390AH         LINE#         2285
  C:3913H         LINE#         2286
  C:3916H         LINE#         2287
  C:391EH         LINE#         2288
  C:391EH         LINE#         2289
  C:3934H         LINE#         2290
  C:3937H         LINE#         2291
  C:393FH         LINE#         2292
  C:393FH         LINE#         2293
  C:3942H         LINE#         2294
  C:3945H         LINE#         2296
  C:394DH         LINE#         2297
  C:394DH         LINE#         2298
  C:3956H         LINE#         2299
  C:3959H         LINE#         2301
  C:3959H         LINE#         2302
  C:3962H         LINE#         2303
  C:3962H         LINE#         2304
  C:3965H         LINE#         2305
  C:3965H         LINE#         2306
  C:396AH         LINE#         2307
  C:398AH         LINE#         2308
  C:398DH         LINE#         2309
  C:398DH         LINE#         2310
  C:3992H         LINE#         2311
  C:399AH         LINE#         2312
  C:39A0H         LINE#         2313
BL51 BANKED LINKER/LOCATER V6.22.2.0                                                  10/01/2020  09:24:10  PAGE 127


  C:39A3H         LINE#         2314
  C:39A3H         LINE#         2315
  C:39A6H         LINE#         2316
  C:39AEH         LINE#         2317
  C:39B4H         LINE#         2318
  C:39B7H         LINE#         2319
  C:39B7H         LINE#         2320
  C:39BAH         LINE#         2321
  C:39DFH         LINE#         2322
  C:39E5H         LINE#         2323
  C:39E7H         LINE#         2324
  C:39EAH         LINE#         2325
  C:39EAH         LINE#         2326
  C:39F5H         LINE#         2327
  C:39FDH         LINE#         2328
  C:3A03H         LINE#         2329
  C:3A06H         LINE#         2330
  C:3A06H         LINE#         2331
  C:3A17H         LINE#         2332
  C:3A1FH         LINE#         2333
  C:3A25H         LINE#         2334
  C:3A28H         LINE#         2335
  C:3A28H         LINE#         2336
  C:3A2DH         LINE#         2337
  C:3A4BH         LINE#         2338
  C:3A4EH         LINE#         2339
  C:3A4EH         LINE#         2340
  C:3A53H         LINE#         2341
  C:3A73H         LINE#         2342
  C:3A76H         LINE#         2343
  C:3A76H         LINE#         2344
  C:3A7BH         LINE#         2345
  C:3A7DH         LINE#         2346
  C:3A9BH         LINE#         2348
  C:3A9EH         LINE#         2349
  C:3A9EH         LINE#         2350
  C:3AA3H         LINE#         2351
  C:3AC3H         LINE#         2353
  C:3AC6H         LINE#         2354
  C:3AC6H         LINE#         2355
  C:3ACBH         LINE#         2356
  C:3AD3H         LINE#         2357
  C:3AD9H         LINE#         2358
  C:3ADCH         LINE#         2359
  C:3ADCH         LINE#         2360
  C:3ADFH         LINE#         2361
  C:3AFFH         LINE#         2362
  C:3B02H         LINE#         2363
  C:3B02H         LINE#         2364
  C:3B04H         LINE#         2365
  C:3B07H         LINE#         2366
  C:3B0AH         LINE#         2367
  C:3B0AH         LINE#         2368
  C:3B13H         LINE#         2370
  C:3B16H         LINE#         2371
  C:3B16H         LINE#         2372
  C:3B24H         LINE#         2373
BL51 BANKED LINKER/LOCATER V6.22.2.0                                                  10/01/2020  09:24:10  PAGE 128


  C:3B27H         LINE#         2374
  C:3B27H         LINE#         2375
  C:3B2AH         LINE#         2376
  C:3B32H         LINE#         2377
  C:3B38H         LINE#         2378
  C:3B3BH         LINE#         2379
  C:3B3BH         LINE#         2380
  C:3B44H         LINE#         2381
  C:3B47H         LINE#         2382
  C:3B47H         LINE#         2383
  C:3B5EH         LINE#         2384
  C:3B60H         LINE#         2385
  C:3B60H         LINE#         2386
  C:3B65H         LINE#         2387
  C:3B88H         LINE#         2388
  C:3B8BH         LINE#         2389
  C:3B8DH         LINE#         2390
  C:3B8DH         LINE#         2391
  C:3B90H         LINE#         2392
  C:3BB0H         LINE#         2393
  C:3BB2H         LINE#         2394
  C:3BB2H         LINE#         2395
  C:3BB5H         LINE#         2396
  C:3BDAH         LINE#         2397
  C:3BDCH         LINE#         2398
  C:3BDCH         LINE#         2399
  C:3BE1H         LINE#         2400
  C:3BE1H         LINE#         2402
  C:3BE1H         LINE#         2403
  C:3BE6H         LINE#         2404
  -------         ENDPROC       _SECUENCIAEXPEDIDORMF
  -------         ENDMOD        VERIFICADOR

  -------         MODULE        MONITOR
  C:0000H         SYMBOL        _ICE_DUMMY_
  D:0080H         PUBLIC        P0
  D:0090H         PUBLIC        P1
  I:0011H         PUBLIC        placa
  C:B1D9H         PUBLIC        Rx_Monitor
  B:0080H.0       PUBLIC        rx_ip
  B:0090H.7       PUBLIC        lock
  C:8877H         PUBLIC        _recibe_cmd_Monitor
  C:B2FBH         PUBLIC        clear_placa
  C:9524H         PUBLIC        _Valida_Trama_Monitor
  -------         PROC          _RECIBE_CMD_MONITOR
  X:0015H         SYMBOL        buffer_cmd
  -------         DO            
  X:0018H         SYMBOL        j
  X:0019H         SYMBOL        NumDatos
  X:001AH         SYMBOL        time_out
  X:001BH         SYMBOL        MaxChrRx
  X:001CH         SYMBOL        contador
  -------         ENDDO         
  C:8877H         LINE#         44
  C:8882H         LINE#         45
  C:8882H         LINE#         49
  C:8887H         LINE#         50
BL51 BANKED LINKER/LOCATER V6.22.2.0                                                  10/01/2020  09:24:10  PAGE 129


  C:888DH         LINE#         52
  C:8898H         LINE#         53
  C:8898H         LINE#         54
  C:88A9H         LINE#         55
  C:88A9H         LINE#         56
  C:88B0H         LINE#         57
  C:88B4H         LINE#         58
  C:88BDH         LINE#         59
  C:88BDH         LINE#         60
  C:88CBH         LINE#         61
  C:88E2H         LINE#         62
  C:88E2H         LINE#         63
  C:88E8H         LINE#         64
  C:88EEH         LINE#         65
  C:88EEH         LINE#         66
  C:88F0H         LINE#         67
  C:88F8H         LINE#         68
  C:88FEH         LINE#         69
  C:8910H         LINE#         70
  C:891AH         LINE#         71
  C:8923H         LINE#         73
  C:8932H         LINE#         76
  C:8932H         LINE#         77
  C:8937H         LINE#         78
  -------         ENDPROC       _RECIBE_CMD_MONITOR
  -------         PROC          _VALIDA_TRAMA_MONITOR
  X:0015H         SYMBOL        buffer
  D:0005H         SYMBOL        length_trama
  -------         DO            
  D:0007H         SYMBOL        j
  D:0006H         SYMBOL        p
  -------         ENDDO         
  C:9524H         LINE#         83
  C:952FH         LINE#         84
  C:952FH         LINE#         85
  C:9531H         LINE#         86
  C:9533H         LINE#         87
  C:9533H         LINE#         88
  C:9551H         LINE#         89
  C:9551H         LINE#         90
  C:9553H         LINE#         91
  C:9558H         LINE#         92
  C:9559H         LINE#         93
  C:956EH         LINE#         94
  C:956EH         LINE#         97
  C:956EH         LINE#         98
  C:9588H         LINE#         99
  C:9589H         LINE#         100
  C:958AH         LINE#         101
  C:9596H         LINE#         102
  C:95AAH         LINE#         103
  C:95B0H         LINE#         104
  C:95B2H         LINE#         105
  C:95B8H         LINE#         108
  C:95B8H         LINE#         109
  C:95B8H         LINE#         110
  C:95B8H         LINE#         112
BL51 BANKED LINKER/LOCATER V6.22.2.0                                                  10/01/2020  09:24:10  PAGE 130


  C:95B8H         LINE#         113
  -------         ENDPROC       _VALIDA_TRAMA_MONITOR
  -------         PROC          CLEAR_PLACA
  -------         DO            
  D:0007H         SYMBOL        i
  -------         ENDDO         
  C:B2FBH         LINE#         114
  C:B2FBH         LINE#         115
  C:B2FBH         LINE#         117
  C:B307H         LINE#         118
  C:B307H         LINE#         119
  C:B30DH         LINE#         120
  C:B310H         LINE#         121
  C:B312H         LINE#         122
  -------         ENDPROC       CLEAR_PLACA
  -------         PROC          RX_MONITOR
  -------         DO            
  X:0008H         SYMBOL        Length_trama
  X:0009H         SYMBOL        buffer1
  -------         ENDDO         
  C:B1D9H         LINE#         123
  C:B1D9H         LINE#         124
  C:B1D9H         LINE#         127
  C:B1E8H         LINE#         128
  C:B1F1H         LINE#         129
  -------         ENDPROC       RX_MONITOR
  -------         ENDMOD        MONITOR

  -------         MODULE        ?C?FPADD
  C:1335H         PUBLIC        ?C?FPADD
  C:1331H         PUBLIC        ?C?FPSUB
  -------         ENDMOD        ?C?FPADD

  -------         MODULE        ?C?FPMUL
  C:1426H         PUBLIC        ?C?FPMUL
  -------         ENDMOD        ?C?FPMUL

  -------         MODULE        ?C?FCAST
  C:1536H         PUBLIC        ?C?FCASTC
  C:1531H         PUBLIC        ?C?FCASTI
  C:152CH         PUBLIC        ?C?FCASTL
  -------         ENDMOD        ?C?FCAST

  -------         MODULE        ?C?CASTF
  C:156AH         PUBLIC        ?C?CASTF
  -------         ENDMOD        ?C?CASTF

  -------         MODULE        PRINTF
  X:0078H         PUBLIC        ?_PRINTF?BYTE
  X:0078H         PUBLIC        ?_SPRINTF?BYTE
  C:339AH         PUBLIC        _PRINTF
  C:3394H         PUBLIC        _SPRINTF
  -------         ENDMOD        PRINTF

  -------         MODULE        POW
  X:0022H         PUBLIC        ?_pow?BYTE
  C:5C9AH         PUBLIC        _pow
BL51 BANKED LINKER/LOCATER V6.22.2.0                                                  10/01/2020  09:24:10  PAGE 131


  -------         ENDMOD        POW

  -------         MODULE        ?C?CHKFLOAT
  C:15EBH         PUBLIC        ?C?CHKFLOAT
  -------         ENDMOD        ?C?CHKFLOAT

  -------         MODULE        ?C?FPCMP
  C:1607H         PUBLIC        ?C?FPCMP
  C:1605H         PUBLIC        ?C?FPCMP3
  -------         ENDMOD        ?C?FPCMP

  -------         MODULE        ?C?FPNEG
  C:167EH         PUBLIC        ?C?FPNEG
  -------         ENDMOD        ?C?FPNEG

  -------         MODULE        ?C?FPROUND
  C:168FH         PUBLIC        ?C?FPROUND
  -------         ENDMOD        ?C?FPROUND

  -------         MODULE        ?C?FPCONVERT
  C:16CCH         PUBLIC        ?C?FPCONVERT
  -------         ENDMOD        ?C?FPCONVERT

  -------         MODULE        EXP
  C:92F8H         PUBLIC        _EXP
  -------         ENDMOD        EXP

  -------         MODULE        LOG
  C:682CH         PUBLIC        _LOG
  C:6828H         PUBLIC        _LOG10
  -------         ENDMOD        LOG

  -------         MODULE        ?C?FPDIV
  C:17D4H         PUBLIC        ?C?FPDIV
  -------         ENDMOD        ?C?FPDIV

  -------         MODULE        ?C?FTNPWR
  C:18A1H         PUBLIC        ?C?FTNPWR
  -------         ENDMOD        ?C?FTNPWR

  -------         MODULE        ?C?COPY
  C:19FEH         PUBLIC        ?C?COPY
  -------         ENDMOD        ?C?COPY

  -------         MODULE        ?C?CLDPTR
  C:1A24H         PUBLIC        ?C?CLDPTR
  -------         ENDMOD        ?C?CLDPTR

  -------         MODULE        ?C?CLDOPTR
  C:1A3DH         PUBLIC        ?C?CLDOPTR
  -------         ENDMOD        ?C?CLDOPTR

  -------         MODULE        ?C?CSTPTR
  C:1A6AH         PUBLIC        ?C?CSTPTR
  -------         ENDMOD        ?C?CSTPTR

  -------         MODULE        ?C?CSTOPTR
BL51 BANKED LINKER/LOCATER V6.22.2.0                                                  10/01/2020  09:24:10  PAGE 132


  C:1A7CH         PUBLIC        ?C?CSTOPTR
  -------         ENDMOD        ?C?CSTOPTR

  -------         MODULE        ?C?IMUL
  C:1A9EH         PUBLIC        ?C?IMUL
  -------         ENDMOD        ?C?IMUL

  -------         MODULE        ?C?IILDX
  C:1AB0H         PUBLIC        ?C?IILDX
  -------         ENDMOD        ?C?IILDX

  -------         MODULE        ?C?LNEG
  C:1AC6H         PUBLIC        ?C?LNEG
  -------         ENDMOD        ?C?LNEG

  -------         MODULE        ?C?SLCMP
  C:1AD4H         PUBLIC        ?C?SLCMP
  -------         ENDMOD        ?C?SLCMP

  -------         MODULE        ?C?ULCMP
  C:1AEAH         PUBLIC        ?C?ULCMP
  -------         ENDMOD        ?C?ULCMP

  -------         MODULE        ?C?ULSHR
  C:1AFBH         PUBLIC        ?C?ULSHR
  -------         ENDMOD        ?C?ULSHR

  -------         MODULE        ?C?LSHL
  C:1B0EH         PUBLIC        ?C?LSHL
  -------         ENDMOD        ?C?LSHL

  -------         MODULE        ?C?LLDCODE
  C:1B21H         PUBLIC        ?C?LLDCODE
  -------         ENDMOD        ?C?LLDCODE

  -------         MODULE        ?C?LLDXDATA0
  C:1B31H         PUBLIC        ?C?LLDXDATA0
  -------         ENDMOD        ?C?LLDXDATA0

  -------         MODULE        ?C?LLDCODE0
  C:1B3DH         PUBLIC        ?C?LLDCODE0
  -------         ENDMOD        ?C?LLDCODE0

  -------         MODULE        ?C?LSTXDATA
  C:1B4DH         PUBLIC        ?C?LSTXDATA
  -------         ENDMOD        ?C?LSTXDATA

  -------         MODULE        ?C?LSTKXDATA
  C:1B59H         PUBLIC        ?C?LSTKXDATA
  -------         ENDMOD        ?C?LSTKXDATA

  -------         MODULE        ?C?PLDIXDATA
  C:1B8AH         PUBLIC        ?C?PLDIXDATA
  -------         ENDMOD        ?C?PLDIXDATA

  -------         MODULE        ?C?PSTXDATA
  C:1BA1H         PUBLIC        ?C?PSTXDATA
BL51 BANKED LINKER/LOCATER V6.22.2.0                                                  10/01/2020  09:24:10  PAGE 133


  -------         ENDMOD        ?C?PSTXDATA

  -------         MODULE        ?C?CCASE
  C:1BAAH         PUBLIC        ?C?CCASE
  -------         ENDMOD        ?C?CCASE

  -------         MODULE        STRCAT
  X:0047H         PUBLIC        ?_strcat?BYTE
  C:A394H         PUBLIC        _strcat
  -------         ENDMOD        STRCAT

  -------         MODULE        ?C?STRCMP
  C:1D4EH         PUBLIC        ?C?STRCMP
  -------         ENDMOD        ?C?STRCMP

  -------         MODULE        ?C?STRCPY
  C:1E37H         PUBLIC        ?C?STRCPY
  -------         ENDMOD        ?C?STRCPY

  -------         MODULE        STRLEN
  C:000EH         PUBLIC        _STRLEN
  -------         ENDMOD        STRLEN

  -------         MODULE        STRTOK
  X:0065H         PUBLIC        ?_strtok?BYTE
  C:7B8AH         PUBLIC        _strtok
  -------         ENDMOD        STRTOK

  -------         MODULE        ATOL
  C:6FBCH         PUBLIC        _atol
  -------         ENDMOD        ATOL

  -------         MODULE        ATOI
  C:7D4CH         PUBLIC        _atoi
  -------         ENDMOD        ATOI

  -------         MODULE        MALLOC
  C:80A5H         PUBLIC        _malloc
  -------         ENDMOD        MALLOC

  -------         MODULE        INIT_MEM
  X:0256H         PUBLIC        __mem_avail__
  C:ADD7H         PUBLIC        _init_mempool
  -------         ENDMOD        INIT_MEM

  -------         MODULE        FREE
  C:61DBH         PUBLIC        _free
  -------         ENDMOD        FREE

  -------         MODULE        ?C?ILDIX
  C:1E54H         PUBLIC        ?C?ILDIX
  -------         ENDMOD        ?C?ILDIX

  -------         MODULE        ?C?LMUL
  C:1E6AH         PUBLIC        ?C?LMUL
  -------         ENDMOD        ?C?LMUL

BL51 BANKED LINKER/LOCATER V6.22.2.0                                                  10/01/2020  09:24:10  PAGE 134


  -------         MODULE        ISDIGIT
  C:B3F9H         PUBLIC        _isdigit
  -------         ENDMOD        ISDIGIT

  -------         MODULE        ISSPACE
  C:B36BH         PUBLIC        _isspace
  -------         ENDMOD        ISSPACE

  -------         MODULE        STRSPN
  X:006BH         PUBLIC        ?_strspn?BYTE
  C:9C57H         PUBLIC        _strspn
  -------         ENDMOD        STRSPN

  -------         MODULE        STRPBRK
  X:006BH         PUBLIC        ?_strpbrk?BYTE
  C:9DDEH         PUBLIC        _strpbrk
  -------         ENDMOD        STRPBRK

Program Size: data=98.7 xdata=618 code=46212
LINK/LOCATE RUN COMPLETE.  0 WARNING(S),  0 ERROR(S)
