BL51 BANKED LINKER/LOCATER V6.22.2.0                                                    07/26/2021  14:55:02  PAGE 1


BL51 BANKED LINKER/LOCATER V6.22.2.0, INVOKED BY:
C:\KEIL_V5\C51\BIN\BL51.EXE .\Objects\main.obj, .\Objects\Accescan.obj, .\Objects\Clock.obj, .\Objects\delay.obj, .\Obje
>> cts\eeprom.obj, .\Objects\io_sensores.obj, .\Objects\pantallas.obj, .\Objects\prog.obj, .\Objects\pto_paralelo.obj, .
>> \Objects\tibbo.obj, .\Objects\uart.obj, .\Objects\lintech.obj, .\Objects\verificador.obj, .\Objects\Monitor.obj TO .\
>> Objects\expedidor_v_01_raspberry PRINT (.\Listings\expedidor_v_01_raspberry.m51) RAMSIZE (256)


MEMORY MODEL: LARGE WITH FLOATING POINT ARITHMETIC


INPUT MODULES INCLUDED:
  .\Objects\main.obj (MAIN)
  .\Objects\Accescan.obj (ACCESCAN)
  .\Objects\Clock.obj (CLOCK)
  .\Objects\delay.obj (DELAY)
  .\Objects\eeprom.obj (EEPROM)
  .\Objects\io_sensores.obj (IO_SENSORES)
  .\Objects\pantallas.obj (PANTALLAS)
  .\Objects\prog.obj (PROG)
  .\Objects\pto_paralelo.obj (PTO_PARALELO)
  .\Objects\tibbo.obj (TIBBO)
  .\Objects\uart.obj (UART)
  .\Objects\lintech.obj (LINTECH)
  .\Objects\verificador.obj (VERIFICADOR)
  .\Objects\Monitor.obj (MONITOR)
  C:\KEIL_V5\C51\LIB\C51FPL.LIB (?C?FPADD)
  C:\KEIL_V5\C51\LIB\C51FPL.LIB (?C?FPMUL)
  C:\KEIL_V5\C51\LIB\C51FPL.LIB (?C?FCAST)
  C:\KEIL_V5\C51\LIB\C51FPL.LIB (?C?CASTF)
  C:\KEIL_V5\C51\LIB\C51FPL.LIB (PRINTF)
  C:\KEIL_V5\C51\LIB\C51FPL.LIB (POW)
  C:\KEIL_V5\C51\LIB\C51FPL.LIB (?C?FPGETOPN)
  C:\KEIL_V5\C51\LIB\C51FPL.LIB (?C?CHKFLOAT)
  C:\KEIL_V5\C51\LIB\C51FPL.LIB (?C?FPCMP)
  C:\KEIL_V5\C51\LIB\C51FPL.LIB (?C?FPNEG)
  C:\KEIL_V5\C51\LIB\C51FPL.LIB (?C?FPROUND)
  C:\KEIL_V5\C51\LIB\C51FPL.LIB (?C?FPCONVERT)
  C:\KEIL_V5\C51\LIB\C51FPL.LIB (EXP)
  C:\KEIL_V5\C51\LIB\C51FPL.LIB (LOG)
  C:\KEIL_V5\C51\LIB\C51FPL.LIB (?C?FPDIV)
  C:\KEIL_V5\C51\LIB\C51FPL.LIB (?C?FTNPWR)
  C:\KEIL_V5\C51\LIB\C51FPL.LIB (?C?FPSERIES)
  C:\KEIL_V5\C51\LIB\C51L.LIB (?C_STARTUP)
  C:\KEIL_V5\C51\LIB\C51L.LIB (?C?COPY)
  C:\KEIL_V5\C51\LIB\C51L.LIB (?C?CLDPTR)
  C:\KEIL_V5\C51\LIB\C51L.LIB (?C?CLDOPTR)
  C:\KEIL_V5\C51\LIB\C51L.LIB (?C?CSTPTR)
  C:\KEIL_V5\C51\LIB\C51L.LIB (?C?CSTOPTR)
  C:\KEIL_V5\C51\LIB\C51L.LIB (?C?IMUL)
  C:\KEIL_V5\C51\LIB\C51L.LIB (?C?IILDX)
  C:\KEIL_V5\C51\LIB\C51L.LIB (?C?LNEG)
  C:\KEIL_V5\C51\LIB\C51L.LIB (?C?SLCMP)
  C:\KEIL_V5\C51\LIB\C51L.LIB (?C?ULCMP)
  C:\KEIL_V5\C51\LIB\C51L.LIB (?C?ULSHR)
  C:\KEIL_V5\C51\LIB\C51L.LIB (?C?LSHL)
  C:\KEIL_V5\C51\LIB\C51L.LIB (?C?LLDCODE)
  C:\KEIL_V5\C51\LIB\C51L.LIB (?C?LLDXDATA0)
  C:\KEIL_V5\C51\LIB\C51L.LIB (?C?LLDCODE0)
BL51 BANKED LINKER/LOCATER V6.22.2.0                                                  07/26/2021  14:55:02  PAGE 2


  C:\KEIL_V5\C51\LIB\C51L.LIB (?C?LSTXDATA)
  C:\KEIL_V5\C51\LIB\C51L.LIB (?C?LSTKXDATA)
  C:\KEIL_V5\C51\LIB\C51L.LIB (?C?PLDIXDATA)
  C:\KEIL_V5\C51\LIB\C51L.LIB (?C?PSTXDATA)
  C:\KEIL_V5\C51\LIB\C51L.LIB (?C?CCASE)
  C:\KEIL_V5\C51\LIB\C51L.LIB (STRCAT)
  C:\KEIL_V5\C51\LIB\C51L.LIB (?C?STRCMP)
  C:\KEIL_V5\C51\LIB\C51L.LIB (?C?STRCPY)
  C:\KEIL_V5\C51\LIB\C51L.LIB (STRLEN)
  C:\KEIL_V5\C51\LIB\C51L.LIB (STRTOK)
  C:\KEIL_V5\C51\LIB\C51L.LIB (ATOL)
  C:\KEIL_V5\C51\LIB\C51L.LIB (ATOI)
  C:\KEIL_V5\C51\LIB\C51L.LIB (?C_INIT)
  C:\KEIL_V5\C51\LIB\C51L.LIB (?C?ILDIX)
  C:\KEIL_V5\C51\LIB\C51L.LIB (?C?LMUL)
  C:\KEIL_V5\C51\LIB\C51L.LIB (ISDIGIT)
  C:\KEIL_V5\C51\LIB\C51L.LIB (ISSPACE)
  C:\KEIL_V5\C51\LIB\C51L.LIB (STRSPN)
  C:\KEIL_V5\C51\LIB\C51L.LIB (STRPBRK)


LINK MAP OF MODULE:  .\Objects\expedidor_v_01_raspberry (MAIN)


            TYPE    BASE      LENGTH    RELOCATION   SEGMENT NAME
            -----------------------------------------------------

            * * * * * * *   D A T A   M E M O R Y   * * * * * * *
            REG     0000H     0008H     ABSOLUTE     "REG BANK 0"
            DATA    0008H     0005H     UNIT         _DATA_GROUP_
            DATA    000DH     0004H     UNIT         ?DT?UART
            IDATA   0011H     0009H     UNIT         ?ID?MONITOR
                    001AH     0006H                  *** GAP ***
            BIT     0020H.0   0001H.1   UNIT         _BIT_GROUP_
            BIT     0021H.1   0000H.3   UNIT         ?BI?MAIN
            BIT     0021H.4   0000H.2   UNIT         ?BI?UART
            BIT     0021H.6   0000H.1   UNIT         ?BI?EEPROM
            BIT     0021H.7   0000H.1   UNIT         ?BI?IO_SENSORES
            BIT     0022H.0   0000H.1   UNIT         ?BI?VERIFICADOR
                    0022H.1   0000H.7                *** GAP ***
            IDATA   0023H     0046H     UNIT         ?ID?MAIN
            IDATA   0069H     0001H     UNIT         ?STACK

            * * * * * * *  X D A T A   M E M O R Y  * * * * * * *
            XDATA   0000H     00B7H     UNIT         _XDATA_GROUP_
            XDATA   00B7H     008CH     UNIT         ?XD?VERIFICADOR
            XDATA   0143H     006CH     UNIT         ?XD?MAIN
            XDATA   01AFH     0059H     UNIT         ?XD?PROG
            XDATA   0208H     0003H     UNIT         ?XD?EEPROM
            XDATA   020BH     0003H     UNIT         ?XD?UART
            XDATA   020EH     0003H     UNIT         ?XD?STRTOK
            XDATA   0211H     0002H     UNIT         ?XD?IO_SENSORES
            XDATA   0213H     0001H     UNIT         ?XD?ACCESCAN
            XDATA   0214H     0001H     UNIT         ?XD?CLOCK

            * * * * * * *   C O D E   M E M O R Y   * * * * * * *
            CODE    0000H     0003H     ABSOLUTE     
BL51 BANKED LINKER/LOCATER V6.22.2.0                                                  07/26/2021  14:55:02  PAGE 3


            CODE    0003H     0008H     UNIT         ?PR?P_CK?CLOCK
            CODE    000BH     0003H     ABSOLUTE     
            CODE    000EH     0015H     UNIT         ?PR?_STRLEN?STRLEN
            CODE    0023H     0003H     ABSOLUTE     
            CODE    0026H     1308H     UNIT         ?CO?PROG
            CODE    132EH     0B8BH     UNIT         ?C?LIB_CODE
            CODE    1EB9H     08E5H     UNIT         ?CO?VERIFICADOR
            CODE    279EH     0747H     UNIT         ?PR?_PANTALLALCD?PANTALLAS
            CODE    2EE5H     06EFH     UNIT         ?CO?PANTALLAS
            CODE    35D4H     04DAH     UNIT         ?PR?_SECUENCIAEXPEDIDORMF?VERIFICADOR
            CODE    3AAEH     0483H     UNIT         ?PR?PRINTF?PRINTF
            CODE    3F31H     0437H     UNIT         ?PR?_VALIDA_TRAMA_PTO?ACCESCAN
            CODE    4368H     035CH     UNIT         ?PR?VER_PROG?PROG
            CODE    46C4H     02D0H     UNIT         ?PR?_TWO_BYTEHEX_DECIMAL?CLOCK
            CODE    4994H     02B7H     UNIT         ?PR?_PROG_HORARIO_DIAS?PROG
            CODE    4C4BH     02A5H     UNIT         ?PR?_PANTALLALCD_LINEA_2?PANTALLAS
            CODE    4EF0H     023FH     UNIT         ?PR?_ARMAR_TRAMA_PTO_PARALELO_EXPEDIDOR?VERIFICADOR
            CODE    512FH     022CH     UNIT         ?PR?MENU?PROG
            CODE    535BH     0208H     UNIT         ?PR?_HASH_ID?PROG
            CODE    5563H     01FAH     UNIT         ?PR?_PROG_HORARIO_DESDE_HASTA?PROG
            CODE    575DH     01F5H     UNIT         ?PR?PROG_FECHA_VENCIMIENTO?PROG
            CODE    5952H     01F3H     UNIT         ?PR?_ARMAR_TRAMA_TARJETA_SECTOR1_BLOQUE2?VERIFICADOR
            CODE    5B45H     01DFH     UNIT         ?PR?_RESPONDE_LECTURA_TARJETA_SECTOR1_BLOQUE1?VERIFICADOR
            CODE    5D24H     01CFH     UNIT         ?PR?_BLOCK_READ_CLOCK_ASCII_RASBERRY?CLOCK
            CODE    5EF3H     01B3H     UNIT         ?PR?COM_ISR?UART
            CODE    60A6H     01A4H     UNIT         ?PR?_VALIDA_TIPO_TARJETA?VERIFICADOR
            CODE    624AH     01A3H     UNIT         ?CO?LINTECH
            CODE    63EDH     016FH     UNIT         ?PR?_BLOCK_READ_CLOCK_ASCII?CLOCK
            CODE    655CH     0166H     UNIT         ?PR?_POW?POW
            CODE    66C2H     0157H     UNIT         ?PR?_RESPONDE_REELECTURA_TARJETA_SECTOR1_BLOQUE2?VERIFICADOR
            CODE    6819H     0154H     UNIT         ?PR?_ARMAR_TRAMA_MONITOR?VERIFICADOR
            CODE    696DH     0145H     UNIT         ?PR?PROG_HORARIOS?PROG
            CODE    6AB2H     013EH     UNIT         ?PR?PROG_SIN_COBRO?PROG
            CODE    6BF0H     013EH     UNIT         ?PR?SECUENCIA_INICIO_EXPEDIDOR?VERIFICADOR
            CODE    6D2EH     013CH     UNIT         ?PR?LOAD_AND_SEND_ID_COD?PTO_PARALELO
            CODE    6E6AH     0137H     UNIT         ?PR?VER_HORARIO?PROG
            CODE    6FA1H     012BH     UNIT         ?PR?_RESPONDE_LECTURA_TARJETA_SECTOR1_BLOQUE2?VERIFICADOR
            CODE    70CCH     0129H     UNIT         ?PR?LOG?LOG
            CODE    71F5H     0128H     UNIT         ?PR?_VER_HORARIO_DIAS?PROG
            CODE    731DH     011AH     UNIT         ?PR?_PROG_HORARIOS_ON_OFF?PROG
            CODE    7437H     0119H     UNIT         ?PR?_VER_HORARIO_DESDE_HASTA?PROG
            CODE    7550H     0115H     UNIT         ?PR?_VALIDAR_CLK?CLOCK
            CODE    7665H     010FH     UNIT         ?PR?_HORARIOS?VERIFICADOR
            CODE    7774H     010CH     UNIT         ?PR?_ATOL?ATOL
            CODE    7880H     0103H     UNIT         ?PR?_BLOQUE_HORARIO?VERIFICADOR
            CODE    7983H     0100H     UNIT         ?PR?_WR_MF?LINTECH
            CODE    7A83H     00FCH     UNIT         ?PR?PROG_DEBUG?PROG
            CODE    7B7FH     00FCH     UNIT         ?PR?PROG_USE_LPR?PROG
            CODE    7C7BH     00FCH     UNIT         ?PR?TIPO_PANTALLA?PROG
            CODE    7D77H     00FCH     UNIT         ?PR?PROG_ANTIPASSBACK?PROG
            CODE    7E73H     00FCH     UNIT         ?PR?PROG_PLACA?PROG
            CODE    7F6FH     00FCH     UNIT         ?PR?PROG_VALIDAR_TIPO_VEHICULO_MENSUAL?PROG
            CODE    806BH     00FCH     UNIT         ?PR?PROG_APB_MENSUAL?PROG
            CODE    8167H     00F1H     UNIT         ?PR?_WRITE_EEPROM_TICKET?EEPROM
            CODE    8258H     00EAH     UNIT         ?PR?_MOV_CARD?LINTECH
            CODE    8342H     00E9H     UNIT         ?PR?_ARMAR_TRAMA_PTO_PARALELO_EXPEDIDOR_MENSUAL?VERIFICADOR
            CODE    842BH     00E4H     UNIT         ?PR?_STRTOK?STRTOK
BL51 BANKED LINKER/LOCATER V6.22.2.0                                                  07/26/2021  14:55:02  PAGE 4


            CODE    850FH     00DEH     UNIT         ?PR?PROG_ADDRESS_HIGH_BOARD?PROG
            CODE    85EDH     00DCH     UNIT         ?PR?_RTA_CMD_TRANSPORTE?VERIFICADOR
            CODE    86C9H     00DBH     UNIT         ?PR?_ATOI?ATOI
            CODE    87A4H     00D7H     UNIT         ?PR?_ANALIZA_UID_CARD?VERIFICADOR
            CODE    887BH     00D6H     UNIT         ?PR?_CMD_LPR_SALIDA_WIEGAND?ACCESCAN
            CODE    8951H     00D3H     UNIT         ?C_INITSEG
            CODE    8A24H     00CCH     UNIT         ?PR?_GRABA_SERIE?EEPROM
            CODE    8AF0H     00CAH     UNIT         ?PR?READ_EEPROM_TICKET?EEPROM
            CODE    8BBAH     00C9H     UNIT         ?PR?_CHECK_FECHAOUT?CLOCK
            CODE    8C83H     00C5H     UNIT         ?PR?_BLOCK_READ_CLOCK?CLOCK
            CODE    8D48H     00C4H     UNIT         ?PR?_TARJETA_MENSUAL?VERIFICADOR
            CODE    8E0CH     00C3H     UNIT         ?PR?_RD_MF?LINTECH
            CODE    8ECFH     00C2H     UNIT         ?PR?PROG_TARJETA_AUTOMATICA_O_BOTON?PROG
            CODE    8F91H     00C1H     UNIT         ?PR?_RECIBE_CMD_MONITOR?MONITOR
            CODE    9052H     00BFH     UNIT         ?CO?IO_SENSORES
            CODE    9111H     00BEH     UNIT         ?PR?ERROR_RX_PTO?VERIFICADOR
            CODE    91CFH     00BDH     UNIT         ?PR?PROG_COD_PARK?PROG
            CODE    928CH     00BDH     UNIT         ?PR?PROG_TIEMPO_GRACIA?PROG
            CODE    9349H     00BBH     UNIT         ?PR?_VALIDA_TRAMA_MONITOR?MONITOR
            CODE    9404H     00B9H     UNIT         ?CO?TIBBO
            CODE    94BDH     00B6H     UNIT         ?PR?PROG_ID_CLIENTE?PROG
            CODE    9573H     00B5H     UNIT         ?PR?_WAIT_PLACA?VERIFICADOR
            CODE    9628H     00B4H     UNIT         ?PR?_SEND_PORT?PTO_PARALELO
            CODE    96DCH     00ACH     UNIT         ?PR?_HORA_MAXIMA?VERIFICADOR
            CODE    9788H     00AAH     UNIT         ?PR?CLAVE_SEGURIDAD_S2?LINTECH
            CODE    9832H     00A9H     UNIT         ?PR?DWLOAD_EEPROM?LINTECH
            CODE    98DBH     00A7H     UNIT         ?PR?_BLOCK_READ_CLOCK_HEX?CLOCK
            CODE    9982H     00A5H     UNIT         ?PR?_SEND_PTO_PARALELO?VERIFICADOR
            CODE    9A27H     00A4H     UNIT         ?PR?_ARMAR_TRAMA_TARJETA_SECTOR1_BLOQUE1_CAMCEL?VERIFICADOR
            CODE    9ACBH     00A1H     UNIT         ?PR?_BLOCK_WRITE_CLOCK_ASCII?CLOCK
            CODE    9B6CH     009DH     UNIT         ?PR?_INICIALIZA?LINTECH
            CODE    9C09H     009CH     UNIT         ?PR?_RESPUESTA_PLACA_CANCEL?VERIFICADOR
            CODE    9CA5H     009BH     UNIT         ?PR?ENTREGA_CARD_CAPTURA?VERIFICADOR
            CODE    9D40H     009AH     UNIT         ?PR?_RESPONDE_LECTURA_TARJETA_SECTOR1_BLOQUE0?VERIFICADOR
            CODE    9DDAH     009AH     UNIT         ?PR?EXP?EXP
            CODE    9E74H     0099H     UNIT         ?PR?SHOW?PROG
            CODE    9F0DH     0099H     UNIT         ?PR?_RECIBE_PORT?PTO_PARALELO
            CODE    9FA6H     0098H     UNIT         ?PR?_VALIDA_VEHICULO_CARD_MENSUAL?VERIFICADOR
            CODE    A03EH     0096H     UNIT         ?PR?_DISPARO_LOCK_ENTRADA_VEHICULO?VERIFICADOR
            CODE    A0D4H     0091H     UNIT         ?PR?_HEX_ASCII?CLOCK
            CODE    A165H     0091H     UNIT         ?PR?_CARD_INSERCION?LINTECH
            CODE    A1F6H     0090H     UNIT         ?PR?_GETOPTION?PROG
            CODE    A286H     008FH     UNIT         ?PR?_LEE_CLK?CLOCK
            CODE    A315H     008DH     UNIT         ?PR?LOADVERIFY_EEPROM?LINTECH
            CODE    A3A2H     008CH     UNIT         ?C_C51STARTUP
            CODE    A42EH     0088H     UNIT         ?PR?_SEND_PORTERR?PTO_PARALELO
            CODE    A4B6H     0088H     UNIT         ?PR?RX_DATA?TIBBO
            CODE    A53EH     0088H     UNIT         ?PR?UNIQUE_IDENTIFIER_UID?LINTECH
            CODE    A5C6H     0086H     UNIT         ?PR?_CHECK_STATUS?LINTECH
            CODE    A64CH     0084H     UNIT         ?PR?MSJ_LCD_INFORMATIVO?IO_SENSORES
            CODE    A6D0H     0084H     UNIT         ?PR?_DEBUGBUFFERMF?TIBBO
            CODE    A754H     0084H     UNIT         ?PR?_STRSPN?STRSPN
            CODE    A7D8H     0083H     UNIT         ?PR?_RASPBERRY_DATA?PANTALLAS
            CODE    A85BH     0081H     UNIT         ?PR?_STRPBRK?STRPBRK
            CODE    A8DCH     0080H     UNIT         ?PR?_INGRESADATO?PROG
            CODE    A95CH     0080H     UNIT         ?PR?AUT_CARD_CHECK_STATUS?LINTECH
            CODE    A9DCH     0080H     UNIT         ?PR?POWER_OFF?LINTECH
BL51 BANKED LINKER/LOCATER V6.22.2.0                                                  07/26/2021  14:55:02  PAGE 5


            CODE    AA5CH     007FH     UNIT         ?PR?MAIN?MAIN
            CODE    AADBH     007DH     UNIT         ?PR?RELOJ_PANTALLA_LCD?PANTALLAS
            CODE    AB58H     007CH     UNIT         ?PR?RESPONDE_ESTADO_SENSORES_TRANSPORTE?VERIFICADOR
            CODE    ABD4H     0077H     UNIT         ?PR?RESPONDE_TIPO_TARJETA?VERIFICADOR
            CODE    AC4BH     0071H     UNIT         ?PR?_EN_HORARIO?VERIFICADOR
            CODE    ACBCH     006FH     UNIT         ?PR?_ESCRIBIRMEMORIA?EEPROM
            CODE    AD2BH     006CH     UNIT         ?PR?_RESPONDE_WRITE_TARJETA_SECTOR1_BLOQUE2?VERIFICADOR
            CODE    AD97H     006BH     UNIT         ?PR?INGRESO_VEHICULO?VERIFICADOR
            CODE    AE02H     006BH     UNIT         ?PR?_STRCAT?STRCAT
            CODE    AE6DH     0066H     UNIT         ?PR?_LEERMEMORIA?EEPROM
            CODE    AED3H     0062H     UNIT         ?PR?_LISTACOMANDOS?PROG
            CODE    AF35H     005EH     UNIT         ?PR?_BYTEHEX_DECIMAL?CLOCK
            CODE    AF93H     005DH     UNIT         ?PR?_RESPUESTA_SEGUNDA_CLAVE?VERIFICADOR
            CODE    AFF0H     005CH     UNIT         ?PR?_ARMAR_TRAMA_PLACA?VERIFICADOR
            CODE    B04CH     005BH     UNIT         ?PR?VALIDA_SENSOR1_AUTO?IO_SENSORES
            CODE    B0A7H     0056H     UNIT         ?PR?_WR_EEPROM?EEPROM
            CODE    B0FDH     004DH     UNIT         ?PR?VARIABLE_INICIO?MAIN
            CODE    B14AH     004DH     UNIT         ?PR?L_D_M?EEPROM
            CODE    B197H     004CH     UNIT         ?PR?LEE_NO_TICKET?EEPROM
            CODE    B1E3H     004CH     UNIT         ?PR?LOAD_AND_SEND_INFO_RELOJ?PTO_PARALELO
            CODE    B22FH     004BH     UNIT         ?PR?_TX_AUX?TIBBO
            CODE    B27AH     0049H     UNIT         ?PR?_DEBUG_TXT_TIBBO?TIBBO
            CODE    B2C3H     0048H     UNIT         ?PR?FIRST_CLAVE?PROG
            CODE    B30BH     0047H     UNIT         ?PR?_DEBUG_CHR_TIBBO?TIBBO
            CODE    B352H     0047H     UNIT         ?PR?_RESPONDE_WRITE_TARJETA_SECTOR2_BLOQUE0?VERIFICADOR
            CODE    B399H     0046H     UNIT         ?PR?_ESCRIBIRCADENASOFT_BUFFER?MAIN
            CODE    B3DFH     0046H     UNIT         ?PR?_LCD_TXT_NUM_CHAR?PANTALLAS
            CODE    B425H     0046H     UNIT         ?PR?_DEBUG_HEXDEC?TIBBO
            CODE    B46BH     0046H     UNIT         ?PR?_PREGUNTA_LPR?VERIFICADOR
            CODE    B4B1H     0044H     UNIT         ?PR?_LCD_TXT?PANTALLAS
            CODE    B4F5H     0043H     UNIT         ?PR?DIR_BOARD?IO_SENSORES
            CODE    B538H     0042H     UNIT         ?PR?_VALIDARCLAVE?PROG
            CODE    B57AH     0041H     UNIT         ?PR?_MONITOR_CHR?ACCESCAN
            CODE    B5BBH     0041H     UNIT         ?PR?_TWO_ONE?CLOCK
            CODE    B5FCH     0040H     UNIT         ?PR?_GETCMD?PROG
            CODE    B63CH     0040H     UNIT         ?PR?_DEBUG_PTO_PARALELO?TIBBO
            CODE    B67CH     003FH     UNIT         ?PR?_EB_CLK?CLOCK
            CODE    B6BBH     003EH     UNIT         ?PR?_PUTCHAR?MAIN
            CODE    B6F9H     003EH     UNIT         ?PR?TRAMA_VALIDACION_P_N?VERIFICADOR
            CODE    B737H     003DH     UNIT         ?PR?_HEX_BCD?CLOCK
            CODE    B774H     003DH     UNIT         ?PR?_RD_EEPROM?EEPROM
            CODE    B7B1H     003DH     UNIT         ?PR?_DEBUG_MONITOR?TIBBO
            CODE    B7EEH     003DH     UNIT         ?PR?_LOAD_SECUENCIA_EXPEDIDOR?VERIFICADOR
            CODE    B82BH     003BH     UNIT         ?CO?EEPROM
            CODE    B866H     003BH     UNIT         ?PR?_COM_PUTCHAR?UART
            CODE    B8A1H     003AH     UNIT         ?PR?_DELAY_10MS?DELAY
            CODE    B8DBH     003AH     UNIT         ?PR?ANALIZA_CARD_MOUNT_RF?VERIFICADOR
            CODE    B915H     0038H     UNIT         ?PR?VALIDASENSORESPASO?IO_SENSORES
            CODE    B94DH     0036H     UNIT         ?PR?_RESPONDE_WRITE_TARJETA_SECTOR1_BLOQUE1?VERIFICADOR
            CODE    B983H     0036H     UNIT         ?PR?_RESPONDE_WRITE_TARJETA_SECTOR1_BLOQUE0?VERIFICADOR
            CODE    B9B9H     0034H     UNIT         ?PR?INCREMENTE_TICKET?EEPROM
            CODE    B9EDH     0034H     UNIT         ?PR?ADDR_HORARIOS?PROG
            CODE    BA21H     0031H     UNIT         ?PR?_TARJETA_ROTACION?VERIFICADOR
            CODE    BA52H     0030H     UNIT         ?PR?PREGUNTA_PLACA?VERIFICADOR
            CODE    BA82H     002EH     UNIT         ?PR?TIMER0_INT?MAIN
            CODE    BAB0H     002AH     UNIT         ?PR?COM_INITIALIZE?UART
            CODE    BADAH     0028H     UNIT         ?PR?_WR_CLK?CLOCK
BL51 BANKED LINKER/LOCATER V6.22.2.0                                                  07/26/2021  14:55:02  PAGE 6


            CODE    BB02H     0028H     UNIT         ?PR?COM_BAUDRATE?UART
            CODE    BB2AH     0028H     UNIT         ?PR?_ARMAR_TRAMA_TARJETA_SECTOR1_BLOQUE0?VERIFICADOR
            CODE    BB52H     0027H     UNIT         ?PR?_TX_CHRLCD?PANTALLAS
            CODE    BB79H     0026H     UNIT         ?PR?COM_GETCHAR?UART
            CODE    BB9FH     0026H     UNIT         ?PR?ANALIZA_PRESENCIA_MENSUAL?VERIFICADOR
            CODE    BBC5H     0026H     UNIT         ?PR?RX_MONITOR?MONITOR
            CODE    BBEBH     0023H     UNIT         ?PR?ANALIZA_PRESENCIA_ROTACION?VERIFICADOR
            CODE    BC0EH     0022H     UNIT         ?PR?_E_D_M?EEPROM
            CODE    BC30H     0022H     UNIT         ?PR?VALIDASENSOR_CERO?IO_SENSORES
            CODE    BC52H     0021H     UNIT         ?CO?PTO_PARALELO
            CODE    BC73H     0020H     UNIT         ?PR?ACKD?EEPROM
            CODE    BC93H     0020H     UNIT         ?PR?ACK_LECT?EEPROM
            CODE    BCB3H     001FH     UNIT         ?PR?VALIDASENSOR?IO_SENSORES
            CODE    BCD2H     001FH     UNIT         ?PR?TIME_BIT?TIBBO
            CODE    BCF1H     001EH     UNIT         ?PR?_BCD_HEX?CLOCK
            CODE    BD0FH     001BH     UNIT         ?PR?_DELAY_1MS?DELAY
            CODE    BD2AH     0018H     UNIT         ?PR?CLEAR_PLACA?MONITOR
            CODE    BD42H     0017H     UNIT         ?PR?DISPLAYCURSOR?PROG
            CODE    BD59H     0017H     UNIT         ?PR?TIME_MBIT?TIBBO
            CODE    BD70H     0016H     UNIT         ?PR?DIR_BOARD_MONITOR?IO_SENSORES
            CODE    BD86H     0014H     UNIT         ?CO?CLOCK
            CODE    BD9AH     0014H     UNIT         ?PR?_ISSPACE?ISSPACE
            CODE    BDAEH     0012H     UNIT         ?PR?_DELAY_20US?DELAY
            CODE    BDC0H     0012H     UNIT         ?PR?START?EEPROM
            CODE    BDD2H     0012H     UNIT         ?PR?BOTTON?IO_SENSORES
            CODE    BDE4H     0012H     UNIT         ?PR?PULSO_BUS?PTO_PARALELO
            CODE    BDF6H     0012H     UNIT         ?PR?COM_RBUFLEN?UART
            CODE    BE08H     0012H     UNIT         ?PR?COM_TBUFLEN?UART
            CODE    BE1AH     0010H     UNIT         ?PR?INI_TIMER?MAIN
            CODE    BE2AH     0010H     UNIT         ?PR?INICIA_BOARD?MAIN
            CODE    BE3AH     000FH     UNIT         ?PR?_ISDIGIT?ISDIGIT
            CODE    BE49H     000CH     UNIT         ?PR?_GETKEY?MAIN
            CODE    BE55H     000AH     UNIT         ?PR?STOP?EEPROM
            CODE    BE5FH     000AH     UNIT         ?PR?COND_INI_PTO?PTO_PARALELO
            CODE    BE69H     0009H     UNIT         ?PR?DEBUG_DIVIDIR_TEXTO?TIBBO
            CODE    BE72H     0009H     UNIT         ?PR?CAPTURA_EXPULSA?VERIFICADOR
            CODE    BE7BH     0007H     UNIT         ?PR?COND_INI_CLOCK?CLOCK
            CODE    BE82H     0007H     UNIT         ?PR?SEL_FUNCION?IO_SENSORES
            CODE    BE89H     0007H     UNIT         ?PR?SEL_AUTO?IO_SENSORES
            CODE    BE90H     0007H     UNIT         ?PR?SEL_PULSA?IO_SENSORES
            CODE    BE97H     0007H     UNIT         ?PR?SEL_SENSOR2?IO_SENSORES
            CODE    BE9EH     0007H     UNIT         ?PR?SEL_SENSOR1?IO_SENSORES
            CODE    BEA5H     0007H     UNIT         ?PR?SEL_DIR1?IO_SENSORES
            CODE    BEACH     0007H     UNIT         ?PR?SEL_DIR2?IO_SENSORES
            CODE    BEB3H     0006H     UNIT         ?PR?P_ME?EEPROM
            CODE    BEB9H     0005H     UNIT         ?PR?ON_TIMER0_INTERRUP?MAIN
            CODE    BEBEH     0005H     UNIT         ?CO?ACCESCAN
            CODE    BEC3H     0005H     UNIT         ?PR?COND_INI_TIBBO?TIBBO
            CODE    BEC8H     0003H     UNIT         ?PR?OFF_TIMER0_INTERRUP?MAIN
            CODE    BECBH     0001H     UNIT         ?PR?DELAY?DELAY



OVERLAY MAP OF MODULE:   .\Objects\expedidor_v_01_raspberry (MAIN)


SEGMENT                                             BIT_GROUP          DATA_GROUP          XDATA_GROUP
BL51 BANKED LINKER/LOCATER V6.22.2.0                                                  07/26/2021  14:55:02  PAGE 7


  +--> CALLED SEGMENT                            START    LENGTH     START    LENGTH     START    LENGTH
--------------------------------------------------------------------------------------------------------
?C_C51STARTUP                                    -----    -----      -----    -----      -----    -----
  +--> ?PR?MAIN?MAIN
  +--> ?C_INITSEG

?PR?MAIN?MAIN                                    -----    -----      -----    -----      0000H    0001H
  +--> ?PR?INI_TIMER?MAIN
  +--> ?PR?ON_TIMER0_INTERRUP?MAIN
  +--> ?PR?COM_INITIALIZE?UART
  +--> ?PR?COM_BAUDRATE?UART
  +--> ?PR?INICIA_BOARD?MAIN
  +--> ?PR?TIME_BIT?TIBBO
  +--> ?PR?_DELAY_20US?DELAY
  +--> ?PR?TIME_MBIT?TIBBO
  +--> ?PR?_TX_AUX?TIBBO
  +--> ?PR?SEL_FUNCION?IO_SENSORES
  +--> ?PR?MENU?PROG
  +--> ?PR?VARIABLE_INICIO?MAIN
  +--> ?PR?SECUENCIA_INICIO_EXPEDIDOR?VERIFI...
  +--> ?PR?RX_MONITOR?MONITOR
  +--> ?PR?_SECUENCIAEXPEDIDORMF?VERIFICADOR
  +--> ?PR?_RECIBE_PORT?PTO_PARALELO
  +--> ?PR?_DEBUG_PTO_PARALELO?TIBBO
  +--> ?PR?_VALIDA_TRAMA_PTO?ACCESCAN
  +--> ?PR?MSJ_LCD_INFORMATIVO?IO_SENSORES

?PR?COM_INITIALIZE?UART                          -----    -----      -----    -----      -----    -----
  +--> ?PR?COM_BAUDRATE?UART

?PR?INICIA_BOARD?MAIN                            -----    -----      -----    -----      -----    -----
  +--> ?PR?COND_INI_TIBBO?TIBBO
  +--> ?PR?COND_INI_CLOCK?CLOCK
  +--> ?PR?COND_INI_PTO?PTO_PARALELO

?PR?_TX_AUX?TIBBO                                -----    -----      -----    -----      -----    -----
  +--> ?PR?TIME_BIT?TIBBO

?PR?MENU?PROG                                    -----    -----      -----    -----      0001H    0045H
  +--> ?CO?PROG
  +--> ?PR?PRINTF?PRINTF
  +--> ?PR?_RD_EEPROM?EEPROM
  +--> ?PR?FIRST_CLAVE?PROG
  +--> ?PR?_WR_EEPROM?EEPROM
  +--> ?PR?_LEERMEMORIA?EEPROM
  +--> ?PR?_HASH_ID?PROG
  +--> ?PR?_INGRESADATO?PROG
  +--> ?PR?_GETCMD?PROG
  +--> ?PR?_ESCRIBIRMEMORIA?EEPROM
  +--> ?PR?_VALIDARCLAVE?PROG
  +--> ?PR?DISPLAYCURSOR?PROG
  +--> ?PR?_STRLEN?STRLEN
  +--> ?PR?_GETOPTION?PROG
  +--> ?PR?_STRCAT?STRCAT
  +--> ?PR?_LISTACOMANDOS?PROG
  +--> ?PR?PROG_ID_CLIENTE?PROG
  +--> ?PR?PROG_COD_PARK?PROG
BL51 BANKED LINKER/LOCATER V6.22.2.0                                                  07/26/2021  14:55:02  PAGE 8


  +--> ?PR?PROG_TIEMPO_GRACIA?PROG
  +--> ?PR?PROG_SIN_COBRO?PROG
  +--> ?PR?PROG_DEBUG?PROG
  +--> ?PR?PROG_USE_LPR?PROG
  +--> ?PR?TIPO_PANTALLA?PROG
  +--> ?PR?PROG_TARJETA_AUTOMATICA_O_BOTON?PROG
  +--> ?PR?PROG_ANTIPASSBACK?PROG
  +--> ?PR?PROG_PLACA?PROG
  +--> ?PR?PROG_ADDRESS_HIGH_BOARD?PROG
  +--> ?PR?PROG_HORARIOS?PROG
  +--> ?PR?PROG_VALIDAR_TIPO_VEHICULO_MENSUA...
  +--> ?PR?PROG_APB_MENSUAL?PROG
  +--> ?PR?VER_PROG?PROG
  +--> ?PR?SHOW?PROG
  +--> ?PR?PROG_FECHA_VENCIMIENTO?PROG

?PR?PRINTF?PRINTF                                0020H.0  0001H.1    0008H    0005H      0077H    0030H
  +--> ?PR?_PUTCHAR?MAIN

?PR?_PUTCHAR?MAIN                                -----    -----      -----    -----      00A7H    0003H
  +--> ?PR?_COM_PUTCHAR?UART

?PR?_COM_PUTCHAR?UART                            -----    -----      -----    -----      00AAH    0001H
  +--> ?PR?COM_TBUFLEN?UART

?PR?_RD_EEPROM?EEPROM                            -----    -----      -----    -----      -----    -----
  +--> ?PR?START?EEPROM
  +--> ?PR?ACK_LECT?EEPROM
  +--> ?PR?_E_D_M?EEPROM
  +--> ?PR?ACKD?EEPROM
  +--> ?PR?L_D_M?EEPROM
  +--> ?PR?STOP?EEPROM

?PR?ACK_LECT?EEPROM                              -----    -----      -----    -----      -----    -----
  +--> ?PR?_E_D_M?EEPROM

?PR?_E_D_M?EEPROM                                -----    -----      -----    -----      -----    -----
  +--> ?PR?P_ME?EEPROM

?PR?ACKD?EEPROM                                  -----    -----      -----    -----      -----    -----
  +--> ?PR?_E_D_M?EEPROM

?PR?FIRST_CLAVE?PROG                             -----    -----      -----    -----      0046H    000BH
  +--> ?PR?_BLOCK_READ_CLOCK_ASCII?CLOCK
  +--> ?PR?_HASH_ID?PROG
  +--> ?PR?_ESCRIBIRMEMORIA?EEPROM

?PR?_BLOCK_READ_CLOCK_ASCII?CLOCK                -----    -----      -----    -----      0051H    0003H
  +--> ?PR?_LEE_CLK?CLOCK

?PR?_LEE_CLK?CLOCK                               -----    -----      -----    -----      00B1H    0003H
  +--> ?PR?_DELAY_20US?DELAY
  +--> ?PR?_EB_CLK?CLOCK
  +--> ?PR?P_CK?CLOCK

?PR?_EB_CLK?CLOCK                                -----    -----      -----    -----      00B4H    0003H
  +--> ?PR?P_CK?CLOCK
BL51 BANKED LINKER/LOCATER V6.22.2.0                                                  07/26/2021  14:55:02  PAGE 9



?PR?P_CK?CLOCK                                   -----    -----      -----    -----      -----    -----
  +--> ?PR?DELAY?DELAY

?PR?_HASH_ID?PROG                                -----    -----      -----    -----      005DH    003FH
  +--> ?CO?PROG
  +--> ?PR?_LEERMEMORIA?EEPROM
  +--> ?PR?_CHECK_FECHAOUT?CLOCK
  +--> ?PR?_STRLEN?STRLEN

?PR?_LEERMEMORIA?EEPROM                          -----    -----      -----    -----      009CH    0005H
  +--> ?PR?_RD_EEPROM?EEPROM

?PR?_CHECK_FECHAOUT?CLOCK                        -----    -----      -----    -----      009CH    0012H
  +--> ?PR?_BLOCK_READ_CLOCK_HEX?CLOCK

?PR?_BLOCK_READ_CLOCK_HEX?CLOCK                  -----    -----      -----    -----      00AEH    0003H
  +--> ?PR?_LEE_CLK?CLOCK
  +--> ?PR?_BCD_HEX?CLOCK

?PR?_ESCRIBIRMEMORIA?EEPROM                      -----    -----      -----    -----      005DH    0005H
  +--> ?PR?_WR_EEPROM?EEPROM

?PR?_WR_EEPROM?EEPROM                            -----    -----      -----    -----      -----    -----
  +--> ?PR?START?EEPROM
  +--> ?PR?ACKD?EEPROM
  +--> ?PR?_E_D_M?EEPROM
  +--> ?PR?STOP?EEPROM
  +--> ?PR?_DELAY_1MS?DELAY
  +--> ?PR?_DELAY_20US?DELAY

?PR?_DELAY_1MS?DELAY                             -----    -----      -----    -----      -----    -----
  +--> ?PR?_DELAY_20US?DELAY

?PR?_INGRESADATO?PROG                            -----    -----      -----    -----      0071H    0004H
  +--> ?PR?_GETKEY?MAIN
  +--> ?CO?PROG
  +--> ?PR?PRINTF?PRINTF
  +--> ?PR?_PUTCHAR?MAIN

?PR?_GETKEY?MAIN                                 -----    -----      -----    -----      -----    -----
  +--> ?PR?COM_GETCHAR?UART

?PR?COM_GETCHAR?UART                             -----    -----      -----    -----      -----    -----
  +--> ?PR?COM_RBUFLEN?UART

?PR?_GETCMD?PROG                                 -----    -----      -----    -----      005DH    0007H
  +--> ?CO?PROG
  +--> ?PR?_STRTOK?STRTOK

?PR?_STRTOK?STRTOK                               -----    -----      -----    -----      0064H    0006H
  +--> ?PR?_STRSPN?STRSPN
  +--> ?PR?_STRPBRK?STRPBRK

?PR?_STRSPN?STRSPN                               -----    -----      -----    -----      006AH    0008H

?PR?_STRPBRK?STRPBRK                             -----    -----      -----    -----      006AH    0009H
BL51 BANKED LINKER/LOCATER V6.22.2.0                                                  07/26/2021  14:55:02  PAGE 10



?PR?_VALIDARCLAVE?PROG                           -----    -----      -----    -----      005DH    000EH

?PR?DISPLAYCURSOR?PROG                           -----    -----      -----    -----      -----    -----
  +--> ?CO?PROG
  +--> ?PR?PRINTF?PRINTF

?PR?_GETOPTION?PROG                              -----    -----      -----    -----      0046H    000BH
  +--> ?CO?PROG
  +--> ?PR?_STRTOK?STRTOK

?PR?_STRCAT?STRCAT                               -----    -----      -----    -----      0046H    0009H

?PR?_LISTACOMANDOS?PROG                          -----    -----      -----    -----      0046H    0007H

?PR?PROG_ID_CLIENTE?PROG                         -----    -----      -----    -----      0046H    000CH
  +--> ?PR?_RD_EEPROM?EEPROM
  +--> ?CO?PROG
  +--> ?PR?PRINTF?PRINTF
  +--> ?PR?_INGRESADATO?PROG
  +--> ?PR?_ATOI?ATOI
  +--> ?PR?_WR_EEPROM?EEPROM

?PR?_ATOI?ATOI                                   0020H.0  0000H.1    -----    -----      0071H    0005H
  +--> ?PR?_ISSPACE?ISSPACE
  +--> ?PR?_ISDIGIT?ISDIGIT

?PR?PROG_COD_PARK?PROG                           -----    -----      -----    -----      0046H    000CH
  +--> ?PR?_RD_EEPROM?EEPROM
  +--> ?CO?PROG
  +--> ?PR?PRINTF?PRINTF
  +--> ?PR?_INGRESADATO?PROG
  +--> ?PR?_ATOI?ATOI
  +--> ?PR?_WR_EEPROM?EEPROM

?PR?PROG_TIEMPO_GRACIA?PROG                      -----    -----      -----    -----      0046H    000CH
  +--> ?PR?_RD_EEPROM?EEPROM
  +--> ?CO?PROG
  +--> ?PR?PRINTF?PRINTF
  +--> ?PR?_INGRESADATO?PROG
  +--> ?PR?_ATOI?ATOI
  +--> ?PR?_WR_EEPROM?EEPROM

?PR?PROG_SIN_COBRO?PROG                          -----    -----      -----    -----      0046H    000CH
  +--> ?PR?_RD_EEPROM?EEPROM
  +--> ?CO?PROG
  +--> ?PR?PRINTF?PRINTF
  +--> ?PR?_INGRESADATO?PROG
  +--> ?PR?_ATOI?ATOI
  +--> ?PR?_WR_EEPROM?EEPROM

?PR?PROG_DEBUG?PROG                              -----    -----      -----    -----      0046H    000CH
  +--> ?PR?_RD_EEPROM?EEPROM
  +--> ?CO?PROG
  +--> ?PR?PRINTF?PRINTF
  +--> ?PR?_INGRESADATO?PROG
  +--> ?PR?_ATOI?ATOI
BL51 BANKED LINKER/LOCATER V6.22.2.0                                                  07/26/2021  14:55:02  PAGE 11


  +--> ?PR?_WR_EEPROM?EEPROM

?PR?PROG_USE_LPR?PROG                            -----    -----      -----    -----      0046H    000CH
  +--> ?PR?_RD_EEPROM?EEPROM
  +--> ?CO?PROG
  +--> ?PR?PRINTF?PRINTF
  +--> ?PR?_INGRESADATO?PROG
  +--> ?PR?_ATOI?ATOI
  +--> ?PR?_WR_EEPROM?EEPROM

?PR?TIPO_PANTALLA?PROG                           -----    -----      -----    -----      0046H    000CH
  +--> ?PR?_RD_EEPROM?EEPROM
  +--> ?CO?PROG
  +--> ?PR?PRINTF?PRINTF
  +--> ?PR?_INGRESADATO?PROG
  +--> ?PR?_ATOI?ATOI
  +--> ?PR?_WR_EEPROM?EEPROM

?PR?PROG_TARJETA_AUTOMATICA_O_BOTON?PROG         -----    -----      -----    -----      0046H    000CH
  +--> ?PR?_RD_EEPROM?EEPROM
  +--> ?CO?PROG
  +--> ?PR?PRINTF?PRINTF
  +--> ?PR?_INGRESADATO?PROG
  +--> ?PR?_ATOI?ATOI
  +--> ?PR?_WR_EEPROM?EEPROM

?PR?PROG_ANTIPASSBACK?PROG                       -----    -----      -----    -----      0046H    000CH
  +--> ?PR?_RD_EEPROM?EEPROM
  +--> ?CO?PROG
  +--> ?PR?PRINTF?PRINTF
  +--> ?PR?_INGRESADATO?PROG
  +--> ?PR?_ATOI?ATOI
  +--> ?PR?_WR_EEPROM?EEPROM

?PR?PROG_PLACA?PROG                              -----    -----      -----    -----      0046H    000CH
  +--> ?PR?_RD_EEPROM?EEPROM
  +--> ?CO?PROG
  +--> ?PR?PRINTF?PRINTF
  +--> ?PR?_INGRESADATO?PROG
  +--> ?PR?_ATOI?ATOI
  +--> ?PR?_WR_EEPROM?EEPROM

?PR?PROG_ADDRESS_HIGH_BOARD?PROG                 -----    -----      -----    -----      0046H    000CH
  +--> ?PR?_RD_EEPROM?EEPROM
  +--> ?CO?PROG
  +--> ?PR?PRINTF?PRINTF
  +--> ?PR?_INGRESADATO?PROG
  +--> ?PR?_ATOI?ATOI
  +--> ?PR?_WR_EEPROM?EEPROM

?PR?PROG_HORARIOS?PROG                           -----    -----      -----    -----      0046H    001BH
  +--> ?PR?ADDR_HORARIOS?PROG
  +--> ?CO?PROG
  +--> ?PR?PRINTF?PRINTF
  +--> ?PR?_INGRESADATO?PROG
  +--> ?PR?_ATOI?ATOI
  +--> ?PR?_PROG_HORARIOS_ON_OFF?PROG
BL51 BANKED LINKER/LOCATER V6.22.2.0                                                  07/26/2021  14:55:02  PAGE 12


  +--> ?PR?_WR_EEPROM?EEPROM
  +--> ?PR?_PROG_HORARIO_DIAS?PROG
  +--> ?PR?_PROG_HORARIO_DESDE_HASTA?PROG
  +--> ?PR?_RD_EEPROM?EEPROM

?PR?ADDR_HORARIOS?PROG                           -----    -----      -----    -----      0074H    000BH

?PR?_PROG_HORARIOS_ON_OFF?PROG                   -----    -----      -----    -----      0061H    0010H
  +--> ?PR?_RD_EEPROM?EEPROM
  +--> ?CO?PROG
  +--> ?PR?PRINTF?PRINTF
  +--> ?PR?_INGRESADATO?PROG
  +--> ?PR?_ATOI?ATOI
  +--> ?PR?_WR_EEPROM?EEPROM

?PR?_PROG_HORARIO_DIAS?PROG                      -----    -----      -----    -----      0061H    000FH
  +--> ?CO?PROG
  +--> ?PR?PRINTF?PRINTF
  +--> ?PR?_INGRESADATO?PROG
  +--> ?PR?_WR_EEPROM?EEPROM
  +--> ?PR?_RD_EEPROM?EEPROM

?PR?_PROG_HORARIO_DESDE_HASTA?PROG               -----    -----      -----    -----      0061H    000CH
  +--> ?CO?PROG
  +--> ?PR?PRINTF?PRINTF
  +--> ?PR?_INGRESADATO?PROG
  +--> ?PR?_WR_EEPROM?EEPROM
  +--> ?PR?_RD_EEPROM?EEPROM

?PR?PROG_VALIDAR_TIPO_VEHICULO_MENSUA...         -----    -----      -----    -----      0046H    000CH
  +--> ?PR?_RD_EEPROM?EEPROM
  +--> ?CO?PROG
  +--> ?PR?PRINTF?PRINTF
  +--> ?PR?_INGRESADATO?PROG
  +--> ?PR?_ATOI?ATOI
  +--> ?PR?_WR_EEPROM?EEPROM

?PR?PROG_APB_MENSUAL?PROG                        -----    -----      -----    -----      0046H    000CH
  +--> ?PR?_RD_EEPROM?EEPROM
  +--> ?CO?PROG
  +--> ?PR?PRINTF?PRINTF
  +--> ?PR?_INGRESADATO?PROG
  +--> ?PR?_ATOI?ATOI
  +--> ?PR?_WR_EEPROM?EEPROM

?PR?VER_PROG?PROG                                -----    -----      -----    -----      0046H    0013H
  +--> ?PR?_RD_EEPROM?EEPROM
  +--> ?CO?PROG
  +--> ?PR?PRINTF?PRINTF
  +--> ?PR?VER_HORARIO?PROG
  +--> ?PR?_LEERMEMORIA?EEPROM
  +--> ?PR?_HEX_ASCII?CLOCK

?PR?VER_HORARIO?PROG                             -----    -----      -----    -----      0059H    001BH
  +--> ?PR?ADDR_HORARIOS?PROG
  +--> ?CO?PROG
  +--> ?PR?PRINTF?PRINTF
BL51 BANKED LINKER/LOCATER V6.22.2.0                                                  07/26/2021  14:55:02  PAGE 13


  +--> ?PR?_RD_EEPROM?EEPROM
  +--> ?PR?_VER_HORARIO_DIAS?PROG
  +--> ?PR?_VER_HORARIO_DESDE_HASTA?PROG

?PR?_VER_HORARIO_DIAS?PROG                       -----    -----      -----    -----      0074H    0003H
  +--> ?PR?_RD_EEPROM?EEPROM
  +--> ?CO?PROG
  +--> ?PR?PRINTF?PRINTF

?PR?_VER_HORARIO_DESDE_HASTA?PROG                -----    -----      -----    -----      0074H    0002H
  +--> ?CO?PROG
  +--> ?PR?PRINTF?PRINTF
  +--> ?PR?_RD_EEPROM?EEPROM

?PR?_HEX_ASCII?CLOCK                             -----    -----      -----    -----      005DH    0006H
  +--> ?PR?_HEX_BCD?CLOCK

?PR?SHOW?PROG                                    -----    -----      -----    -----      -----    -----
  +--> ?CO?PROG
  +--> ?PR?PRINTF?PRINTF

?PR?PROG_FECHA_VENCIMIENTO?PROG                  -----    -----      -----    -----      0046H    0017H
  +--> ?PR?_LEERMEMORIA?EEPROM
  +--> ?PR?_HEX_ASCII?CLOCK
  +--> ?CO?PROG
  +--> ?PR?PRINTF?PRINTF
  +--> ?PR?_HASH_ID?PROG
  +--> ?PR?_INGRESADATO?PROG
  +--> ?PR?_GETCMD?PROG
  +--> ?PR?_ESCRIBIRMEMORIA?EEPROM
  +--> ?PR?_VALIDARCLAVE?PROG
  +--> ?PR?_ATOI?ATOI
  +--> ?PR?_WR_EEPROM?EEPROM

?PR?VARIABLE_INICIO?MAIN                         -----    -----      -----    -----      -----    -----
  +--> ?PR?_RD_EEPROM?EEPROM

?PR?SECUENCIA_INICIO_EXPEDIDOR?VERIFI...         -----    -----      -----    -----      0001H    0001H
  +--> ?PR?_INICIALIZA?LINTECH
  +--> ?PR?TRAMA_VALIDACION_P_N?VERIFICADOR
  +--> ?CO?VERIFICADOR
  +--> ?PR?_DEBUG_TXT_TIBBO?TIBBO
  +--> ?PR?_DEBUGBUFFERMF?TIBBO
  +--> ?PR?DWLOAD_EEPROM?LINTECH

?PR?_INICIALIZA?LINTECH                          -----    -----      -----    -----      0002H    000CH
  +--> ?CO?LINTECH
  +--> ?PR?_DEBUG_TXT_TIBBO?TIBBO
  +--> ?PR?_DEBUGBUFFERMF?TIBBO
  +--> ?PR?_ESCRIBIRCADENASOFT_BUFFER?MAIN

?PR?_DEBUG_TXT_TIBBO?TIBBO                       -----    -----      -----    -----      004EH    0004H
  +--> ?PR?_DEBUG_CHR_TIBBO?TIBBO
  +--> ?CO?TIBBO
  +--> ?PR?_TX_AUX?TIBBO

?PR?_DEBUG_CHR_TIBBO?TIBBO                       -----    -----      -----    -----      -----    -----
BL51 BANKED LINKER/LOCATER V6.22.2.0                                                  07/26/2021  14:55:02  PAGE 14


  +--> ?PR?_TX_AUX?TIBBO

?PR?_DEBUGBUFFERMF?TIBBO                         -----    -----      -----    -----      0027H    0006H
  +--> ?CO?TIBBO
  +--> ?PR?_DEBUG_TXT_TIBBO?TIBBO
  +--> ?PR?_DEBUG_CHR_TIBBO?TIBBO
  +--> ?PR?_TX_AUX?TIBBO

?PR?_ESCRIBIRCADENASOFT_BUFFER?MAIN              -----    -----      -----    -----      0027H    0006H
  +--> ?PR?_PUTCHAR?MAIN

?PR?TRAMA_VALIDACION_P_N?VERIFICADOR             -----    -----      -----    -----      -----    -----
  +--> ?CO?VERIFICADOR
  +--> ?PR?_DEBUG_TXT_TIBBO?TIBBO

?PR?DWLOAD_EEPROM?LINTECH                        -----    -----      -----    -----      0002H    0016H
  +--> ?CO?LINTECH
  +--> ?PR?_DEBUG_TXT_TIBBO?TIBBO
  +--> ?PR?_DEBUGBUFFERMF?TIBBO
  +--> ?PR?_ESCRIBIRCADENASOFT_BUFFER?MAIN

?PR?RX_MONITOR?MONITOR                           -----    -----      -----    -----      0009H    000DH
  +--> ?PR?_RECIBE_CMD_MONITOR?MONITOR
  +--> ?PR?_DEBUG_MONITOR?TIBBO
  +--> ?PR?_VALIDA_TRAMA_MONITOR?MONITOR

?PR?_RECIBE_CMD_MONITOR?MONITOR                  -----    -----      -----    -----      0016H    0009H
  +--> ?PR?RX_DATA?TIBBO

?PR?RX_DATA?TIBBO                                -----    -----      -----    -----      -----    -----
  +--> ?PR?TIME_MBIT?TIBBO
  +--> ?PR?TIME_BIT?TIBBO

?PR?_DEBUG_MONITOR?TIBBO                         -----    -----      -----    -----      0016H    0004H
  +--> ?PR?DEBUG_DIVIDIR_TEXTO?TIBBO
  +--> ?CO?TIBBO
  +--> ?PR?_DEBUG_TXT_TIBBO?TIBBO

?PR?DEBUG_DIVIDIR_TEXTO?TIBBO                    -----    -----      -----    -----      -----    -----
  +--> ?CO?TIBBO
  +--> ?PR?_DEBUG_TXT_TIBBO?TIBBO

?PR?_VALIDA_TRAMA_MONITOR?MONITOR                -----    -----      -----    -----      0016H    0006H
  +--> ?PR?_DELAY_10MS?DELAY
  +--> ?PR?_TX_AUX?TIBBO

?PR?_DELAY_10MS?DELAY                            -----    -----      -----    -----      001CH    0004H
  +--> ?PR?_DELAY_1MS?DELAY

?PR?_SECUENCIAEXPEDIDORMF?VERIFICADOR            -----    -----      -----    -----      0001H    0001H
  +--> ?PR?_CHECK_STATUS?LINTECH
  +--> ?PR?_LOAD_SECUENCIA_EXPEDIDOR?VERIFIC...
  +--> ?PR?RX_MONITOR?MONITOR
  +--> ?PR?_RTA_CMD_TRANSPORTE?VERIFICADOR
  +--> ?PR?_MOV_CARD?LINTECH
  +--> ?PR?_CARD_INSERCION?LINTECH
  +--> ?PR?AUT_CARD_CHECK_STATUS?LINTECH
BL51 BANKED LINKER/LOCATER V6.22.2.0                                                  07/26/2021  14:55:02  PAGE 15


  +--> ?PR?LOADVERIFY_EEPROM?LINTECH
  +--> ?PR?_RD_MF?LINTECH
  +--> ?PR?_WR_MF?LINTECH
  +--> ?PR?ANALIZA_CARD_MOUNT_RF?VERIFICADOR
  +--> ?PR?DWLOAD_EEPROM?LINTECH
  +--> ?PR?ENTREGA_CARD_CAPTURA?VERIFICADOR
  +--> ?PR?_SEND_PTO_PARALELO?VERIFICADOR
  +--> ?PR?_WAIT_PLACA?VERIFICADOR
  +--> ?PR?UNIQUE_IDENTIFIER_UID?LINTECH
  +--> ?PR?_PREGUNTA_LPR?VERIFICADOR
  +--> ?PR?PREGUNTA_PLACA?VERIFICADOR
  +--> ?PR?_VALIDA_TIPO_TARJETA?VERIFICADOR
  +--> ?PR?POWER_OFF?LINTECH
  +--> ?PR?CLAVE_SEGURIDAD_S2?LINTECH
  +--> ?PR?_RESPONDE_REELECTURA_TARJETA_SECT...
  +--> ?PR?RESPONDE_ESTADO_SENSORES_TRANSPOR...
  +--> ?PR?RESPONDE_TIPO_TARJETA?VERIFICADOR
  +--> ?PR?_RESPONDE_LECTURA_TARJETA_SECTOR1...
  +--> ?PR?_RESPONDE_LECTURA_TARJETA_SECTOR1...
  +--> ?PR?_RESPONDE_LECTURA_TARJETA_SECTOR1...
  +--> ?PR?_RESPONDE_WRITE_TARJETA_SECTOR1_B...
  +--> ?PR?_RESPONDE_WRITE_TARJETA_SECTOR2_B...
  +--> ?PR?_RESPONDE_WRITE_TARJETA_SECTOR1_B...
  +--> ?PR?_RESPONDE_WRITE_TARJETA_SECTOR1_B...
  +--> ?PR?_DISPARO_LOCK_ENTRADA_VEHICULO?VE...
  +--> ?PR?_RESPUESTA_SEGUNDA_CLAVE?VERIFICADOR
  +--> ?PR?ANALIZA_PRESENCIA_MENSUAL?VERIFIC...
  +--> ?PR?_ANALIZA_UID_CARD?VERIFICADOR
  +--> ?PR?ANALIZA_PRESENCIA_ROTACION?VERIFI...
  +--> ?CO?VERIFICADOR
  +--> ?PR?_DEBUG_TXT_TIBBO?TIBBO

?PR?_CHECK_STATUS?LINTECH                        -----    -----      -----    -----      0002H    000BH
  +--> ?CO?LINTECH
  +--> ?PR?_DEBUG_TXT_TIBBO?TIBBO
  +--> ?PR?_DEBUGBUFFERMF?TIBBO
  +--> ?PR?_ESCRIBIRCADENASOFT_BUFFER?MAIN

?PR?_LOAD_SECUENCIA_EXPEDIDOR?VERIFIC...         -----    -----      -----    -----      0002H    0009H

?PR?_RTA_CMD_TRANSPORTE?VERIFICADOR              -----    -----      -----    -----      0002H    0005H
  +--> ?PR?TRAMA_VALIDACION_P_N?VERIFICADOR
  +--> ?CO?VERIFICADOR
  +--> ?PR?_DEBUG_TXT_TIBBO?TIBBO
  +--> ?PR?_DEBUGBUFFERMF?TIBBO
  +--> ?PR?ERROR_RX_PTO?VERIFICADOR

?PR?ERROR_RX_PTO?VERIFICADOR                     -----    -----      -----    -----      0007H    0001H
  +--> ?CO?VERIFICADOR
  +--> ?PR?_DEBUG_TXT_TIBBO?TIBBO
  +--> ?PR?_DEBUG_CHR_TIBBO?TIBBO
  +--> ?PR?_DELAY_10MS?DELAY

?PR?_MOV_CARD?LINTECH                            -----    -----      -----    -----      0002H    000CH
  +--> ?CO?LINTECH
  +--> ?PR?_DEBUG_TXT_TIBBO?TIBBO
  +--> ?PR?_DEBUGBUFFERMF?TIBBO
BL51 BANKED LINKER/LOCATER V6.22.2.0                                                  07/26/2021  14:55:02  PAGE 16


  +--> ?PR?_ESCRIBIRCADENASOFT_BUFFER?MAIN

?PR?_CARD_INSERCION?LINTECH                      -----    -----      -----    -----      0002H    000AH
  +--> ?CO?LINTECH
  +--> ?PR?_DEBUG_TXT_TIBBO?TIBBO
  +--> ?PR?_DEBUGBUFFERMF?TIBBO
  +--> ?PR?_ESCRIBIRCADENASOFT_BUFFER?MAIN

?PR?AUT_CARD_CHECK_STATUS?LINTECH                -----    -----      -----    -----      0002H    000BH
  +--> ?CO?LINTECH
  +--> ?PR?_DEBUG_TXT_TIBBO?TIBBO
  +--> ?PR?_DEBUGBUFFERMF?TIBBO
  +--> ?PR?_ESCRIBIRCADENASOFT_BUFFER?MAIN

?PR?LOADVERIFY_EEPROM?LINTECH                    -----    -----      -----    -----      0002H    0010H
  +--> ?CO?LINTECH
  +--> ?PR?_DEBUG_TXT_TIBBO?TIBBO
  +--> ?PR?_DEBUGBUFFERMF?TIBBO
  +--> ?PR?_ESCRIBIRCADENASOFT_BUFFER?MAIN

?PR?_RD_MF?LINTECH                               -----    -----      -----    -----      0002H    0012H
  +--> ?CO?LINTECH
  +--> ?PR?_DEBUG_TXT_TIBBO?TIBBO
  +--> ?PR?_DEBUG_CHR_TIBBO?TIBBO
  +--> ?PR?_DEBUGBUFFERMF?TIBBO
  +--> ?PR?_ESCRIBIRCADENASOFT_BUFFER?MAIN

?PR?_WR_MF?LINTECH                               -----    -----      -----    -----      0002H    0025H
  +--> ?CO?LINTECH
  +--> ?PR?_DEBUG_TXT_TIBBO?TIBBO
  +--> ?PR?_DEBUG_CHR_TIBBO?TIBBO
  +--> ?PR?_DEBUGBUFFERMF?TIBBO
  +--> ?PR?_ESCRIBIRCADENASOFT_BUFFER?MAIN

?PR?ANALIZA_CARD_MOUNT_RF?VERIFICADOR            -----    -----      -----    -----      0002H    0001H
  +--> ?CO?VERIFICADOR
  +--> ?PR?_DEBUG_TXT_TIBBO?TIBBO

?PR?ENTREGA_CARD_CAPTURA?VERIFICADOR             -----    -----      -----    -----      0002H    0001H
  +--> ?CO?VERIFICADOR
  +--> ?PR?_DEBUG_TXT_TIBBO?TIBBO
  +--> ?PR?SEL_SENSOR2?IO_SENSORES
  +--> ?PR?VALIDASENSOR?IO_SENSORES
  +--> ?PR?VALIDA_SENSOR1_AUTO?IO_SENSORES

?PR?VALIDA_SENSOR1_AUTO?IO_SENSORES              -----    -----      -----    -----      0011H    0001H
  +--> ?PR?SEL_SENSOR1?IO_SENSORES
  +--> ?PR?SEL_AUTO?IO_SENSORES
  +--> ?CO?IO_SENSORES
  +--> ?PR?_DEBUG_TXT_TIBBO?TIBBO
  +--> ?PR?BOTTON?IO_SENSORES

?PR?BOTTON?IO_SENSORES                           -----    -----      -----    -----      -----    -----
  +--> ?PR?SEL_PULSA?IO_SENSORES
  +--> ?CO?IO_SENSORES
  +--> ?PR?_DEBUG_TXT_TIBBO?TIBBO

BL51 BANKED LINKER/LOCATER V6.22.2.0                                                  07/26/2021  14:55:02  PAGE 17


?PR?_SEND_PTO_PARALELO?VERIFICADOR               -----    -----      -----    -----      0002H    0007H
  +--> ?PR?_ARMAR_TRAMA_PTO_PARALELO_EXPEDID...
  +--> ?PR?_ARMAR_TRAMA_PTO_PARALELO_EXPEDID...
  +--> ?PR?INCREMENTE_TICKET?EEPROM
  +--> ?PR?_SEND_PORT?PTO_PARALELO
  +--> ?CO?VERIFICADOR
  +--> ?PR?_DEBUG_TXT_TIBBO?TIBBO
  +--> ?PR?_DEBUGBUFFERMF?TIBBO
  +--> ?PR?CLEAR_PLACA?MONITOR

?PR?_ARMAR_TRAMA_PTO_PARALELO_EXPEDID...         -----    -----      -----    -----      0009H    0006H
  +--> ?PR?_RD_EEPROM?EEPROM

?PR?_ARMAR_TRAMA_PTO_PARALELO_EXPEDID...         -----    -----      -----    -----      0009H    0012H
  +--> ?PR?LEE_NO_TICKET?EEPROM
  +--> ?PR?_STRCAT?STRCAT
  +--> ?PR?_STRLEN?STRLEN
  +--> ?PR?_RD_EEPROM?EEPROM

?PR?LEE_NO_TICKET?EEPROM                         -----    -----      -----    -----      0043H    000BH
  +--> ?PR?READ_EEPROM_TICKET?EEPROM
  +--> ?CO?EEPROM
  +--> ?PR?PRINTF?PRINTF
  +--> ?PR?_STRLEN?STRLEN
  +--> ?PR?_DEBUG_TXT_TIBBO?TIBBO

?PR?READ_EEPROM_TICKET?EEPROM                    -----    -----      -----    -----      004EH    0007H
  +--> ?PR?_RD_EEPROM?EEPROM

?PR?INCREMENTE_TICKET?EEPROM                     -----    -----      -----    -----      0009H    000BH
  +--> ?PR?READ_EEPROM_TICKET?EEPROM
  +--> ?CO?EEPROM
  +--> ?PR?PRINTF?PRINTF
  +--> ?PR?_WRITE_EEPROM_TICKET?EEPROM

?PR?_WRITE_EEPROM_TICKET?EEPROM                  -----    -----      -----    -----      0015H    000BH
  +--> ?CO?EEPROM
  +--> ?PR?_DEBUG_TXT_TIBBO?TIBBO
  +--> ?PR?_ATOL?ATOL
  +--> ?PR?_DEBUG_CHR_TIBBO?TIBBO
  +--> ?PR?_WR_EEPROM?EEPROM

?PR?_ATOL?ATOL                                   0020H.0  0000H.1    -----    -----      0020H    0007H
  +--> ?PR?_ISSPACE?ISSPACE
  +--> ?PR?_ISDIGIT?ISDIGIT

?PR?_SEND_PORT?PTO_PARALELO                      -----    -----      -----    -----      0016H    000AH
  +--> ?PR?PULSO_BUS?PTO_PARALELO
  +--> ?PR?_DELAY_20US?DELAY

?PR?PULSO_BUS?PTO_PARALELO                       -----    -----      -----    -----      -----    -----
  +--> ?PR?_DELAY_20US?DELAY

?PR?_WAIT_PLACA?VERIFICADOR                      -----    -----      -----    -----      0002H    0007H
  +--> ?CO?VERIFICADOR
  +--> ?PR?_DEBUG_TXT_TIBBO?TIBBO
  +--> ?PR?RX_MONITOR?MONITOR
BL51 BANKED LINKER/LOCATER V6.22.2.0                                                  07/26/2021  14:55:02  PAGE 18


  +--> ?PR?_RESPUESTA_PLACA_CANCEL?VERIFICADOR

?PR?_RESPUESTA_PLACA_CANCEL?VERIFICADOR          -----    -----      -----    -----      0009H    000AH
  +--> ?CO?VERIFICADOR
  +--> ?PR?_DEBUG_TXT_TIBBO?TIBBO
  +--> ?PR?_ARMAR_TRAMA_TARJETA_SECTOR1_BLOQ...

?PR?_ARMAR_TRAMA_TARJETA_SECTOR1_BLOQ...         -----    -----      -----    -----      0013H    0004H
  +--> ?PR?CLEAR_PLACA?MONITOR
  +--> ?PR?_RD_EEPROM?EEPROM

?PR?UNIQUE_IDENTIFIER_UID?LINTECH                -----    -----      -----    -----      0002H    000BH
  +--> ?CO?LINTECH
  +--> ?PR?_DEBUG_TXT_TIBBO?TIBBO
  +--> ?PR?_DEBUGBUFFERMF?TIBBO
  +--> ?PR?_ESCRIBIRCADENASOFT_BUFFER?MAIN

?PR?_PREGUNTA_LPR?VERIFICADOR                    -----    -----      -----    -----      0002H    0003H
  +--> ?CO?VERIFICADOR
  +--> ?PR?_DEBUG_TXT_TIBBO?TIBBO
  +--> ?PR?_RD_EEPROM?EEPROM
  +--> ?PR?_ARMAR_TRAMA_MONITOR?VERIFICADOR

?PR?_ARMAR_TRAMA_MONITOR?VERIFICADOR             -----    -----      -----    -----      0005H    000FH
  +--> ?PR?DIR_BOARD_MONITOR?IO_SENSORES
  +--> ?PR?LEE_NO_TICKET?EEPROM
  +--> ?PR?_STRCAT?STRCAT
  +--> ?PR?_BYTEHEX_DECIMAL?CLOCK
  +--> ?PR?_STRLEN?STRLEN
  +--> ?PR?_TWO_BYTEHEX_DECIMAL?CLOCK
  +--> ?PR?_BLOCK_READ_CLOCK_ASCII?CLOCK

?PR?DIR_BOARD_MONITOR?IO_SENSORES                -----    -----      -----    -----      -----    -----
  +--> ?PR?_RD_EEPROM?EEPROM

?PR?_BYTEHEX_DECIMAL?CLOCK                       -----    -----      -----    -----      0014H    0001H

?PR?_TWO_BYTEHEX_DECIMAL?CLOCK                   -----    -----      -----    -----      0014H    000CH
  +--> ?PR?_POW?POW

?PR?_POW?POW                                     -----    -----      -----    -----      0020H    000AH
  +--> ?PR?LOG?LOG
  +--> ?PR?EXP?EXP

?PR?LOG?LOG                                      0020H.0  0000H.1    -----    -----      002AH    0004H

?PR?PREGUNTA_PLACA?VERIFICADOR                   -----    -----      -----    -----      0002H    0001H
  +--> ?CO?VERIFICADOR
  +--> ?PR?_DEBUG_TXT_TIBBO?TIBBO
  +--> ?PR?_RD_EEPROM?EEPROM

?PR?_VALIDA_TIPO_TARJETA?VERIFICADOR             -----    -----      -----    -----      0002H    0007H
  +--> ?CO?VERIFICADOR
  +--> ?PR?_DEBUG_TXT_TIBBO?TIBBO
  +--> ?PR?_RD_EEPROM?EEPROM
  +--> ?PR?_TARJETA_MENSUAL?VERIFICADOR
  +--> ?PR?_SEND_PORTERR?PTO_PARALELO
BL51 BANKED LINKER/LOCATER V6.22.2.0                                                  07/26/2021  14:55:02  PAGE 19


  +--> ?PR?_PANTALLALCD?PANTALLAS
  +--> ?PR?CAPTURA_EXPULSA?VERIFICADOR
  +--> ?PR?_TARJETA_ROTACION?VERIFICADOR

?PR?_TARJETA_MENSUAL?VERIFICADOR                 -----    -----      -----    -----      0009H    0007H
  +--> ?PR?_HORARIOS?VERIFICADOR
  +--> ?PR?_CHECK_FECHAOUT?CLOCK
  +--> ?PR?_VALIDA_VEHICULO_CARD_MENSUAL?VER...
  +--> ?PR?CAPTURA_EXPULSA?VERIFICADOR
  +--> ?CO?VERIFICADOR
  +--> ?PR?_DEBUG_TXT_TIBBO?TIBBO
  +--> ?PR?_ARMAR_TRAMA_TARJETA_SECTOR1_BLOQ...
  +--> ?PR?_SEND_PORTERR?PTO_PARALELO
  +--> ?PR?_PANTALLALCD?PANTALLAS

?PR?_HORARIOS?VERIFICADOR                        -----    -----      -----    -----      0010H    0013H
  +--> ?PR?ADDR_HORARIOS?PROG
  +--> ?PR?_RD_EEPROM?EEPROM
  +--> ?PR?_LEE_CLK?CLOCK
  +--> ?CO?VERIFICADOR
  +--> ?PR?_DEBUG_TXT_TIBBO?TIBBO
  +--> ?PR?_DEBUG_CHR_TIBBO?TIBBO
  +--> ?PR?_BLOQUE_HORARIO?VERIFICADOR
  +--> ?PR?_PANTALLALCD?PANTALLAS

?PR?_BLOQUE_HORARIO?VERIFICADOR                  -----    -----      -----    -----      0023H    0007H
  +--> ?CO?VERIFICADOR
  +--> ?PR?_DEBUG_TXT_TIBBO?TIBBO
  +--> ?PR?_LEE_CLK?CLOCK
  +--> ?PR?_DEBUG_CHR_TIBBO?TIBBO
  +--> ?PR?_HORA_MAXIMA?VERIFICADOR
  +--> ?PR?_EN_HORARIO?VERIFICADOR
  +--> ?PR?_RD_EEPROM?EEPROM
  +--> ?PR?_SEND_PORTERR?PTO_PARALELO
  +--> ?PR?_PANTALLALCD?PANTALLAS

?PR?_HORA_MAXIMA?VERIFICADOR                     -----    -----      -----    -----      002FH    0008H
  +--> ?PR?_RD_EEPROM?EEPROM
  +--> ?PR?_DEBUG_CHR_TIBBO?TIBBO
  +--> ?CO?VERIFICADOR
  +--> ?PR?_DEBUG_TXT_TIBBO?TIBBO

?PR?_EN_HORARIO?VERIFICADOR                      -----    -----      -----    -----      002AH    0005H
  +--> ?CO?VERIFICADOR
  +--> ?PR?_DEBUG_TXT_TIBBO?TIBBO
  +--> ?PR?_HORA_MAXIMA?VERIFICADOR

?PR?_SEND_PORTERR?PTO_PARALELO                   -----    -----      -----    -----      002AH    0006H
  +--> ?PR?PULSO_BUS?PTO_PARALELO
  +--> ?PR?_DELAY_20US?DELAY

?PR?_PANTALLALCD?PANTALLAS                       -----    -----      -----    -----      002AH    000AH
  +--> ?CO?PANTALLAS
  +--> ?PR?_LCD_TXT?PANTALLAS
  +--> ?PR?_STRLEN?STRLEN
  +--> ?PR?_TX_CHRLCD?PANTALLAS
  +--> ?PR?_RASPBERRY_DATA?PANTALLAS
BL51 BANKED LINKER/LOCATER V6.22.2.0                                                  07/26/2021  14:55:02  PAGE 20



?PR?_LCD_TXT?PANTALLAS                           -----    -----      -----    -----      0043H    0005H
  +--> ?PR?_TX_CHRLCD?PANTALLAS

?PR?_TX_CHRLCD?PANTALLAS                         -----    -----      -----    -----      0048H    0002H
  +--> ?PR?_PUTCHAR?MAIN

?PR?_RASPBERRY_DATA?PANTALLAS                    -----    -----      -----    -----      0043H    0006H
  +--> ?PR?_STRLEN?STRLEN
  +--> ?PR?_PUTCHAR?MAIN

?PR?_VALIDA_VEHICULO_CARD_MENSUAL?VER...         -----    -----      -----    -----      0010H    0004H
  +--> ?CO?VERIFICADOR
  +--> ?PR?_DEBUG_TXT_TIBBO?TIBBO
  +--> ?PR?_RD_EEPROM?EEPROM
  +--> ?PR?_SEND_PORTERR?PTO_PARALELO

?PR?_ARMAR_TRAMA_TARJETA_SECTOR1_BLOQ...         -----    -----      -----    -----      0010H    0006H
  +--> ?PR?_BLOCK_READ_CLOCK_HEX?CLOCK
  +--> ?PR?DIR_BOARD?IO_SENSORES

?PR?DIR_BOARD?IO_SENSORES                        -----    -----      -----    -----      0032H    0001H
  +--> ?PR?SEL_DIR1?IO_SENSORES
  +--> ?PR?SEL_DIR2?IO_SENSORES
  +--> ?PR?_RD_EEPROM?EEPROM

?PR?_TARJETA_ROTACION?VERIFICADOR                -----    -----      -----    -----      0009H    0006H
  +--> ?PR?_ARMAR_TRAMA_TARJETA_SECTOR1_BLOQ...

?PR?POWER_OFF?LINTECH                            -----    -----      -----    -----      0002H    000BH
  +--> ?CO?LINTECH
  +--> ?PR?_DEBUG_TXT_TIBBO?TIBBO
  +--> ?PR?_DEBUGBUFFERMF?TIBBO
  +--> ?PR?_ESCRIBIRCADENASOFT_BUFFER?MAIN

?PR?CLAVE_SEGURIDAD_S2?LINTECH                   -----    -----      -----    -----      0002H    0016H
  +--> ?CO?LINTECH
  +--> ?PR?_DEBUG_TXT_TIBBO?TIBBO
  +--> ?PR?_DEBUGBUFFERMF?TIBBO
  +--> ?PR?_ESCRIBIRCADENASOFT_BUFFER?MAIN

?PR?_RESPONDE_REELECTURA_TARJETA_SECT...         -----    -----      -----    -----      0002H    000AH
  +--> ?CO?VERIFICADOR
  +--> ?PR?_DEBUG_TXT_TIBBO?TIBBO
  +--> ?PR?_DEBUGBUFFERMF?TIBBO
  +--> ?PR?_ARMAR_TRAMA_TARJETA_SECTOR1_BLOQ...

?PR?_ARMAR_TRAMA_TARJETA_SECTOR1_BLOQ...         -----    -----      -----    -----      000CH    0003H
  +--> ?PR?LEE_NO_TICKET?EEPROM

?PR?RESPONDE_ESTADO_SENSORES_TRANSPOR...         -----    -----      -----    -----      0002H    0001H
  +--> ?CO?VERIFICADOR
  +--> ?PR?_DEBUG_TXT_TIBBO?TIBBO
  +--> ?PR?_SEND_PORTERR?PTO_PARALELO
  +--> ?PR?INGRESO_VEHICULO?VERIFICADOR

?PR?INGRESO_VEHICULO?VERIFICADOR                 -----    -----      -----    -----      -----    -----
BL51 BANKED LINKER/LOCATER V6.22.2.0                                                  07/26/2021  14:55:02  PAGE 21


  +--> ?PR?VALIDASENSORESPASO?IO_SENSORES
  +--> ?PR?_RD_EEPROM?EEPROM
  +--> ?CO?VERIFICADOR
  +--> ?PR?_DEBUG_TXT_TIBBO?TIBBO
  +--> ?PR?_PANTALLALCD?PANTALLAS
  +--> ?PR?BOTTON?IO_SENSORES

?PR?VALIDASENSORESPASO?IO_SENSORES               -----    -----      -----    -----      0010H    0001H
  +--> ?PR?SEL_SENSOR2?IO_SENSORES
  +--> ?PR?VALIDASENSOR?IO_SENSORES
  +--> ?PR?VALIDA_SENSOR1_AUTO?IO_SENSORES
  +--> ?CO?IO_SENSORES
  +--> ?PR?_DEBUG_TXT_TIBBO?TIBBO

?PR?RESPONDE_TIPO_TARJETA?VERIFICADOR            -----    -----      -----    -----      0002H    0001H
  +--> ?CO?VERIFICADOR
  +--> ?PR?_DEBUG_TXT_TIBBO?TIBBO
  +--> ?PR?_SEND_PORTERR?PTO_PARALELO
  +--> ?PR?_PANTALLALCD?PANTALLAS
  +--> ?PR?CAPTURA_EXPULSA?VERIFICADOR

?PR?_RESPONDE_LECTURA_TARJETA_SECTOR1...         -----    -----      -----    -----      0002H    0016H
  +--> ?CO?VERIFICADOR
  +--> ?PR?_DEBUG_TXT_TIBBO?TIBBO
  +--> ?PR?_DEBUGBUFFERMF?TIBBO
  +--> ?PR?_RD_EEPROM?EEPROM
  +--> ?PR?_DEBUG_HEXDEC?TIBBO
  +--> ?PR?_DEBUG_CHR_TIBBO?TIBBO
  +--> ?PR?_SEND_PORTERR?PTO_PARALELO
  +--> ?PR?_PANTALLALCD?PANTALLAS
  +--> ?PR?CAPTURA_EXPULSA?VERIFICADOR

?PR?_DEBUG_HEXDEC?TIBBO                          -----    -----      -----    -----      0018H    0002H
  +--> ?PR?_TX_AUX?TIBBO

?PR?_RESPONDE_LECTURA_TARJETA_SECTOR1...         -----    -----      -----    -----      0002H    0004H
  +--> ?CO?VERIFICADOR
  +--> ?PR?_DEBUG_TXT_TIBBO?TIBBO
  +--> ?PR?CAPTURA_EXPULSA?VERIFICADOR

?PR?_RESPONDE_LECTURA_TARJETA_SECTOR1...         -----    -----      -----    -----      0002H    0015H
  +--> ?CO?VERIFICADOR
  +--> ?PR?_DEBUG_TXT_TIBBO?TIBBO
  +--> ?PR?_DEBUGBUFFERMF?TIBBO
  +--> ?PR?_DEBUG_CHR_TIBBO?TIBBO
  +--> ?PR?CAPTURA_EXPULSA?VERIFICADOR

?PR?_RESPONDE_WRITE_TARJETA_SECTOR1_B...         -----    -----      -----    -----      0002H    0007H
  +--> ?CO?VERIFICADOR
  +--> ?PR?_DEBUG_TXT_TIBBO?TIBBO
  +--> ?PR?_DEBUGBUFFERMF?TIBBO

?PR?_RESPONDE_WRITE_TARJETA_SECTOR2_B...         -----    -----      -----    -----      0002H    0003H
  +--> ?CO?VERIFICADOR
  +--> ?PR?_DEBUG_TXT_TIBBO?TIBBO
  +--> ?PR?_DEBUGBUFFERMF?TIBBO

BL51 BANKED LINKER/LOCATER V6.22.2.0                                                  07/26/2021  14:55:02  PAGE 22


?PR?_RESPONDE_WRITE_TARJETA_SECTOR1_B...         -----    -----      -----    -----      0002H    0003H
  +--> ?CO?VERIFICADOR
  +--> ?PR?_DEBUG_TXT_TIBBO?TIBBO
  +--> ?PR?_DEBUGBUFFERMF?TIBBO

?PR?_RESPONDE_WRITE_TARJETA_SECTOR1_B...         -----    -----      -----    -----      0002H    0003H
  +--> ?CO?VERIFICADOR
  +--> ?PR?_DEBUG_TXT_TIBBO?TIBBO
  +--> ?PR?_DEBUGBUFFERMF?TIBBO

?PR?_DISPARO_LOCK_ENTRADA_VEHICULO?VE...         -----    -----      -----    -----      0002H    0004H
  +--> ?CO?VERIFICADOR
  +--> ?PR?_DEBUG_TXT_TIBBO?TIBBO
  +--> ?PR?_SEND_PORTERR?PTO_PARALELO
  +--> ?PR?_PANTALLALCD_LINEA_2?PANTALLAS
  +--> ?PR?VALIDA_SENSOR1_AUTO?IO_SENSORES
  +--> ?PR?_PANTALLALCD?PANTALLAS

?PR?_PANTALLALCD_LINEA_2?PANTALLAS               -----    -----      -----    -----      0010H    0033H
  +--> ?CO?PANTALLAS
  +--> ?PR?_LCD_TXT?PANTALLAS
  +--> ?PR?_STRLEN?STRLEN
  +--> ?PR?_TX_CHRLCD?PANTALLAS
  +--> ?PR?_RASPBERRY_DATA?PANTALLAS
  +--> ?PR?LEE_NO_TICKET?EEPROM
  +--> ?PR?_STRCAT?STRCAT

?PR?_RESPUESTA_SEGUNDA_CLAVE?VERIFICADOR         -----    -----      -----    -----      0002H    0006H
  +--> ?CO?VERIFICADOR
  +--> ?PR?_DEBUG_TXT_TIBBO?TIBBO
  +--> ?PR?_DEBUGBUFFERMF?TIBBO
  +--> ?PR?_ARMAR_TRAMA_PLACA?VERIFICADOR

?PR?_ARMAR_TRAMA_PLACA?VERIFICADOR               -----    -----      -----    -----      0008H    0003H
  +--> ?PR?_STRLEN?STRLEN

?PR?ANALIZA_PRESENCIA_MENSUAL?VERIFIC...         -----    -----      -----    -----      0002H    0001H
  +--> ?PR?VALIDASENSORESPASO?IO_SENSORES
  +--> ?PR?_SEND_PORTERR?PTO_PARALELO
  +--> ?PR?_PANTALLALCD?PANTALLAS

?PR?_ANALIZA_UID_CARD?VERIFICADOR                -----    -----      -----    -----      0002H    0015H
  +--> ?CO?VERIFICADOR
  +--> ?PR?_DEBUG_TXT_TIBBO?TIBBO
  +--> ?PR?_DEBUGBUFFERMF?TIBBO
  +--> ?PR?_DEBUG_CHR_TIBBO?TIBBO

?PR?ANALIZA_PRESENCIA_ROTACION?VERIFI...         -----    -----      -----    -----      0002H    0001H
  +--> ?PR?VALIDASENSORESPASO?IO_SENSORES
  +--> ?PR?_SEND_PORTERR?PTO_PARALELO
  +--> ?PR?_PANTALLALCD?PANTALLAS

?PR?_RECIBE_PORT?PTO_PARALELO                    -----    -----      -----    -----      0001H    0008H
  +--> ?PR?OFF_TIMER0_INTERRUP?MAIN
  +--> ?PR?ON_TIMER0_INTERRUP?MAIN

?PR?_DEBUG_PTO_PARALELO?TIBBO                    -----    -----      -----    -----      0001H    0004H
BL51 BANKED LINKER/LOCATER V6.22.2.0                                                  07/26/2021  14:55:02  PAGE 23


  +--> ?CO?TIBBO
  +--> ?PR?_DEBUG_TXT_TIBBO?TIBBO
  +--> ?PR?_DEBUGBUFFERMF?TIBBO
  +--> ?PR?DEBUG_DIVIDIR_TEXTO?TIBBO

?PR?_VALIDA_TRAMA_PTO?ACCESCAN                   -----    -----      -----    -----      0001H    000FH
  +--> ?PR?_VALIDAR_CLK?CLOCK
  +--> ?PR?_BLOCK_WRITE_CLOCK_ASCII?CLOCK
  +--> ?PR?RELOJ_PANTALLA_LCD?PANTALLAS
  +--> ?PR?_PANTALLALCD?PANTALLAS
  +--> ?CO?ACCESCAN
  +--> ?PR?_DEBUG_TXT_TIBBO?TIBBO
  +--> ?PR?_BYTEHEX_DECIMAL?CLOCK
  +--> ?PR?_TWO_BYTEHEX_DECIMAL?CLOCK
  +--> ?PR?VALIDASENSORESPASO?IO_SENSORES
  +--> ?PR?_CMD_LPR_SALIDA_WIEGAND?ACCESCAN
  +--> ?PR?_PANTALLALCD_LINEA_2?PANTALLAS
  +--> ?PR?_GRABA_SERIE?EEPROM

?PR?_BLOCK_WRITE_CLOCK_ASCII?CLOCK               -----    -----      -----    -----      0010H    0003H
  +--> ?CO?CLOCK
  +--> ?PR?_DEBUG_TXT_TIBBO?TIBBO
  +--> ?PR?_TWO_ONE?CLOCK
  +--> ?PR?_WR_CLK?CLOCK

?PR?_WR_CLK?CLOCK                                -----    -----      -----    -----      0013H    0002H
  +--> ?PR?_DELAY_20US?DELAY
  +--> ?PR?_EB_CLK?CLOCK

?PR?RELOJ_PANTALLA_LCD?PANTALLAS                 -----    -----      -----    -----      0010H    000DH
  +--> ?CO?PANTALLAS
  +--> ?PR?_BLOCK_READ_CLOCK?CLOCK
  +--> ?PR?_LCD_TXT_NUM_CHAR?PANTALLAS
  +--> ?PR?_BLOCK_READ_CLOCK_ASCII_RASBERRY?...
  +--> ?PR?_STRCAT?STRCAT
  +--> ?PR?_RASPBERRY_DATA?PANTALLAS

?PR?_BLOCK_READ_CLOCK?CLOCK                      -----    -----      -----    -----      001DH    0003H
  +--> ?PR?_LEE_CLK?CLOCK

?PR?_LCD_TXT_NUM_CHAR?PANTALLAS                  -----    -----      -----    -----      001DH    0006H
  +--> ?PR?_TX_CHRLCD?PANTALLAS

?PR?_BLOCK_READ_CLOCK_ASCII_RASBERRY?...         -----    -----      -----    -----      001DH    0003H
  +--> ?PR?_LEE_CLK?CLOCK

?PR?_CMD_LPR_SALIDA_WIEGAND?ACCESCAN             -----    -----      -----    -----      0010H    0022H
  +--> ?PR?DIR_BOARD?IO_SENSORES
  +--> ?PR?_BLOCK_READ_CLOCK_ASCII?CLOCK
  +--> ?PR?_MONITOR_CHR?ACCESCAN

?PR?_MONITOR_CHR?ACCESCAN                        -----    -----      -----    -----      0032H    0005H
  +--> ?PR?_TX_AUX?TIBBO

?PR?_GRABA_SERIE?EEPROM                          -----    -----      -----    -----      0010H    0005H
  +--> ?CO?EEPROM
  +--> ?PR?_DEBUG_TXT_TIBBO?TIBBO
BL51 BANKED LINKER/LOCATER V6.22.2.0                                                  07/26/2021  14:55:02  PAGE 24


  +--> ?PR?_WRITE_EEPROM_TICKET?EEPROM
  +--> ?PR?_WR_EEPROM?EEPROM

?PR?MSJ_LCD_INFORMATIVO?IO_SENSORES              -----    -----      -----    -----      0001H    0001H
  +--> ?PR?SEL_FUNCION?IO_SENSORES
  +--> ?PR?VALIDASENSOR_CERO?IO_SENSORES
  +--> ?PR?LOAD_AND_SEND_INFO_RELOJ?PTO_PARA...
  +--> ?PR?VALIDASENSOR?IO_SENSORES
  +--> ?PR?_DELAY_10MS?DELAY
  +--> ?PR?LOAD_AND_SEND_ID_COD?PTO_PARALELO

?PR?LOAD_AND_SEND_INFO_RELOJ?PTO_PARA...         -----    -----      -----    -----      0002H    000BH
  +--> ?PR?_BLOCK_READ_CLOCK?CLOCK
  +--> ?PR?_LEE_CLK?CLOCK
  +--> ?CO?PTO_PARALELO
  +--> ?PR?_DEBUG_TXT_TIBBO?TIBBO
  +--> ?PR?_DEBUGBUFFERMF?TIBBO
  +--> ?PR?DEBUG_DIVIDIR_TEXTO?TIBBO
  +--> ?PR?_SEND_PORT?PTO_PARALELO

?PR?LOAD_AND_SEND_ID_COD?PTO_PARALELO            -----    -----      -----    -----      0002H    0014H
  +--> ?PR?_RD_EEPROM?EEPROM
  +--> ?CO?PTO_PARALELO
  +--> ?PR?PRINTF?PRINTF
  +--> ?PR?_STRCAT?STRCAT
  +--> ?PR?_STRLEN?STRLEN
  +--> ?PR?_DEBUG_TXT_TIBBO?TIBBO
  +--> ?PR?_DEBUGBUFFERMF?TIBBO
  +--> ?PR?DEBUG_DIVIDIR_TEXTO?TIBBO
  +--> ?PR?_SEND_PORT?PTO_PARALELO



SYMBOL TABLE OF MODULE:  .\Objects\expedidor_v_01_raspberry (MAIN)

  VALUE           TYPE          NAME
  ----------------------------------

  -------         MODULE        MAIN
  C:0000H         SYMBOL        _ICE_DUMMY_
  D:0080H         PUBLIC        P0
  D:0090H         PUBLIC        P1
  C:BA82H         PUBLIC        timer0_int
  D:00B0H         PUBLIC        P3
  B:00A8H.7       PUBLIC        EA
  C:BEC8H         PUBLIC        off_Timer0_Interrup
  X:016CH         PUBLIC        ValTimeOutCom
  X:016DH         PUBLIC        Buffer_Rta_Lintech
  X:019FH         PUBLIC        Timer_wait
  B:0021H.1       PUBLIC        pto_paraleo
  X:01A0H         PUBLIC        g_cContByteRx
  B:0080H.0       PUBLIC        rx_ip
  C:AA5CH         PUBLIC        main
  X:01A1H         PUBLIC        Timer_tivo
  B:0080H.3       PUBLIC        Atascado_GP0_PIN_3
  C:B0FDH         PUBLIC        variable_inicio
  B:0090H.7       PUBLIC        lock
BL51 BANKED LINKER/LOCATER V6.22.2.0                                                  07/26/2021  14:55:02  PAGE 25


  I:0023H         PUBLIC        rbuf
  C:BEB9H         PUBLIC        on_Timer0_Interrup
  I:0055H         PUBLIC        tbuf
  B:0090H.1       PUBLIC        DataIn
  D:0089H         PUBLIC        TMOD
  X:01A3H         PUBLIC        USE_LPR
  X:01A4H         PUBLIC        Debug_Tibbo
  X:01A5H         PUBLIC        Raspberry
  X:01A6H         PUBLIC        SIN_COBRO
  X:01A8H         PUBLIC        Tipo_Vehiculo
  B:00B0H.3       PUBLIC        busy
  C:BE1AH         PUBLIC        ini_timer
  B:00A8H.1       PUBLIC        ET0
  B:0088H.5       PUBLIC        TF0
  D:008CH         PUBLIC        TH0
  X:01A9H         PUBLIC        ACK
  X:01AAH         PUBLIC        g_cEstadoComSoft
  D:008AH         PUBLIC        TL0
  B:0088H.4       PUBLIC        TR0
  C:BE2AH         PUBLIC        inicia_board
  X:01ABH         PUBLIC        T_GRACIA
  B:0080H.7       PUBLIC        sel_com
  X:01ADH         PUBLIC        STX_LINTECH
  C:BE49H         PUBLIC        _getkey
  X:01AEH         PUBLIC        ETX
  C:B399H         PUBLIC        _EscribirCadenaSoft_buffer
  B:0021H.2       PUBLIC        buffer_ready
  C:B6BBH         PUBLIC        _putchar
  B:0021H.3       PUBLIC        placa_ready
  -------         PROC          TIMER0_INT
  C:BA82H         LINE#         16
  C:BA88H         LINE#         19
  C:BA8EH         LINE#         20
  C:BA93H         LINE#         21
  C:BA93H         LINE#         22
  C:BA99H         LINE#         23
  C:BA99H         LINE#         25
  C:BAA7H         LINE#         26
  C:BAA9H         LINE#         28
  -------         ENDPROC       TIMER0_INT
  -------         PROC          INI_TIMER
  C:BE1AH         LINE#         31
  C:BE1AH         LINE#         32
  C:BE1AH         LINE#         34
  C:BE22H         LINE#         36
  C:BE25H         LINE#         37
  C:BE27H         LINE#         38
  C:BE29H         LINE#         40
  -------         ENDPROC       INI_TIMER
  -------         PROC          ON_TIMER0_INTERRUP
  C:BEB9H         LINE#         43
  C:BEB9H         LINE#         44
  C:BEB9H         LINE#         45
  C:BEBBH         LINE#         46
  C:BEBDH         LINE#         48
  -------         ENDPROC       ON_TIMER0_INTERRUP
  -------         PROC          OFF_TIMER0_INTERRUP
BL51 BANKED LINKER/LOCATER V6.22.2.0                                                  07/26/2021  14:55:02  PAGE 26


  C:BEC8H         LINE#         51
  C:BEC8H         LINE#         52
  C:BEC8H         LINE#         53
  C:BECAH         LINE#         55
  -------         ENDPROC       OFF_TIMER0_INTERRUP
  -------         PROC          _GETKEY
  -------         DO            
  D:0006H         SYMBOL        k
  -------         ENDDO         
  C:BE49H         LINE#         63
  C:BE49H         LINE#         64
  C:BE49H         LINE#         68
  C:BE49H         LINE#         69
  C:BE4CH         LINE#         70
  C:BE4CH         LINE#         71
  C:BE54H         LINE#         73
  C:BE54H         LINE#         74
  -------         ENDPROC       _GETKEY
  -------         PROC          _PUTCHAR
  X:00A7H         SYMBOL        c
  -------         DO            
  X:00A8H         SYMBOL        i
  -------         ENDDO         
  C:B6BBH         LINE#         78
  C:B6C0H         LINE#         79
  C:B6C0H         LINE#         82
  C:B6CFH         LINE#         83
  C:B6CFH         LINE#         84
  C:B6E5H         LINE#         85
  C:B6E5H         LINE#         87
  C:B6F3H         LINE#         88
  C:B6F3H         LINE#         90
  C:B6F8H         LINE#         91
  -------         ENDPROC       _PUTCHAR
  -------         PROC          _ESCRIBIRCADENASOFT_BUFFER
  X:0027H         SYMBOL        buffer
  X:002AH         SYMBOL        tamano_cadena
  -------         DO            
  X:002BH         SYMBOL        i
  X:002CH         SYMBOL        d
  -------         ENDDO         
  C:B399H         LINE#         95
  C:B3A7H         LINE#         96
  C:B3A7H         LINE#         98
  C:B3B5H         LINE#         99
  C:B3B5H         LINE#         100
  C:B3CCH         LINE#         101
  C:B3D6H         LINE#         102
  C:B3DEH         LINE#         103
  -------         ENDPROC       _ESCRIBIRCADENASOFT_BUFFER
  -------         PROC          INICIA_BOARD
  C:BE2AH         LINE#         108
  C:BE2AH         LINE#         109
  C:BE2AH         LINE#         110
  C:BE2DH         LINE#         111
  C:BE30H         LINE#         112
  C:BE33H         LINE#         113
BL51 BANKED LINKER/LOCATER V6.22.2.0                                                  07/26/2021  14:55:02  PAGE 27


  C:BE35H         LINE#         114
  C:BE37H         LINE#         115
  C:BE39H         LINE#         117
  -------         ENDPROC       INICIA_BOARD
  -------         PROC          VARIABLE_INICIO
  C:B0FDH         LINE#         122
  C:B0FDH         LINE#         123
  C:B0FDH         LINE#         126
  C:B10EH         LINE#         127
  C:B11FH         LINE#         128
  C:B12DH         LINE#         129
  C:B13BH         LINE#         130
  C:B149H         LINE#         132
  -------         ENDPROC       VARIABLE_INICIO
  -------         PROC          MAIN
  -------         DO            
  X:0143H         SYMBOL        buffer
  X:016BH         SYMBOL        Estado_Comunicacion_Secuencia_MF
  X:0000H         SYMBOL        Length_trama
  -------         ENDDO         
  C:AA5CH         LINE#         140
  C:AA5CH         LINE#         141
  C:AA5CH         LINE#         148
  C:AA5FH         LINE#         149
  C:AA62H         LINE#         150
  C:AA65H         LINE#         151
  C:AA68H         LINE#         152
  C:AA6BH         LINE#         153
  C:AA6DH         LINE#         155
  C:AA70H         LINE#         156
  C:AA77H         LINE#         157
  C:AA7AH         LINE#         159
  C:AA7FH         LINE#         161
  C:AA82H         LINE#         163
  C:AA85H         LINE#         164
  C:AA85H         LINE#         165
  C:AA88H         LINE#         166
  C:AA88H         LINE#         169
  C:AA8BH         LINE#         170
  C:AA91H         LINE#         171
  C:AA97H         LINE#         173
  C:AA97H         LINE#         174
  C:AA97H         LINE#         177
  C:AA9AH         LINE#         178
  C:AA9AH         LINE#         179
  C:AA9DH         LINE#         180
  C:AA9DH         LINE#         184
  C:AAAAH         LINE#         189
  C:AAB0H         LINE#         190
  C:AAB0H         LINE#         192
  C:AABFH         LINE#         195
  C:AAC8H         LINE#         196
  C:AAD6H         LINE#         201
  C:AAD6H         LINE#         202
  C:AAD9H         LINE#         206
  -------         ENDPROC       MAIN
  -------         ENDMOD        MAIN
BL51 BANKED LINKER/LOCATER V6.22.2.0                                                  07/26/2021  14:55:02  PAGE 28



  -------         MODULE        ACCESCAN
  C:0000H         SYMBOL        _ICE_DUMMY_
  D:0080H         PUBLIC        P0
  D:0090H         PUBLIC        P1
  B:0080H.2       PUBLIC        led_err_imp
  C:B57AH         PUBLIC        _Monitor_chr
  B:0080H.3       PUBLIC        Atascado_GP0_PIN_3
  B:0090H.7       PUBLIC        lock
  C:3F31H         PUBLIC        _Valida_Trama_Pto
  C:887BH         PUBLIC        _Cmd_LPR_Salida_wiegand
  -------         PROC          _VALIDA_TRAMA_PTO
  X:0001H         SYMBOL        buffer
  X:0004H         SYMBOL        length_trama
  -------         DO            
  X:0213H         SYMBOL        cont
  X:0005H         SYMBOL        buff
  -------         ENDDO         
  C:3F31H         LINE#         106
  C:3F3FH         LINE#         107
  C:3F3FH         LINE#         113
  C:3F75H         LINE#         114
  C:3F75H         LINE#         115
  C:3F8AH         LINE#         116
  C:3F8AH         LINE#         117
  C:3F9DH         LINE#         119
  C:3FA0H         LINE#         121
  C:3FA0H         LINE#         123
  C:3FA0H         LINE#         126
  C:3FB2H         LINE#         127
  C:3FB2H         LINE#         128
  C:3FB4H         LINE#         129
  C:3FB7H         LINE#         131
  C:3FC9H         LINE#         132
  C:3FC9H         LINE#         133
  C:3FCBH         LINE#         134
  C:3FCEH         LINE#         136
  C:3FE0H         LINE#         137
  C:3FE0H         LINE#         138
  C:3FE2H         LINE#         139
  C:3FE5H         LINE#         141
  C:3FFFH         LINE#         142
  C:3FFFH         LINE#         143
  C:4001H         LINE#         144
  C:4004H         LINE#         146
  C:401EH         LINE#         147
  C:401EH         LINE#         148
  C:4020H         LINE#         149
  C:4023H         LINE#         151
  C:4035H         LINE#         152
  C:4035H         LINE#         153
  C:403BH         LINE#         154
  C:4048H         LINE#         155
  C:4048H         LINE#         156
  C:404DH         LINE#         157
  C:404FH         LINE#         158
  C:4054H         LINE#         159
BL51 BANKED LINKER/LOCATER V6.22.2.0                                                  07/26/2021  14:55:02  PAGE 29


  C:4056H         LINE#         160
  C:4058H         LINE#         161
  C:405CH         LINE#         162
  C:405CH         LINE#         163
  C:405DH         LINE#         165
  C:4075H         LINE#         166
  C:4075H         LINE#         168
  C:4082H         LINE#         169
  C:4082H         LINE#         170
  C:4084H         LINE#         171
  C:4086H         LINE#         172
  C:4088H         LINE#         173
  C:408AH         LINE#         174
  C:408AH         LINE#         176
  C:40B0H         LINE#         177
  C:40B0H         LINE#         178
  C:40B4H         LINE#         179
  C:40B9H         LINE#         180
  C:40C2H         LINE#         181
  C:40C7H         LINE#         182
  C:40C7H         LINE#         185
  C:40C8H         LINE#         187
  C:40E2H         LINE#         188
  C:40E2H         LINE#         189
  C:40E4H         LINE#         190
  C:40E7H         LINE#         192
  C:4101H         LINE#         193
  C:4101H         LINE#         194
  C:4103H         LINE#         195
  C:4106H         LINE#         197
  C:4120H         LINE#         198
  C:4120H         LINE#         199
  C:4122H         LINE#         200
  C:4124H         LINE#         202
  C:413EH         LINE#         203
  C:413EH         LINE#         204
  C:4140H         LINE#         205
  C:4142H         LINE#         208
  C:415CH         LINE#         209
  C:415CH         LINE#         210
  C:415EH         LINE#         211
  C:4160H         LINE#         215
  C:417AH         LINE#         216
  C:417AH         LINE#         217
  C:417CH         LINE#         218
  C:417EH         LINE#         221
  C:4198H         LINE#         222
  C:4198H         LINE#         223
  C:419DH         LINE#         224
  C:419DH         LINE#         227
  C:41CEH         LINE#         228
  C:41CEH         LINE#         229
  C:41D6H         LINE#         230
  C:41DFH         LINE#         231
  C:41E2H         LINE#         234
  C:4213H         LINE#         235
  C:4213H         LINE#         237
BL51 BANKED LINKER/LOCATER V6.22.2.0                                                  07/26/2021  14:55:02  PAGE 30


  C:421BH         LINE#         238
  C:4224H         LINE#         239
  C:4227H         LINE#         242
  C:4267H         LINE#         243
  C:4267H         LINE#         245
  C:427CH         LINE#         246
  C:4282H         LINE#         247
  C:42ACH         LINE#         250
  C:42B4H         LINE#         251
  C:42B4H         LINE#         254
  C:42BBH         LINE#         255
  C:42BBH         LINE#         256
  C:42C0H         LINE#         257
  C:42C0H         LINE#         258
  C:42C2H         LINE#         260
  C:42C2H         LINE#         261
  C:42CBH         LINE#         262
  C:42D3H         LINE#         263
  C:42D3H         LINE#         267
  C:42D5H         LINE#         270
  C:42D5H         LINE#         278
  C:42DDH         LINE#         282
  C:42DDH         LINE#         283
  C:42DFH         LINE#         285
  C:4317H         LINE#         286
  C:4317H         LINE#         287
  C:431FH         LINE#         288
  C:432BH         LINE#         289
  C:432BH         LINE#         291
  C:4358H         LINE#         292
  C:4358H         LINE#         293
  C:4367H         LINE#         295
  C:4367H         LINE#         297
  -------         ENDPROC       _VALIDA_TRAMA_PTO
  -------         PROC          _MONITOR_CHR
  X:0032H         SYMBOL        str
  X:0035H         SYMBOL        num_char
  -------         DO            
  X:0036H         SYMBOL        j
  -------         ENDDO         
  C:B57AH         LINE#         452
  C:B588H         LINE#         453
  C:B588H         LINE#         455
  C:B596H         LINE#         456
  C:B596H         LINE#         457
  C:B5A8H         LINE#         458
  C:B5B2H         LINE#         459
  C:B5BAH         LINE#         460
  -------         ENDPROC       _MONITOR_CHR
  -------         PROC          _CMD_LPR_SALIDA_WIEGAND
  X:0010H         SYMBOL        buffer
  -------         DO            
  X:0013H         SYMBOL        Buffer_Lpr
  X:0031H         SYMBOL        j
  -------         ENDDO         
  C:887BH         LINE#         465
  C:8886H         LINE#         466
BL51 BANKED LINKER/LOCATER V6.22.2.0                                                  07/26/2021  14:55:02  PAGE 31


  C:8886H         LINE#         468
  C:888CH         LINE#         469
  C:8891H         LINE#         470
  C:8899H         LINE#         471
  C:889DH         LINE#         472
  C:88A6H         LINE#         473
  C:88A6H         LINE#         474
  C:88B7H         LINE#         475
  C:88B9H         LINE#         477
  C:88B9H         LINE#         478
  C:88CAH         LINE#         479
  C:88CAH         LINE#         483
  C:88E1H         LINE#         484
  C:88E1H         LINE#         485
  C:88F0H         LINE#         486
  C:88FAH         LINE#         488
  C:8902H         LINE#         489
  C:8916H         LINE#         491
  C:8926H         LINE#         492
  C:8937H         LINE#         493
  C:8944H         LINE#         497
  -------         ENDPROC       _CMD_LPR_SALIDA_WIEGAND
  -------         ENDMOD        ACCESCAN

  -------         MODULE        CLOCK
  C:0000H         SYMBOL        _ICE_DUMMY_
  C:B5EFH         PUBLIC        _two_one
  D:0090H         PUBLIC        P1
  C:7550H         PUBLIC        _validar_clk
  C:BADAH         PUBLIC        _wr_clk
  C:8BBAH         PUBLIC        _check_fechaOut
  C:5D24H         PUBLIC        _Block_read_clock_ascii_rasberry
  B:00D0H.7       PUBLIC        CY
  C:0003H         PUBLIC        p_ck
  C:A0D4H         PUBLIC        _hex_ascii
  X:0214H         PUBLIC        data_clk
  C:BE7BH         PUBLIC        cond_ini_clock
  C:8C83H         PUBLIC        _Block_read_Clock
  B:0090H.4       PUBLIC        sck
  C:98DBH         PUBLIC        _Block_read_Clock_Hex
  C:63EDH         PUBLIC        _Block_read_clock_ascii
  C:B753H         PUBLIC        _hex_bcd
  C:BCF1H         PUBLIC        _bcd_hex
  C:AF35H         PUBLIC        _ByteHex_Decimal
  C:A28FH         PUBLIC        _lee_clk
  B:0090H.5       PUBLIC        io
  C:9ACBH         PUBLIC        _Block_write_clock_ascii
  B:0090H.6       PUBLIC        rst
  C:B67CH         PUBLIC        _eb_clk
  C:46C4H         PUBLIC        _Two_ByteHex_Decimal
  -------         PROC          P_CK
  C:0003H         LINE#         48
  C:0003H         LINE#         49
  C:0003H         LINE#         50
  C:0005H         LINE#         51
  C:0008H         LINE#         52
  C:000AH         LINE#         53
BL51 BANKED LINKER/LOCATER V6.22.2.0                                                  07/26/2021  14:55:02  PAGE 32


  -------         ENDPROC       P_CK
  -------         PROC          _EB_CLK
  X:00B4H         SYMBOL        dir_clk
  -------         DO            
  X:00B5H         SYMBOL        nbits
  -------         ENDDO         
  C:B67CH         LINE#         55
  C:B681H         LINE#         57
  C:B686H         LINE#         58
  C:B686H         LINE#         59
  C:B68FH         LINE#         60
  C:B692H         LINE#         61
  C:B692H         LINE#         62
  C:B694H         LINE#         63
  C:B696H         LINE#         65
  C:B696H         LINE#         66
  C:B698H         LINE#         67
  C:B698H         LINE#         68
  C:B69BH         LINE#         69
  C:B6BAH         LINE#         70
  -------         ENDPROC       _EB_CLK
  C:A286H         SYMBOL        L?0083
  -------         PROC          L?0082
  -------         ENDPROC       L?0082
  C:A286H         SYMBOL        L?0083
  -------         PROC          _LEE_CLK
  X:00B1H         SYMBOL        dir_clk
  -------         DO            
  X:00B2H         SYMBOL        nbits
  -------         ENDDO         
  C:A28FH         LINE#         72
  C:A294H         LINE#         74
  C:A296H         LINE#         75
  C:A29DH         LINE#         76
  C:A2A5H         LINE#         77
  C:A2BEH         LINE#         78
  C:A2BEH         LINE#         79
  C:A2C1H         LINE#         80
  C:A2C1H         LINE#         81
  C:A2C8H         LINE#         82
  C:A2D2H         LINE#         83
  C:A2D7H         LINE#         84
  C:A2D7H         LINE#         85
  C:A2D7H         LINE#         86
  C:A2DAH         LINE#         87
  C:A2DAH         LINE#         88
  C:A2E1H         LINE#         89
  C:A2F2H         LINE#         90
  C:A2F2H         LINE#         91
  C:A2FAH         LINE#         92
  C:A2FAH         LINE#         93
  C:A2FAH         LINE#         94
  C:A2FDH         LINE#         95
  C:A30DH         LINE#         96
  C:A30FH         LINE#         97
  C:A314H         LINE#         98
  -------         ENDPROC       _LEE_CLK
BL51 BANKED LINKER/LOCATER V6.22.2.0                                                  07/26/2021  14:55:02  PAGE 33


  -------         PROC          _WR_CLK
  X:0013H         SYMBOL        dir_clk
  X:0014H         SYMBOL        byte
  C:BADAH         LINE#         100
  C:BAE2H         LINE#         101
  C:BAE4H         LINE#         102
  C:BAEBH         LINE#         103
  C:BAF3H         LINE#         104
  C:BAFCH         LINE#         105
  C:BAFFH         LINE#         106
  C:BB01H         LINE#         108
  -------         ENDPROC       _WR_CLK
  C:B5BBH         SYMBOL        L?0078
  C:B5D9H         SYMBOL        L?0079
  -------         PROC          L?0077
  -------         ENDPROC       L?0077
  C:B5BBH         SYMBOL        L?0078
  C:B5D9H         SYMBOL        L?0079
  -------         PROC          _TWO_ONE
  D:0007H         SYMBOL        byte_h
  D:0005H         SYMBOL        byte_l
  -------         DO            
  D:0007H         SYMBOL        byte_out
  -------         ENDDO         
  C:B5EFH         LINE#         110
  C:B5EFH         LINE#         111
  C:B5EFH         LINE#         113
  C:B5F2H         LINE#         114
  C:B5F6H         LINE#         115
  C:B5F9H         LINE#         116
  C:B5FBH         LINE#         117
  C:B5FBH         LINE#         118
  -------         ENDPROC       _TWO_ONE
  -------         PROC          _VALIDAR_CLK
  D:0001H         SYMBOL        datos_clock
  -------         DO            
  D:0007H         SYMBOL        validador
  -------         ENDDO         
  C:7550H         LINE#         122
  C:7550H         LINE#         123
  C:7550H         LINE#         124
  C:7552H         LINE#         127
  C:7567H         LINE#         128
  C:7567H         LINE#         130
  C:757FH         LINE#         131
  C:757FH         LINE#         133
  C:7597H         LINE#         134
  C:7597H         LINE#         135
  C:75AFH         LINE#         136
  C:75AFH         LINE#         137
  C:75C7H         LINE#         138
  C:75C7H         LINE#         139
  C:75DCH         LINE#         140
  C:75DCH         LINE#         141
  C:75EEH         LINE#         142
  C:75EEH         LINE#         143
  C:7600H         LINE#         144
BL51 BANKED LINKER/LOCATER V6.22.2.0                                                  07/26/2021  14:55:02  PAGE 34


  C:7600H         LINE#         145
  C:7612H         LINE#         146
  C:7612H         LINE#         147
  C:7624H         LINE#         148
  C:7624H         LINE#         149
  C:7636H         LINE#         150
  C:7636H         LINE#         151
  C:7646H         LINE#         152
  C:7646H         LINE#         153
  C:7646H         LINE#         154
  C:7646H         LINE#         155
  C:7647H         LINE#         157
  C:7647H         LINE#         158
  C:7649H         LINE#         159
  C:7649H         LINE#         160
  C:764AH         LINE#         162
  C:764AH         LINE#         163
  C:764CH         LINE#         165
  C:764CH         LINE#         166
  C:764DH         LINE#         168
  C:764DH         LINE#         169
  C:764FH         LINE#         171
  C:764FH         LINE#         173
  C:7650H         LINE#         175
  C:7650H         LINE#         176
  C:7652H         LINE#         178
  C:7652H         LINE#         179
  C:7653H         LINE#         181
  C:7653H         LINE#         182
  C:7655H         LINE#         184
  C:7655H         LINE#         185
  C:7656H         LINE#         187
  C:7656H         LINE#         188
  C:7658H         LINE#         190
  C:7658H         LINE#         191
  C:7659H         LINE#         193
  C:7659H         LINE#         194
  C:765BH         LINE#         196
  C:765BH         LINE#         197
  C:765BH         LINE#         199
  C:765CH         LINE#         201
  C:765CH         LINE#         202
  C:765EH         LINE#         204
  C:765EH         LINE#         206
  C:765FH         LINE#         209
  C:765FH         LINE#         210
  C:7661H         LINE#         212
  C:7661H         LINE#         214
  C:7662H         LINE#         217
  C:7662H         LINE#         218
  C:7664H         LINE#         220
  C:7664H         LINE#         222
  C:7664H         LINE#         224
  -------         ENDPROC       _VALIDAR_CLK
  -------         PROC          _BLOCK_WRITE_CLOCK_ASCII
  X:0010H         SYMBOL        datos_clock
  -------         DO            
BL51 BANKED LINKER/LOCATER V6.22.2.0                                                  07/26/2021  14:55:02  PAGE 35


  D:0007H         SYMBOL        temp
  -------         ENDDO         
  C:9ACBH         LINE#         230
  C:9AD6H         LINE#         232
  C:9AD6H         LINE#         235
  C:9ADFH         LINE#         236
  C:9AE8H         LINE#         238
  C:9AF2H         LINE#         239
  C:9AF2H         LINE#         240
  C:9AF2H         LINE#         241
  C:9AF2H         LINE#         243
  C:9AFCH         LINE#         244
  C:9B06H         LINE#         245
  C:9B10H         LINE#         246
  C:9B10H         LINE#         247
  C:9B10H         LINE#         248
  C:9B10H         LINE#         250
  C:9B1AH         LINE#         251
  C:9B1AH         LINE#         252
  C:9B1AH         LINE#         253
  C:9B1AH         LINE#         255
  C:9B24H         LINE#         256
  C:9B24H         LINE#         257
  C:9B24H         LINE#         258
  C:9B24H         LINE#         260
  C:9B2EH         LINE#         261
  C:9B2EH         LINE#         262
  C:9B2EH         LINE#         263
  C:9B2EH         LINE#         265
  C:9B38H         LINE#         266
  C:9B42H         LINE#         267
  C:9B4CH         LINE#         268
  C:9B56H         LINE#         270
  C:9B66H         LINE#         271
  -------         ENDPROC       _BLOCK_WRITE_CLOCK_ASCII
  -------         PROC          _BCD_HEX
  D:0007H         SYMBOL        l_data
  -------         DO            
  D:0006H         SYMBOL        temp
  D:0005H         SYMBOL        j
  -------         ENDDO         
  C:BCF1H         LINE#         277
  C:BCF1H         LINE#         278
  C:BCF1H         LINE#         280
  C:BCF3H         LINE#         281
  C:BCF7H         LINE#         282
  C:BCFAH         LINE#         283
  C:BCFCH         LINE#         284
  C:BCFCH         LINE#         285
  C:BD00H         LINE#         286
  C:BD07H         LINE#         287
  C:BD07H         LINE#         288
  C:BD0BH         LINE#         289
  C:BD0EH         LINE#         290
  C:BD0EH         LINE#         291
  C:BD0EH         LINE#         292
  -------         ENDPROC       _BCD_HEX
BL51 BANKED LINKER/LOCATER V6.22.2.0                                                  07/26/2021  14:55:02  PAGE 36


  C:B744H         SYMBOL        L?0081
  -------         PROC          L?0080
  -------         ENDPROC       L?0080
  C:B744H         SYMBOL        L?0081
  -------         PROC          _HEX_BCD
  D:0007H         SYMBOL        byte
  -------         DO            
  D:0006H         SYMBOL        nibble_h
  D:0005H         SYMBOL        nibble_l
  D:0004H         SYMBOL        k
  D:0007H         SYMBOL        byte_out
  -------         ENDDO         
  C:B753H         LINE#         296
  C:B753H         LINE#         297
  C:B753H         LINE#         302
  C:B755H         LINE#         303
  C:B756H         LINE#         305
  C:B75CH         LINE#         306
  C:B75CH         LINE#         307
  C:B75DH         LINE#         308
  C:B762H         LINE#         309
  C:B762H         LINE#         310
  C:B763H         LINE#         311
  C:B764H         LINE#         312
  C:B764H         LINE#         313
  C:B767H         LINE#         314
  C:B76BH         LINE#         315
  C:B76EH         LINE#         316
  C:B771H         LINE#         317
  C:B773H         LINE#         318
  C:B773H         LINE#         320
  -------         ENDPROC       _HEX_BCD
  -------         PROC          _HEX_ASCII
  X:005DH         SYMBOL        datos
  X:0060H         SYMBOL        fecha_asii
  -------         DO            
  D:0007H         SYMBOL        dato
  -------         ENDDO         
  C:A0D4H         LINE#         321
  C:A0DFH         LINE#         322
  C:A0DFH         LINE#         326
  C:A0E2H         LINE#         327
  C:A0FAH         LINE#         328
  C:A10FH         LINE#         329
  C:A10FH         LINE#         331
  C:A112H         LINE#         332
  C:A12DH         LINE#         333
  C:A135H         LINE#         334
  C:A135H         LINE#         336
  C:A138H         LINE#         337
  C:A153H         LINE#         338
  C:A15EH         LINE#         340
  -------         ENDPROC       _HEX_ASCII
  -------         PROC          _BYTEHEX_DECIMAL
  D:0001H         SYMBOL        buffer
  D:0005H         SYMBOL        valorhex
  -------         DO            
BL51 BANKED LINKER/LOCATER V6.22.2.0                                                  07/26/2021  14:55:02  PAGE 37


  X:0014H         SYMBOL        numero
  D:0007H         SYMBOL        centena
  D:0006H         SYMBOL        decena
  -------         ENDDO         
  C:AF35H         LINE#         348
  C:AF35H         LINE#         349
  C:AF35H         LINE#         352
  C:AF37H         LINE#         353
  C:AF38H         LINE#         354
  C:AF3DH         LINE#         356
  C:AF4AH         LINE#         357
  C:AF4AH         LINE#         358
  C:AF4EH         LINE#         359
  C:AF4FH         LINE#         360
  C:AF51H         LINE#         361
  C:AF57H         LINE#         362
  C:AF5EH         LINE#         363
  C:AF6BH         LINE#         364
  C:AF6BH         LINE#         365
  C:AF6FH         LINE#         366
  C:AF70H         LINE#         367
  C:AF72H         LINE#         368
  C:AF78H         LINE#         369
  C:AF7FH         LINE#         370
  C:AF88H         LINE#         371
  C:AF8FH         LINE#         372
  -------         ENDPROC       _BYTEHEX_DECIMAL
  -------         PROC          _TWO_BYTEHEX_DECIMAL
  X:0014H         SYMBOL        buffer
  X:0017H         SYMBOL        id_h
  X:0018H         SYMBOL        id_l
  -------         DO            
  X:0019H         SYMBOL        valor
  D:0006H         SYMBOL        numero
  X:001BH         SYMBOL        temp
  X:001CH         SYMBOL        dmil
  X:001DH         SYMBOL        mil
  X:001EH         SYMBOL        centena
  X:001FH         SYMBOL        decena
  -------         ENDDO         
  C:46C4H         LINE#         379
  C:46D2H         LINE#         380
  C:46D2H         LINE#         384
  C:46D9H         LINE#         385
  C:46DDH         LINE#         386
  C:46DFH         LINE#         387
  C:46E1H         LINE#         388
  C:46E3H         LINE#         391
  C:46E8H         LINE#         392
  C:46EBH         LINE#         393
  C:46F1H         LINE#         395
  C:474CH         LINE#         396
  C:4754H         LINE#         397
  C:4757H         LINE#         398
  C:47B2H         LINE#         400
  C:47BAH         LINE#         401
  C:47BDH         LINE#         402
BL51 BANKED LINKER/LOCATER V6.22.2.0                                                  07/26/2021  14:55:02  PAGE 38


  C:47C3H         LINE#         403
  C:481EH         LINE#         404
  C:4826H         LINE#         405
  C:4829H         LINE#         406
  C:4884H         LINE#         407
  C:4884H         LINE#         409
  C:488DH         LINE#         410
  C:488DH         LINE#         411
  C:4895H         LINE#         412
  C:489BH         LINE#         413
  C:489DH         LINE#         414
  C:48B3H         LINE#         415
  C:48BDH         LINE#         416
  C:48C6H         LINE#         417
  C:48C6H         LINE#         418
  C:48CEH         LINE#         419
  C:48D4H         LINE#         420
  C:48D6H         LINE#         421
  C:48ECH         LINE#         422
  C:48F6H         LINE#         423
  C:48FFH         LINE#         424
  C:48FFH         LINE#         425
  C:4907H         LINE#         426
  C:490DH         LINE#         427
  C:490FH         LINE#         428
  C:4925H         LINE#         429
  C:492FH         LINE#         430
  C:4938H         LINE#         431
  C:4938H         LINE#         432
  C:4940H         LINE#         433
  C:4946H         LINE#         434
  C:4948H         LINE#         435
  C:495EH         LINE#         436
  C:4968H         LINE#         437
  C:497BH         LINE#         438
  C:4985H         LINE#         439
  -------         ENDPROC       _TWO_BYTEHEX_DECIMAL
  -------         PROC          _BLOCK_READ_CLOCK_ASCII
  X:0051H         SYMBOL        datos_clock
  -------         DO            
  D:0007H         SYMBOL        dato
  -------         ENDDO         
  C:63EDH         LINE#         445
  C:63F8H         LINE#         446
  C:63F8H         LINE#         452
  C:63FDH         LINE#         453
  C:6415H         LINE#         454
  C:641FH         LINE#         455
  C:6434H         LINE#         456
  C:643EH         LINE#         459
  C:6443H         LINE#         460
  C:645BH         LINE#         461
  C:6465H         LINE#         462
  C:647AH         LINE#         463
  C:647DH         LINE#         466
  C:6480H         LINE#         467
  C:6498H         LINE#         468
BL51 BANKED LINKER/LOCATER V6.22.2.0                                                  07/26/2021  14:55:02  PAGE 39


  C:64A2H         LINE#         469
  C:64B7H         LINE#         470
  C:64C1H         LINE#         474
  C:64C6H         LINE#         475
  C:64DEH         LINE#         476
  C:64E8H         LINE#         477
  C:64FDH         LINE#         478
  C:6507H         LINE#         481
  C:650CH         LINE#         482
  C:6524H         LINE#         483
  C:652EH         LINE#         484
  C:6543H         LINE#         485
  C:654DH         LINE#         486
  -------         ENDPROC       _BLOCK_READ_CLOCK_ASCII
  -------         PROC          _BLOCK_READ_CLOCK_ASCII_RASBERRY
  X:001DH         SYMBOL        datos_clock
  -------         DO            
  D:0007H         SYMBOL        dato
  -------         ENDDO         
  C:5D24H         LINE#         489
  C:5D2FH         LINE#         490
  C:5D2FH         LINE#         495
  C:5D34H         LINE#         496
  C:5D4CH         LINE#         497
  C:5D56H         LINE#         498
  C:5D6BH         LINE#         499
  C:5D6EH         LINE#         502
  C:5D71H         LINE#         503
  C:5D89H         LINE#         504
  C:5D93H         LINE#         505
  C:5DA8H         LINE#         506
  C:5DB2H         LINE#         510
  C:5DB7H         LINE#         511
  C:5DCFH         LINE#         512
  C:5DD9H         LINE#         513
  C:5DEEH         LINE#         514
  C:5DF8H         LINE#         519
  C:5DFDH         LINE#         520
  C:5E15H         LINE#         521
  C:5E1FH         LINE#         522
  C:5E34H         LINE#         523
  C:5E3EH         LINE#         526
  C:5E43H         LINE#         527
  C:5E5BH         LINE#         528
  C:5E65H         LINE#         529
  C:5E7AH         LINE#         530
  C:5E84H         LINE#         531
  C:5E94H         LINE#         532
  C:5E9EH         LINE#         535
  C:5EA3H         LINE#         536
  C:5EBBH         LINE#         537
  C:5EC5H         LINE#         538
  C:5EDAH         LINE#         540
  C:5EE4H         LINE#         541
  -------         ENDPROC       _BLOCK_READ_CLOCK_ASCII_RASBERRY
  -------         PROC          _BLOCK_READ_CLOCK_HEX
  X:00AEH         SYMBOL        datos_clock
BL51 BANKED LINKER/LOCATER V6.22.2.0                                                  07/26/2021  14:55:02  PAGE 40


  C:98DBH         LINE#         545
  C:98E6H         LINE#         546
  C:98E6H         LINE#         549
  C:98FDH         LINE#         550
  C:9907H         LINE#         552
  C:991EH         LINE#         553
  C:9921H         LINE#         555
  C:9936H         LINE#         556
  C:9940H         LINE#         558
  C:9957H         LINE#         559
  C:9961H         LINE#         561
  C:9978H         LINE#         562
  -------         ENDPROC       _BLOCK_READ_CLOCK_HEX
  -------         PROC          _BLOCK_READ_CLOCK
  X:001DH         SYMBOL        datos_clock
  C:8C83H         LINE#         569
  C:8C8EH         LINE#         570
  C:8C8EH         LINE#         572
  C:8CA2H         LINE#         573
  C:8CACH         LINE#         575
  C:8CC0H         LINE#         576
  C:8CC3H         LINE#         578
  C:8CD5H         LINE#         579
  C:8CDFH         LINE#         581
  C:8CF3H         LINE#         582
  C:8CFDH         LINE#         584
  C:8D11H         LINE#         585
  C:8D1BH         LINE#         587
  C:8D2FH         LINE#         588
  C:8D39H         LINE#         589
  -------         ENDPROC       _BLOCK_READ_CLOCK
  -------         PROC          COND_INI_CLOCK
  C:BE7BH         LINE#         592
  C:BE7BH         LINE#         593
  C:BE7BH         LINE#         594
  C:BE7DH         LINE#         595
  C:BE7FH         LINE#         596
  C:BE81H         LINE#         597
  -------         ENDPROC       COND_INI_CLOCK
  -------         PROC          _CHECK_FECHAOUT
  X:009CH         SYMBOL        buffer
  -------         DO            
  X:009FH         SYMBOL        fecha_inicio
  X:00A3H         SYMBOL        fecha_fin
  X:00A7H         SYMBOL        datos_clk
  X:00ADH         SYMBOL        temp
  -------         ENDDO         
  C:8BBAH         LINE#         607
  C:8BC5H         LINE#         608
  C:8BC5H         LINE#         614
  C:8BCEH         LINE#         615
  C:8BFDH         LINE#         616
  C:8C50H         LINE#         619
  C:8C70H         LINE#         620
  C:8C70H         LINE#         621
  C:8C76H         LINE#         622
  C:8C78H         LINE#         624
BL51 BANKED LINKER/LOCATER V6.22.2.0                                                  07/26/2021  14:55:02  PAGE 41


  C:8C78H         LINE#         625
  C:8C7DH         LINE#         626
  C:8C7DH         LINE#         630
  C:8C82H         LINE#         631
  -------         ENDPROC       _CHECK_FECHAOUT
  -------         ENDMOD        CLOCK

  -------         MODULE        DELAY
  C:0000H         SYMBOL        _ICE_DUMMY_
  C:B8A1H         PUBLIC        _Delay_10ms
  C:BDAEH         PUBLIC        _Delay_20us
  C:BD0FH         PUBLIC        _Delay_1ms
  C:BECBH         PUBLIC        Delay
  -------         PROC          _DELAY_20US
  D:0006H         SYMBOL        cntd_us
  -------         DO            
  D:0004H         SYMBOL        i
  -------         ENDDO         
  C:BDAEH         LINE#         20
  C:BDAEH         LINE#         21
  C:BDAEH         LINE#         24
  C:BDB8H         LINE#         26
  C:BDBFH         LINE#         27
  -------         ENDPROC       _DELAY_20US
  -------         PROC          _DELAY_1MS
  D:0002H         SYMBOL        cntd_ms
  -------         DO            
  D:0082H         SYMBOL        i
  -------         ENDDO         
  C:BD0FH         LINE#         38
  C:BD13H         LINE#         39
  C:BD13H         LINE#         41
  C:BD29H         LINE#         42
  -------         ENDPROC       _DELAY_1MS
  -------         PROC          _DELAY_10MS
  X:001CH         SYMBOL        cntd_10ms
  -------         DO            
  X:001EH         SYMBOL        i
  -------         ENDDO         
  C:B8A1H         LINE#         54
  C:B8A9H         LINE#         55
  C:B8A9H         LINE#         57
  C:B8DAH         LINE#         58
  -------         ENDPROC       _DELAY_10MS
  -------         PROC          DELAY
  C:BECBH         LINE#         60
  C:BECBH         LINE#         62
  -------         ENDPROC       DELAY
  -------         ENDMOD        DELAY

  -------         MODULE        EEPROM
  C:0000H         SYMBOL        _ICE_DUMMY_
  D:0090H         PUBLIC        P1
  C:8167H         PUBLIC        _Write_EEprom_Ticket
  C:ACBCH         PUBLIC        _EscribirMemoria
  X:0208H         PUBLIC        l_chr
  C:BC76H         PUBLIC        ackd
BL51 BANKED LINKER/LOCATER V6.22.2.0                                                  07/26/2021  14:55:02  PAGE 42


  B:0021H.6       PUBLIC        memory_flag
  B:00D0H.7       PUBLIC        CY
  C:BEB3H         PUBLIC        p_me
  C:BDC8H         PUBLIC        start
  B:0090H.2       PUBLIC        sda
  C:BC96H         PUBLIC        ack_lect
  B:0090H.3       PUBLIC        scl
  C:B778H         PUBLIC        _rd_eeprom
  C:BE55H         PUBLIC        stop
  X:0209H         PUBLIC        l_data_eeprom
  C:B0BEH         PUBLIC        _wr_eeprom
  C:AE6DH         PUBLIC        _LeerMemoria
  C:B9B9H         PUBLIC        Incremente_Ticket
  X:020AH         PUBLIC        byte_rd
  C:8AF0H         PUBLIC        Read_EEprom_Ticket
  C:BC0EH         PUBLIC        _e_d_m
  C:8A24H         PUBLIC        _graba_serie
  C:B197H         PUBLIC        Lee_No_Ticket
  C:B14AH         PUBLIC        l_d_m
  -------         PROC          L?0057
  -------         ENDPROC       L?0057
  -------         PROC          ACKD
  -------         DO            
  D:0006H         SYMBOL        i
  -------         ENDDO         
  C:BC76H         LINE#         35
  C:BC76H         LINE#         36
  C:BC76H         LINE#         38
  C:BC78H         LINE#         39
  C:BC7AH         LINE#         40
  C:BC7CH         LINE#         41
  C:BC7FH         LINE#         42
  C:BC7FH         LINE#         43
  C:BC82H         LINE#         44
  C:BC82H         LINE#         45
  C:BC84H         LINE#         46
  C:BC86H         LINE#         48
  C:BC87H         LINE#         49
  C:BC87H         LINE#         50
  C:BC92H         LINE#         52
  C:BC92H         LINE#         53
  C:BC92H         LINE#         55
  C:BC92H         LINE#         56
  -------         ENDPROC       ACKD
  -------         PROC          L?0061
  -------         ENDPROC       L?0061
  -------         PROC          ACK_LECT
  -------         DO            
  D:0006H         SYMBOL        i
  -------         ENDDO         
  C:BC96H         LINE#         59
  C:BC96H         LINE#         60
  C:BC96H         LINE#         62
  C:BC98H         LINE#         63
  C:BC9AH         LINE#         64
  C:BC9CH         LINE#         65
  C:BC9FH         LINE#         66
BL51 BANKED LINKER/LOCATER V6.22.2.0                                                  07/26/2021  14:55:02  PAGE 43


  C:BC9FH         LINE#         67
  C:BCA2H         LINE#         68
  C:BCA2H         LINE#         69
  C:BCA4H         LINE#         70
  C:BCA6H         LINE#         71
  C:BCA7H         LINE#         72
  C:BCA7H         LINE#         73
  C:BCB2H         LINE#         74
  -------         ENDPROC       ACK_LECT
  -------         PROC          P_ME
  C:BEB3H         LINE#         76
  C:BEB3H         LINE#         77
  C:BEB3H         LINE#         78
  C:BEB5H         LINE#         79
  C:BEB6H         LINE#         80
  C:BEB8H         LINE#         81
  -------         ENDPROC       P_ME
  -------         PROC          _E_D_M
  D:0007H         SYMBOL        a_serial_eeprom
  -------         DO            
  D:0006H         SYMBOL        nbits
  -------         ENDDO         
  C:BC0EH         LINE#         83
  C:BC0EH         LINE#         84
  C:BC0EH         LINE#         86
  C:BC1AH         LINE#         87
  C:BC1AH         LINE#         88
  C:BC1EH         LINE#         89
  C:BC21H         LINE#         90
  C:BC21H         LINE#         91
  C:BC23H         LINE#         92
  C:BC25H         LINE#         94
  C:BC25H         LINE#         95
  C:BC27H         LINE#         96
  C:BC27H         LINE#         97
  C:BC29H         LINE#         98
  C:BC2CH         LINE#         99
  C:BC2FH         LINE#         101
  -------         ENDPROC       _E_D_M
  -------         PROC          L?0058
  -------         ENDPROC       L?0058
  -------         PROC          START
  C:BDC8H         LINE#         103
  C:BDC8H         LINE#         104
  C:BDC8H         LINE#         105
  C:BDCAH         LINE#         106
  C:BDCCH         LINE#         107
  C:BDCDH         LINE#         108
  C:BDCFH         LINE#         109
  C:BDD1H         LINE#         111
  -------         ENDPROC       START
  -------         PROC          STOP
  C:BE55H         LINE#         113
  C:BE55H         LINE#         114
  C:BE55H         LINE#         115
  C:BE57H         LINE#         116
  C:BE59H         LINE#         117
BL51 BANKED LINKER/LOCATER V6.22.2.0                                                  07/26/2021  14:55:02  PAGE 44


  C:BE5AH         LINE#         118
  C:BE5CH         LINE#         119
  C:BE5EH         LINE#         121
  -------         ENDPROC       STOP
  -------         PROC          L_D_M
  -------         DO            
  D:0003H         SYMBOL        nbits
  -------         ENDDO         
  C:B14AH         LINE#         123
  C:B14AH         LINE#         124
  C:B14AH         LINE#         126
  C:B157H         LINE#         127
  C:B157H         LINE#         128
  C:B159H         LINE#         129
  C:B15CH         LINE#         130
  C:B15CH         LINE#         131
  C:B163H         LINE#         132
  C:B16CH         LINE#         133
  C:B16CH         LINE#         134
  C:B170H         LINE#         135
  C:B172H         LINE#         136
  C:B172H         LINE#         137
  C:B172H         LINE#         138
  C:B175H         LINE#         139
  C:B175H         LINE#         140
  C:B17CH         LINE#         141
  C:B186H         LINE#         142
  C:B186H         LINE#         143
  C:B18AH         LINE#         144
  C:B18CH         LINE#         145
  C:B18CH         LINE#         146
  C:B18CH         LINE#         147
  C:B18FH         LINE#         148
  C:B191H         LINE#         149
  C:B196H         LINE#         150
  -------         ENDPROC       L_D_M
  -------         PROC          L?0056
  -------         ENDPROC       L?0056
  -------         PROC          _WR_EEPROM
  D:0002H         SYMBOL        control
  D:0004H         SYMBOL        Dir
  D:0003H         SYMBOL        data_eeprom
  -------         DO            
  D:0005H         SYMBOL        dir_h
  D:0001H         SYMBOL        dir_l
  -------         ENDDO         
  C:B0BEH         LINE#         156
  C:B0C0H         LINE#         157
  C:B0C0H         LINE#         159
  C:B0C4H         LINE#         160
  C:B0C4H         LINE#         161
  C:B0C4H         LINE#         164
  C:B0C4H         LINE#         165
  C:B0C4H         LINE#         167
  C:B0C7H         LINE#         168
  C:B0C9H         LINE#         169
  C:B0CCH         LINE#         170
BL51 BANKED LINKER/LOCATER V6.22.2.0                                                  07/26/2021  14:55:02  PAGE 45


  C:B0CEH         LINE#         171
  C:B0D1H         LINE#         172
  C:B0D6H         LINE#         173
  C:B0D9H         LINE#         174
  C:B0DEH         LINE#         175
  C:B0E1H         LINE#         176
  C:B0E4H         LINE#         177
  C:B0EBH         LINE#         179
  C:B0EDH         LINE#         180
  C:B0EFH         LINE#         181
  C:B0F6H         LINE#         182
  -------         ENDPROC       _WR_EEPROM
  C:B774H         SYMBOL        L?0060
  -------         PROC          L?0059
  -------         ENDPROC       L?0059
  C:B774H         SYMBOL        L?0060
  -------         PROC          _RD_EEPROM
  D:0003H         SYMBOL        control
  D:0004H         SYMBOL        Dir
  -------         DO            
  D:0005H         SYMBOL        dir_h
  D:0002H         SYMBOL        dir_l
  -------         ENDDO         
  C:B778H         LINE#         220
  C:B77AH         LINE#         221
  C:B77AH         LINE#         224
  C:B77EH         LINE#         225
  C:B77EH         LINE#         226
  C:B77EH         LINE#         228
  C:B77EH         LINE#         229
  C:B77EH         LINE#         231
  C:B781H         LINE#         232
  C:B783H         LINE#         233
  C:B786H         LINE#         234
  C:B788H         LINE#         235
  C:B78BH         LINE#         236
  C:B790H         LINE#         237
  C:B793H         LINE#         238
  C:B796H         LINE#         239
  C:B79CH         LINE#         240
  C:B79FH         LINE#         241
  C:B7A1H         LINE#         242
  C:B7A4H         LINE#         243
  C:B7A7H         LINE#         244
  C:B7A9H         LINE#         245
  C:B7ABH         LINE#         246
  C:B7B0H         LINE#         247
  -------         ENDPROC       _RD_EEPROM
  -------         PROC          _GRABA_SERIE
  X:0010H         SYMBOL        buffer
  -------         DO            
  X:0013H         SYMBOL        j
  X:0014H         SYMBOL        error
  -------         ENDDO         
  C:8A24H         LINE#         254
  C:8A2FH         LINE#         255
  C:8A2FH         LINE#         258
BL51 BANKED LINKER/LOCATER V6.22.2.0                                                  07/26/2021  14:55:02  PAGE 46


  C:8A34H         LINE#         263
  C:8A46H         LINE#         265
  C:8A59H         LINE#         266
  C:8A59H         LINE#         267
  C:8A82H         LINE#         268
  C:8A82H         LINE#         269
  C:8A88H         LINE#         271
  C:8A91H         LINE#         272
  C:8A9FH         LINE#         273
  C:8AA8H         LINE#         274
  C:8AA8H         LINE#         276
  C:8AB0H         LINE#         280
  C:8AB6H         LINE#         281
  C:8AB6H         LINE#         282
  C:8AC4H         LINE#         284
  C:8AC4H         LINE#         286
  C:8AC4H         LINE#         287
  C:8ACEH         LINE#         288
  C:8AD9H         LINE#         289
  C:8AE4H         LINE#         290
  C:8AEFH         LINE#         292
  C:8AEFH         LINE#         293
  -------         ENDPROC       _GRABA_SERIE
  -------         PROC          _WRITE_EEPROM_TICKET
  X:0015H         SYMBOL        buffer
  -------         DO            
  X:0018H         SYMBOL        cod_3
  X:0019H         SYMBOL        cod_2
  X:001AH         SYMBOL        cod_1
  X:001BH         SYMBOL        cod_0
  X:001CH         SYMBOL        Noticket
  D:0004H         SYMBOL        Bnoticket
  -------         ENDDO         
  C:8167H         LINE#         294
  C:8172H         LINE#         295
  C:8172H         LINE#         297
  C:817AH         LINE#         298
  C:8183H         LINE#         299
  C:8191H         LINE#         300
  C:819AH         LINE#         301
  C:81AEH         LINE#         303
  C:81B7H         LINE#         304
  C:81CAH         LINE#         305
  C:81CFH         LINE#         306
  C:81D2H         LINE#         308
  C:81E5H         LINE#         309
  C:81EAH         LINE#         310
  C:81EDH         LINE#         312
  C:8200H         LINE#         313
  C:8205H         LINE#         314
  C:8208H         LINE#         316
  C:8214H         LINE#         317
  C:8217H         LINE#         318
  C:8220H         LINE#         320
  C:822EH         LINE#         321
  C:823CH         LINE#         322
  C:824AH         LINE#         323
BL51 BANKED LINKER/LOCATER V6.22.2.0                                                  07/26/2021  14:55:02  PAGE 47


  -------         ENDPROC       _WRITE_EEPROM_TICKET
  -------         PROC          LEE_NO_TICKET
  -------         DO            
  D:0004H         SYMBOL        Noticket
  X:0043H         SYMBOL        Lee_No_Ticket
  D:0007H         SYMBOL        num_chr
  -------         ENDDO         
  C:B197H         LINE#         328
  C:B197H         LINE#         329
  C:B197H         LINE#         333
  C:B19AH         LINE#         334
  C:B1B5H         LINE#         335
  C:B1BEH         LINE#         336
  C:B1CAH         LINE#         337
  C:B1D3H         LINE#         338
  C:B1DCH         LINE#         339
  C:B1E2H         LINE#         340
  -------         ENDPROC       LEE_NO_TICKET
  -------         PROC          READ_EEPROM_TICKET
  -------         DO            
  D:0001H         SYMBOL        cod3
  X:004EH         SYMBOL        cod2
  X:004FH         SYMBOL        cod1
  X:0050H         SYMBOL        cod0
  X:0051H         SYMBOL        Noticket
  -------         ENDDO         
  C:8AF0H         LINE#         344
  C:8AF0H         LINE#         345
  C:8AF0H         LINE#         347
  C:8AFAH         LINE#         348
  C:8B01H         LINE#         349
  C:8B0BH         LINE#         350
  C:8B19H         LINE#         351
  C:8B23H         LINE#         353
  C:8B43H         LINE#         354
  C:8B68H         LINE#         355
  C:8B8DH         LINE#         356
  C:8BABH         LINE#         357
  C:8BB9H         LINE#         358
  -------         ENDPROC       READ_EEPROM_TICKET
  -------         PROC          INCREMENTE_TICKET
  -------         DO            
  D:0004H         SYMBOL        Noticket
  X:0009H         SYMBOL        Lee_No_Ticket
  -------         ENDDO         
  C:B9B9H         LINE#         362
  C:B9B9H         LINE#         363
  C:B9B9H         LINE#         367
  C:B9BCH         LINE#         368
  C:B9C9H         LINE#         369
  C:B9E4H         LINE#         370
  -------         ENDPROC       INCREMENTE_TICKET
  -------         PROC          _LEERMEMORIA
  X:009CH         SYMBOL        addres
  X:009EH         SYMBOL        res
  -------         DO            
  D:0007H         SYMBOL        i
BL51 BANKED LINKER/LOCATER V6.22.2.0                                                  07/26/2021  14:55:02  PAGE 48


  -------         ENDDO         
  C:AE6DH         LINE#         376
  C:AE7EH         LINE#         377
  C:AE7EH         LINE#         379
  C:AE7EH         LINE#         380
  C:AE9AH         LINE#         381
  C:AEA9H         LINE#         382
  C:AEB7H         LINE#         383
  C:AEC1H         LINE#         384
  C:AEC4H         LINE#         385
  -------         ENDPROC       _LEERMEMORIA
  -------         PROC          _ESCRIBIRMEMORIA
  X:005DH         SYMBOL        addres
  X:005FH         SYMBOL        res
  C:ACBCH         LINE#         387
  C:ACCDH         LINE#         388
  C:ACCDH         LINE#         391
  C:ACDDH         LINE#         392
  C:ACE4H         LINE#         393
  C:ACE7H         LINE#         395
  C:ACF5H         LINE#         396
  C:ACFFH         LINE#         397
  C:AD01H         LINE#         398
  C:AD04H         LINE#         399
  C:AD12H         LINE#         400
  C:AD1CH         LINE#         401
  -------         ENDPROC       _ESCRIBIRMEMORIA
  -------         ENDMOD        EEPROM

  -------         MODULE        IO_SENSORES
  C:0000H         SYMBOL        _ICE_DUMMY_
  D:0090H         PUBLIC        P1
  D:00B0H         PUBLIC        P3
  C:B4F5H         PUBLIC        Dir_board
  B:0021H.7       PUBLIC        PULSADOR_BOTTON
  C:BE90H         PUBLIC        sel_Pulsa
  B:0090H.1       PUBLIC        DataIn
  C:BD70H         PUBLIC        Dir_Board_Monitor
  C:BE89H         PUBLIC        sel_Auto
  C:B915H         PUBLIC        ValidaSensoresPaso
  B:00B0H.3       PUBLIC        busy
  C:BCB3H         PUBLIC        ValidaSensor
  C:BE9EH         PUBLIC        sel_Sensor1
  C:BE97H         PUBLIC        sel_Sensor2
  C:BC30H         PUBLIC        ValidaSensor_cero
  C:B04CH         PUBLIC        Valida_Sensor1_Auto
  B:00B0H.5       PUBLIC        sel_A
  B:00B0H.6       PUBLIC        sel_B
  B:00B0H.7       PUBLIC        sel_C
  C:A64CH         PUBLIC        msj_lcd_informativo
  C:BEA5H         PUBLIC        sel_Dir1
  C:BEACH         PUBLIC        sel_Dir2
  C:BDD2H         PUBLIC        Botton
  C:BE82H         PUBLIC        sel_Funcion
  -------         PROC          SEL_FUNCION
  C:BE82H         LINE#         33
  C:BE82H         LINE#         34
BL51 BANKED LINKER/LOCATER V6.22.2.0                                                  07/26/2021  14:55:02  PAGE 49


  C:BE82H         LINE#         35
  C:BE84H         LINE#         36
  C:BE86H         LINE#         37
  C:BE88H         LINE#         38
  -------         ENDPROC       SEL_FUNCION
  -------         PROC          SEL_AUTO
  C:BE89H         LINE#         40
  C:BE89H         LINE#         41
  C:BE89H         LINE#         42
  C:BE8BH         LINE#         43
  C:BE8DH         LINE#         44
  C:BE8FH         LINE#         45
  -------         ENDPROC       SEL_AUTO
  -------         PROC          SEL_PULSA
  C:BE90H         LINE#         47
  C:BE90H         LINE#         48
  C:BE90H         LINE#         49
  C:BE92H         LINE#         50
  C:BE94H         LINE#         51
  C:BE96H         LINE#         52
  -------         ENDPROC       SEL_PULSA
  -------         PROC          SEL_SENSOR2
  C:BE97H         LINE#         55
  C:BE97H         LINE#         56
  C:BE97H         LINE#         57
  C:BE99H         LINE#         58
  C:BE9BH         LINE#         59
  C:BE9DH         LINE#         60
  -------         ENDPROC       SEL_SENSOR2
  -------         PROC          SEL_SENSOR1
  C:BE9EH         LINE#         62
  C:BE9EH         LINE#         63
  C:BE9EH         LINE#         64
  C:BEA0H         LINE#         65
  C:BEA2H         LINE#         66
  C:BEA4H         LINE#         67
  -------         ENDPROC       SEL_SENSOR1
  -------         PROC          SEL_DIR1
  C:BEA5H         LINE#         69
  C:BEA5H         LINE#         70
  C:BEA5H         LINE#         71
  C:BEA7H         LINE#         72
  C:BEA9H         LINE#         73
  C:BEABH         LINE#         74
  -------         ENDPROC       SEL_DIR1
  -------         PROC          SEL_DIR2
  C:BEACH         LINE#         76
  C:BEACH         LINE#         77
  C:BEACH         LINE#         78
  C:BEAEH         LINE#         79
  C:BEB0H         LINE#         80
  C:BEB2H         LINE#         81
  -------         ENDPROC       SEL_DIR2
  -------         PROC          BOTTON
  C:BDD2H         LINE#         82
  C:BDD2H         LINE#         83
  C:BDD2H         LINE#         84
BL51 BANKED LINKER/LOCATER V6.22.2.0                                                  07/26/2021  14:55:02  PAGE 50


  C:BDD5H         LINE#         85
  C:BDD8H         LINE#         86
  C:BDD8H         LINE#         87
  C:BDE1H         LINE#         88
  C:BDE3H         LINE#         89
  C:BDE3H         LINE#         91
  -------         ENDPROC       BOTTON
  -------         PROC          VALIDASENSOR
  -------         DO            
  D:0007H         SYMBOL        Valido
  D:0004H         SYMBOL        Tmin
  -------         ENDDO         
  C:BCB3H         LINE#         93
  C:BCB3H         LINE#         94
  C:BCB3H         LINE#         96
  C:BCB5H         LINE#         97
  C:BCB9H         LINE#         98
  C:BCC4H         LINE#         99
  C:BCC4H         LINE#         100
  C:BCC9H         LINE#         101
  C:BCCDH         LINE#         102
  C:BCCDH         LINE#         103
  C:BCCFH         LINE#         104
  C:BCCFH         LINE#         105
  C:BCD1H         LINE#         106
  C:BCD1H         LINE#         107
  -------         ENDPROC       VALIDASENSOR
  -------         PROC          VALIDASENSOR_CERO
  -------         DO            
  D:0007H         SYMBOL        Valido
  D:0004H         SYMBOL        Tmin
  -------         ENDDO         
  C:BC30H         LINE#         108
  C:BC30H         LINE#         109
  C:BC30H         LINE#         111
  C:BC32H         LINE#         112
  C:BC36H         LINE#         113
  C:BC45H         LINE#         114
  C:BC45H         LINE#         115
  C:BC4AH         LINE#         116
  C:BC4EH         LINE#         117
  C:BC4EH         LINE#         118
  C:BC4FH         LINE#         119
  C:BC4FH         LINE#         120
  C:BC51H         LINE#         121
  C:BC51H         LINE#         122
  -------         ENDPROC       VALIDASENSOR_CERO
  -------         PROC          DIR_BOARD
  -------         DO            
  X:0032H         SYMBOL        Board
  D:0007H         SYMBOL        Board_High
  -------         ENDDO         
  C:B4F5H         LINE#         126
  C:B4F5H         LINE#         127
  C:B4F5H         LINE#         128
  C:B4FBH         LINE#         130
  C:B4FEH         LINE#         131
BL51 BANKED LINKER/LOCATER V6.22.2.0                                                  07/26/2021  14:55:02  PAGE 51


  C:B501H         LINE#         132
  C:B501H         LINE#         133
  C:B504H         LINE#         134
  C:B504H         LINE#         135
  C:B507H         LINE#         136
  C:B50AH         LINE#         137
  C:B50AH         LINE#         138
  C:B511H         LINE#         139
  C:B511H         LINE#         140
  C:B519H         LINE#         141
  C:B519H         LINE#         142
  C:B521H         LINE#         144
  C:B524H         LINE#         145
  C:B524H         LINE#         146
  C:B52AH         LINE#         147
  C:B52AH         LINE#         148
  C:B52CH         LINE#         149
  C:B52EH         LINE#         150
  C:B530H         LINE#         151
  C:B530H         LINE#         153
  C:B530H         LINE#         154
  C:B537H         LINE#         155
  -------         ENDPROC       DIR_BOARD
  -------         PROC          DIR_BOARD_MONITOR
  -------         DO            
  D:0007H         SYMBOL        Board_High
  -------         ENDDO         
  C:BD70H         LINE#         156
  C:BD70H         LINE#         157
  C:BD70H         LINE#         160
  C:BD79H         LINE#         161
  C:BD7CH         LINE#         162
  C:BD7CH         LINE#         163
  C:BD7FH         LINE#         164
  C:BD7FH         LINE#         165
  C:BD81H         LINE#         166
  C:BD81H         LINE#         167
  C:BD81H         LINE#         168
  C:BD85H         LINE#         169
  -------         ENDPROC       DIR_BOARD_MONITOR
  -------         PROC          VALIDA_SENSOR1_AUTO
  -------         DO            
  X:0011H         SYMBOL        sensor
  -------         ENDDO         
  C:B04CH         LINE#         173
  C:B04CH         LINE#         174
  C:B04CH         LINE#         176
  C:B04FH         LINE#         177
  C:B052H         LINE#         178
  C:B055H         LINE#         179
  C:B05AH         LINE#         180
  C:B05AH         LINE#         181
  C:B061H         LINE#         182
  C:B065H         LINE#         183
  C:B065H         LINE#         184
  C:B065H         LINE#         185
  C:B067H         LINE#         187
BL51 BANKED LINKER/LOCATER V6.22.2.0                                                  07/26/2021  14:55:02  PAGE 52


  C:B067H         LINE#         188
  C:B06EH         LINE#         189
  C:B073H         LINE#         190
  C:B073H         LINE#         191
  C:B073H         LINE#         192
  C:B073H         LINE#         195
  C:B075H         LINE#         197
  C:B078H         LINE#         198
  C:B07DH         LINE#         199
  C:B07DH         LINE#         201
  C:B084H         LINE#         202
  C:B08AH         LINE#         203
  C:B090H         LINE#         204
  C:B093H         LINE#         205
  C:B095H         LINE#         207
  C:B095H         LINE#         208
  C:B09CH         LINE#         209
  C:B0A1H         LINE#         210
  C:B0A1H         LINE#         213
  C:B0A1H         LINE#         215
  C:B0A6H         LINE#         216
  -------         ENDPROC       VALIDA_SENSOR1_AUTO
  -------         PROC          VALIDASENSORESPASO
  -------         DO            
  X:0010H         SYMBOL        sensor
  -------         ENDDO         
  C:B915H         LINE#         221
  C:B915H         LINE#         222
  C:B915H         LINE#         224
  C:B918H         LINE#         225
  C:B91BH         LINE#         226
  C:B91BH         LINE#         227
  C:B929H         LINE#         228
  C:B929H         LINE#         229
  C:B931H         LINE#         231
  C:B933H         LINE#         233
  C:B933H         LINE#         234
  C:B939H         LINE#         235
  C:B93BH         LINE#         236
  C:B93BH         LINE#         237
  C:B93BH         LINE#         238
  C:B93BH         LINE#         239
  C:B944H         LINE#         240
  C:B947H         LINE#         241
  C:B947H         LINE#         242
  C:B94CH         LINE#         243
  -------         ENDPROC       VALIDASENSORESPASO
  -------         PROC          MSJ_LCD_INFORMATIVO
  -------         DO            
  X:0211H         SYMBOL        contador
  X:0001H         SYMBOL        info
  X:0212H         SYMBOL        toggle
  -------         ENDDO         
  C:A64CH         LINE#         253
  C:A64CH         LINE#         254
  C:A64CH         LINE#         256
  C:A651H         LINE#         258
BL51 BANKED LINKER/LOCATER V6.22.2.0                                                  07/26/2021  14:55:02  PAGE 53


  C:A657H         LINE#         259
  C:A661H         LINE#         260
  C:A661H         LINE#         261
  C:A663H         LINE#         262
  C:A666H         LINE#         263
  C:A66FH         LINE#         264
  C:A66FH         LINE#         265
  C:A679H         LINE#         266
  C:A679H         LINE#         267
  C:A685H         LINE#         268
  C:A685H         LINE#         269
  C:A688H         LINE#         270
  C:A688H         LINE#         271
  C:A68AH         LINE#         272
  C:A68DH         LINE#         273
  C:A693H         LINE#         274
  C:A693H         LINE#         275
  C:A6A1H         LINE#         276
  C:A6A1H         LINE#         277
  C:A6A7H         LINE#         278
  C:A6A7H         LINE#         279
  C:A6A9H         LINE#         280
  C:A6B7H         LINE#         281
  C:A6B7H         LINE#         282
  C:A6BAH         LINE#         283
  C:A6BAH         LINE#         284
  C:A6BCH         LINE#         285
  C:A6BFH         LINE#         286
  C:A6C4H         LINE#         287
  C:A6C4H         LINE#         288
  C:A6C4H         LINE#         289
  C:A6C4H         LINE#         290
  C:A6C4H         LINE#         291
  C:A6C7H         LINE#         292
  C:A6CAH         LINE#         293
  C:A6CAH         LINE#         294
  C:A6CFH         LINE#         295
  C:A6CFH         LINE#         296
  C:A6CFH         LINE#         297
  -------         ENDPROC       MSJ_LCD_INFORMATIVO
  -------         ENDMOD        IO_SENSORES

  -------         MODULE        PANTALLAS
  C:0000H         SYMBOL        _ICE_DUMMY_
  D:0080H         PUBLIC        P0
  C:AADBH         PUBLIC        Reloj_Pantalla_Lcd
  C:279EH         PUBLIC        _PantallaLCD
  C:B4B9H         PUBLIC        _LCD_txt
  C:A7E1H         PUBLIC        _Raspberry_data
  C:BB5BH         PUBLIC        _tx_chrlcd
  C:3593H         SYMBOL        _?ix1000
  C:3599H         SYMBOL        _?ix1001
  C:359FH         SYMBOL        _?ix1002
  C:35C7H         SYMBOL        _?ix1003
  C:B3DFH         PUBLIC        _LCD_txt_num_char
  C:4C4BH         PUBLIC        _PantallaLCD_LINEA_2
  B:0098H.4       PUBLIC        REN
BL51 BANKED LINKER/LOCATER V6.22.2.0                                                  07/26/2021  14:55:02  PAGE 54


  B:0080H.7       PUBLIC        sel_com
  -------         PROC          _PANTALLALCD
  X:002AH         SYMBOL        cod_msg
  -------         DO            
  X:002BH         SYMBOL        Ini_LCD_Line_one
  X:0031H         SYMBOL        num_chr
  X:0032H         SYMBOL        msjpantalla
  -------         ENDDO         
  C:279EH         LINE#         96
  C:27A3H         LINE#         97
  C:27A3H         LINE#         99
  C:27B6H         LINE#         104
  C:27BDH         LINE#         108
  C:27BFH         LINE#         110
  C:27C8H         LINE#         111
  C:27C8H         LINE#         112
  C:27D2H         LINE#         114
  C:282EH         LINE#         115
  C:282EH         LINE#         117
  C:282EH         LINE#         118
  C:283CH         LINE#         119
  C:2842H         LINE#         120
  C:2845H         LINE#         121
  C:284BH         LINE#         122
  C:284EH         LINE#         124
  C:284EH         LINE#         126
  C:285CH         LINE#         127
  C:2862H         LINE#         128
  C:2865H         LINE#         129
  C:286BH         LINE#         130
  C:286EH         LINE#         132
  C:286EH         LINE#         134
  C:287CH         LINE#         135
  C:2882H         LINE#         136
  C:2885H         LINE#         137
  C:288BH         LINE#         138
  C:288EH         LINE#         139
  C:288EH         LINE#         140
  C:289CH         LINE#         141
  C:28A2H         LINE#         142
  C:28A5H         LINE#         143
  C:28ABH         LINE#         144
  C:28AEH         LINE#         145
  C:28AEH         LINE#         146
  C:28BCH         LINE#         147
  C:28C2H         LINE#         148
  C:28C5H         LINE#         149
  C:28CBH         LINE#         150
  C:28CEH         LINE#         151
  C:28CEH         LINE#         152
  C:28DCH         LINE#         153
  C:28E2H         LINE#         154
  C:28E5H         LINE#         155
  C:28EBH         LINE#         156
  C:28EEH         LINE#         157
  C:28EEH         LINE#         159
  C:28FCH         LINE#         160
BL51 BANKED LINKER/LOCATER V6.22.2.0                                                  07/26/2021  14:55:02  PAGE 55


  C:2902H         LINE#         161
  C:2905H         LINE#         162
  C:290BH         LINE#         163
  C:290EH         LINE#         164
  C:290EH         LINE#         170
  C:290EH         LINE#         171
  C:291CH         LINE#         172
  C:2922H         LINE#         173
  C:2925H         LINE#         174
  C:292BH         LINE#         175
  C:292EH         LINE#         176
  C:292EH         LINE#         177
  C:293CH         LINE#         178
  C:2942H         LINE#         179
  C:2945H         LINE#         180
  C:294BH         LINE#         181
  C:294EH         LINE#         183
  C:294EH         LINE#         184
  C:295CH         LINE#         185
  C:2962H         LINE#         186
  C:2965H         LINE#         187
  C:296BH         LINE#         188
  C:296EH         LINE#         190
  C:296EH         LINE#         191
  C:297CH         LINE#         192
  C:2982H         LINE#         193
  C:2985H         LINE#         194
  C:298BH         LINE#         195
  C:298EH         LINE#         200
  C:298EH         LINE#         202
  C:299CH         LINE#         203
  C:29A2H         LINE#         204
  C:29A5H         LINE#         205
  C:29ABH         LINE#         206
  C:29AEH         LINE#         208
  C:29AEH         LINE#         210
  C:29BCH         LINE#         211
  C:29C2H         LINE#         212
  C:29C5H         LINE#         213
  C:29CBH         LINE#         214
  C:29CEH         LINE#         216
  C:29CEH         LINE#         217
  C:29DCH         LINE#         218
  C:29E2H         LINE#         219
  C:29E5H         LINE#         220
  C:29EBH         LINE#         221
  C:29EEH         LINE#         223
  C:29EEH         LINE#         225
  C:29FCH         LINE#         226
  C:2A02H         LINE#         227
  C:2A05H         LINE#         228
  C:2A0BH         LINE#         229
  C:2A0EH         LINE#         231
  C:2A0EH         LINE#         233
  C:2A1CH         LINE#         234
  C:2A22H         LINE#         235
  C:2A25H         LINE#         236
BL51 BANKED LINKER/LOCATER V6.22.2.0                                                  07/26/2021  14:55:02  PAGE 56


  C:2A2BH         LINE#         237
  C:2A2EH         LINE#         239
  C:2A2EH         LINE#         240
  C:2A3CH         LINE#         241
  C:2A42H         LINE#         242
  C:2A45H         LINE#         243
  C:2A4BH         LINE#         244
  C:2A4EH         LINE#         246
  C:2A4EH         LINE#         247
  C:2A5CH         LINE#         248
  C:2A62H         LINE#         249
  C:2A65H         LINE#         250
  C:2A6BH         LINE#         251
  C:2A6EH         LINE#         253
  C:2A6EH         LINE#         255
  C:2A7CH         LINE#         256
  C:2A82H         LINE#         257
  C:2A85H         LINE#         258
  C:2A8BH         LINE#         259
  C:2A8EH         LINE#         261
  C:2A8EH         LINE#         262
  C:2A9CH         LINE#         263
  C:2AA2H         LINE#         264
  C:2AA5H         LINE#         265
  C:2AABH         LINE#         266
  C:2AAEH         LINE#         267
  C:2AAEH         LINE#         268
  C:2ABCH         LINE#         269
  C:2AC2H         LINE#         270
  C:2AC5H         LINE#         271
  C:2ACBH         LINE#         272
  C:2ACEH         LINE#         273
  C:2ACEH         LINE#         274
  C:2ADCH         LINE#         275
  C:2AE2H         LINE#         276
  C:2AE5H         LINE#         277
  C:2AEBH         LINE#         278
  C:2AEEH         LINE#         279
  C:2AEEH         LINE#         280
  C:2AFCH         LINE#         281
  C:2AFFH         LINE#         282
  C:2B05H         LINE#         283
  C:2B07H         LINE#         287
  C:2B07H         LINE#         288
  C:2B15H         LINE#         289
  C:2B1BH         LINE#         290
  C:2B1EH         LINE#         291
  C:2B24H         LINE#         292
  C:2B26H         LINE#         293
  C:2B26H         LINE#         294
  C:2B34H         LINE#         295
  C:2B3AH         LINE#         296
  C:2B3DH         LINE#         297
  C:2B43H         LINE#         298
  C:2B45H         LINE#         299
  C:2B45H         LINE#         300
  C:2B53H         LINE#         301
BL51 BANKED LINKER/LOCATER V6.22.2.0                                                  07/26/2021  14:55:02  PAGE 57


  C:2B59H         LINE#         302
  C:2B5CH         LINE#         303
  C:2B67H         LINE#         304
  C:2B67H         LINE#         313
  C:2B67H         LINE#         315
  C:2B67H         LINE#         316
  C:2B67H         LINE#         317
  C:2B69H         LINE#         319
  C:2B6AH         LINE#         321
  C:2B6AH         LINE#         322
  C:2B6CH         LINE#         323
  C:2BDAH         LINE#         324
  C:2BDAH         LINE#         327
  C:2BDAH         LINE#         328
  C:2BEEH         LINE#         329
  C:2BEEH         LINE#         331
  C:2BF1H         LINE#         332
  C:2BF1H         LINE#         335
  C:2C05H         LINE#         336
  C:2C05H         LINE#         337
  C:2C08H         LINE#         339
  C:2C08H         LINE#         340
  C:2C1CH         LINE#         341
  C:2C1CH         LINE#         343
  C:2C1FH         LINE#         344
  C:2C1FH         LINE#         345
  C:2C33H         LINE#         346
  C:2C33H         LINE#         348
  C:2C36H         LINE#         349
  C:2C36H         LINE#         350
  C:2C4AH         LINE#         351
  C:2C4AH         LINE#         353
  C:2C4DH         LINE#         354
  C:2C4DH         LINE#         355
  C:2C61H         LINE#         356
  C:2C61H         LINE#         358
  C:2C64H         LINE#         359
  C:2C64H         LINE#         360
  C:2C78H         LINE#         361
  C:2C78H         LINE#         363
  C:2C7BH         LINE#         364
  C:2C7BH         LINE#         365
  C:2C8FH         LINE#         366
  C:2C8FH         LINE#         368
  C:2C92H         LINE#         369
  C:2C92H         LINE#         370
  C:2CA6H         LINE#         371
  C:2CA6H         LINE#         373
  C:2CA9H         LINE#         374
  C:2CA9H         LINE#         375
  C:2CBDH         LINE#         376
  C:2CBDH         LINE#         378
  C:2CC0H         LINE#         380
  C:2CC0H         LINE#         381
  C:2CD4H         LINE#         382
  C:2CD4H         LINE#         384
  C:2CD7H         LINE#         386
BL51 BANKED LINKER/LOCATER V6.22.2.0                                                  07/26/2021  14:55:02  PAGE 58


  C:2CD7H         LINE#         387
  C:2CEBH         LINE#         388
  C:2CEBH         LINE#         390
  C:2CEEH         LINE#         392
  C:2CEEH         LINE#         393
  C:2D02H         LINE#         394
  C:2D02H         LINE#         396
  C:2D05H         LINE#         400
  C:2D05H         LINE#         401
  C:2D19H         LINE#         402
  C:2D19H         LINE#         404
  C:2D1CH         LINE#         406
  C:2D1CH         LINE#         407
  C:2D30H         LINE#         408
  C:2D30H         LINE#         410
  C:2D33H         LINE#         412
  C:2D33H         LINE#         413
  C:2D47H         LINE#         414
  C:2D47H         LINE#         417
  C:2D4AH         LINE#         418
  C:2D4AH         LINE#         419
  C:2D5EH         LINE#         420
  C:2D5EH         LINE#         422
  C:2D61H         LINE#         423
  C:2D61H         LINE#         424
  C:2D75H         LINE#         425
  C:2D75H         LINE#         427
  C:2D78H         LINE#         428
  C:2D78H         LINE#         429
  C:2D8CH         LINE#         430
  C:2D8CH         LINE#         432
  C:2D8FH         LINE#         433
  C:2D8FH         LINE#         434
  C:2DA3H         LINE#         435
  C:2DA3H         LINE#         437
  C:2DA6H         LINE#         439
  C:2DA6H         LINE#         440
  C:2DBAH         LINE#         441
  C:2DBAH         LINE#         443
  C:2DBDH         LINE#         445
  C:2DBDH         LINE#         446
  C:2DD1H         LINE#         447
  C:2DD1H         LINE#         449
  C:2DD4H         LINE#         450
  C:2DD4H         LINE#         451
  C:2DE8H         LINE#         452
  C:2DE8H         LINE#         454
  C:2DEBH         LINE#         455
  C:2DEBH         LINE#         456
  C:2DFFH         LINE#         457
  C:2DFFH         LINE#         459
  C:2E02H         LINE#         460
  C:2E02H         LINE#         461
  C:2E16H         LINE#         462
  C:2E16H         LINE#         464
  C:2E19H         LINE#         466
  C:2E19H         LINE#         467
BL51 BANKED LINKER/LOCATER V6.22.2.0                                                  07/26/2021  14:55:02  PAGE 59


  C:2E2DH         LINE#         468
  C:2E2DH         LINE#         470
  C:2E30H         LINE#         471
  C:2E30H         LINE#         472
  C:2E44H         LINE#         473
  C:2E44H         LINE#         475
  C:2E47H         LINE#         476
  C:2E47H         LINE#         477
  C:2E5BH         LINE#         478
  C:2E5BH         LINE#         480
  C:2E5DH         LINE#         482
  C:2E5DH         LINE#         483
  C:2E71H         LINE#         484
  C:2E71H         LINE#         486
  C:2E73H         LINE#         489
  C:2E73H         LINE#         490
  C:2E87H         LINE#         491
  C:2E87H         LINE#         493
  C:2E89H         LINE#         494
  C:2E89H         LINE#         495
  C:2E9DH         LINE#         496
  C:2E9DH         LINE#         498
  C:2E9FH         LINE#         499
  C:2E9FH         LINE#         500
  C:2EB3H         LINE#         501
  C:2EB3H         LINE#         502
  C:2EB5H         LINE#         504
  C:2EB5H         LINE#         505
  C:2ECCH         LINE#         506
  C:2EDBH         LINE#         507
  C:2EDBH         LINE#         512
  C:2EDBH         LINE#         513
  C:2EDBH         LINE#         514
  C:2EDBH         LINE#         516
  C:2EE2H         LINE#         517
  C:2EE4H         LINE#         518
  C:2EE4H         LINE#         522
  -------         ENDPROC       _PANTALLALCD
  -------         PROC          _PANTALLALCD_LINEA_2
  X:0010H         SYMBOL        cod_msg
  X:0011H         SYMBOL        buffer
  -------         DO            
  X:0014H         SYMBOL        Ini_LCD_Line_one
  X:001AH         SYMBOL        num_chr
  X:001BH         SYMBOL        msjpantalla
  -------         ENDDO         
  C:4C4BH         LINE#         523
  C:4C59H         LINE#         524
  C:4C59H         LINE#         526
  C:4C6CH         LINE#         528
  C:4C7FH         LINE#         535
  C:4C81H         LINE#         537
  C:4C8AH         LINE#         538
  C:4C8AH         LINE#         541
  C:4C98H         LINE#         542
  C:4C98H         LINE#         544
  C:4C98H         LINE#         545
BL51 BANKED LINKER/LOCATER V6.22.2.0                                                  07/26/2021  14:55:02  PAGE 60


  C:4C9BH         LINE#         546
  C:4CA9H         LINE#         547
  C:4CBEH         LINE#         548
  C:4CC4H         LINE#         549
  C:4CCAH         LINE#         550
  C:4CD0H         LINE#         551
  C:4CD0H         LINE#         552
  C:4CD2H         LINE#         553
  C:4CD2H         LINE#         554
  C:4CD5H         LINE#         555
  C:4CE3H         LINE#         556
  C:4CF8H         LINE#         557
  C:4CFEH         LINE#         558
  C:4D04H         LINE#         559
  C:4D0FH         LINE#         560
  C:4D1FH         LINE#         561
  C:4D1FH         LINE#         565
  C:4D1FH         LINE#         567
  C:4D1FH         LINE#         569
  C:4D1FH         LINE#         570
  C:4D21H         LINE#         571
  C:4D22H         LINE#         573
  C:4D22H         LINE#         574
  C:4D24H         LINE#         576
  C:4D4CH         LINE#         577
  C:4D4CH         LINE#         578
  C:4D4CH         LINE#         581
  C:4D58H         LINE#         583
  C:4D58H         LINE#         585
  C:4D58H         LINE#         588
  C:4D58H         LINE#         591
  C:4D5BH         LINE#         593
  C:4D5BH         LINE#         594
  C:4D67H         LINE#         595
  C:4D67H         LINE#         596
  C:4D67H         LINE#         597
  C:4D67H         LINE#         598
  C:4D67H         LINE#         599
  C:4D67H         LINE#         601
  C:4D6AH         LINE#         602
  C:4D6AH         LINE#         604
  C:4D76H         LINE#         605
  C:4D79H         LINE#         606
  C:4D7CH         LINE#         607
  C:4D7CH         LINE#         609
  C:4D85H         LINE#         611
  C:4D85H         LINE#         612
  C:4D87H         LINE#         614
  C:4D87H         LINE#         616
  C:4D98H         LINE#         618
  C:4D9BH         LINE#         620
  C:4D9BH         LINE#         621
  C:4DA6H         LINE#         622
  C:4DA6H         LINE#         623
  C:4DADH         LINE#         625
  C:4DC3H         LINE#         627
  C:4DDAH         LINE#         628
BL51 BANKED LINKER/LOCATER V6.22.2.0                                                  07/26/2021  14:55:02  PAGE 61


  C:4DDDH         LINE#         630
  C:4DDDH         LINE#         631
  C:4DE4H         LINE#         633
  C:4DE4H         LINE#         634
  C:4DE4H         LINE#         637
  C:4DE7H         LINE#         638
  C:4DE7H         LINE#         639
  C:4DF6H         LINE#         640
  C:4E14H         LINE#         641
  C:4E2BH         LINE#         643
  C:4E2BH         LINE#         645
  C:4E2EH         LINE#         646
  C:4E2EH         LINE#         647
  C:4E3DH         LINE#         648
  C:4E50H         LINE#         649
  C:4E6AH         LINE#         650
  C:4E88H         LINE#         651
  C:4E9FH         LINE#         652
  C:4E9FH         LINE#         654
  C:4EA1H         LINE#         655
  C:4EA1H         LINE#         656
  C:4EB0H         LINE#         657
  C:4ECEH         LINE#         658
  C:4EE5H         LINE#         659
  C:4EE8H         LINE#         660
  C:4EE8H         LINE#         661
  C:4EE8H         LINE#         663
  C:4EE8H         LINE#         664
  C:4EE8H         LINE#         666
  C:4EEDH         LINE#         667
  C:4EEFH         LINE#         668
  C:4EEFH         LINE#         669
  -------         ENDPROC       _PANTALLALCD_LINEA_2
  C:BB52H         SYMBOL        L?0176
  C:BB55H         SYMBOL        L?0177
  C:BB56H         SYMBOL        L?0178
  -------         PROC          L?0175
  -------         ENDPROC       L?0175
  C:BB52H         SYMBOL        L?0176
  C:BB55H         SYMBOL        L?0177
  C:BB56H         SYMBOL        L?0178
  -------         PROC          _TX_CHRLCD
  D:0007H         SYMBOL        data_com
  X:0048H         SYMBOL        enable_char_add
  -------         DO            
  X:0049H         SYMBOL        d
  -------         ENDDO         
  C:BB5BH         LINE#         675
  C:BB60H         LINE#         676
  C:BB60H         LINE#         678
  C:BB68H         LINE#         679
  C:BB78H         LINE#         681
  -------         ENDPROC       _TX_CHRLCD
  -------         PROC          L?0181
  -------         ENDPROC       L?0181
  -------         PROC          _LCD_TXT
  X:0043H         SYMBOL        msg
BL51 BANKED LINKER/LOCATER V6.22.2.0                                                  07/26/2021  14:55:02  PAGE 62


  X:0046H         SYMBOL        enable_char_add
  -------         DO            
  X:0047H         SYMBOL        i
  -------         ENDDO         
  C:B4B9H         LINE#         688
  C:B4C7H         LINE#         689
  C:B4C7H         LINE#         692
  C:B4E4H         LINE#         693
  C:B4E4H         LINE#         694
  C:B4ECH         LINE#         695
  C:B4F4H         LINE#         696
  -------         ENDPROC       _LCD_TXT
  -------         PROC          _LCD_TXT_NUM_CHAR
  X:001DH         SYMBOL        msg
  X:0020H         SYMBOL        length_char
  X:0021H         SYMBOL        enable_char_add
  -------         DO            
  X:0022H         SYMBOL        i
  -------         ENDDO         
  C:B3DFH         LINE#         703
  C:B3EDH         LINE#         704
  C:B3EDH         LINE#         707
  C:B400H         LINE#         708
  C:B400H         LINE#         709
  C:B41CH         LINE#         710
  C:B424H         LINE#         711
  -------         ENDPROC       _LCD_TXT_NUM_CHAR
  C:A7DBH         SYMBOL        L?0180
  -------         PROC          L?0179
  -------         ENDPROC       L?0179
  C:A7DBH         SYMBOL        L?0180
  -------         PROC          _RASPBERRY_DATA
  X:0043H         SYMBOL        msjpantalla
  -------         DO            
  X:0046H         SYMBOL        i
  X:0047H         SYMBOL        lenth_cadena
  X:0048H         SYMBOL        d
  -------         ENDDO         
  C:A7E1H         LINE#         713
  C:A7ECH         LINE#         714
  C:A7ECH         LINE#         721
  C:A7F4H         LINE#         723
  C:A806H         LINE#         724
  C:A806H         LINE#         726
  C:A818H         LINE#         727
  C:A818H         LINE#         728
  C:A81DH         LINE#         729
  C:A83BH         LINE#         731
  C:A843H         LINE#         734
  C:A855H         LINE#         735
  C:A855H         LINE#         737
  C:A85AH         LINE#         739
  -------         ENDPROC       _RASPBERRY_DATA
  -------         PROC          RELOJ_PANTALLA_LCD
  -------         DO            
  X:0010H         SYMBOL        Ini_Clock_LCD
  -------         ENDDO         
BL51 BANKED LINKER/LOCATER V6.22.2.0                                                  07/26/2021  14:55:02  PAGE 63


  C:AADBH         LINE#         747
  C:AADBH         LINE#         748
  C:AADBH         LINE#         750
  C:AAEEH         LINE#         752
  C:AAF4H         LINE#         753
  C:AAF4H         LINE#         754
  C:AAF6H         LINE#         755
  C:AAFFH         LINE#         759
  C:AB01H         LINE#         760
  C:AB11H         LINE#         762
  C:AB13H         LINE#         763
  C:AB15H         LINE#         765
  C:AB16H         LINE#         767
  C:AB16H         LINE#         768
  C:AB18H         LINE#         769
  C:AB1DH         LINE#         770
  C:AB2CH         LINE#         772
  C:AB35H         LINE#         773
  C:AB4CH         LINE#         774
  C:AB55H         LINE#         777
  C:AB57H         LINE#         778
  C:AB57H         LINE#         779
  -------         ENDPROC       RELOJ_PANTALLA_LCD
  -------         ENDMOD        PANTALLAS

  -------         MODULE        PROG
  C:0000H         SYMBOL        _ICE_DUMMY_
  C:575DH         PUBLIC        Prog_fecha_vencimiento
  C:6AB2H         PUBLIC        Prog_Sin_Cobro
  C:7437H         PUBLIC        _Ver_Horario_Desde_Hasta
  C:7A83H         PUBLIC        Prog_debug
  C:7D77H         PUBLIC        Prog_AntiPassBack
  C:A209H         PUBLIC        _GetOption
  X:01B3H         PUBLIC        validacion
  C:7F6FH         PUBLIC        Prog_Validar_Tipo_Vehiculo_Mensual
  X:01BEH         PUBLIC        cursor
  C:731DH         PUBLIC        _Prog_Horarios_on_off
  C:9E74H         PUBLIC        Show
  C:4368H         PUBLIC        Ver_Prog
  C:B9EDH         PUBLIC        Addr_Horarios
  C:94BDH         PUBLIC        prog_id_cliente
  C:B540H         PUBLIC        _ValidarClave
  C:512FH         PUBLIC        menu
  C:7B7FH         PUBLIC        Prog_Use_Lpr
  C:AED3H         PUBLIC        _ListaComandos
  C:12F7H         SYMBOL        _?ix1000
  C:1302H         SYMBOL        _?ix1001
  C:1312H         SYMBOL        _?ix1002
  C:1322H         SYMBOL        _?ix1003
  C:1326H         SYMBOL        _?ix1004
  C:696DH         PUBLIC        Prog_Horarios
  C:132AH         SYMBOL        _?ix1005
  C:806BH         PUBLIC        Prog_Apb_Mensual
  C:8ECFH         PUBLIC        Prog_tarjeta_automatica_o_boton
  C:535BH         PUBLIC        _hash_id
  C:4994H         PUBLIC        _Prog_Horario_dias
  C:928CH         PUBLIC        Prog_tiempo_gracia
BL51 BANKED LINKER/LOCATER V6.22.2.0                                                  07/26/2021  14:55:02  PAGE 64


  C:A8E4H         PUBLIC        _IngresaDato
  X:01D2H         PUBLIC        comandos
  C:B2C3H         PUBLIC        First_Clave
  C:BD42H         PUBLIC        DisplayCursor
  C:7E73H         PUBLIC        Prog_Placa
  C:91CFH         PUBLIC        prog_cod_park
  C:6E6AH         PUBLIC        Ver_Horario
  C:71F5H         PUBLIC        _Ver_Horario_dias
  C:5563H         PUBLIC        _Prog_Horario_Desde_Hasta
  C:7C7BH         PUBLIC        tipo_pantalla
  C:850FH         PUBLIC        Prog_Address_High_Board
  C:B602H         PUBLIC        _GetCMD
  -------         PROC          _HASH_ID
  X:005DH         SYMBOL        clave
  -------         DO            
  X:0060H         SYMBOL        len_clave
  X:0061H         SYMBOL        i
  X:01AFH         SYMBOL        temp
  X:01B1H         SYMBOL        temp1
  X:0062H         SYMBOL        aleatorio
  X:006DH         SYMBOL        suma
  X:007DH         SYMBOL        xxor
  X:008DH         SYMBOL        usuario1
  X:0098H         SYMBOL        vencimiento_password
  -------         ENDDO         
  C:535BH         LINE#         121
  C:5366H         LINE#         122
  C:5366H         LINE#         125
  C:5379H         LINE#         127
  C:538CH         LINE#         128
  C:539FH         LINE#         132
  C:53ACH         LINE#         133
  C:53C8H         LINE#         135
  C:53C8H         LINE#         136
  C:53CCH         LINE#         137
  C:53CEH         LINE#         139
  C:53CEH         LINE#         140
  C:53D5H         LINE#         141
  C:53D5H         LINE#         142
  C:53E8H         LINE#         143
  C:53FCH         LINE#         144
  C:53FCH         LINE#         145
  C:5428H         LINE#         146
  C:5433H         LINE#         147
  C:5440H         LINE#         148
  C:545EH         LINE#         149
  C:5469H         LINE#         150
  C:5476H         LINE#         151
  C:549AH         LINE#         152
  C:54A2H         LINE#         153
  C:54A2H         LINE#         154
  C:54A7H         LINE#         155
  C:54A7H         LINE#         156
  C:54C0H         LINE#         157
  C:54C0H         LINE#         158
  C:54CCH         LINE#         160
  C:54CCH         LINE#         161
BL51 BANKED LINKER/LOCATER V6.22.2.0                                                  07/26/2021  14:55:02  PAGE 65


  C:54DBH         LINE#         162
  C:54DBH         LINE#         163
  C:54E7H         LINE#         164
  C:54E7H         LINE#         165
  C:5500H         LINE#         166
  C:5500H         LINE#         167
  C:550BH         LINE#         168
  C:550BH         LINE#         169
  C:5524H         LINE#         170
  C:5524H         LINE#         171
  C:552FH         LINE#         172
  C:552FH         LINE#         173
  C:5544H         LINE#         175
  C:554DH         LINE#         176
  C:555CH         LINE#         178
  C:5562H         LINE#         179
  -------         ENDPROC       _HASH_ID
  -------         PROC          _LISTACOMANDOS
  X:0046H         SYMBOL        cmd
  -------         DO            
  X:0049H         SYMBOL        buf
  X:004CH         SYMBOL        i
  -------         ENDDO         
  C:AED3H         LINE#         186
  C:AEDEH         LINE#         187
  C:AEDEH         LINE#         191
  C:AEF1H         LINE#         192
  C:AEF1H         LINE#         193
  C:AF09H         LINE#         194
  C:AF24H         LINE#         195
  C:AF2AH         LINE#         196
  C:AF32H         LINE#         198
  C:AF34H         LINE#         199
  -------         ENDPROC       _LISTACOMANDOS
  -------         PROC          L?0274
  -------         ENDPROC       L?0274
  -------         PROC          _VALIDARCLAVE
  X:005DH         SYMBOL        buffer
  -------         DO            
  X:0060H         SYMBOL        buf
  -------         ENDDO         
  C:B540H         LINE#         205
  C:B54BH         LINE#         206
  C:B54BH         LINE#         209
  C:B55AH         LINE#         210
  C:B575H         LINE#         211
  C:B577H         LINE#         214
  C:B579H         LINE#         215
  -------         ENDPROC       _VALIDARCLAVE
  -------         PROC          L?0275
  -------         ENDPROC       L?0275
  -------         PROC          _GETCMD
  X:005DH         SYMBOL        in
  -------         DO            
  X:0060H         SYMBOL        tokens
  -------         ENDDO         
  C:B602H         LINE#         222
BL51 BANKED LINKER/LOCATER V6.22.2.0                                                  07/26/2021  14:55:02  PAGE 66


  C:B60DH         LINE#         223
  C:B60DH         LINE#         224
  C:B620H         LINE#         225
  -------         ENDPROC       _GETCMD
  -------         PROC          L?0273
  -------         ENDPROC       L?0273
  -------         PROC          _GETOPTION
  X:0046H         SYMBOL        in
  -------         DO            
  X:0049H         SYMBOL        tokensSpace
  X:004DH         SYMBOL        tokensQuote
  -------         ENDDO         
  C:A209H         LINE#         231
  C:A214H         LINE#         232
  C:A214H         LINE#         233
  C:A227H         LINE#         234
  C:A23AH         LINE#         237
  C:A24CH         LINE#         238
  C:A258H         LINE#         241
  C:A25FH         LINE#         242
  C:A26CH         LINE#         244
  C:A285H         LINE#         245
  -------         ENDPROC       _GETOPTION
  -------         PROC          DISPLAYCURSOR
  C:BD42H         LINE#         250
  C:BD42H         LINE#         251
  C:BD42H         LINE#         252
  -------         ENDPROC       DISPLAYCURSOR
  C:A8E0H         SYMBOL        L?0272
  -------         PROC          L?0271
  -------         ENDPROC       L?0271
  C:A8E0H         SYMBOL        L?0272
  -------         PROC          _INGRESADATO
  X:0071H         SYMBOL        buffer
  X:0074H         SYMBOL        modo
  -------         DO            
  D:0006H         SYMBOL        i
  -------         ENDDO         
  C:A8E4H         LINE#         259
  C:A8F2H         LINE#         260
  C:A8F2H         LINE#         265
  C:A8F2H         LINE#         266
  C:A904H         LINE#         267
  C:A90AH         LINE#         268
  C:A90AH         LINE#         269
  C:A925H         LINE#         270
  C:A927H         LINE#         272
  C:A927H         LINE#         273
  C:A92CH         LINE#         274
  C:A92CH         LINE#         275
  C:A93DH         LINE#         276
  C:A947H         LINE#         277
  C:A956H         LINE#         279
  C:A95BH         LINE#         283
  -------         ENDPROC       _INGRESADATO
  -------         PROC          PROG_ID_CLIENTE
  -------         DO            
BL51 BANKED LINKER/LOCATER V6.22.2.0                                                  07/26/2021  14:55:02  PAGE 67


  X:0046H         SYMBOL        buffer
  X:0050H         SYMBOL        dataee
  -------         ENDDO         
  C:94BDH         LINE#         300
  C:94BDH         LINE#         301
  C:94BDH         LINE#         305
  C:94CFH         LINE#         306
  C:94ECH         LINE#         308
  C:9503H         LINE#         310
  C:950CH         LINE#         311
  C:9513H         LINE#         312
  C:9524H         LINE#         313
  C:952DH         LINE#         315
  C:953FH         LINE#         316
  C:955CH         LINE#         317
  -------         ENDPROC       PROG_ID_CLIENTE
  -------         PROC          PROG_COD_PARK
  -------         DO            
  X:0046H         SYMBOL        buffer
  X:0050H         SYMBOL        dataee
  -------         ENDDO         
  C:91CFH         LINE#         322
  C:91CFH         LINE#         323
  C:91CFH         LINE#         327
  C:91E2H         LINE#         328
  C:91FFH         LINE#         330
  C:9216H         LINE#         332
  C:921FH         LINE#         333
  C:922AH         LINE#         334
  C:923BH         LINE#         335
  C:9245H         LINE#         337
  C:9258H         LINE#         338
  C:9275H         LINE#         339
  -------         ENDPROC       PROG_COD_PARK
  -------         PROC          PROG_TIEMPO_GRACIA
  -------         DO            
  X:0046H         SYMBOL        buffer
  X:0050H         SYMBOL        dataee
  -------         ENDDO         
  C:928CH         LINE#         344
  C:928CH         LINE#         345
  C:928CH         LINE#         349
  C:929FH         LINE#         350
  C:92BCH         LINE#         352
  C:92D3H         LINE#         354
  C:92DCH         LINE#         355
  C:92E7H         LINE#         356
  C:92F8H         LINE#         357
  C:9302H         LINE#         359
  C:9315H         LINE#         360
  C:9332H         LINE#         361
  -------         ENDPROC       PROG_TIEMPO_GRACIA
  -------         PROC          PROG_SIN_COBRO
  -------         DO            
  X:0046H         SYMBOL        buffer
  X:0050H         SYMBOL        dataee
  -------         ENDDO         
BL51 BANKED LINKER/LOCATER V6.22.2.0                                                  07/26/2021  14:55:02  PAGE 68


  C:6AB2H         LINE#         367
  C:6AB2H         LINE#         368
  C:6AB2H         LINE#         374
  C:6AC5H         LINE#         375
  C:6AE2H         LINE#         376
  C:6AECH         LINE#         377
  C:6AECH         LINE#         378
  C:6AFFH         LINE#         379
  C:6B01H         LINE#         380
  C:6B0DH         LINE#         381
  C:6B0DH         LINE#         382
  C:6B20H         LINE#         383
  C:6B22H         LINE#         385
  C:6B22H         LINE#         386
  C:6B39H         LINE#         387
  C:6B39H         LINE#         389
  C:6B42H         LINE#         390
  C:6B4DH         LINE#         391
  C:6B5EH         LINE#         392
  C:6B68H         LINE#         394
  C:6B7BH         LINE#         395
  C:6B98H         LINE#         396
  C:6BA2H         LINE#         397
  C:6BA2H         LINE#         398
  C:6BB5H         LINE#         399
  C:6BB7H         LINE#         400
  C:6BC3H         LINE#         401
  C:6BC3H         LINE#         402
  C:6BD6H         LINE#         403
  C:6BD8H         LINE#         405
  C:6BD8H         LINE#         406
  C:6BEFH         LINE#         407
  C:6BEFH         LINE#         409
  -------         ENDPROC       PROG_SIN_COBRO
  -------         PROC          PROG_DEBUG
  -------         DO            
  X:0046H         SYMBOL        buffer
  X:0050H         SYMBOL        dataee
  -------         ENDDO         
  C:7A83H         LINE#         415
  C:7A83H         LINE#         416
  C:7A83H         LINE#         421
  C:7A96H         LINE#         422
  C:7AB3H         LINE#         423
  C:7ABDH         LINE#         424
  C:7ABDH         LINE#         425
  C:7AD0H         LINE#         426
  C:7AD2H         LINE#         428
  C:7AD2H         LINE#         429
  C:7AE9H         LINE#         430
  C:7AE9H         LINE#         432
  C:7AF2H         LINE#         433
  C:7AFDH         LINE#         434
  C:7B0EH         LINE#         435
  C:7B18H         LINE#         437
  C:7B2BH         LINE#         438
  C:7B48H         LINE#         439
BL51 BANKED LINKER/LOCATER V6.22.2.0                                                  07/26/2021  14:55:02  PAGE 69


  C:7B52H         LINE#         440
  C:7B52H         LINE#         441
  C:7B65H         LINE#         442
  C:7B67H         LINE#         444
  C:7B67H         LINE#         445
  C:7B7EH         LINE#         446
  C:7B7EH         LINE#         447
  -------         ENDPROC       PROG_DEBUG
  -------         PROC          PROG_USE_LPR
  -------         DO            
  X:0046H         SYMBOL        buffer
  X:0050H         SYMBOL        dataee
  -------         ENDDO         
  C:7B7FH         LINE#         452
  C:7B7FH         LINE#         453
  C:7B7FH         LINE#         458
  C:7B92H         LINE#         459
  C:7BAFH         LINE#         460
  C:7BB9H         LINE#         461
  C:7BB9H         LINE#         462
  C:7BCCH         LINE#         463
  C:7BCEH         LINE#         465
  C:7BCEH         LINE#         466
  C:7BE5H         LINE#         467
  C:7BE5H         LINE#         469
  C:7BEEH         LINE#         470
  C:7BF9H         LINE#         471
  C:7C0AH         LINE#         472
  C:7C14H         LINE#         474
  C:7C27H         LINE#         475
  C:7C44H         LINE#         476
  C:7C4EH         LINE#         477
  C:7C4EH         LINE#         478
  C:7C61H         LINE#         479
  C:7C63H         LINE#         481
  C:7C63H         LINE#         482
  C:7C7AH         LINE#         483
  C:7C7AH         LINE#         484
  -------         ENDPROC       PROG_USE_LPR
  -------         PROC          TIPO_PANTALLA
  -------         DO            
  X:0046H         SYMBOL        buffer
  X:0050H         SYMBOL        dataee
  -------         ENDDO         
  C:7C7BH         LINE#         491
  C:7C7BH         LINE#         492
  C:7C7BH         LINE#         497
  C:7C8EH         LINE#         498
  C:7CABH         LINE#         499
  C:7CB5H         LINE#         500
  C:7CB5H         LINE#         501
  C:7CC8H         LINE#         502
  C:7CCAH         LINE#         504
  C:7CCAH         LINE#         505
  C:7CE1H         LINE#         506
  C:7CE1H         LINE#         508
  C:7CEAH         LINE#         509
BL51 BANKED LINKER/LOCATER V6.22.2.0                                                  07/26/2021  14:55:02  PAGE 70


  C:7CF5H         LINE#         510
  C:7D06H         LINE#         511
  C:7D10H         LINE#         513
  C:7D23H         LINE#         514
  C:7D40H         LINE#         515
  C:7D4AH         LINE#         516
  C:7D4AH         LINE#         517
  C:7D5DH         LINE#         518
  C:7D5FH         LINE#         520
  C:7D5FH         LINE#         521
  C:7D76H         LINE#         522
  C:7D76H         LINE#         524
  -------         ENDPROC       TIPO_PANTALLA
  -------         PROC          PROG_TARJETA_AUTOMATICA_O_BOTON
  -------         DO            
  X:0046H         SYMBOL        buffer
  X:0050H         SYMBOL        dataee
  -------         ENDDO         
  C:8ECFH         LINE#         525
  C:8ECFH         LINE#         526
  C:8ECFH         LINE#         531
  C:8EE2H         LINE#         532
  C:8EFFH         LINE#         533
  C:8F0BH         LINE#         534
  C:8F0BH         LINE#         535
  C:8F0FH         LINE#         536
  C:8F11H         LINE#         538
  C:8F11H         LINE#         539
  C:8F18H         LINE#         540
  C:8F18H         LINE#         542
  C:8F21H         LINE#         543
  C:8F2CH         LINE#         544
  C:8F3DH         LINE#         545
  C:8F47H         LINE#         547
  C:8F5AH         LINE#         548
  C:8F77H         LINE#         549
  C:8F83H         LINE#         550
  C:8F83H         LINE#         551
  C:8F87H         LINE#         552
  C:8F89H         LINE#         554
  C:8F89H         LINE#         555
  C:8F90H         LINE#         556
  C:8F90H         LINE#         557
  -------         ENDPROC       PROG_TARJETA_AUTOMATICA_O_BOTON
  -------         PROC          PROG_ANTIPASSBACK
  -------         DO            
  X:0046H         SYMBOL        buffer
  X:0050H         SYMBOL        dataee
  -------         ENDDO         
  C:7D77H         LINE#         558
  C:7D77H         LINE#         559
  C:7D77H         LINE#         564
  C:7D8AH         LINE#         565
  C:7DA7H         LINE#         566
  C:7DB1H         LINE#         567
  C:7DB1H         LINE#         568
  C:7DC4H         LINE#         569
BL51 BANKED LINKER/LOCATER V6.22.2.0                                                  07/26/2021  14:55:02  PAGE 71


  C:7DC6H         LINE#         571
  C:7DC6H         LINE#         572
  C:7DDDH         LINE#         573
  C:7DDDH         LINE#         575
  C:7DE6H         LINE#         576
  C:7DF1H         LINE#         577
  C:7E02H         LINE#         578
  C:7E0CH         LINE#         580
  C:7E1FH         LINE#         581
  C:7E3CH         LINE#         582
  C:7E46H         LINE#         583
  C:7E46H         LINE#         584
  C:7E59H         LINE#         585
  C:7E5BH         LINE#         587
  C:7E5BH         LINE#         588
  C:7E72H         LINE#         589
  C:7E72H         LINE#         590
  -------         ENDPROC       PROG_ANTIPASSBACK
  -------         PROC          PROG_PLACA
  -------         DO            
  X:0046H         SYMBOL        buffer
  X:0050H         SYMBOL        dataee
  -------         ENDDO         
  C:7E73H         LINE#         591
  C:7E73H         LINE#         592
  C:7E73H         LINE#         597
  C:7E86H         LINE#         598
  C:7EA3H         LINE#         599
  C:7EADH         LINE#         600
  C:7EADH         LINE#         601
  C:7EC0H         LINE#         602
  C:7EC2H         LINE#         604
  C:7EC2H         LINE#         605
  C:7ED9H         LINE#         606
  C:7ED9H         LINE#         608
  C:7EE2H         LINE#         609
  C:7EEDH         LINE#         610
  C:7EFEH         LINE#         611
  C:7F08H         LINE#         613
  C:7F1BH         LINE#         614
  C:7F38H         LINE#         615
  C:7F42H         LINE#         616
  C:7F42H         LINE#         617
  C:7F55H         LINE#         618
  C:7F57H         LINE#         620
  C:7F57H         LINE#         621
  C:7F6EH         LINE#         622
  C:7F6EH         LINE#         623
  -------         ENDPROC       PROG_PLACA
  -------         PROC          PROG_ADDRESS_HIGH_BOARD
  -------         DO            
  X:0046H         SYMBOL        buffer
  X:0050H         SYMBOL        dataee
  -------         ENDDO         
  C:850FH         LINE#         624
  C:850FH         LINE#         625
  C:850FH         LINE#         630
BL51 BANKED LINKER/LOCATER V6.22.2.0                                                  07/26/2021  14:55:02  PAGE 72


  C:8522H         LINE#         631
  C:853FH         LINE#         632
  C:8549H         LINE#         633
  C:8549H         LINE#         634
  C:854DH         LINE#         635
  C:854FH         LINE#         637
  C:854FH         LINE#         638
  C:8566H         LINE#         639
  C:8566H         LINE#         641
  C:856FH         LINE#         642
  C:857AH         LINE#         643
  C:858BH         LINE#         644
  C:8595H         LINE#         646
  C:85A8H         LINE#         647
  C:85C5H         LINE#         648
  C:85CFH         LINE#         649
  C:85CFH         LINE#         650
  C:85D3H         LINE#         651
  C:85D5H         LINE#         653
  C:85D5H         LINE#         654
  C:85ECH         LINE#         655
  C:85ECH         LINE#         656
  -------         ENDPROC       PROG_ADDRESS_HIGH_BOARD
  -------         PROC          ADDR_HORARIOS
  -------         DO            
  X:0074H         SYMBOL        ee_addr_horario
  -------         ENDDO         
  C:B9EDH         LINE#         658
  C:B9EDH         LINE#         659
  C:B9EDH         LINE#         662
  C:B9F3H         LINE#         663
  C:B9F7H         LINE#         664
  C:B9FBH         LINE#         665
  C:B9FFH         LINE#         666
  C:BA03H         LINE#         667
  C:BA07H         LINE#         668
  C:BA0BH         LINE#         669
  C:BA0FH         LINE#         670
  C:BA13H         LINE#         671
  C:BA17H         LINE#         672
  C:BA1AH         LINE#         673
  C:BA20H         LINE#         674
  -------         ENDPROC       ADDR_HORARIOS
  -------         PROC          _PROG_HORARIOS_ON_OFF
  X:0061H         SYMBOL        addr
  -------         DO            
  X:0063H         SYMBOL        buffer
  X:006DH         SYMBOL        dataee
  X:006FH         SYMBOL        habilitado
  -------         ENDDO         
  C:731DH         LINE#         675
  C:7327H         LINE#         676
  C:7327H         LINE#         679
  C:7336H         LINE#         680
  C:7353H         LINE#         681
  C:735DH         LINE#         682
  C:735DH         LINE#         683
BL51 BANKED LINKER/LOCATER V6.22.2.0                                                  07/26/2021  14:55:02  PAGE 73


  C:7370H         LINE#         684
  C:7372H         LINE#         686
  C:7372H         LINE#         687
  C:7389H         LINE#         688
  C:7389H         LINE#         689
  C:7392H         LINE#         690
  C:739DH         LINE#         691
  C:73AEH         LINE#         692
  C:73BDH         LINE#         694
  C:73D4H         LINE#         695
  C:73F1H         LINE#         696
  C:73FEH         LINE#         697
  C:73FEH         LINE#         698
  C:7401H         LINE#         699
  C:7414H         LINE#         700
  C:7416H         LINE#         702
  C:7416H         LINE#         703
  C:741BH         LINE#         704
  C:7430H         LINE#         705
  C:7430H         LINE#         706
  C:7436H         LINE#         707
  -------         ENDPROC       _PROG_HORARIOS_ON_OFF
  -------         PROC          _PROG_HORARIO_DESDE_HASTA
  X:0061H         SYMBOL        addr
  -------         DO            
  X:0063H         SYMBOL        buffer
  D:0007H         SYMBOL        dataee
  -------         ENDDO         
  C:5563H         LINE#         708
  C:556BH         LINE#         709
  C:556BH         LINE#         714
  C:5574H         LINE#         715
  C:5577H         LINE#         716
  C:5580H         LINE#         717
  C:5598H         LINE#         718
  C:55ABH         LINE#         719
  C:55B9H         LINE#         720
  C:55D1H         LINE#         721
  C:55E4H         LINE#         722
  C:55F2H         LINE#         723
  C:560AH         LINE#         724
  C:561DH         LINE#         725
  C:562BH         LINE#         726
  C:5643H         LINE#         727
  C:5656H         LINE#         728
  C:5664H         LINE#         732
  C:566DH         LINE#         733
  C:5670H         LINE#         735
  C:5679H         LINE#         737
  C:5691H         LINE#         738
  C:56A4H         LINE#         739
  C:56B2H         LINE#         740
  C:56CAH         LINE#         741
  C:56DDH         LINE#         742
  C:56EBH         LINE#         743
  C:5703H         LINE#         744
  C:5716H         LINE#         745
BL51 BANKED LINKER/LOCATER V6.22.2.0                                                  07/26/2021  14:55:02  PAGE 74


  C:5724H         LINE#         746
  C:573CH         LINE#         747
  C:574FH         LINE#         748
  -------         ENDPROC       _PROG_HORARIO_DESDE_HASTA
  -------         PROC          _VER_HORARIO_DESDE_HASTA
  X:0074H         SYMBOL        addr
  -------         DO            
  D:0007H         SYMBOL        dataee
  -------         ENDDO         
  C:7437H         LINE#         750
  C:743FH         LINE#         751
  C:743FH         LINE#         753
  C:7448H         LINE#         754
  C:745BH         LINE#         755
  C:7469H         LINE#         756
  C:747CH         LINE#         757
  C:748AH         LINE#         758
  C:749DH         LINE#         759
  C:74ABH         LINE#         760
  C:74BEH         LINE#         761
  C:74CCH         LINE#         763
  C:74DFH         LINE#         764
  C:74EDH         LINE#         766
  C:7500H         LINE#         767
  C:750EH         LINE#         769
  C:7521H         LINE#         770
  C:752FH         LINE#         772
  C:7542H         LINE#         773
  -------         ENDPROC       _VER_HORARIO_DESDE_HASTA
  -------         PROC          _PROG_HORARIO_DIAS
  X:0061H         SYMBOL        addr
  -------         DO            
  X:0063H         SYMBOL        buffer
  X:006DH         SYMBOL        dataee
  X:006EH         SYMBOL        j
  X:006FH         SYMBOL        temp
  -------         ENDDO         
  C:4994H         LINE#         775
  C:499CH         LINE#         776
  C:499CH         LINE#         780
  C:49A5H         LINE#         781
  C:49AEH         LINE#         782
  C:49B7H         LINE#         783
  C:49C2H         LINE#         786
  C:49CBH         LINE#         788
  C:49E1H         LINE#         789
  C:49E1H         LINE#         791
  C:49F4H         LINE#         792
  C:49F4H         LINE#         793
  C:49FDH         LINE#         795
  C:4A12H         LINE#         796
  C:4A2AH         LINE#         797
  C:4A37H         LINE#         798
  C:4A37H         LINE#         800
  C:4A4DH         LINE#         801
  C:4A4DH         LINE#         802
  C:4A56H         LINE#         803
BL51 BANKED LINKER/LOCATER V6.22.2.0                                                  07/26/2021  14:55:02  PAGE 75


  C:4A6BH         LINE#         804
  C:4A83H         LINE#         805
  C:4A90H         LINE#         806
  C:4A90H         LINE#         808
  C:4AA6H         LINE#         809
  C:4AA6H         LINE#         810
  C:4AAFH         LINE#         811
  C:4AC4H         LINE#         812
  C:4ADCH         LINE#         813
  C:4AE9H         LINE#         814
  C:4AE9H         LINE#         816
  C:4AFFH         LINE#         817
  C:4AFFH         LINE#         818
  C:4B08H         LINE#         819
  C:4B1DH         LINE#         820
  C:4B35H         LINE#         821
  C:4B42H         LINE#         822
  C:4B42H         LINE#         824
  C:4B58H         LINE#         825
  C:4B58H         LINE#         826
  C:4B61H         LINE#         827
  C:4B76H         LINE#         828
  C:4B8EH         LINE#         829
  C:4B9BH         LINE#         830
  C:4B9BH         LINE#         832
  C:4BB1H         LINE#         833
  C:4BB1H         LINE#         834
  C:4BBAH         LINE#         835
  C:4BCFH         LINE#         836
  C:4BE7H         LINE#         837
  C:4BF4H         LINE#         838
  C:4BF4H         LINE#         840
  C:4C0AH         LINE#         841
  C:4C0AH         LINE#         842
  C:4C13H         LINE#         843
  C:4C22H         LINE#         844
  C:4C34H         LINE#         845
  C:4C41H         LINE#         846
  C:4C41H         LINE#         847
  C:4C4AH         LINE#         849
  -------         ENDPROC       _PROG_HORARIO_DIAS
  -------         PROC          _VER_HORARIO_DIAS
  X:0074H         SYMBOL        addr
  -------         DO            
  X:0076H         SYMBOL        dataee
  -------         ENDDO         
  C:71F5H         LINE#         850
  C:71FDH         LINE#         851
  C:71FDH         LINE#         854
  C:720DH         LINE#         855
  C:7213H         LINE#         856
  C:7213H         LINE#         857
  C:7217H         LINE#         858
  C:7219H         LINE#         860
  C:7219H         LINE#         861
  C:7220H         LINE#         862
  C:7220H         LINE#         865
BL51 BANKED LINKER/LOCATER V6.22.2.0                                                  07/26/2021  14:55:02  PAGE 76


  C:7238H         LINE#         866
  C:723EH         LINE#         867
  C:723EH         LINE#         868
  C:7242H         LINE#         869
  C:7244H         LINE#         871
  C:7244H         LINE#         872
  C:724BH         LINE#         873
  C:724BH         LINE#         876
  C:7263H         LINE#         877
  C:7269H         LINE#         878
  C:7269H         LINE#         879
  C:726DH         LINE#         880
  C:726FH         LINE#         882
  C:726FH         LINE#         883
  C:7276H         LINE#         884
  C:7276H         LINE#         886
  C:728EH         LINE#         887
  C:7294H         LINE#         888
  C:7294H         LINE#         889
  C:7298H         LINE#         890
  C:729AH         LINE#         892
  C:729AH         LINE#         893
  C:72A1H         LINE#         894
  C:72A1H         LINE#         896
  C:72B9H         LINE#         897
  C:72BFH         LINE#         898
  C:72BFH         LINE#         899
  C:72C3H         LINE#         900
  C:72C5H         LINE#         902
  C:72C5H         LINE#         903
  C:72CCH         LINE#         904
  C:72CCH         LINE#         907
  C:72E4H         LINE#         908
  C:72EAH         LINE#         909
  C:72EAH         LINE#         910
  C:72EEH         LINE#         911
  C:72F0H         LINE#         913
  C:72F0H         LINE#         914
  C:72F7H         LINE#         915
  C:72F7H         LINE#         917
  C:7309H         LINE#         918
  C:730FH         LINE#         919
  C:730FH         LINE#         920
  C:7313H         LINE#         921
  C:7315H         LINE#         923
  C:7315H         LINE#         924
  C:731CH         LINE#         925
  C:731CH         LINE#         926
  -------         ENDPROC       _VER_HORARIO_DIAS
  -------         PROC          PROG_HORARIOS
  -------         DO            
  X:0046H         SYMBOL        buffer
  X:0050H         SYMBOL        ee_addr_horario
  X:005BH         SYMBOL        addr
  X:005DH         SYMBOL        temp
  X:005FH         SYMBOL        dataee
  X:0060H         SYMBOL        j
BL51 BANKED LINKER/LOCATER V6.22.2.0                                                  07/26/2021  14:55:02  PAGE 77


  -------         ENDDO         
  C:696DH         LINE#         927
  C:696DH         LINE#         928
  C:696DH         LINE#         937
  C:6979H         LINE#         941
  C:6982H         LINE#         942
  C:698DH         LINE#         944
  C:699CH         LINE#         948
  C:69B2H         LINE#         949
  C:69B8H         LINE#         953
  C:69C6H         LINE#         954
  C:69CEH         LINE#         955
  C:69CEH         LINE#         957
  C:69DDH         LINE#         958
  C:69F1H         LINE#         959
  C:69F1H         LINE#         960
  C:6A05H         LINE#         961
  C:6A0DH         LINE#         963
  C:6A1DH         LINE#         966
  C:6A20H         LINE#         970
  C:6A2BH         LINE#         973
  C:6A34H         LINE#         974
  C:6A3FH         LINE#         975
  C:6A4EH         LINE#         976
  C:6A61H         LINE#         978
  C:6A79H         LINE#         979
  C:6A93H         LINE#         980
  C:6A9BH         LINE#         981
  C:6A9BH         LINE#         983
  C:6AA9H         LINE#         984
  C:6AB1H         LINE#         985
  C:6AB1H         LINE#         986
  C:6AB1H         LINE#         988
  -------         ENDPROC       PROG_HORARIOS
  -------         PROC          PROG_VALIDAR_TIPO_VEHICULO_MENSUAL
  -------         DO            
  X:0046H         SYMBOL        buffer
  X:0050H         SYMBOL        dataee
  -------         ENDDO         
  C:7F6FH         LINE#         989
  C:7F6FH         LINE#         990
  C:7F6FH         LINE#         995
  C:7F82H         LINE#         996
  C:7F9FH         LINE#         997
  C:7FA9H         LINE#         998
  C:7FA9H         LINE#         999
  C:7FBCH         LINE#         1000
  C:7FBEH         LINE#         1002
  C:7FBEH         LINE#         1003
  C:7FD5H         LINE#         1004
  C:7FD5H         LINE#         1006
  C:7FDEH         LINE#         1007
  C:7FE9H         LINE#         1008
  C:7FFAH         LINE#         1009
  C:8004H         LINE#         1011
  C:8017H         LINE#         1012
  C:8034H         LINE#         1013
BL51 BANKED LINKER/LOCATER V6.22.2.0                                                  07/26/2021  14:55:02  PAGE 78


  C:803EH         LINE#         1014
  C:803EH         LINE#         1015
  C:8051H         LINE#         1016
  C:8053H         LINE#         1018
  C:8053H         LINE#         1019
  C:806AH         LINE#         1020
  C:806AH         LINE#         1021
  -------         ENDPROC       PROG_VALIDAR_TIPO_VEHICULO_MENSUAL
  -------         PROC          PROG_APB_MENSUAL
  -------         DO            
  X:0046H         SYMBOL        buffer
  X:0050H         SYMBOL        dataee
  -------         ENDDO         
  C:806BH         LINE#         1022
  C:806BH         LINE#         1023
  C:806BH         LINE#         1028
  C:807EH         LINE#         1029
  C:809BH         LINE#         1030
  C:80A5H         LINE#         1031
  C:80A5H         LINE#         1032
  C:80B8H         LINE#         1033
  C:80BAH         LINE#         1035
  C:80BAH         LINE#         1036
  C:80D1H         LINE#         1037
  C:80D1H         LINE#         1039
  C:80DAH         LINE#         1040
  C:80E5H         LINE#         1041
  C:80F6H         LINE#         1042
  C:8100H         LINE#         1044
  C:8113H         LINE#         1045
  C:8130H         LINE#         1046
  C:813AH         LINE#         1047
  C:813AH         LINE#         1048
  C:814DH         LINE#         1049
  C:814FH         LINE#         1051
  C:814FH         LINE#         1052
  C:8166H         LINE#         1053
  C:8166H         LINE#         1054
  -------         ENDPROC       PROG_APB_MENSUAL
  -------         PROC          PROG_FECHA_VENCIMIENTO
  -------         DO            
  X:0046H         SYMBOL        buffer
  X:0051H         SYMBOL        cmd
  X:0054H         SYMBOL        fecha
  X:005BH         SYMBOL        dataee
  -------         ENDDO         
  C:575DH         LINE#         1056
  C:575DH         LINE#         1057
  C:575DH         LINE#         1064
  C:576AH         LINE#         1065
  C:5781H         LINE#         1068
  C:5798H         LINE#         1070
  C:5798H         LINE#         1071
  C:57A1H         LINE#         1072
  C:57AEH         LINE#         1073
  C:57C5H         LINE#         1074
  C:57D7H         LINE#         1075
BL51 BANKED LINKER/LOCATER V6.22.2.0                                                  07/26/2021  14:55:02  PAGE 79


  C:57E0H         LINE#         1080
  C:57EBH         LINE#         1081
  C:57FFH         LINE#         1082
  C:580CH         LINE#         1084
  C:5815H         LINE#         1087
  C:581EH         LINE#         1088
  C:5829H         LINE#         1089
  C:5840H         LINE#         1091
  C:5848H         LINE#         1092
  C:5850H         LINE#         1093
  C:5853H         LINE#         1095
  C:5864H         LINE#         1096
  C:5875H         LINE#         1098
  C:5884H         LINE#         1099
  C:588CH         LINE#         1100
  C:5894H         LINE#         1101
  C:5897H         LINE#         1102
  C:58A8H         LINE#         1103
  C:58B9H         LINE#         1104
  C:58C8H         LINE#         1105
  C:58D0H         LINE#         1106
  C:58D8H         LINE#         1107
  C:58DBH         LINE#         1108
  C:58ECH         LINE#         1109
  C:58FDH         LINE#         1110
  C:590CH         LINE#         1111
  C:5917H         LINE#         1113
  C:5924H         LINE#         1115
  C:593BH         LINE#         1116
  -------         ENDPROC       PROG_FECHA_VENCIMIENTO
  -------         PROC          VER_HORARIO
  -------         DO            
  X:0059H         SYMBOL        buffer
  X:0063H         SYMBOL        ee_addr_horario
  X:006EH         SYMBOL        conta
  X:006FH         SYMBOL        addr
  X:0071H         SYMBOL        temp
  X:0073H         SYMBOL        dataee
  -------         ENDDO         
  C:6E6AH         LINE#         1119
  C:6E6AH         LINE#         1120
  C:6E6AH         LINE#         1129
  C:6E76H         LINE#         1130
  C:6E8CH         LINE#         1131
  C:6E8CH         LINE#         1133
  C:6E9CH         LINE#         1136
  C:6EB5H         LINE#         1137
  C:6EBBH         LINE#         1140
  C:6EC9H         LINE#         1141
  C:6ED8H         LINE#         1142
  C:6EF2H         LINE#         1143
  C:6EFDH         LINE#         1144
  C:6EFDH         LINE#         1145
  C:6F06H         LINE#         1147
  C:6F0FH         LINE#         1148
  C:6F1FH         LINE#         1149
  C:6F22H         LINE#         1151
BL51 BANKED LINKER/LOCATER V6.22.2.0                                                  07/26/2021  14:55:02  PAGE 80


  C:6F2DH         LINE#         1152
  C:6F45H         LINE#         1153
  C:6F5FH         LINE#         1154
  C:6F69H         LINE#         1155
  C:6F69H         LINE#         1156
  C:6F70H         LINE#         1158
  C:6F7EH         LINE#         1159
  C:6F86H         LINE#         1160
  C:6F88H         LINE#         1162
  C:6F88H         LINE#         1163
  C:6F8CH         LINE#         1164
  C:6F8CH         LINE#         1165
  C:6F8EH         LINE#         1167
  C:6F8EH         LINE#         1168
  C:6F97H         LINE#         1169
  C:6F97H         LINE#         1171
  C:6FA0H         LINE#         1174
  -------         ENDPROC       VER_HORARIO
  -------         PROC          VER_PROG
  -------         DO            
  X:0046H         SYMBOL        buffer
  X:0050H         SYMBOL        dataee
  X:0052H         SYMBOL        fecha
  -------         ENDDO         
  C:4368H         LINE#         1175
  C:4368H         LINE#         1176
  C:4368H         LINE#         1182
  C:437AH         LINE#         1183
  C:4397H         LINE#         1185
  C:43AEH         LINE#         1187
  C:43C1H         LINE#         1188
  C:43DEH         LINE#         1190
  C:43F5H         LINE#         1192
  C:4408H         LINE#         1193
  C:4425H         LINE#         1194
  C:4433H         LINE#         1195
  C:4433H         LINE#         1196
  C:4437H         LINE#         1197
  C:4439H         LINE#         1199
  C:4439H         LINE#         1200
  C:4440H         LINE#         1201
  C:4440H         LINE#         1203
  C:4453H         LINE#         1204
  C:4470H         LINE#         1205
  C:447CH         LINE#         1206
  C:447CH         LINE#         1207
  C:4480H         LINE#         1208
  C:4482H         LINE#         1210
  C:4482H         LINE#         1211
  C:4489H         LINE#         1212
  C:4489H         LINE#         1214
  C:449CH         LINE#         1215
  C:44B9H         LINE#         1216
  C:44C5H         LINE#         1217
  C:44C5H         LINE#         1218
  C:44C9H         LINE#         1219
  C:44CBH         LINE#         1221
BL51 BANKED LINKER/LOCATER V6.22.2.0                                                  07/26/2021  14:55:02  PAGE 81


  C:44CBH         LINE#         1222
  C:44D2H         LINE#         1223
  C:44D2H         LINE#         1225
  C:44E5H         LINE#         1226
  C:4502H         LINE#         1227
  C:450EH         LINE#         1228
  C:450EH         LINE#         1229
  C:4512H         LINE#         1230
  C:4514H         LINE#         1232
  C:4514H         LINE#         1233
  C:451BH         LINE#         1234
  C:451BH         LINE#         1236
  C:452EH         LINE#         1237
  C:454BH         LINE#         1238
  C:4557H         LINE#         1239
  C:4557H         LINE#         1240
  C:455BH         LINE#         1241
  C:455DH         LINE#         1243
  C:455DH         LINE#         1244
  C:4564H         LINE#         1245
  C:4564H         LINE#         1247
  C:4577H         LINE#         1248
  C:4594H         LINE#         1249
  C:45A0H         LINE#         1250
  C:45A0H         LINE#         1251
  C:45A4H         LINE#         1252
  C:45A6H         LINE#         1254
  C:45A6H         LINE#         1255
  C:45ADH         LINE#         1256
  C:45ADH         LINE#         1259
  C:45C0H         LINE#         1260
  C:45DDH         LINE#         1262
  C:45F4H         LINE#         1264
  C:45F7H         LINE#         1268
  C:460AH         LINE#         1269
  C:4627H         LINE#         1270
  C:4633H         LINE#         1271
  C:4633H         LINE#         1272
  C:4637H         LINE#         1273
  C:4639H         LINE#         1275
  C:4639H         LINE#         1276
  C:4640H         LINE#         1277
  C:4640H         LINE#         1279
  C:4653H         LINE#         1280
  C:4670H         LINE#         1281
  C:467CH         LINE#         1282
  C:467CH         LINE#         1283
  C:4680H         LINE#         1284
  C:4682H         LINE#         1286
  C:4682H         LINE#         1287
  C:4689H         LINE#         1288
  C:4689H         LINE#         1290
  C:4696H         LINE#         1292
  C:46ADH         LINE#         1293
  -------         ENDPROC       VER_PROG
  -------         PROC          SHOW
  C:9E74H         LINE#         1299
BL51 BANKED LINKER/LOCATER V6.22.2.0                                                  07/26/2021  14:55:02  PAGE 82


  C:9E74H         LINE#         1300
  C:9E74H         LINE#         1301
  C:9E7DH         LINE#         1302
  C:9E86H         LINE#         1303
  C:9E8FH         LINE#         1304
  C:9E98H         LINE#         1305
  C:9EA1H         LINE#         1306
  C:9EAAH         LINE#         1307
  C:9EB3H         LINE#         1308
  C:9EBCH         LINE#         1309
  C:9EC5H         LINE#         1310
  C:9ECEH         LINE#         1311
  C:9ED7H         LINE#         1312
  C:9EE0H         LINE#         1313
  C:9EE9H         LINE#         1314
  C:9EF2H         LINE#         1315
  C:9EFBH         LINE#         1316
  C:9F04H         LINE#         1317
  -------         ENDPROC       SHOW
  -------         PROC          FIRST_CLAVE
  -------         DO            
  X:0046H         SYMBOL        clave
  -------         ENDDO         
  C:B2C3H         LINE#         1324
  C:B2C3H         LINE#         1325
  C:B2C3H         LINE#         1329
  C:B2CCH         LINE#         1330
  C:B2D1H         LINE#         1331
  C:B2E3H         LINE#         1332
  C:B2F0H         LINE#         1333
  C:B2F6H         LINE#         1334
  C:B2F9H         LINE#         1335
  C:B2FCH         LINE#         1336
  C:B2FEH         LINE#         1338
  -------         ENDPROC       FIRST_CLAVE
  -------         PROC          MENU
  -------         DO            
  X:0001H         SYMBOL        cmd
  X:0004H         SYMBOL        option1
  X:0007H         SYMBOL        option2
  X:000AH         SYMBOL        opt_buffer
  X:0032H         SYMBOL        buffer
  -------         ENDDO         
  C:512FH         LINE#         1342
  C:512FH         LINE#         1343
  C:512FH         LINE#         1352
  C:5138H         LINE#         1357
  C:5144H         LINE#         1358
  C:5144H         LINE#         1359
  C:5147H         LINE#         1360
  C:5151H         LINE#         1363
  C:5151H         LINE#         1365
  C:5151H         LINE#         1366
  C:515AH         LINE#         1367
  C:5167H         LINE#         1368
  C:516CH         LINE#         1369
  C:5182H         LINE#         1370
BL51 BANKED LINKER/LOCATER V6.22.2.0                                                  07/26/2021  14:55:02  PAGE 83


  C:5194H         LINE#         1371
  C:519DH         LINE#         1376
  C:51A8H         LINE#         1377
  C:51B6H         LINE#         1378
  C:51C3H         LINE#         1380
  C:51CCH         LINE#         1384
  C:51CFH         LINE#         1385
  C:51CFH         LINE#         1386
  C:51CFH         LINE#         1387
  C:51D2H         LINE#         1390
  C:51DDH         LINE#         1391
  C:51EBH         LINE#         1392
  C:51FFH         LINE#         1393
  C:5213H         LINE#         1398
  C:5229H         LINE#         1399
  C:5229H         LINE#         1401
  C:5238H         LINE#         1402
  C:523AH         LINE#         1403
  C:524AH         LINE#         1404
  C:524AH         LINE#         1406
  C:5259H         LINE#         1407
  C:5277H         LINE#         1408
  C:5277H         LINE#         1414
  C:528AH         LINE#         1415
  C:528AH         LINE#         1416
  C:52D3H         LINE#         1417
  C:52D3H         LINE#         1418
  C:52D3H         LINE#         1419
  C:52D6H         LINE#         1421
  C:52D9H         LINE#         1423
  C:52D9H         LINE#         1424
  C:52DCH         LINE#         1425
  C:52DFH         LINE#         1426
  C:52DFH         LINE#         1427
  C:52E2H         LINE#         1428
  C:52E5H         LINE#         1429
  C:52E5H         LINE#         1430
  C:52E8H         LINE#         1431
  C:52EBH         LINE#         1432
  C:52EBH         LINE#         1433
  C:52EEH         LINE#         1434
  C:52F1H         LINE#         1435
  C:52F1H         LINE#         1436
  C:52F4H         LINE#         1437
  C:52F7H         LINE#         1438
  C:52F7H         LINE#         1439
  C:52FAH         LINE#         1440
  C:52FDH         LINE#         1441
  C:52FDH         LINE#         1442
  C:5300H         LINE#         1443
  C:5303H         LINE#         1444
  C:5303H         LINE#         1445
  C:5306H         LINE#         1446
  C:5309H         LINE#         1447
  C:5309H         LINE#         1448
  C:530CH         LINE#         1449
  C:530FH         LINE#         1450
BL51 BANKED LINKER/LOCATER V6.22.2.0                                                  07/26/2021  14:55:02  PAGE 84


  C:530FH         LINE#         1451
  C:5312H         LINE#         1452
  C:5315H         LINE#         1453
  C:5315H         LINE#         1454
  C:5318H         LINE#         1455
  C:531BH         LINE#         1456
  C:531BH         LINE#         1457
  C:531EH         LINE#         1458
  C:5321H         LINE#         1459
  C:5321H         LINE#         1460
  C:5324H         LINE#         1461
  C:5327H         LINE#         1462
  C:5327H         LINE#         1463
  C:532AH         LINE#         1464
  C:532DH         LINE#         1465
  C:532DH         LINE#         1466
  C:5330H         LINE#         1467
  C:5333H         LINE#         1468
  C:5333H         LINE#         1470
  C:5333H         LINE#         1471
  C:5333H         LINE#         1472
  C:5336H         LINE#         1473
  C:5339H         LINE#         1476
  C:5339H         LINE#         1477
  C:5357H         LINE#         1478
  C:535AH         LINE#         1479
  C:535AH         LINE#         1480
  C:535AH         LINE#         1481
  C:535AH         LINE#         1482
  -------         ENDPROC       MENU
  -------         ENDMOD        PROG

  -------         MODULE        PTO_PARALELO
  C:0000H         SYMBOL        _ICE_DUMMY_
  D:0080H         PUBLIC        P0
  D:00A0H         PUBLIC        P2
  D:00B0H         PUBLIC        P3
  B:0080H.2       PUBLIC        led_err_imp
  C:6D2EH         PUBLIC        load_and_send_id_cod
  C:9F0DH         PUBLIC        _recibe_port
  B:00B0H.2       PUBLIC        ready
  B:0080H.6       PUBLIC        rx_in_data
  C:BDE4H         PUBLIC        Pulso_Bus
  C:A42EH         PUBLIC        _send_portERR
  B:00B0H.3       PUBLIC        busy
  C:B1E3H         PUBLIC        load_and_send_info_reloj
  C:9628H         PUBLIC        _send_port
  B:00B0H.4       PUBLIC        port_clk
  C:BE5FH         PUBLIC        cond_ini_pto
  -------         PROC          _RECIBE_PORT
  X:0001H         SYMBOL        buffer_port
  -------         DO            
  D:0006H         SYMBOL        count
  X:0004H         SYMBOL        time_out
  X:0005H         SYMBOL        num_data
  X:0006H         SYMBOL        T_ANCHO
  X:0008H         SYMBOL        data_temp
BL51 BANKED LINKER/LOCATER V6.22.2.0                                                  07/26/2021  14:55:02  PAGE 85


  -------         ENDDO         
  C:9F0DH         LINE#         60
  C:9F18H         LINE#         61
  C:9F18H         LINE#         65
  C:9F21H         LINE#         66
  C:9F24H         LINE#         69
  C:9F27H         LINE#         70
  C:9F27H         LINE#         72
  C:9F2AH         LINE#         73
  C:9F2FH         LINE#         74
  C:9F31H         LINE#         75
  C:9F35H         LINE#         76
  C:9F37H         LINE#         79
  C:9F3CH         LINE#         80
  C:9F45H         LINE#         81
  C:9F45H         LINE#         82
  C:9F48H         LINE#         83
  C:9F48H         LINE#         85
  C:9F4DH         LINE#         86
  C:9F51H         LINE#         87
  C:9F51H         LINE#         88
  C:9F53H         LINE#         89
  C:9F55H         LINE#         90
  C:9F55H         LINE#         91
  C:9F55H         LINE#         93
  C:9F55H         LINE#         94
  C:9F62H         LINE#         95
  C:9F62H         LINE#         97
  C:9F65H         LINE#         98
  C:9F65H         LINE#         100
  C:9F6BH         LINE#         102
  C:9F6DH         LINE#         103
  C:9F81H         LINE#         104
  C:9F8BH         LINE#         105
  C:9F91H         LINE#         106
  C:9F97H         LINE#         107
  C:9F99H         LINE#         108
  C:9F99H         LINE#         109
  C:9F99H         LINE#         110
  C:9F99H         LINE#         113
  C:9F9BH         LINE#         114
  C:9F9DH         LINE#         115
  C:9F9DH         LINE#         116
  C:9FA0H         LINE#         118
  C:9FA5H         LINE#         119
  -------         ENDPROC       _RECIBE_PORT
  -------         PROC          _SEND_PORT
  X:0016H         SYMBOL        buffer_port
  X:0019H         SYMBOL        length_char
  -------         DO            
  X:001AH         SYMBOL        cont
  X:001EH         SYMBOL        timeOut
  X:001FH         SYMBOL        length
  -------         ENDDO         
  C:9628H         LINE#         126
  C:9636H         LINE#         127
  C:9636H         LINE#         132
BL51 BANKED LINKER/LOCATER V6.22.2.0                                                  07/26/2021  14:55:02  PAGE 86


  C:963AH         LINE#         134
  C:963CH         LINE#         135
  C:963EH         LINE#         136
  C:9640H         LINE#         137
  C:9645H         LINE#         138
  C:9647H         LINE#         139
  C:9651H         LINE#         141
  C:965AH         LINE#         142
  C:965AH         LINE#         143
  C:965CH         LINE#         144
  C:965EH         LINE#         145
  C:9682H         LINE#         146
  C:9696H         LINE#         147
  C:9696H         LINE#         148
  C:9699H         LINE#         149
  C:969BH         LINE#         150
  C:969BH         LINE#         151
  C:969DH         LINE#         152
  C:96A6H         LINE#         153
  C:96A6H         LINE#         157
  C:96A6H         LINE#         159
  C:96B6H         LINE#         160
  C:96B9H         LINE#         161
  C:96C3H         LINE#         163
  C:96C9H         LINE#         164
  C:96CCH         LINE#         166
  C:96CCH         LINE#         168
  C:96CFH         LINE#         169
  C:96D1H         LINE#         170
  C:96D3H         LINE#         171
  C:96D5H         LINE#         172
  -------         ENDPROC       _SEND_PORT
  -------         PROC          PULSO_BUS
  C:BDE4H         LINE#         180
  C:BDE4H         LINE#         181
  C:BDE4H         LINE#         182
  C:BDE6H         LINE#         183
  C:BDEDH         LINE#         184
  C:BDEFH         LINE#         185
  -------         ENDPROC       PULSO_BUS
  -------         PROC          _SEND_PORTERR
  X:002AH         SYMBOL        cod_err
  -------         DO            
  X:002BH         SYMBOL        timeOut
  X:002CH         SYMBOL        cont
  -------         ENDDO         
  C:A42EH         LINE#         190
  C:A434H         LINE#         191
  C:A434H         LINE#         195
  C:A436H         LINE#         196
  C:A438H         LINE#         197
  C:A43BH         LINE#         198
  C:A443H         LINE#         200
  C:A445H         LINE#         201
  C:A447H         LINE#         202
  C:A450H         LINE#         203
  C:A450H         LINE#         204
BL51 BANKED LINKER/LOCATER V6.22.2.0                                                  07/26/2021  14:55:02  PAGE 87


  C:A472H         LINE#         205
  C:A486H         LINE#         206
  C:A486H         LINE#         207
  C:A48BH         LINE#         208
  C:A48BH         LINE#         209
  C:A48DH         LINE#         210
  C:A496H         LINE#         211
  C:A496H         LINE#         212
  C:A49CH         LINE#         213
  C:A49FH         LINE#         214
  C:A49FH         LINE#         215
  C:A4A1H         LINE#         216
  C:A4A3H         LINE#         217
  C:A4A5H         LINE#         219
  C:A4A8H         LINE#         221
  C:A4AFH         LINE#         222
  -------         ENDPROC       _SEND_PORTERR
  -------         PROC          COND_INI_PTO
  C:BE5FH         LINE#         228
  C:BE5FH         LINE#         229
  C:BE5FH         LINE#         231
  C:BE61H         LINE#         232
  C:BE63H         LINE#         233
  C:BE65H         LINE#         234
  C:BE68H         LINE#         235
  -------         ENDPROC       COND_INI_PTO
  -------         PROC          LOAD_AND_SEND_INFO_RELOJ
  -------         DO            
  X:0002H         SYMBOL        buffer_info
  -------         ENDDO         
  C:B1E3H         LINE#         240
  C:B1E3H         LINE#         241
  C:B1E3H         LINE#         244
  C:B1E9H         LINE#         246
  C:B1EDH         LINE#         249
  C:B1F6H         LINE#         251
  C:B200H         LINE#         252
  C:B204H         LINE#         253
  C:B207H         LINE#         254
  C:B210H         LINE#         255
  C:B221H         LINE#         256
  C:B224H         LINE#         257
  -------         ENDPROC       LOAD_AND_SEND_INFO_RELOJ
  -------         PROC          LOAD_AND_SEND_ID_COD
  -------         DO            
  X:0002H         SYMBOL        buffer_info
  X:000DH         SYMBOL        buf
  X:0011H         SYMBOL        i
  X:0012H         SYMBOL        ID_CLIENTE
  X:0014H         SYMBOL        COD_PARK
  -------         ENDDO         
  C:6D2EH         LINE#         264
  C:6D2EH         LINE#         265
  C:6D2EH         LINE#         273
  C:6D3EH         LINE#         275
  C:6D4FH         LINE#         277
  C:6D55H         LINE#         278
BL51 BANKED LINKER/LOCATER V6.22.2.0                                                  07/26/2021  14:55:02  PAGE 88


  C:6D59H         LINE#         279
  C:6D5CH         LINE#         281
  C:6D82H         LINE#         282
  C:6D99H         LINE#         285
  C:6DB0H         LINE#         288
  C:6DD6H         LINE#         289
  C:6DEDH         LINE#         291
  C:6E04H         LINE#         292
  C:6E12H         LINE#         293
  C:6E23H         LINE#         294
  C:6E36H         LINE#         295
  C:6E3CH         LINE#         296
  C:6E45H         LINE#         297
  C:6E59H         LINE#         298
  C:6E5CH         LINE#         299
  -------         ENDPROC       LOAD_AND_SEND_ID_COD
  -------         ENDMOD        PTO_PARALELO

  -------         MODULE        TIBBO
  C:0000H         SYMBOL        _ICE_DUMMY_
  C:B425H         PUBLIC        _Debug_HexDec
  C:B285H         PUBLIC        _Debug_txt_Tibbo
  D:0080H         PUBLIC        P0
  D:0090H         PUBLIC        P1
  B:0090H.0       PUBLIC        txd2
  B:00A8H.7       PUBLIC        EA
  C:B232H         PUBLIC        _tx_aux
  B:0080H.0       PUBLIC        rx_ip
  C:BE69H         PUBLIC        Debug_Dividir_texto
  C:BEC3H         PUBLIC        cond_ini_tibbo
  C:BD59H         PUBLIC        time_mbit
  C:A4B6H         PUBLIC        rx_Data
  C:BCD8H         PUBLIC        time_bit
  C:B63CH         PUBLIC        _Debug_pto_paralelo
  C:B7B1H         PUBLIC        _Debug_monitor
  C:A6D0H         PUBLIC        _DebugBufferMF
  C:B30BH         PUBLIC        _Debug_chr_Tibbo
  C:BCD2H         SYMBOL        L?0067
  -------         PROC          L?0066
  -------         ENDPROC       L?0066
  C:BCD2H         SYMBOL        L?0067
  -------         PROC          TIME_BIT
  -------         DO            
  D:0007H         SYMBOL        j
  -------         ENDDO         
  C:BCD8H         LINE#         20
  C:BCD8H         LINE#         21
  C:BCD8H         LINE#         24
  C:BCE4H         LINE#         25
  C:BCE4H         LINE#         26
  C:BCE5H         LINE#         27
  C:BCE6H         LINE#         28
  C:BCE7H         LINE#         29
  C:BCE8H         LINE#         30
  C:BCE9H         LINE#         31
  C:BCEAH         LINE#         32
  C:BCEBH         LINE#         33
BL51 BANKED LINKER/LOCATER V6.22.2.0                                                  07/26/2021  14:55:02  PAGE 89


  C:BCECH         LINE#         34
  C:BCEDH         LINE#         39
  C:BCF0H         LINE#         40
  -------         ENDPROC       TIME_BIT
  -------         PROC          TIME_MBIT
  -------         DO            
  D:0007H         SYMBOL        j
  -------         ENDDO         
  C:BD59H         LINE#         43
  C:BD59H         LINE#         44
  C:BD59H         LINE#         46
  C:BD65H         LINE#         47
  C:BD65H         LINE#         48
  C:BD66H         LINE#         49
  C:BD67H         LINE#         50
  C:BD68H         LINE#         51
  C:BD69H         LINE#         52
  C:BD6AH         LINE#         53
  C:BD6BH         LINE#         54
  C:BD6CH         LINE#         55
  C:BD6FH         LINE#         57
  -------         ENDPROC       TIME_MBIT
  -------         PROC          L?0070
  -------         ENDPROC       L?0070
  -------         PROC          _TX_AUX
  D:0006H         SYMBOL        caracter
  -------         DO            
  D:0004H         SYMBOL        j
  D:0005H         SYMBOL        temporal
  D:0006H         SYMBOL        bitTX
  -------         ENDDO         
  C:B232H         LINE#         62
  C:B234H         LINE#         63
  C:B234H         LINE#         66
  C:B236H         LINE#         67
  C:B238H         LINE#         68
  C:B23BH         LINE#         69
  C:B23CH         LINE#         70
  C:B23DH         LINE#         71
  C:B23FH         LINE#         72
  C:B243H         LINE#         73
  C:B245H         LINE#         74
  C:B245H         LINE#         75
  C:B247H         LINE#         76
  C:B249H         LINE#         78
  C:B249H         LINE#         79
  C:B24BH         LINE#         80
  C:B24BH         LINE#         81
  C:B24EH         LINE#         82
  C:B25AH         LINE#         83
  C:B25AH         LINE#         84
  C:B25EH         LINE#         85
  C:B261H         LINE#         86
  C:B263H         LINE#         87
  C:B263H         LINE#         88
  C:B265H         LINE#         89
  C:B267H         LINE#         91
BL51 BANKED LINKER/LOCATER V6.22.2.0                                                  07/26/2021  14:55:02  PAGE 90


  C:B267H         LINE#         92
  C:B269H         LINE#         93
  C:B269H         LINE#         94
  C:B26CH         LINE#         95
  C:B26FH         LINE#         96
  C:B271H         LINE#         97
  C:B274H         LINE#         98
  C:B277H         LINE#         100
  C:B279H         LINE#         101
  -------         ENDPROC       _TX_AUX
  -------         PROC          _DEBUG_HEXDEC
  D:0007H         SYMBOL        xfc
  -------         DO            
  X:0018H         SYMBOL        valor
  D:0006H         SYMBOL        centena
  D:0003H         SYMBOL        decena
  D:0002H         SYMBOL        unidad
  -------         ENDDO         
  C:B425H         LINE#         104
  C:B425H         LINE#         105
  C:B425H         LINE#         108
  C:B42CH         LINE#         110
  C:B42DH         LINE#         111
  C:B42EH         LINE#         112
  C:B42FH         LINE#         113
  C:B437H         LINE#         114
  C:B437H         LINE#         115
  C:B441H         LINE#         116
  C:B441H         LINE#         117
  C:B445H         LINE#         118
  C:B446H         LINE#         119
  C:B448H         LINE#         120
  C:B452H         LINE#         121
  C:B452H         LINE#         122
  C:B456H         LINE#         123
  C:B457H         LINE#         124
  C:B459H         LINE#         125
  C:B45BH         LINE#         126
  C:B45FH         LINE#         127
  C:B463H         LINE#         128
  C:B46AH         LINE#         130
  C:B46AH         LINE#         131
  -------         ENDPROC       _DEBUG_HEXDEC
  -------         PROC          _DEBUG_CHR_TIBBO
  D:0003H         SYMBOL        Dat
  -------         DO            
  D:0007H         SYMBOL        temp
  -------         ENDDO         
  C:B30BH         LINE#         136
  C:B30DH         LINE#         137
  C:B30DH         LINE#         139
  C:B315H         LINE#         140
  C:B315H         LINE#         141
  C:B31CH         LINE#         142
  C:B32FH         LINE#         144
  C:B332H         LINE#         146
  C:B336H         LINE#         147
BL51 BANKED LINKER/LOCATER V6.22.2.0                                                  07/26/2021  14:55:02  PAGE 91


  C:B349H         LINE#         148
  C:B34CH         LINE#         149
  C:B351H         LINE#         151
  C:B351H         LINE#         152
  -------         ENDPROC       _DEBUG_CHR_TIBBO
  -------         PROC          _DEBUGBUFFERMF
  X:0027H         SYMBOL        str
  X:002AH         SYMBOL        num_char
  X:002BH         SYMBOL        io
  -------         DO            
  X:002CH         SYMBOL        j
  -------         ENDDO         
  C:A6D0H         LINE#         160
  C:A6DEH         LINE#         161
  C:A6DEH         LINE#         165
  C:A6E6H         LINE#         166
  C:A6E6H         LINE#         167
  C:A6F5H         LINE#         168
  C:A6F5H         LINE#         169
  C:A6FBH         LINE#         170
  C:A6FDH         LINE#         171
  C:A70AH         LINE#         172
  C:A70AH         LINE#         173
  C:A713H         LINE#         174
  C:A713H         LINE#         176
  C:A725H         LINE#         177
  C:A725H         LINE#         178
  C:A737H         LINE#         179
  C:A741H         LINE#         180
  C:A749H         LINE#         181
  C:A74EH         LINE#         182
  C:A753H         LINE#         183
  C:A753H         LINE#         185
  -------         ENDPROC       _DEBUGBUFFERMF
  C:B27FH         SYMBOL        L?0069
  -------         PROC          L?0068
  -------         ENDPROC       L?0068
  C:B27FH         SYMBOL        L?0069
  -------         PROC          _DEBUG_TXT_TIBBO
  X:004EH         SYMBOL        str
  -------         DO            
  X:0051H         SYMBOL        i
  -------         ENDDO         
  C:B285H         LINE#         190
  C:B290H         LINE#         191
  C:B290H         LINE#         193
  C:B293H         LINE#         195
  C:B29BH         LINE#         196
  C:B29BH         LINE#         197
  C:B2B7H         LINE#         198
  C:B2B7H         LINE#         199
  C:B2BAH         LINE#         200
  C:B2C2H         LINE#         202
  C:B2C2H         LINE#         203
  -------         ENDPROC       _DEBUG_TXT_TIBBO
  -------         PROC          DEBUG_DIVIDIR_TEXTO
  C:BE69H         LINE#         205
BL51 BANKED LINKER/LOCATER V6.22.2.0                                                  07/26/2021  14:55:02  PAGE 92


  C:BE69H         LINE#         206
  C:BE69H         LINE#         207
  -------         ENDPROC       DEBUG_DIVIDIR_TEXTO
  -------         PROC          RX_DATA
  -------         DO            
  D:0006H         SYMBOL        temporal
  -------         ENDDO         
  C:A4B6H         LINE#         213
  C:A4B6H         LINE#         214
  C:A4B6H         LINE#         217
  C:A4B8H         LINE#         218
  C:A4BBH         LINE#         220
  C:A4BEH         LINE#         222
  C:A4CAH         LINE#         223
  C:A4CAH         LINE#         225
  C:A4CDH         LINE#         227
  C:A4D9H         LINE#         228
  C:A4D9H         LINE#         230
  C:A4DCH         LINE#         232
  C:A4E8H         LINE#         233
  C:A4E8H         LINE#         235
  C:A4EBH         LINE#         237
  C:A4F7H         LINE#         238
  C:A4F7H         LINE#         240
  C:A4FAH         LINE#         242
  C:A506H         LINE#         243
  C:A506H         LINE#         245
  C:A509H         LINE#         247
  C:A515H         LINE#         248
  C:A515H         LINE#         250
  C:A518H         LINE#         252
  C:A524H         LINE#         253
  C:A524H         LINE#         255
  C:A527H         LINE#         256
  C:A535H         LINE#         258
  C:A538H         LINE#         259
  C:A53BH         LINE#         260
  C:A53BH         LINE#         261
  C:A53BH         LINE#         264
  C:A53DH         LINE#         266
  -------         ENDPROC       RX_DATA
  -------         PROC          COND_INI_TIBBO
  C:BEC3H         LINE#         284
  C:BEC3H         LINE#         285
  C:BEC3H         LINE#         287
  C:BEC5H         LINE#         288
  C:BEC7H         LINE#         289
  -------         ENDPROC       COND_INI_TIBBO
  -------         PROC          _DEBUG_PTO_PARALELO
  X:0001H         SYMBOL        buffer
  X:0004H         SYMBOL        Length_trama
  C:B63CH         LINE#         290
  C:B64AH         LINE#         291
  C:B64AH         LINE#         293
  C:B653H         LINE#         294
  C:B66AH         LINE#         295
  C:B673H         LINE#         296
BL51 BANKED LINKER/LOCATER V6.22.2.0                                                  07/26/2021  14:55:02  PAGE 93


  C:B676H         LINE#         297
  C:B679H         LINE#         298
  -------         ENDPROC       _DEBUG_PTO_PARALELO
  -------         PROC          _DEBUG_MONITOR
  X:0016H         SYMBOL        buffer
  X:0019H         SYMBOL        Length_trama
  C:B7B1H         LINE#         301
  C:B7BFH         LINE#         302
  C:B7BFH         LINE#         303
  C:B7C2H         LINE#         304
  C:B7CBH         LINE#         305
  C:B7D9H         LINE#         306
  C:B7DCH         LINE#         307
  C:B7E5H         LINE#         308
  C:B7E8H         LINE#         309
  C:B7EBH         LINE#         310
  -------         ENDPROC       _DEBUG_MONITOR
  -------         ENDMOD        TIBBO

  -------         MODULE        UART
  C:0000H         SYMBOL        _ICE_DUMMY_
  C:BB79H         PUBLIC        com_getchar
  C:BDF6H         PUBLIC        com_rbuflen
  C:BE08H         PUBLIC        com_tbuflen
  B:00A8H.4       PUBLIC        ES
  B:0098H.0       PUBLIC        RI
  C:B866H         PUBLIC        _com_putchar
  B:0098H.1       PUBLIC        TI
  B:0021H.4       PUBLIC        aSk
  B:00B8H.4       PUBLIC        PS
  D:000DH         SYMBOL        r_in
  D:000EH         SYMBOL        r_out
  D:000FH         SYMBOL        t_in
  D:0010H         SYMBOL        t_out
  D:0099H         PUBLIC        SBUF
  D:0087H         PUBLIC        PCON
  D:0089H         PUBLIC        TMOD
  B:0021H.5       SYMBOL        ti_restart
  B:00A8H.3       PUBLIC        ET1
  D:008DH         PUBLIC        TH1
  B:0098H.7       PUBLIC        SM0
  B:0098H.6       PUBLIC        SM1
  D:008BH         PUBLIC        TL1
  B:0098H.5       PUBLIC        SM2
  B:0088H.6       PUBLIC        TR1
  C:BAB0H         PUBLIC        com_initialize
  X:020DH         PUBLIC        cnt__ask_off
  B:0098H.4       PUBLIC        REN
  C:BB02H         PUBLIC        com_baudrate
  C:5EF3H         SYMBOL        com_isr
  -------         PROC          COM_ISR
  -------         DO            
  X:020BH         SYMBOL        cDatoRx
  D:0006H         SYMBOL        k
  D:0007H         SYMBOL        bcc
  X:020CH         SYMBOL        num_datos
  -------         ENDDO         
BL51 BANKED LINKER/LOCATER V6.22.2.0                                                  07/26/2021  14:55:02  PAGE 94


  C:5EF3H         LINE#         95
  C:5F08H         LINE#         103
  C:5F0EH         LINE#         104
  C:5F0EH         LINE#         106
  C:5F10H         LINE#         107
  C:5F16H         LINE#         108
  C:5F26H         LINE#         109
  C:5F26H         LINE#         110
  C:5F31H         LINE#         111
  C:5F33H         LINE#         113
  C:5F33H         LINE#         114
  C:5F43H         LINE#         115
  C:5F43H         LINE#         116
  C:5F48H         LINE#         117
  C:5F48H         LINE#         118
  C:5F5FH         LINE#         119
  C:5F5FH         LINE#         123
  C:5F5FH         LINE#         126
  C:5F6EH         LINE#         127
  C:5F6EH         LINE#         128
  C:5F70H         LINE#         129
  C:5F78H         LINE#         130
  C:5F7DH         LINE#         132
  C:5F7DH         LINE#         133
  C:5F80H         LINE#         137
  C:5F80H         LINE#         138
  C:5F80H         LINE#         139
  C:5F98H         LINE#         140
  C:5FA7H         LINE#         141
  C:5FA7H         LINE#         142
  C:5FA7H         LINE#         143
  C:5FA9H         LINE#         145
  C:5FA9H         LINE#         146
  C:5FABH         LINE#         147
  C:5FABH         LINE#         148
  C:5FABH         LINE#         149
  C:5FAEH         LINE#         153
  C:5FAEH         LINE#         155
  C:5FB7H         LINE#         156
  C:5FB7H         LINE#         158
  C:5FBDH         LINE#         159
  C:5FD0H         LINE#         160
  C:5FD0H         LINE#         161
  C:5FD3H         LINE#         163
  C:5FD3H         LINE#         164
  C:5FE8H         LINE#         165
  C:5FEEH         LINE#         166
  C:5FEEH         LINE#         168
  C:5FF1H         LINE#         172
  C:5FF1H         LINE#         174
  C:6009H         LINE#         175
  C:600FH         LINE#         176
  C:6012H         LINE#         177
  C:6012H         LINE#         178
  C:602AH         LINE#         179
  C:602AH         LINE#         180
  C:602BH         LINE#         181
BL51 BANKED LINKER/LOCATER V6.22.2.0                                                  07/26/2021  14:55:02  PAGE 95


  C:6038H         LINE#         182
  C:6038H         LINE#         183
  C:6045H         LINE#         184
  C:6048H         LINE#         185
  C:6056H         LINE#         186
  C:6056H         LINE#         187
  C:6058H         LINE#         188
  C:605DH         LINE#         189
  C:605FH         LINE#         190
  C:6063H         LINE#         192
  C:6065H         LINE#         194
  C:6065H         LINE#         195
  C:6065H         LINE#         196
  C:6065H         LINE#         197
  C:6067H         LINE#         199
  C:6067H         LINE#         200
  C:6067H         LINE#         201
  C:6067H         LINE#         203
  C:6069H         LINE#         205
  C:6069H         LINE#         206
  C:606FH         LINE#         207
  C:606FH         LINE#         209
  C:6071H         LINE#         214
  C:6071H         LINE#         215
  C:6076H         LINE#         216
  C:6076H         LINE#         217
  C:6076H         LINE#         218
  C:6076H         LINE#         223
  C:6079H         LINE#         224
  C:6079H         LINE#         225
  C:607BH         LINE#         227
  C:6081H         LINE#         228
  C:6081H         LINE#         229
  C:608BH         LINE#         231
  C:608DH         LINE#         232
  C:608FH         LINE#         233
  C:6091H         LINE#         235
  C:6091H         LINE#         236
  C:6093H         LINE#         237
  C:6093H         LINE#         238
  C:6093H         LINE#         240
  -------         ENDPROC       COM_ISR
  -------         PROC          COM_INITIALIZE
  C:BAB0H         LINE#         256
  C:BAB7H         LINE#         257
  C:BAB7H         LINE#         261
  C:BABAH         LINE#         266
  C:BABDH         LINE#         267
  C:BABFH         LINE#         269
  C:BAC1H         LINE#         270
  C:BAC3H         LINE#         275
  C:BAC7H         LINE#         276
  C:BAC9H         LINE#         277
  C:BACBH         LINE#         279
  C:BACDH         LINE#         280
  C:BACFH         LINE#         281
  C:BAD1H         LINE#         283
BL51 BANKED LINKER/LOCATER V6.22.2.0                                                  07/26/2021  14:55:02  PAGE 96


  C:BAD3H         LINE#         284
  C:BAD5H         LINE#         285
  -------         ENDPROC       COM_INITIALIZE
  -------         PROC          COM_BAUDRATE
  C:BB02H         LINE#         291
  C:BB09H         LINE#         293
  C:BB09H         LINE#         297
  C:BB0BH         LINE#         298
  C:BB0EH         LINE#         299
  C:BB10H         LINE#         304
  C:BB12H         LINE#         305
  C:BB14H         LINE#         307
  C:BB17H         LINE#         309
  C:BB1AH         LINE#         310
  C:BB1DH         LINE#         312
  C:BB20H         LINE#         313
  C:BB23H         LINE#         314
  C:BB25H         LINE#         315
  -------         ENDPROC       COM_BAUDRATE
  -------         PROC          _COM_PUTCHAR
  X:00AAH         SYMBOL        c
  C:B866H         LINE#         321
  C:B872H         LINE#         322
  C:B872H         LINE#         326
  C:B87FH         LINE#         327
  C:B883H         LINE#         333
  C:B891H         LINE#         335
  C:B893H         LINE#         337
  C:B896H         LINE#         338
  C:B896H         LINE#         339
  C:B898H         LINE#         340
  C:B89AH         LINE#         341
  C:B89AH         LINE#         343
  C:B89CH         LINE#         344
  -------         ENDPROC       _COM_PUTCHAR
  -------         PROC          COM_GETCHAR
  C:BB79H         LINE#         350
  C:BB80H         LINE#         351
  C:BB80H         LINE#         352
  C:BB86H         LINE#         353
  C:BB8CH         LINE#         355
  C:BB9AH         LINE#         356
  -------         ENDPROC       COM_GETCHAR
  -------         PROC          COM_RBUFLEN
  C:BDF6H         LINE#         362
  C:BDFDH         LINE#         363
  C:BDFDH         LINE#         364
  C:BE03H         LINE#         365
  -------         ENDPROC       COM_RBUFLEN
  -------         PROC          COM_TBUFLEN
  C:BE08H         LINE#         371
  C:BE0FH         LINE#         372
  C:BE0FH         LINE#         373
  C:BE15H         LINE#         374
  -------         ENDPROC       COM_TBUFLEN
  -------         ENDMOD        UART

BL51 BANKED LINKER/LOCATER V6.22.2.0                                                  07/26/2021  14:55:02  PAGE 97


  -------         MODULE        LINTECH
  C:0000H         SYMBOL        _ICE_DUMMY_
  C:9B6CH         PUBLIC        _Inicializa
  C:8E0CH         PUBLIC        _RD_MF
  C:9832H         PUBLIC        Dwload_EEprom
  C:A165H         PUBLIC        _Card_Insercion
  C:8258H         PUBLIC        _Mov_Card
  C:7983H         PUBLIC        _WR_MF
  C:A315H         PUBLIC        LoadVerify_EEprom
  C:A53EH         PUBLIC        Unique_Identifier_UID
  C:A9DCH         PUBLIC        Power_off
  C:A5C6H         PUBLIC        _Check_Status
  C:9788H         PUBLIC        Clave_Seguridad_S2
  C:A95CH         PUBLIC        Aut_Card_check_Status
  -------         PROC          _INICIALIZA
  X:0002H         SYMBOL        TipoMovimiento
  -------         DO            
  D:0003H         SYMBOL        j
  X:0003H         SYMBOL        bcc
  X:0004H         SYMBOL        g_scArrTxComSoft
  -------         ENDDO         
  C:9B6CH         LINE#         68
  C:9B71H         LINE#         69
  C:9B71H         LINE#         72
  C:9B74H         LINE#         73
  C:9B8AH         LINE#         74
  C:9B8AH         LINE#         76
  C:9B93H         LINE#         78
  C:9B99H         LINE#         79
  C:9B9CH         LINE#         80
  C:9B9EH         LINE#         81
  C:9BA2H         LINE#         82
  C:9BA6H         LINE#         83
  C:9BAAH         LINE#         84
  C:9BB2H         LINE#         85
  C:9BB6H         LINE#         86
  C:9BC2H         LINE#         87
  C:9BC2H         LINE#         88
  C:9BD6H         LINE#         89
  C:9BD9H         LINE#         90
  C:9BE1H         LINE#         91
  C:9BE3H         LINE#         92
  C:9BE8H         LINE#         93
  C:9BF7H         LINE#         94
  C:9C02H         LINE#         95
  C:9C08H         LINE#         96
  C:9C08H         LINE#         97
  -------         ENDPROC       _INICIALIZA
  -------         PROC          _CHECK_STATUS
  X:0002H         SYMBOL        Detalle
  -------         DO            
  D:0006H         SYMBOL        j
  D:0007H         SYMBOL        bcc
  X:0003H         SYMBOL        g_scArrTxComSoft
  -------         ENDDO         
  C:A5C6H         LINE#         109
  C:A5CBH         LINE#         110
BL51 BANKED LINKER/LOCATER V6.22.2.0                                                  07/26/2021  14:55:02  PAGE 98


  C:A5CBH         LINE#         114
  C:A5D1H         LINE#         115
  C:A5D1H         LINE#         116
  C:A5D5H         LINE#         117
  C:A5D7H         LINE#         119
  C:A5D7H         LINE#         120
  C:A5DEH         LINE#         121
  C:A5DEH         LINE#         122
  C:A5E0H         LINE#         124
  C:A5E6H         LINE#         125
  C:A5E9H         LINE#         126
  C:A5EBH         LINE#         127
  C:A5EFH         LINE#         128
  C:A5F3H         LINE#         129
  C:A5F7H         LINE#         130
  C:A5FFH         LINE#         131
  C:A603H         LINE#         132
  C:A60FH         LINE#         133
  C:A60FH         LINE#         134
  C:A61CH         LINE#         135
  C:A61FH         LINE#         136
  C:A624H         LINE#         137
  C:A626H         LINE#         138
  C:A62BH         LINE#         139
  C:A63AH         LINE#         140
  C:A645H         LINE#         141
  C:A64BH         LINE#         142
  -------         ENDPROC       _CHECK_STATUS
  -------         PROC          _CARD_INSERCION
  D:0007H         SYMBOL        Tipo
  -------         DO            
  D:0006H         SYMBOL        j
  D:0007H         SYMBOL        bcc
  X:0002H         SYMBOL        g_scArrTxComSoft
  -------         ENDDO         
  C:A165H         LINE#         152
  C:A165H         LINE#         153
  C:A165H         LINE#         156
  C:A172H         LINE#         157
  C:A172H         LINE#         158
  C:A179H         LINE#         159
  C:A17FH         LINE#         160
  C:A181H         LINE#         162
  C:A181H         LINE#         164
  C:A188H         LINE#         165
  C:A18EH         LINE#         167
  C:A18EH         LINE#         169
  C:A190H         LINE#         171
  C:A196H         LINE#         172
  C:A199H         LINE#         173
  C:A19BH         LINE#         174
  C:A19FH         LINE#         175
  C:A1A3H         LINE#         176
  C:A1A7H         LINE#         178
  C:A1ADH         LINE#         179
  C:A1B9H         LINE#         180
  C:A1B9H         LINE#         181
BL51 BANKED LINKER/LOCATER V6.22.2.0                                                  07/26/2021  14:55:02  PAGE 99


  C:A1C6H         LINE#         182
  C:A1C9H         LINE#         184
  C:A1CEH         LINE#         186
  C:A1D0H         LINE#         187
  C:A1D5H         LINE#         188
  C:A1E4H         LINE#         189
  C:A1EFH         LINE#         190
  C:A1F5H         LINE#         191
  -------         ENDPROC       _CARD_INSERCION
  -------         PROC          _MOV_CARD
  X:0002H         SYMBOL        Posicion
  -------         DO            
  D:0003H         SYMBOL        j
  X:0003H         SYMBOL        bcc
  X:0004H         SYMBOL        g_scArrTxComSoft
  -------         ENDDO         
  C:8258H         LINE#         202
  C:825DH         LINE#         203
  C:825DH         LINE#         206
  C:8260H         LINE#         208
  C:8280H         LINE#         209
  C:8280H         LINE#         210
  C:8287H         LINE#         211
  C:8287H         LINE#         212
  C:828DH         LINE#         213
  C:828FH         LINE#         214
  C:8296H         LINE#         215
  C:8296H         LINE#         216
  C:829CH         LINE#         217
  C:829EH         LINE#         218
  C:82A5H         LINE#         219
  C:82A5H         LINE#         220
  C:82ABH         LINE#         221
  C:82ADH         LINE#         222
  C:82B4H         LINE#         223
  C:82B4H         LINE#         224
  C:82BAH         LINE#         225
  C:82BCH         LINE#         226
  C:82C3H         LINE#         227
  C:82C3H         LINE#         228
  C:82CCH         LINE#         229
  C:82CCH         LINE#         231
  C:82D2H         LINE#         232
  C:82D5H         LINE#         233
  C:82D7H         LINE#         234
  C:82DBH         LINE#         235
  C:82DFH         LINE#         236
  C:82E3H         LINE#         237
  C:82EBH         LINE#         238
  C:82EFH         LINE#         239
  C:82FBH         LINE#         240
  C:82FBH         LINE#         241
  C:830FH         LINE#         242
  C:8312H         LINE#         243
  C:831AH         LINE#         244
  C:831CH         LINE#         245
  C:8321H         LINE#         246
BL51 BANKED LINKER/LOCATER V6.22.2.0                                                  07/26/2021  14:55:02  PAGE 100


  C:8330H         LINE#         247
  C:833BH         LINE#         248
  C:8341H         LINE#         249
  C:8341H         LINE#         251
  -------         ENDPROC       _MOV_CARD
  -------         PROC          AUT_CARD_CHECK_STATUS
  -------         DO            
  D:0003H         SYMBOL        j
  X:0002H         SYMBOL        bcc
  X:0003H         SYMBOL        g_scArrTxComSoft
  -------         ENDDO         
  C:A95CH         LINE#         257
  C:A95CH         LINE#         258
  C:A95CH         LINE#         261
  C:A961H         LINE#         263
  C:A96AH         LINE#         265
  C:A970H         LINE#         266
  C:A973H         LINE#         267
  C:A975H         LINE#         268
  C:A979H         LINE#         269
  C:A97DH         LINE#         270
  C:A981H         LINE#         271
  C:A985H         LINE#         272
  C:A989H         LINE#         273
  C:A995H         LINE#         274
  C:A995H         LINE#         275
  C:A9A9H         LINE#         276
  C:A9ACH         LINE#         277
  C:A9B4H         LINE#         278
  C:A9B6H         LINE#         279
  C:A9BBH         LINE#         280
  C:A9CAH         LINE#         281
  C:A9D5H         LINE#         282
  C:A9DBH         LINE#         283
  -------         ENDPROC       AUT_CARD_CHECK_STATUS
  -------         PROC          CLAVE_SEGURIDAD_S2
  -------         DO            
  D:0003H         SYMBOL        j
  X:0002H         SYMBOL        bcc
  X:0003H         SYMBOL        g_scArrTxComSoft
  -------         ENDDO         
  C:9788H         LINE#         286
  C:9788H         LINE#         287
  C:9788H         LINE#         290
  C:978DH         LINE#         291
  C:9796H         LINE#         294
  C:979CH         LINE#         295
  C:979FH         LINE#         296
  C:97A1H         LINE#         297
  C:97A5H         LINE#         298
  C:97A9H         LINE#         299
  C:97ADH         LINE#         300
  C:97B1H         LINE#         301
  C:97B4H         LINE#         302
  C:97B8H         LINE#         303
  C:97BBH         LINE#         304
  C:97BFH         LINE#         306
BL51 BANKED LINKER/LOCATER V6.22.2.0                                                  07/26/2021  14:55:02  PAGE 101


  C:97C3H         LINE#         308
  C:97C7H         LINE#         309
  C:97CBH         LINE#         310
  C:97CFH         LINE#         311
  C:97D3H         LINE#         312
  C:97D7H         LINE#         313
  C:97DBH         LINE#         316
  C:97DFH         LINE#         318
  C:97EBH         LINE#         319
  C:97EBH         LINE#         320
  C:97FFH         LINE#         321
  C:9802H         LINE#         322
  C:980AH         LINE#         323
  C:980CH         LINE#         324
  C:9811H         LINE#         325
  C:9820H         LINE#         326
  C:982BH         LINE#         327
  C:9831H         LINE#         330
  -------         ENDPROC       CLAVE_SEGURIDAD_S2
  -------         PROC          DWLOAD_EEPROM
  -------         DO            
  D:0003H         SYMBOL        j
  X:0002H         SYMBOL        bcc
  X:0003H         SYMBOL        g_scArrTxComSoft
  -------         ENDDO         
  C:9832H         LINE#         335
  C:9832H         LINE#         336
  C:9832H         LINE#         339
  C:9837H         LINE#         340
  C:9840H         LINE#         342
  C:9846H         LINE#         343
  C:9849H         LINE#         344
  C:984BH         LINE#         345
  C:984FH         LINE#         346
  C:9853H         LINE#         347
  C:9857H         LINE#         348
  C:985BH         LINE#         349
  C:985EH         LINE#         350
  C:9862H         LINE#         351
  C:9865H         LINE#         352
  C:9868H         LINE#         353
  C:986CH         LINE#         354
  C:9870H         LINE#         355
  C:9874H         LINE#         356
  C:9878H         LINE#         357
  C:987CH         LINE#         358
  C:9880H         LINE#         359
  C:9884H         LINE#         360
  C:9888H         LINE#         362
  C:9894H         LINE#         363
  C:9894H         LINE#         364
  C:98A8H         LINE#         365
  C:98ABH         LINE#         366
  C:98B3H         LINE#         367
  C:98B5H         LINE#         368
  C:98BAH         LINE#         369
  C:98C9H         LINE#         370
BL51 BANKED LINKER/LOCATER V6.22.2.0                                                  07/26/2021  14:55:02  PAGE 102


  C:98D4H         LINE#         371
  C:98DAH         LINE#         372
  -------         ENDPROC       DWLOAD_EEPROM
  -------         PROC          LOADVERIFY_EEPROM
  -------         DO            
  D:0003H         SYMBOL        j
  X:0002H         SYMBOL        bcc
  X:0003H         SYMBOL        g_scArrTxComSoft
  -------         ENDDO         
  C:A315H         LINE#         378
  C:A315H         LINE#         379
  C:A315H         LINE#         382
  C:A31AH         LINE#         383
  C:A323H         LINE#         386
  C:A329H         LINE#         387
  C:A32CH         LINE#         388
  C:A32EH         LINE#         389
  C:A332H         LINE#         390
  C:A336H         LINE#         391
  C:A33AH         LINE#         392
  C:A33EH         LINE#         393
  C:A341H         LINE#         394
  C:A345H         LINE#         395
  C:A348H         LINE#         396
  C:A34BH         LINE#         397
  C:A34FH         LINE#         402
  C:A35BH         LINE#         403
  C:A35BH         LINE#         404
  C:A36FH         LINE#         405
  C:A372H         LINE#         406
  C:A37AH         LINE#         407
  C:A37CH         LINE#         408
  C:A381H         LINE#         409
  C:A390H         LINE#         410
  C:A39BH         LINE#         411
  C:A3A1H         LINE#         413
  -------         ENDPROC       LOADVERIFY_EEPROM
  -------         PROC          _RD_MF
  X:0002H         SYMBOL        Sector
  X:0003H         SYMBOL        Bloque
  -------         DO            
  D:0003H         SYMBOL        j
  X:0004H         SYMBOL        bcc
  X:0005H         SYMBOL        g_scArrTxComSoft
  -------         ENDDO         
  C:8E0CH         LINE#         419
  C:8E14H         LINE#         420
  C:8E14H         LINE#         424
  C:8E17H         LINE#         426
  C:8E20H         LINE#         427
  C:8E28H         LINE#         429
  C:8E31H         LINE#         430
  C:8E39H         LINE#         431
  C:8E42H         LINE#         434
  C:8E48H         LINE#         435
  C:8E4BH         LINE#         436
  C:8E4DH         LINE#         437
BL51 BANKED LINKER/LOCATER V6.22.2.0                                                  07/26/2021  14:55:02  PAGE 103


  C:8E51H         LINE#         438
  C:8E55H         LINE#         439
  C:8E59H         LINE#         440
  C:8E5DH         LINE#         441
  C:8E60H         LINE#         442
  C:8E64H         LINE#         443
  C:8E6CH         LINE#         444
  C:8E74H         LINE#         445
  C:8E78H         LINE#         446
  C:8E7CH         LINE#         448
  C:8E88H         LINE#         449
  C:8E88H         LINE#         450
  C:8E9CH         LINE#         451
  C:8E9FH         LINE#         452
  C:8EA7H         LINE#         455
  C:8EA9H         LINE#         456
  C:8EAEH         LINE#         457
  C:8EBDH         LINE#         458
  C:8EC8H         LINE#         459
  C:8ECEH         LINE#         461
  -------         ENDPROC       _RD_MF
  -------         PROC          _WR_MF
  X:0002H         SYMBOL        Sector
  X:0003H         SYMBOL        Bloque
  X:0004H         SYMBOL        buffer
  -------         DO            
  D:0005H         SYMBOL        j
  X:0007H         SYMBOL        bcc
  X:0008H         SYMBOL        g_scArrTxComSoft
  -------         ENDDO         
  C:7983H         LINE#         468
  C:7994H         LINE#         470
  C:7994H         LINE#         473
  C:7997H         LINE#         475
  C:79A0H         LINE#         476
  C:79A8H         LINE#         478
  C:79B1H         LINE#         479
  C:79B9H         LINE#         480
  C:79C2H         LINE#         482
  C:79C8H         LINE#         483
  C:79CBH         LINE#         484
  C:79CDH         LINE#         485
  C:79D1H         LINE#         487
  C:79D5H         LINE#         488
  C:79D9H         LINE#         489
  C:79DDH         LINE#         490
  C:79E0H         LINE#         491
  C:79E4H         LINE#         492
  C:79ECH         LINE#         493
  C:79F4H         LINE#         494
  C:79F8H         LINE#         496
  C:7A04H         LINE#         497
  C:7A04H         LINE#         498
  C:7A24H         LINE#         499
  C:7A27H         LINE#         501
  C:7A2DH         LINE#         503
  C:7A39H         LINE#         504
BL51 BANKED LINKER/LOCATER V6.22.2.0                                                  07/26/2021  14:55:02  PAGE 104


  C:7A39H         LINE#         505
  C:7A50H         LINE#         506
  C:7A53H         LINE#         507
  C:7A5BH         LINE#         510
  C:7A5DH         LINE#         511
  C:7A62H         LINE#         512
  C:7A71H         LINE#         513
  C:7A7CH         LINE#         514
  C:7A82H         LINE#         516
  -------         ENDPROC       _WR_MF
  -------         PROC          UNIQUE_IDENTIFIER_UID
  -------         DO            
  D:0003H         SYMBOL        j
  X:0002H         SYMBOL        bcc
  X:0003H         SYMBOL        g_scArrTxComSoft
  -------         ENDDO         
  C:A53EH         LINE#         521
  C:A53EH         LINE#         522
  C:A53EH         LINE#         525
  C:A543H         LINE#         527
  C:A54CH         LINE#         529
  C:A552H         LINE#         530
  C:A555H         LINE#         531
  C:A557H         LINE#         532
  C:A55BH         LINE#         533
  C:A55FH         LINE#         534
  C:A563H         LINE#         535
  C:A567H         LINE#         536
  C:A56BH         LINE#         537
  C:A56FH         LINE#         538
  C:A573H         LINE#         539
  C:A57FH         LINE#         540
  C:A57FH         LINE#         541
  C:A593H         LINE#         542
  C:A596H         LINE#         543
  C:A59EH         LINE#         544
  C:A5A0H         LINE#         545
  C:A5A5H         LINE#         546
  C:A5B4H         LINE#         547
  C:A5BFH         LINE#         548
  C:A5C5H         LINE#         549
  -------         ENDPROC       UNIQUE_IDENTIFIER_UID
  -------         PROC          POWER_OFF
  -------         DO            
  D:0003H         SYMBOL        j
  X:0002H         SYMBOL        bcc
  X:0003H         SYMBOL        g_scArrTxComSoft
  -------         ENDDO         
  C:A9DCH         LINE#         550
  C:A9DCH         LINE#         551
  C:A9DCH         LINE#         554
  C:A9E1H         LINE#         556
  C:A9EAH         LINE#         558
  C:A9F0H         LINE#         559
  C:A9F3H         LINE#         560
  C:A9F5H         LINE#         561
  C:A9F9H         LINE#         562
BL51 BANKED LINKER/LOCATER V6.22.2.0                                                  07/26/2021  14:55:02  PAGE 105


  C:A9FDH         LINE#         563
  C:AA01H         LINE#         564
  C:AA05H         LINE#         565
  C:AA09H         LINE#         566
  C:AA15H         LINE#         567
  C:AA15H         LINE#         568
  C:AA29H         LINE#         569
  C:AA2CH         LINE#         570
  C:AA34H         LINE#         571
  C:AA36H         LINE#         572
  C:AA3BH         LINE#         573
  C:AA4AH         LINE#         574
  C:AA55H         LINE#         575
  C:AA5BH         LINE#         578
  -------         ENDPROC       POWER_OFF
  -------         ENDMOD        LINTECH

  -------         MODULE        VERIFICADOR
  C:0000H         SYMBOL        _ICE_DUMMY_
  D:0080H         PUBLIC        P0
  C:BB9FH         PUBLIC        Analiza_Presencia_Mensual
  C:AD97H         PUBLIC        Ingreso_Vehiculo
  D:0090H         PUBLIC        P1
  C:BB2AH         PUBLIC        _Armar_Trama_Tarjeta_Sector1_Bloque0
  D:00B0H         PUBLIC        P3
  C:60A6H         PUBLIC        _Valida_Tipo_Tarjeta
  C:B80AH         PUBLIC        _Load_Secuencia_Expedidor
  C:5952H         PUBLIC        _Armar_Trama_Tarjeta_Sector1_Bloque2
  C:4EF0H         PUBLIC        _Armar_Trama_Pto_Paralelo_Expedidor
  C:8D48H         PUBLIC        _Tarjeta_Mensual
  C:BBEBH         PUBLIC        Analiza_Presencia_rotacion
  C:A03EH         PUBLIC        _Disparo_Lock_Entrada_Vehiculo
  C:BA52H         PUBLIC        Pregunta_Placa
  C:9FA6H         PUBLIC        _Valida_Vehiculo_Card_Mensual
  C:B8DBH         PUBLIC        Analiza_card_mount_rf
  C:AFF0H         PUBLIC        _Armar_Trama_Placa
  C:85EDH         PUBLIC        _rta_cmd_transporte
  C:BE72H         PUBLIC        Captura_Expulsa
  C:6819H         PUBLIC        _Armar_Trama_Monitor
  C:6BF0H         PUBLIC        Secuencia_inicio_expedidor
  C:87A4H         PUBLIC        _Analiza_Uid_Card
  B:0080H.0       PUBLIC        rx_ip
  C:7880H         PUBLIC        _Bloque_Horario
  B:0080H.3       PUBLIC        Atascado_GP0_PIN_3
  B:0090H.7       PUBLIC        lock
  C:9A27H         PUBLIC        _Armar_Trama_Tarjeta_Sector1_Bloque1_Camcel
  C:9D40H         PUBLIC        _Responde_Lectura_Tarjeta_Sector1_Bloque0
  C:9111H         PUBLIC        error_rx_pto
  C:5B45H         PUBLIC        _Responde_Lectura_Tarjeta_Sector1_Bloque1
  C:6FA1H         PUBLIC        _Responde_Lectura_Tarjeta_Sector1_Bloque2
  C:9C09H         PUBLIC        _Respuesta_Placa_Cancel
  B:0090H.1       PUBLIC        DataIn
  C:9982H         PUBLIC        _Send_Pto_Paralelo
  C:B6F9H         PUBLIC        Trama_Validacion_P_N
  B:0022H.0       PUBLIC        MenSual
  C:8342H         PUBLIC        _Armar_Trama_Pto_Paralelo_Expedidor_Mensual
  C:7665H         PUBLIC        _Horarios
BL51 BANKED LINKER/LOCATER V6.22.2.0                                                  07/26/2021  14:55:02  PAGE 106


  C:96DCH         PUBLIC        _Hora_Maxima
  C:66C2H         PUBLIC        _Responde_ReeLectura_Tarjeta_Sector1_Bloque2
  C:35D4H         PUBLIC        _SecuenciaExpedidorMF
  C:B46BH         PUBLIC        _Pregunta_Lpr
  C:9573H         PUBLIC        _Wait_Placa
  C:AB58H         PUBLIC        Responde_Estado_Sensores_Transporte
  C:9CA5H         PUBLIC        Entrega_Card_Captura
  C:AF93H         PUBLIC        _Respuesta_Segunda_clave
  X:0142H         SYMBOL        Estado
  C:B983H         PUBLIC        _Responde_Write_Tarjeta_Sector1_Bloque0
  C:B94DH         PUBLIC        _Responde_Write_Tarjeta_Sector1_Bloque1
  C:B352H         PUBLIC        _Responde_Write_Tarjeta_Sector2_Bloque0
  C:AD2BH         PUBLIC        _Responde_Write_Tarjeta_Sector1_Bloque2
  C:AC4BH         PUBLIC        _En_Horario
  C:ABD4H         PUBLIC        Responde_Tipo_Tarjeta
  C:BA21H         PUBLIC        _Tarjeta_Rotacion
  -------         PROC          CAPTURA_EXPULSA
  -------         DO            
  D:0007H         SYMBOL        Estado_expedidor
  -------         ENDDO         
  C:BE72H         LINE#         542
  C:BE72H         LINE#         543
  C:BE72H         LINE#         547
  C:BE75H         LINE#         548
  C:BE75H         LINE#         549
  C:BE77H         LINE#         550
  C:BE78H         LINE#         552
  C:BE78H         LINE#         554
  C:BE7AH         LINE#         555
  C:BE7AH         LINE#         558
  C:BE7AH         LINE#         559
  -------         ENDPROC       CAPTURA_EXPULSA
  -------         PROC          TRAMA_VALIDACION_P_N
  -------         DO            
  D:0007H         SYMBOL        Trama_Validacion_P_N
  -------         ENDDO         
  C:B6F9H         LINE#         570
  C:B6F9H         LINE#         571
  C:B6F9H         LINE#         572
  C:B6FBH         LINE#         574
  C:B711H         LINE#         575
  C:B711H         LINE#         576
  C:B714H         LINE#         577
  C:B714H         LINE#         578
  C:B716H         LINE#         581
  C:B71EH         LINE#         582
  C:B71EH         LINE#         584
  C:B720H         LINE#         586
  C:B721H         LINE#         587
  C:B725H         LINE#         588
  C:B725H         LINE#         590
  C:B727H         LINE#         592
  C:B728H         LINE#         594
  C:B728H         LINE#         595
  C:B731H         LINE#         596
  C:B733H         LINE#         598
  C:B733H         LINE#         599
BL51 BANKED LINKER/LOCATER V6.22.2.0                                                  07/26/2021  14:55:02  PAGE 107


  C:B734H         LINE#         601
  C:B734H         LINE#         603
  C:B736H         LINE#         605
  C:B736H         LINE#         607
  C:B736H         LINE#         609
  C:B736H         LINE#         610
  -------         ENDPROC       TRAMA_VALIDACION_P_N
  -------         PROC          ERROR_RX_PTO
  -------         DO            
  X:00B7H         SYMBOL        cnt_espera_ask_on
  X:0007H         SYMBOL        error_rx_pto
  -------         ENDDO         
  C:9111H         LINE#         634
  C:9111H         LINE#         635
  C:9111H         LINE#         638
  C:9117H         LINE#         642
  C:9120H         LINE#         643
  C:9128H         LINE#         644
  C:9131H         LINE#         645
  C:9139H         LINE#         646
  C:9142H         LINE#         647
  C:9145H         LINE#         649
  C:9145H         LINE#         650
  C:914BH         LINE#         651
  C:9155H         LINE#         652
  C:9155H         LINE#         653
  C:915EH         LINE#         654
  C:9160H         LINE#         655
  C:9167H         LINE#         656
  C:916CH         LINE#         657
  C:9172H         LINE#         658
  C:9177H         LINE#         659
  C:9179H         LINE#         660
  C:9180H         LINE#         661
  C:9186H         LINE#         662
  C:9186H         LINE#         664
  C:9186H         LINE#         665
  C:918BH         LINE#         666
  C:918BH         LINE#         667
  C:918BH         LINE#         668
  C:918DH         LINE#         670
  C:918DH         LINE#         671
  C:919BH         LINE#         672
  C:91AEH         LINE#         673
  C:91AEH         LINE#         674
  C:91AFH         LINE#         676
  C:91B5H         LINE#         677
  C:91B9H         LINE#         678
  C:91BBH         LINE#         679
  C:91BBH         LINE#         680
  C:91BDH         LINE#         682
  C:91BDH         LINE#         683
  C:91BEH         LINE#         684
  C:91C3H         LINE#         685
  C:91C9H         LINE#         686
  C:91C9H         LINE#         687
  C:91C9H         LINE#         688
BL51 BANKED LINKER/LOCATER V6.22.2.0                                                  07/26/2021  14:55:02  PAGE 108


  C:91CEH         LINE#         689
  -------         ENDPROC       ERROR_RX_PTO
  -------         PROC          _RTA_CMD_TRANSPORTE
  X:0002H         SYMBOL        secuencia_Expedidor
  -------         DO            
  X:0005H         SYMBOL        temp
  X:0006H         SYMBOL        EstadoComSeqMF
  -------         ENDDO         
  C:85EDH         LINE#         705
  C:85F8H         LINE#         706
  C:85F8H         LINE#         712
  C:8605H         LINE#         713
  C:8605H         LINE#         714
  C:860DH         LINE#         715
  C:860DH         LINE#         716
  C:861BH         LINE#         717
  C:861EH         LINE#         718
  C:8624H         LINE#         719
  C:8624H         LINE#         720
  C:862DH         LINE#         721
  C:8641H         LINE#         722
  C:8649H         LINE#         723
  C:8649H         LINE#         724
  C:8652H         LINE#         725
  C:8652H         LINE#         726
  C:8663H         LINE#         728
  C:8665H         LINE#         730
  C:8665H         LINE#         733
  C:867DH         LINE#         734
  C:867DH         LINE#         735
  C:8688H         LINE#         736
  C:868AH         LINE#         738
  C:868AH         LINE#         739
  C:8698H         LINE#         740
  C:8698H         LINE#         741
  C:8698H         LINE#         742
  C:869AH         LINE#         744
  C:869AH         LINE#         746
  C:86AEH         LINE#         747
  C:86C3H         LINE#         748
  C:86C3H         LINE#         749
  C:86C8H         LINE#         750
  -------         ENDPROC       _RTA_CMD_TRANSPORTE
  -------         PROC          ANALIZA_PRESENCIA_MENSUAL
  -------         DO            
  X:0002H         SYMBOL        Estado_expedidor
  -------         ENDDO         
  C:BB9FH         LINE#         754
  C:BB9FH         LINE#         755
  C:BB9FH         LINE#         759
  C:BBA5H         LINE#         760
  C:BBA5H         LINE#         761
  C:BBA7H         LINE#         762
  C:BBADH         LINE#         763
  C:BBAFH         LINE#         765
  C:BBAFH         LINE#         767
  C:BBB4H         LINE#         768
BL51 BANKED LINKER/LOCATER V6.22.2.0                                                  07/26/2021  14:55:02  PAGE 109


  C:BBB9H         LINE#         769
  C:BBBFH         LINE#         770
  C:BBBFH         LINE#         771
  C:BBC4H         LINE#         772
  -------         ENDPROC       ANALIZA_PRESENCIA_MENSUAL
  -------         PROC          ANALIZA_CARD_MOUNT_RF
  -------         DO            
  X:0002H         SYMBOL        Estado_expedidor
  -------         ENDDO         
  C:B8DBH         LINE#         776
  C:B8DBH         LINE#         777
  C:B8DBH         LINE#         779
  C:B8E1H         LINE#         780
  C:B8E8H         LINE#         781
  C:B8E8H         LINE#         783
  C:B8F1H         LINE#         785
  C:B8F7H         LINE#         786
  C:B8F9H         LINE#         787
  C:B900H         LINE#         789
  C:B900H         LINE#         790
  C:B909H         LINE#         791
  C:B90FH         LINE#         792
  C:B90FH         LINE#         795
  C:B914H         LINE#         796
  -------         ENDPROC       ANALIZA_CARD_MOUNT_RF
  -------         PROC          ANALIZA_PRESENCIA_ROTACION
  -------         DO            
  X:0002H         SYMBOL        Estado_expedidor
  -------         ENDDO         
  C:BBEBH         LINE#         800
  C:BBEBH         LINE#         801
  C:BBEBH         LINE#         803
  C:BBF1H         LINE#         804
  C:BBF1H         LINE#         806
  C:BBF7H         LINE#         807
  C:BBF9H         LINE#         809
  C:BBF9H         LINE#         811
  C:BBFEH         LINE#         812
  C:BC03H         LINE#         813
  C:BC08H         LINE#         815
  C:BC08H         LINE#         816
  C:BC0DH         LINE#         817
  -------         ENDPROC       ANALIZA_PRESENCIA_ROTACION
  -------         PROC          _ANALIZA_UID_CARD
  X:0002H         SYMBOL        Atributos_Expedidor
  -------         DO            
  X:0005H         SYMBOL        Estado_expedidor
  D:0007H         SYMBOL        temp
  X:0006H         SYMBOL        buffer_UID
  -------         ENDDO         
  C:87A4H         LINE#         821
  C:87AFH         LINE#         822
  C:87AFH         LINE#         826
  C:87BFH         LINE#         827
  C:87BFH         LINE#         829
  C:87CBH         LINE#         830
  C:87CBH         LINE#         831
BL51 BANKED LINKER/LOCATER V6.22.2.0                                                  07/26/2021  14:55:02  PAGE 110


  C:87E3H         LINE#         833
  C:87E6H         LINE#         835
  C:87EFH         LINE#         836
  C:8800H         LINE#         839
  C:8809H         LINE#         840
  C:8811H         LINE#         841
  C:8819H         LINE#         842
  C:8821H         LINE#         843
  C:8829H         LINE#         844
  C:8832H         LINE#         846
  C:8849H         LINE#         847
  C:8853H         LINE#         848
  C:885DH         LINE#         849
  C:8867H         LINE#         850
  C:886DH         LINE#         851
  C:886FH         LINE#         853
  C:886FH         LINE#         854
  C:8875H         LINE#         855
  C:8875H         LINE#         856
  C:887AH         LINE#         857
  -------         ENDPROC       _ANALIZA_UID_CARD
  -------         PROC          INGRESO_VEHICULO
  -------         DO            
  D:0007H         SYMBOL        CardAutomatic
  X:00B9H         SYMBOL        pulseboton
  -------         ENDDO         
  C:AD97H         LINE#         861
  C:AD97H         LINE#         862
  C:AD97H         LINE#         867
  C:AD9DH         LINE#         868
  C:AD9DH         LINE#         869
  C:ADA6H         LINE#         871
  C:ADABH         LINE#         872
  C:ADABH         LINE#         873
  C:ADB4H         LINE#         875
  C:ADB4H         LINE#         876
  C:ADB6H         LINE#         878
  C:ADB6H         LINE#         880
  C:ADC3H         LINE#         881
  C:ADC8H         LINE#         882
  C:ADCDH         LINE#         883
  C:ADCFH         LINE#         885
  C:ADCFH         LINE#         886
  C:ADD5H         LINE#         889
  C:ADD5H         LINE#         890
  C:ADD8H         LINE#         891
  C:ADDBH         LINE#         892
  C:ADDBH         LINE#         893
  C:ADDDH         LINE#         894
  C:ADE2H         LINE#         895
  C:ADE8H         LINE#         896
  C:ADEAH         LINE#         898
  C:ADEAH         LINE#         899
  C:ADEFH         LINE#         900
  C:ADF5H         LINE#         901
  C:ADF5H         LINE#         904
  C:ADF5H         LINE#         905
BL51 BANKED LINKER/LOCATER V6.22.2.0                                                  07/26/2021  14:55:02  PAGE 111


  C:ADF7H         LINE#         907
  C:ADF7H         LINE#         909
  C:ADFCH         LINE#         910
  C:ADFCH         LINE#         911
  C:AE01H         LINE#         912
  -------         ENDPROC       INGRESO_VEHICULO
  -------         PROC          RESPONDE_ESTADO_SENSORES_TRANSPORTE
  -------         DO            
  X:0002H         SYMBOL        Estado_expedidor
  -------         ENDDO         
  C:AB58H         LINE#         919
  C:AB58H         LINE#         920
  C:AB58H         LINE#         923
  C:AB61H         LINE#         925
  C:AB69H         LINE#         926
  C:AB69H         LINE#         928
  C:AB74H         LINE#         929
  C:AB74H         LINE#         930
  C:AB78H         LINE#         931
  C:AB78H         LINE#         932
  C:AB81H         LINE#         933
  C:AB86H         LINE#         935
  C:AB86H         LINE#         936
  C:AB88H         LINE#         938
  C:AB88H         LINE#         940
  C:AB90H         LINE#         942
  C:AB90H         LINE#         943
  C:AB92H         LINE#         945
  C:AB92H         LINE#         947
  C:AB9BH         LINE#         949
  C:ABA0H         LINE#         952
  C:ABA0H         LINE#         953
  C:ABA0H         LINE#         954
  C:ABA2H         LINE#         955
  C:ABA9H         LINE#         956
  C:ABA9H         LINE#         958
  C:ABAFH         LINE#         960
  C:ABAFH         LINE#         961
  C:ABB1H         LINE#         962
  C:ABB8H         LINE#         964
  C:ABB8H         LINE#         965
  C:ABC1H         LINE#         966
  C:ABC7H         LINE#         967
  C:ABC9H         LINE#         969
  C:ABC9H         LINE#         970
  C:ABCEH         LINE#         971
  C:ABCEH         LINE#         972
  C:ABD3H         LINE#         973
  -------         ENDPROC       RESPONDE_ESTADO_SENSORES_TRANSPORTE
  -------         PROC          RESPONDE_TIPO_TARJETA
  -------         DO            
  X:0002H         SYMBOL        Estado_expedidor
  -------         ENDDO         
  C:ABD4H         LINE#         989
  C:ABD4H         LINE#         990
  C:ABD4H         LINE#         993
  C:ABDDH         LINE#         995
BL51 BANKED LINKER/LOCATER V6.22.2.0                                                  07/26/2021  14:55:02  PAGE 112


  C:ABE5H         LINE#         996
  C:ABE5H         LINE#         997
  C:ABF0H         LINE#         998
  C:ABF0H         LINE#         999
  C:ABF9H         LINE#         1000
  C:ABFFH         LINE#         1001
  C:ABFFH         LINE#         1002
  C:AC02H         LINE#         1003
  C:AC04H         LINE#         1005
  C:AC04H         LINE#         1006
  C:AC07H         LINE#         1007
  C:AC07H         LINE#         1008
  C:AC09H         LINE#         1010
  C:AC09H         LINE#         1011
  C:AC10H         LINE#         1012
  C:AC10H         LINE#         1014
  C:AC16H         LINE#         1016
  C:AC16H         LINE#         1017
  C:AC16H         LINE#         1019
  C:AC16H         LINE#         1021
  C:AC18H         LINE#         1023
  C:AC18H         LINE#         1024
  C:AC18H         LINE#         1025
  C:AC18H         LINE#         1026
  C:AC18H         LINE#         1027
  C:AC18H         LINE#         1028
  C:AC1AH         LINE#         1030
  C:AC1AH         LINE#         1031
  C:AC21H         LINE#         1032
  C:AC21H         LINE#         1035
  C:AC2AH         LINE#         1037
  C:AC2FH         LINE#         1038
  C:AC34H         LINE#         1040
  C:AC3CH         LINE#         1043
  C:AC3EH         LINE#         1045
  C:AC3EH         LINE#         1046
  C:AC40H         LINE#         1047
  C:AC45H         LINE#         1048
  C:AC45H         LINE#         1049
  C:AC45H         LINE#         1051
  C:AC4AH         LINE#         1052
  -------         ENDPROC       RESPONDE_TIPO_TARJETA
  -------         PROC          _RESPONDE_LECTURA_TARJETA_SECTOR1_BLOQUE1
  X:0002H         SYMBOL        Atributos_Expedidor
  -------         DO            
  D:0007H         SYMBOL        temp
  X:0005H         SYMBOL        Estado_expedidor
  X:0006H         SYMBOL        buffer_S1_B1
  X:0017H         SYMBOL        ID_CLIENTE
  D:0007H         SYMBOL        COD_PARK
  X:00BAH         SYMBOL        falla
  -------         ENDDO         
  C:5B45H         LINE#         1064
  C:5B50H         LINE#         1065
  C:5B50H         LINE#         1072
  C:5B59H         LINE#         1076
  C:5B69H         LINE#         1077
BL51 BANKED LINKER/LOCATER V6.22.2.0                                                  07/26/2021  14:55:02  PAGE 113


  C:5B69H         LINE#         1079
  C:5B75H         LINE#         1080
  C:5B75H         LINE#         1081
  C:5B8DH         LINE#         1083
  C:5B90H         LINE#         1086
  C:5B99H         LINE#         1087
  C:5BAAH         LINE#         1088
  C:5BB7H         LINE#         1089
  C:5BC0H         LINE#         1092
  C:5BDFH         LINE#         1093
  C:5BDFH         LINE#         1095
  C:5BE8H         LINE#         1096
  C:5BF0H         LINE#         1097
  C:5BF9H         LINE#         1099
  C:5C02H         LINE#         1100
  C:5C0AH         LINE#         1101
  C:5C13H         LINE#         1103
  C:5C1CH         LINE#         1104
  C:5C24H         LINE#         1105
  C:5C2DH         LINE#         1107
  C:5C36H         LINE#         1108
  C:5C3EH         LINE#         1109
  C:5C47H         LINE#         1111
  C:5C50H         LINE#         1112
  C:5C58H         LINE#         1113
  C:5C61H         LINE#         1115
  C:5C78H         LINE#         1117
  C:5C82H         LINE#         1118
  C:5C8CH         LINE#         1119
  C:5C96H         LINE#         1121
  C:5C9BH         LINE#         1122
  C:5CAEH         LINE#         1123
  C:5CB3H         LINE#         1124
  C:5CB9H         LINE#         1126
  C:5CBBH         LINE#         1128
  C:5CBBH         LINE#         1129
  C:5CC0H         LINE#         1130
  C:5CC9H         LINE#         1131
  C:5CCEH         LINE#         1132
  C:5CD0H         LINE#         1133
  C:5CD0H         LINE#         1134
  C:5CD0H         LINE#         1135
  C:5CD2H         LINE#         1137
  C:5CD2H         LINE#         1139
  C:5CDAH         LINE#         1140
  C:5CDAH         LINE#         1141
  C:5CE0H         LINE#         1142
  C:5CE0H         LINE#         1143
  C:5CEDH         LINE#         1145
  C:5CEDH         LINE#         1146
  C:5CF6H         LINE#         1147
  C:5CFCH         LINE#         1149
  C:5CFEH         LINE#         1151
  C:5CFEH         LINE#         1152
  C:5D03H         LINE#         1153
  C:5D0CH         LINE#         1154
  C:5D11H         LINE#         1155
BL51 BANKED LINKER/LOCATER V6.22.2.0                                                  07/26/2021  14:55:02  PAGE 114


  C:5D16H         LINE#         1156
  C:5D1EH         LINE#         1157
  C:5D1EH         LINE#         1158
  C:5D1EH         LINE#         1160
  C:5D23H         LINE#         1161
  -------         ENDPROC       _RESPONDE_LECTURA_TARJETA_SECTOR1_BLOQUE1
  -------         PROC          _RESPONDE_LECTURA_TARJETA_SECTOR1_BLOQUE2
  X:0002H         SYMBOL        Atributos_Expedidor
  -------         DO            
  D:0007H         SYMBOL        temp
  X:0005H         SYMBOL        Estado_expedidor
  X:0006H         SYMBOL        buffer_S1_B2
  -------         ENDDO         
  C:6FA1H         LINE#         1166
  C:6FACH         LINE#         1167
  C:6FACH         LINE#         1173
  C:6FB5H         LINE#         1177
  C:6FC5H         LINE#         1178
  C:6FC5H         LINE#         1180
  C:6FD1H         LINE#         1181
  C:6FD1H         LINE#         1182
  C:6FE9H         LINE#         1183
  C:6FECH         LINE#         1184
  C:6FF5H         LINE#         1185
  C:7006H         LINE#         1189
  C:700FH         LINE#         1190
  C:701CH         LINE#         1191
  C:7038H         LINE#         1192
  C:7041H         LINE#         1194
  C:704AH         LINE#         1196
  C:7066H         LINE#         1197
  C:7070H         LINE#         1198
  C:7079H         LINE#         1201
  C:7082H         LINE#         1202
  C:708AH         LINE#         1203
  C:7093H         LINE#         1207
  C:70AAH         LINE#         1210
  C:70B6H         LINE#         1211
  C:70BCH         LINE#         1214
  C:70BEH         LINE#         1216
  C:70BEH         LINE#         1217
  C:70C6H         LINE#         1218
  C:70C6H         LINE#         1219
  C:70CBH         LINE#         1220
  -------         ENDPROC       _RESPONDE_LECTURA_TARJETA_SECTOR1_BLOQUE2
  -------         PROC          _RESPONDE_LECTURA_TARJETA_SECTOR1_BLOQUE0
  X:0002H         SYMBOL        Nombre_Mensual
  -------         DO            
  D:0007H         SYMBOL        temp
  X:0005H         SYMBOL        Estado_expedidor
  -------         ENDDO         
  C:9D40H         LINE#         1222
  C:9D4BH         LINE#         1223
  C:9D4BH         LINE#         1229
  C:9D54H         LINE#         1233
  C:9D61H         LINE#         1234
  C:9D61H         LINE#         1236
BL51 BANKED LINKER/LOCATER V6.22.2.0                                                  07/26/2021  14:55:02  PAGE 115


  C:9D6DH         LINE#         1237
  C:9D6DH         LINE#         1238
  C:9D8DH         LINE#         1239
  C:9D90H         LINE#         1240
  C:9DA4H         LINE#         1241
  C:9DADH         LINE#         1242
  C:9DBBH         LINE#         1243
  C:9DC4H         LINE#         1244
  C:9DCAH         LINE#         1247
  C:9DCCH         LINE#         1249
  C:9DCCH         LINE#         1250
  C:9DD4H         LINE#         1251
  C:9DD4H         LINE#         1252
  C:9DD9H         LINE#         1253
  -------         ENDPROC       _RESPONDE_LECTURA_TARJETA_SECTOR1_BLOQUE0
  -------         PROC          _RESPONDE_REELECTURA_TARJETA_SECTOR1_BLOQUE2
  X:0002H         SYMBOL        lectura_anterior
  X:0005H         SYMBOL        Atributos_Expedidor
  -------         DO            
  D:0007H         SYMBOL        temp
  X:0008H         SYMBOL        Estado_expedidor
  X:0009H         SYMBOL        reelectura
  X:00BBH         SYMBOL        error_lectura
  -------         ENDDO         
  C:66C2H         LINE#         1254
  C:66CDH         LINE#         1255
  C:66CDH         LINE#         1261
  C:66D6H         LINE#         1264
  C:66E6H         LINE#         1265
  C:66E6H         LINE#         1267
  C:66F2H         LINE#         1268
  C:66F2H         LINE#         1269
  C:6712H         LINE#         1270
  C:6715H         LINE#         1271
  C:6729H         LINE#         1272
  C:6732H         LINE#         1273
  C:6748H         LINE#         1274
  C:6751H         LINE#         1276
  C:6775H         LINE#         1277
  C:6775H         LINE#         1278
  C:6779H         LINE#         1279
  C:6782H         LINE#         1280
  C:678BH         LINE#         1281
  C:679BH         LINE#         1282
  C:67ADH         LINE#         1283
  C:67BBH         LINE#         1284
  C:67BBH         LINE#         1285
  C:67BDH         LINE#         1287
  C:67BDH         LINE#         1288
  C:67C3H         LINE#         1289
  C:67D3H         LINE#         1290
  C:67D3H         LINE#         1291
  C:67D6H         LINE#         1292
  C:67DCH         LINE#         1294
  C:67DEH         LINE#         1296
  C:67DEH         LINE#         1297
  C:67E1H         LINE#         1298
BL51 BANKED LINKER/LOCATER V6.22.2.0                                                  07/26/2021  14:55:02  PAGE 116


  C:67EAH         LINE#         1299
  C:67FAH         LINE#         1300
  C:680DH         LINE#         1301
  C:6813H         LINE#         1303
  C:6813H         LINE#         1304
  C:6813H         LINE#         1306
  C:6813H         LINE#         1307
  C:6818H         LINE#         1308
  -------         ENDPROC       _RESPONDE_REELECTURA_TARJETA_SECTOR1_BLOQUE2
  -------         PROC          _RESPONDE_WRITE_TARJETA_SECTOR1_BLOQUE1
  X:0002H         SYMBOL        Buffer_Write_MF
  -------         DO            
  D:0007H         SYMBOL        Estado_expedidor
  -------         ENDDO         
  C:B94DH         LINE#         1309
  C:B958H         LINE#         1310
  C:B958H         LINE#         1312
  C:B961H         LINE#         1313
  C:B96AH         LINE#         1314
  C:B980H         LINE#         1315
  C:B982H         LINE#         1316
  C:B982H         LINE#         1317
  -------         ENDPROC       _RESPONDE_WRITE_TARJETA_SECTOR1_BLOQUE1
  -------         PROC          _RESPONDE_WRITE_TARJETA_SECTOR1_BLOQUE2
  X:0002H         SYMBOL        Atributos_Expedidor
  X:0005H         SYMBOL        Buffer_Write_MF
  -------         DO            
  X:0008H         SYMBOL        Estado_expedidor
  -------         ENDDO         
  C:AD2BH         LINE#         1318
  C:AD36H         LINE#         1319
  C:AD36H         LINE#         1321
  C:AD3FH         LINE#         1322
  C:AD48H         LINE#         1323
  C:AD5EH         LINE#         1324
  C:AD61H         LINE#         1325
  C:AD61H         LINE#         1326
  C:AD67H         LINE#         1332
  C:AD69H         LINE#         1334
  C:AD69H         LINE#         1335
  C:AD79H         LINE#         1336
  C:AD8BH         LINE#         1337
  C:AD91H         LINE#         1339
  C:AD91H         LINE#         1340
  C:AD96H         LINE#         1341
  -------         ENDPROC       _RESPONDE_WRITE_TARJETA_SECTOR1_BLOQUE2
  -------         PROC          _RESPONDE_WRITE_TARJETA_SECTOR1_BLOQUE0
  X:0002H         SYMBOL        Buffer_Write_MF
  C:B983H         LINE#         1344
  C:B98EH         LINE#         1345
  C:B98EH         LINE#         1347
  C:B997H         LINE#         1348
  C:B9A0H         LINE#         1349
  C:B9B6H         LINE#         1351
  C:B9B8H         LINE#         1352
  -------         ENDPROC       _RESPONDE_WRITE_TARJETA_SECTOR1_BLOQUE0
  -------         PROC          _RESPONDE_WRITE_TARJETA_SECTOR2_BLOQUE0
BL51 BANKED LINKER/LOCATER V6.22.2.0                                                  07/26/2021  14:55:02  PAGE 117


  X:0002H         SYMBOL        Buffer_Write_MF
  C:B352H         LINE#         1355
  C:B35DH         LINE#         1356
  C:B35DH         LINE#         1358
  C:B366H         LINE#         1359
  C:B36FH         LINE#         1360
  C:B378H         LINE#         1361
  C:B381H         LINE#         1362
  C:B396H         LINE#         1363
  C:B398H         LINE#         1364
  -------         ENDPROC       _RESPONDE_WRITE_TARJETA_SECTOR2_BLOQUE0
  -------         PROC          _PREGUNTA_LPR
  X:0002H         SYMBOL        Atributos_Expedidor
  -------         DO            
  D:0007H         SYMBOL        Estado_expedidor
  -------         ENDDO         
  C:B46BH         LINE#         1368
  C:B476H         LINE#         1369
  C:B476H         LINE#         1371
  C:B47FH         LINE#         1372
  C:B48DH         LINE#         1373
  C:B48DH         LINE#         1375
  C:B49EH         LINE#         1376
  C:B4AAH         LINE#         1377
  C:B4AAH         LINE#         1378
  C:B4AEH         LINE#         1379
  C:B4AEH         LINE#         1380
  C:B4AEH         LINE#         1383
  C:B4B0H         LINE#         1385
  C:B4B0H         LINE#         1386
  -------         ENDPROC       _PREGUNTA_LPR
  -------         PROC          PREGUNTA_PLACA
  -------         DO            
  X:0002H         SYMBOL        Estado_expedidor
  -------         ENDDO         
  C:BA52H         LINE#         1387
  C:BA52H         LINE#         1388
  C:BA52H         LINE#         1390
  C:BA5BH         LINE#         1391
  C:BA6AH         LINE#         1392
  C:BA6AH         LINE#         1394
  C:BA6DH         LINE#         1395
  C:BA72H         LINE#         1396
  C:BA77H         LINE#         1397
  C:BA79H         LINE#         1399
  C:BA79H         LINE#         1400
  C:BA7CH         LINE#         1401
  C:BA7CH         LINE#         1402
  C:BA81H         LINE#         1403
  -------         ENDPROC       PREGUNTA_PLACA
  -------         PROC          _RESPUESTA_SEGUNDA_CLAVE
  X:0002H         SYMBOL        Atributos_Expedidor
  X:0005H         SYMBOL        Buffer_Write_MF
  C:AF93H         LINE#         1404
  C:AF9EH         LINE#         1405
  C:AF9EH         LINE#         1407
  C:AFA7H         LINE#         1408
BL51 BANKED LINKER/LOCATER V6.22.2.0                                                  07/26/2021  14:55:02  PAGE 118


  C:AFBDH         LINE#         1411
  C:AFCDH         LINE#         1412
  C:AFDFH         LINE#         1413
  C:AFEDH         LINE#         1415
  C:AFEFH         LINE#         1416
  -------         ENDPROC       _RESPUESTA_SEGUNDA_CLAVE
  -------         PROC          _RESPUESTA_PLACA_CANCEL
  X:0009H         SYMBOL        Atributos_Expedidor
  X:000CH         SYMBOL        Buffer_Write_MF
  -------         DO            
  X:000FH         SYMBOL        Estado_expedidor
  X:0010H         SYMBOL        Cancel
  -------         ENDDO         
  C:9C09H         LINE#         1417
  C:9C14H         LINE#         1418
  C:9C14H         LINE#         1420
  C:9C22H         LINE#         1421
  C:9C2BH         LINE#         1422
  C:9C34H         LINE#         1423
  C:9C3DH         LINE#         1425
  C:9C58H         LINE#         1426
  C:9C58H         LINE#         1427
  C:9C68H         LINE#         1428
  C:9C7BH         LINE#         1429
  C:9C89H         LINE#         1430
  C:9C8FH         LINE#         1431
  C:9C91H         LINE#         1433
  C:9C91H         LINE#         1434
  C:9C97H         LINE#         1435
  C:9C97H         LINE#         1436
  C:9C9AH         LINE#         1437
  C:9C9CH         LINE#         1439
  C:9C9CH         LINE#         1441
  C:9C9FH         LINE#         1442
  C:9C9FH         LINE#         1443
  C:9C9FH         LINE#         1444
  C:9CA4H         LINE#         1445
  -------         ENDPROC       _RESPUESTA_PLACA_CANCEL
  -------         PROC          _ARMAR_TRAMA_TARJETA_SECTOR1_BLOQUE1_CAMCEL
  X:0013H         SYMBOL        Buffer_Write_MF
  -------         DO            
  X:0016H         SYMBOL        ID_CLIENTE
  D:0007H         SYMBOL        COD_PARK
  -------         ENDDO         
  C:9A27H         LINE#         1448
  C:9A32H         LINE#         1449
  C:9A32H         LINE#         1453
  C:9A35H         LINE#         1454
  C:9A42H         LINE#         1455
  C:9A4BH         LINE#         1457
  C:9A5BH         LINE#         1458
  C:9A6DH         LINE#         1459
  C:9A74H         LINE#         1460
  C:9A7EH         LINE#         1461
  C:9A85H         LINE#         1462
  C:9A8CH         LINE#         1463
  C:9A93H         LINE#         1464
BL51 BANKED LINKER/LOCATER V6.22.2.0                                                  07/26/2021  14:55:02  PAGE 119


  C:9A9AH         LINE#         1465
  C:9AA1H         LINE#         1466
  C:9AA8H         LINE#         1467
  C:9AAFH         LINE#         1468
  C:9AB6H         LINE#         1469
  C:9ABDH         LINE#         1470
  C:9AC4H         LINE#         1471
  -------         ENDPROC       _ARMAR_TRAMA_TARJETA_SECTOR1_BLOQUE1_CAMCEL
  -------         PROC          _ARMAR_TRAMA_TARJETA_SECTOR1_BLOQUE2
  X:0010H         SYMBOL        Atributos_Expedidor
  X:0013H         SYMBOL        Buffer_Write_MF
  C:5952H         LINE#         1477
  C:595DH         LINE#         1478
  C:595DH         LINE#         1482
  C:5969H         LINE#         1483
  C:598AH         LINE#         1484
  C:59AEH         LINE#         1485
  C:59D2H         LINE#         1486
  C:59F6H         LINE#         1487
  C:5A1AH         LINE#         1491
  C:5A2CH         LINE#         1492
  C:5A33H         LINE#         1493
  C:5A3AH         LINE#         1495
  C:5A4FH         LINE#         1496
  C:5A4FH         LINE#         1497
  C:5A66H         LINE#         1498
  C:5A7FH         LINE#         1499
  C:5A7FH         LINE#         1500
  C:5A82H         LINE#         1504
  C:5A82H         LINE#         1506
  C:5AB1H         LINE#         1507
  C:5AE0H         LINE#         1509
  C:5AF8H         LINE#         1510
  C:5AF8H         LINE#         1511
  C:5B05H         LINE#         1512
  C:5B07H         LINE#         1514
  C:5B07H         LINE#         1515
  C:5B17H         LINE#         1516
  C:5B17H         LINE#         1517
  C:5B17H         LINE#         1519
  C:5B29H         LINE#         1520
  C:5B30H         LINE#         1521
  C:5B37H         LINE#         1522
  C:5B3EH         LINE#         1523
  -------         ENDPROC       _ARMAR_TRAMA_TARJETA_SECTOR1_BLOQUE2
  -------         PROC          _ARMAR_TRAMA_TARJETA_SECTOR1_BLOQUE0
  X:000CH         SYMBOL        Buffer_Write_MF
  C:BB2AH         LINE#         1525
  C:BB35H         LINE#         1526
  C:BB35H         LINE#         1528
  -------         ENDPROC       _ARMAR_TRAMA_TARJETA_SECTOR1_BLOQUE0
  -------         PROC          _ARMAR_TRAMA_PTO_PARALELO_EXPEDIDOR
  X:0009H         SYMBOL        Atributos_Expedidor
  X:000CH         SYMBOL        h
  -------         DO            
  X:00BCH         SYMBOL        buffer
  X:000FH         SYMBOL        ticket
BL51 BANKED LINKER/LOCATER V6.22.2.0                                                  07/26/2021  14:55:02  PAGE 120


  X:001AH         SYMBOL        j
  -------         ENDDO         
  C:4EF0H         LINE#         1530
  C:4EFBH         LINE#         1531
  C:4EFBH         LINE#         1538
  C:4F01H         LINE#         1539
  C:4F05H         LINE#         1540
  C:4F08H         LINE#         1541
  C:4F14H         LINE#         1542
  C:4F2BH         LINE#         1543
  C:4F39H         LINE#         1545
  C:4F4AH         LINE#         1546
  C:4F5DH         LINE#         1547
  C:4F6BH         LINE#         1550
  C:4F8DH         LINE#         1551
  C:4FA0H         LINE#         1552
  C:4FB3H         LINE#         1553
  C:4FC6H         LINE#         1554
  C:4FD9H         LINE#         1555
  C:4FE5H         LINE#         1556
  C:4FF3H         LINE#         1559
  C:5002H         LINE#         1560
  C:5010H         LINE#         1561
  C:501EH         LINE#         1562
  C:502CH         LINE#         1563
  C:503AH         LINE#         1564
  C:5047H         LINE#         1566
  C:5056H         LINE#         1567
  C:5056H         LINE#         1568
  C:5059H         LINE#         1569
  C:5059H         LINE#         1570
  C:506DH         LINE#         1571
  C:507CH         LINE#         1572
  C:508BH         LINE#         1573
  C:509AH         LINE#         1574
  C:50A9H         LINE#         1575
  C:50B8H         LINE#         1576
  C:50C0H         LINE#         1577
  C:50C2H         LINE#         1579
  C:50C2H         LINE#         1580
  C:50D3H         LINE#         1581
  C:50DBH         LINE#         1582
  C:50DBH         LINE#         1583
  C:50DDH         LINE#         1585
  C:50DDH         LINE#         1586
  C:50EEH         LINE#         1587
  C:50FAH         LINE#         1588
  C:50FAH         LINE#         1589
  C:5108H         LINE#         1590
  C:5116H         LINE#         1591
  C:5128H         LINE#         1593
  C:512EH         LINE#         1594
  -------         ENDPROC       _ARMAR_TRAMA_PTO_PARALELO_EXPEDIDOR
  -------         PROC          _ARMAR_TRAMA_PTO_PARALELO_EXPEDIDOR_MENSUAL
  X:0009H         SYMBOL        Atributos_Expedidor
  X:000CH         SYMBOL        j
  -------         DO            
BL51 BANKED LINKER/LOCATER V6.22.2.0                                                  07/26/2021  14:55:02  PAGE 121


  X:00D8H         SYMBOL        buffer
  -------         ENDDO         
  C:8342H         LINE#         1595
  C:834DH         LINE#         1596
  C:834DH         LINE#         1602
  C:8353H         LINE#         1603
  C:8357H         LINE#         1604
  C:836CH         LINE#         1605
  C:8376H         LINE#         1606
  C:8380H         LINE#         1607
  C:838AH         LINE#         1611
  C:8396H         LINE#         1612
  C:83A2H         LINE#         1613
  C:83AEH         LINE#         1614
  C:83BAH         LINE#         1615
  C:83C6H         LINE#         1626
  C:83D2H         LINE#         1627
  C:83D2H         LINE#         1629
  C:83D9H         LINE#         1630
  C:83DDH         LINE#         1631
  C:83E1H         LINE#         1632
  C:83E5H         LINE#         1633
  C:83E9H         LINE#         1634
  C:83EDH         LINE#         1636
  C:83EDH         LINE#         1638
  C:8403H         LINE#         1639
  C:8403H         LINE#         1640
  C:8406H         LINE#         1641
  C:8408H         LINE#         1643
  C:8408H         LINE#         1644
  C:840BH         LINE#         1645
  C:840BH         LINE#         1647
  C:8411H         LINE#         1648
  C:8414H         LINE#         1649
  C:8424H         LINE#         1650
  C:842AH         LINE#         1651
  -------         ENDPROC       _ARMAR_TRAMA_PTO_PARALELO_EXPEDIDOR_MENSUAL
  -------         PROC          _ARMAR_TRAMA_MONITOR
  X:0005H         SYMBOL        Atributos_Expedidor
  -------         DO            
  X:00F4H         SYMBOL        buffer
  X:0008H         SYMBOL        ticket
  X:0013H         SYMBOL        j
  -------         ENDDO         
  C:6819H         LINE#         1652
  C:6824H         LINE#         1653
  C:6824H         LINE#         1659
  C:6829H         LINE#         1660
  C:682FH         LINE#         1661
  C:6837H         LINE#         1662
  C:683BH         LINE#         1663
  C:6844H         LINE#         1664
  C:6844H         LINE#         1665
  C:6847H         LINE#         1666
  C:6849H         LINE#         1668
  C:6849H         LINE#         1669
  C:684CH         LINE#         1670
BL51 BANKED LINKER/LOCATER V6.22.2.0                                                  07/26/2021  14:55:02  PAGE 122


  C:684CH         LINE#         1673
  C:684FH         LINE#         1674
  C:684FH         LINE#         1675
  C:6854H         LINE#         1676
  C:6860H         LINE#         1677
  C:6877H         LINE#         1678
  C:687AH         LINE#         1680
  C:687AH         LINE#         1681
  C:6895H         LINE#         1682
  C:68A3H         LINE#         1683
  C:68B1H         LINE#         1684
  C:68BDH         LINE#         1685
  C:68CBH         LINE#         1686
  C:6904H         LINE#         1688
  C:6904H         LINE#         1689
  C:6912H         LINE#         1690
  C:6920H         LINE#         1693
  C:692DH         LINE#         1694
  C:693BH         LINE#         1696
  C:6949H         LINE#         1697
  C:6956H         LINE#         1698
  C:6962H         LINE#         1699
  C:6967H         LINE#         1700
  C:696CH         LINE#         1701
  -------         ENDPROC       _ARMAR_TRAMA_MONITOR
  -------         PROC          _ARMAR_TRAMA_PLACA
  X:0008H         SYMBOL        Buffer_Write_MF
  -------         DO            
  D:0006H         SYMBOL        j
  D:0007H         SYMBOL        len_placa
  -------         ENDDO         
  C:AFF0H         LINE#         1702
  C:AFFBH         LINE#         1703
  C:AFFBH         LINE#         1706
  C:B004H         LINE#         1707
  C:B00BH         LINE#         1708
  C:B00BH         LINE#         1709
  C:B025H         LINE#         1710
  C:B028H         LINE#         1711
  C:B034H         LINE#         1712
  C:B034H         LINE#         1713
  C:B048H         LINE#         1714
  C:B04BH         LINE#         1715
  -------         ENDPROC       _ARMAR_TRAMA_PLACA
  C:B7EEH         SYMBOL        L?0402
  -------         PROC          L?0401
  -------         ENDPROC       L?0401
  C:B7EEH         SYMBOL        L?0402
  -------         PROC          _LOAD_SECUENCIA_EXPEDIDOR
  D:0001H         SYMBOL        Secuencia_Expedidor
  D:0004H         SYMBOL        estadoactivo
  X:0007H         SYMBOL        estadoactual
  X:0009H         SYMBOL        estadofuturo
  C:B80AH         LINE#         1716
  C:B80AH         LINE#         1717
  C:B80AH         LINE#         1718
  C:B811H         LINE#         1719
BL51 BANKED LINKER/LOCATER V6.22.2.0                                                  07/26/2021  14:55:02  PAGE 123


  C:B819H         LINE#         1720
  C:B824H         LINE#         1721
  C:B82AH         LINE#         1722
  -------         ENDPROC       _LOAD_SECUENCIA_EXPEDIDOR
  -------         PROC          _DISPARO_LOCK_ENTRADA_VEHICULO
  X:0002H         SYMBOL        Nombre_Mensual
  -------         DO            
  X:0005H         SYMBOL        Estado_expedidor
  X:010CH         SYMBOL        take_card
  -------         ENDDO         
  C:A03EH         LINE#         1723
  C:A049H         LINE#         1724
  C:A049H         LINE#         1729
  C:A052H         LINE#         1733
  C:A059H         LINE#         1734
  C:A059H         LINE#         1736
  C:A062H         LINE#         1738
  C:A068H         LINE#         1739
  C:A06AH         LINE#         1740
  C:A06FH         LINE#         1741
  C:A07FH         LINE#         1742
  C:A085H         LINE#         1745
  C:A087H         LINE#         1746
  C:A08FH         LINE#         1747
  C:A08FH         LINE#         1748
  C:A095H         LINE#         1749
  C:A095H         LINE#         1750
  C:A0A2H         LINE#         1751
  C:A0A7H         LINE#         1752
  C:A0ACH         LINE#         1753
  C:A0AEH         LINE#         1755
  C:A0AEH         LINE#         1756
  C:A0B4H         LINE#         1758
  C:A0B4H         LINE#         1760
  C:A0BAH         LINE#         1761
  C:A0C0H         LINE#         1763
  C:A0C2H         LINE#         1765
  C:A0C2H         LINE#         1766
  C:A0C8H         LINE#         1767
  C:A0CEH         LINE#         1768
  C:A0CEH         LINE#         1770
  C:A0CEH         LINE#         1775
  C:A0D3H         LINE#         1776
  -------         ENDPROC       _DISPARO_LOCK_ENTRADA_VEHICULO
  -------         PROC          _SEND_PTO_PARALELO
  X:0002H         SYMBOL        Atributos_Expedidor
  -------         DO            
  X:0005H         SYMBOL        Trama_Expedidor
  X:0008H         SYMBOL        leng_trama_pto
  -------         ENDDO         
  C:9982H         LINE#         1777
  C:998DH         LINE#         1778
  C:998DH         LINE#         1781
  C:9990H         LINE#         1782
  C:9990H         LINE#         1783
  C:99B7H         LINE#         1784
  C:99B9H         LINE#         1786
BL51 BANKED LINKER/LOCATER V6.22.2.0                                                  07/26/2021  14:55:02  PAGE 124


  C:99B9H         LINE#         1787
  C:99E0H         LINE#         1788
  C:99E3H         LINE#         1789
  C:99E3H         LINE#         1791
  C:99F4H         LINE#         1792
  C:99FDH         LINE#         1793
  C:9A14H         LINE#         1797
  C:9A17H         LINE#         1798
  C:9A1DH         LINE#         1799
  C:9A22H         LINE#         1800
  C:9A24H         LINE#         1801
  C:9A26H         LINE#         1802
  -------         ENDPROC       _SEND_PTO_PARALELO
  -------         PROC          ENTREGA_CARD_CAPTURA
  -------         DO            
  X:0002H         SYMBOL        Estado_expedidor
  -------         ENDDO         
  C:9CA5H         LINE#         1806
  C:9CA5H         LINE#         1807
  C:9CA5H         LINE#         1811
  C:9CAEH         LINE#         1812
  C:9CB1H         LINE#         1813
  C:9CB4H         LINE#         1814
  C:9CB4H         LINE#         1815
  C:9CBEH         LINE#         1816
  C:9CBEH         LINE#         1817
  C:9CC0H         LINE#         1818
  C:9CC2H         LINE#         1819
  C:9CCBH         LINE#         1820
  C:9CCBH         LINE#         1821
  C:9CCBH         LINE#         1823
  C:9CCDH         LINE#         1825
  C:9CCDH         LINE#         1826
  C:9CD3H         LINE#         1827
  C:9CD3H         LINE#         1829
  C:9CD9H         LINE#         1831
  C:9CECH         LINE#         1832
  C:9CECH         LINE#         1833
  C:9CF9H         LINE#         1834
  C:9CF9H         LINE#         1835
  C:9CFBH         LINE#         1836
  C:9D04H         LINE#         1838
  C:9D06H         LINE#         1839
  C:9D0BH         LINE#         1840
  C:9D11H         LINE#         1841
  C:9D13H         LINE#         1842
  C:9D20H         LINE#         1843
  C:9D20H         LINE#         1844
  C:9D26H         LINE#         1845
  C:9D26H         LINE#         1846
  C:9D26H         LINE#         1848
  C:9D28H         LINE#         1850
  C:9D28H         LINE#         1851
  C:9D2AH         LINE#         1852
  C:9D33H         LINE#         1853
  C:9D35H         LINE#         1854
  C:9D3AH         LINE#         1855
BL51 BANKED LINKER/LOCATER V6.22.2.0                                                  07/26/2021  14:55:02  PAGE 125


  C:9D3AH         LINE#         1856
  C:9D3AH         LINE#         1858
  C:9D3FH         LINE#         1859
  -------         ENDPROC       ENTREGA_CARD_CAPTURA
  -------         PROC          _WAIT_PLACA
  X:0002H         SYMBOL        Atributos_Expedidor
  X:0005H         SYMBOL        Buffer_Write_MF
  -------         DO            
  X:0008H         SYMBOL        Estado_expedidor
  -------         ENDDO         
  C:9573H         LINE#         1860
  C:957EH         LINE#         1861
  C:957EH         LINE#         1864
  C:9587H         LINE#         1866
  C:959DH         LINE#         1867
  C:959DH         LINE#         1868
  C:95A0H         LINE#         1869
  C:95A0H         LINE#         1871
  C:95A3H         LINE#         1872
  C:95A3H         LINE#         1873
  C:95A5H         LINE#         1875
  C:95A8H         LINE#         1876
  C:95A8H         LINE#         1877
  C:95D0H         LINE#         1878
  C:95D2H         LINE#         1881
  C:95D2H         LINE#         1882
  C:95D8H         LINE#         1883
  C:95EBH         LINE#         1884
  C:95EBH         LINE#         1885
  C:95F8H         LINE#         1886
  C:95F8H         LINE#         1887
  C:9607H         LINE#         1888
  C:960DH         LINE#         1889
  C:960FH         LINE#         1890
  C:961CH         LINE#         1891
  C:961CH         LINE#         1892
  C:9622H         LINE#         1893
  C:9622H         LINE#         1894
  C:9622H         LINE#         1895
  C:9622H         LINE#         1896
  C:9627H         LINE#         1897
  -------         ENDPROC       _WAIT_PLACA
  -------         PROC          _VALIDA_VEHICULO_CARD_MENSUAL
  X:0010H         SYMBOL        Atributos_Expedidor
  -------         DO            
  X:0013H         SYMBOL        Estado_expedidor
  -------         ENDDO         
  C:9FA6H         LINE#         1898
  C:9FB1H         LINE#         1899
  C:9FB1H         LINE#         1902
  C:9FBAH         LINE#         1903
  C:9FCFH         LINE#         1904
  C:9FCFH         LINE#         1905
  C:9FD3H         LINE#         1906
  C:9FD5H         LINE#         1908
  C:9FD5H         LINE#         1909
  C:9FDCH         LINE#         1910
BL51 BANKED LINKER/LOCATER V6.22.2.0                                                  07/26/2021  14:55:02  PAGE 126


  C:9FDCH         LINE#         1912
  C:9FE5H         LINE#         1913
  C:9FF3H         LINE#         1914
  C:9FF3H         LINE#         1915
  C:A00CH         LINE#         1916
  C:A00CH         LINE#         1917
  C:A012H         LINE#         1918
  C:A012H         LINE#         1919
  C:A014H         LINE#         1922
  C:A014H         LINE#         1923
  C:A019H         LINE#         1924
  C:A022H         LINE#         1925
  C:A027H         LINE#         1926
  C:A027H         LINE#         1927
  C:A029H         LINE#         1929
  C:A029H         LINE#         1930
  C:A032H         LINE#         1931
  C:A038H         LINE#         1932
  C:A038H         LINE#         1933
  C:A03DH         LINE#         1934
  -------         ENDPROC       _VALIDA_VEHICULO_CARD_MENSUAL
  -------         PROC          _TARJETA_MENSUAL
  X:0009H         SYMBOL        Atributos_Expedidor
  X:000CH         SYMBOL        Buffer_Write_MF
  -------         DO            
  X:000FH         SYMBOL        Estado_expedidor
  -------         ENDDO         
  C:8D48H         LINE#         1935
  C:8D53H         LINE#         1936
  C:8D53H         LINE#         1941
  C:8D5EH         LINE#         1942
  C:8D5EH         LINE#         1943
  C:8D7CH         LINE#         1944
  C:8D7CH         LINE#         1946
  C:8D8DH         LINE#         1947
  C:8D8DH         LINE#         1948
  C:8D95H         LINE#         1949
  C:8D97H         LINE#         1951
  C:8D97H         LINE#         1952
  C:8DA0H         LINE#         1953
  C:8DB0H         LINE#         1954
  C:8DC3H         LINE#         1955
  C:8DE3H         LINE#         1956
  C:8DE9H         LINE#         1957
  C:8DE9H         LINE#         1958
  C:8DEBH         LINE#         1960
  C:8DEBH         LINE#         1961
  C:8DF0H         LINE#         1963
  C:8DF5H         LINE#         1964
  C:8DFEH         LINE#         1965
  C:8DFEH         LINE#         1966
  C:8DFEH         LINE#         1967
  C:8E00H         LINE#         1969
  C:8E00H         LINE#         1971
  C:8E06H         LINE#         1972
  C:8E06H         LINE#         1973
  C:8E0BH         LINE#         1974
BL51 BANKED LINKER/LOCATER V6.22.2.0                                                  07/26/2021  14:55:02  PAGE 127


  -------         ENDPROC       _TARJETA_MENSUAL
  -------         PROC          _TARJETA_ROTACION
  D:0001H         SYMBOL        Atributos_Expedidor
  X:000CH         SYMBOL        Buffer_Write_MF
  C:BA21H         LINE#         1975
  C:BA21H         LINE#         1976
  C:BA21H         LINE#         1977
  C:BA26H         LINE#         1978
  C:BA2FH         LINE#         1979
  C:BA4FH         LINE#         1980
  C:BA51H         LINE#         1983
  -------         ENDPROC       _TARJETA_ROTACION
  -------         PROC          _VALIDA_TIPO_TARJETA
  X:0002H         SYMBOL        Atributos_Expedidor
  X:0005H         SYMBOL        Buffer_Write_MF
  -------         DO            
  X:0008H         SYMBOL        Estado_expedidor
  -------         ENDDO         
  C:60A6H         LINE#         1984
  C:60B1H         LINE#         1985
  C:60B1H         LINE#         1987
  C:60BEH         LINE#         1988
  C:60BEH         LINE#         1989
  C:60C7H         LINE#         1990
  C:60CDH         LINE#         1991
  C:60CDH         LINE#         1995
  C:60DBH         LINE#         1996
  C:60DBH         LINE#         1999
  C:60F8H         LINE#         2000
  C:60F8H         LINE#         2001
  C:6115H         LINE#         2003
  C:6117H         LINE#         2005
  C:6117H         LINE#         2006
  C:6120H         LINE#         2007
  C:6122H         LINE#         2008
  C:6122H         LINE#         2009
  C:6122H         LINE#         2010
  C:6125H         LINE#         2013
  C:6125H         LINE#         2014
  C:612EH         LINE#         2016
  C:6151H         LINE#         2017
  C:6151H         LINE#         2018
  C:6154H         LINE#         2020
  C:6154H         LINE#         2021
  C:6159H         LINE#         2022
  C:615EH         LINE#         2023
  C:6161H         LINE#         2024
  C:6161H         LINE#         2025
  C:6164H         LINE#         2026
  C:617CH         LINE#         2027
  C:617CH         LINE#         2029
  C:6185H         LINE#         2030
  C:618BH         LINE#         2031
  C:618BH         LINE#         2032
  C:6197H         LINE#         2033
  C:6197H         LINE#         2034
  C:61B4H         LINE#         2036
BL51 BANKED LINKER/LOCATER V6.22.2.0                                                  07/26/2021  14:55:02  PAGE 128


  C:61B4H         LINE#         2037
  C:61D4H         LINE#         2038
  C:61D6H         LINE#         2040
  C:61D6H         LINE#         2041
  C:61DFH         LINE#         2042
  C:61E4H         LINE#         2043
  C:61E9H         LINE#         2044
  C:61ECH         LINE#         2045
  C:61ECH         LINE#         2046
  C:61EEH         LINE#         2048
  C:61EEH         LINE#         2049
  C:61F7H         LINE#         2050
  C:621AH         LINE#         2051
  C:621AH         LINE#         2052
  C:621CH         LINE#         2054
  C:621CH         LINE#         2056
  C:6221H         LINE#         2057
  C:6226H         LINE#         2058
  C:622CH         LINE#         2059
  C:622CH         LINE#         2060
  C:622EH         LINE#         2062
  C:622EH         LINE#         2063
  C:6237H         LINE#         2064
  C:623CH         LINE#         2066
  C:6244H         LINE#         2067
  C:6244H         LINE#         2069
  C:6249H         LINE#         2070
  -------         ENDPROC       _VALIDA_TIPO_TARJETA
  -------         PROC          _HORARIOS
  X:0010H         SYMBOL        Atributos_Expedidor
  -------         DO            
  X:0013H         SYMBOL        Estado_Horario
  X:0014H         SYMBOL        Addr_horarios
  X:001FH         SYMBOL        dia_semana
  X:0020H         SYMBOL        EE_dia_semana
  X:0021H         SYMBOL        addr
  -------         ENDDO         
  C:7665H         LINE#         2164
  C:7670H         LINE#         2165
  C:7670H         LINE#         2171
  C:767BH         LINE#         2172
  C:767BH         LINE#         2174
  C:7687H         LINE#         2176
  C:76ADH         LINE#         2180
  C:76C0H         LINE#         2181
  C:76C0H         LINE#         2183
  C:76CAH         LINE#         2184
  C:76D3H         LINE#         2185
  C:76DBH         LINE#         2186
  C:76E4H         LINE#         2189
  C:7709H         LINE#         2190
  C:7712H         LINE#         2191
  C:771AH         LINE#         2192
  C:7723H         LINE#         2194
  C:772DH         LINE#         2195
  C:772DH         LINE#         2197
  C:773BH         LINE#         2198
BL51 BANKED LINKER/LOCATER V6.22.2.0                                                  07/26/2021  14:55:02  PAGE 129


  C:773DH         LINE#         2200
  C:773DH         LINE#         2202
  C:7746H         LINE#         2203
  C:774BH         LINE#         2204
  C:774BH         LINE#         2205
  C:774DH         LINE#         2207
  C:774DH         LINE#         2209
  C:7752H         LINE#         2210
  C:7757H         LINE#         2211
  C:775DH         LINE#         2213
  C:775DH         LINE#         2215
  C:775FH         LINE#         2217
  C:775FH         LINE#         2218
  C:7765H         LINE#         2220
  C:776EH         LINE#         2221
  C:776EH         LINE#         2222
  C:7773H         LINE#         2223
  -------         ENDPROC       _HORARIOS
  -------         PROC          _HORA_MAXIMA
  X:002FH         SYMBOL        addr
  -------         DO            
  X:0031H         SYMBOL        Hora_High
  X:0032H         SYMBOL        Minuto_High
  X:0033H         SYMBOL        HoraIni
  X:0034H         SYMBOL        MinutoIni
  X:0035H         SYMBOL        Hora_Prog
  -------         ENDDO         
  C:96DCH         LINE#         2224
  C:96E4H         LINE#         2225
  C:96E4H         LINE#         2230
  C:96F9H         LINE#         2231
  C:9719H         LINE#         2232
  C:9736H         LINE#         2233
  C:9756H         LINE#         2234
  C:975EH         LINE#         2235
  C:9766H         LINE#         2236
  C:976FH         LINE#         2238
  C:9787H         LINE#         2239
  -------         ENDPROC       _HORA_MAXIMA
  -------         PROC          _EN_HORARIO
  X:002AH         SYMBOL        HoraNow
  D:0004H         SYMBOL        Hora_Prog
  X:002CH         SYMBOL        addr
  -------         DO            
  X:002EH         SYMBOL        Estado_Horario
  -------         ENDDO         
  C:AC4BH         LINE#         2240
  C:AC59H         LINE#         2241
  C:AC59H         LINE#         2244
  C:AC66H         LINE#         2245
  C:AC66H         LINE#         2248
  C:AC6FH         LINE#         2249
  C:AC84H         LINE#         2252
  C:AC93H         LINE#         2253
  C:AC93H         LINE#         2255
  C:AC9AH         LINE#         2256
  C:ACA0H         LINE#         2257
BL51 BANKED LINKER/LOCATER V6.22.2.0                                                  07/26/2021  14:55:02  PAGE 130


  C:ACA2H         LINE#         2259
  C:ACA2H         LINE#         2262
  C:ACA6H         LINE#         2263
  C:ACA6H         LINE#         2264
  C:ACA6H         LINE#         2266
  C:ACA8H         LINE#         2268
  C:ACA8H         LINE#         2271
  C:ACB1H         LINE#         2272
  C:ACB6H         LINE#         2274
  C:ACB6H         LINE#         2275
  C:ACBBH         LINE#         2276
  -------         ENDPROC       _EN_HORARIO
  -------         PROC          _BLOQUE_HORARIO
  X:0023H         SYMBOL        addr
  -------         DO            
  X:0025H         SYMBOL        Estado_Horario
  X:0026H         SYMBOL        HoraNow
  X:0028H         SYMBOL        Hora_Prog
  -------         ENDDO         
  C:7880H         LINE#         2278
  C:7888H         LINE#         2279
  C:7888H         LINE#         2285
  C:7891H         LINE#         2286
  C:7899H         LINE#         2287
  C:78A1H         LINE#         2288
  C:78AAH         LINE#         2289
  C:78D8H         LINE#         2294
  C:78E1H         LINE#         2295
  C:78F6H         LINE#         2296
  C:790EH         LINE#         2297
  C:7910H         LINE#         2298
  C:7910H         LINE#         2301
  C:7928H         LINE#         2302
  C:7928H         LINE#         2303
  C:7931H         LINE#         2304
  C:794CH         LINE#         2305
  C:796AH         LINE#         2306
  C:796CH         LINE#         2308
  C:796CH         LINE#         2309
  C:7971H         LINE#         2310
  C:7976H         LINE#         2311
  C:797BH         LINE#         2312
  C:797BH         LINE#         2313
  C:797BH         LINE#         2315
  C:7982H         LINE#         2316
  -------         ENDPROC       _BLOQUE_HORARIO
  -------         PROC          SECUENCIA_INICIO_EXPEDIDOR
  -------         DO            
  X:0001H         SYMBOL        temp
  -------         ENDDO         
  C:6BF0H         LINE#         2325
  C:6BF0H         LINE#         2326
  C:6BF0H         LINE#         2328
  C:6C10H         LINE#         2329
  C:6C10H         LINE#         2330
  C:6C10H         LINE#         2333
  C:6C15H         LINE#         2334
BL51 BANKED LINKER/LOCATER V6.22.2.0                                                  07/26/2021  14:55:02  PAGE 131


  C:6C1BH         LINE#         2337
  C:6C1DH         LINE#         2338
  C:6C1DH         LINE#         2349
  C:6C1DH         LINE#         2351
  C:6C2BH         LINE#         2352
  C:6C2BH         LINE#         2353
  C:6C37H         LINE#         2354
  C:6C37H         LINE#         2355
  C:6C3DH         LINE#         2356
  C:6C40H         LINE#         2357
  C:6C48H         LINE#         2358
  C:6C48H         LINE#         2359
  C:6C4FH         LINE#         2360
  C:6C63H         LINE#         2361
  C:6C63H         LINE#         2362
  C:6C65H         LINE#         2364
  C:6C65H         LINE#         2365
  C:6C6CH         LINE#         2366
  C:6C72H         LINE#         2367
  C:6C72H         LINE#         2368
  C:6C75H         LINE#         2370
  C:6C75H         LINE#         2371
  C:6C7EH         LINE#         2372
  C:6C92H         LINE#         2373
  C:6C98H         LINE#         2374
  C:6C98H         LINE#         2375
  C:6C9BH         LINE#         2376
  C:6C9BH         LINE#         2382
  C:6C9BH         LINE#         2384
  C:6C9EH         LINE#         2385
  C:6CA4H         LINE#         2389
  C:6CA6H         LINE#         2390
  C:6CA6H         LINE#         2400
  C:6CA6H         LINE#         2402
  C:6CB4H         LINE#         2403
  C:6CB4H         LINE#         2404
  C:6CC0H         LINE#         2405
  C:6CC0H         LINE#         2406
  C:6CC6H         LINE#         2407
  C:6CC8H         LINE#         2408
  C:6CD0H         LINE#         2409
  C:6CD0H         LINE#         2410
  C:6CD7H         LINE#         2411
  C:6CEBH         LINE#         2412
  C:6CEBH         LINE#         2413
  C:6CEDH         LINE#         2415
  C:6CEDH         LINE#         2416
  C:6CF4H         LINE#         2417
  C:6CFAH         LINE#         2418
  C:6CFAH         LINE#         2419
  C:6CFCH         LINE#         2421
  C:6CFCH         LINE#         2422
  C:6D05H         LINE#         2423
  C:6D19H         LINE#         2424
  C:6D1EH         LINE#         2425
  C:6D1EH         LINE#         2427
  C:6D20H         LINE#         2428
BL51 BANKED LINKER/LOCATER V6.22.2.0                                                  07/26/2021  14:55:02  PAGE 132


  C:6D20H         LINE#         2434
  C:6D20H         LINE#         2436
  C:6D26H         LINE#         2437
  C:6D26H         LINE#         2440
  C:6D26H         LINE#         2441
  C:6D2DH         LINE#         2442
  C:6D2DH         LINE#         2443
  C:6D2DH         LINE#         2444
  -------         ENDPROC       SECUENCIA_INICIO_EXPEDIDOR
  -------         PROC          _SECUENCIAEXPEDIDORMF
  X:0001H         SYMBOL        EstadoActivo
  -------         DO            
  X:010DH         SYMBOL        Buffer_Write_MF
  X:011EH         SYMBOL        Atributos_Expedidor
  X:012DH         SYMBOL        Secuencia_Expedidor
  X:0131H         SYMBOL        Nombre_Mensual
  -------         ENDDO         
  C:35D4H         LINE#         2454
  C:35D9H         LINE#         2455
  C:35D9H         LINE#         2461
  C:363CH         LINE#         2462
  C:363CH         LINE#         2465
  C:363CH         LINE#         2467
  C:364CH         LINE#         2468
  C:364CH         LINE#         2471
  C:364EH         LINE#         2472
  C:3650H         LINE#         2473
  C:3655H         LINE#         2474
  C:365DH         LINE#         2475
  C:3662H         LINE#         2476
  C:3665H         LINE#         2477
  C:3665H         LINE#         2478
  C:366BH         LINE#         2479
  C:366BH         LINE#         2480
  C:366EH         LINE#         2481
  C:366EH         LINE#         2482
  C:366EH         LINE#         2484
  C:3671H         LINE#         2485
  C:3671H         LINE#         2487
  C:367AH         LINE#         2488
  C:367DH         LINE#         2489
  C:367DH         LINE#         2490
  C:3682H         LINE#         2491
  C:36A2H         LINE#         2492
  C:36A5H         LINE#         2493
  C:36A5H         LINE#         2494
  C:36AAH         LINE#         2495
  C:36B2H         LINE#         2496
  C:36B8H         LINE#         2497
  C:36BBH         LINE#         2498
  C:36BBH         LINE#         2499
  C:36BEH         LINE#         2500
  C:36C6H         LINE#         2501
  C:36CCH         LINE#         2502
  C:36CFH         LINE#         2503
  C:36CFH         LINE#         2504
  C:36D2H         LINE#         2505
BL51 BANKED LINKER/LOCATER V6.22.2.0                                                  07/26/2021  14:55:02  PAGE 133


  C:36F7H         LINE#         2506
  C:36FDH         LINE#         2507
  C:36FFH         LINE#         2508
  C:3702H         LINE#         2509
  C:3702H         LINE#         2510
  C:370DH         LINE#         2511
  C:3715H         LINE#         2512
  C:371BH         LINE#         2513
  C:371EH         LINE#         2514
  C:371EH         LINE#         2515
  C:372FH         LINE#         2516
  C:3737H         LINE#         2517
  C:373DH         LINE#         2518
  C:3740H         LINE#         2519
  C:3740H         LINE#         2521
  C:3745H         LINE#         2522
  C:3763H         LINE#         2524
  C:3766H         LINE#         2525
  C:3766H         LINE#         2526
  C:376BH         LINE#         2527
  C:378BH         LINE#         2528
  C:378EH         LINE#         2529
  C:378EH         LINE#         2530
  C:3793H         LINE#         2531
  C:3795H         LINE#         2532
  C:37B3H         LINE#         2533
  C:37B6H         LINE#         2534
  C:37B6H         LINE#         2535
  C:37BBH         LINE#         2536
  C:37DBH         LINE#         2537
  C:37DEH         LINE#         2538
  C:37DEH         LINE#         2539
  C:37F1H         LINE#         2540
  C:37F1H         LINE#         2541
  C:37F6H         LINE#         2542
  C:37FEH         LINE#         2543
  C:3804H         LINE#         2544
  C:3804H         LINE#         2545
  C:3807H         LINE#         2546
  C:3807H         LINE#         2547
  C:381AH         LINE#         2548
  C:381AH         LINE#         2549
  C:381FH         LINE#         2550
  C:3822H         LINE#         2551
  C:3822H         LINE#         2552
  C:3825H         LINE#         2553
  C:3825H         LINE#         2554
  C:3828H         LINE#         2555
  C:3848H         LINE#         2556
  C:384BH         LINE#         2557
  C:384BH         LINE#         2558
  C:384DH         LINE#         2559
  C:3850H         LINE#         2560
  C:3853H         LINE#         2561
  C:3853H         LINE#         2562
  C:385CH         LINE#         2563
  C:385FH         LINE#         2564
BL51 BANKED LINKER/LOCATER V6.22.2.0                                                  07/26/2021  14:55:02  PAGE 134


  C:385FH         LINE#         2565
  C:3876H         LINE#         2566
  C:3879H         LINE#         2567
  C:3879H         LINE#         2568
  C:387CH         LINE#         2569
  C:3884H         LINE#         2570
  C:388AH         LINE#         2571
  C:388DH         LINE#         2572
  C:388DH         LINE#         2573
  C:3896H         LINE#         2574
  C:3899H         LINE#         2575
  C:3899H         LINE#         2576
  C:389BH         LINE#         2577
  C:389EH         LINE#         2578
  C:38A1H         LINE#         2579
  C:38A1H         LINE#         2580
  C:38B8H         LINE#         2581
  C:38BBH         LINE#         2582
  C:38BBH         LINE#         2583
  C:38C0H         LINE#         2584
  C:38C8H         LINE#         2585
  C:38CEH         LINE#         2586
  C:38D1H         LINE#         2587
  C:38D1H         LINE#         2588
  C:38D4H         LINE#         2589
  C:38F4H         LINE#         2590
  C:38F7H         LINE#         2591
  C:38F7H         LINE#         2592
  C:38FAH         LINE#         2593
  C:391AH         LINE#         2594
  C:391DH         LINE#         2595
  C:391DH         LINE#         2596
  C:3920H         LINE#         2597
  C:3928H         LINE#         2598
  C:392BH         LINE#         2599
  C:392DH         LINE#         2600
  C:392DH         LINE#         2602
  C:3938H         LINE#         2603
  C:3940H         LINE#         2604
  C:3954H         LINE#         2605
  C:3957H         LINE#         2609
  C:3957H         LINE#         2610
  C:395DH         LINE#         2611
  C:3963H         LINE#         2612
  C:3963H         LINE#         2613
  C:396BH         LINE#         2614
  C:3971H         LINE#         2616
  C:3974H         LINE#         2617
  C:397CH         LINE#         2618
  C:397CH         LINE#         2620
  C:397FH         LINE#         2621
  C:3982H         LINE#         2622
  C:398AH         LINE#         2623
  C:398AH         LINE#         2624
  C:3998H         LINE#         2625
  C:3998H         LINE#         2626
  C:39A1H         LINE#         2627
BL51 BANKED LINKER/LOCATER V6.22.2.0                                                  07/26/2021  14:55:02  PAGE 135


  C:39A4H         LINE#         2628
  C:39B0H         LINE#         2629
  C:39B0H         LINE#         2630
  C:39B9H         LINE#         2631
  C:39BCH         LINE#         2633
  C:39BCH         LINE#         2634
  C:39C5H         LINE#         2635
  C:39C5H         LINE#         2636
  C:39C8H         LINE#         2637
  C:39D0H         LINE#         2638
  C:39D0H         LINE#         2639
  C:39DEH         LINE#         2640
  C:39DEH         LINE#         2641
  C:39F4H         LINE#         2642
  C:39F7H         LINE#         2643
  C:3A03H         LINE#         2644
  C:3A03H         LINE#         2645
  C:3A0CH         LINE#         2646
  C:3A0FH         LINE#         2647
  C:3A1DH         LINE#         2648
  C:3A1DH         LINE#         2649
  C:3A26H         LINE#         2650
  C:3A28H         LINE#         2652
  C:3A28H         LINE#         2653
  C:3A31H         LINE#         2654
  C:3A31H         LINE#         2655
  C:3A33H         LINE#         2656
  C:3A3BH         LINE#         2657
  C:3A3BH         LINE#         2658
  C:3A44H         LINE#         2659
  C:3A46H         LINE#         2660
  C:3A4EH         LINE#         2661
  C:3A4EH         LINE#         2662
  C:3A64H         LINE#         2663
  C:3A66H         LINE#         2664
  C:3A6EH         LINE#         2665
  C:3A6EH         LINE#         2666
  C:3A71H         LINE#         2667
  C:3A73H         LINE#         2669
  C:3A7BH         LINE#         2670
  C:3A7BH         LINE#         2671
  C:3A84H         LINE#         2672
  C:3A86H         LINE#         2675
  C:3A8EH         LINE#         2676
  C:3A8EH         LINE#         2677
  C:3A96H         LINE#         2678
  C:3A98H         LINE#         2680
  C:3A98H         LINE#         2681
  C:3AA1H         LINE#         2682
  C:3AA1H         LINE#         2683
  C:3AA3H         LINE#         2684
  C:3AA3H         LINE#         2685
  C:3AA8H         LINE#         2686
  C:3AA8H         LINE#         2688
  C:3AA8H         LINE#         2689
  C:3AADH         LINE#         2690
  -------         ENDPROC       _SECUENCIAEXPEDIDORMF
BL51 BANKED LINKER/LOCATER V6.22.2.0                                                  07/26/2021  14:55:02  PAGE 136


  -------         ENDMOD        VERIFICADOR

  -------         MODULE        MONITOR
  C:0000H         SYMBOL        _ICE_DUMMY_
  D:0080H         PUBLIC        P0
  D:0090H         PUBLIC        P1
  I:0011H         PUBLIC        placa
  C:BBC5H         PUBLIC        Rx_Monitor
  B:0080H.0       PUBLIC        rx_ip
  B:0090H.7       PUBLIC        lock
  C:8F91H         PUBLIC        _recibe_cmd_Monitor
  C:BD2AH         PUBLIC        clear_placa
  C:9349H         PUBLIC        _Valida_Trama_Monitor
  -------         PROC          _RECIBE_CMD_MONITOR
  X:0016H         SYMBOL        buffer_cmd
  -------         DO            
  X:0019H         SYMBOL        j
  X:001AH         SYMBOL        NumDatos
  X:001BH         SYMBOL        time_out
  X:001CH         SYMBOL        MaxChrRx
  X:001DH         SYMBOL        contador
  -------         ENDDO         
  C:8F91H         LINE#         50
  C:8F9CH         LINE#         51
  C:8F9CH         LINE#         55
  C:8FA1H         LINE#         56
  C:8FA7H         LINE#         58
  C:8FB2H         LINE#         59
  C:8FB2H         LINE#         60
  C:8FC3H         LINE#         61
  C:8FC3H         LINE#         62
  C:8FCAH         LINE#         63
  C:8FCEH         LINE#         64
  C:8FD7H         LINE#         65
  C:8FD7H         LINE#         66
  C:8FE5H         LINE#         67
  C:8FFCH         LINE#         68
  C:8FFCH         LINE#         69
  C:9002H         LINE#         70
  C:9008H         LINE#         71
  C:9008H         LINE#         72
  C:900AH         LINE#         73
  C:9012H         LINE#         74
  C:9018H         LINE#         75
  C:902AH         LINE#         76
  C:9034H         LINE#         77
  C:903DH         LINE#         79
  C:904CH         LINE#         82
  C:904CH         LINE#         83
  C:9051H         LINE#         84
  -------         ENDPROC       _RECIBE_CMD_MONITOR
  -------         PROC          _VALIDA_TRAMA_MONITOR
  X:0016H         SYMBOL        buffer
  D:0005H         SYMBOL        length_trama
  -------         DO            
  X:0019H         SYMBOL        j
  X:001AH         SYMBOL        p
BL51 BANKED LINKER/LOCATER V6.22.2.0                                                  07/26/2021  14:55:02  PAGE 137


  X:001BH         SYMBOL        cont
  -------         ENDDO         
  C:9349H         LINE#         89
  C:9354H         LINE#         90
  C:9354H         LINE#         91
  C:9357H         LINE#         92
  C:935BH         LINE#         93
  C:935EH         LINE#         94
  C:9360H         LINE#         97
  C:9374H         LINE#         98
  C:9374H         LINE#         100
  C:9376H         LINE#         102
  C:937DH         LINE#         103
  C:9382H         LINE#         106
  C:9382H         LINE#         108
  C:939DH         LINE#         109
  C:939DH         LINE#         112
  C:939DH         LINE#         113
  C:93BEH         LINE#         114
  C:93C2H         LINE#         115
  C:93C8H         LINE#         116
  C:93DAH         LINE#         117
  C:93F2H         LINE#         118
  C:93FBH         LINE#         119
  C:93FDH         LINE#         120
  C:9403H         LINE#         123
  C:9403H         LINE#         126
  -------         ENDPROC       _VALIDA_TRAMA_MONITOR
  -------         PROC          CLEAR_PLACA
  -------         DO            
  D:0007H         SYMBOL        i
  -------         ENDDO         
  C:BD2AH         LINE#         127
  C:BD2AH         LINE#         128
  C:BD2AH         LINE#         130
  C:BD36H         LINE#         131
  C:BD36H         LINE#         132
  C:BD3CH         LINE#         133
  C:BD3FH         LINE#         134
  C:BD41H         LINE#         135
  -------         ENDPROC       CLEAR_PLACA
  -------         PROC          RX_MONITOR
  -------         DO            
  X:0009H         SYMBOL        Length_trama
  X:000AH         SYMBOL        buffer1
  -------         ENDDO         
  C:BBC5H         LINE#         136
  C:BBC5H         LINE#         137
  C:BBC5H         LINE#         140
  C:BBD4H         LINE#         141
  C:BBDDH         LINE#         142
  -------         ENDPROC       RX_MONITOR
  -------         ENDMOD        MONITOR

  -------         MODULE        ?C?FPADD
  C:1335H         PUBLIC        ?C?FPADD
  C:1331H         PUBLIC        ?C?FPSUB
BL51 BANKED LINKER/LOCATER V6.22.2.0                                                  07/26/2021  14:55:02  PAGE 138


  -------         ENDMOD        ?C?FPADD

  -------         MODULE        ?C?FPMUL
  C:1426H         PUBLIC        ?C?FPMUL
  -------         ENDMOD        ?C?FPMUL

  -------         MODULE        ?C?FCAST
  C:1536H         PUBLIC        ?C?FCASTC
  C:1531H         PUBLIC        ?C?FCASTI
  C:152CH         PUBLIC        ?C?FCASTL
  -------         ENDMOD        ?C?FCAST

  -------         MODULE        ?C?CASTF
  C:156AH         PUBLIC        ?C?CASTF
  -------         ENDMOD        ?C?CASTF

  -------         MODULE        PRINTF
  X:0077H         PUBLIC        ?_PRINTF?BYTE
  X:0077H         PUBLIC        ?_SPRINTF?BYTE
  C:3B19H         PUBLIC        _PRINTF
  C:3B13H         PUBLIC        _SPRINTF
  -------         ENDMOD        PRINTF

  -------         MODULE        POW
  X:0020H         PUBLIC        ?_pow?BYTE
  C:655CH         PUBLIC        _pow
  -------         ENDMOD        POW

  -------         MODULE        ?C?CHKFLOAT
  C:15EBH         PUBLIC        ?C?CHKFLOAT
  -------         ENDMOD        ?C?CHKFLOAT

  -------         MODULE        ?C?FPCMP
  C:1607H         PUBLIC        ?C?FPCMP
  C:1605H         PUBLIC        ?C?FPCMP3
  -------         ENDMOD        ?C?FPCMP

  -------         MODULE        ?C?FPNEG
  C:167EH         PUBLIC        ?C?FPNEG
  -------         ENDMOD        ?C?FPNEG

  -------         MODULE        ?C?FPROUND
  C:168FH         PUBLIC        ?C?FPROUND
  -------         ENDMOD        ?C?FPROUND

  -------         MODULE        ?C?FPCONVERT
  C:16CCH         PUBLIC        ?C?FPCONVERT
  -------         ENDMOD        ?C?FPCONVERT

  -------         MODULE        EXP
  C:9E12H         PUBLIC        _EXP
  -------         ENDMOD        EXP

  -------         MODULE        LOG
  C:7100H         PUBLIC        _LOG
  C:70FCH         PUBLIC        _LOG10
  -------         ENDMOD        LOG
BL51 BANKED LINKER/LOCATER V6.22.2.0                                                  07/26/2021  14:55:02  PAGE 139



  -------         MODULE        ?C?FPDIV
  C:17D4H         PUBLIC        ?C?FPDIV
  -------         ENDMOD        ?C?FPDIV

  -------         MODULE        ?C?FTNPWR
  C:18A1H         PUBLIC        ?C?FTNPWR
  -------         ENDMOD        ?C?FTNPWR

  -------         MODULE        ?C?COPY
  C:19FEH         PUBLIC        ?C?COPY
  -------         ENDMOD        ?C?COPY

  -------         MODULE        ?C?CLDPTR
  C:1A24H         PUBLIC        ?C?CLDPTR
  -------         ENDMOD        ?C?CLDPTR

  -------         MODULE        ?C?CLDOPTR
  C:1A3DH         PUBLIC        ?C?CLDOPTR
  -------         ENDMOD        ?C?CLDOPTR

  -------         MODULE        ?C?CSTPTR
  C:1A6AH         PUBLIC        ?C?CSTPTR
  -------         ENDMOD        ?C?CSTPTR

  -------         MODULE        ?C?CSTOPTR
  C:1A7CH         PUBLIC        ?C?CSTOPTR
  -------         ENDMOD        ?C?CSTOPTR

  -------         MODULE        ?C?IMUL
  C:1A9EH         PUBLIC        ?C?IMUL
  -------         ENDMOD        ?C?IMUL

  -------         MODULE        ?C?IILDX
  C:1AB0H         PUBLIC        ?C?IILDX
  -------         ENDMOD        ?C?IILDX

  -------         MODULE        ?C?LNEG
  C:1AC6H         PUBLIC        ?C?LNEG
  -------         ENDMOD        ?C?LNEG

  -------         MODULE        ?C?SLCMP
  C:1AD4H         PUBLIC        ?C?SLCMP
  -------         ENDMOD        ?C?SLCMP

  -------         MODULE        ?C?ULCMP
  C:1AEAH         PUBLIC        ?C?ULCMP
  -------         ENDMOD        ?C?ULCMP

  -------         MODULE        ?C?ULSHR
  C:1AFBH         PUBLIC        ?C?ULSHR
  -------         ENDMOD        ?C?ULSHR

  -------         MODULE        ?C?LSHL
  C:1B0EH         PUBLIC        ?C?LSHL
  -------         ENDMOD        ?C?LSHL

BL51 BANKED LINKER/LOCATER V6.22.2.0                                                  07/26/2021  14:55:02  PAGE 140


  -------         MODULE        ?C?LLDCODE
  C:1B21H         PUBLIC        ?C?LLDCODE
  -------         ENDMOD        ?C?LLDCODE

  -------         MODULE        ?C?LLDXDATA0
  C:1B31H         PUBLIC        ?C?LLDXDATA0
  -------         ENDMOD        ?C?LLDXDATA0

  -------         MODULE        ?C?LLDCODE0
  C:1B3DH         PUBLIC        ?C?LLDCODE0
  -------         ENDMOD        ?C?LLDCODE0

  -------         MODULE        ?C?LSTXDATA
  C:1B4DH         PUBLIC        ?C?LSTXDATA
  -------         ENDMOD        ?C?LSTXDATA

  -------         MODULE        ?C?LSTKXDATA
  C:1B59H         PUBLIC        ?C?LSTKXDATA
  -------         ENDMOD        ?C?LSTKXDATA

  -------         MODULE        ?C?PLDIXDATA
  C:1B8AH         PUBLIC        ?C?PLDIXDATA
  -------         ENDMOD        ?C?PLDIXDATA

  -------         MODULE        ?C?PSTXDATA
  C:1BA1H         PUBLIC        ?C?PSTXDATA
  -------         ENDMOD        ?C?PSTXDATA

  -------         MODULE        ?C?CCASE
  C:1BAAH         PUBLIC        ?C?CCASE
  -------         ENDMOD        ?C?CCASE

  -------         MODULE        STRCAT
  X:0046H         PUBLIC        ?_strcat?BYTE
  C:AE02H         PUBLIC        _strcat
  -------         ENDMOD        STRCAT

  -------         MODULE        ?C?STRCMP
  C:1D4EH         PUBLIC        ?C?STRCMP
  -------         ENDMOD        ?C?STRCMP

  -------         MODULE        ?C?STRCPY
  C:1E37H         PUBLIC        ?C?STRCPY
  -------         ENDMOD        ?C?STRCPY

  -------         MODULE        STRLEN
  C:000EH         PUBLIC        _STRLEN
  -------         ENDMOD        STRLEN

  -------         MODULE        STRTOK
  X:0064H         PUBLIC        ?_strtok?BYTE
  C:842BH         PUBLIC        _strtok
  -------         ENDMOD        STRTOK

  -------         MODULE        ATOL
  C:7774H         PUBLIC        _atol
  -------         ENDMOD        ATOL
BL51 BANKED LINKER/LOCATER V6.22.2.0                                                  07/26/2021  14:55:02  PAGE 141



  -------         MODULE        ATOI
  C:86C9H         PUBLIC        _atoi
  -------         ENDMOD        ATOI

  -------         MODULE        ?C?ILDIX
  C:1E54H         PUBLIC        ?C?ILDIX
  -------         ENDMOD        ?C?ILDIX

  -------         MODULE        ?C?LMUL
  C:1E6AH         PUBLIC        ?C?LMUL
  -------         ENDMOD        ?C?LMUL

  -------         MODULE        ISDIGIT
  C:BE3AH         PUBLIC        _isdigit
  -------         ENDMOD        ISDIGIT

  -------         MODULE        ISSPACE
  C:BD9AH         PUBLIC        _isspace
  -------         ENDMOD        ISSPACE

  -------         MODULE        STRSPN
  X:006AH         PUBLIC        ?_strspn?BYTE
  C:A754H         PUBLIC        _strspn
  -------         ENDMOD        STRSPN

  -------         MODULE        STRPBRK
  X:006AH         PUBLIC        ?_strpbrk?BYTE
  C:A85BH         PUBLIC        _strpbrk
  -------         ENDMOD        STRPBRK

Program Size: data=99.1 xdata=533 code=48844
LINK/LOCATE RUN COMPLETE.  0 WARNING(S),  0 ERROR(S)
