BL51 BANKED LINKER/LOCATER V6.22.2.0                                                    08/02/2021  16:39:51  PAGE 1


BL51 BANKED LINKER/LOCATER V6.22.2.0, INVOKED BY:
C:\KEIL_V5\C51\BIN\BL51.EXE .\Objects\main.obj, .\Objects\Accescan.obj, .\Objects\Clock.obj, .\Objects\delay.obj, .\Obje
>> cts\eeprom.obj, .\Objects\io_sensores.obj, .\Objects\pantallas.obj, .\Objects\prog.obj, .\Objects\pto_paralelo.obj, .
>> \Objects\tibbo.obj, .\Objects\uart.obj, .\Objects\lintech.obj, .\Objects\verificador.obj, .\Objects\Monitor.obj TO .\
>> Objects\expedidor_v_01_raspberry PRINT (.\Listings\expedidor_v_01_raspberry.m51) RAMSIZE (256)


MEMORY MODEL: LARGE WITH FLOATING POINT ARITHMETIC


INPUT MODULES INCLUDED:
  .\Objects\main.obj (MAIN)
  .\Objects\Accescan.obj (ACCESCAN)
  .\Objects\Clock.obj (CLOCK)
  .\Objects\delay.obj (DELAY)
  .\Objects\eeprom.obj (EEPROM)
  .\Objects\io_sensores.obj (IO_SENSORES)
  .\Objects\pantallas.obj (PANTALLAS)
  .\Objects\prog.obj (PROG)
  .\Objects\pto_paralelo.obj (PTO_PARALELO)
  .\Objects\tibbo.obj (TIBBO)
  .\Objects\uart.obj (UART)
  .\Objects\lintech.obj (LINTECH)
  .\Objects\verificador.obj (VERIFICADOR)
  .\Objects\Monitor.obj (MONITOR)
  C:\KEIL_V5\C51\LIB\C51FPL.LIB (?C?FPADD)
  C:\KEIL_V5\C51\LIB\C51FPL.LIB (?C?FPMUL)
  C:\KEIL_V5\C51\LIB\C51FPL.LIB (?C?FCAST)
  C:\KEIL_V5\C51\LIB\C51FPL.LIB (?C?CASTF)
  C:\KEIL_V5\C51\LIB\C51FPL.LIB (PRINTF)
  C:\KEIL_V5\C51\LIB\C51FPL.LIB (POW)
  C:\KEIL_V5\C51\LIB\C51FPL.LIB (?C?FPGETOPN)
  C:\KEIL_V5\C51\LIB\C51FPL.LIB (?C?CHKFLOAT)
  C:\KEIL_V5\C51\LIB\C51FPL.LIB (?C?FPCMP)
  C:\KEIL_V5\C51\LIB\C51FPL.LIB (?C?FPNEG)
  C:\KEIL_V5\C51\LIB\C51FPL.LIB (?C?FPROUND)
  C:\KEIL_V5\C51\LIB\C51FPL.LIB (?C?FPCONVERT)
  C:\KEIL_V5\C51\LIB\C51FPL.LIB (EXP)
  C:\KEIL_V5\C51\LIB\C51FPL.LIB (LOG)
  C:\KEIL_V5\C51\LIB\C51FPL.LIB (?C?FPDIV)
  C:\KEIL_V5\C51\LIB\C51FPL.LIB (?C?FTNPWR)
  C:\KEIL_V5\C51\LIB\C51FPL.LIB (?C?FPSERIES)
  C:\KEIL_V5\C51\LIB\C51L.LIB (?C_STARTUP)
  C:\KEIL_V5\C51\LIB\C51L.LIB (?C?COPY)
  C:\KEIL_V5\C51\LIB\C51L.LIB (?C?CLDPTR)
  C:\KEIL_V5\C51\LIB\C51L.LIB (?C?CLDOPTR)
  C:\KEIL_V5\C51\LIB\C51L.LIB (?C?CSTPTR)
  C:\KEIL_V5\C51\LIB\C51L.LIB (?C?CSTOPTR)
  C:\KEIL_V5\C51\LIB\C51L.LIB (?C?IMUL)
  C:\KEIL_V5\C51\LIB\C51L.LIB (?C?IILDX)
  C:\KEIL_V5\C51\LIB\C51L.LIB (?C?LNEG)
  C:\KEIL_V5\C51\LIB\C51L.LIB (?C?SLCMP)
  C:\KEIL_V5\C51\LIB\C51L.LIB (?C?ULCMP)
  C:\KEIL_V5\C51\LIB\C51L.LIB (?C?ULSHR)
  C:\KEIL_V5\C51\LIB\C51L.LIB (?C?LSHL)
  C:\KEIL_V5\C51\LIB\C51L.LIB (?C?LLDCODE)
  C:\KEIL_V5\C51\LIB\C51L.LIB (?C?LLDXDATA0)
  C:\KEIL_V5\C51\LIB\C51L.LIB (?C?LLDCODE0)
BL51 BANKED LINKER/LOCATER V6.22.2.0                                                  08/02/2021  16:39:51  PAGE 2


  C:\KEIL_V5\C51\LIB\C51L.LIB (?C?LSTXDATA)
  C:\KEIL_V5\C51\LIB\C51L.LIB (?C?LSTKXDATA)
  C:\KEIL_V5\C51\LIB\C51L.LIB (?C?PLDIXDATA)
  C:\KEIL_V5\C51\LIB\C51L.LIB (?C?PSTXDATA)
  C:\KEIL_V5\C51\LIB\C51L.LIB (?C?CCASE)
  C:\KEIL_V5\C51\LIB\C51L.LIB (STRCAT)
  C:\KEIL_V5\C51\LIB\C51L.LIB (?C?STRCMP)
  C:\KEIL_V5\C51\LIB\C51L.LIB (?C?STRCPY)
  C:\KEIL_V5\C51\LIB\C51L.LIB (STRLEN)
  C:\KEIL_V5\C51\LIB\C51L.LIB (STRTOK)
  C:\KEIL_V5\C51\LIB\C51L.LIB (ATOL)
  C:\KEIL_V5\C51\LIB\C51L.LIB (ATOI)
  C:\KEIL_V5\C51\LIB\C51L.LIB (?C_INIT)
  C:\KEIL_V5\C51\LIB\C51L.LIB (?C?ILDIX)
  C:\KEIL_V5\C51\LIB\C51L.LIB (?C?LMUL)
  C:\KEIL_V5\C51\LIB\C51L.LIB (ISDIGIT)
  C:\KEIL_V5\C51\LIB\C51L.LIB (ISSPACE)
  C:\KEIL_V5\C51\LIB\C51L.LIB (STRSPN)
  C:\KEIL_V5\C51\LIB\C51L.LIB (STRPBRK)


LINK MAP OF MODULE:  .\Objects\expedidor_v_01_raspberry (MAIN)


            TYPE    BASE      LENGTH    RELOCATION   SEGMENT NAME
            -----------------------------------------------------

            * * * * * * *   D A T A   M E M O R Y   * * * * * * *
            REG     0000H     0008H     ABSOLUTE     "REG BANK 0"
            DATA    0008H     0005H     UNIT         _DATA_GROUP_
            DATA    000DH     0004H     UNIT         ?DT?UART
            IDATA   0011H     0009H     UNIT         ?ID?MONITOR
                    001AH     0006H                  *** GAP ***
            BIT     0020H.0   0001H.1   UNIT         _BIT_GROUP_
            BIT     0021H.1   0000H.3   UNIT         ?BI?MAIN
            BIT     0021H.4   0000H.2   UNIT         ?BI?UART
            BIT     0021H.6   0000H.1   UNIT         ?BI?EEPROM
            BIT     0021H.7   0000H.1   UNIT         ?BI?IO_SENSORES
            BIT     0022H.0   0000H.1   UNIT         ?BI?VERIFICADOR
                    0022H.1   0000H.7                *** GAP ***
            IDATA   0023H     0046H     UNIT         ?ID?MAIN
            IDATA   0069H     0001H     UNIT         ?STACK

            * * * * * * *  X D A T A   M E M O R Y  * * * * * * *
            XDATA   0000H     00B7H     UNIT         _XDATA_GROUP_
            XDATA   00B7H     0091H     UNIT         ?XD?VERIFICADOR
            XDATA   0148H     006CH     UNIT         ?XD?MAIN
            XDATA   01B4H     005CH     UNIT         ?XD?PROG
            XDATA   0210H     0003H     UNIT         ?XD?EEPROM
            XDATA   0213H     0003H     UNIT         ?XD?UART
            XDATA   0216H     0003H     UNIT         ?XD?STRTOK
            XDATA   0219H     0002H     UNIT         ?XD?IO_SENSORES
            XDATA   021BH     0001H     UNIT         ?XD?ACCESCAN
            XDATA   021CH     0001H     UNIT         ?XD?CLOCK

            * * * * * * *   C O D E   M E M O R Y   * * * * * * *
            CODE    0000H     0003H     ABSOLUTE     
BL51 BANKED LINKER/LOCATER V6.22.2.0                                                  08/02/2021  16:39:51  PAGE 3


            CODE    0003H     0008H     UNIT         ?PR?P_CK?CLOCK
            CODE    000BH     0003H     ABSOLUTE     
            CODE    000EH     0015H     UNIT         ?PR?_STRLEN?STRLEN
            CODE    0023H     0003H     ABSOLUTE     
            CODE    0026H     141BH     UNIT         ?CO?PROG
            CODE    1441H     0B8BH     UNIT         ?C?LIB_CODE
            CODE    1FCCH     08DCH     UNIT         ?CO?VERIFICADOR
            CODE    28A8H     0747H     UNIT         ?PR?_PANTALLALCD?PANTALLAS
            CODE    2FEFH     06EFH     UNIT         ?CO?PANTALLAS
            CODE    36DEH     0541H     UNIT         ?PR?_VALIDA_TRAMA_PTO?ACCESCAN
            CODE    3C1FH     04DAH     UNIT         ?PR?_SECUENCIAEXPEDIDORMF?VERIFICADOR
            CODE    40F9H     0483H     UNIT         ?PR?PRINTF?PRINTF
            CODE    457CH     03C8H     UNIT         ?PR?VER_PROG?PROG
            CODE    4944H     02D0H     UNIT         ?PR?_TWO_BYTEHEX_DECIMAL?CLOCK
            CODE    4C14H     02B7H     UNIT         ?PR?_PROG_HORARIO_DIAS?PROG
            CODE    4ECBH     02A5H     UNIT         ?PR?_PANTALLALCD_LINEA_2?PANTALLAS
            CODE    5170H     02A3H     UNIT         ?PR?_ARMAR_TRAMA_MONITOR?VERIFICADOR
            CODE    5413H     0256H     UNIT         ?PR?_ARMAR_TRAMA_PTO_PARALELO_EXPEDIDOR?VERIFICADOR
            CODE    5669H     0235H     UNIT         ?PR?MENU?PROG
            CODE    589EH     0208H     UNIT         ?PR?_HASH_ID?PROG
            CODE    5AA6H     01FAH     UNIT         ?PR?_PROG_HORARIO_DESDE_HASTA?PROG
            CODE    5CA0H     01F5H     UNIT         ?PR?PROG_FECHA_VENCIMIENTO?PROG
            CODE    5E95H     01EBH     UNIT         ?PR?_ARMAR_TRAMA_TARJETA_SECTOR1_BLOQUE2?VERIFICADOR
            CODE    6080H     01DFH     UNIT         ?PR?_RESPONDE_LECTURA_TARJETA_SECTOR1_BLOQUE1?VERIFICADOR
            CODE    625FH     01D8H     UNIT         ?PR?_BLOCK_READ_CLOCK_ASCII_RASBERRY?CLOCK
            CODE    6437H     01B3H     UNIT         ?PR?COM_ISR?UART
            CODE    65EAH     01A4H     UNIT         ?PR?_VALIDA_TIPO_TARJETA?VERIFICADOR
            CODE    678EH     01A3H     UNIT         ?CO?LINTECH
            CODE    6931H     016EH     UNIT         ?PR?_BLOCK_READ_CLOCK_ASCII?CLOCK
            CODE    6A9FH     0166H     UNIT         ?PR?_POW?POW
            CODE    6C05H     0157H     UNIT         ?PR?_RESPONDE_REELECTURA_TARJETA_SECTOR1_BLOQUE2?VERIFICADOR
            CODE    6D5CH     0145H     UNIT         ?PR?PROG_HORARIOS?PROG
            CODE    6EA1H     013EH     UNIT         ?PR?PROG_SIN_COBRO?PROG
            CODE    6FDFH     013EH     UNIT         ?PR?SECUENCIA_INICIO_EXPEDIDOR?VERIFICADOR
            CODE    711DH     013CH     UNIT         ?PR?LOAD_AND_SEND_ID_COD?PTO_PARALELO
            CODE    7259H     0137H     UNIT         ?PR?VER_HORARIO?PROG
            CODE    7390H     012EH     UNIT         ?PR?_ARMAR_TRAMA_PTO_PARALELO_EXPEDIDOR_MENSUAL?VERIFICADOR
            CODE    74BEH     012BH     UNIT         ?PR?_RESPONDE_LECTURA_TARJETA_SECTOR1_BLOQUE2?VERIFICADOR
            CODE    75E9H     0129H     UNIT         ?PR?LOG?LOG
            CODE    7712H     0128H     UNIT         ?PR?_VER_HORARIO_DIAS?PROG
            CODE    783AH     011AH     UNIT         ?PR?_PROG_HORARIOS_ON_OFF?PROG
            CODE    7954H     0119H     UNIT         ?PR?_VER_HORARIO_DESDE_HASTA?PROG
            CODE    7A6DH     0115H     UNIT         ?PR?_VALIDAR_CLK?CLOCK
            CODE    7B82H     010FH     UNIT         ?PR?_HORARIOS?VERIFICADOR
            CODE    7C91H     010CH     UNIT         ?PR?_ATOL?ATOL
            CODE    7D9DH     0100H     UNIT         ?PR?_WR_MF?LINTECH
            CODE    7E9DH     00FCH     UNIT         ?PR?PROG_DEBUG?PROG
            CODE    7F99H     00FCH     UNIT         ?PR?PROG_USE_LPR?PROG
            CODE    8095H     00FCH     UNIT         ?PR?TIPO_PANTALLA?PROG
            CODE    8191H     00FCH     UNIT         ?PR?PROG_ANTIPASSBACK?PROG
            CODE    828DH     00FCH     UNIT         ?PR?PROG_PLACA?PROG
            CODE    8389H     00FCH     UNIT         ?PR?PROG_VALIDAR_TIPO_VEHICULO_MENSUAL?PROG
            CODE    8485H     00FCH     UNIT         ?PR?PROG_APB_MENSUAL?PROG
            CODE    8581H     00FCH     UNIT         ?PR?PROG_MENSUALES?PROG
            CODE    867DH     00FCH     UNIT         ?PR?_BLOQUE_HORARIO?VERIFICADOR
            CODE    8779H     00F1H     UNIT         ?PR?_WRITE_EEPROM_TICKET?EEPROM
            CODE    886AH     00F0H     UNIT         ?CO?IO_SENSORES
BL51 BANKED LINKER/LOCATER V6.22.2.0                                                  08/02/2021  16:39:51  PAGE 4


            CODE    895AH     00EAH     UNIT         ?PR?_MOV_CARD?LINTECH
            CODE    8A44H     00E4H     UNIT         ?PR?_STRTOK?STRTOK
            CODE    8B28H     00DEH     UNIT         ?PR?PROG_ADDRESS_HIGH_BOARD?PROG
            CODE    8C06H     00DCH     UNIT         ?PR?_RTA_CMD_TRANSPORTE?VERIFICADOR
            CODE    8CE2H     00DBH     UNIT         ?PR?_ATOI?ATOI
            CODE    8DBDH     00D7H     UNIT         ?PR?_ANALIZA_UID_CARD?VERIFICADOR
            CODE    8E94H     00D6H     UNIT         ?C_INITSEG
            CODE    8F6AH     00D6H     UNIT         ?PR?_CMD_LPR_SALIDA_WIEGAND?ACCESCAN
            CODE    9040H     00CCH     UNIT         ?PR?_GRABA_SERIE?EEPROM
            CODE    910CH     00CAH     UNIT         ?PR?READ_EEPROM_TICKET?EEPROM
            CODE    91D6H     00C9H     UNIT         ?PR?_CHECK_FECHAOUT?CLOCK
            CODE    929FH     00C4H     UNIT         ?PR?_BLOCK_READ_CLOCK?CLOCK
            CODE    9363H     00C4H     UNIT         ?PR?_TARJETA_MENSUAL?VERIFICADOR
            CODE    9427H     00C3H     UNIT         ?PR?_RD_MF?LINTECH
            CODE    94EAH     00C2H     UNIT         ?PR?PROG_TARJETA_AUTOMATICA_O_BOTON?PROG
            CODE    95ACH     00C1H     UNIT         ?PR?_RECIBE_CMD_MONITOR?MONITOR
            CODE    966DH     00BEH     UNIT         ?PR?ERROR_RX_PTO?VERIFICADOR
            CODE    972BH     00BDH     UNIT         ?PR?PROG_COD_PARK?PROG
            CODE    97E8H     00BDH     UNIT         ?PR?PROG_TIEMPO_GRACIA?PROG
            CODE    98A5H     00BBH     UNIT         ?PR?_VALIDA_TRAMA_MONITOR?MONITOR
            CODE    9960H     00B9H     UNIT         ?CO?TIBBO
            CODE    9A19H     00B6H     UNIT         ?PR?PROG_ID_CLIENTE?PROG
            CODE    9ACFH     00B5H     UNIT         ?PR?_WAIT_PLACA?VERIFICADOR
            CODE    9B84H     00B4H     UNIT         ?PR?_SEND_PORT?PTO_PARALELO
            CODE    9C38H     00AFH     UNIT         ?PR?MSJ_LCD_INFORMATIVO?IO_SENSORES
            CODE    9CE7H     00ACH     UNIT         ?PR?_HORA_MAXIMA?VERIFICADOR
            CODE    9D93H     00AAH     UNIT         ?PR?CLAVE_SEGURIDAD_S2?LINTECH
            CODE    9E3DH     00A9H     UNIT         ?PR?DWLOAD_EEPROM?LINTECH
            CODE    9EE6H     00A6H     UNIT         ?PR?_BLOCK_READ_CLOCK_HEX?CLOCK
            CODE    9F8CH     00A5H     UNIT         ?PR?_SEND_PTO_PARALELO?VERIFICADOR
            CODE    A031H     00A4H     UNIT         ?PR?_ARMAR_TRAMA_TARJETA_SECTOR1_BLOQUE1_CAMCEL?VERIFICADOR
            CODE    A0D5H     00A2H     UNIT         ?PR?SHOW?PROG
            CODE    A177H     00A1H     UNIT         ?PR?_BLOCK_WRITE_CLOCK_ASCII?CLOCK
            CODE    A218H     009DH     UNIT         ?PR?_INICIALIZA?LINTECH
            CODE    A2B5H     009CH     UNIT         ?PR?_RESPUESTA_PLACA_CANCEL?VERIFICADOR
            CODE    A351H     009BH     UNIT         ?PR?ENTREGA_CARD_CAPTURA?VERIFICADOR
            CODE    A3ECH     009AH     UNIT         ?PR?_RESPONDE_LECTURA_TARJETA_SECTOR1_BLOQUE0?VERIFICADOR
            CODE    A486H     009AH     UNIT         ?PR?EXP?EXP
            CODE    A520H     0099H     UNIT         ?PR?_RECIBE_PORT?PTO_PARALELO
            CODE    A5B9H     0098H     UNIT         ?PR?_VALIDA_VEHICULO_CARD_MENSUAL?VERIFICADOR
            CODE    A651H     0091H     UNIT         ?PR?_HEX_ASCII?CLOCK
            CODE    A6E2H     0091H     UNIT         ?PR?_CARD_INSERCION?LINTECH
            CODE    A773H     0090H     UNIT         ?PR?_LEE_CLK?CLOCK
            CODE    A803H     0090H     UNIT         ?PR?_GETOPTION?PROG
            CODE    A893H     0090H     UNIT         ?PR?_DISPARO_LOCK_ENTRADA_VEHICULO?VERIFICADOR
            CODE    A923H     008DH     UNIT         ?PR?LOADVERIFY_EEPROM?LINTECH
            CODE    A9B0H     008CH     UNIT         ?C_C51STARTUP
            CODE    AA3CH     0088H     UNIT         ?PR?_SEND_PORTERR?PTO_PARALELO
            CODE    AAC4H     0088H     UNIT         ?PR?RX_DATA?TIBBO
            CODE    AB4CH     0088H     UNIT         ?PR?UNIQUE_IDENTIFIER_UID?LINTECH
            CODE    ABD4H     0086H     UNIT         ?PR?_CHECK_STATUS?LINTECH
            CODE    AC5AH     0084H     UNIT         ?PR?_DEBUGBUFFERMF?TIBBO
            CODE    ACDEH     0084H     UNIT         ?PR?_STRSPN?STRSPN
            CODE    AD62H     0083H     UNIT         ?PR?_RASPBERRY_DATA?PANTALLAS
            CODE    ADE5H     0081H     UNIT         ?PR?_STRPBRK?STRPBRK
            CODE    AE66H     0080H     UNIT         ?PR?_INGRESADATO?PROG
            CODE    AEE6H     0080H     UNIT         ?PR?AUT_CARD_CHECK_STATUS?LINTECH
BL51 BANKED LINKER/LOCATER V6.22.2.0                                                  08/02/2021  16:39:51  PAGE 5


            CODE    AF66H     0080H     UNIT         ?PR?POWER_OFF?LINTECH
            CODE    AFE6H     007FH     UNIT         ?PR?MAIN?MAIN
            CODE    B065H     007DH     UNIT         ?PR?RELOJ_PANTALLA_LCD?PANTALLAS
            CODE    B0E2H     007CH     UNIT         ?PR?RESPONDE_ESTADO_SENSORES_TRANSPORTE?VERIFICADOR
            CODE    B15EH     0077H     UNIT         ?PR?RESPONDE_TIPO_TARJETA?VERIFICADOR
            CODE    B1D5H     0074H     UNIT         ?PR?_HORA_ENTRADA_VEHICULO?CLOCK
            CODE    B249H     0071H     UNIT         ?PR?_EN_HORARIO?VERIFICADOR
            CODE    B2BAH     0070H     UNIT         ?PR?INGRESO_VEHICULO?VERIFICADOR
            CODE    B32AH     006FH     UNIT         ?PR?_ESCRIBIRMEMORIA?EEPROM
            CODE    B399H     006CH     UNIT         ?PR?_RESPONDE_WRITE_TARJETA_SECTOR1_BLOQUE2?VERIFICADOR
            CODE    B405H     006BH     UNIT         ?PR?_STRCAT?STRCAT
            CODE    B470H     0066H     UNIT         ?PR?_LEERMEMORIA?EEPROM
            CODE    B4D6H     0062H     UNIT         ?PR?_LISTACOMANDOS?PROG
            CODE    B538H     005EH     UNIT         ?PR?_BYTEHEX_DECIMAL?CLOCK
            CODE    B596H     005DH     UNIT         ?PR?_RESPUESTA_SEGUNDA_CLAVE?VERIFICADOR
            CODE    B5F3H     005CH     UNIT         ?PR?_ARMAR_TRAMA_PLACA?VERIFICADOR
            CODE    B64FH     005BH     UNIT         ?PR?VALIDA_SENSOR1_AUTO?IO_SENSORES
            CODE    B6AAH     0056H     UNIT         ?PR?_WR_EEPROM?EEPROM
            CODE    B700H     0054H     UNIT         ?PR?_PREGUNTA_LPR?VERIFICADOR
            CODE    B754H     004DH     UNIT         ?PR?VARIABLE_INICIO?MAIN
            CODE    B7A1H     004DH     UNIT         ?PR?L_D_M?EEPROM
            CODE    B7EEH     004CH     UNIT         ?PR?LEE_NO_TICKET?EEPROM
            CODE    B83AH     004CH     UNIT         ?PR?LOAD_AND_SEND_INFO_RELOJ?PTO_PARALELO
            CODE    B886H     004BH     UNIT         ?PR?_TX_AUX?TIBBO
            CODE    B8D1H     0049H     UNIT         ?PR?_DEBUG_TXT_TIBBO?TIBBO
            CODE    B91AH     0048H     UNIT         ?PR?FIRST_CLAVE?PROG
            CODE    B962H     0047H     UNIT         ?PR?_DEBUG_CHR_TIBBO?TIBBO
            CODE    B9A9H     0047H     UNIT         ?PR?_RESPONDE_WRITE_TARJETA_SECTOR2_BLOQUE0?VERIFICADOR
            CODE    B9F0H     0046H     UNIT         ?PR?_ESCRIBIRCADENASOFT_BUFFER?MAIN
            CODE    BA36H     0046H     UNIT         ?PR?_LCD_TXT_NUM_CHAR?PANTALLAS
            CODE    BA7CH     0046H     UNIT         ?PR?_DEBUG_HEXDEC?TIBBO
            CODE    BAC2H     0044H     UNIT         ?PR?_LCD_TXT?PANTALLAS
            CODE    BB06H     0043H     UNIT         ?PR?DIR_BOARD?IO_SENSORES
            CODE    BB49H     0042H     UNIT         ?PR?_VALIDARCLAVE?PROG
            CODE    BB8BH     0041H     UNIT         ?PR?_MONITOR_CHR?ACCESCAN
            CODE    BBCCH     0041H     UNIT         ?PR?_TWO_ONE?CLOCK
            CODE    BC0DH     0040H     UNIT         ?PR?_GETCMD?PROG
            CODE    BC4DH     0040H     UNIT         ?PR?_DEBUG_PTO_PARALELO?TIBBO
            CODE    BC8DH     003FH     UNIT         ?PR?_EB_CLK?CLOCK
            CODE    BCCCH     003EH     UNIT         ?PR?_PUTCHAR?MAIN
            CODE    BD0AH     003EH     UNIT         ?PR?TRAMA_VALIDACION_P_N?VERIFICADOR
            CODE    BD48H     003DH     UNIT         ?PR?_HEX_BCD?CLOCK
            CODE    BD85H     003DH     UNIT         ?PR?_RD_EEPROM?EEPROM
            CODE    BDC2H     003DH     UNIT         ?PR?_DEBUG_MONITOR?TIBBO
            CODE    BDFFH     003DH     UNIT         ?PR?_LOAD_SECUENCIA_EXPEDIDOR?VERIFICADOR
            CODE    BE3CH     003BH     UNIT         ?CO?ACCESCAN
            CODE    BE77H     003BH     UNIT         ?CO?EEPROM
            CODE    BEB2H     003BH     UNIT         ?PR?_COM_PUTCHAR?UART
            CODE    BEEDH     003AH     UNIT         ?PR?_DELAY_10MS?DELAY
            CODE    BF27H     003AH     UNIT         ?PR?ANALIZA_CARD_MOUNT_RF?VERIFICADOR
            CODE    BF61H     0038H     UNIT         ?PR?VALIDASENSORESPASO?IO_SENSORES
            CODE    BF99H     0036H     UNIT         ?PR?FORMATO_EEPROM?EEPROM
            CODE    BFCFH     0036H     UNIT         ?PR?_RESPONDE_WRITE_TARJETA_SECTOR1_BLOQUE1?VERIFICADOR
            CODE    C005H     0036H     UNIT         ?PR?_RESPONDE_WRITE_TARJETA_SECTOR1_BLOQUE0?VERIFICADOR
            CODE    C03BH     0034H     UNIT         ?PR?INCREMENTE_TICKET?EEPROM
            CODE    C06FH     0034H     UNIT         ?PR?ADDR_HORARIOS?PROG
            CODE    C0A3H     0034H     UNIT         ?PR?ANALIZA_PRESENCIA_MENSUAL?VERIFICADOR
BL51 BANKED LINKER/LOCATER V6.22.2.0                                                  08/02/2021  16:39:51  PAGE 6


            CODE    C0D7H     0031H     UNIT         ?PR?_TARJETA_ROTACION?VERIFICADOR
            CODE    C108H     0030H     UNIT         ?PR?PREGUNTA_PLACA?VERIFICADOR
            CODE    C138H     002EH     UNIT         ?PR?TIMER0_INT?MAIN
            CODE    C166H     002AH     UNIT         ?PR?COM_INITIALIZE?UART
            CODE    C190H     0028H     UNIT         ?PR?_WR_CLK?CLOCK
            CODE    C1B8H     0028H     UNIT         ?PR?COM_BAUDRATE?UART
            CODE    C1E0H     0028H     UNIT         ?PR?_ARMAR_TRAMA_TARJETA_SECTOR1_BLOQUE0?VERIFICADOR
            CODE    C208H     0027H     UNIT         ?PR?_TX_CHRLCD?PANTALLAS
            CODE    C22FH     0026H     UNIT         ?PR?COM_GETCHAR?UART
            CODE    C255H     0026H     UNIT         ?PR?RX_MONITOR?MONITOR
            CODE    C27BH     0023H     UNIT         ?PR?ANALIZA_PRESENCIA_ROTACION?VERIFICADOR
            CODE    C29EH     0022H     UNIT         ?PR?_E_D_M?EEPROM
            CODE    C2C0H     0022H     UNIT         ?PR?VALIDASENSOR_CERO?IO_SENSORES
            CODE    C2E2H     0021H     UNIT         ?CO?PTO_PARALELO
            CODE    C303H     0020H     UNIT         ?PR?ACKD?EEPROM
            CODE    C323H     0020H     UNIT         ?PR?ACK_LECT?EEPROM
            CODE    C343H     001FH     UNIT         ?PR?VALIDASENSOR?IO_SENSORES
            CODE    C362H     001FH     UNIT         ?PR?TIME_BIT?TIBBO
            CODE    C381H     001EH     UNIT         ?PR?_BCD_HEX?CLOCK
            CODE    C39FH     001BH     UNIT         ?PR?_DELAY_1MS?DELAY
            CODE    C3BAH     0018H     UNIT         ?PR?CLEAR_PLACA?MONITOR
            CODE    C3D2H     0017H     UNIT         ?PR?DISPLAYCURSOR?PROG
            CODE    C3E9H     0017H     UNIT         ?PR?TIME_MBIT?TIBBO
            CODE    C400H     0016H     UNIT         ?PR?DIR_BOARD_MONITOR?IO_SENSORES
            CODE    C416H     0014H     UNIT         ?CO?CLOCK
            CODE    C42AH     0014H     UNIT         ?PR?_ISSPACE?ISSPACE
            CODE    C43EH     0012H     UNIT         ?PR?_DELAY_20US?DELAY
            CODE    C450H     0012H     UNIT         ?PR?START?EEPROM
            CODE    C462H     0012H     UNIT         ?PR?BOTTON?IO_SENSORES
            CODE    C474H     0012H     UNIT         ?PR?PULSO_BUS?PTO_PARALELO
            CODE    C486H     0012H     UNIT         ?PR?COM_RBUFLEN?UART
            CODE    C498H     0012H     UNIT         ?PR?COM_TBUFLEN?UART
            CODE    C4AAH     0010H     UNIT         ?PR?INI_TIMER?MAIN
            CODE    C4BAH     0010H     UNIT         ?PR?INICIA_BOARD?MAIN
            CODE    C4CAH     000FH     UNIT         ?PR?_ISDIGIT?ISDIGIT
            CODE    C4D9H     000CH     UNIT         ?PR?_GETKEY?MAIN
            CODE    C4E5H     000AH     UNIT         ?PR?STOP?EEPROM
            CODE    C4EFH     000AH     UNIT         ?PR?COND_INI_PTO?PTO_PARALELO
            CODE    C4F9H     0009H     UNIT         ?PR?DEBUG_DIVIDIR_TEXTO?TIBBO
            CODE    C502H     0009H     UNIT         ?PR?CAPTURA_EXPULSA?VERIFICADOR
            CODE    C50BH     0007H     UNIT         ?PR?COND_INI_CLOCK?CLOCK
            CODE    C512H     0007H     UNIT         ?PR?SEL_FUNCION?IO_SENSORES
            CODE    C519H     0007H     UNIT         ?PR?SEL_AUTO?IO_SENSORES
            CODE    C520H     0007H     UNIT         ?PR?SEL_PULSA?IO_SENSORES
            CODE    C527H     0007H     UNIT         ?PR?SEL_SENSOR2?IO_SENSORES
            CODE    C52EH     0007H     UNIT         ?PR?SEL_SENSOR1?IO_SENSORES
            CODE    C535H     0007H     UNIT         ?PR?SEL_DIR1?IO_SENSORES
            CODE    C53CH     0007H     UNIT         ?PR?SEL_DIR2?IO_SENSORES
            CODE    C543H     0006H     UNIT         ?PR?P_ME?EEPROM
            CODE    C549H     0005H     UNIT         ?PR?ON_TIMER0_INTERRUP?MAIN
            CODE    C54EH     0005H     UNIT         ?PR?COND_INI_TIBBO?TIBBO
            CODE    C553H     0003H     UNIT         ?PR?OFF_TIMER0_INTERRUP?MAIN
            CODE    C556H     0001H     UNIT         ?PR?DELAY?DELAY



OVERLAY MAP OF MODULE:   .\Objects\expedidor_v_01_raspberry (MAIN)
BL51 BANKED LINKER/LOCATER V6.22.2.0                                                  08/02/2021  16:39:51  PAGE 7




SEGMENT                                             BIT_GROUP          DATA_GROUP          XDATA_GROUP
  +--> CALLED SEGMENT                            START    LENGTH     START    LENGTH     START    LENGTH
--------------------------------------------------------------------------------------------------------
?C_C51STARTUP                                    -----    -----      -----    -----      -----    -----
  +--> ?PR?MAIN?MAIN
  +--> ?C_INITSEG

?PR?MAIN?MAIN                                    -----    -----      -----    -----      0000H    0001H
  +--> ?PR?INI_TIMER?MAIN
  +--> ?PR?ON_TIMER0_INTERRUP?MAIN
  +--> ?PR?COM_INITIALIZE?UART
  +--> ?PR?COM_BAUDRATE?UART
  +--> ?PR?INICIA_BOARD?MAIN
  +--> ?PR?TIME_BIT?TIBBO
  +--> ?PR?_DELAY_20US?DELAY
  +--> ?PR?TIME_MBIT?TIBBO
  +--> ?PR?_TX_AUX?TIBBO
  +--> ?PR?SEL_FUNCION?IO_SENSORES
  +--> ?PR?MENU?PROG
  +--> ?PR?VARIABLE_INICIO?MAIN
  +--> ?PR?SECUENCIA_INICIO_EXPEDIDOR?VERIFI...
  +--> ?PR?RX_MONITOR?MONITOR
  +--> ?PR?_SECUENCIAEXPEDIDORMF?VERIFICADOR
  +--> ?PR?_RECIBE_PORT?PTO_PARALELO
  +--> ?PR?_DEBUG_PTO_PARALELO?TIBBO
  +--> ?PR?_VALIDA_TRAMA_PTO?ACCESCAN
  +--> ?PR?MSJ_LCD_INFORMATIVO?IO_SENSORES

?PR?COM_INITIALIZE?UART                          -----    -----      -----    -----      -----    -----
  +--> ?PR?COM_BAUDRATE?UART

?PR?INICIA_BOARD?MAIN                            -----    -----      -----    -----      -----    -----
  +--> ?PR?COND_INI_TIBBO?TIBBO
  +--> ?PR?COND_INI_CLOCK?CLOCK
  +--> ?PR?COND_INI_PTO?PTO_PARALELO

?PR?_TX_AUX?TIBBO                                -----    -----      -----    -----      -----    -----
  +--> ?PR?TIME_BIT?TIBBO

?PR?MENU?PROG                                    -----    -----      -----    -----      0001H    0045H
  +--> ?CO?PROG
  +--> ?PR?PRINTF?PRINTF
  +--> ?PR?_RD_EEPROM?EEPROM
  +--> ?PR?FIRST_CLAVE?PROG
  +--> ?PR?_WR_EEPROM?EEPROM
  +--> ?PR?_LEERMEMORIA?EEPROM
  +--> ?PR?_HASH_ID?PROG
  +--> ?PR?_INGRESADATO?PROG
  +--> ?PR?_GETCMD?PROG
  +--> ?PR?_ESCRIBIRMEMORIA?EEPROM
  +--> ?PR?_VALIDARCLAVE?PROG
  +--> ?PR?DISPLAYCURSOR?PROG
  +--> ?PR?_STRLEN?STRLEN
  +--> ?PR?_GETOPTION?PROG
  +--> ?PR?_STRCAT?STRCAT
BL51 BANKED LINKER/LOCATER V6.22.2.0                                                  08/02/2021  16:39:51  PAGE 8


  +--> ?PR?_LISTACOMANDOS?PROG
  +--> ?PR?PROG_ID_CLIENTE?PROG
  +--> ?PR?PROG_COD_PARK?PROG
  +--> ?PR?PROG_TIEMPO_GRACIA?PROG
  +--> ?PR?PROG_SIN_COBRO?PROG
  +--> ?PR?PROG_DEBUG?PROG
  +--> ?PR?PROG_USE_LPR?PROG
  +--> ?PR?TIPO_PANTALLA?PROG
  +--> ?PR?PROG_TARJETA_AUTOMATICA_O_BOTON?PROG
  +--> ?PR?PROG_ANTIPASSBACK?PROG
  +--> ?PR?PROG_PLACA?PROG
  +--> ?PR?PROG_ADDRESS_HIGH_BOARD?PROG
  +--> ?PR?PROG_HORARIOS?PROG
  +--> ?PR?PROG_VALIDAR_TIPO_VEHICULO_MENSUA...
  +--> ?PR?PROG_APB_MENSUAL?PROG
  +--> ?PR?PROG_MENSUALES?PROG
  +--> ?PR?VER_PROG?PROG
  +--> ?PR?SHOW?PROG
  +--> ?PR?PROG_FECHA_VENCIMIENTO?PROG

?PR?PRINTF?PRINTF                                0020H.0  0001H.1    0008H    0005H      0077H    0030H
  +--> ?PR?_PUTCHAR?MAIN

?PR?_PUTCHAR?MAIN                                -----    -----      -----    -----      00A7H    0003H
  +--> ?PR?_COM_PUTCHAR?UART

?PR?_COM_PUTCHAR?UART                            -----    -----      -----    -----      00AAH    0001H
  +--> ?PR?COM_TBUFLEN?UART

?PR?_RD_EEPROM?EEPROM                            -----    -----      -----    -----      -----    -----
  +--> ?PR?START?EEPROM
  +--> ?PR?ACK_LECT?EEPROM
  +--> ?PR?_E_D_M?EEPROM
  +--> ?PR?ACKD?EEPROM
  +--> ?PR?L_D_M?EEPROM
  +--> ?PR?STOP?EEPROM

?PR?ACK_LECT?EEPROM                              -----    -----      -----    -----      -----    -----
  +--> ?PR?_E_D_M?EEPROM

?PR?_E_D_M?EEPROM                                -----    -----      -----    -----      -----    -----
  +--> ?PR?P_ME?EEPROM

?PR?ACKD?EEPROM                                  -----    -----      -----    -----      -----    -----
  +--> ?PR?_E_D_M?EEPROM

?PR?FIRST_CLAVE?PROG                             -----    -----      -----    -----      0046H    000BH
  +--> ?PR?_BLOCK_READ_CLOCK_ASCII?CLOCK
  +--> ?PR?_HASH_ID?PROG
  +--> ?PR?_ESCRIBIRMEMORIA?EEPROM

?PR?_BLOCK_READ_CLOCK_ASCII?CLOCK                -----    -----      -----    -----      0051H    0003H
  +--> ?PR?_LEE_CLK?CLOCK

?PR?_LEE_CLK?CLOCK                               -----    -----      -----    -----      00B1H    0003H
  +--> ?PR?_DELAY_20US?DELAY
  +--> ?PR?_EB_CLK?CLOCK
BL51 BANKED LINKER/LOCATER V6.22.2.0                                                  08/02/2021  16:39:51  PAGE 9


  +--> ?PR?P_CK?CLOCK

?PR?_EB_CLK?CLOCK                                -----    -----      -----    -----      00B4H    0003H
  +--> ?PR?P_CK?CLOCK

?PR?P_CK?CLOCK                                   -----    -----      -----    -----      -----    -----
  +--> ?PR?DELAY?DELAY

?PR?_HASH_ID?PROG                                -----    -----      -----    -----      005DH    003FH
  +--> ?CO?PROG
  +--> ?PR?_LEERMEMORIA?EEPROM
  +--> ?PR?_CHECK_FECHAOUT?CLOCK
  +--> ?PR?_STRLEN?STRLEN

?PR?_LEERMEMORIA?EEPROM                          -----    -----      -----    -----      009CH    0005H
  +--> ?PR?_RD_EEPROM?EEPROM

?PR?_CHECK_FECHAOUT?CLOCK                        -----    -----      -----    -----      009CH    0012H
  +--> ?PR?_BLOCK_READ_CLOCK_HEX?CLOCK

?PR?_BLOCK_READ_CLOCK_HEX?CLOCK                  -----    -----      -----    -----      00AEH    0003H
  +--> ?PR?_LEE_CLK?CLOCK
  +--> ?PR?_BCD_HEX?CLOCK

?PR?_ESCRIBIRMEMORIA?EEPROM                      -----    -----      -----    -----      005DH    0005H
  +--> ?PR?_WR_EEPROM?EEPROM

?PR?_WR_EEPROM?EEPROM                            -----    -----      -----    -----      -----    -----
  +--> ?PR?START?EEPROM
  +--> ?PR?ACKD?EEPROM
  +--> ?PR?_E_D_M?EEPROM
  +--> ?PR?STOP?EEPROM
  +--> ?PR?_DELAY_1MS?DELAY
  +--> ?PR?_DELAY_20US?DELAY

?PR?_DELAY_1MS?DELAY                             -----    -----      -----    -----      -----    -----
  +--> ?PR?_DELAY_20US?DELAY

?PR?_INGRESADATO?PROG                            -----    -----      -----    -----      0071H    0004H
  +--> ?PR?_GETKEY?MAIN
  +--> ?CO?PROG
  +--> ?PR?PRINTF?PRINTF
  +--> ?PR?_PUTCHAR?MAIN

?PR?_GETKEY?MAIN                                 -----    -----      -----    -----      -----    -----
  +--> ?PR?COM_GETCHAR?UART

?PR?COM_GETCHAR?UART                             -----    -----      -----    -----      -----    -----
  +--> ?PR?COM_RBUFLEN?UART

?PR?_GETCMD?PROG                                 -----    -----      -----    -----      005DH    0007H
  +--> ?CO?PROG
  +--> ?PR?_STRTOK?STRTOK

?PR?_STRTOK?STRTOK                               -----    -----      -----    -----      0064H    0006H
  +--> ?PR?_STRSPN?STRSPN
  +--> ?PR?_STRPBRK?STRPBRK
BL51 BANKED LINKER/LOCATER V6.22.2.0                                                  08/02/2021  16:39:51  PAGE 10



?PR?_STRSPN?STRSPN                               -----    -----      -----    -----      006AH    0008H

?PR?_STRPBRK?STRPBRK                             -----    -----      -----    -----      006AH    0009H

?PR?_VALIDARCLAVE?PROG                           -----    -----      -----    -----      005DH    000EH

?PR?DISPLAYCURSOR?PROG                           -----    -----      -----    -----      -----    -----
  +--> ?CO?PROG
  +--> ?PR?PRINTF?PRINTF

?PR?_GETOPTION?PROG                              -----    -----      -----    -----      0046H    000BH
  +--> ?CO?PROG
  +--> ?PR?_STRTOK?STRTOK

?PR?_STRCAT?STRCAT                               -----    -----      -----    -----      0046H    0009H

?PR?_LISTACOMANDOS?PROG                          -----    -----      -----    -----      0046H    0007H

?PR?PROG_ID_CLIENTE?PROG                         -----    -----      -----    -----      0046H    000CH
  +--> ?PR?_RD_EEPROM?EEPROM
  +--> ?CO?PROG
  +--> ?PR?PRINTF?PRINTF
  +--> ?PR?_INGRESADATO?PROG
  +--> ?PR?_ATOI?ATOI
  +--> ?PR?_WR_EEPROM?EEPROM

?PR?_ATOI?ATOI                                   0020H.0  0000H.1    -----    -----      0071H    0005H
  +--> ?PR?_ISSPACE?ISSPACE
  +--> ?PR?_ISDIGIT?ISDIGIT

?PR?PROG_COD_PARK?PROG                           -----    -----      -----    -----      0046H    000CH
  +--> ?PR?_RD_EEPROM?EEPROM
  +--> ?CO?PROG
  +--> ?PR?PRINTF?PRINTF
  +--> ?PR?_INGRESADATO?PROG
  +--> ?PR?_ATOI?ATOI
  +--> ?PR?_WR_EEPROM?EEPROM

?PR?PROG_TIEMPO_GRACIA?PROG                      -----    -----      -----    -----      0046H    000CH
  +--> ?PR?_RD_EEPROM?EEPROM
  +--> ?CO?PROG
  +--> ?PR?PRINTF?PRINTF
  +--> ?PR?_INGRESADATO?PROG
  +--> ?PR?_ATOI?ATOI
  +--> ?PR?_WR_EEPROM?EEPROM

?PR?PROG_SIN_COBRO?PROG                          -----    -----      -----    -----      0046H    000CH
  +--> ?PR?_RD_EEPROM?EEPROM
  +--> ?CO?PROG
  +--> ?PR?PRINTF?PRINTF
  +--> ?PR?_INGRESADATO?PROG
  +--> ?PR?_ATOI?ATOI
  +--> ?PR?_WR_EEPROM?EEPROM

?PR?PROG_DEBUG?PROG                              -----    -----      -----    -----      0046H    000CH
  +--> ?PR?_RD_EEPROM?EEPROM
BL51 BANKED LINKER/LOCATER V6.22.2.0                                                  08/02/2021  16:39:51  PAGE 11


  +--> ?CO?PROG
  +--> ?PR?PRINTF?PRINTF
  +--> ?PR?_INGRESADATO?PROG
  +--> ?PR?_ATOI?ATOI
  +--> ?PR?_WR_EEPROM?EEPROM

?PR?PROG_USE_LPR?PROG                            -----    -----      -----    -----      0046H    000CH
  +--> ?PR?_RD_EEPROM?EEPROM
  +--> ?CO?PROG
  +--> ?PR?PRINTF?PRINTF
  +--> ?PR?_INGRESADATO?PROG
  +--> ?PR?_ATOI?ATOI
  +--> ?PR?_WR_EEPROM?EEPROM

?PR?TIPO_PANTALLA?PROG                           -----    -----      -----    -----      0046H    000CH
  +--> ?PR?_RD_EEPROM?EEPROM
  +--> ?CO?PROG
  +--> ?PR?PRINTF?PRINTF
  +--> ?PR?_INGRESADATO?PROG
  +--> ?PR?_ATOI?ATOI
  +--> ?PR?_WR_EEPROM?EEPROM

?PR?PROG_TARJETA_AUTOMATICA_O_BOTON?PROG         -----    -----      -----    -----      0046H    000CH
  +--> ?PR?_RD_EEPROM?EEPROM
  +--> ?CO?PROG
  +--> ?PR?PRINTF?PRINTF
  +--> ?PR?_INGRESADATO?PROG
  +--> ?PR?_ATOI?ATOI
  +--> ?PR?_WR_EEPROM?EEPROM

?PR?PROG_ANTIPASSBACK?PROG                       -----    -----      -----    -----      0046H    000CH
  +--> ?PR?_RD_EEPROM?EEPROM
  +--> ?CO?PROG
  +--> ?PR?PRINTF?PRINTF
  +--> ?PR?_INGRESADATO?PROG
  +--> ?PR?_ATOI?ATOI
  +--> ?PR?_WR_EEPROM?EEPROM

?PR?PROG_PLACA?PROG                              -----    -----      -----    -----      0046H    000CH
  +--> ?PR?_RD_EEPROM?EEPROM
  +--> ?CO?PROG
  +--> ?PR?PRINTF?PRINTF
  +--> ?PR?_INGRESADATO?PROG
  +--> ?PR?_ATOI?ATOI
  +--> ?PR?_WR_EEPROM?EEPROM

?PR?PROG_ADDRESS_HIGH_BOARD?PROG                 -----    -----      -----    -----      0046H    000CH
  +--> ?PR?_RD_EEPROM?EEPROM
  +--> ?CO?PROG
  +--> ?PR?PRINTF?PRINTF
  +--> ?PR?_INGRESADATO?PROG
  +--> ?PR?_ATOI?ATOI
  +--> ?PR?_WR_EEPROM?EEPROM

?PR?PROG_HORARIOS?PROG                           -----    -----      -----    -----      0046H    001BH
  +--> ?PR?ADDR_HORARIOS?PROG
  +--> ?CO?PROG
BL51 BANKED LINKER/LOCATER V6.22.2.0                                                  08/02/2021  16:39:51  PAGE 12


  +--> ?PR?PRINTF?PRINTF
  +--> ?PR?_INGRESADATO?PROG
  +--> ?PR?_ATOI?ATOI
  +--> ?PR?_PROG_HORARIOS_ON_OFF?PROG
  +--> ?PR?_WR_EEPROM?EEPROM
  +--> ?PR?_PROG_HORARIO_DIAS?PROG
  +--> ?PR?_PROG_HORARIO_DESDE_HASTA?PROG
  +--> ?PR?_RD_EEPROM?EEPROM

?PR?ADDR_HORARIOS?PROG                           -----    -----      -----    -----      0074H    000BH

?PR?_PROG_HORARIOS_ON_OFF?PROG                   -----    -----      -----    -----      0061H    0010H
  +--> ?PR?_RD_EEPROM?EEPROM
  +--> ?CO?PROG
  +--> ?PR?PRINTF?PRINTF
  +--> ?PR?_INGRESADATO?PROG
  +--> ?PR?_ATOI?ATOI
  +--> ?PR?_WR_EEPROM?EEPROM

?PR?_PROG_HORARIO_DIAS?PROG                      -----    -----      -----    -----      0061H    000FH
  +--> ?CO?PROG
  +--> ?PR?PRINTF?PRINTF
  +--> ?PR?_INGRESADATO?PROG
  +--> ?PR?_WR_EEPROM?EEPROM
  +--> ?PR?_RD_EEPROM?EEPROM

?PR?_PROG_HORARIO_DESDE_HASTA?PROG               -----    -----      -----    -----      0061H    000CH
  +--> ?CO?PROG
  +--> ?PR?PRINTF?PRINTF
  +--> ?PR?_INGRESADATO?PROG
  +--> ?PR?_WR_EEPROM?EEPROM
  +--> ?PR?_RD_EEPROM?EEPROM

?PR?PROG_VALIDAR_TIPO_VEHICULO_MENSUA...         -----    -----      -----    -----      0046H    000CH
  +--> ?PR?_RD_EEPROM?EEPROM
  +--> ?CO?PROG
  +--> ?PR?PRINTF?PRINTF
  +--> ?PR?_INGRESADATO?PROG
  +--> ?PR?_ATOI?ATOI
  +--> ?PR?_WR_EEPROM?EEPROM

?PR?PROG_APB_MENSUAL?PROG                        -----    -----      -----    -----      0046H    000CH
  +--> ?PR?_RD_EEPROM?EEPROM
  +--> ?CO?PROG
  +--> ?PR?PRINTF?PRINTF
  +--> ?PR?_INGRESADATO?PROG
  +--> ?PR?_ATOI?ATOI
  +--> ?PR?_WR_EEPROM?EEPROM

?PR?PROG_MENSUALES?PROG                          -----    -----      -----    -----      0046H    000CH
  +--> ?PR?_RD_EEPROM?EEPROM
  +--> ?CO?PROG
  +--> ?PR?PRINTF?PRINTF
  +--> ?PR?_INGRESADATO?PROG
  +--> ?PR?_ATOI?ATOI
  +--> ?PR?_WR_EEPROM?EEPROM

BL51 BANKED LINKER/LOCATER V6.22.2.0                                                  08/02/2021  16:39:51  PAGE 13


?PR?VER_PROG?PROG                                -----    -----      -----    -----      0046H    0013H
  +--> ?PR?_RD_EEPROM?EEPROM
  +--> ?CO?PROG
  +--> ?PR?PRINTF?PRINTF
  +--> ?PR?VER_HORARIO?PROG
  +--> ?PR?_LEERMEMORIA?EEPROM
  +--> ?PR?_HEX_ASCII?CLOCK
  +--> ?PR?LEE_NO_TICKET?EEPROM

?PR?VER_HORARIO?PROG                             -----    -----      -----    -----      0059H    001BH
  +--> ?PR?ADDR_HORARIOS?PROG
  +--> ?CO?PROG
  +--> ?PR?PRINTF?PRINTF
  +--> ?PR?_RD_EEPROM?EEPROM
  +--> ?PR?_VER_HORARIO_DIAS?PROG
  +--> ?PR?_VER_HORARIO_DESDE_HASTA?PROG

?PR?_VER_HORARIO_DIAS?PROG                       -----    -----      -----    -----      0074H    0003H
  +--> ?PR?_RD_EEPROM?EEPROM
  +--> ?CO?PROG
  +--> ?PR?PRINTF?PRINTF

?PR?_VER_HORARIO_DESDE_HASTA?PROG                -----    -----      -----    -----      0074H    0002H
  +--> ?CO?PROG
  +--> ?PR?PRINTF?PRINTF
  +--> ?PR?_RD_EEPROM?EEPROM

?PR?_HEX_ASCII?CLOCK                             -----    -----      -----    -----      005DH    0006H
  +--> ?PR?_HEX_BCD?CLOCK

?PR?LEE_NO_TICKET?EEPROM                         -----    -----      -----    -----      0059H    000BH
  +--> ?PR?READ_EEPROM_TICKET?EEPROM
  +--> ?CO?EEPROM
  +--> ?PR?PRINTF?PRINTF
  +--> ?PR?_STRLEN?STRLEN
  +--> ?PR?_DEBUG_TXT_TIBBO?TIBBO

?PR?READ_EEPROM_TICKET?EEPROM                    -----    -----      -----    -----      0064H    0007H
  +--> ?PR?_RD_EEPROM?EEPROM

?PR?_DEBUG_TXT_TIBBO?TIBBO                       -----    -----      -----    -----      0064H    0004H
  +--> ?PR?_DEBUG_CHR_TIBBO?TIBBO
  +--> ?CO?TIBBO
  +--> ?PR?_TX_AUX?TIBBO

?PR?_DEBUG_CHR_TIBBO?TIBBO                       -----    -----      -----    -----      -----    -----
  +--> ?PR?_TX_AUX?TIBBO

?PR?SHOW?PROG                                    -----    -----      -----    -----      -----    -----
  +--> ?CO?PROG
  +--> ?PR?PRINTF?PRINTF

?PR?PROG_FECHA_VENCIMIENTO?PROG                  -----    -----      -----    -----      0046H    0017H
  +--> ?PR?_LEERMEMORIA?EEPROM
  +--> ?PR?_HEX_ASCII?CLOCK
  +--> ?CO?PROG
  +--> ?PR?PRINTF?PRINTF
BL51 BANKED LINKER/LOCATER V6.22.2.0                                                  08/02/2021  16:39:51  PAGE 14


  +--> ?PR?_HASH_ID?PROG
  +--> ?PR?_INGRESADATO?PROG
  +--> ?PR?_GETCMD?PROG
  +--> ?PR?_ESCRIBIRMEMORIA?EEPROM
  +--> ?PR?_VALIDARCLAVE?PROG
  +--> ?PR?_ATOI?ATOI
  +--> ?PR?_WR_EEPROM?EEPROM

?PR?VARIABLE_INICIO?MAIN                         -----    -----      -----    -----      -----    -----
  +--> ?PR?_RD_EEPROM?EEPROM

?PR?SECUENCIA_INICIO_EXPEDIDOR?VERIFI...         -----    -----      -----    -----      0001H    0001H
  +--> ?PR?_INICIALIZA?LINTECH
  +--> ?PR?TRAMA_VALIDACION_P_N?VERIFICADOR
  +--> ?CO?VERIFICADOR
  +--> ?PR?_DEBUG_TXT_TIBBO?TIBBO
  +--> ?PR?_DEBUGBUFFERMF?TIBBO
  +--> ?PR?DWLOAD_EEPROM?LINTECH

?PR?_INICIALIZA?LINTECH                          -----    -----      -----    -----      0002H    000CH
  +--> ?CO?LINTECH
  +--> ?PR?_DEBUG_TXT_TIBBO?TIBBO
  +--> ?PR?_DEBUGBUFFERMF?TIBBO
  +--> ?PR?_ESCRIBIRCADENASOFT_BUFFER?MAIN

?PR?_DEBUGBUFFERMF?TIBBO                         -----    -----      -----    -----      0027H    0006H
  +--> ?CO?TIBBO
  +--> ?PR?_DEBUG_TXT_TIBBO?TIBBO
  +--> ?PR?_DEBUG_CHR_TIBBO?TIBBO
  +--> ?PR?_TX_AUX?TIBBO

?PR?_ESCRIBIRCADENASOFT_BUFFER?MAIN              -----    -----      -----    -----      0027H    0006H
  +--> ?PR?_PUTCHAR?MAIN

?PR?TRAMA_VALIDACION_P_N?VERIFICADOR             -----    -----      -----    -----      -----    -----
  +--> ?CO?VERIFICADOR
  +--> ?PR?_DEBUG_TXT_TIBBO?TIBBO

?PR?DWLOAD_EEPROM?LINTECH                        -----    -----      -----    -----      0002H    0016H
  +--> ?CO?LINTECH
  +--> ?PR?_DEBUG_TXT_TIBBO?TIBBO
  +--> ?PR?_DEBUGBUFFERMF?TIBBO
  +--> ?PR?_ESCRIBIRCADENASOFT_BUFFER?MAIN

?PR?RX_MONITOR?MONITOR                           -----    -----      -----    -----      0009H    000DH
  +--> ?PR?_RECIBE_CMD_MONITOR?MONITOR
  +--> ?PR?_DEBUG_MONITOR?TIBBO
  +--> ?PR?_VALIDA_TRAMA_MONITOR?MONITOR

?PR?_RECIBE_CMD_MONITOR?MONITOR                  -----    -----      -----    -----      0016H    0009H
  +--> ?PR?RX_DATA?TIBBO

?PR?RX_DATA?TIBBO                                -----    -----      -----    -----      -----    -----
  +--> ?PR?TIME_MBIT?TIBBO
  +--> ?PR?TIME_BIT?TIBBO

?PR?_DEBUG_MONITOR?TIBBO                         -----    -----      -----    -----      0016H    0004H
BL51 BANKED LINKER/LOCATER V6.22.2.0                                                  08/02/2021  16:39:51  PAGE 15


  +--> ?PR?DEBUG_DIVIDIR_TEXTO?TIBBO
  +--> ?CO?TIBBO
  +--> ?PR?_DEBUG_TXT_TIBBO?TIBBO

?PR?DEBUG_DIVIDIR_TEXTO?TIBBO                    -----    -----      -----    -----      -----    -----
  +--> ?CO?TIBBO
  +--> ?PR?_DEBUG_TXT_TIBBO?TIBBO

?PR?_VALIDA_TRAMA_MONITOR?MONITOR                -----    -----      -----    -----      0016H    0006H
  +--> ?PR?_DELAY_10MS?DELAY
  +--> ?PR?_TX_AUX?TIBBO

?PR?_DELAY_10MS?DELAY                            -----    -----      -----    -----      001CH    0004H
  +--> ?PR?_DELAY_1MS?DELAY

?PR?_SECUENCIAEXPEDIDORMF?VERIFICADOR            -----    -----      -----    -----      0001H    0001H
  +--> ?PR?_CHECK_STATUS?LINTECH
  +--> ?PR?_LOAD_SECUENCIA_EXPEDIDOR?VERIFIC...
  +--> ?PR?RX_MONITOR?MONITOR
  +--> ?PR?_RTA_CMD_TRANSPORTE?VERIFICADOR
  +--> ?PR?_MOV_CARD?LINTECH
  +--> ?PR?_CARD_INSERCION?LINTECH
  +--> ?PR?AUT_CARD_CHECK_STATUS?LINTECH
  +--> ?PR?LOADVERIFY_EEPROM?LINTECH
  +--> ?PR?_RD_MF?LINTECH
  +--> ?PR?_WR_MF?LINTECH
  +--> ?PR?ANALIZA_CARD_MOUNT_RF?VERIFICADOR
  +--> ?PR?DWLOAD_EEPROM?LINTECH
  +--> ?PR?ENTREGA_CARD_CAPTURA?VERIFICADOR
  +--> ?PR?_SEND_PTO_PARALELO?VERIFICADOR
  +--> ?PR?_WAIT_PLACA?VERIFICADOR
  +--> ?PR?UNIQUE_IDENTIFIER_UID?LINTECH
  +--> ?PR?_PREGUNTA_LPR?VERIFICADOR
  +--> ?PR?PREGUNTA_PLACA?VERIFICADOR
  +--> ?PR?_VALIDA_TIPO_TARJETA?VERIFICADOR
  +--> ?PR?POWER_OFF?LINTECH
  +--> ?PR?CLAVE_SEGURIDAD_S2?LINTECH
  +--> ?PR?_RESPONDE_REELECTURA_TARJETA_SECT...
  +--> ?PR?RESPONDE_ESTADO_SENSORES_TRANSPOR...
  +--> ?PR?RESPONDE_TIPO_TARJETA?VERIFICADOR
  +--> ?PR?_RESPONDE_LECTURA_TARJETA_SECTOR1...
  +--> ?PR?_RESPONDE_LECTURA_TARJETA_SECTOR1...
  +--> ?PR?_RESPONDE_LECTURA_TARJETA_SECTOR1...
  +--> ?PR?_RESPONDE_WRITE_TARJETA_SECTOR1_B...
  +--> ?PR?_RESPONDE_WRITE_TARJETA_SECTOR2_B...
  +--> ?PR?_RESPONDE_WRITE_TARJETA_SECTOR1_B...
  +--> ?PR?_RESPONDE_WRITE_TARJETA_SECTOR1_B...
  +--> ?PR?_DISPARO_LOCK_ENTRADA_VEHICULO?VE...
  +--> ?PR?_RESPUESTA_SEGUNDA_CLAVE?VERIFICADOR
  +--> ?PR?ANALIZA_PRESENCIA_MENSUAL?VERIFIC...
  +--> ?PR?_ANALIZA_UID_CARD?VERIFICADOR
  +--> ?PR?ANALIZA_PRESENCIA_ROTACION?VERIFI...
  +--> ?CO?VERIFICADOR
  +--> ?PR?_DEBUG_TXT_TIBBO?TIBBO

?PR?_CHECK_STATUS?LINTECH                        -----    -----      -----    -----      0002H    000BH
  +--> ?CO?LINTECH
BL51 BANKED LINKER/LOCATER V6.22.2.0                                                  08/02/2021  16:39:51  PAGE 16


  +--> ?PR?_DEBUG_TXT_TIBBO?TIBBO
  +--> ?PR?_DEBUGBUFFERMF?TIBBO
  +--> ?PR?_ESCRIBIRCADENASOFT_BUFFER?MAIN

?PR?_LOAD_SECUENCIA_EXPEDIDOR?VERIFIC...         -----    -----      -----    -----      0002H    0009H

?PR?_RTA_CMD_TRANSPORTE?VERIFICADOR              -----    -----      -----    -----      0002H    0005H
  +--> ?PR?TRAMA_VALIDACION_P_N?VERIFICADOR
  +--> ?CO?VERIFICADOR
  +--> ?PR?_DEBUG_TXT_TIBBO?TIBBO
  +--> ?PR?_DEBUGBUFFERMF?TIBBO
  +--> ?PR?ERROR_RX_PTO?VERIFICADOR

?PR?ERROR_RX_PTO?VERIFICADOR                     -----    -----      -----    -----      0007H    0001H
  +--> ?CO?VERIFICADOR
  +--> ?PR?_DEBUG_TXT_TIBBO?TIBBO
  +--> ?PR?_DEBUG_CHR_TIBBO?TIBBO
  +--> ?PR?_DELAY_10MS?DELAY

?PR?_MOV_CARD?LINTECH                            -----    -----      -----    -----      0002H    000CH
  +--> ?CO?LINTECH
  +--> ?PR?_DEBUG_TXT_TIBBO?TIBBO
  +--> ?PR?_DEBUGBUFFERMF?TIBBO
  +--> ?PR?_ESCRIBIRCADENASOFT_BUFFER?MAIN

?PR?_CARD_INSERCION?LINTECH                      -----    -----      -----    -----      0002H    000AH
  +--> ?CO?LINTECH
  +--> ?PR?_DEBUG_TXT_TIBBO?TIBBO
  +--> ?PR?_DEBUGBUFFERMF?TIBBO
  +--> ?PR?_ESCRIBIRCADENASOFT_BUFFER?MAIN

?PR?AUT_CARD_CHECK_STATUS?LINTECH                -----    -----      -----    -----      0002H    000BH
  +--> ?CO?LINTECH
  +--> ?PR?_DEBUG_TXT_TIBBO?TIBBO
  +--> ?PR?_DEBUGBUFFERMF?TIBBO
  +--> ?PR?_ESCRIBIRCADENASOFT_BUFFER?MAIN

?PR?LOADVERIFY_EEPROM?LINTECH                    -----    -----      -----    -----      0002H    0010H
  +--> ?CO?LINTECH
  +--> ?PR?_DEBUG_TXT_TIBBO?TIBBO
  +--> ?PR?_DEBUGBUFFERMF?TIBBO
  +--> ?PR?_ESCRIBIRCADENASOFT_BUFFER?MAIN

?PR?_RD_MF?LINTECH                               -----    -----      -----    -----      0002H    0012H
  +--> ?CO?LINTECH
  +--> ?PR?_DEBUG_TXT_TIBBO?TIBBO
  +--> ?PR?_DEBUG_CHR_TIBBO?TIBBO
  +--> ?PR?_DEBUGBUFFERMF?TIBBO
  +--> ?PR?_ESCRIBIRCADENASOFT_BUFFER?MAIN

?PR?_WR_MF?LINTECH                               -----    -----      -----    -----      0002H    0025H
  +--> ?CO?LINTECH
  +--> ?PR?_DEBUG_TXT_TIBBO?TIBBO
  +--> ?PR?_DEBUG_CHR_TIBBO?TIBBO
  +--> ?PR?_DEBUGBUFFERMF?TIBBO
  +--> ?PR?_ESCRIBIRCADENASOFT_BUFFER?MAIN

BL51 BANKED LINKER/LOCATER V6.22.2.0                                                  08/02/2021  16:39:51  PAGE 17


?PR?ANALIZA_CARD_MOUNT_RF?VERIFICADOR            -----    -----      -----    -----      0002H    0001H
  +--> ?CO?VERIFICADOR
  +--> ?PR?_DEBUG_TXT_TIBBO?TIBBO

?PR?ENTREGA_CARD_CAPTURA?VERIFICADOR             -----    -----      -----    -----      0002H    0001H
  +--> ?CO?VERIFICADOR
  +--> ?PR?_DEBUG_TXT_TIBBO?TIBBO
  +--> ?PR?SEL_SENSOR2?IO_SENSORES
  +--> ?PR?VALIDASENSOR?IO_SENSORES
  +--> ?PR?VALIDA_SENSOR1_AUTO?IO_SENSORES

?PR?VALIDA_SENSOR1_AUTO?IO_SENSORES              -----    -----      -----    -----      0012H    0001H
  +--> ?PR?SEL_SENSOR1?IO_SENSORES
  +--> ?PR?SEL_AUTO?IO_SENSORES
  +--> ?CO?IO_SENSORES
  +--> ?PR?_DEBUG_TXT_TIBBO?TIBBO
  +--> ?PR?BOTTON?IO_SENSORES

?PR?BOTTON?IO_SENSORES                           -----    -----      -----    -----      -----    -----
  +--> ?PR?SEL_PULSA?IO_SENSORES
  +--> ?CO?IO_SENSORES
  +--> ?PR?_DEBUG_TXT_TIBBO?TIBBO

?PR?_SEND_PTO_PARALELO?VERIFICADOR               -----    -----      -----    -----      0002H    0007H
  +--> ?PR?_ARMAR_TRAMA_PTO_PARALELO_EXPEDID...
  +--> ?PR?_ARMAR_TRAMA_PTO_PARALELO_EXPEDID...
  +--> ?PR?INCREMENTE_TICKET?EEPROM
  +--> ?PR?_SEND_PORT?PTO_PARALELO
  +--> ?CO?VERIFICADOR
  +--> ?PR?_DEBUG_TXT_TIBBO?TIBBO
  +--> ?PR?_DEBUGBUFFERMF?TIBBO
  +--> ?PR?CLEAR_PLACA?MONITOR

?PR?_ARMAR_TRAMA_PTO_PARALELO_EXPEDID...         -----    -----      -----    -----      0009H    0006H
  +--> ?PR?_BCD_HEX?CLOCK
  +--> ?PR?_RD_EEPROM?EEPROM

?PR?_ARMAR_TRAMA_PTO_PARALELO_EXPEDID...         -----    -----      -----    -----      0009H    0012H
  +--> ?PR?LEE_NO_TICKET?EEPROM
  +--> ?PR?_STRCAT?STRCAT
  +--> ?PR?_STRLEN?STRLEN
  +--> ?PR?_BCD_HEX?CLOCK
  +--> ?PR?_RD_EEPROM?EEPROM

?PR?INCREMENTE_TICKET?EEPROM                     -----    -----      -----    -----      0009H    000BH
  +--> ?PR?READ_EEPROM_TICKET?EEPROM
  +--> ?CO?EEPROM
  +--> ?PR?PRINTF?PRINTF
  +--> ?PR?_WRITE_EEPROM_TICKET?EEPROM

?PR?_WRITE_EEPROM_TICKET?EEPROM                  -----    -----      -----    -----      0016H    000BH
  +--> ?CO?EEPROM
  +--> ?PR?_DEBUG_TXT_TIBBO?TIBBO
  +--> ?PR?_ATOL?ATOL
  +--> ?PR?_DEBUG_CHR_TIBBO?TIBBO
  +--> ?PR?_WR_EEPROM?EEPROM

BL51 BANKED LINKER/LOCATER V6.22.2.0                                                  08/02/2021  16:39:51  PAGE 18


?PR?_ATOL?ATOL                                   0020H.0  0000H.1    -----    -----      0021H    0007H
  +--> ?PR?_ISSPACE?ISSPACE
  +--> ?PR?_ISDIGIT?ISDIGIT

?PR?_SEND_PORT?PTO_PARALELO                      -----    -----      -----    -----      0016H    000AH
  +--> ?PR?PULSO_BUS?PTO_PARALELO
  +--> ?PR?_DELAY_20US?DELAY

?PR?PULSO_BUS?PTO_PARALELO                       -----    -----      -----    -----      -----    -----
  +--> ?PR?_DELAY_20US?DELAY

?PR?_WAIT_PLACA?VERIFICADOR                      -----    -----      -----    -----      0002H    0007H
  +--> ?CO?VERIFICADOR
  +--> ?PR?_DEBUG_TXT_TIBBO?TIBBO
  +--> ?PR?RX_MONITOR?MONITOR
  +--> ?PR?_RESPUESTA_PLACA_CANCEL?VERIFICADOR

?PR?_RESPUESTA_PLACA_CANCEL?VERIFICADOR          -----    -----      -----    -----      0009H    000AH
  +--> ?CO?VERIFICADOR
  +--> ?PR?_DEBUG_TXT_TIBBO?TIBBO
  +--> ?PR?_ARMAR_TRAMA_TARJETA_SECTOR1_BLOQ...

?PR?_ARMAR_TRAMA_TARJETA_SECTOR1_BLOQ...         -----    -----      -----    -----      0013H    0004H
  +--> ?PR?CLEAR_PLACA?MONITOR
  +--> ?PR?_RD_EEPROM?EEPROM

?PR?UNIQUE_IDENTIFIER_UID?LINTECH                -----    -----      -----    -----      0002H    000BH
  +--> ?CO?LINTECH
  +--> ?PR?_DEBUG_TXT_TIBBO?TIBBO
  +--> ?PR?_DEBUGBUFFERMF?TIBBO
  +--> ?PR?_ESCRIBIRCADENASOFT_BUFFER?MAIN

?PR?_PREGUNTA_LPR?VERIFICADOR                    -----    -----      -----    -----      0002H    0003H
  +--> ?CO?VERIFICADOR
  +--> ?PR?_DEBUG_TXT_TIBBO?TIBBO
  +--> ?PR?_HORA_ENTRADA_VEHICULO?CLOCK
  +--> ?PR?_RD_EEPROM?EEPROM
  +--> ?PR?_ARMAR_TRAMA_MONITOR?VERIFICADOR

?PR?_HORA_ENTRADA_VEHICULO?CLOCK                 -----    -----      -----    -----      0005H    0003H
  +--> ?PR?_LEE_CLK?CLOCK

?PR?_ARMAR_TRAMA_MONITOR?VERIFICADOR             -----    -----      -----    -----      0005H    000FH
  +--> ?PR?DIR_BOARD_MONITOR?IO_SENSORES
  +--> ?PR?LEE_NO_TICKET?EEPROM
  +--> ?PR?_STRCAT?STRCAT
  +--> ?PR?_BYTEHEX_DECIMAL?CLOCK
  +--> ?PR?_STRLEN?STRLEN
  +--> ?PR?_TWO_BYTEHEX_DECIMAL?CLOCK

?PR?DIR_BOARD_MONITOR?IO_SENSORES                -----    -----      -----    -----      -----    -----
  +--> ?PR?_RD_EEPROM?EEPROM

?PR?_BYTEHEX_DECIMAL?CLOCK                       -----    -----      -----    -----      0014H    0001H

?PR?_TWO_BYTEHEX_DECIMAL?CLOCK                   -----    -----      -----    -----      0014H    000CH
  +--> ?PR?_POW?POW
BL51 BANKED LINKER/LOCATER V6.22.2.0                                                  08/02/2021  16:39:51  PAGE 19



?PR?_POW?POW                                     -----    -----      -----    -----      0020H    000AH
  +--> ?PR?LOG?LOG
  +--> ?PR?EXP?EXP

?PR?LOG?LOG                                      0020H.0  0000H.1    -----    -----      002AH    0004H

?PR?PREGUNTA_PLACA?VERIFICADOR                   -----    -----      -----    -----      0002H    0001H
  +--> ?CO?VERIFICADOR
  +--> ?PR?_DEBUG_TXT_TIBBO?TIBBO
  +--> ?PR?_RD_EEPROM?EEPROM

?PR?_VALIDA_TIPO_TARJETA?VERIFICADOR             -----    -----      -----    -----      0002H    0007H
  +--> ?CO?VERIFICADOR
  +--> ?PR?_DEBUG_TXT_TIBBO?TIBBO
  +--> ?PR?_RD_EEPROM?EEPROM
  +--> ?PR?_TARJETA_MENSUAL?VERIFICADOR
  +--> ?PR?_SEND_PORTERR?PTO_PARALELO
  +--> ?PR?_PANTALLALCD?PANTALLAS
  +--> ?PR?CAPTURA_EXPULSA?VERIFICADOR
  +--> ?PR?_TARJETA_ROTACION?VERIFICADOR

?PR?_TARJETA_MENSUAL?VERIFICADOR                 -----    -----      -----    -----      0009H    0007H
  +--> ?PR?_HORARIOS?VERIFICADOR
  +--> ?PR?_CHECK_FECHAOUT?CLOCK
  +--> ?PR?_VALIDA_VEHICULO_CARD_MENSUAL?VER...
  +--> ?PR?CAPTURA_EXPULSA?VERIFICADOR
  +--> ?CO?VERIFICADOR
  +--> ?PR?_DEBUG_TXT_TIBBO?TIBBO
  +--> ?PR?_ARMAR_TRAMA_TARJETA_SECTOR1_BLOQ...
  +--> ?PR?_SEND_PORTERR?PTO_PARALELO
  +--> ?PR?_PANTALLALCD?PANTALLAS

?PR?_HORARIOS?VERIFICADOR                        -----    -----      -----    -----      0010H    0013H
  +--> ?PR?ADDR_HORARIOS?PROG
  +--> ?PR?_RD_EEPROM?EEPROM
  +--> ?PR?_LEE_CLK?CLOCK
  +--> ?CO?VERIFICADOR
  +--> ?PR?_DEBUG_TXT_TIBBO?TIBBO
  +--> ?PR?_DEBUG_CHR_TIBBO?TIBBO
  +--> ?PR?_BLOQUE_HORARIO?VERIFICADOR
  +--> ?PR?_PANTALLALCD?PANTALLAS

?PR?_BLOQUE_HORARIO?VERIFICADOR                  -----    -----      -----    -----      0023H    0007H
  +--> ?CO?VERIFICADOR
  +--> ?PR?_DEBUG_TXT_TIBBO?TIBBO
  +--> ?PR?_LEE_CLK?CLOCK
  +--> ?PR?_DEBUG_CHR_TIBBO?TIBBO
  +--> ?PR?_HORA_MAXIMA?VERIFICADOR
  +--> ?PR?_EN_HORARIO?VERIFICADOR
  +--> ?PR?_RD_EEPROM?EEPROM
  +--> ?PR?_SEND_PORTERR?PTO_PARALELO
  +--> ?PR?_PANTALLALCD?PANTALLAS

?PR?_HORA_MAXIMA?VERIFICADOR                     -----    -----      -----    -----      002FH    0008H
  +--> ?PR?_RD_EEPROM?EEPROM
  +--> ?PR?_DEBUG_CHR_TIBBO?TIBBO
BL51 BANKED LINKER/LOCATER V6.22.2.0                                                  08/02/2021  16:39:51  PAGE 20


  +--> ?CO?VERIFICADOR
  +--> ?PR?_DEBUG_TXT_TIBBO?TIBBO

?PR?_EN_HORARIO?VERIFICADOR                      -----    -----      -----    -----      002AH    0005H
  +--> ?CO?VERIFICADOR
  +--> ?PR?_DEBUG_TXT_TIBBO?TIBBO
  +--> ?PR?_HORA_MAXIMA?VERIFICADOR

?PR?_SEND_PORTERR?PTO_PARALELO                   -----    -----      -----    -----      002AH    0006H
  +--> ?PR?PULSO_BUS?PTO_PARALELO
  +--> ?PR?_DELAY_20US?DELAY

?PR?_PANTALLALCD?PANTALLAS                       -----    -----      -----    -----      002AH    000AH
  +--> ?CO?PANTALLAS
  +--> ?PR?_LCD_TXT?PANTALLAS
  +--> ?PR?_STRLEN?STRLEN
  +--> ?PR?_TX_CHRLCD?PANTALLAS
  +--> ?PR?_RASPBERRY_DATA?PANTALLAS

?PR?_LCD_TXT?PANTALLAS                           -----    -----      -----    -----      0044H    0005H
  +--> ?PR?_TX_CHRLCD?PANTALLAS

?PR?_TX_CHRLCD?PANTALLAS                         -----    -----      -----    -----      0049H    0002H
  +--> ?PR?_PUTCHAR?MAIN

?PR?_RASPBERRY_DATA?PANTALLAS                    -----    -----      -----    -----      0044H    0006H
  +--> ?PR?_STRLEN?STRLEN
  +--> ?PR?_PUTCHAR?MAIN

?PR?_VALIDA_VEHICULO_CARD_MENSUAL?VER...         -----    -----      -----    -----      0010H    0004H
  +--> ?CO?VERIFICADOR
  +--> ?PR?_DEBUG_TXT_TIBBO?TIBBO
  +--> ?PR?_RD_EEPROM?EEPROM
  +--> ?PR?_SEND_PORTERR?PTO_PARALELO

?PR?_ARMAR_TRAMA_TARJETA_SECTOR1_BLOQ...         -----    -----      -----    -----      0010H    0006H
  +--> ?PR?_BCD_HEX?CLOCK
  +--> ?PR?DIR_BOARD?IO_SENSORES

?PR?DIR_BOARD?IO_SENSORES                        -----    -----      -----    -----      0033H    0001H
  +--> ?PR?SEL_DIR1?IO_SENSORES
  +--> ?PR?SEL_DIR2?IO_SENSORES
  +--> ?PR?_RD_EEPROM?EEPROM

?PR?_TARJETA_ROTACION?VERIFICADOR                -----    -----      -----    -----      0009H    0006H
  +--> ?PR?_ARMAR_TRAMA_TARJETA_SECTOR1_BLOQ...

?PR?POWER_OFF?LINTECH                            -----    -----      -----    -----      0002H    000BH
  +--> ?CO?LINTECH
  +--> ?PR?_DEBUG_TXT_TIBBO?TIBBO
  +--> ?PR?_DEBUGBUFFERMF?TIBBO
  +--> ?PR?_ESCRIBIRCADENASOFT_BUFFER?MAIN

?PR?CLAVE_SEGURIDAD_S2?LINTECH                   -----    -----      -----    -----      0002H    0016H
  +--> ?CO?LINTECH
  +--> ?PR?_DEBUG_TXT_TIBBO?TIBBO
  +--> ?PR?_DEBUGBUFFERMF?TIBBO
BL51 BANKED LINKER/LOCATER V6.22.2.0                                                  08/02/2021  16:39:51  PAGE 21


  +--> ?PR?_ESCRIBIRCADENASOFT_BUFFER?MAIN

?PR?_RESPONDE_REELECTURA_TARJETA_SECT...         -----    -----      -----    -----      0002H    000AH
  +--> ?CO?VERIFICADOR
  +--> ?PR?_DEBUG_TXT_TIBBO?TIBBO
  +--> ?PR?_DEBUGBUFFERMF?TIBBO
  +--> ?PR?_ARMAR_TRAMA_TARJETA_SECTOR1_BLOQ...

?PR?_ARMAR_TRAMA_TARJETA_SECTOR1_BLOQ...         -----    -----      -----    -----      000CH    0003H
  +--> ?PR?LEE_NO_TICKET?EEPROM

?PR?RESPONDE_ESTADO_SENSORES_TRANSPOR...         -----    -----      -----    -----      0002H    0001H
  +--> ?CO?VERIFICADOR
  +--> ?PR?_DEBUG_TXT_TIBBO?TIBBO
  +--> ?PR?_SEND_PORTERR?PTO_PARALELO
  +--> ?PR?INGRESO_VEHICULO?VERIFICADOR

?PR?INGRESO_VEHICULO?VERIFICADOR                 -----    -----      -----    -----      -----    -----
  +--> ?PR?VALIDASENSORESPASO?IO_SENSORES
  +--> ?PR?_RD_EEPROM?EEPROM
  +--> ?CO?VERIFICADOR
  +--> ?PR?_DEBUG_TXT_TIBBO?TIBBO
  +--> ?PR?_SEND_PORTERR?PTO_PARALELO
  +--> ?PR?_PANTALLALCD?PANTALLAS
  +--> ?PR?BOTTON?IO_SENSORES

?PR?VALIDASENSORESPASO?IO_SENSORES               -----    -----      -----    -----      0011H    0001H
  +--> ?PR?SEL_SENSOR2?IO_SENSORES
  +--> ?PR?VALIDASENSOR?IO_SENSORES
  +--> ?PR?VALIDA_SENSOR1_AUTO?IO_SENSORES
  +--> ?CO?IO_SENSORES
  +--> ?PR?_DEBUG_TXT_TIBBO?TIBBO

?PR?RESPONDE_TIPO_TARJETA?VERIFICADOR            -----    -----      -----    -----      0002H    0001H
  +--> ?CO?VERIFICADOR
  +--> ?PR?_DEBUG_TXT_TIBBO?TIBBO
  +--> ?PR?_SEND_PORTERR?PTO_PARALELO
  +--> ?PR?_PANTALLALCD?PANTALLAS
  +--> ?PR?CAPTURA_EXPULSA?VERIFICADOR

?PR?_RESPONDE_LECTURA_TARJETA_SECTOR1...         -----    -----      -----    -----      0002H    0016H
  +--> ?CO?VERIFICADOR
  +--> ?PR?_DEBUG_TXT_TIBBO?TIBBO
  +--> ?PR?_DEBUGBUFFERMF?TIBBO
  +--> ?PR?_RD_EEPROM?EEPROM
  +--> ?PR?_DEBUG_HEXDEC?TIBBO
  +--> ?PR?_DEBUG_CHR_TIBBO?TIBBO
  +--> ?PR?_SEND_PORTERR?PTO_PARALELO
  +--> ?PR?_PANTALLALCD?PANTALLAS
  +--> ?PR?CAPTURA_EXPULSA?VERIFICADOR

?PR?_DEBUG_HEXDEC?TIBBO                          -----    -----      -----    -----      0018H    0002H
  +--> ?PR?_TX_AUX?TIBBO

?PR?_RESPONDE_LECTURA_TARJETA_SECTOR1...         -----    -----      -----    -----      0002H    0004H
  +--> ?CO?VERIFICADOR
  +--> ?PR?_DEBUG_TXT_TIBBO?TIBBO
BL51 BANKED LINKER/LOCATER V6.22.2.0                                                  08/02/2021  16:39:51  PAGE 22


  +--> ?PR?CAPTURA_EXPULSA?VERIFICADOR

?PR?_RESPONDE_LECTURA_TARJETA_SECTOR1...         -----    -----      -----    -----      0002H    0015H
  +--> ?CO?VERIFICADOR
  +--> ?PR?_DEBUG_TXT_TIBBO?TIBBO
  +--> ?PR?_DEBUGBUFFERMF?TIBBO
  +--> ?PR?_DEBUG_CHR_TIBBO?TIBBO
  +--> ?PR?CAPTURA_EXPULSA?VERIFICADOR

?PR?_RESPONDE_WRITE_TARJETA_SECTOR1_B...         -----    -----      -----    -----      0002H    0007H
  +--> ?CO?VERIFICADOR
  +--> ?PR?_DEBUG_TXT_TIBBO?TIBBO
  +--> ?PR?_DEBUGBUFFERMF?TIBBO

?PR?_RESPONDE_WRITE_TARJETA_SECTOR2_B...         -----    -----      -----    -----      0002H    0003H
  +--> ?CO?VERIFICADOR
  +--> ?PR?_DEBUG_TXT_TIBBO?TIBBO
  +--> ?PR?_DEBUGBUFFERMF?TIBBO

?PR?_RESPONDE_WRITE_TARJETA_SECTOR1_B...         -----    -----      -----    -----      0002H    0003H
  +--> ?CO?VERIFICADOR
  +--> ?PR?_DEBUG_TXT_TIBBO?TIBBO
  +--> ?PR?_DEBUGBUFFERMF?TIBBO

?PR?_RESPONDE_WRITE_TARJETA_SECTOR1_B...         -----    -----      -----    -----      0002H    0003H
  +--> ?CO?VERIFICADOR
  +--> ?PR?_DEBUG_TXT_TIBBO?TIBBO
  +--> ?PR?_DEBUGBUFFERMF?TIBBO

?PR?_DISPARO_LOCK_ENTRADA_VEHICULO?VE...         -----    -----      -----    -----      0002H    0004H
  +--> ?CO?VERIFICADOR
  +--> ?PR?_DEBUG_TXT_TIBBO?TIBBO
  +--> ?PR?_SEND_PORTERR?PTO_PARALELO
  +--> ?PR?_PANTALLALCD_LINEA_2?PANTALLAS
  +--> ?PR?VALIDA_SENSOR1_AUTO?IO_SENSORES
  +--> ?PR?_PANTALLALCD?PANTALLAS

?PR?_PANTALLALCD_LINEA_2?PANTALLAS               -----    -----      -----    -----      0011H    0033H
  +--> ?CO?PANTALLAS
  +--> ?PR?_LCD_TXT?PANTALLAS
  +--> ?PR?_STRLEN?STRLEN
  +--> ?PR?_TX_CHRLCD?PANTALLAS
  +--> ?PR?_RASPBERRY_DATA?PANTALLAS
  +--> ?PR?LEE_NO_TICKET?EEPROM
  +--> ?PR?_STRCAT?STRCAT

?PR?_RESPUESTA_SEGUNDA_CLAVE?VERIFICADOR         -----    -----      -----    -----      0002H    0006H
  +--> ?CO?VERIFICADOR
  +--> ?PR?_DEBUG_TXT_TIBBO?TIBBO
  +--> ?PR?_DEBUGBUFFERMF?TIBBO
  +--> ?PR?_ARMAR_TRAMA_PLACA?VERIFICADOR

?PR?_ARMAR_TRAMA_PLACA?VERIFICADOR               -----    -----      -----    -----      0008H    0003H
  +--> ?PR?_STRLEN?STRLEN

?PR?ANALIZA_PRESENCIA_MENSUAL?VERIFIC...         -----    -----      -----    -----      0002H    0001H
  +--> ?PR?VALIDASENSORESPASO?IO_SENSORES
BL51 BANKED LINKER/LOCATER V6.22.2.0                                                  08/02/2021  16:39:51  PAGE 23


  +--> ?PR?_RD_EEPROM?EEPROM
  +--> ?PR?_SEND_PORTERR?PTO_PARALELO
  +--> ?PR?_PANTALLALCD?PANTALLAS

?PR?_ANALIZA_UID_CARD?VERIFICADOR                -----    -----      -----    -----      0002H    0015H
  +--> ?CO?VERIFICADOR
  +--> ?PR?_DEBUG_TXT_TIBBO?TIBBO
  +--> ?PR?_DEBUGBUFFERMF?TIBBO
  +--> ?PR?_DEBUG_CHR_TIBBO?TIBBO

?PR?ANALIZA_PRESENCIA_ROTACION?VERIFI...         -----    -----      -----    -----      0002H    0001H
  +--> ?PR?VALIDASENSORESPASO?IO_SENSORES
  +--> ?PR?_SEND_PORTERR?PTO_PARALELO
  +--> ?PR?_PANTALLALCD?PANTALLAS

?PR?_RECIBE_PORT?PTO_PARALELO                    -----    -----      -----    -----      0001H    0008H
  +--> ?PR?OFF_TIMER0_INTERRUP?MAIN
  +--> ?PR?ON_TIMER0_INTERRUP?MAIN

?PR?_DEBUG_PTO_PARALELO?TIBBO                    -----    -----      -----    -----      0001H    0004H
  +--> ?CO?TIBBO
  +--> ?PR?_DEBUG_TXT_TIBBO?TIBBO
  +--> ?PR?_DEBUGBUFFERMF?TIBBO
  +--> ?PR?DEBUG_DIVIDIR_TEXTO?TIBBO

?PR?_VALIDA_TRAMA_PTO?ACCESCAN                   -----    -----      -----    -----      0001H    0010H
  +--> ?CO?ACCESCAN
  +--> ?PR?_DEBUG_TXT_TIBBO?TIBBO
  +--> ?PR?_DEBUG_CHR_TIBBO?TIBBO
  +--> ?PR?_VALIDAR_CLK?CLOCK
  +--> ?PR?_BLOCK_WRITE_CLOCK_ASCII?CLOCK
  +--> ?PR?RELOJ_PANTALLA_LCD?PANTALLAS
  +--> ?PR?_SEND_PORT?PTO_PARALELO
  +--> ?PR?_PANTALLALCD?PANTALLAS
  +--> ?PR?FORMATO_EEPROM?EEPROM
  +--> ?PR?_BYTEHEX_DECIMAL?CLOCK
  +--> ?PR?_TWO_BYTEHEX_DECIMAL?CLOCK
  +--> ?PR?VALIDASENSORESPASO?IO_SENSORES
  +--> ?PR?_CMD_LPR_SALIDA_WIEGAND?ACCESCAN
  +--> ?PR?_PANTALLALCD_LINEA_2?PANTALLAS
  +--> ?PR?_GRABA_SERIE?EEPROM

?PR?_BLOCK_WRITE_CLOCK_ASCII?CLOCK               -----    -----      -----    -----      0011H    0003H
  +--> ?CO?CLOCK
  +--> ?PR?_DEBUG_TXT_TIBBO?TIBBO
  +--> ?PR?_TWO_ONE?CLOCK
  +--> ?PR?_WR_CLK?CLOCK

?PR?_WR_CLK?CLOCK                                -----    -----      -----    -----      0014H    0002H
  +--> ?PR?_DELAY_20US?DELAY
  +--> ?PR?_EB_CLK?CLOCK

?PR?RELOJ_PANTALLA_LCD?PANTALLAS                 -----    -----      -----    -----      0011H    000DH
  +--> ?CO?PANTALLAS
  +--> ?PR?_BLOCK_READ_CLOCK?CLOCK
  +--> ?PR?_LCD_TXT_NUM_CHAR?PANTALLAS
  +--> ?PR?_BLOCK_READ_CLOCK_ASCII_RASBERRY?...
BL51 BANKED LINKER/LOCATER V6.22.2.0                                                  08/02/2021  16:39:51  PAGE 24


  +--> ?PR?_STRCAT?STRCAT
  +--> ?PR?_RASPBERRY_DATA?PANTALLAS

?PR?_BLOCK_READ_CLOCK?CLOCK                      -----    -----      -----    -----      001EH    0003H
  +--> ?PR?_LEE_CLK?CLOCK

?PR?_LCD_TXT_NUM_CHAR?PANTALLAS                  -----    -----      -----    -----      001EH    0006H
  +--> ?PR?_TX_CHRLCD?PANTALLAS

?PR?_BLOCK_READ_CLOCK_ASCII_RASBERRY?...         -----    -----      -----    -----      001EH    0003H
  +--> ?PR?_LEE_CLK?CLOCK

?PR?FORMATO_EEPROM?EEPROM                        -----    -----      -----    -----      0011H    0003H
  +--> ?PR?_WR_EEPROM?EEPROM

?PR?_CMD_LPR_SALIDA_WIEGAND?ACCESCAN             -----    -----      -----    -----      0011H    0022H
  +--> ?PR?DIR_BOARD?IO_SENSORES
  +--> ?PR?_BLOCK_READ_CLOCK_ASCII?CLOCK
  +--> ?PR?_MONITOR_CHR?ACCESCAN

?PR?_MONITOR_CHR?ACCESCAN                        -----    -----      -----    -----      0033H    0005H
  +--> ?PR?_TX_AUX?TIBBO

?PR?_GRABA_SERIE?EEPROM                          -----    -----      -----    -----      0011H    0005H
  +--> ?CO?EEPROM
  +--> ?PR?_DEBUG_TXT_TIBBO?TIBBO
  +--> ?PR?_WRITE_EEPROM_TICKET?EEPROM
  +--> ?PR?_WR_EEPROM?EEPROM

?PR?MSJ_LCD_INFORMATIVO?IO_SENSORES              -----    -----      -----    -----      0001H    0001H
  +--> ?PR?SEL_FUNCION?IO_SENSORES
  +--> ?PR?VALIDASENSOR_CERO?IO_SENSORES
  +--> ?CO?IO_SENSORES
  +--> ?PR?_DEBUG_TXT_TIBBO?TIBBO
  +--> ?PR?_DEBUG_CHR_TIBBO?TIBBO
  +--> ?PR?LOAD_AND_SEND_INFO_RELOJ?PTO_PARA...
  +--> ?PR?VALIDASENSOR?IO_SENSORES
  +--> ?PR?_DELAY_10MS?DELAY
  +--> ?PR?LOAD_AND_SEND_ID_COD?PTO_PARALELO

?PR?LOAD_AND_SEND_INFO_RELOJ?PTO_PARA...         -----    -----      -----    -----      0002H    000BH
  +--> ?PR?_BLOCK_READ_CLOCK?CLOCK
  +--> ?PR?_LEE_CLK?CLOCK
  +--> ?CO?PTO_PARALELO
  +--> ?PR?_DEBUG_TXT_TIBBO?TIBBO
  +--> ?PR?_DEBUGBUFFERMF?TIBBO
  +--> ?PR?DEBUG_DIVIDIR_TEXTO?TIBBO
  +--> ?PR?_SEND_PORT?PTO_PARALELO

?PR?LOAD_AND_SEND_ID_COD?PTO_PARALELO            -----    -----      -----    -----      0002H    0014H
  +--> ?PR?_RD_EEPROM?EEPROM
  +--> ?CO?PTO_PARALELO
  +--> ?PR?PRINTF?PRINTF
  +--> ?PR?_STRCAT?STRCAT
  +--> ?PR?_STRLEN?STRLEN
  +--> ?PR?_DEBUG_TXT_TIBBO?TIBBO
  +--> ?PR?_DEBUGBUFFERMF?TIBBO
BL51 BANKED LINKER/LOCATER V6.22.2.0                                                  08/02/2021  16:39:51  PAGE 25


  +--> ?PR?DEBUG_DIVIDIR_TEXTO?TIBBO
  +--> ?PR?_SEND_PORT?PTO_PARALELO



SYMBOL TABLE OF MODULE:  .\Objects\expedidor_v_01_raspberry (MAIN)

  VALUE           TYPE          NAME
  ----------------------------------

  -------         MODULE        MAIN
  C:0000H         SYMBOL        _ICE_DUMMY_
  D:0080H         PUBLIC        P0
  D:0090H         PUBLIC        P1
  C:C138H         PUBLIC        timer0_int
  D:00B0H         PUBLIC        P3
  B:00A8H.7       PUBLIC        EA
  C:C553H         PUBLIC        off_Timer0_Interrup
  X:0171H         PUBLIC        ValTimeOutCom
  X:0172H         PUBLIC        Buffer_Rta_Lintech
  X:01A4H         PUBLIC        Timer_wait
  B:0021H.1       PUBLIC        pto_paraleo
  X:01A5H         PUBLIC        g_cContByteRx
  B:0080H.0       PUBLIC        rx_ip
  C:AFE6H         PUBLIC        main
  X:01A6H         PUBLIC        Timer_tivo
  B:0080H.3       PUBLIC        Atascado_GP0_PIN_3
  C:B754H         PUBLIC        variable_inicio
  B:0090H.7       PUBLIC        lock
  I:0023H         PUBLIC        rbuf
  C:C549H         PUBLIC        on_Timer0_Interrup
  I:0055H         PUBLIC        tbuf
  B:0090H.1       PUBLIC        DataIn
  D:0089H         PUBLIC        TMOD
  X:01A8H         PUBLIC        USE_LPR
  X:01A9H         PUBLIC        Debug_Tibbo
  X:01AAH         PUBLIC        Raspberry
  X:01ABH         PUBLIC        SIN_COBRO
  X:01ADH         PUBLIC        Tipo_Vehiculo
  B:00B0H.3       PUBLIC        busy
  C:C4AAH         PUBLIC        ini_timer
  B:00A8H.1       PUBLIC        ET0
  B:0088H.5       PUBLIC        TF0
  D:008CH         PUBLIC        TH0
  X:01AEH         PUBLIC        ACK
  X:01AFH         PUBLIC        g_cEstadoComSoft
  D:008AH         PUBLIC        TL0
  B:0088H.4       PUBLIC        TR0
  C:C4BAH         PUBLIC        inicia_board
  X:01B0H         PUBLIC        T_GRACIA
  B:0080H.7       PUBLIC        sel_com
  X:01B2H         PUBLIC        STX_LINTECH
  C:C4D9H         PUBLIC        _getkey
  X:01B3H         PUBLIC        ETX
  C:B9F0H         PUBLIC        _EscribirCadenaSoft_buffer
  B:0021H.2       PUBLIC        buffer_ready
  C:BCCCH         PUBLIC        _putchar
BL51 BANKED LINKER/LOCATER V6.22.2.0                                                  08/02/2021  16:39:51  PAGE 26


  B:0021H.3       PUBLIC        placa_ready
  -------         PROC          TIMER0_INT
  C:C138H         LINE#         16
  C:C13EH         LINE#         19
  C:C144H         LINE#         20
  C:C149H         LINE#         21
  C:C149H         LINE#         22
  C:C14FH         LINE#         23
  C:C14FH         LINE#         25
  C:C15DH         LINE#         26
  C:C15FH         LINE#         28
  -------         ENDPROC       TIMER0_INT
  -------         PROC          INI_TIMER
  C:C4AAH         LINE#         31
  C:C4AAH         LINE#         32
  C:C4AAH         LINE#         34
  C:C4B2H         LINE#         36
  C:C4B5H         LINE#         37
  C:C4B7H         LINE#         38
  C:C4B9H         LINE#         40
  -------         ENDPROC       INI_TIMER
  -------         PROC          ON_TIMER0_INTERRUP
  C:C549H         LINE#         43
  C:C549H         LINE#         44
  C:C549H         LINE#         45
  C:C54BH         LINE#         46
  C:C54DH         LINE#         48
  -------         ENDPROC       ON_TIMER0_INTERRUP
  -------         PROC          OFF_TIMER0_INTERRUP
  C:C553H         LINE#         51
  C:C553H         LINE#         52
  C:C553H         LINE#         53
  C:C555H         LINE#         55
  -------         ENDPROC       OFF_TIMER0_INTERRUP
  -------         PROC          _GETKEY
  -------         DO            
  D:0006H         SYMBOL        k
  -------         ENDDO         
  C:C4D9H         LINE#         63
  C:C4D9H         LINE#         64
  C:C4D9H         LINE#         68
  C:C4D9H         LINE#         69
  C:C4DCH         LINE#         70
  C:C4DCH         LINE#         71
  C:C4E4H         LINE#         73
  C:C4E4H         LINE#         74
  -------         ENDPROC       _GETKEY
  -------         PROC          _PUTCHAR
  X:00A7H         SYMBOL        c
  -------         DO            
  X:00A8H         SYMBOL        i
  -------         ENDDO         
  C:BCCCH         LINE#         78
  C:BCD1H         LINE#         79
  C:BCD1H         LINE#         82
  C:BCE0H         LINE#         83
  C:BCE0H         LINE#         84
BL51 BANKED LINKER/LOCATER V6.22.2.0                                                  08/02/2021  16:39:51  PAGE 27


  C:BCF6H         LINE#         85
  C:BCF6H         LINE#         87
  C:BD04H         LINE#         88
  C:BD04H         LINE#         90
  C:BD09H         LINE#         91
  -------         ENDPROC       _PUTCHAR
  -------         PROC          _ESCRIBIRCADENASOFT_BUFFER
  X:0027H         SYMBOL        buffer
  X:002AH         SYMBOL        tamano_cadena
  -------         DO            
  X:002BH         SYMBOL        i
  X:002CH         SYMBOL        d
  -------         ENDDO         
  C:B9F0H         LINE#         95
  C:B9FEH         LINE#         96
  C:B9FEH         LINE#         98
  C:BA0CH         LINE#         99
  C:BA0CH         LINE#         100
  C:BA23H         LINE#         101
  C:BA2DH         LINE#         102
  C:BA35H         LINE#         103
  -------         ENDPROC       _ESCRIBIRCADENASOFT_BUFFER
  -------         PROC          INICIA_BOARD
  C:C4BAH         LINE#         108
  C:C4BAH         LINE#         109
  C:C4BAH         LINE#         110
  C:C4BDH         LINE#         111
  C:C4C0H         LINE#         112
  C:C4C3H         LINE#         113
  C:C4C5H         LINE#         114
  C:C4C7H         LINE#         115
  C:C4C9H         LINE#         117
  -------         ENDPROC       INICIA_BOARD
  -------         PROC          VARIABLE_INICIO
  C:B754H         LINE#         122
  C:B754H         LINE#         123
  C:B754H         LINE#         126
  C:B765H         LINE#         127
  C:B776H         LINE#         128
  C:B784H         LINE#         129
  C:B792H         LINE#         130
  C:B7A0H         LINE#         133
  -------         ENDPROC       VARIABLE_INICIO
  -------         PROC          MAIN
  -------         DO            
  X:0148H         SYMBOL        buffer
  X:0170H         SYMBOL        Estado_Comunicacion_Secuencia_MF
  X:0000H         SYMBOL        Length_trama
  -------         ENDDO         
  C:AFE6H         LINE#         141
  C:AFE6H         LINE#         142
  C:AFE6H         LINE#         149
  C:AFE9H         LINE#         150
  C:AFECH         LINE#         151
  C:AFEFH         LINE#         152
  C:AFF2H         LINE#         153
  C:AFF5H         LINE#         154
BL51 BANKED LINKER/LOCATER V6.22.2.0                                                  08/02/2021  16:39:51  PAGE 28


  C:AFF7H         LINE#         156
  C:AFFAH         LINE#         157
  C:B001H         LINE#         158
  C:B004H         LINE#         160
  C:B009H         LINE#         162
  C:B00CH         LINE#         164
  C:B00FH         LINE#         165
  C:B00FH         LINE#         166
  C:B012H         LINE#         167
  C:B012H         LINE#         170
  C:B015H         LINE#         171
  C:B01BH         LINE#         172
  C:B021H         LINE#         174
  C:B021H         LINE#         175
  C:B021H         LINE#         178
  C:B024H         LINE#         179
  C:B024H         LINE#         180
  C:B027H         LINE#         181
  C:B027H         LINE#         185
  C:B034H         LINE#         190
  C:B03AH         LINE#         191
  C:B03AH         LINE#         193
  C:B049H         LINE#         196
  C:B052H         LINE#         197
  C:B060H         LINE#         202
  C:B060H         LINE#         203
  C:B063H         LINE#         206
  -------         ENDPROC       MAIN
  -------         ENDMOD        MAIN

  -------         MODULE        ACCESCAN
  C:0000H         SYMBOL        _ICE_DUMMY_
  D:0080H         PUBLIC        P0
  D:0090H         PUBLIC        P1
  D:00B0H         PUBLIC        P3
  B:0080H.2       PUBLIC        led_err_imp
  C:BB8BH         PUBLIC        _Monitor_chr
  B:0080H.3       PUBLIC        Atascado_GP0_PIN_3
  B:0090H.7       PUBLIC        lock
  C:36DEH         PUBLIC        _Valida_Trama_Pto
  C:8F6AH         PUBLIC        _Cmd_LPR_Salida_wiegand
  -------         PROC          _VALIDA_TRAMA_PTO
  X:0001H         SYMBOL        buffer
  X:0004H         SYMBOL        length_trama
  -------         DO            
  X:021BH         SYMBOL        cont
  X:0005H         SYMBOL        bcc
  D:0004H         SYMBOL        j
  X:0006H         SYMBOL        buff
  -------         ENDDO         
  C:36DEH         LINE#         113
  C:36ECH         LINE#         114
  C:36ECH         LINE#         117
  C:36EFH         LINE#         123
  C:3732H         LINE#         124
  C:3732H         LINE#         125
  C:373BH         LINE#         126
BL51 BANKED LINKER/LOCATER V6.22.2.0                                                  08/02/2021  16:39:51  PAGE 29


  C:3750H         LINE#         127
  C:3759H         LINE#         128
  C:3766H         LINE#         129
  C:3766H         LINE#         130
  C:3782H         LINE#         131
  C:3785H         LINE#         133
  C:378EH         LINE#         134
  C:3796H         LINE#         135
  C:379FH         LINE#         136
  C:37B8H         LINE#         137
  C:37B8H         LINE#         139
  C:37C8H         LINE#         140
  C:37C8H         LINE#         141
  C:37DBH         LINE#         143
  C:37DEH         LINE#         145
  C:37DEH         LINE#         148
  C:37DEH         LINE#         150
  C:37DEH         LINE#         152
  C:37E4H         LINE#         153
  C:37E8H         LINE#         154
  C:37ECH         LINE#         155
  C:37EFH         LINE#         156
  C:37FAH         LINE#         158
  C:3803H         LINE#         159
  C:380BH         LINE#         160
  C:3813H         LINE#         161
  C:381BH         LINE#         162
  C:3824H         LINE#         163
  C:3824H         LINE#         166
  C:3824H         LINE#         169
  C:3836H         LINE#         170
  C:3836H         LINE#         171
  C:3838H         LINE#         172
  C:383BH         LINE#         174
  C:384DH         LINE#         175
  C:384DH         LINE#         176
  C:384FH         LINE#         177
  C:3852H         LINE#         179
  C:3864H         LINE#         180
  C:3864H         LINE#         181
  C:3866H         LINE#         182
  C:3869H         LINE#         184
  C:3883H         LINE#         185
  C:3883H         LINE#         186
  C:3885H         LINE#         187
  C:3888H         LINE#         189
  C:38A2H         LINE#         190
  C:38A2H         LINE#         191
  C:38A4H         LINE#         192
  C:38A7H         LINE#         194
  C:38B9H         LINE#         195
  C:38B9H         LINE#         196
  C:38BFH         LINE#         197
  C:38CCH         LINE#         198
  C:38CCH         LINE#         199
  C:38D1H         LINE#         200
  C:38D3H         LINE#         201
BL51 BANKED LINKER/LOCATER V6.22.2.0                                                  08/02/2021  16:39:51  PAGE 30


  C:38D8H         LINE#         202
  C:38DAH         LINE#         203
  C:38DCH         LINE#         204
  C:38E0H         LINE#         205
  C:38E0H         LINE#         206
  C:38E1H         LINE#         208
  C:38F9H         LINE#         209
  C:38F9H         LINE#         211
  C:3906H         LINE#         212
  C:3906H         LINE#         213
  C:3908H         LINE#         214
  C:390AH         LINE#         215
  C:390CH         LINE#         216
  C:390EH         LINE#         217
  C:390EH         LINE#         219
  C:3934H         LINE#         220
  C:3934H         LINE#         221
  C:3938H         LINE#         222
  C:393DH         LINE#         223
  C:3946H         LINE#         224
  C:394BH         LINE#         225
  C:394BH         LINE#         228
  C:394CH         LINE#         230
  C:3966H         LINE#         231
  C:3966H         LINE#         232
  C:3968H         LINE#         233
  C:396BH         LINE#         235
  C:399BH         LINE#         236
  C:399BH         LINE#         237
  C:399EH         LINE#         238
  C:399EH         LINE#         240
  C:39B8H         LINE#         241
  C:39B8H         LINE#         242
  C:39BAH         LINE#         243
  C:39BDH         LINE#         245
  C:39D7H         LINE#         246
  C:39D7H         LINE#         247
  C:39D9H         LINE#         248
  C:39DBH         LINE#         250
  C:39F5H         LINE#         251
  C:39F5H         LINE#         252
  C:39F7H         LINE#         253
  C:39F9H         LINE#         256
  C:3A13H         LINE#         257
  C:3A13H         LINE#         258
  C:3A15H         LINE#         259
  C:3A17H         LINE#         263
  C:3A31H         LINE#         264
  C:3A31H         LINE#         265
  C:3A33H         LINE#         266
  C:3A35H         LINE#         269
  C:3A4FH         LINE#         270
  C:3A4FH         LINE#         271
  C:3A54H         LINE#         272
  C:3A54H         LINE#         275
  C:3A85H         LINE#         276
  C:3A85H         LINE#         277
BL51 BANKED LINKER/LOCATER V6.22.2.0                                                  08/02/2021  16:39:51  PAGE 31


  C:3A8DH         LINE#         278
  C:3A96H         LINE#         279
  C:3A99H         LINE#         282
  C:3ACAH         LINE#         283
  C:3ACAH         LINE#         285
  C:3AD2H         LINE#         286
  C:3ADBH         LINE#         287
  C:3ADEH         LINE#         290
  C:3B1EH         LINE#         291
  C:3B1EH         LINE#         293
  C:3B33H         LINE#         294
  C:3B39H         LINE#         295
  C:3B63H         LINE#         298
  C:3B6BH         LINE#         299
  C:3B6BH         LINE#         302
  C:3B72H         LINE#         303
  C:3B72H         LINE#         304
  C:3B77H         LINE#         305
  C:3B77H         LINE#         306
  C:3B79H         LINE#         308
  C:3B79H         LINE#         309
  C:3B82H         LINE#         310
  C:3B8AH         LINE#         311
  C:3B8AH         LINE#         315
  C:3B8CH         LINE#         318
  C:3B8CH         LINE#         326
  C:3B94H         LINE#         330
  C:3B94H         LINE#         331
  C:3B96H         LINE#         333
  C:3BCEH         LINE#         334
  C:3BCEH         LINE#         335
  C:3BD6H         LINE#         336
  C:3BE2H         LINE#         337
  C:3BE2H         LINE#         339
  C:3C0FH         LINE#         340
  C:3C0FH         LINE#         341
  C:3C1EH         LINE#         343
  C:3C1EH         LINE#         345
  -------         ENDPROC       _VALIDA_TRAMA_PTO
  -------         PROC          _MONITOR_CHR
  X:0033H         SYMBOL        str
  X:0036H         SYMBOL        num_char
  -------         DO            
  X:0037H         SYMBOL        j
  -------         ENDDO         
  C:BB8BH         LINE#         500
  C:BB99H         LINE#         501
  C:BB99H         LINE#         503
  C:BBA7H         LINE#         504
  C:BBA7H         LINE#         505
  C:BBB9H         LINE#         506
  C:BBC3H         LINE#         507
  C:BBCBH         LINE#         508
  -------         ENDPROC       _MONITOR_CHR
  -------         PROC          _CMD_LPR_SALIDA_WIEGAND
  X:0011H         SYMBOL        buffer
  -------         DO            
BL51 BANKED LINKER/LOCATER V6.22.2.0                                                  08/02/2021  16:39:51  PAGE 32


  X:0014H         SYMBOL        Buffer_Lpr
  X:0032H         SYMBOL        j
  -------         ENDDO         
  C:8F6AH         LINE#         513
  C:8F75H         LINE#         514
  C:8F75H         LINE#         516
  C:8F7BH         LINE#         517
  C:8F80H         LINE#         518
  C:8F88H         LINE#         519
  C:8F8CH         LINE#         520
  C:8F95H         LINE#         521
  C:8F95H         LINE#         522
  C:8FA6H         LINE#         523
  C:8FA8H         LINE#         525
  C:8FA8H         LINE#         526
  C:8FB9H         LINE#         527
  C:8FB9H         LINE#         531
  C:8FD0H         LINE#         532
  C:8FD0H         LINE#         533
  C:8FDFH         LINE#         534
  C:8FE9H         LINE#         536
  C:8FF1H         LINE#         537
  C:9005H         LINE#         539
  C:9015H         LINE#         540
  C:9026H         LINE#         541
  C:9033H         LINE#         545
  -------         ENDPROC       _CMD_LPR_SALIDA_WIEGAND
  -------         ENDMOD        ACCESCAN

  -------         MODULE        CLOCK
  C:0000H         SYMBOL        _ICE_DUMMY_
  C:BC00H         PUBLIC        _two_one
  D:0090H         PUBLIC        P1
  C:7A6DH         PUBLIC        _validar_clk
  C:C190H         PUBLIC        _wr_clk
  C:91D6H         PUBLIC        _check_fechaOut
  C:625FH         PUBLIC        _Block_read_clock_ascii_rasberry
  B:00D0H.7       PUBLIC        CY
  C:0003H         PUBLIC        p_ck
  C:A651H         PUBLIC        _hex_ascii
  C:B1D5H         PUBLIC        _hora_entrada_vehiculo
  X:021CH         PUBLIC        data_clk
  C:C50BH         PUBLIC        cond_ini_clock
  C:929FH         PUBLIC        _Block_read_Clock
  B:0090H.4       PUBLIC        sck
  C:9EE6H         PUBLIC        _Block_read_Clock_Hex
  C:6931H         PUBLIC        _Block_read_clock_ascii
  C:BD64H         PUBLIC        _hex_bcd
  C:C381H         PUBLIC        _bcd_hex
  C:B538H         PUBLIC        _ByteHex_Decimal
  C:A77DH         PUBLIC        _lee_clk
  B:0090H.5       PUBLIC        io
  C:A177H         PUBLIC        _Block_write_clock_ascii
  B:0090H.6       PUBLIC        rst
  C:BC8DH         PUBLIC        _eb_clk
  C:4944H         PUBLIC        _Two_ByteHex_Decimal
  -------         PROC          P_CK
BL51 BANKED LINKER/LOCATER V6.22.2.0                                                  08/02/2021  16:39:51  PAGE 33


  C:0003H         LINE#         69
  C:0003H         LINE#         70
  C:0003H         LINE#         71
  C:0005H         LINE#         72
  C:0008H         LINE#         73
  C:000AH         LINE#         74
  -------         ENDPROC       P_CK
  -------         PROC          _EB_CLK
  X:00B4H         SYMBOL        dir_clk
  -------         DO            
  X:00B5H         SYMBOL        nbits
  -------         ENDDO         
  C:BC8DH         LINE#         76
  C:BC92H         LINE#         78
  C:BC97H         LINE#         79
  C:BC97H         LINE#         80
  C:BCA0H         LINE#         81
  C:BCA3H         LINE#         82
  C:BCA3H         LINE#         83
  C:BCA5H         LINE#         84
  C:BCA7H         LINE#         86
  C:BCA7H         LINE#         87
  C:BCA9H         LINE#         88
  C:BCA9H         LINE#         89
  C:BCACH         LINE#         90
  C:BCCBH         LINE#         91
  -------         ENDPROC       _EB_CLK
  C:A773H         SYMBOL        L?0084
  -------         PROC          L?0083
  -------         ENDPROC       L?0083
  C:A773H         SYMBOL        L?0084
  -------         PROC          _LEE_CLK
  X:00B1H         SYMBOL        dir_clk
  -------         DO            
  X:00B2H         SYMBOL        nbits
  -------         ENDDO         
  C:A77DH         LINE#         93
  C:A782H         LINE#         95
  C:A784H         LINE#         96
  C:A78BH         LINE#         97
  C:A793H         LINE#         98
  C:A7ACH         LINE#         99
  C:A7ACH         LINE#         100
  C:A7AFH         LINE#         101
  C:A7AFH         LINE#         102
  C:A7B6H         LINE#         103
  C:A7C0H         LINE#         104
  C:A7C5H         LINE#         105
  C:A7C5H         LINE#         106
  C:A7C5H         LINE#         107
  C:A7C8H         LINE#         108
  C:A7C8H         LINE#         109
  C:A7CFH         LINE#         110
  C:A7E0H         LINE#         111
  C:A7E0H         LINE#         112
  C:A7E8H         LINE#         113
  C:A7E8H         LINE#         114
BL51 BANKED LINKER/LOCATER V6.22.2.0                                                  08/02/2021  16:39:51  PAGE 34


  C:A7E8H         LINE#         115
  C:A7EBH         LINE#         116
  C:A7FBH         LINE#         117
  C:A7FDH         LINE#         118
  C:A802H         LINE#         119
  -------         ENDPROC       _LEE_CLK
  -------         PROC          _WR_CLK
  X:0014H         SYMBOL        dir_clk
  X:0015H         SYMBOL        byte
  C:C190H         LINE#         121
  C:C198H         LINE#         122
  C:C19AH         LINE#         123
  C:C1A1H         LINE#         124
  C:C1A9H         LINE#         125
  C:C1B2H         LINE#         126
  C:C1B5H         LINE#         127
  C:C1B7H         LINE#         129
  -------         ENDPROC       _WR_CLK
  C:BBCCH         SYMBOL        L?0079
  C:BBEAH         SYMBOL        L?0080
  -------         PROC          L?0078
  -------         ENDPROC       L?0078
  C:BBCCH         SYMBOL        L?0079
  C:BBEAH         SYMBOL        L?0080
  -------         PROC          _TWO_ONE
  D:0007H         SYMBOL        byte_h
  D:0005H         SYMBOL        byte_l
  -------         DO            
  D:0007H         SYMBOL        byte_out
  -------         ENDDO         
  C:BC00H         LINE#         131
  C:BC00H         LINE#         132
  C:BC00H         LINE#         134
  C:BC03H         LINE#         135
  C:BC07H         LINE#         136
  C:BC0AH         LINE#         137
  C:BC0CH         LINE#         138
  C:BC0CH         LINE#         139
  -------         ENDPROC       _TWO_ONE
  -------         PROC          _VALIDAR_CLK
  D:0001H         SYMBOL        datos_clock
  -------         DO            
  D:0007H         SYMBOL        validador
  -------         ENDDO         
  C:7A6DH         LINE#         143
  C:7A6DH         LINE#         144
  C:7A6DH         LINE#         145
  C:7A6FH         LINE#         148
  C:7A84H         LINE#         149
  C:7A84H         LINE#         151
  C:7A9CH         LINE#         152
  C:7A9CH         LINE#         154
  C:7AB4H         LINE#         155
  C:7AB4H         LINE#         156
  C:7ACCH         LINE#         157
  C:7ACCH         LINE#         158
  C:7AE4H         LINE#         159
BL51 BANKED LINKER/LOCATER V6.22.2.0                                                  08/02/2021  16:39:51  PAGE 35


  C:7AE4H         LINE#         160
  C:7AF9H         LINE#         161
  C:7AF9H         LINE#         162
  C:7B0BH         LINE#         163
  C:7B0BH         LINE#         164
  C:7B1DH         LINE#         165
  C:7B1DH         LINE#         166
  C:7B2FH         LINE#         167
  C:7B2FH         LINE#         168
  C:7B41H         LINE#         169
  C:7B41H         LINE#         170
  C:7B53H         LINE#         171
  C:7B53H         LINE#         172
  C:7B63H         LINE#         173
  C:7B63H         LINE#         174
  C:7B63H         LINE#         175
  C:7B63H         LINE#         176
  C:7B64H         LINE#         178
  C:7B64H         LINE#         179
  C:7B66H         LINE#         180
  C:7B66H         LINE#         181
  C:7B67H         LINE#         183
  C:7B67H         LINE#         184
  C:7B69H         LINE#         186
  C:7B69H         LINE#         187
  C:7B6AH         LINE#         189
  C:7B6AH         LINE#         190
  C:7B6CH         LINE#         192
  C:7B6CH         LINE#         194
  C:7B6DH         LINE#         196
  C:7B6DH         LINE#         197
  C:7B6FH         LINE#         199
  C:7B6FH         LINE#         200
  C:7B70H         LINE#         202
  C:7B70H         LINE#         203
  C:7B72H         LINE#         205
  C:7B72H         LINE#         206
  C:7B73H         LINE#         208
  C:7B73H         LINE#         209
  C:7B75H         LINE#         211
  C:7B75H         LINE#         212
  C:7B76H         LINE#         214
  C:7B76H         LINE#         215
  C:7B78H         LINE#         217
  C:7B78H         LINE#         218
  C:7B78H         LINE#         220
  C:7B79H         LINE#         222
  C:7B79H         LINE#         223
  C:7B7BH         LINE#         225
  C:7B7BH         LINE#         227
  C:7B7CH         LINE#         230
  C:7B7CH         LINE#         231
  C:7B7EH         LINE#         233
  C:7B7EH         LINE#         235
  C:7B7FH         LINE#         238
  C:7B7FH         LINE#         239
  C:7B81H         LINE#         241
BL51 BANKED LINKER/LOCATER V6.22.2.0                                                  08/02/2021  16:39:51  PAGE 36


  C:7B81H         LINE#         243
  C:7B81H         LINE#         245
  -------         ENDPROC       _VALIDAR_CLK
  -------         PROC          _BLOCK_WRITE_CLOCK_ASCII
  X:0011H         SYMBOL        datos_clock
  -------         DO            
  D:0007H         SYMBOL        temp
  -------         ENDDO         
  C:A177H         LINE#         251
  C:A182H         LINE#         253
  C:A182H         LINE#         256
  C:A18BH         LINE#         257
  C:A194H         LINE#         259
  C:A19EH         LINE#         260
  C:A19EH         LINE#         261
  C:A19EH         LINE#         262
  C:A19EH         LINE#         264
  C:A1A8H         LINE#         265
  C:A1B2H         LINE#         266
  C:A1BCH         LINE#         267
  C:A1BCH         LINE#         268
  C:A1BCH         LINE#         269
  C:A1BCH         LINE#         271
  C:A1C6H         LINE#         272
  C:A1C6H         LINE#         273
  C:A1C6H         LINE#         274
  C:A1C6H         LINE#         276
  C:A1D0H         LINE#         277
  C:A1D0H         LINE#         278
  C:A1D0H         LINE#         279
  C:A1D0H         LINE#         281
  C:A1DAH         LINE#         282
  C:A1DAH         LINE#         283
  C:A1DAH         LINE#         284
  C:A1DAH         LINE#         286
  C:A1E4H         LINE#         287
  C:A1EEH         LINE#         288
  C:A1F8H         LINE#         289
  C:A202H         LINE#         291
  C:A212H         LINE#         292
  -------         ENDPROC       _BLOCK_WRITE_CLOCK_ASCII
  -------         PROC          _BCD_HEX
  D:0007H         SYMBOL        l_data
  -------         DO            
  D:0006H         SYMBOL        temp
  D:0005H         SYMBOL        j
  -------         ENDDO         
  C:C381H         LINE#         298
  C:C381H         LINE#         299
  C:C381H         LINE#         301
  C:C383H         LINE#         302
  C:C387H         LINE#         303
  C:C38AH         LINE#         304
  C:C38CH         LINE#         305
  C:C38CH         LINE#         306
  C:C390H         LINE#         307
  C:C397H         LINE#         308
BL51 BANKED LINKER/LOCATER V6.22.2.0                                                  08/02/2021  16:39:51  PAGE 37


  C:C397H         LINE#         309
  C:C39BH         LINE#         310
  C:C39EH         LINE#         311
  C:C39EH         LINE#         312
  C:C39EH         LINE#         313
  -------         ENDPROC       _BCD_HEX
  C:BD55H         SYMBOL        L?0082
  -------         PROC          L?0081
  -------         ENDPROC       L?0081
  C:BD55H         SYMBOL        L?0082
  -------         PROC          _HEX_BCD
  D:0007H         SYMBOL        byte
  -------         DO            
  D:0006H         SYMBOL        nibble_h
  D:0005H         SYMBOL        nibble_l
  D:0004H         SYMBOL        k
  D:0007H         SYMBOL        byte_out
  -------         ENDDO         
  C:BD64H         LINE#         317
  C:BD64H         LINE#         318
  C:BD64H         LINE#         323
  C:BD66H         LINE#         324
  C:BD67H         LINE#         326
  C:BD6DH         LINE#         327
  C:BD6DH         LINE#         328
  C:BD6EH         LINE#         329
  C:BD73H         LINE#         330
  C:BD73H         LINE#         331
  C:BD74H         LINE#         332
  C:BD75H         LINE#         333
  C:BD75H         LINE#         334
  C:BD78H         LINE#         335
  C:BD7CH         LINE#         336
  C:BD7FH         LINE#         337
  C:BD82H         LINE#         338
  C:BD84H         LINE#         339
  C:BD84H         LINE#         341
  -------         ENDPROC       _HEX_BCD
  -------         PROC          _HEX_ASCII
  X:005DH         SYMBOL        datos
  X:0060H         SYMBOL        fecha_asii
  -------         DO            
  D:0007H         SYMBOL        dato
  -------         ENDDO         
  C:A651H         LINE#         342
  C:A65CH         LINE#         343
  C:A65CH         LINE#         347
  C:A65FH         LINE#         348
  C:A677H         LINE#         349
  C:A68CH         LINE#         350
  C:A68CH         LINE#         352
  C:A68FH         LINE#         353
  C:A6AAH         LINE#         354
  C:A6B2H         LINE#         355
  C:A6B2H         LINE#         357
  C:A6B5H         LINE#         358
  C:A6D0H         LINE#         359
BL51 BANKED LINKER/LOCATER V6.22.2.0                                                  08/02/2021  16:39:51  PAGE 38


  C:A6DBH         LINE#         361
  -------         ENDPROC       _HEX_ASCII
  -------         PROC          _BYTEHEX_DECIMAL
  D:0001H         SYMBOL        buffer
  D:0005H         SYMBOL        valorhex
  -------         DO            
  X:0014H         SYMBOL        numero
  D:0007H         SYMBOL        centena
  D:0006H         SYMBOL        decena
  -------         ENDDO         
  C:B538H         LINE#         369
  C:B538H         LINE#         370
  C:B538H         LINE#         373
  C:B53AH         LINE#         374
  C:B53BH         LINE#         375
  C:B540H         LINE#         377
  C:B54DH         LINE#         378
  C:B54DH         LINE#         379
  C:B551H         LINE#         380
  C:B552H         LINE#         381
  C:B554H         LINE#         382
  C:B55AH         LINE#         383
  C:B561H         LINE#         384
  C:B56EH         LINE#         385
  C:B56EH         LINE#         386
  C:B572H         LINE#         387
  C:B573H         LINE#         388
  C:B575H         LINE#         389
  C:B57BH         LINE#         390
  C:B582H         LINE#         391
  C:B58BH         LINE#         392
  C:B592H         LINE#         393
  -------         ENDPROC       _BYTEHEX_DECIMAL
  -------         PROC          _TWO_BYTEHEX_DECIMAL
  X:0014H         SYMBOL        buffer
  X:0017H         SYMBOL        id_h
  X:0018H         SYMBOL        id_l
  -------         DO            
  X:0019H         SYMBOL        valor
  D:0006H         SYMBOL        numero
  X:001BH         SYMBOL        temp
  X:001CH         SYMBOL        dmil
  X:001DH         SYMBOL        mil
  X:001EH         SYMBOL        centena
  X:001FH         SYMBOL        decena
  -------         ENDDO         
  C:4944H         LINE#         400
  C:4952H         LINE#         401
  C:4952H         LINE#         405
  C:4959H         LINE#         406
  C:495DH         LINE#         407
  C:495FH         LINE#         408
  C:4961H         LINE#         409
  C:4963H         LINE#         412
  C:4968H         LINE#         413
  C:496BH         LINE#         414
  C:4971H         LINE#         416
BL51 BANKED LINKER/LOCATER V6.22.2.0                                                  08/02/2021  16:39:51  PAGE 39


  C:49CCH         LINE#         417
  C:49D4H         LINE#         418
  C:49D7H         LINE#         419
  C:4A32H         LINE#         421
  C:4A3AH         LINE#         422
  C:4A3DH         LINE#         423
  C:4A43H         LINE#         424
  C:4A9EH         LINE#         425
  C:4AA6H         LINE#         426
  C:4AA9H         LINE#         427
  C:4B04H         LINE#         428
  C:4B04H         LINE#         430
  C:4B0DH         LINE#         431
  C:4B0DH         LINE#         432
  C:4B15H         LINE#         433
  C:4B1BH         LINE#         434
  C:4B1DH         LINE#         435
  C:4B33H         LINE#         436
  C:4B3DH         LINE#         437
  C:4B46H         LINE#         438
  C:4B46H         LINE#         439
  C:4B4EH         LINE#         440
  C:4B54H         LINE#         441
  C:4B56H         LINE#         442
  C:4B6CH         LINE#         443
  C:4B76H         LINE#         444
  C:4B7FH         LINE#         445
  C:4B7FH         LINE#         446
  C:4B87H         LINE#         447
  C:4B8DH         LINE#         448
  C:4B8FH         LINE#         449
  C:4BA5H         LINE#         450
  C:4BAFH         LINE#         451
  C:4BB8H         LINE#         452
  C:4BB8H         LINE#         453
  C:4BC0H         LINE#         454
  C:4BC6H         LINE#         455
  C:4BC8H         LINE#         456
  C:4BDEH         LINE#         457
  C:4BE8H         LINE#         458
  C:4BFBH         LINE#         459
  C:4C05H         LINE#         460
  -------         ENDPROC       _TWO_BYTEHEX_DECIMAL
  -------         PROC          _BLOCK_READ_CLOCK_ASCII
  X:0051H         SYMBOL        datos_clock
  -------         DO            
  D:0007H         SYMBOL        dato
  -------         ENDDO         
  C:6931H         LINE#         466
  C:6934H         LINE#         467
  C:6934H         LINE#         473
  C:6937H         LINE#         474
  C:694FH         LINE#         475
  C:6959H         LINE#         476
  C:696EH         LINE#         477
  C:6978H         LINE#         480
  C:697DH         LINE#         481
BL51 BANKED LINKER/LOCATER V6.22.2.0                                                  08/02/2021  16:39:51  PAGE 40


  C:6995H         LINE#         482
  C:699FH         LINE#         483
  C:69B4H         LINE#         484
  C:69BEH         LINE#         487
  C:69C3H         LINE#         488
  C:69DBH         LINE#         489
  C:69E5H         LINE#         490
  C:69FAH         LINE#         491
  C:6A04H         LINE#         495
  C:6A09H         LINE#         496
  C:6A21H         LINE#         497
  C:6A2BH         LINE#         498
  C:6A40H         LINE#         499
  C:6A4AH         LINE#         502
  C:6A4FH         LINE#         503
  C:6A67H         LINE#         504
  C:6A71H         LINE#         505
  C:6A86H         LINE#         506
  C:6A90H         LINE#         507
  -------         ENDPROC       _BLOCK_READ_CLOCK_ASCII
  -------         PROC          _BLOCK_READ_CLOCK_ASCII_RASBERRY
  X:001EH         SYMBOL        datos_clock
  -------         DO            
  D:0007H         SYMBOL        dato
  -------         ENDDO         
  C:625FH         LINE#         510
  C:626AH         LINE#         511
  C:626AH         LINE#         516
  C:626FH         LINE#         517
  C:6287H         LINE#         518
  C:6291H         LINE#         519
  C:62A6H         LINE#         520
  C:62B0H         LINE#         523
  C:62B5H         LINE#         524
  C:62CDH         LINE#         525
  C:62D7H         LINE#         526
  C:62ECH         LINE#         527
  C:62F6H         LINE#         531
  C:62FBH         LINE#         532
  C:6313H         LINE#         533
  C:631DH         LINE#         534
  C:6332H         LINE#         535
  C:633CH         LINE#         540
  C:6341H         LINE#         541
  C:6359H         LINE#         542
  C:6363H         LINE#         543
  C:6378H         LINE#         544
  C:6382H         LINE#         547
  C:6387H         LINE#         548
  C:639FH         LINE#         549
  C:63A9H         LINE#         550
  C:63BEH         LINE#         551
  C:63C8H         LINE#         552
  C:63D8H         LINE#         553
  C:63E2H         LINE#         556
  C:63E7H         LINE#         557
  C:63FFH         LINE#         558
BL51 BANKED LINKER/LOCATER V6.22.2.0                                                  08/02/2021  16:39:51  PAGE 41


  C:6409H         LINE#         559
  C:641EH         LINE#         561
  C:6428H         LINE#         562
  -------         ENDPROC       _BLOCK_READ_CLOCK_ASCII_RASBERRY
  -------         PROC          _BLOCK_READ_CLOCK_HEX
  X:00AEH         SYMBOL        datos_clock
  C:9EE6H         LINE#         566
  C:9EE9H         LINE#         567
  C:9EE9H         LINE#         570
  C:9EFEH         LINE#         571
  C:9F08H         LINE#         573
  C:9F1FH         LINE#         574
  C:9F29H         LINE#         576
  C:9F40H         LINE#         577
  C:9F4AH         LINE#         579
  C:9F61H         LINE#         580
  C:9F6BH         LINE#         582
  C:9F82H         LINE#         583
  -------         ENDPROC       _BLOCK_READ_CLOCK_HEX
  -------         PROC          _HORA_ENTRADA_VEHICULO
  X:0005H         SYMBOL        Atributos_Expedidor
  C:B1D5H         LINE#         586
  C:B1D8H         LINE#         587
  C:B1D8H         LINE#         589
  C:B1EDH         LINE#         590
  C:B204H         LINE#         591
  C:B21BH         LINE#         592
  C:B232H         LINE#         593
  -------         ENDPROC       _HORA_ENTRADA_VEHICULO
  -------         PROC          _BLOCK_READ_CLOCK
  X:001EH         SYMBOL        datos_clock
  C:929FH         LINE#         599
  C:92A2H         LINE#         600
  C:92A2H         LINE#         602
  C:92B4H         LINE#         603
  C:92BEH         LINE#         605
  C:92D2H         LINE#         606
  C:92DCH         LINE#         608
  C:92F0H         LINE#         609
  C:92FAH         LINE#         611
  C:930EH         LINE#         612
  C:9318H         LINE#         614
  C:932CH         LINE#         615
  C:9336H         LINE#         617
  C:934AH         LINE#         618
  C:9354H         LINE#         619
  -------         ENDPROC       _BLOCK_READ_CLOCK
  -------         PROC          COND_INI_CLOCK
  C:C50BH         LINE#         622
  C:C50BH         LINE#         623
  C:C50BH         LINE#         624
  C:C50DH         LINE#         625
  C:C50FH         LINE#         626
  C:C511H         LINE#         627
  -------         ENDPROC       COND_INI_CLOCK
  -------         PROC          _CHECK_FECHAOUT
  X:009CH         SYMBOL        buffer
BL51 BANKED LINKER/LOCATER V6.22.2.0                                                  08/02/2021  16:39:51  PAGE 42


  -------         DO            
  X:009FH         SYMBOL        fecha_inicio
  X:00A3H         SYMBOL        fecha_fin
  X:00A7H         SYMBOL        datos_clk
  X:00ADH         SYMBOL        temp
  -------         ENDDO         
  C:91D6H         LINE#         637
  C:91E1H         LINE#         638
  C:91E1H         LINE#         644
  C:91EAH         LINE#         645
  C:9219H         LINE#         646
  C:926CH         LINE#         649
  C:928CH         LINE#         650
  C:928CH         LINE#         651
  C:9292H         LINE#         652
  C:9294H         LINE#         654
  C:9294H         LINE#         655
  C:9299H         LINE#         656
  C:9299H         LINE#         660
  C:929EH         LINE#         661
  -------         ENDPROC       _CHECK_FECHAOUT
  -------         ENDMOD        CLOCK

  -------         MODULE        DELAY
  C:0000H         SYMBOL        _ICE_DUMMY_
  C:BEEDH         PUBLIC        _Delay_10ms
  C:C43EH         PUBLIC        _Delay_20us
  C:C39FH         PUBLIC        _Delay_1ms
  C:C556H         PUBLIC        Delay
  -------         PROC          _DELAY_20US
  D:0006H         SYMBOL        cntd_us
  -------         DO            
  D:0004H         SYMBOL        i
  -------         ENDDO         
  C:C43EH         LINE#         20
  C:C43EH         LINE#         21
  C:C43EH         LINE#         24
  C:C448H         LINE#         26
  C:C44FH         LINE#         27
  -------         ENDPROC       _DELAY_20US
  -------         PROC          _DELAY_1MS
  D:0002H         SYMBOL        cntd_ms
  -------         DO            
  D:0082H         SYMBOL        i
  -------         ENDDO         
  C:C39FH         LINE#         38
  C:C3A3H         LINE#         39
  C:C3A3H         LINE#         41
  C:C3B9H         LINE#         42
  -------         ENDPROC       _DELAY_1MS
  -------         PROC          _DELAY_10MS
  X:001CH         SYMBOL        cntd_10ms
  -------         DO            
  X:001EH         SYMBOL        i
  -------         ENDDO         
  C:BEEDH         LINE#         54
  C:BEF5H         LINE#         55
BL51 BANKED LINKER/LOCATER V6.22.2.0                                                  08/02/2021  16:39:51  PAGE 43


  C:BEF5H         LINE#         57
  C:BF26H         LINE#         58
  -------         ENDPROC       _DELAY_10MS
  -------         PROC          DELAY
  C:C556H         LINE#         60
  C:C556H         LINE#         62
  -------         ENDPROC       DELAY
  -------         ENDMOD        DELAY

  -------         MODULE        EEPROM
  C:0000H         SYMBOL        _ICE_DUMMY_
  D:0090H         PUBLIC        P1
  C:8779H         PUBLIC        _Write_EEprom_Ticket
  C:B32AH         PUBLIC        _EscribirMemoria
  X:0210H         PUBLIC        l_chr
  C:C306H         PUBLIC        ackd
  B:0021H.6       PUBLIC        memory_flag
  B:00D0H.7       PUBLIC        CY
  C:C543H         PUBLIC        p_me
  C:C458H         PUBLIC        start
  B:0090H.2       PUBLIC        sda
  C:C326H         PUBLIC        ack_lect
  B:0090H.3       PUBLIC        scl
  C:BD89H         PUBLIC        _rd_eeprom
  C:C4E5H         PUBLIC        stop
  C:BF99H         PUBLIC        Formato_eeprom
  X:0211H         PUBLIC        l_data_eeprom
  C:B6C1H         PUBLIC        _wr_eeprom
  C:B470H         PUBLIC        _LeerMemoria
  C:C03BH         PUBLIC        Incremente_Ticket
  X:0212H         PUBLIC        byte_rd
  C:910CH         PUBLIC        Read_EEprom_Ticket
  C:C29EH         PUBLIC        _e_d_m
  C:9040H         PUBLIC        _graba_serie
  C:B7EEH         PUBLIC        Lee_No_Ticket
  C:B7A1H         PUBLIC        l_d_m
  -------         PROC          L?0062
  -------         ENDPROC       L?0062
  -------         PROC          ACKD
  -------         DO            
  D:0006H         SYMBOL        i
  -------         ENDDO         
  C:C306H         LINE#         37
  C:C306H         LINE#         38
  C:C306H         LINE#         40
  C:C308H         LINE#         41
  C:C30AH         LINE#         42
  C:C30CH         LINE#         43
  C:C30FH         LINE#         44
  C:C30FH         LINE#         45
  C:C312H         LINE#         46
  C:C312H         LINE#         47
  C:C314H         LINE#         48
  C:C316H         LINE#         50
  C:C317H         LINE#         51
  C:C317H         LINE#         52
  C:C322H         LINE#         54
BL51 BANKED LINKER/LOCATER V6.22.2.0                                                  08/02/2021  16:39:51  PAGE 44


  C:C322H         LINE#         55
  C:C322H         LINE#         57
  C:C322H         LINE#         58
  -------         ENDPROC       ACKD
  -------         PROC          L?0066
  -------         ENDPROC       L?0066
  -------         PROC          ACK_LECT
  -------         DO            
  D:0006H         SYMBOL        i
  -------         ENDDO         
  C:C326H         LINE#         61
  C:C326H         LINE#         62
  C:C326H         LINE#         64
  C:C328H         LINE#         65
  C:C32AH         LINE#         66
  C:C32CH         LINE#         67
  C:C32FH         LINE#         68
  C:C32FH         LINE#         69
  C:C332H         LINE#         70
  C:C332H         LINE#         71
  C:C334H         LINE#         72
  C:C336H         LINE#         73
  C:C337H         LINE#         74
  C:C337H         LINE#         75
  C:C342H         LINE#         76
  -------         ENDPROC       ACK_LECT
  -------         PROC          P_ME
  C:C543H         LINE#         78
  C:C543H         LINE#         79
  C:C543H         LINE#         80
  C:C545H         LINE#         81
  C:C546H         LINE#         82
  C:C548H         LINE#         83
  -------         ENDPROC       P_ME
  -------         PROC          _E_D_M
  D:0007H         SYMBOL        a_serial_eeprom
  -------         DO            
  D:0006H         SYMBOL        nbits
  -------         ENDDO         
  C:C29EH         LINE#         85
  C:C29EH         LINE#         86
  C:C29EH         LINE#         88
  C:C2AAH         LINE#         89
  C:C2AAH         LINE#         90
  C:C2AEH         LINE#         91
  C:C2B1H         LINE#         92
  C:C2B1H         LINE#         93
  C:C2B3H         LINE#         94
  C:C2B5H         LINE#         96
  C:C2B5H         LINE#         97
  C:C2B7H         LINE#         98
  C:C2B7H         LINE#         99
  C:C2B9H         LINE#         100
  C:C2BCH         LINE#         101
  C:C2BFH         LINE#         103
  -------         ENDPROC       _E_D_M
  -------         PROC          L?0063
BL51 BANKED LINKER/LOCATER V6.22.2.0                                                  08/02/2021  16:39:51  PAGE 45


  -------         ENDPROC       L?0063
  -------         PROC          START
  C:C458H         LINE#         105
  C:C458H         LINE#         106
  C:C458H         LINE#         107
  C:C45AH         LINE#         108
  C:C45CH         LINE#         109
  C:C45DH         LINE#         110
  C:C45FH         LINE#         111
  C:C461H         LINE#         113
  -------         ENDPROC       START
  -------         PROC          STOP
  C:C4E5H         LINE#         115
  C:C4E5H         LINE#         116
  C:C4E5H         LINE#         117
  C:C4E7H         LINE#         118
  C:C4E9H         LINE#         119
  C:C4EAH         LINE#         120
  C:C4ECH         LINE#         121
  C:C4EEH         LINE#         123
  -------         ENDPROC       STOP
  -------         PROC          L_D_M
  -------         DO            
  D:0003H         SYMBOL        nbits
  -------         ENDDO         
  C:B7A1H         LINE#         125
  C:B7A1H         LINE#         126
  C:B7A1H         LINE#         128
  C:B7AEH         LINE#         129
  C:B7AEH         LINE#         130
  C:B7B0H         LINE#         131
  C:B7B3H         LINE#         132
  C:B7B3H         LINE#         133
  C:B7BAH         LINE#         134
  C:B7C3H         LINE#         135
  C:B7C3H         LINE#         136
  C:B7C7H         LINE#         137
  C:B7C9H         LINE#         138
  C:B7C9H         LINE#         139
  C:B7C9H         LINE#         140
  C:B7CCH         LINE#         141
  C:B7CCH         LINE#         142
  C:B7D3H         LINE#         143
  C:B7DDH         LINE#         144
  C:B7DDH         LINE#         145
  C:B7E1H         LINE#         146
  C:B7E3H         LINE#         147
  C:B7E3H         LINE#         148
  C:B7E3H         LINE#         149
  C:B7E6H         LINE#         150
  C:B7E8H         LINE#         151
  C:B7EDH         LINE#         152
  -------         ENDPROC       L_D_M
  -------         PROC          L?0061
  -------         ENDPROC       L?0061
  -------         PROC          _WR_EEPROM
  D:0002H         SYMBOL        control
BL51 BANKED LINKER/LOCATER V6.22.2.0                                                  08/02/2021  16:39:51  PAGE 46


  D:0004H         SYMBOL        Dir
  D:0003H         SYMBOL        data_eeprom
  -------         DO            
  D:0005H         SYMBOL        dir_h
  D:0001H         SYMBOL        dir_l
  -------         ENDDO         
  C:B6C1H         LINE#         158
  C:B6C3H         LINE#         159
  C:B6C3H         LINE#         161
  C:B6C7H         LINE#         162
  C:B6C7H         LINE#         163
  C:B6C7H         LINE#         166
  C:B6C7H         LINE#         167
  C:B6C7H         LINE#         169
  C:B6CAH         LINE#         170
  C:B6CCH         LINE#         171
  C:B6CFH         LINE#         172
  C:B6D1H         LINE#         173
  C:B6D4H         LINE#         174
  C:B6D9H         LINE#         175
  C:B6DCH         LINE#         176
  C:B6E1H         LINE#         177
  C:B6E4H         LINE#         178
  C:B6E7H         LINE#         179
  C:B6EEH         LINE#         181
  C:B6F0H         LINE#         182
  C:B6F2H         LINE#         183
  C:B6F9H         LINE#         184
  -------         ENDPROC       _WR_EEPROM
  C:BD85H         SYMBOL        L?0065
  -------         PROC          L?0064
  -------         ENDPROC       L?0064
  C:BD85H         SYMBOL        L?0065
  -------         PROC          _RD_EEPROM
  D:0003H         SYMBOL        control
  D:0004H         SYMBOL        Dir
  -------         DO            
  D:0005H         SYMBOL        dir_h
  D:0002H         SYMBOL        dir_l
  -------         ENDDO         
  C:BD89H         LINE#         222
  C:BD8BH         LINE#         223
  C:BD8BH         LINE#         226
  C:BD8FH         LINE#         227
  C:BD8FH         LINE#         228
  C:BD8FH         LINE#         230
  C:BD8FH         LINE#         231
  C:BD8FH         LINE#         233
  C:BD92H         LINE#         234
  C:BD94H         LINE#         235
  C:BD97H         LINE#         236
  C:BD99H         LINE#         237
  C:BD9CH         LINE#         238
  C:BDA1H         LINE#         239
  C:BDA4H         LINE#         240
  C:BDA7H         LINE#         241
  C:BDADH         LINE#         242
BL51 BANKED LINKER/LOCATER V6.22.2.0                                                  08/02/2021  16:39:51  PAGE 47


  C:BDB0H         LINE#         243
  C:BDB2H         LINE#         244
  C:BDB5H         LINE#         245
  C:BDB8H         LINE#         246
  C:BDBAH         LINE#         247
  C:BDBCH         LINE#         248
  C:BDC1H         LINE#         249
  -------         ENDPROC       _RD_EEPROM
  -------         PROC          _GRABA_SERIE
  X:0011H         SYMBOL        buffer
  -------         DO            
  X:0014H         SYMBOL        j
  X:0015H         SYMBOL        error
  -------         ENDDO         
  C:9040H         LINE#         256
  C:904BH         LINE#         257
  C:904BH         LINE#         260
  C:9050H         LINE#         265
  C:9062H         LINE#         267
  C:9075H         LINE#         268
  C:9075H         LINE#         269
  C:909EH         LINE#         270
  C:909EH         LINE#         271
  C:90A4H         LINE#         273
  C:90ADH         LINE#         274
  C:90BBH         LINE#         275
  C:90C4H         LINE#         276
  C:90C4H         LINE#         278
  C:90CCH         LINE#         282
  C:90D2H         LINE#         283
  C:90D2H         LINE#         284
  C:90E0H         LINE#         286
  C:90E0H         LINE#         288
  C:90E0H         LINE#         289
  C:90EAH         LINE#         290
  C:90F5H         LINE#         291
  C:9100H         LINE#         292
  C:910BH         LINE#         294
  C:910BH         LINE#         295
  -------         ENDPROC       _GRABA_SERIE
  -------         PROC          _WRITE_EEPROM_TICKET
  X:0016H         SYMBOL        buffer
  -------         DO            
  X:0019H         SYMBOL        cod_3
  X:001AH         SYMBOL        cod_2
  X:001BH         SYMBOL        cod_1
  X:001CH         SYMBOL        cod_0
  X:001DH         SYMBOL        Noticket
  D:0004H         SYMBOL        Bnoticket
  -------         ENDDO         
  C:8779H         LINE#         296
  C:8784H         LINE#         297
  C:8784H         LINE#         299
  C:878CH         LINE#         300
  C:8795H         LINE#         301
  C:87A3H         LINE#         302
  C:87ACH         LINE#         303
BL51 BANKED LINKER/LOCATER V6.22.2.0                                                  08/02/2021  16:39:51  PAGE 48


  C:87C0H         LINE#         305
  C:87C9H         LINE#         306
  C:87DCH         LINE#         307
  C:87E1H         LINE#         308
  C:87E4H         LINE#         310
  C:87F7H         LINE#         311
  C:87FCH         LINE#         312
  C:87FFH         LINE#         314
  C:8812H         LINE#         315
  C:8817H         LINE#         316
  C:881AH         LINE#         318
  C:8826H         LINE#         319
  C:8829H         LINE#         320
  C:8832H         LINE#         322
  C:8840H         LINE#         323
  C:884EH         LINE#         324
  C:885CH         LINE#         325
  -------         ENDPROC       _WRITE_EEPROM_TICKET
  -------         PROC          LEE_NO_TICKET
  -------         DO            
  D:0004H         SYMBOL        Noticket
  X:0059H         SYMBOL        Lee_No_Ticket
  D:0007H         SYMBOL        num_chr
  -------         ENDDO         
  C:B7EEH         LINE#         330
  C:B7EEH         LINE#         331
  C:B7EEH         LINE#         335
  C:B7F1H         LINE#         336
  C:B80CH         LINE#         337
  C:B815H         LINE#         338
  C:B821H         LINE#         339
  C:B82AH         LINE#         340
  C:B833H         LINE#         341
  C:B839H         LINE#         342
  -------         ENDPROC       LEE_NO_TICKET
  -------         PROC          READ_EEPROM_TICKET
  -------         DO            
  D:0001H         SYMBOL        cod3
  X:0064H         SYMBOL        cod2
  X:0065H         SYMBOL        cod1
  X:0066H         SYMBOL        cod0
  X:0067H         SYMBOL        Noticket
  -------         ENDDO         
  C:910CH         LINE#         346
  C:910CH         LINE#         347
  C:910CH         LINE#         349
  C:9116H         LINE#         350
  C:911DH         LINE#         351
  C:9127H         LINE#         352
  C:9135H         LINE#         353
  C:913FH         LINE#         355
  C:915FH         LINE#         356
  C:9184H         LINE#         357
  C:91A9H         LINE#         358
  C:91C7H         LINE#         359
  C:91D5H         LINE#         360
  -------         ENDPROC       READ_EEPROM_TICKET
BL51 BANKED LINKER/LOCATER V6.22.2.0                                                  08/02/2021  16:39:51  PAGE 49


  -------         PROC          INCREMENTE_TICKET
  -------         DO            
  D:0004H         SYMBOL        Noticket
  X:0009H         SYMBOL        Lee_No_Ticket
  -------         ENDDO         
  C:C03BH         LINE#         364
  C:C03BH         LINE#         365
  C:C03BH         LINE#         369
  C:C03EH         LINE#         370
  C:C04BH         LINE#         371
  C:C066H         LINE#         372
  -------         ENDPROC       INCREMENTE_TICKET
  -------         PROC          _LEERMEMORIA
  X:009CH         SYMBOL        addres
  X:009EH         SYMBOL        res
  -------         DO            
  D:0007H         SYMBOL        i
  -------         ENDDO         
  C:B470H         LINE#         378
  C:B481H         LINE#         379
  C:B481H         LINE#         381
  C:B481H         LINE#         382
  C:B49DH         LINE#         383
  C:B4ACH         LINE#         384
  C:B4BAH         LINE#         385
  C:B4C4H         LINE#         386
  C:B4C7H         LINE#         387
  -------         ENDPROC       _LEERMEMORIA
  -------         PROC          _ESCRIBIRMEMORIA
  X:005DH         SYMBOL        addres
  X:005FH         SYMBOL        res
  C:B32AH         LINE#         389
  C:B33BH         LINE#         390
  C:B33BH         LINE#         393
  C:B34BH         LINE#         394
  C:B352H         LINE#         395
  C:B355H         LINE#         397
  C:B363H         LINE#         398
  C:B36DH         LINE#         399
  C:B36FH         LINE#         400
  C:B372H         LINE#         401
  C:B380H         LINE#         402
  C:B38AH         LINE#         403
  -------         ENDPROC       _ESCRIBIRMEMORIA
  -------         PROC          FORMATO_EEPROM
  -------         DO            
  X:0011H         SYMBOL        dato
  X:0012H         SYMBOL        i
  -------         ENDDO         
  C:BF99H         LINE#         406
  C:BF99H         LINE#         407
  C:BF99H         LINE#         408
  C:BF9FH         LINE#         410
  C:BFB4H         LINE#         411
  C:BFB4H         LINE#         412
  C:BFBEH         LINE#         413
  C:BFCEH         LINE#         414
BL51 BANKED LINKER/LOCATER V6.22.2.0                                                  08/02/2021  16:39:51  PAGE 50


  -------         ENDPROC       FORMATO_EEPROM
  -------         ENDMOD        EEPROM

  -------         MODULE        IO_SENSORES
  C:0000H         SYMBOL        _ICE_DUMMY_
  D:0090H         PUBLIC        P1
  D:00B0H         PUBLIC        P3
  C:BB06H         PUBLIC        Dir_board
  B:0021H.7       PUBLIC        PULSADOR_BOTTON
  C:C520H         PUBLIC        sel_Pulsa
  B:0090H.1       PUBLIC        DataIn
  C:C400H         PUBLIC        Dir_Board_Monitor
  C:C519H         PUBLIC        sel_Auto
  C:BF61H         PUBLIC        ValidaSensoresPaso
  B:00B0H.3       PUBLIC        busy
  C:C343H         PUBLIC        ValidaSensor
  C:C52EH         PUBLIC        sel_Sensor1
  C:C527H         PUBLIC        sel_Sensor2
  C:C2C0H         PUBLIC        ValidaSensor_cero
  C:B64FH         PUBLIC        Valida_Sensor1_Auto
  B:00B0H.5       PUBLIC        sel_A
  B:00B0H.6       PUBLIC        sel_B
  B:00B0H.7       PUBLIC        sel_C
  C:9C38H         PUBLIC        msj_lcd_informativo
  C:C535H         PUBLIC        sel_Dir1
  C:C53CH         PUBLIC        sel_Dir2
  C:C462H         PUBLIC        Botton
  C:C512H         PUBLIC        sel_Funcion
  -------         PROC          SEL_FUNCION
  C:C512H         LINE#         34
  C:C512H         LINE#         35
  C:C512H         LINE#         36
  C:C514H         LINE#         37
  C:C516H         LINE#         38
  C:C518H         LINE#         39
  -------         ENDPROC       SEL_FUNCION
  -------         PROC          SEL_AUTO
  C:C519H         LINE#         41
  C:C519H         LINE#         42
  C:C519H         LINE#         43
  C:C51BH         LINE#         44
  C:C51DH         LINE#         45
  C:C51FH         LINE#         46
  -------         ENDPROC       SEL_AUTO
  -------         PROC          SEL_PULSA
  C:C520H         LINE#         48
  C:C520H         LINE#         49
  C:C520H         LINE#         50
  C:C522H         LINE#         51
  C:C524H         LINE#         52
  C:C526H         LINE#         53
  -------         ENDPROC       SEL_PULSA
  -------         PROC          SEL_SENSOR2
  C:C527H         LINE#         56
  C:C527H         LINE#         57
  C:C527H         LINE#         58
  C:C529H         LINE#         59
BL51 BANKED LINKER/LOCATER V6.22.2.0                                                  08/02/2021  16:39:51  PAGE 51


  C:C52BH         LINE#         60
  C:C52DH         LINE#         61
  -------         ENDPROC       SEL_SENSOR2
  -------         PROC          SEL_SENSOR1
  C:C52EH         LINE#         63
  C:C52EH         LINE#         64
  C:C52EH         LINE#         65
  C:C530H         LINE#         66
  C:C532H         LINE#         67
  C:C534H         LINE#         68
  -------         ENDPROC       SEL_SENSOR1
  -------         PROC          SEL_DIR1
  C:C535H         LINE#         70
  C:C535H         LINE#         71
  C:C535H         LINE#         72
  C:C537H         LINE#         73
  C:C539H         LINE#         74
  C:C53BH         LINE#         75
  -------         ENDPROC       SEL_DIR1
  -------         PROC          SEL_DIR2
  C:C53CH         LINE#         77
  C:C53CH         LINE#         78
  C:C53CH         LINE#         79
  C:C53EH         LINE#         80
  C:C540H         LINE#         81
  C:C542H         LINE#         82
  -------         ENDPROC       SEL_DIR2
  -------         PROC          BOTTON
  C:C462H         LINE#         83
  C:C462H         LINE#         84
  C:C462H         LINE#         85
  C:C465H         LINE#         86
  C:C468H         LINE#         87
  C:C468H         LINE#         88
  C:C471H         LINE#         89
  C:C473H         LINE#         90
  C:C473H         LINE#         92
  -------         ENDPROC       BOTTON
  -------         PROC          VALIDASENSOR
  -------         DO            
  D:0007H         SYMBOL        Valido
  D:0004H         SYMBOL        Tmin
  -------         ENDDO         
  C:C343H         LINE#         94
  C:C343H         LINE#         95
  C:C343H         LINE#         97
  C:C345H         LINE#         98
  C:C349H         LINE#         99
  C:C354H         LINE#         100
  C:C354H         LINE#         101
  C:C359H         LINE#         102
  C:C35DH         LINE#         103
  C:C35DH         LINE#         104
  C:C35FH         LINE#         105
  C:C35FH         LINE#         106
  C:C361H         LINE#         107
  C:C361H         LINE#         108
BL51 BANKED LINKER/LOCATER V6.22.2.0                                                  08/02/2021  16:39:51  PAGE 52


  -------         ENDPROC       VALIDASENSOR
  -------         PROC          VALIDASENSOR_CERO
  -------         DO            
  D:0007H         SYMBOL        Valido
  D:0004H         SYMBOL        Tmin
  -------         ENDDO         
  C:C2C0H         LINE#         109
  C:C2C0H         LINE#         110
  C:C2C0H         LINE#         112
  C:C2C2H         LINE#         113
  C:C2C6H         LINE#         114
  C:C2D5H         LINE#         115
  C:C2D5H         LINE#         116
  C:C2DAH         LINE#         117
  C:C2DEH         LINE#         118
  C:C2DEH         LINE#         119
  C:C2DFH         LINE#         120
  C:C2DFH         LINE#         121
  C:C2E1H         LINE#         122
  C:C2E1H         LINE#         123
  -------         ENDPROC       VALIDASENSOR_CERO
  -------         PROC          DIR_BOARD
  -------         DO            
  X:0033H         SYMBOL        Board
  D:0007H         SYMBOL        Board_High
  -------         ENDDO         
  C:BB06H         LINE#         127
  C:BB06H         LINE#         128
  C:BB06H         LINE#         129
  C:BB0CH         LINE#         131
  C:BB0FH         LINE#         132
  C:BB12H         LINE#         133
  C:BB12H         LINE#         134
  C:BB15H         LINE#         135
  C:BB15H         LINE#         136
  C:BB18H         LINE#         137
  C:BB1BH         LINE#         138
  C:BB1BH         LINE#         139
  C:BB22H         LINE#         140
  C:BB22H         LINE#         141
  C:BB2AH         LINE#         142
  C:BB2AH         LINE#         143
  C:BB32H         LINE#         145
  C:BB35H         LINE#         146
  C:BB35H         LINE#         147
  C:BB3BH         LINE#         148
  C:BB3BH         LINE#         149
  C:BB3DH         LINE#         150
  C:BB3FH         LINE#         151
  C:BB41H         LINE#         152
  C:BB41H         LINE#         154
  C:BB41H         LINE#         155
  C:BB48H         LINE#         156
  -------         ENDPROC       DIR_BOARD
  -------         PROC          DIR_BOARD_MONITOR
  -------         DO            
  D:0007H         SYMBOL        Board_High
BL51 BANKED LINKER/LOCATER V6.22.2.0                                                  08/02/2021  16:39:51  PAGE 53


  -------         ENDDO         
  C:C400H         LINE#         157
  C:C400H         LINE#         158
  C:C400H         LINE#         161
  C:C409H         LINE#         162
  C:C40CH         LINE#         163
  C:C40CH         LINE#         164
  C:C40FH         LINE#         165
  C:C40FH         LINE#         166
  C:C411H         LINE#         167
  C:C411H         LINE#         168
  C:C411H         LINE#         169
  C:C415H         LINE#         170
  -------         ENDPROC       DIR_BOARD_MONITOR
  -------         PROC          VALIDA_SENSOR1_AUTO
  -------         DO            
  X:0012H         SYMBOL        sensor
  -------         ENDDO         
  C:B64FH         LINE#         174
  C:B64FH         LINE#         175
  C:B64FH         LINE#         177
  C:B652H         LINE#         178
  C:B655H         LINE#         179
  C:B658H         LINE#         180
  C:B65DH         LINE#         181
  C:B65DH         LINE#         182
  C:B664H         LINE#         183
  C:B668H         LINE#         184
  C:B668H         LINE#         185
  C:B668H         LINE#         186
  C:B66AH         LINE#         188
  C:B66AH         LINE#         189
  C:B671H         LINE#         190
  C:B676H         LINE#         191
  C:B676H         LINE#         192
  C:B676H         LINE#         193
  C:B676H         LINE#         196
  C:B678H         LINE#         198
  C:B67BH         LINE#         199
  C:B680H         LINE#         200
  C:B680H         LINE#         202
  C:B687H         LINE#         203
  C:B68DH         LINE#         204
  C:B693H         LINE#         205
  C:B696H         LINE#         206
  C:B698H         LINE#         208
  C:B698H         LINE#         209
  C:B69FH         LINE#         210
  C:B6A4H         LINE#         211
  C:B6A4H         LINE#         214
  C:B6A4H         LINE#         216
  C:B6A9H         LINE#         217
  -------         ENDPROC       VALIDA_SENSOR1_AUTO
  -------         PROC          VALIDASENSORESPASO
  -------         DO            
  X:0011H         SYMBOL        sensor
  -------         ENDDO         
BL51 BANKED LINKER/LOCATER V6.22.2.0                                                  08/02/2021  16:39:51  PAGE 54


  C:BF61H         LINE#         222
  C:BF61H         LINE#         223
  C:BF61H         LINE#         225
  C:BF64H         LINE#         226
  C:BF67H         LINE#         227
  C:BF67H         LINE#         228
  C:BF75H         LINE#         229
  C:BF75H         LINE#         230
  C:BF7DH         LINE#         232
  C:BF7FH         LINE#         234
  C:BF7FH         LINE#         235
  C:BF85H         LINE#         236
  C:BF87H         LINE#         237
  C:BF87H         LINE#         238
  C:BF87H         LINE#         239
  C:BF87H         LINE#         240
  C:BF90H         LINE#         241
  C:BF93H         LINE#         242
  C:BF93H         LINE#         243
  C:BF98H         LINE#         244
  -------         ENDPROC       VALIDASENSORESPASO
  -------         PROC          MSJ_LCD_INFORMATIVO
  -------         DO            
  X:0219H         SYMBOL        contador
  X:0001H         SYMBOL        info
  X:021AH         SYMBOL        toggle
  -------         ENDDO         
  C:9C38H         LINE#         257
  C:9C38H         LINE#         258
  C:9C38H         LINE#         260
  C:9C3DH         LINE#         262
  C:9C43H         LINE#         263
  C:9C50H         LINE#         264
  C:9C50H         LINE#         266
  C:9C52H         LINE#         267
  C:9C55H         LINE#         268
  C:9C61H         LINE#         269
  C:9C61H         LINE#         270
  C:9C6BH         LINE#         271
  C:9C6BH         LINE#         273
  C:9C74H         LINE#         274
  C:9C7CH         LINE#         275
  C:9C84H         LINE#         276
  C:9C90H         LINE#         277
  C:9C90H         LINE#         279
  C:9C93H         LINE#         280
  C:9C93H         LINE#         281
  C:9C95H         LINE#         282
  C:9C98H         LINE#         283
  C:9C9EH         LINE#         284
  C:9C9EH         LINE#         285
  C:9CACH         LINE#         286
  C:9CACH         LINE#         287
  C:9CB2H         LINE#         288
  C:9CB2H         LINE#         289
  C:9CB4H         LINE#         290
  C:9CC2H         LINE#         291
BL51 BANKED LINKER/LOCATER V6.22.2.0                                                  08/02/2021  16:39:51  PAGE 55


  C:9CC2H         LINE#         292
  C:9CCBH         LINE#         293
  C:9CCEH         LINE#         294
  C:9CCEH         LINE#         295
  C:9CD3H         LINE#         296
  C:9CD6H         LINE#         297
  C:9CDBH         LINE#         298
  C:9CDBH         LINE#         299
  C:9CDBH         LINE#         300
  C:9CDBH         LINE#         301
  C:9CDBH         LINE#         302
  C:9CDEH         LINE#         303
  C:9CE1H         LINE#         304
  C:9CE1H         LINE#         305
  C:9CE6H         LINE#         306
  C:9CE6H         LINE#         307
  C:9CE6H         LINE#         308
  -------         ENDPROC       MSJ_LCD_INFORMATIVO
  -------         ENDMOD        IO_SENSORES

  -------         MODULE        PANTALLAS
  C:0000H         SYMBOL        _ICE_DUMMY_
  D:0080H         PUBLIC        P0
  C:B065H         PUBLIC        Reloj_Pantalla_Lcd
  C:28A8H         PUBLIC        _PantallaLCD
  C:BACAH         PUBLIC        _LCD_txt
  C:AD6BH         PUBLIC        _Raspberry_data
  C:C211H         PUBLIC        _tx_chrlcd
  C:369DH         SYMBOL        _?ix1000
  C:36A3H         SYMBOL        _?ix1001
  C:36A9H         SYMBOL        _?ix1002
  C:36D1H         SYMBOL        _?ix1003
  C:BA36H         PUBLIC        _LCD_txt_num_char
  C:4ECBH         PUBLIC        _PantallaLCD_LINEA_2
  B:0098H.4       PUBLIC        REN
  B:0080H.7       PUBLIC        sel_com
  -------         PROC          _PANTALLALCD
  X:002AH         SYMBOL        cod_msg
  -------         DO            
  X:002BH         SYMBOL        Ini_LCD_Line_one
  X:0031H         SYMBOL        num_chr
  X:0032H         SYMBOL        msjpantalla
  -------         ENDDO         
  C:28A8H         LINE#         96
  C:28ADH         LINE#         97
  C:28ADH         LINE#         99
  C:28C0H         LINE#         104
  C:28C7H         LINE#         108
  C:28C9H         LINE#         110
  C:28D2H         LINE#         111
  C:28D2H         LINE#         112
  C:28DCH         LINE#         114
  C:2938H         LINE#         115
  C:2938H         LINE#         117
  C:2938H         LINE#         118
  C:2946H         LINE#         119
  C:294CH         LINE#         120
BL51 BANKED LINKER/LOCATER V6.22.2.0                                                  08/02/2021  16:39:51  PAGE 56


  C:294FH         LINE#         121
  C:2955H         LINE#         122
  C:2958H         LINE#         124
  C:2958H         LINE#         126
  C:2966H         LINE#         127
  C:296CH         LINE#         128
  C:296FH         LINE#         129
  C:2975H         LINE#         130
  C:2978H         LINE#         132
  C:2978H         LINE#         134
  C:2986H         LINE#         135
  C:298CH         LINE#         136
  C:298FH         LINE#         137
  C:2995H         LINE#         138
  C:2998H         LINE#         139
  C:2998H         LINE#         140
  C:29A6H         LINE#         141
  C:29ACH         LINE#         142
  C:29AFH         LINE#         143
  C:29B5H         LINE#         144
  C:29B8H         LINE#         145
  C:29B8H         LINE#         146
  C:29C6H         LINE#         147
  C:29CCH         LINE#         148
  C:29CFH         LINE#         149
  C:29D5H         LINE#         150
  C:29D8H         LINE#         151
  C:29D8H         LINE#         152
  C:29E6H         LINE#         153
  C:29ECH         LINE#         154
  C:29EFH         LINE#         155
  C:29F5H         LINE#         156
  C:29F8H         LINE#         157
  C:29F8H         LINE#         159
  C:2A06H         LINE#         160
  C:2A0CH         LINE#         161
  C:2A0FH         LINE#         162
  C:2A15H         LINE#         163
  C:2A18H         LINE#         164
  C:2A18H         LINE#         170
  C:2A18H         LINE#         171
  C:2A26H         LINE#         172
  C:2A2CH         LINE#         173
  C:2A2FH         LINE#         174
  C:2A35H         LINE#         175
  C:2A38H         LINE#         176
  C:2A38H         LINE#         177
  C:2A46H         LINE#         178
  C:2A4CH         LINE#         179
  C:2A4FH         LINE#         180
  C:2A55H         LINE#         181
  C:2A58H         LINE#         183
  C:2A58H         LINE#         184
  C:2A66H         LINE#         185
  C:2A6CH         LINE#         186
  C:2A6FH         LINE#         187
  C:2A75H         LINE#         188
BL51 BANKED LINKER/LOCATER V6.22.2.0                                                  08/02/2021  16:39:51  PAGE 57


  C:2A78H         LINE#         190
  C:2A78H         LINE#         191
  C:2A86H         LINE#         192
  C:2A8CH         LINE#         193
  C:2A8FH         LINE#         194
  C:2A95H         LINE#         195
  C:2A98H         LINE#         200
  C:2A98H         LINE#         202
  C:2AA6H         LINE#         203
  C:2AACH         LINE#         204
  C:2AAFH         LINE#         205
  C:2AB5H         LINE#         206
  C:2AB8H         LINE#         208
  C:2AB8H         LINE#         210
  C:2AC6H         LINE#         211
  C:2ACCH         LINE#         212
  C:2ACFH         LINE#         213
  C:2AD5H         LINE#         214
  C:2AD8H         LINE#         216
  C:2AD8H         LINE#         217
  C:2AE6H         LINE#         218
  C:2AECH         LINE#         219
  C:2AEFH         LINE#         220
  C:2AF5H         LINE#         221
  C:2AF8H         LINE#         223
  C:2AF8H         LINE#         225
  C:2B06H         LINE#         226
  C:2B0CH         LINE#         227
  C:2B0FH         LINE#         228
  C:2B15H         LINE#         229
  C:2B18H         LINE#         231
  C:2B18H         LINE#         233
  C:2B26H         LINE#         234
  C:2B2CH         LINE#         235
  C:2B2FH         LINE#         236
  C:2B35H         LINE#         237
  C:2B38H         LINE#         239
  C:2B38H         LINE#         240
  C:2B46H         LINE#         241
  C:2B4CH         LINE#         242
  C:2B4FH         LINE#         243
  C:2B55H         LINE#         244
  C:2B58H         LINE#         246
  C:2B58H         LINE#         247
  C:2B66H         LINE#         248
  C:2B6CH         LINE#         249
  C:2B6FH         LINE#         250
  C:2B75H         LINE#         251
  C:2B78H         LINE#         253
  C:2B78H         LINE#         255
  C:2B86H         LINE#         256
  C:2B8CH         LINE#         257
  C:2B8FH         LINE#         258
  C:2B95H         LINE#         259
  C:2B98H         LINE#         261
  C:2B98H         LINE#         262
  C:2BA6H         LINE#         263
BL51 BANKED LINKER/LOCATER V6.22.2.0                                                  08/02/2021  16:39:51  PAGE 58


  C:2BACH         LINE#         264
  C:2BAFH         LINE#         265
  C:2BB5H         LINE#         266
  C:2BB8H         LINE#         267
  C:2BB8H         LINE#         268
  C:2BC6H         LINE#         269
  C:2BCCH         LINE#         270
  C:2BCFH         LINE#         271
  C:2BD5H         LINE#         272
  C:2BD8H         LINE#         273
  C:2BD8H         LINE#         274
  C:2BE6H         LINE#         275
  C:2BECH         LINE#         276
  C:2BEFH         LINE#         277
  C:2BF5H         LINE#         278
  C:2BF8H         LINE#         279
  C:2BF8H         LINE#         280
  C:2C06H         LINE#         281
  C:2C09H         LINE#         282
  C:2C0FH         LINE#         283
  C:2C11H         LINE#         287
  C:2C11H         LINE#         288
  C:2C1FH         LINE#         289
  C:2C25H         LINE#         290
  C:2C28H         LINE#         291
  C:2C2EH         LINE#         292
  C:2C30H         LINE#         293
  C:2C30H         LINE#         294
  C:2C3EH         LINE#         295
  C:2C44H         LINE#         296
  C:2C47H         LINE#         297
  C:2C4DH         LINE#         298
  C:2C4FH         LINE#         299
  C:2C4FH         LINE#         300
  C:2C5DH         LINE#         301
  C:2C63H         LINE#         302
  C:2C66H         LINE#         303
  C:2C71H         LINE#         304
  C:2C71H         LINE#         313
  C:2C71H         LINE#         315
  C:2C71H         LINE#         316
  C:2C71H         LINE#         317
  C:2C73H         LINE#         319
  C:2C74H         LINE#         321
  C:2C74H         LINE#         322
  C:2C76H         LINE#         323
  C:2CE4H         LINE#         324
  C:2CE4H         LINE#         327
  C:2CE4H         LINE#         328
  C:2CF8H         LINE#         329
  C:2CF8H         LINE#         331
  C:2CFBH         LINE#         332
  C:2CFBH         LINE#         335
  C:2D0FH         LINE#         336
  C:2D0FH         LINE#         337
  C:2D12H         LINE#         339
  C:2D12H         LINE#         340
BL51 BANKED LINKER/LOCATER V6.22.2.0                                                  08/02/2021  16:39:51  PAGE 59


  C:2D26H         LINE#         341
  C:2D26H         LINE#         343
  C:2D29H         LINE#         344
  C:2D29H         LINE#         345
  C:2D3DH         LINE#         346
  C:2D3DH         LINE#         348
  C:2D40H         LINE#         349
  C:2D40H         LINE#         350
  C:2D54H         LINE#         351
  C:2D54H         LINE#         353
  C:2D57H         LINE#         354
  C:2D57H         LINE#         355
  C:2D6BH         LINE#         356
  C:2D6BH         LINE#         358
  C:2D6EH         LINE#         359
  C:2D6EH         LINE#         360
  C:2D82H         LINE#         361
  C:2D82H         LINE#         363
  C:2D85H         LINE#         364
  C:2D85H         LINE#         365
  C:2D99H         LINE#         366
  C:2D99H         LINE#         368
  C:2D9CH         LINE#         369
  C:2D9CH         LINE#         370
  C:2DB0H         LINE#         371
  C:2DB0H         LINE#         373
  C:2DB3H         LINE#         374
  C:2DB3H         LINE#         375
  C:2DC7H         LINE#         376
  C:2DC7H         LINE#         378
  C:2DCAH         LINE#         380
  C:2DCAH         LINE#         381
  C:2DDEH         LINE#         382
  C:2DDEH         LINE#         384
  C:2DE1H         LINE#         386
  C:2DE1H         LINE#         387
  C:2DF5H         LINE#         388
  C:2DF5H         LINE#         390
  C:2DF8H         LINE#         392
  C:2DF8H         LINE#         393
  C:2E0CH         LINE#         394
  C:2E0CH         LINE#         396
  C:2E0FH         LINE#         400
  C:2E0FH         LINE#         401
  C:2E23H         LINE#         402
  C:2E23H         LINE#         404
  C:2E26H         LINE#         406
  C:2E26H         LINE#         407
  C:2E3AH         LINE#         408
  C:2E3AH         LINE#         410
  C:2E3DH         LINE#         412
  C:2E3DH         LINE#         413
  C:2E51H         LINE#         414
  C:2E51H         LINE#         417
  C:2E54H         LINE#         418
  C:2E54H         LINE#         419
  C:2E68H         LINE#         420
BL51 BANKED LINKER/LOCATER V6.22.2.0                                                  08/02/2021  16:39:51  PAGE 60


  C:2E68H         LINE#         422
  C:2E6BH         LINE#         423
  C:2E6BH         LINE#         424
  C:2E7FH         LINE#         425
  C:2E7FH         LINE#         427
  C:2E82H         LINE#         428
  C:2E82H         LINE#         429
  C:2E96H         LINE#         430
  C:2E96H         LINE#         432
  C:2E99H         LINE#         433
  C:2E99H         LINE#         434
  C:2EADH         LINE#         435
  C:2EADH         LINE#         437
  C:2EB0H         LINE#         439
  C:2EB0H         LINE#         440
  C:2EC4H         LINE#         441
  C:2EC4H         LINE#         443
  C:2EC7H         LINE#         445
  C:2EC7H         LINE#         446
  C:2EDBH         LINE#         447
  C:2EDBH         LINE#         449
  C:2EDEH         LINE#         450
  C:2EDEH         LINE#         451
  C:2EF2H         LINE#         452
  C:2EF2H         LINE#         454
  C:2EF5H         LINE#         455
  C:2EF5H         LINE#         456
  C:2F09H         LINE#         457
  C:2F09H         LINE#         459
  C:2F0CH         LINE#         460
  C:2F0CH         LINE#         461
  C:2F20H         LINE#         462
  C:2F20H         LINE#         464
  C:2F23H         LINE#         466
  C:2F23H         LINE#         467
  C:2F37H         LINE#         468
  C:2F37H         LINE#         470
  C:2F3AH         LINE#         471
  C:2F3AH         LINE#         472
  C:2F4EH         LINE#         473
  C:2F4EH         LINE#         475
  C:2F51H         LINE#         476
  C:2F51H         LINE#         477
  C:2F65H         LINE#         478
  C:2F65H         LINE#         480
  C:2F67H         LINE#         482
  C:2F67H         LINE#         483
  C:2F7BH         LINE#         484
  C:2F7BH         LINE#         486
  C:2F7DH         LINE#         489
  C:2F7DH         LINE#         490
  C:2F91H         LINE#         491
  C:2F91H         LINE#         493
  C:2F93H         LINE#         494
  C:2F93H         LINE#         495
  C:2FA7H         LINE#         496
  C:2FA7H         LINE#         498
BL51 BANKED LINKER/LOCATER V6.22.2.0                                                  08/02/2021  16:39:51  PAGE 61


  C:2FA9H         LINE#         499
  C:2FA9H         LINE#         500
  C:2FBDH         LINE#         501
  C:2FBDH         LINE#         502
  C:2FBFH         LINE#         504
  C:2FBFH         LINE#         505
  C:2FD6H         LINE#         506
  C:2FE5H         LINE#         507
  C:2FE5H         LINE#         512
  C:2FE5H         LINE#         513
  C:2FE5H         LINE#         514
  C:2FE5H         LINE#         516
  C:2FECH         LINE#         517
  C:2FEEH         LINE#         518
  C:2FEEH         LINE#         522
  -------         ENDPROC       _PANTALLALCD
  -------         PROC          _PANTALLALCD_LINEA_2
  X:0011H         SYMBOL        cod_msg
  X:0012H         SYMBOL        buffer
  -------         DO            
  X:0015H         SYMBOL        Ini_LCD_Line_one
  X:001BH         SYMBOL        num_chr
  X:001CH         SYMBOL        msjpantalla
  -------         ENDDO         
  C:4ECBH         LINE#         523
  C:4ED9H         LINE#         524
  C:4ED9H         LINE#         526
  C:4EECH         LINE#         528
  C:4EFFH         LINE#         535
  C:4F01H         LINE#         537
  C:4F0AH         LINE#         538
  C:4F0AH         LINE#         541
  C:4F18H         LINE#         542
  C:4F18H         LINE#         544
  C:4F18H         LINE#         545
  C:4F1BH         LINE#         546
  C:4F29H         LINE#         547
  C:4F3EH         LINE#         548
  C:4F44H         LINE#         549
  C:4F4AH         LINE#         550
  C:4F50H         LINE#         551
  C:4F50H         LINE#         552
  C:4F52H         LINE#         553
  C:4F52H         LINE#         554
  C:4F55H         LINE#         555
  C:4F63H         LINE#         556
  C:4F78H         LINE#         557
  C:4F7EH         LINE#         558
  C:4F84H         LINE#         559
  C:4F8FH         LINE#         560
  C:4F9FH         LINE#         561
  C:4F9FH         LINE#         565
  C:4F9FH         LINE#         567
  C:4F9FH         LINE#         569
  C:4F9FH         LINE#         570
  C:4FA1H         LINE#         571
  C:4FA2H         LINE#         573
BL51 BANKED LINKER/LOCATER V6.22.2.0                                                  08/02/2021  16:39:51  PAGE 62


  C:4FA2H         LINE#         574
  C:4FA4H         LINE#         576
  C:4FCCH         LINE#         577
  C:4FCCH         LINE#         578
  C:4FCCH         LINE#         581
  C:4FD8H         LINE#         583
  C:4FD8H         LINE#         585
  C:4FD8H         LINE#         588
  C:4FD8H         LINE#         591
  C:4FDBH         LINE#         593
  C:4FDBH         LINE#         594
  C:4FE7H         LINE#         595
  C:4FE7H         LINE#         596
  C:4FE7H         LINE#         597
  C:4FE7H         LINE#         598
  C:4FE7H         LINE#         599
  C:4FE7H         LINE#         601
  C:4FEAH         LINE#         602
  C:4FEAH         LINE#         604
  C:4FF6H         LINE#         605
  C:4FF9H         LINE#         606
  C:4FFCH         LINE#         607
  C:4FFCH         LINE#         609
  C:5005H         LINE#         611
  C:5005H         LINE#         612
  C:5007H         LINE#         614
  C:5007H         LINE#         616
  C:5018H         LINE#         618
  C:501BH         LINE#         620
  C:501BH         LINE#         621
  C:5026H         LINE#         622
  C:5026H         LINE#         623
  C:502DH         LINE#         625
  C:5043H         LINE#         627
  C:505AH         LINE#         628
  C:505DH         LINE#         630
  C:505DH         LINE#         631
  C:5064H         LINE#         633
  C:5064H         LINE#         634
  C:5064H         LINE#         637
  C:5067H         LINE#         638
  C:5067H         LINE#         639
  C:5076H         LINE#         640
  C:5094H         LINE#         641
  C:50ABH         LINE#         643
  C:50ABH         LINE#         645
  C:50AEH         LINE#         646
  C:50AEH         LINE#         647
  C:50BDH         LINE#         648
  C:50D0H         LINE#         649
  C:50EAH         LINE#         650
  C:5108H         LINE#         651
  C:511FH         LINE#         652
  C:511FH         LINE#         654
  C:5121H         LINE#         655
  C:5121H         LINE#         656
  C:5130H         LINE#         657
BL51 BANKED LINKER/LOCATER V6.22.2.0                                                  08/02/2021  16:39:51  PAGE 63


  C:514EH         LINE#         658
  C:5165H         LINE#         659
  C:5168H         LINE#         660
  C:5168H         LINE#         661
  C:5168H         LINE#         663
  C:5168H         LINE#         664
  C:5168H         LINE#         666
  C:516DH         LINE#         667
  C:516FH         LINE#         668
  C:516FH         LINE#         669
  -------         ENDPROC       _PANTALLALCD_LINEA_2
  C:C208H         SYMBOL        L?0176
  C:C20BH         SYMBOL        L?0177
  C:C20CH         SYMBOL        L?0178
  -------         PROC          L?0175
  -------         ENDPROC       L?0175
  C:C208H         SYMBOL        L?0176
  C:C20BH         SYMBOL        L?0177
  C:C20CH         SYMBOL        L?0178
  -------         PROC          _TX_CHRLCD
  D:0007H         SYMBOL        data_com
  X:0049H         SYMBOL        enable_char_add
  -------         DO            
  X:004AH         SYMBOL        d
  -------         ENDDO         
  C:C211H         LINE#         675
  C:C216H         LINE#         676
  C:C216H         LINE#         678
  C:C21EH         LINE#         679
  C:C22EH         LINE#         681
  -------         ENDPROC       _TX_CHRLCD
  -------         PROC          L?0181
  -------         ENDPROC       L?0181
  -------         PROC          _LCD_TXT
  X:0044H         SYMBOL        msg
  X:0047H         SYMBOL        enable_char_add
  -------         DO            
  X:0048H         SYMBOL        i
  -------         ENDDO         
  C:BACAH         LINE#         688
  C:BAD8H         LINE#         689
  C:BAD8H         LINE#         692
  C:BAF5H         LINE#         693
  C:BAF5H         LINE#         694
  C:BAFDH         LINE#         695
  C:BB05H         LINE#         696
  -------         ENDPROC       _LCD_TXT
  -------         PROC          _LCD_TXT_NUM_CHAR
  X:001EH         SYMBOL        msg
  X:0021H         SYMBOL        length_char
  X:0022H         SYMBOL        enable_char_add
  -------         DO            
  X:0023H         SYMBOL        i
  -------         ENDDO         
  C:BA36H         LINE#         703
  C:BA44H         LINE#         704
  C:BA44H         LINE#         707
BL51 BANKED LINKER/LOCATER V6.22.2.0                                                  08/02/2021  16:39:51  PAGE 64


  C:BA57H         LINE#         708
  C:BA57H         LINE#         709
  C:BA73H         LINE#         710
  C:BA7BH         LINE#         711
  -------         ENDPROC       _LCD_TXT_NUM_CHAR
  C:AD65H         SYMBOL        L?0180
  -------         PROC          L?0179
  -------         ENDPROC       L?0179
  C:AD65H         SYMBOL        L?0180
  -------         PROC          _RASPBERRY_DATA
  X:0044H         SYMBOL        msjpantalla
  -------         DO            
  X:0047H         SYMBOL        i
  X:0048H         SYMBOL        lenth_cadena
  X:0049H         SYMBOL        d
  -------         ENDDO         
  C:AD6BH         LINE#         713
  C:AD76H         LINE#         714
  C:AD76H         LINE#         721
  C:AD7EH         LINE#         723
  C:AD90H         LINE#         724
  C:AD90H         LINE#         726
  C:ADA2H         LINE#         727
  C:ADA2H         LINE#         728
  C:ADA7H         LINE#         729
  C:ADC5H         LINE#         731
  C:ADCDH         LINE#         734
  C:ADDFH         LINE#         735
  C:ADDFH         LINE#         737
  C:ADE4H         LINE#         739
  -------         ENDPROC       _RASPBERRY_DATA
  -------         PROC          RELOJ_PANTALLA_LCD
  -------         DO            
  X:0011H         SYMBOL        Ini_Clock_LCD
  -------         ENDDO         
  C:B065H         LINE#         747
  C:B065H         LINE#         748
  C:B065H         LINE#         750
  C:B078H         LINE#         752
  C:B07EH         LINE#         753
  C:B07EH         LINE#         754
  C:B080H         LINE#         755
  C:B089H         LINE#         759
  C:B08BH         LINE#         760
  C:B09BH         LINE#         762
  C:B09DH         LINE#         763
  C:B09FH         LINE#         765
  C:B0A0H         LINE#         767
  C:B0A0H         LINE#         768
  C:B0A2H         LINE#         769
  C:B0A7H         LINE#         770
  C:B0B6H         LINE#         772
  C:B0BFH         LINE#         773
  C:B0D6H         LINE#         774
  C:B0DFH         LINE#         777
  C:B0E1H         LINE#         778
  C:B0E1H         LINE#         779
BL51 BANKED LINKER/LOCATER V6.22.2.0                                                  08/02/2021  16:39:51  PAGE 65


  -------         ENDPROC       RELOJ_PANTALLA_LCD
  -------         ENDMOD        PANTALLAS

  -------         MODULE        PROG
  C:0000H         SYMBOL        _ICE_DUMMY_
  C:5CA0H         PUBLIC        Prog_fecha_vencimiento
  C:6EA1H         PUBLIC        Prog_Sin_Cobro
  C:7954H         PUBLIC        _Ver_Horario_Desde_Hasta
  C:7E9DH         PUBLIC        Prog_debug
  C:8191H         PUBLIC        Prog_AntiPassBack
  C:A816H         PUBLIC        _GetOption
  X:01B8H         PUBLIC        validacion
  C:8389H         PUBLIC        Prog_Validar_Tipo_Vehiculo_Mensual
  X:01C3H         PUBLIC        cursor
  C:783AH         PUBLIC        _Prog_Horarios_on_off
  C:A0D5H         PUBLIC        Show
  C:457CH         PUBLIC        Ver_Prog
  C:C06FH         PUBLIC        Addr_Horarios
  C:9A19H         PUBLIC        prog_id_cliente
  C:BB51H         PUBLIC        _ValidarClave
  C:5669H         PUBLIC        menu
  C:7F99H         PUBLIC        Prog_Use_Lpr
  C:B4D6H         PUBLIC        _ListaComandos
  C:140AH         SYMBOL        _?ix1000
  C:1415H         SYMBOL        _?ix1001
  C:1425H         SYMBOL        _?ix1002
  C:1435H         SYMBOL        _?ix1003
  C:1439H         SYMBOL        _?ix1004
  C:6D5CH         PUBLIC        Prog_Horarios
  C:143DH         SYMBOL        _?ix1005
  C:8485H         PUBLIC        Prog_Apb_Mensual
  C:8581H         PUBLIC        Prog_mensuales
  C:94EAH         PUBLIC        Prog_tarjeta_automatica_o_boton
  C:589EH         PUBLIC        _hash_id
  C:4C14H         PUBLIC        _Prog_Horario_dias
  C:97E8H         PUBLIC        Prog_tiempo_gracia
  C:AE6EH         PUBLIC        _IngresaDato
  X:01D7H         PUBLIC        comandos
  C:B91AH         PUBLIC        First_Clave
  C:C3D2H         PUBLIC        DisplayCursor
  C:828DH         PUBLIC        Prog_Placa
  C:972BH         PUBLIC        prog_cod_park
  C:7259H         PUBLIC        Ver_Horario
  C:7712H         PUBLIC        _Ver_Horario_dias
  C:5AA6H         PUBLIC        _Prog_Horario_Desde_Hasta
  C:8095H         PUBLIC        tipo_pantalla
  C:8B28H         PUBLIC        Prog_Address_High_Board
  C:BC13H         PUBLIC        _GetCMD
  -------         PROC          _HASH_ID
  X:005DH         SYMBOL        clave
  -------         DO            
  X:0060H         SYMBOL        len_clave
  X:0061H         SYMBOL        i
  X:01B4H         SYMBOL        temp
  X:01B6H         SYMBOL        temp1
  X:0062H         SYMBOL        aleatorio
  X:006DH         SYMBOL        suma
BL51 BANKED LINKER/LOCATER V6.22.2.0                                                  08/02/2021  16:39:51  PAGE 66


  X:007DH         SYMBOL        xxor
  X:008DH         SYMBOL        usuario1
  X:0098H         SYMBOL        vencimiento_password
  -------         ENDDO         
  C:589EH         LINE#         124
  C:58A9H         LINE#         125
  C:58A9H         LINE#         128
  C:58BCH         LINE#         130
  C:58CFH         LINE#         131
  C:58E2H         LINE#         135
  C:58EFH         LINE#         136
  C:590BH         LINE#         138
  C:590BH         LINE#         139
  C:590FH         LINE#         140
  C:5911H         LINE#         142
  C:5911H         LINE#         143
  C:5918H         LINE#         144
  C:5918H         LINE#         145
  C:592BH         LINE#         146
  C:593FH         LINE#         147
  C:593FH         LINE#         148
  C:596BH         LINE#         149
  C:5976H         LINE#         150
  C:5983H         LINE#         151
  C:59A1H         LINE#         152
  C:59ACH         LINE#         153
  C:59B9H         LINE#         154
  C:59DDH         LINE#         155
  C:59E5H         LINE#         156
  C:59E5H         LINE#         157
  C:59EAH         LINE#         158
  C:59EAH         LINE#         159
  C:5A03H         LINE#         160
  C:5A03H         LINE#         161
  C:5A0FH         LINE#         163
  C:5A0FH         LINE#         164
  C:5A1EH         LINE#         165
  C:5A1EH         LINE#         166
  C:5A2AH         LINE#         167
  C:5A2AH         LINE#         168
  C:5A43H         LINE#         169
  C:5A43H         LINE#         170
  C:5A4EH         LINE#         171
  C:5A4EH         LINE#         172
  C:5A67H         LINE#         173
  C:5A67H         LINE#         174
  C:5A72H         LINE#         175
  C:5A72H         LINE#         176
  C:5A87H         LINE#         178
  C:5A90H         LINE#         179
  C:5A9FH         LINE#         181
  C:5AA5H         LINE#         182
  -------         ENDPROC       _HASH_ID
  -------         PROC          _LISTACOMANDOS
  X:0046H         SYMBOL        cmd
  -------         DO            
  X:0049H         SYMBOL        buf
BL51 BANKED LINKER/LOCATER V6.22.2.0                                                  08/02/2021  16:39:51  PAGE 67


  X:004CH         SYMBOL        i
  -------         ENDDO         
  C:B4D6H         LINE#         189
  C:B4E1H         LINE#         190
  C:B4E1H         LINE#         194
  C:B4F4H         LINE#         195
  C:B4F4H         LINE#         196
  C:B50CH         LINE#         197
  C:B527H         LINE#         198
  C:B52DH         LINE#         199
  C:B535H         LINE#         201
  C:B537H         LINE#         202
  -------         ENDPROC       _LISTACOMANDOS
  -------         PROC          L?0288
  -------         ENDPROC       L?0288
  -------         PROC          _VALIDARCLAVE
  X:005DH         SYMBOL        buffer
  -------         DO            
  X:0060H         SYMBOL        buf
  -------         ENDDO         
  C:BB51H         LINE#         208
  C:BB5CH         LINE#         209
  C:BB5CH         LINE#         212
  C:BB6BH         LINE#         213
  C:BB86H         LINE#         214
  C:BB88H         LINE#         217
  C:BB8AH         LINE#         218
  -------         ENDPROC       _VALIDARCLAVE
  -------         PROC          L?0289
  -------         ENDPROC       L?0289
  -------         PROC          _GETCMD
  X:005DH         SYMBOL        in
  -------         DO            
  X:0060H         SYMBOL        tokens
  -------         ENDDO         
  C:BC13H         LINE#         225
  C:BC1EH         LINE#         226
  C:BC1EH         LINE#         227
  C:BC31H         LINE#         228
  -------         ENDPROC       _GETCMD
  -------         PROC          L?0287
  -------         ENDPROC       L?0287
  -------         PROC          _GETOPTION
  X:0046H         SYMBOL        in
  -------         DO            
  X:0049H         SYMBOL        tokensSpace
  X:004DH         SYMBOL        tokensQuote
  -------         ENDDO         
  C:A816H         LINE#         234
  C:A821H         LINE#         235
  C:A821H         LINE#         236
  C:A834H         LINE#         237
  C:A847H         LINE#         240
  C:A859H         LINE#         241
  C:A865H         LINE#         244
  C:A86CH         LINE#         245
  C:A879H         LINE#         247
BL51 BANKED LINKER/LOCATER V6.22.2.0                                                  08/02/2021  16:39:51  PAGE 68


  C:A892H         LINE#         248
  -------         ENDPROC       _GETOPTION
  -------         PROC          DISPLAYCURSOR
  C:C3D2H         LINE#         253
  C:C3D2H         LINE#         254
  C:C3D2H         LINE#         255
  -------         ENDPROC       DISPLAYCURSOR
  C:AE6AH         SYMBOL        L?0286
  -------         PROC          L?0285
  -------         ENDPROC       L?0285
  C:AE6AH         SYMBOL        L?0286
  -------         PROC          _INGRESADATO
  X:0071H         SYMBOL        buffer
  X:0074H         SYMBOL        modo
  -------         DO            
  D:0006H         SYMBOL        i
  -------         ENDDO         
  C:AE6EH         LINE#         262
  C:AE7CH         LINE#         263
  C:AE7CH         LINE#         268
  C:AE7CH         LINE#         269
  C:AE8EH         LINE#         270
  C:AE94H         LINE#         271
  C:AE94H         LINE#         272
  C:AEAFH         LINE#         273
  C:AEB1H         LINE#         275
  C:AEB1H         LINE#         276
  C:AEB6H         LINE#         277
  C:AEB6H         LINE#         278
  C:AEC7H         LINE#         279
  C:AED1H         LINE#         280
  C:AEE0H         LINE#         282
  C:AEE5H         LINE#         286
  -------         ENDPROC       _INGRESADATO
  -------         PROC          PROG_ID_CLIENTE
  -------         DO            
  X:0046H         SYMBOL        buffer
  X:0050H         SYMBOL        dataee
  -------         ENDDO         
  C:9A19H         LINE#         303
  C:9A19H         LINE#         304
  C:9A19H         LINE#         308
  C:9A2BH         LINE#         309
  C:9A48H         LINE#         311
  C:9A5FH         LINE#         313
  C:9A68H         LINE#         314
  C:9A6FH         LINE#         315
  C:9A80H         LINE#         316
  C:9A89H         LINE#         318
  C:9A9BH         LINE#         319
  C:9AB8H         LINE#         320
  -------         ENDPROC       PROG_ID_CLIENTE
  -------         PROC          PROG_COD_PARK
  -------         DO            
  X:0046H         SYMBOL        buffer
  X:0050H         SYMBOL        dataee
  -------         ENDDO         
BL51 BANKED LINKER/LOCATER V6.22.2.0                                                  08/02/2021  16:39:51  PAGE 69


  C:972BH         LINE#         325
  C:972BH         LINE#         326
  C:972BH         LINE#         330
  C:973EH         LINE#         331
  C:975BH         LINE#         333
  C:9772H         LINE#         335
  C:977BH         LINE#         336
  C:9786H         LINE#         337
  C:9797H         LINE#         338
  C:97A1H         LINE#         340
  C:97B4H         LINE#         341
  C:97D1H         LINE#         342
  -------         ENDPROC       PROG_COD_PARK
  -------         PROC          PROG_TIEMPO_GRACIA
  -------         DO            
  X:0046H         SYMBOL        buffer
  X:0050H         SYMBOL        dataee
  -------         ENDDO         
  C:97E8H         LINE#         347
  C:97E8H         LINE#         348
  C:97E8H         LINE#         352
  C:97FBH         LINE#         353
  C:9818H         LINE#         355
  C:982FH         LINE#         357
  C:9838H         LINE#         358
  C:9843H         LINE#         359
  C:9854H         LINE#         360
  C:985EH         LINE#         362
  C:9871H         LINE#         363
  C:988EH         LINE#         364
  -------         ENDPROC       PROG_TIEMPO_GRACIA
  -------         PROC          PROG_SIN_COBRO
  -------         DO            
  X:0046H         SYMBOL        buffer
  X:0050H         SYMBOL        dataee
  -------         ENDDO         
  C:6EA1H         LINE#         370
  C:6EA1H         LINE#         371
  C:6EA1H         LINE#         377
  C:6EB4H         LINE#         378
  C:6ED1H         LINE#         379
  C:6EDBH         LINE#         380
  C:6EDBH         LINE#         381
  C:6EEEH         LINE#         382
  C:6EF0H         LINE#         383
  C:6EFCH         LINE#         384
  C:6EFCH         LINE#         385
  C:6F0FH         LINE#         386
  C:6F11H         LINE#         388
  C:6F11H         LINE#         389
  C:6F28H         LINE#         390
  C:6F28H         LINE#         392
  C:6F31H         LINE#         393
  C:6F3CH         LINE#         394
  C:6F4DH         LINE#         395
  C:6F57H         LINE#         397
  C:6F6AH         LINE#         398
BL51 BANKED LINKER/LOCATER V6.22.2.0                                                  08/02/2021  16:39:51  PAGE 70


  C:6F87H         LINE#         399
  C:6F91H         LINE#         400
  C:6F91H         LINE#         401
  C:6FA4H         LINE#         402
  C:6FA6H         LINE#         403
  C:6FB2H         LINE#         404
  C:6FB2H         LINE#         405
  C:6FC5H         LINE#         406
  C:6FC7H         LINE#         408
  C:6FC7H         LINE#         409
  C:6FDEH         LINE#         410
  C:6FDEH         LINE#         412
  -------         ENDPROC       PROG_SIN_COBRO
  -------         PROC          PROG_DEBUG
  -------         DO            
  X:0046H         SYMBOL        buffer
  X:0050H         SYMBOL        dataee
  -------         ENDDO         
  C:7E9DH         LINE#         418
  C:7E9DH         LINE#         419
  C:7E9DH         LINE#         424
  C:7EB0H         LINE#         425
  C:7ECDH         LINE#         426
  C:7ED7H         LINE#         427
  C:7ED7H         LINE#         428
  C:7EEAH         LINE#         429
  C:7EECH         LINE#         431
  C:7EECH         LINE#         432
  C:7F03H         LINE#         433
  C:7F03H         LINE#         435
  C:7F0CH         LINE#         436
  C:7F17H         LINE#         437
  C:7F28H         LINE#         438
  C:7F32H         LINE#         440
  C:7F45H         LINE#         441
  C:7F62H         LINE#         442
  C:7F6CH         LINE#         443
  C:7F6CH         LINE#         444
  C:7F7FH         LINE#         445
  C:7F81H         LINE#         447
  C:7F81H         LINE#         448
  C:7F98H         LINE#         449
  C:7F98H         LINE#         450
  -------         ENDPROC       PROG_DEBUG
  -------         PROC          PROG_USE_LPR
  -------         DO            
  X:0046H         SYMBOL        buffer
  X:0050H         SYMBOL        dataee
  -------         ENDDO         
  C:7F99H         LINE#         455
  C:7F99H         LINE#         456
  C:7F99H         LINE#         461
  C:7FACH         LINE#         462
  C:7FC9H         LINE#         463
  C:7FD3H         LINE#         464
  C:7FD3H         LINE#         465
  C:7FE6H         LINE#         466
BL51 BANKED LINKER/LOCATER V6.22.2.0                                                  08/02/2021  16:39:51  PAGE 71


  C:7FE8H         LINE#         468
  C:7FE8H         LINE#         469
  C:7FFFH         LINE#         470
  C:7FFFH         LINE#         472
  C:8008H         LINE#         473
  C:8013H         LINE#         474
  C:8024H         LINE#         475
  C:802EH         LINE#         477
  C:8041H         LINE#         478
  C:805EH         LINE#         479
  C:8068H         LINE#         480
  C:8068H         LINE#         481
  C:807BH         LINE#         482
  C:807DH         LINE#         484
  C:807DH         LINE#         485
  C:8094H         LINE#         486
  C:8094H         LINE#         487
  -------         ENDPROC       PROG_USE_LPR
  -------         PROC          TIPO_PANTALLA
  -------         DO            
  X:0046H         SYMBOL        buffer
  X:0050H         SYMBOL        dataee
  -------         ENDDO         
  C:8095H         LINE#         494
  C:8095H         LINE#         495
  C:8095H         LINE#         500
  C:80A8H         LINE#         501
  C:80C5H         LINE#         502
  C:80CFH         LINE#         503
  C:80CFH         LINE#         504
  C:80E2H         LINE#         505
  C:80E4H         LINE#         507
  C:80E4H         LINE#         508
  C:80FBH         LINE#         509
  C:80FBH         LINE#         511
  C:8104H         LINE#         512
  C:810FH         LINE#         513
  C:8120H         LINE#         514
  C:812AH         LINE#         516
  C:813DH         LINE#         517
  C:815AH         LINE#         518
  C:8164H         LINE#         519
  C:8164H         LINE#         520
  C:8177H         LINE#         521
  C:8179H         LINE#         523
  C:8179H         LINE#         524
  C:8190H         LINE#         525
  C:8190H         LINE#         527
  -------         ENDPROC       TIPO_PANTALLA
  -------         PROC          PROG_TARJETA_AUTOMATICA_O_BOTON
  -------         DO            
  X:0046H         SYMBOL        buffer
  X:0050H         SYMBOL        dataee
  -------         ENDDO         
  C:94EAH         LINE#         528
  C:94EAH         LINE#         529
  C:94EAH         LINE#         534
BL51 BANKED LINKER/LOCATER V6.22.2.0                                                  08/02/2021  16:39:51  PAGE 72


  C:94FDH         LINE#         535
  C:951AH         LINE#         536
  C:9526H         LINE#         537
  C:9526H         LINE#         538
  C:952AH         LINE#         539
  C:952CH         LINE#         541
  C:952CH         LINE#         542
  C:9533H         LINE#         543
  C:9533H         LINE#         545
  C:953CH         LINE#         546
  C:9547H         LINE#         547
  C:9558H         LINE#         548
  C:9562H         LINE#         550
  C:9575H         LINE#         551
  C:9592H         LINE#         552
  C:959EH         LINE#         553
  C:959EH         LINE#         554
  C:95A2H         LINE#         555
  C:95A4H         LINE#         557
  C:95A4H         LINE#         558
  C:95ABH         LINE#         559
  C:95ABH         LINE#         560
  -------         ENDPROC       PROG_TARJETA_AUTOMATICA_O_BOTON
  -------         PROC          PROG_ANTIPASSBACK
  -------         DO            
  X:0046H         SYMBOL        buffer
  X:0050H         SYMBOL        dataee
  -------         ENDDO         
  C:8191H         LINE#         561
  C:8191H         LINE#         562
  C:8191H         LINE#         567
  C:81A4H         LINE#         568
  C:81C1H         LINE#         569
  C:81CBH         LINE#         570
  C:81CBH         LINE#         571
  C:81DEH         LINE#         572
  C:81E0H         LINE#         574
  C:81E0H         LINE#         575
  C:81F7H         LINE#         576
  C:81F7H         LINE#         578
  C:8200H         LINE#         579
  C:820BH         LINE#         580
  C:821CH         LINE#         581
  C:8226H         LINE#         583
  C:8239H         LINE#         584
  C:8256H         LINE#         585
  C:8260H         LINE#         586
  C:8260H         LINE#         587
  C:8273H         LINE#         588
  C:8275H         LINE#         590
  C:8275H         LINE#         591
  C:828CH         LINE#         592
  C:828CH         LINE#         593
  -------         ENDPROC       PROG_ANTIPASSBACK
  -------         PROC          PROG_PLACA
  -------         DO            
  X:0046H         SYMBOL        buffer
BL51 BANKED LINKER/LOCATER V6.22.2.0                                                  08/02/2021  16:39:51  PAGE 73


  X:0050H         SYMBOL        dataee
  -------         ENDDO         
  C:828DH         LINE#         594
  C:828DH         LINE#         595
  C:828DH         LINE#         600
  C:82A0H         LINE#         601
  C:82BDH         LINE#         602
  C:82C7H         LINE#         603
  C:82C7H         LINE#         604
  C:82DAH         LINE#         605
  C:82DCH         LINE#         607
  C:82DCH         LINE#         608
  C:82F3H         LINE#         609
  C:82F3H         LINE#         611
  C:82FCH         LINE#         612
  C:8307H         LINE#         613
  C:8318H         LINE#         614
  C:8322H         LINE#         616
  C:8335H         LINE#         617
  C:8352H         LINE#         618
  C:835CH         LINE#         619
  C:835CH         LINE#         620
  C:836FH         LINE#         621
  C:8371H         LINE#         623
  C:8371H         LINE#         624
  C:8388H         LINE#         625
  C:8388H         LINE#         626
  -------         ENDPROC       PROG_PLACA
  -------         PROC          PROG_ADDRESS_HIGH_BOARD
  -------         DO            
  X:0046H         SYMBOL        buffer
  X:0050H         SYMBOL        dataee
  -------         ENDDO         
  C:8B28H         LINE#         627
  C:8B28H         LINE#         628
  C:8B28H         LINE#         633
  C:8B3BH         LINE#         634
  C:8B58H         LINE#         635
  C:8B62H         LINE#         636
  C:8B62H         LINE#         637
  C:8B66H         LINE#         638
  C:8B68H         LINE#         640
  C:8B68H         LINE#         641
  C:8B7FH         LINE#         642
  C:8B7FH         LINE#         644
  C:8B88H         LINE#         645
  C:8B93H         LINE#         646
  C:8BA4H         LINE#         647
  C:8BAEH         LINE#         649
  C:8BC1H         LINE#         650
  C:8BDEH         LINE#         651
  C:8BE8H         LINE#         652
  C:8BE8H         LINE#         653
  C:8BECH         LINE#         654
  C:8BEEH         LINE#         656
  C:8BEEH         LINE#         657
  C:8C05H         LINE#         658
BL51 BANKED LINKER/LOCATER V6.22.2.0                                                  08/02/2021  16:39:51  PAGE 74


  C:8C05H         LINE#         659
  -------         ENDPROC       PROG_ADDRESS_HIGH_BOARD
  -------         PROC          ADDR_HORARIOS
  -------         DO            
  X:0074H         SYMBOL        ee_addr_horario
  -------         ENDDO         
  C:C06FH         LINE#         661
  C:C06FH         LINE#         662
  C:C06FH         LINE#         665
  C:C075H         LINE#         666
  C:C079H         LINE#         667
  C:C07DH         LINE#         668
  C:C081H         LINE#         669
  C:C085H         LINE#         670
  C:C089H         LINE#         671
  C:C08DH         LINE#         672
  C:C091H         LINE#         673
  C:C095H         LINE#         674
  C:C099H         LINE#         675
  C:C09CH         LINE#         676
  C:C0A2H         LINE#         677
  -------         ENDPROC       ADDR_HORARIOS
  -------         PROC          _PROG_HORARIOS_ON_OFF
  X:0061H         SYMBOL        addr
  -------         DO            
  X:0063H         SYMBOL        buffer
  X:006DH         SYMBOL        dataee
  X:006FH         SYMBOL        habilitado
  -------         ENDDO         
  C:783AH         LINE#         678
  C:7844H         LINE#         679
  C:7844H         LINE#         682
  C:7853H         LINE#         683
  C:7870H         LINE#         684
  C:787AH         LINE#         685
  C:787AH         LINE#         686
  C:788DH         LINE#         687
  C:788FH         LINE#         689
  C:788FH         LINE#         690
  C:78A6H         LINE#         691
  C:78A6H         LINE#         692
  C:78AFH         LINE#         693
  C:78BAH         LINE#         694
  C:78CBH         LINE#         695
  C:78DAH         LINE#         697
  C:78F1H         LINE#         698
  C:790EH         LINE#         699
  C:791BH         LINE#         700
  C:791BH         LINE#         701
  C:791EH         LINE#         702
  C:7931H         LINE#         703
  C:7933H         LINE#         705
  C:7933H         LINE#         706
  C:7938H         LINE#         707
  C:794DH         LINE#         708
  C:794DH         LINE#         709
  C:7953H         LINE#         710
BL51 BANKED LINKER/LOCATER V6.22.2.0                                                  08/02/2021  16:39:51  PAGE 75


  -------         ENDPROC       _PROG_HORARIOS_ON_OFF
  -------         PROC          _PROG_HORARIO_DESDE_HASTA
  X:0061H         SYMBOL        addr
  -------         DO            
  X:0063H         SYMBOL        buffer
  D:0007H         SYMBOL        dataee
  -------         ENDDO         
  C:5AA6H         LINE#         711
  C:5AAEH         LINE#         712
  C:5AAEH         LINE#         717
  C:5AB7H         LINE#         718
  C:5ABAH         LINE#         719
  C:5AC3H         LINE#         720
  C:5ADBH         LINE#         721
  C:5AEEH         LINE#         722
  C:5AFCH         LINE#         723
  C:5B14H         LINE#         724
  C:5B27H         LINE#         725
  C:5B35H         LINE#         726
  C:5B4DH         LINE#         727
  C:5B60H         LINE#         728
  C:5B6EH         LINE#         729
  C:5B86H         LINE#         730
  C:5B99H         LINE#         731
  C:5BA7H         LINE#         735
  C:5BB0H         LINE#         736
  C:5BB3H         LINE#         738
  C:5BBCH         LINE#         740
  C:5BD4H         LINE#         741
  C:5BE7H         LINE#         742
  C:5BF5H         LINE#         743
  C:5C0DH         LINE#         744
  C:5C20H         LINE#         745
  C:5C2EH         LINE#         746
  C:5C46H         LINE#         747
  C:5C59H         LINE#         748
  C:5C67H         LINE#         749
  C:5C7FH         LINE#         750
  C:5C92H         LINE#         751
  -------         ENDPROC       _PROG_HORARIO_DESDE_HASTA
  -------         PROC          _VER_HORARIO_DESDE_HASTA
  X:0074H         SYMBOL        addr
  -------         DO            
  D:0007H         SYMBOL        dataee
  -------         ENDDO         
  C:7954H         LINE#         753
  C:795CH         LINE#         754
  C:795CH         LINE#         756
  C:7965H         LINE#         757
  C:7978H         LINE#         758
  C:7986H         LINE#         759
  C:7999H         LINE#         760
  C:79A7H         LINE#         761
  C:79BAH         LINE#         762
  C:79C8H         LINE#         763
  C:79DBH         LINE#         764
  C:79E9H         LINE#         766
BL51 BANKED LINKER/LOCATER V6.22.2.0                                                  08/02/2021  16:39:51  PAGE 76


  C:79FCH         LINE#         767
  C:7A0AH         LINE#         769
  C:7A1DH         LINE#         770
  C:7A2BH         LINE#         772
  C:7A3EH         LINE#         773
  C:7A4CH         LINE#         775
  C:7A5FH         LINE#         776
  -------         ENDPROC       _VER_HORARIO_DESDE_HASTA
  -------         PROC          _PROG_HORARIO_DIAS
  X:0061H         SYMBOL        addr
  -------         DO            
  X:0063H         SYMBOL        buffer
  X:006DH         SYMBOL        dataee
  X:006EH         SYMBOL        j
  X:006FH         SYMBOL        temp
  -------         ENDDO         
  C:4C14H         LINE#         778
  C:4C1CH         LINE#         779
  C:4C1CH         LINE#         783
  C:4C25H         LINE#         784
  C:4C2EH         LINE#         785
  C:4C37H         LINE#         786
  C:4C42H         LINE#         789
  C:4C4BH         LINE#         791
  C:4C61H         LINE#         792
  C:4C61H         LINE#         794
  C:4C74H         LINE#         795
  C:4C74H         LINE#         796
  C:4C7DH         LINE#         798
  C:4C92H         LINE#         799
  C:4CAAH         LINE#         800
  C:4CB7H         LINE#         801
  C:4CB7H         LINE#         803
  C:4CCDH         LINE#         804
  C:4CCDH         LINE#         805
  C:4CD6H         LINE#         806
  C:4CEBH         LINE#         807
  C:4D03H         LINE#         808
  C:4D10H         LINE#         809
  C:4D10H         LINE#         811
  C:4D26H         LINE#         812
  C:4D26H         LINE#         813
  C:4D2FH         LINE#         814
  C:4D44H         LINE#         815
  C:4D5CH         LINE#         816
  C:4D69H         LINE#         817
  C:4D69H         LINE#         819
  C:4D7FH         LINE#         820
  C:4D7FH         LINE#         821
  C:4D88H         LINE#         822
  C:4D9DH         LINE#         823
  C:4DB5H         LINE#         824
  C:4DC2H         LINE#         825
  C:4DC2H         LINE#         827
  C:4DD8H         LINE#         828
  C:4DD8H         LINE#         829
  C:4DE1H         LINE#         830
BL51 BANKED LINKER/LOCATER V6.22.2.0                                                  08/02/2021  16:39:51  PAGE 77


  C:4DF6H         LINE#         831
  C:4E0EH         LINE#         832
  C:4E1BH         LINE#         833
  C:4E1BH         LINE#         835
  C:4E31H         LINE#         836
  C:4E31H         LINE#         837
  C:4E3AH         LINE#         838
  C:4E4FH         LINE#         839
  C:4E67H         LINE#         840
  C:4E74H         LINE#         841
  C:4E74H         LINE#         843
  C:4E8AH         LINE#         844
  C:4E8AH         LINE#         845
  C:4E93H         LINE#         846
  C:4EA2H         LINE#         847
  C:4EB4H         LINE#         848
  C:4EC1H         LINE#         849
  C:4EC1H         LINE#         850
  C:4ECAH         LINE#         852
  -------         ENDPROC       _PROG_HORARIO_DIAS
  -------         PROC          _VER_HORARIO_DIAS
  X:0074H         SYMBOL        addr
  -------         DO            
  X:0076H         SYMBOL        dataee
  -------         ENDDO         
  C:7712H         LINE#         853
  C:771AH         LINE#         854
  C:771AH         LINE#         857
  C:772AH         LINE#         858
  C:7730H         LINE#         859
  C:7730H         LINE#         860
  C:7734H         LINE#         861
  C:7736H         LINE#         863
  C:7736H         LINE#         864
  C:773DH         LINE#         865
  C:773DH         LINE#         868
  C:7755H         LINE#         869
  C:775BH         LINE#         870
  C:775BH         LINE#         871
  C:775FH         LINE#         872
  C:7761H         LINE#         874
  C:7761H         LINE#         875
  C:7768H         LINE#         876
  C:7768H         LINE#         879
  C:7780H         LINE#         880
  C:7786H         LINE#         881
  C:7786H         LINE#         882
  C:778AH         LINE#         883
  C:778CH         LINE#         885
  C:778CH         LINE#         886
  C:7793H         LINE#         887
  C:7793H         LINE#         889
  C:77ABH         LINE#         890
  C:77B1H         LINE#         891
  C:77B1H         LINE#         892
  C:77B5H         LINE#         893
  C:77B7H         LINE#         895
BL51 BANKED LINKER/LOCATER V6.22.2.0                                                  08/02/2021  16:39:51  PAGE 78


  C:77B7H         LINE#         896
  C:77BEH         LINE#         897
  C:77BEH         LINE#         899
  C:77D6H         LINE#         900
  C:77DCH         LINE#         901
  C:77DCH         LINE#         902
  C:77E0H         LINE#         903
  C:77E2H         LINE#         905
  C:77E2H         LINE#         906
  C:77E9H         LINE#         907
  C:77E9H         LINE#         910
  C:7801H         LINE#         911
  C:7807H         LINE#         912
  C:7807H         LINE#         913
  C:780BH         LINE#         914
  C:780DH         LINE#         916
  C:780DH         LINE#         917
  C:7814H         LINE#         918
  C:7814H         LINE#         920
  C:7826H         LINE#         921
  C:782CH         LINE#         922
  C:782CH         LINE#         923
  C:7830H         LINE#         924
  C:7832H         LINE#         926
  C:7832H         LINE#         927
  C:7839H         LINE#         928
  C:7839H         LINE#         929
  -------         ENDPROC       _VER_HORARIO_DIAS
  -------         PROC          PROG_HORARIOS
  -------         DO            
  X:0046H         SYMBOL        buffer
  X:0050H         SYMBOL        ee_addr_horario
  X:005BH         SYMBOL        addr
  X:005DH         SYMBOL        temp
  X:005FH         SYMBOL        dataee
  X:0060H         SYMBOL        j
  -------         ENDDO         
  C:6D5CH         LINE#         930
  C:6D5CH         LINE#         931
  C:6D5CH         LINE#         940
  C:6D68H         LINE#         944
  C:6D71H         LINE#         945
  C:6D7CH         LINE#         947
  C:6D8BH         LINE#         951
  C:6DA1H         LINE#         952
  C:6DA7H         LINE#         956
  C:6DB5H         LINE#         957
  C:6DBDH         LINE#         958
  C:6DBDH         LINE#         960
  C:6DCCH         LINE#         961
  C:6DE0H         LINE#         962
  C:6DE0H         LINE#         963
  C:6DF4H         LINE#         964
  C:6DFCH         LINE#         966
  C:6E0CH         LINE#         969
  C:6E0FH         LINE#         973
  C:6E1AH         LINE#         976
BL51 BANKED LINKER/LOCATER V6.22.2.0                                                  08/02/2021  16:39:51  PAGE 79


  C:6E23H         LINE#         977
  C:6E2EH         LINE#         978
  C:6E3DH         LINE#         979
  C:6E50H         LINE#         981
  C:6E68H         LINE#         982
  C:6E82H         LINE#         983
  C:6E8AH         LINE#         984
  C:6E8AH         LINE#         986
  C:6E98H         LINE#         987
  C:6EA0H         LINE#         988
  C:6EA0H         LINE#         989
  C:6EA0H         LINE#         991
  -------         ENDPROC       PROG_HORARIOS
  -------         PROC          PROG_VALIDAR_TIPO_VEHICULO_MENSUAL
  -------         DO            
  X:0046H         SYMBOL        buffer
  X:0050H         SYMBOL        dataee
  -------         ENDDO         
  C:8389H         LINE#         992
  C:8389H         LINE#         993
  C:8389H         LINE#         998
  C:839CH         LINE#         999
  C:83B9H         LINE#         1000
  C:83C3H         LINE#         1001
  C:83C3H         LINE#         1002
  C:83D6H         LINE#         1003
  C:83D8H         LINE#         1005
  C:83D8H         LINE#         1006
  C:83EFH         LINE#         1007
  C:83EFH         LINE#         1009
  C:83F8H         LINE#         1010
  C:8403H         LINE#         1011
  C:8414H         LINE#         1012
  C:841EH         LINE#         1014
  C:8431H         LINE#         1015
  C:844EH         LINE#         1016
  C:8458H         LINE#         1017
  C:8458H         LINE#         1018
  C:846BH         LINE#         1019
  C:846DH         LINE#         1021
  C:846DH         LINE#         1022
  C:8484H         LINE#         1023
  C:8484H         LINE#         1024
  -------         ENDPROC       PROG_VALIDAR_TIPO_VEHICULO_MENSUAL
  -------         PROC          PROG_APB_MENSUAL
  -------         DO            
  X:0046H         SYMBOL        buffer
  X:0050H         SYMBOL        dataee
  -------         ENDDO         
  C:8485H         LINE#         1025
  C:8485H         LINE#         1026
  C:8485H         LINE#         1031
  C:8498H         LINE#         1032
  C:84B5H         LINE#         1033
  C:84BFH         LINE#         1034
  C:84BFH         LINE#         1035
  C:84D2H         LINE#         1036
BL51 BANKED LINKER/LOCATER V6.22.2.0                                                  08/02/2021  16:39:51  PAGE 80


  C:84D4H         LINE#         1038
  C:84D4H         LINE#         1039
  C:84EBH         LINE#         1040
  C:84EBH         LINE#         1042
  C:84F4H         LINE#         1043
  C:84FFH         LINE#         1044
  C:8510H         LINE#         1045
  C:851AH         LINE#         1047
  C:852DH         LINE#         1048
  C:854AH         LINE#         1049
  C:8554H         LINE#         1050
  C:8554H         LINE#         1051
  C:8567H         LINE#         1052
  C:8569H         LINE#         1054
  C:8569H         LINE#         1055
  C:8580H         LINE#         1056
  C:8580H         LINE#         1057
  -------         ENDPROC       PROG_APB_MENSUAL
  -------         PROC          PROG_FECHA_VENCIMIENTO
  -------         DO            
  X:0046H         SYMBOL        buffer
  X:0051H         SYMBOL        cmd
  X:0054H         SYMBOL        fecha
  X:005BH         SYMBOL        dataee
  -------         ENDDO         
  C:5CA0H         LINE#         1059
  C:5CA0H         LINE#         1060
  C:5CA0H         LINE#         1067
  C:5CADH         LINE#         1068
  C:5CC4H         LINE#         1071
  C:5CDBH         LINE#         1073
  C:5CDBH         LINE#         1074
  C:5CE4H         LINE#         1075
  C:5CF1H         LINE#         1076
  C:5D08H         LINE#         1077
  C:5D1AH         LINE#         1078
  C:5D23H         LINE#         1083
  C:5D2EH         LINE#         1084
  C:5D42H         LINE#         1085
  C:5D4FH         LINE#         1087
  C:5D58H         LINE#         1090
  C:5D61H         LINE#         1091
  C:5D6CH         LINE#         1092
  C:5D83H         LINE#         1094
  C:5D8BH         LINE#         1095
  C:5D93H         LINE#         1096
  C:5D96H         LINE#         1098
  C:5DA7H         LINE#         1099
  C:5DB8H         LINE#         1101
  C:5DC7H         LINE#         1102
  C:5DCFH         LINE#         1103
  C:5DD7H         LINE#         1104
  C:5DDAH         LINE#         1105
  C:5DEBH         LINE#         1106
  C:5DFCH         LINE#         1107
  C:5E0BH         LINE#         1108
  C:5E13H         LINE#         1109
BL51 BANKED LINKER/LOCATER V6.22.2.0                                                  08/02/2021  16:39:51  PAGE 81


  C:5E1BH         LINE#         1110
  C:5E1EH         LINE#         1111
  C:5E2FH         LINE#         1112
  C:5E40H         LINE#         1113
  C:5E4FH         LINE#         1114
  C:5E5AH         LINE#         1116
  C:5E67H         LINE#         1118
  C:5E7EH         LINE#         1119
  -------         ENDPROC       PROG_FECHA_VENCIMIENTO
  -------         PROC          VER_HORARIO
  -------         DO            
  X:0059H         SYMBOL        buffer
  X:0063H         SYMBOL        ee_addr_horario
  X:006EH         SYMBOL        conta
  X:006FH         SYMBOL        addr
  X:0071H         SYMBOL        temp
  X:0073H         SYMBOL        dataee
  -------         ENDDO         
  C:7259H         LINE#         1122
  C:7259H         LINE#         1123
  C:7259H         LINE#         1132
  C:7265H         LINE#         1133
  C:727BH         LINE#         1134
  C:727BH         LINE#         1136
  C:728BH         LINE#         1139
  C:72A4H         LINE#         1140
  C:72AAH         LINE#         1143
  C:72B8H         LINE#         1144
  C:72C7H         LINE#         1145
  C:72E1H         LINE#         1146
  C:72ECH         LINE#         1147
  C:72ECH         LINE#         1148
  C:72F5H         LINE#         1150
  C:72FEH         LINE#         1151
  C:730EH         LINE#         1152
  C:7311H         LINE#         1154
  C:731CH         LINE#         1155
  C:7334H         LINE#         1156
  C:734EH         LINE#         1157
  C:7358H         LINE#         1158
  C:7358H         LINE#         1159
  C:735FH         LINE#         1161
  C:736DH         LINE#         1162
  C:7375H         LINE#         1163
  C:7377H         LINE#         1165
  C:7377H         LINE#         1166
  C:737BH         LINE#         1167
  C:737BH         LINE#         1168
  C:737DH         LINE#         1170
  C:737DH         LINE#         1171
  C:7386H         LINE#         1172
  C:7386H         LINE#         1174
  C:738FH         LINE#         1177
  -------         ENDPROC       VER_HORARIO
  -------         PROC          PROG_MENSUALES
  -------         DO            
  X:0046H         SYMBOL        buffer
BL51 BANKED LINKER/LOCATER V6.22.2.0                                                  08/02/2021  16:39:51  PAGE 82


  X:0050H         SYMBOL        dataee
  -------         ENDDO         
  C:8581H         LINE#         1178
  C:8581H         LINE#         1179
  C:8581H         LINE#         1184
  C:8594H         LINE#         1185
  C:85B1H         LINE#         1186
  C:85BBH         LINE#         1187
  C:85BBH         LINE#         1188
  C:85CEH         LINE#         1189
  C:85D0H         LINE#         1191
  C:85D0H         LINE#         1192
  C:85E7H         LINE#         1193
  C:85E7H         LINE#         1195
  C:85F0H         LINE#         1196
  C:85FBH         LINE#         1197
  C:860CH         LINE#         1198
  C:8616H         LINE#         1200
  C:8629H         LINE#         1201
  C:8646H         LINE#         1202
  C:8650H         LINE#         1203
  C:8650H         LINE#         1204
  C:8663H         LINE#         1205
  C:8665H         LINE#         1207
  C:8665H         LINE#         1208
  C:867CH         LINE#         1209
  C:867CH         LINE#         1211
  -------         ENDPROC       PROG_MENSUALES
  -------         PROC          VER_PROG
  -------         DO            
  X:0046H         SYMBOL        buffer
  X:0050H         SYMBOL        dataee
  X:0052H         SYMBOL        fecha
  -------         ENDDO         
  C:457CH         LINE#         1212
  C:457CH         LINE#         1213
  C:457CH         LINE#         1219
  C:458EH         LINE#         1220
  C:45ABH         LINE#         1222
  C:45C2H         LINE#         1224
  C:45D5H         LINE#         1225
  C:45F2H         LINE#         1227
  C:4609H         LINE#         1229
  C:461CH         LINE#         1230
  C:4639H         LINE#         1231
  C:4647H         LINE#         1232
  C:4647H         LINE#         1233
  C:464BH         LINE#         1234
  C:464DH         LINE#         1236
  C:464DH         LINE#         1237
  C:4654H         LINE#         1238
  C:4654H         LINE#         1240
  C:4667H         LINE#         1241
  C:4684H         LINE#         1242
  C:4690H         LINE#         1243
  C:4690H         LINE#         1244
  C:4694H         LINE#         1245
BL51 BANKED LINKER/LOCATER V6.22.2.0                                                  08/02/2021  16:39:51  PAGE 83


  C:4696H         LINE#         1247
  C:4696H         LINE#         1248
  C:469DH         LINE#         1249
  C:469DH         LINE#         1251
  C:46B0H         LINE#         1252
  C:46CDH         LINE#         1253
  C:46D9H         LINE#         1254
  C:46D9H         LINE#         1255
  C:46DDH         LINE#         1256
  C:46DFH         LINE#         1258
  C:46DFH         LINE#         1259
  C:46E6H         LINE#         1260
  C:46E6H         LINE#         1262
  C:46F9H         LINE#         1263
  C:4716H         LINE#         1264
  C:4722H         LINE#         1265
  C:4722H         LINE#         1266
  C:4726H         LINE#         1267
  C:4728H         LINE#         1269
  C:4728H         LINE#         1270
  C:472FH         LINE#         1271
  C:472FH         LINE#         1273
  C:4742H         LINE#         1274
  C:475FH         LINE#         1275
  C:476BH         LINE#         1276
  C:476BH         LINE#         1277
  C:476FH         LINE#         1278
  C:4771H         LINE#         1280
  C:4771H         LINE#         1281
  C:4778H         LINE#         1282
  C:4778H         LINE#         1284
  C:478BH         LINE#         1285
  C:47A8H         LINE#         1286
  C:47B4H         LINE#         1287
  C:47B4H         LINE#         1288
  C:47B8H         LINE#         1289
  C:47BAH         LINE#         1291
  C:47BAH         LINE#         1292
  C:47C1H         LINE#         1293
  C:47C1H         LINE#         1296
  C:47D4H         LINE#         1297
  C:47F1H         LINE#         1299
  C:4808H         LINE#         1301
  C:480BH         LINE#         1305
  C:481EH         LINE#         1306
  C:483BH         LINE#         1307
  C:4847H         LINE#         1308
  C:4847H         LINE#         1309
  C:484BH         LINE#         1310
  C:484DH         LINE#         1312
  C:484DH         LINE#         1313
  C:4854H         LINE#         1314
  C:4854H         LINE#         1316
  C:4867H         LINE#         1317
  C:4884H         LINE#         1318
  C:4890H         LINE#         1319
  C:4890H         LINE#         1320
BL51 BANKED LINKER/LOCATER V6.22.2.0                                                  08/02/2021  16:39:51  PAGE 84


  C:4894H         LINE#         1321
  C:4896H         LINE#         1323
  C:4896H         LINE#         1324
  C:489DH         LINE#         1325
  C:489DH         LINE#         1328
  C:48B0H         LINE#         1329
  C:48CDH         LINE#         1330
  C:48D9H         LINE#         1331
  C:48D9H         LINE#         1332
  C:48DDH         LINE#         1333
  C:48DFH         LINE#         1335
  C:48DFH         LINE#         1336
  C:48E6H         LINE#         1337
  C:48E6H         LINE#         1340
  C:48F3H         LINE#         1342
  C:490AH         LINE#         1343
  C:4921H         LINE#         1346
  C:492DH         LINE#         1347
  -------         ENDPROC       VER_PROG
  -------         PROC          SHOW
  C:A0D5H         LINE#         1354
  C:A0D5H         LINE#         1355
  C:A0D5H         LINE#         1356
  C:A0DEH         LINE#         1357
  C:A0E7H         LINE#         1358
  C:A0F0H         LINE#         1359
  C:A0F9H         LINE#         1360
  C:A102H         LINE#         1361
  C:A10BH         LINE#         1362
  C:A114H         LINE#         1363
  C:A11DH         LINE#         1364
  C:A126H         LINE#         1365
  C:A12FH         LINE#         1366
  C:A138H         LINE#         1367
  C:A141H         LINE#         1368
  C:A14AH         LINE#         1369
  C:A153H         LINE#         1370
  C:A15CH         LINE#         1371
  C:A165H         LINE#         1372
  C:A16EH         LINE#         1373
  -------         ENDPROC       SHOW
  -------         PROC          FIRST_CLAVE
  -------         DO            
  X:0046H         SYMBOL        clave
  -------         ENDDO         
  C:B91AH         LINE#         1380
  C:B91AH         LINE#         1381
  C:B91AH         LINE#         1385
  C:B923H         LINE#         1386
  C:B928H         LINE#         1387
  C:B93AH         LINE#         1388
  C:B947H         LINE#         1389
  C:B94DH         LINE#         1390
  C:B950H         LINE#         1391
  C:B953H         LINE#         1392
  C:B955H         LINE#         1394
  -------         ENDPROC       FIRST_CLAVE
BL51 BANKED LINKER/LOCATER V6.22.2.0                                                  08/02/2021  16:39:51  PAGE 85


  -------         PROC          MENU
  -------         DO            
  X:0001H         SYMBOL        cmd
  X:0004H         SYMBOL        option1
  X:0007H         SYMBOL        option2
  X:000AH         SYMBOL        opt_buffer
  X:0032H         SYMBOL        buffer
  -------         ENDDO         
  C:5669H         LINE#         1398
  C:5669H         LINE#         1399
  C:5669H         LINE#         1408
  C:5672H         LINE#         1413
  C:567EH         LINE#         1414
  C:567EH         LINE#         1415
  C:5681H         LINE#         1416
  C:568BH         LINE#         1419
  C:568BH         LINE#         1421
  C:568BH         LINE#         1422
  C:5694H         LINE#         1423
  C:56A1H         LINE#         1424
  C:56A6H         LINE#         1425
  C:56BCH         LINE#         1426
  C:56CEH         LINE#         1427
  C:56D7H         LINE#         1432
  C:56E2H         LINE#         1433
  C:56F0H         LINE#         1434
  C:56FDH         LINE#         1436
  C:5706H         LINE#         1440
  C:5709H         LINE#         1441
  C:5709H         LINE#         1442
  C:5709H         LINE#         1443
  C:570CH         LINE#         1446
  C:5717H         LINE#         1447
  C:5725H         LINE#         1448
  C:5739H         LINE#         1449
  C:574DH         LINE#         1454
  C:5763H         LINE#         1455
  C:5763H         LINE#         1457
  C:5772H         LINE#         1458
  C:5774H         LINE#         1459
  C:5784H         LINE#         1460
  C:5784H         LINE#         1462
  C:5793H         LINE#         1463
  C:57B1H         LINE#         1464
  C:57B1H         LINE#         1470
  C:57C4H         LINE#         1471
  C:57C4H         LINE#         1472
  C:5810H         LINE#         1473
  C:5810H         LINE#         1474
  C:5810H         LINE#         1475
  C:5813H         LINE#         1477
  C:5816H         LINE#         1479
  C:5816H         LINE#         1480
  C:5819H         LINE#         1481
  C:581CH         LINE#         1482
  C:581CH         LINE#         1483
  C:581FH         LINE#         1484
BL51 BANKED LINKER/LOCATER V6.22.2.0                                                  08/02/2021  16:39:51  PAGE 86


  C:5822H         LINE#         1485
  C:5822H         LINE#         1486
  C:5825H         LINE#         1487
  C:5828H         LINE#         1488
  C:5828H         LINE#         1489
  C:582BH         LINE#         1490
  C:582EH         LINE#         1491
  C:582EH         LINE#         1492
  C:5831H         LINE#         1493
  C:5834H         LINE#         1494
  C:5834H         LINE#         1495
  C:5837H         LINE#         1496
  C:583AH         LINE#         1497
  C:583AH         LINE#         1498
  C:583DH         LINE#         1499
  C:5840H         LINE#         1500
  C:5840H         LINE#         1501
  C:5843H         LINE#         1502
  C:5846H         LINE#         1503
  C:5846H         LINE#         1504
  C:5849H         LINE#         1505
  C:584CH         LINE#         1506
  C:584CH         LINE#         1507
  C:584FH         LINE#         1508
  C:5852H         LINE#         1509
  C:5852H         LINE#         1510
  C:5855H         LINE#         1511
  C:5858H         LINE#         1512
  C:5858H         LINE#         1513
  C:585BH         LINE#         1514
  C:585EH         LINE#         1515
  C:585EH         LINE#         1516
  C:5861H         LINE#         1517
  C:5864H         LINE#         1519
  C:5864H         LINE#         1520
  C:5867H         LINE#         1521
  C:586AH         LINE#         1522
  C:586AH         LINE#         1523
  C:586DH         LINE#         1524
  C:5870H         LINE#         1525
  C:5870H         LINE#         1526
  C:5873H         LINE#         1527
  C:5876H         LINE#         1528
  C:5876H         LINE#         1530
  C:5876H         LINE#         1531
  C:5876H         LINE#         1532
  C:5879H         LINE#         1533
  C:587CH         LINE#         1536
  C:587CH         LINE#         1537
  C:589AH         LINE#         1538
  C:589DH         LINE#         1539
  C:589DH         LINE#         1540
  C:589DH         LINE#         1541
  C:589DH         LINE#         1542
  -------         ENDPROC       MENU
  -------         ENDMOD        PROG

BL51 BANKED LINKER/LOCATER V6.22.2.0                                                  08/02/2021  16:39:51  PAGE 87


  -------         MODULE        PTO_PARALELO
  C:0000H         SYMBOL        _ICE_DUMMY_
  D:0080H         PUBLIC        P0
  D:00A0H         PUBLIC        P2
  D:00B0H         PUBLIC        P3
  B:0080H.2       PUBLIC        led_err_imp
  C:711DH         PUBLIC        load_and_send_id_cod
  C:A520H         PUBLIC        _recibe_port
  B:00B0H.2       PUBLIC        ready
  B:0080H.6       PUBLIC        rx_in_data
  C:C474H         PUBLIC        Pulso_Bus
  C:AA3CH         PUBLIC        _send_portERR
  B:00B0H.3       PUBLIC        busy
  C:B83AH         PUBLIC        load_and_send_info_reloj
  C:9B84H         PUBLIC        _send_port
  B:00B0H.4       PUBLIC        port_clk
  C:C4EFH         PUBLIC        cond_ini_pto
  -------         PROC          _RECIBE_PORT
  X:0001H         SYMBOL        buffer_port
  -------         DO            
  D:0006H         SYMBOL        count
  X:0004H         SYMBOL        time_out
  X:0005H         SYMBOL        num_data
  X:0006H         SYMBOL        T_ANCHO
  X:0008H         SYMBOL        data_temp
  -------         ENDDO         
  C:A520H         LINE#         60
  C:A52BH         LINE#         61
  C:A52BH         LINE#         65
  C:A534H         LINE#         66
  C:A537H         LINE#         69
  C:A53AH         LINE#         70
  C:A53AH         LINE#         72
  C:A53DH         LINE#         73
  C:A542H         LINE#         74
  C:A544H         LINE#         75
  C:A548H         LINE#         76
  C:A54AH         LINE#         79
  C:A54FH         LINE#         80
  C:A558H         LINE#         81
  C:A558H         LINE#         82
  C:A55BH         LINE#         83
  C:A55BH         LINE#         85
  C:A560H         LINE#         86
  C:A564H         LINE#         87
  C:A564H         LINE#         88
  C:A566H         LINE#         89
  C:A568H         LINE#         90
  C:A568H         LINE#         91
  C:A568H         LINE#         93
  C:A568H         LINE#         94
  C:A575H         LINE#         95
  C:A575H         LINE#         97
  C:A578H         LINE#         98
  C:A578H         LINE#         100
  C:A57EH         LINE#         102
  C:A580H         LINE#         103
BL51 BANKED LINKER/LOCATER V6.22.2.0                                                  08/02/2021  16:39:51  PAGE 88


  C:A594H         LINE#         104
  C:A59EH         LINE#         105
  C:A5A4H         LINE#         106
  C:A5AAH         LINE#         107
  C:A5ACH         LINE#         108
  C:A5ACH         LINE#         109
  C:A5ACH         LINE#         110
  C:A5ACH         LINE#         113
  C:A5AEH         LINE#         114
  C:A5B0H         LINE#         115
  C:A5B0H         LINE#         116
  C:A5B3H         LINE#         118
  C:A5B8H         LINE#         119
  -------         ENDPROC       _RECIBE_PORT
  -------         PROC          _SEND_PORT
  X:0016H         SYMBOL        buffer_port
  X:0019H         SYMBOL        length_char
  -------         DO            
  X:001AH         SYMBOL        cont
  X:001EH         SYMBOL        timeOut
  X:001FH         SYMBOL        length
  -------         ENDDO         
  C:9B84H         LINE#         126
  C:9B92H         LINE#         127
  C:9B92H         LINE#         132
  C:9B96H         LINE#         134
  C:9B98H         LINE#         135
  C:9B9AH         LINE#         136
  C:9B9CH         LINE#         137
  C:9BA1H         LINE#         138
  C:9BA3H         LINE#         139
  C:9BADH         LINE#         141
  C:9BB6H         LINE#         142
  C:9BB6H         LINE#         143
  C:9BB8H         LINE#         144
  C:9BBAH         LINE#         145
  C:9BDEH         LINE#         146
  C:9BF2H         LINE#         147
  C:9BF2H         LINE#         148
  C:9BF5H         LINE#         149
  C:9BF7H         LINE#         150
  C:9BF7H         LINE#         151
  C:9BF9H         LINE#         152
  C:9C02H         LINE#         153
  C:9C02H         LINE#         157
  C:9C02H         LINE#         159
  C:9C12H         LINE#         160
  C:9C15H         LINE#         161
  C:9C1FH         LINE#         163
  C:9C25H         LINE#         164
  C:9C28H         LINE#         166
  C:9C28H         LINE#         168
  C:9C2BH         LINE#         169
  C:9C2DH         LINE#         170
  C:9C2FH         LINE#         171
  C:9C31H         LINE#         172
  -------         ENDPROC       _SEND_PORT
BL51 BANKED LINKER/LOCATER V6.22.2.0                                                  08/02/2021  16:39:51  PAGE 89


  -------         PROC          PULSO_BUS
  C:C474H         LINE#         180
  C:C474H         LINE#         181
  C:C474H         LINE#         182
  C:C476H         LINE#         183
  C:C47DH         LINE#         184
  C:C47FH         LINE#         185
  -------         ENDPROC       PULSO_BUS
  -------         PROC          _SEND_PORTERR
  X:002AH         SYMBOL        cod_err
  -------         DO            
  X:002BH         SYMBOL        timeOut
  X:002CH         SYMBOL        cont
  -------         ENDDO         
  C:AA3CH         LINE#         190
  C:AA42H         LINE#         191
  C:AA42H         LINE#         195
  C:AA44H         LINE#         196
  C:AA46H         LINE#         197
  C:AA49H         LINE#         198
  C:AA51H         LINE#         200
  C:AA53H         LINE#         201
  C:AA55H         LINE#         202
  C:AA5EH         LINE#         203
  C:AA5EH         LINE#         204
  C:AA80H         LINE#         205
  C:AA94H         LINE#         206
  C:AA94H         LINE#         207
  C:AA99H         LINE#         208
  C:AA99H         LINE#         209
  C:AA9BH         LINE#         210
  C:AAA4H         LINE#         211
  C:AAA4H         LINE#         212
  C:AAAAH         LINE#         213
  C:AAADH         LINE#         214
  C:AAADH         LINE#         215
  C:AAAFH         LINE#         216
  C:AAB1H         LINE#         217
  C:AAB3H         LINE#         219
  C:AAB6H         LINE#         221
  C:AABDH         LINE#         222
  -------         ENDPROC       _SEND_PORTERR
  -------         PROC          COND_INI_PTO
  C:C4EFH         LINE#         228
  C:C4EFH         LINE#         229
  C:C4EFH         LINE#         231
  C:C4F1H         LINE#         232
  C:C4F3H         LINE#         233
  C:C4F5H         LINE#         234
  C:C4F8H         LINE#         235
  -------         ENDPROC       COND_INI_PTO
  -------         PROC          LOAD_AND_SEND_INFO_RELOJ
  -------         DO            
  X:0002H         SYMBOL        buffer_info
  -------         ENDDO         
  C:B83AH         LINE#         240
  C:B83AH         LINE#         241
BL51 BANKED LINKER/LOCATER V6.22.2.0                                                  08/02/2021  16:39:51  PAGE 90


  C:B83AH         LINE#         244
  C:B840H         LINE#         246
  C:B844H         LINE#         252
  C:B84DH         LINE#         255
  C:B857H         LINE#         256
  C:B85BH         LINE#         257
  C:B85EH         LINE#         258
  C:B867H         LINE#         259
  C:B878H         LINE#         260
  C:B87BH         LINE#         261
  -------         ENDPROC       LOAD_AND_SEND_INFO_RELOJ
  -------         PROC          LOAD_AND_SEND_ID_COD
  -------         DO            
  X:0002H         SYMBOL        buffer_info
  X:000DH         SYMBOL        buf
  X:0011H         SYMBOL        i
  X:0012H         SYMBOL        ID_CLIENTE
  X:0014H         SYMBOL        COD_PARK
  -------         ENDDO         
  C:711DH         LINE#         268
  C:711DH         LINE#         269
  C:711DH         LINE#         277
  C:712DH         LINE#         279
  C:713EH         LINE#         281
  C:7144H         LINE#         282
  C:7148H         LINE#         283
  C:714BH         LINE#         285
  C:7171H         LINE#         286
  C:7188H         LINE#         289
  C:719FH         LINE#         292
  C:71C5H         LINE#         293
  C:71DCH         LINE#         295
  C:71F3H         LINE#         296
  C:7201H         LINE#         297
  C:7212H         LINE#         298
  C:7225H         LINE#         299
  C:722BH         LINE#         300
  C:7234H         LINE#         301
  C:7248H         LINE#         302
  C:724BH         LINE#         303
  -------         ENDPROC       LOAD_AND_SEND_ID_COD
  -------         ENDMOD        PTO_PARALELO

  -------         MODULE        TIBBO
  C:0000H         SYMBOL        _ICE_DUMMY_
  C:BA7CH         PUBLIC        _Debug_HexDec
  C:B8DCH         PUBLIC        _Debug_txt_Tibbo
  D:0080H         PUBLIC        P0
  D:0090H         PUBLIC        P1
  B:0090H.0       PUBLIC        txd2
  B:00A8H.7       PUBLIC        EA
  C:B889H         PUBLIC        _tx_aux
  B:0080H.0       PUBLIC        rx_ip
  C:C4F9H         PUBLIC        Debug_Dividir_texto
  C:C54EH         PUBLIC        cond_ini_tibbo
  C:C3E9H         PUBLIC        time_mbit
  C:AAC4H         PUBLIC        rx_Data
BL51 BANKED LINKER/LOCATER V6.22.2.0                                                  08/02/2021  16:39:51  PAGE 91


  C:C368H         PUBLIC        time_bit
  C:BC4DH         PUBLIC        _Debug_pto_paralelo
  C:BDC2H         PUBLIC        _Debug_monitor
  C:AC5AH         PUBLIC        _DebugBufferMF
  C:B962H         PUBLIC        _Debug_chr_Tibbo
  C:C362H         SYMBOL        L?0067
  -------         PROC          L?0066
  -------         ENDPROC       L?0066
  C:C362H         SYMBOL        L?0067
  -------         PROC          TIME_BIT
  -------         DO            
  D:0007H         SYMBOL        j
  -------         ENDDO         
  C:C368H         LINE#         20
  C:C368H         LINE#         21
  C:C368H         LINE#         24
  C:C374H         LINE#         25
  C:C374H         LINE#         26
  C:C375H         LINE#         27
  C:C376H         LINE#         28
  C:C377H         LINE#         29
  C:C378H         LINE#         30
  C:C379H         LINE#         31
  C:C37AH         LINE#         32
  C:C37BH         LINE#         33
  C:C37CH         LINE#         34
  C:C37DH         LINE#         39
  C:C380H         LINE#         40
  -------         ENDPROC       TIME_BIT
  -------         PROC          TIME_MBIT
  -------         DO            
  D:0007H         SYMBOL        j
  -------         ENDDO         
  C:C3E9H         LINE#         43
  C:C3E9H         LINE#         44
  C:C3E9H         LINE#         46
  C:C3F5H         LINE#         47
  C:C3F5H         LINE#         48
  C:C3F6H         LINE#         49
  C:C3F7H         LINE#         50
  C:C3F8H         LINE#         51
  C:C3F9H         LINE#         52
  C:C3FAH         LINE#         53
  C:C3FBH         LINE#         54
  C:C3FCH         LINE#         55
  C:C3FFH         LINE#         57
  -------         ENDPROC       TIME_MBIT
  -------         PROC          L?0070
  -------         ENDPROC       L?0070
  -------         PROC          _TX_AUX
  D:0006H         SYMBOL        caracter
  -------         DO            
  D:0004H         SYMBOL        j
  D:0005H         SYMBOL        temporal
  D:0006H         SYMBOL        bitTX
  -------         ENDDO         
  C:B889H         LINE#         62
BL51 BANKED LINKER/LOCATER V6.22.2.0                                                  08/02/2021  16:39:51  PAGE 92


  C:B88BH         LINE#         63
  C:B88BH         LINE#         66
  C:B88DH         LINE#         67
  C:B88FH         LINE#         68
  C:B892H         LINE#         69
  C:B893H         LINE#         70
  C:B894H         LINE#         71
  C:B896H         LINE#         72
  C:B89AH         LINE#         73
  C:B89CH         LINE#         74
  C:B89CH         LINE#         75
  C:B89EH         LINE#         76
  C:B8A0H         LINE#         78
  C:B8A0H         LINE#         79
  C:B8A2H         LINE#         80
  C:B8A2H         LINE#         81
  C:B8A5H         LINE#         82
  C:B8B1H         LINE#         83
  C:B8B1H         LINE#         84
  C:B8B5H         LINE#         85
  C:B8B8H         LINE#         86
  C:B8BAH         LINE#         87
  C:B8BAH         LINE#         88
  C:B8BCH         LINE#         89
  C:B8BEH         LINE#         91
  C:B8BEH         LINE#         92
  C:B8C0H         LINE#         93
  C:B8C0H         LINE#         94
  C:B8C3H         LINE#         95
  C:B8C6H         LINE#         96
  C:B8C8H         LINE#         97
  C:B8CBH         LINE#         98
  C:B8CEH         LINE#         100
  C:B8D0H         LINE#         101
  -------         ENDPROC       _TX_AUX
  -------         PROC          _DEBUG_HEXDEC
  D:0007H         SYMBOL        xfc
  -------         DO            
  X:0018H         SYMBOL        valor
  D:0006H         SYMBOL        centena
  D:0003H         SYMBOL        decena
  D:0002H         SYMBOL        unidad
  -------         ENDDO         
  C:BA7CH         LINE#         104
  C:BA7CH         LINE#         105
  C:BA7CH         LINE#         108
  C:BA83H         LINE#         110
  C:BA84H         LINE#         111
  C:BA85H         LINE#         112
  C:BA86H         LINE#         113
  C:BA8EH         LINE#         114
  C:BA8EH         LINE#         115
  C:BA98H         LINE#         116
  C:BA98H         LINE#         117
  C:BA9CH         LINE#         118
  C:BA9DH         LINE#         119
  C:BA9FH         LINE#         120
BL51 BANKED LINKER/LOCATER V6.22.2.0                                                  08/02/2021  16:39:51  PAGE 93


  C:BAA9H         LINE#         121
  C:BAA9H         LINE#         122
  C:BAADH         LINE#         123
  C:BAAEH         LINE#         124
  C:BAB0H         LINE#         125
  C:BAB2H         LINE#         126
  C:BAB6H         LINE#         127
  C:BABAH         LINE#         128
  C:BAC1H         LINE#         130
  C:BAC1H         LINE#         131
  -------         ENDPROC       _DEBUG_HEXDEC
  -------         PROC          _DEBUG_CHR_TIBBO
  D:0003H         SYMBOL        Dat
  -------         DO            
  D:0007H         SYMBOL        temp
  -------         ENDDO         
  C:B962H         LINE#         136
  C:B964H         LINE#         137
  C:B964H         LINE#         139
  C:B96CH         LINE#         140
  C:B96CH         LINE#         141
  C:B973H         LINE#         142
  C:B986H         LINE#         144
  C:B989H         LINE#         146
  C:B98DH         LINE#         147
  C:B9A0H         LINE#         148
  C:B9A3H         LINE#         149
  C:B9A8H         LINE#         151
  C:B9A8H         LINE#         152
  -------         ENDPROC       _DEBUG_CHR_TIBBO
  -------         PROC          _DEBUGBUFFERMF
  X:0027H         SYMBOL        str
  X:002AH         SYMBOL        num_char
  X:002BH         SYMBOL        io
  -------         DO            
  X:002CH         SYMBOL        j
  -------         ENDDO         
  C:AC5AH         LINE#         160
  C:AC68H         LINE#         161
  C:AC68H         LINE#         165
  C:AC70H         LINE#         166
  C:AC70H         LINE#         167
  C:AC7FH         LINE#         168
  C:AC7FH         LINE#         169
  C:AC85H         LINE#         170
  C:AC87H         LINE#         171
  C:AC94H         LINE#         172
  C:AC94H         LINE#         173
  C:AC9DH         LINE#         174
  C:AC9DH         LINE#         176
  C:ACAFH         LINE#         177
  C:ACAFH         LINE#         178
  C:ACC1H         LINE#         179
  C:ACCBH         LINE#         180
  C:ACD3H         LINE#         181
  C:ACD8H         LINE#         182
  C:ACDDH         LINE#         183
BL51 BANKED LINKER/LOCATER V6.22.2.0                                                  08/02/2021  16:39:51  PAGE 94


  C:ACDDH         LINE#         185
  -------         ENDPROC       _DEBUGBUFFERMF
  C:B8D6H         SYMBOL        L?0069
  -------         PROC          L?0068
  -------         ENDPROC       L?0068
  C:B8D6H         SYMBOL        L?0069
  -------         PROC          _DEBUG_TXT_TIBBO
  X:0064H         SYMBOL        str
  -------         DO            
  X:0067H         SYMBOL        i
  -------         ENDDO         
  C:B8DCH         LINE#         190
  C:B8E7H         LINE#         191
  C:B8E7H         LINE#         193
  C:B8EAH         LINE#         195
  C:B8F2H         LINE#         196
  C:B8F2H         LINE#         197
  C:B90EH         LINE#         198
  C:B90EH         LINE#         199
  C:B911H         LINE#         200
  C:B919H         LINE#         202
  C:B919H         LINE#         203
  -------         ENDPROC       _DEBUG_TXT_TIBBO
  -------         PROC          DEBUG_DIVIDIR_TEXTO
  C:C4F9H         LINE#         205
  C:C4F9H         LINE#         206
  C:C4F9H         LINE#         207
  -------         ENDPROC       DEBUG_DIVIDIR_TEXTO
  -------         PROC          RX_DATA
  -------         DO            
  D:0006H         SYMBOL        temporal
  -------         ENDDO         
  C:AAC4H         LINE#         213
  C:AAC4H         LINE#         214
  C:AAC4H         LINE#         217
  C:AAC6H         LINE#         218
  C:AAC9H         LINE#         220
  C:AACCH         LINE#         222
  C:AAD8H         LINE#         223
  C:AAD8H         LINE#         225
  C:AADBH         LINE#         227
  C:AAE7H         LINE#         228
  C:AAE7H         LINE#         230
  C:AAEAH         LINE#         232
  C:AAF6H         LINE#         233
  C:AAF6H         LINE#         235
  C:AAF9H         LINE#         237
  C:AB05H         LINE#         238
  C:AB05H         LINE#         240
  C:AB08H         LINE#         242
  C:AB14H         LINE#         243
  C:AB14H         LINE#         245
  C:AB17H         LINE#         247
  C:AB23H         LINE#         248
  C:AB23H         LINE#         250
  C:AB26H         LINE#         252
  C:AB32H         LINE#         253
BL51 BANKED LINKER/LOCATER V6.22.2.0                                                  08/02/2021  16:39:51  PAGE 95


  C:AB32H         LINE#         255
  C:AB35H         LINE#         256
  C:AB43H         LINE#         258
  C:AB46H         LINE#         259
  C:AB49H         LINE#         260
  C:AB49H         LINE#         261
  C:AB49H         LINE#         264
  C:AB4BH         LINE#         266
  -------         ENDPROC       RX_DATA
  -------         PROC          COND_INI_TIBBO
  C:C54EH         LINE#         284
  C:C54EH         LINE#         285
  C:C54EH         LINE#         287
  C:C550H         LINE#         288
  C:C552H         LINE#         289
  -------         ENDPROC       COND_INI_TIBBO
  -------         PROC          _DEBUG_PTO_PARALELO
  X:0001H         SYMBOL        buffer
  X:0004H         SYMBOL        Length_trama
  C:BC4DH         LINE#         290
  C:BC5BH         LINE#         291
  C:BC5BH         LINE#         293
  C:BC64H         LINE#         294
  C:BC7BH         LINE#         295
  C:BC84H         LINE#         296
  C:BC87H         LINE#         297
  C:BC8AH         LINE#         298
  -------         ENDPROC       _DEBUG_PTO_PARALELO
  -------         PROC          _DEBUG_MONITOR
  X:0016H         SYMBOL        buffer
  X:0019H         SYMBOL        Length_trama
  C:BDC2H         LINE#         301
  C:BDD0H         LINE#         302
  C:BDD0H         LINE#         303
  C:BDD3H         LINE#         304
  C:BDDCH         LINE#         305
  C:BDEAH         LINE#         306
  C:BDEDH         LINE#         307
  C:BDF6H         LINE#         308
  C:BDF9H         LINE#         309
  C:BDFCH         LINE#         310
  -------         ENDPROC       _DEBUG_MONITOR
  -------         ENDMOD        TIBBO

  -------         MODULE        UART
  C:0000H         SYMBOL        _ICE_DUMMY_
  C:C22FH         PUBLIC        com_getchar
  C:C486H         PUBLIC        com_rbuflen
  C:C498H         PUBLIC        com_tbuflen
  B:00A8H.4       PUBLIC        ES
  B:0098H.0       PUBLIC        RI
  C:BEB2H         PUBLIC        _com_putchar
  B:0098H.1       PUBLIC        TI
  B:0021H.4       PUBLIC        aSk
  B:00B8H.4       PUBLIC        PS
  D:000DH         SYMBOL        r_in
  D:000EH         SYMBOL        r_out
BL51 BANKED LINKER/LOCATER V6.22.2.0                                                  08/02/2021  16:39:51  PAGE 96


  D:000FH         SYMBOL        t_in
  D:0010H         SYMBOL        t_out
  D:0099H         PUBLIC        SBUF
  D:0087H         PUBLIC        PCON
  D:0089H         PUBLIC        TMOD
  B:0021H.5       SYMBOL        ti_restart
  B:00A8H.3       PUBLIC        ET1
  D:008DH         PUBLIC        TH1
  B:0098H.7       PUBLIC        SM0
  B:0098H.6       PUBLIC        SM1
  D:008BH         PUBLIC        TL1
  B:0098H.5       PUBLIC        SM2
  B:0088H.6       PUBLIC        TR1
  C:C166H         PUBLIC        com_initialize
  X:0215H         PUBLIC        cnt__ask_off
  B:0098H.4       PUBLIC        REN
  C:C1B8H         PUBLIC        com_baudrate
  C:6437H         SYMBOL        com_isr
  -------         PROC          COM_ISR
  -------         DO            
  X:0213H         SYMBOL        cDatoRx
  D:0006H         SYMBOL        k
  D:0007H         SYMBOL        bcc
  X:0214H         SYMBOL        num_datos
  -------         ENDDO         
  C:6437H         LINE#         95
  C:644CH         LINE#         103
  C:6452H         LINE#         104
  C:6452H         LINE#         106
  C:6454H         LINE#         107
  C:645AH         LINE#         108
  C:646AH         LINE#         109
  C:646AH         LINE#         110
  C:6475H         LINE#         111
  C:6477H         LINE#         113
  C:6477H         LINE#         114
  C:6487H         LINE#         115
  C:6487H         LINE#         116
  C:648CH         LINE#         117
  C:648CH         LINE#         118
  C:64A3H         LINE#         119
  C:64A3H         LINE#         123
  C:64A3H         LINE#         126
  C:64B2H         LINE#         127
  C:64B2H         LINE#         128
  C:64B4H         LINE#         129
  C:64BCH         LINE#         130
  C:64C1H         LINE#         132
  C:64C1H         LINE#         133
  C:64C4H         LINE#         137
  C:64C4H         LINE#         138
  C:64C4H         LINE#         139
  C:64DCH         LINE#         140
  C:64EBH         LINE#         141
  C:64EBH         LINE#         142
  C:64EBH         LINE#         143
  C:64EDH         LINE#         145
BL51 BANKED LINKER/LOCATER V6.22.2.0                                                  08/02/2021  16:39:51  PAGE 97


  C:64EDH         LINE#         146
  C:64EFH         LINE#         147
  C:64EFH         LINE#         148
  C:64EFH         LINE#         149
  C:64F2H         LINE#         153
  C:64F2H         LINE#         155
  C:64FBH         LINE#         156
  C:64FBH         LINE#         158
  C:6501H         LINE#         159
  C:6514H         LINE#         160
  C:6514H         LINE#         161
  C:6517H         LINE#         163
  C:6517H         LINE#         164
  C:652CH         LINE#         165
  C:6532H         LINE#         166
  C:6532H         LINE#         168
  C:6535H         LINE#         172
  C:6535H         LINE#         174
  C:654DH         LINE#         175
  C:6553H         LINE#         176
  C:6556H         LINE#         177
  C:6556H         LINE#         178
  C:656EH         LINE#         179
  C:656EH         LINE#         180
  C:656FH         LINE#         181
  C:657CH         LINE#         182
  C:657CH         LINE#         183
  C:6589H         LINE#         184
  C:658CH         LINE#         185
  C:659AH         LINE#         186
  C:659AH         LINE#         187
  C:659CH         LINE#         188
  C:65A1H         LINE#         189
  C:65A3H         LINE#         190
  C:65A7H         LINE#         192
  C:65A9H         LINE#         194
  C:65A9H         LINE#         195
  C:65A9H         LINE#         196
  C:65A9H         LINE#         197
  C:65ABH         LINE#         199
  C:65ABH         LINE#         200
  C:65ABH         LINE#         201
  C:65ABH         LINE#         203
  C:65ADH         LINE#         205
  C:65ADH         LINE#         206
  C:65B3H         LINE#         207
  C:65B3H         LINE#         209
  C:65B5H         LINE#         214
  C:65B5H         LINE#         215
  C:65BAH         LINE#         216
  C:65BAH         LINE#         217
  C:65BAH         LINE#         218
  C:65BAH         LINE#         223
  C:65BDH         LINE#         224
  C:65BDH         LINE#         225
  C:65BFH         LINE#         227
  C:65C5H         LINE#         228
BL51 BANKED LINKER/LOCATER V6.22.2.0                                                  08/02/2021  16:39:51  PAGE 98


  C:65C5H         LINE#         229
  C:65CFH         LINE#         231
  C:65D1H         LINE#         232
  C:65D3H         LINE#         233
  C:65D5H         LINE#         235
  C:65D5H         LINE#         236
  C:65D7H         LINE#         237
  C:65D7H         LINE#         238
  C:65D7H         LINE#         240
  -------         ENDPROC       COM_ISR
  -------         PROC          COM_INITIALIZE
  C:C166H         LINE#         256
  C:C16DH         LINE#         257
  C:C16DH         LINE#         261
  C:C170H         LINE#         266
  C:C173H         LINE#         267
  C:C175H         LINE#         269
  C:C177H         LINE#         270
  C:C179H         LINE#         275
  C:C17DH         LINE#         276
  C:C17FH         LINE#         277
  C:C181H         LINE#         279
  C:C183H         LINE#         280
  C:C185H         LINE#         281
  C:C187H         LINE#         283
  C:C189H         LINE#         284
  C:C18BH         LINE#         285
  -------         ENDPROC       COM_INITIALIZE
  -------         PROC          COM_BAUDRATE
  C:C1B8H         LINE#         291
  C:C1BFH         LINE#         293
  C:C1BFH         LINE#         297
  C:C1C1H         LINE#         298
  C:C1C4H         LINE#         299
  C:C1C6H         LINE#         304
  C:C1C8H         LINE#         305
  C:C1CAH         LINE#         307
  C:C1CDH         LINE#         309
  C:C1D0H         LINE#         310
  C:C1D3H         LINE#         312
  C:C1D6H         LINE#         313
  C:C1D9H         LINE#         314
  C:C1DBH         LINE#         315
  -------         ENDPROC       COM_BAUDRATE
  -------         PROC          _COM_PUTCHAR
  X:00AAH         SYMBOL        c
  C:BEB2H         LINE#         321
  C:BEBEH         LINE#         322
  C:BEBEH         LINE#         326
  C:BECBH         LINE#         327
  C:BECFH         LINE#         333
  C:BEDDH         LINE#         335
  C:BEDFH         LINE#         337
  C:BEE2H         LINE#         338
  C:BEE2H         LINE#         339
  C:BEE4H         LINE#         340
  C:BEE6H         LINE#         341
BL51 BANKED LINKER/LOCATER V6.22.2.0                                                  08/02/2021  16:39:51  PAGE 99


  C:BEE6H         LINE#         343
  C:BEE8H         LINE#         344
  -------         ENDPROC       _COM_PUTCHAR
  -------         PROC          COM_GETCHAR
  C:C22FH         LINE#         350
  C:C236H         LINE#         351
  C:C236H         LINE#         352
  C:C23CH         LINE#         353
  C:C242H         LINE#         355
  C:C250H         LINE#         356
  -------         ENDPROC       COM_GETCHAR
  -------         PROC          COM_RBUFLEN
  C:C486H         LINE#         362
  C:C48DH         LINE#         363
  C:C48DH         LINE#         364
  C:C493H         LINE#         365
  -------         ENDPROC       COM_RBUFLEN
  -------         PROC          COM_TBUFLEN
  C:C498H         LINE#         371
  C:C49FH         LINE#         372
  C:C49FH         LINE#         373
  C:C4A5H         LINE#         374
  -------         ENDPROC       COM_TBUFLEN
  -------         ENDMOD        UART

  -------         MODULE        LINTECH
  C:0000H         SYMBOL        _ICE_DUMMY_
  C:A218H         PUBLIC        _Inicializa
  C:9427H         PUBLIC        _RD_MF
  C:9E3DH         PUBLIC        Dwload_EEprom
  C:A6E2H         PUBLIC        _Card_Insercion
  C:895AH         PUBLIC        _Mov_Card
  C:7D9DH         PUBLIC        _WR_MF
  C:A923H         PUBLIC        LoadVerify_EEprom
  C:AB4CH         PUBLIC        Unique_Identifier_UID
  C:AF66H         PUBLIC        Power_off
  C:ABD4H         PUBLIC        _Check_Status
  C:9D93H         PUBLIC        Clave_Seguridad_S2
  C:AEE6H         PUBLIC        Aut_Card_check_Status
  -------         PROC          _INICIALIZA
  X:0002H         SYMBOL        TipoMovimiento
  -------         DO            
  D:0003H         SYMBOL        j
  X:0003H         SYMBOL        bcc
  X:0004H         SYMBOL        g_scArrTxComSoft
  -------         ENDDO         
  C:A218H         LINE#         68
  C:A21DH         LINE#         69
  C:A21DH         LINE#         72
  C:A220H         LINE#         73
  C:A236H         LINE#         74
  C:A236H         LINE#         76
  C:A23FH         LINE#         78
  C:A245H         LINE#         79
  C:A248H         LINE#         80
  C:A24AH         LINE#         81
  C:A24EH         LINE#         82
BL51 BANKED LINKER/LOCATER V6.22.2.0                                                  08/02/2021  16:39:51  PAGE 100


  C:A252H         LINE#         83
  C:A256H         LINE#         84
  C:A25EH         LINE#         85
  C:A262H         LINE#         86
  C:A26EH         LINE#         87
  C:A26EH         LINE#         88
  C:A282H         LINE#         89
  C:A285H         LINE#         90
  C:A28DH         LINE#         91
  C:A28FH         LINE#         92
  C:A294H         LINE#         93
  C:A2A3H         LINE#         94
  C:A2AEH         LINE#         95
  C:A2B4H         LINE#         96
  C:A2B4H         LINE#         97
  -------         ENDPROC       _INICIALIZA
  -------         PROC          _CHECK_STATUS
  X:0002H         SYMBOL        Detalle
  -------         DO            
  D:0006H         SYMBOL        j
  D:0007H         SYMBOL        bcc
  X:0003H         SYMBOL        g_scArrTxComSoft
  -------         ENDDO         
  C:ABD4H         LINE#         109
  C:ABD9H         LINE#         110
  C:ABD9H         LINE#         114
  C:ABDFH         LINE#         115
  C:ABDFH         LINE#         116
  C:ABE3H         LINE#         117
  C:ABE5H         LINE#         119
  C:ABE5H         LINE#         120
  C:ABECH         LINE#         121
  C:ABECH         LINE#         122
  C:ABEEH         LINE#         124
  C:ABF4H         LINE#         125
  C:ABF7H         LINE#         126
  C:ABF9H         LINE#         127
  C:ABFDH         LINE#         128
  C:AC01H         LINE#         129
  C:AC05H         LINE#         130
  C:AC0DH         LINE#         131
  C:AC11H         LINE#         132
  C:AC1DH         LINE#         133
  C:AC1DH         LINE#         134
  C:AC2AH         LINE#         135
  C:AC2DH         LINE#         136
  C:AC32H         LINE#         137
  C:AC34H         LINE#         138
  C:AC39H         LINE#         139
  C:AC48H         LINE#         140
  C:AC53H         LINE#         141
  C:AC59H         LINE#         142
  -------         ENDPROC       _CHECK_STATUS
  -------         PROC          _CARD_INSERCION
  D:0007H         SYMBOL        Tipo
  -------         DO            
  D:0006H         SYMBOL        j
BL51 BANKED LINKER/LOCATER V6.22.2.0                                                  08/02/2021  16:39:51  PAGE 101


  D:0007H         SYMBOL        bcc
  X:0002H         SYMBOL        g_scArrTxComSoft
  -------         ENDDO         
  C:A6E2H         LINE#         152
  C:A6E2H         LINE#         153
  C:A6E2H         LINE#         156
  C:A6EFH         LINE#         157
  C:A6EFH         LINE#         158
  C:A6F6H         LINE#         159
  C:A6FCH         LINE#         160
  C:A6FEH         LINE#         162
  C:A6FEH         LINE#         164
  C:A705H         LINE#         165
  C:A70BH         LINE#         167
  C:A70BH         LINE#         169
  C:A70DH         LINE#         171
  C:A713H         LINE#         172
  C:A716H         LINE#         173
  C:A718H         LINE#         174
  C:A71CH         LINE#         175
  C:A720H         LINE#         176
  C:A724H         LINE#         178
  C:A72AH         LINE#         179
  C:A736H         LINE#         180
  C:A736H         LINE#         181
  C:A743H         LINE#         182
  C:A746H         LINE#         184
  C:A74BH         LINE#         186
  C:A74DH         LINE#         187
  C:A752H         LINE#         188
  C:A761H         LINE#         189
  C:A76CH         LINE#         190
  C:A772H         LINE#         191
  -------         ENDPROC       _CARD_INSERCION
  -------         PROC          _MOV_CARD
  X:0002H         SYMBOL        Posicion
  -------         DO            
  D:0003H         SYMBOL        j
  X:0003H         SYMBOL        bcc
  X:0004H         SYMBOL        g_scArrTxComSoft
  -------         ENDDO         
  C:895AH         LINE#         202
  C:895FH         LINE#         203
  C:895FH         LINE#         206
  C:8962H         LINE#         208
  C:8982H         LINE#         209
  C:8982H         LINE#         210
  C:8989H         LINE#         211
  C:8989H         LINE#         212
  C:898FH         LINE#         213
  C:8991H         LINE#         214
  C:8998H         LINE#         215
  C:8998H         LINE#         216
  C:899EH         LINE#         217
  C:89A0H         LINE#         218
  C:89A7H         LINE#         219
  C:89A7H         LINE#         220
BL51 BANKED LINKER/LOCATER V6.22.2.0                                                  08/02/2021  16:39:51  PAGE 102


  C:89ADH         LINE#         221
  C:89AFH         LINE#         222
  C:89B6H         LINE#         223
  C:89B6H         LINE#         224
  C:89BCH         LINE#         225
  C:89BEH         LINE#         226
  C:89C5H         LINE#         227
  C:89C5H         LINE#         228
  C:89CEH         LINE#         229
  C:89CEH         LINE#         231
  C:89D4H         LINE#         232
  C:89D7H         LINE#         233
  C:89D9H         LINE#         234
  C:89DDH         LINE#         235
  C:89E1H         LINE#         236
  C:89E5H         LINE#         237
  C:89EDH         LINE#         238
  C:89F1H         LINE#         239
  C:89FDH         LINE#         240
  C:89FDH         LINE#         241
  C:8A11H         LINE#         242
  C:8A14H         LINE#         243
  C:8A1CH         LINE#         244
  C:8A1EH         LINE#         245
  C:8A23H         LINE#         246
  C:8A32H         LINE#         247
  C:8A3DH         LINE#         248
  C:8A43H         LINE#         249
  C:8A43H         LINE#         251
  -------         ENDPROC       _MOV_CARD
  -------         PROC          AUT_CARD_CHECK_STATUS
  -------         DO            
  D:0003H         SYMBOL        j
  X:0002H         SYMBOL        bcc
  X:0003H         SYMBOL        g_scArrTxComSoft
  -------         ENDDO         
  C:AEE6H         LINE#         257
  C:AEE6H         LINE#         258
  C:AEE6H         LINE#         261
  C:AEEBH         LINE#         263
  C:AEF4H         LINE#         265
  C:AEFAH         LINE#         266
  C:AEFDH         LINE#         267
  C:AEFFH         LINE#         268
  C:AF03H         LINE#         269
  C:AF07H         LINE#         270
  C:AF0BH         LINE#         271
  C:AF0FH         LINE#         272
  C:AF13H         LINE#         273
  C:AF1FH         LINE#         274
  C:AF1FH         LINE#         275
  C:AF33H         LINE#         276
  C:AF36H         LINE#         277
  C:AF3EH         LINE#         278
  C:AF40H         LINE#         279
  C:AF45H         LINE#         280
  C:AF54H         LINE#         281
BL51 BANKED LINKER/LOCATER V6.22.2.0                                                  08/02/2021  16:39:51  PAGE 103


  C:AF5FH         LINE#         282
  C:AF65H         LINE#         283
  -------         ENDPROC       AUT_CARD_CHECK_STATUS
  -------         PROC          CLAVE_SEGURIDAD_S2
  -------         DO            
  D:0003H         SYMBOL        j
  X:0002H         SYMBOL        bcc
  X:0003H         SYMBOL        g_scArrTxComSoft
  -------         ENDDO         
  C:9D93H         LINE#         286
  C:9D93H         LINE#         287
  C:9D93H         LINE#         290
  C:9D98H         LINE#         291
  C:9DA1H         LINE#         294
  C:9DA7H         LINE#         295
  C:9DAAH         LINE#         296
  C:9DACH         LINE#         297
  C:9DB0H         LINE#         298
  C:9DB4H         LINE#         299
  C:9DB8H         LINE#         300
  C:9DBCH         LINE#         301
  C:9DBFH         LINE#         302
  C:9DC3H         LINE#         303
  C:9DC6H         LINE#         304
  C:9DCAH         LINE#         306
  C:9DCEH         LINE#         308
  C:9DD2H         LINE#         309
  C:9DD6H         LINE#         310
  C:9DDAH         LINE#         311
  C:9DDEH         LINE#         312
  C:9DE2H         LINE#         313
  C:9DE6H         LINE#         316
  C:9DEAH         LINE#         318
  C:9DF6H         LINE#         319
  C:9DF6H         LINE#         320
  C:9E0AH         LINE#         321
  C:9E0DH         LINE#         322
  C:9E15H         LINE#         323
  C:9E17H         LINE#         324
  C:9E1CH         LINE#         325
  C:9E2BH         LINE#         326
  C:9E36H         LINE#         327
  C:9E3CH         LINE#         330
  -------         ENDPROC       CLAVE_SEGURIDAD_S2
  -------         PROC          DWLOAD_EEPROM
  -------         DO            
  D:0003H         SYMBOL        j
  X:0002H         SYMBOL        bcc
  X:0003H         SYMBOL        g_scArrTxComSoft
  -------         ENDDO         
  C:9E3DH         LINE#         335
  C:9E3DH         LINE#         336
  C:9E3DH         LINE#         339
  C:9E42H         LINE#         340
  C:9E4BH         LINE#         342
  C:9E51H         LINE#         343
  C:9E54H         LINE#         344
BL51 BANKED LINKER/LOCATER V6.22.2.0                                                  08/02/2021  16:39:51  PAGE 104


  C:9E56H         LINE#         345
  C:9E5AH         LINE#         346
  C:9E5EH         LINE#         347
  C:9E62H         LINE#         348
  C:9E66H         LINE#         349
  C:9E69H         LINE#         350
  C:9E6DH         LINE#         351
  C:9E70H         LINE#         352
  C:9E73H         LINE#         353
  C:9E77H         LINE#         354
  C:9E7BH         LINE#         355
  C:9E7FH         LINE#         356
  C:9E83H         LINE#         357
  C:9E87H         LINE#         358
  C:9E8BH         LINE#         359
  C:9E8FH         LINE#         360
  C:9E93H         LINE#         362
  C:9E9FH         LINE#         363
  C:9E9FH         LINE#         364
  C:9EB3H         LINE#         365
  C:9EB6H         LINE#         366
  C:9EBEH         LINE#         367
  C:9EC0H         LINE#         368
  C:9EC5H         LINE#         369
  C:9ED4H         LINE#         370
  C:9EDFH         LINE#         371
  C:9EE5H         LINE#         372
  -------         ENDPROC       DWLOAD_EEPROM
  -------         PROC          LOADVERIFY_EEPROM
  -------         DO            
  D:0003H         SYMBOL        j
  X:0002H         SYMBOL        bcc
  X:0003H         SYMBOL        g_scArrTxComSoft
  -------         ENDDO         
  C:A923H         LINE#         378
  C:A923H         LINE#         379
  C:A923H         LINE#         382
  C:A928H         LINE#         383
  C:A931H         LINE#         386
  C:A937H         LINE#         387
  C:A93AH         LINE#         388
  C:A93CH         LINE#         389
  C:A940H         LINE#         390
  C:A944H         LINE#         391
  C:A948H         LINE#         392
  C:A94CH         LINE#         393
  C:A94FH         LINE#         394
  C:A953H         LINE#         395
  C:A956H         LINE#         396
  C:A959H         LINE#         397
  C:A95DH         LINE#         402
  C:A969H         LINE#         403
  C:A969H         LINE#         404
  C:A97DH         LINE#         405
  C:A980H         LINE#         406
  C:A988H         LINE#         407
  C:A98AH         LINE#         408
BL51 BANKED LINKER/LOCATER V6.22.2.0                                                  08/02/2021  16:39:51  PAGE 105


  C:A98FH         LINE#         409
  C:A99EH         LINE#         410
  C:A9A9H         LINE#         411
  C:A9AFH         LINE#         413
  -------         ENDPROC       LOADVERIFY_EEPROM
  -------         PROC          _RD_MF
  X:0002H         SYMBOL        Sector
  X:0003H         SYMBOL        Bloque
  -------         DO            
  D:0003H         SYMBOL        j
  X:0004H         SYMBOL        bcc
  X:0005H         SYMBOL        g_scArrTxComSoft
  -------         ENDDO         
  C:9427H         LINE#         419
  C:942FH         LINE#         420
  C:942FH         LINE#         424
  C:9432H         LINE#         426
  C:943BH         LINE#         427
  C:9443H         LINE#         429
  C:944CH         LINE#         430
  C:9454H         LINE#         431
  C:945DH         LINE#         434
  C:9463H         LINE#         435
  C:9466H         LINE#         436
  C:9468H         LINE#         437
  C:946CH         LINE#         438
  C:9470H         LINE#         439
  C:9474H         LINE#         440
  C:9478H         LINE#         441
  C:947BH         LINE#         442
  C:947FH         LINE#         443
  C:9487H         LINE#         444
  C:948FH         LINE#         445
  C:9493H         LINE#         446
  C:9497H         LINE#         448
  C:94A3H         LINE#         449
  C:94A3H         LINE#         450
  C:94B7H         LINE#         451
  C:94BAH         LINE#         452
  C:94C2H         LINE#         455
  C:94C4H         LINE#         456
  C:94C9H         LINE#         457
  C:94D8H         LINE#         458
  C:94E3H         LINE#         459
  C:94E9H         LINE#         461
  -------         ENDPROC       _RD_MF
  -------         PROC          _WR_MF
  X:0002H         SYMBOL        Sector
  X:0003H         SYMBOL        Bloque
  X:0004H         SYMBOL        buffer
  -------         DO            
  D:0005H         SYMBOL        j
  X:0007H         SYMBOL        bcc
  X:0008H         SYMBOL        g_scArrTxComSoft
  -------         ENDDO         
  C:7D9DH         LINE#         468
  C:7DAEH         LINE#         470
BL51 BANKED LINKER/LOCATER V6.22.2.0                                                  08/02/2021  16:39:51  PAGE 106


  C:7DAEH         LINE#         473
  C:7DB1H         LINE#         475
  C:7DBAH         LINE#         476
  C:7DC2H         LINE#         478
  C:7DCBH         LINE#         479
  C:7DD3H         LINE#         480
  C:7DDCH         LINE#         482
  C:7DE2H         LINE#         483
  C:7DE5H         LINE#         484
  C:7DE7H         LINE#         485
  C:7DEBH         LINE#         487
  C:7DEFH         LINE#         488
  C:7DF3H         LINE#         489
  C:7DF7H         LINE#         490
  C:7DFAH         LINE#         491
  C:7DFEH         LINE#         492
  C:7E06H         LINE#         493
  C:7E0EH         LINE#         494
  C:7E12H         LINE#         496
  C:7E1EH         LINE#         497
  C:7E1EH         LINE#         498
  C:7E3EH         LINE#         499
  C:7E41H         LINE#         501
  C:7E47H         LINE#         503
  C:7E53H         LINE#         504
  C:7E53H         LINE#         505
  C:7E6AH         LINE#         506
  C:7E6DH         LINE#         507
  C:7E75H         LINE#         510
  C:7E77H         LINE#         511
  C:7E7CH         LINE#         512
  C:7E8BH         LINE#         513
  C:7E96H         LINE#         514
  C:7E9CH         LINE#         516
  -------         ENDPROC       _WR_MF
  -------         PROC          UNIQUE_IDENTIFIER_UID
  -------         DO            
  D:0003H         SYMBOL        j
  X:0002H         SYMBOL        bcc
  X:0003H         SYMBOL        g_scArrTxComSoft
  -------         ENDDO         
  C:AB4CH         LINE#         521
  C:AB4CH         LINE#         522
  C:AB4CH         LINE#         525
  C:AB51H         LINE#         527
  C:AB5AH         LINE#         529
  C:AB60H         LINE#         530
  C:AB63H         LINE#         531
  C:AB65H         LINE#         532
  C:AB69H         LINE#         533
  C:AB6DH         LINE#         534
  C:AB71H         LINE#         535
  C:AB75H         LINE#         536
  C:AB79H         LINE#         537
  C:AB7DH         LINE#         538
  C:AB81H         LINE#         539
  C:AB8DH         LINE#         540
BL51 BANKED LINKER/LOCATER V6.22.2.0                                                  08/02/2021  16:39:51  PAGE 107


  C:AB8DH         LINE#         541
  C:ABA1H         LINE#         542
  C:ABA4H         LINE#         543
  C:ABACH         LINE#         544
  C:ABAEH         LINE#         545
  C:ABB3H         LINE#         546
  C:ABC2H         LINE#         547
  C:ABCDH         LINE#         548
  C:ABD3H         LINE#         549
  -------         ENDPROC       UNIQUE_IDENTIFIER_UID
  -------         PROC          POWER_OFF
  -------         DO            
  D:0003H         SYMBOL        j
  X:0002H         SYMBOL        bcc
  X:0003H         SYMBOL        g_scArrTxComSoft
  -------         ENDDO         
  C:AF66H         LINE#         550
  C:AF66H         LINE#         551
  C:AF66H         LINE#         554
  C:AF6BH         LINE#         556
  C:AF74H         LINE#         558
  C:AF7AH         LINE#         559
  C:AF7DH         LINE#         560
  C:AF7FH         LINE#         561
  C:AF83H         LINE#         562
  C:AF87H         LINE#         563
  C:AF8BH         LINE#         564
  C:AF8FH         LINE#         565
  C:AF93H         LINE#         566
  C:AF9FH         LINE#         567
  C:AF9FH         LINE#         568
  C:AFB3H         LINE#         569
  C:AFB6H         LINE#         570
  C:AFBEH         LINE#         571
  C:AFC0H         LINE#         572
  C:AFC5H         LINE#         573
  C:AFD4H         LINE#         574
  C:AFDFH         LINE#         575
  C:AFE5H         LINE#         578
  -------         ENDPROC       POWER_OFF
  -------         ENDMOD        LINTECH

  -------         MODULE        VERIFICADOR
  C:0000H         SYMBOL        _ICE_DUMMY_
  D:0080H         PUBLIC        P0
  C:C0A3H         PUBLIC        Analiza_Presencia_Mensual
  C:B2BAH         PUBLIC        Ingreso_Vehiculo
  D:0090H         PUBLIC        P1
  C:C1E0H         PUBLIC        _Armar_Trama_Tarjeta_Sector1_Bloque0
  D:00B0H         PUBLIC        P3
  C:65EAH         PUBLIC        _Valida_Tipo_Tarjeta
  C:BE1BH         PUBLIC        _Load_Secuencia_Expedidor
  C:5E95H         PUBLIC        _Armar_Trama_Tarjeta_Sector1_Bloque2
  C:5413H         PUBLIC        _Armar_Trama_Pto_Paralelo_Expedidor
  C:9363H         PUBLIC        _Tarjeta_Mensual
  C:C27BH         PUBLIC        Analiza_Presencia_rotacion
  C:A893H         PUBLIC        _Disparo_Lock_Entrada_Vehiculo
BL51 BANKED LINKER/LOCATER V6.22.2.0                                                  08/02/2021  16:39:51  PAGE 108


  C:C108H         PUBLIC        Pregunta_Placa
  C:A5B9H         PUBLIC        _Valida_Vehiculo_Card_Mensual
  C:BF27H         PUBLIC        Analiza_card_mount_rf
  C:B5F3H         PUBLIC        _Armar_Trama_Placa
  C:8C06H         PUBLIC        _rta_cmd_transporte
  C:C502H         PUBLIC        Captura_Expulsa
  C:5170H         PUBLIC        _Armar_Trama_Monitor
  C:6FDFH         PUBLIC        Secuencia_inicio_expedidor
  C:8DBDH         PUBLIC        _Analiza_Uid_Card
  B:0080H.0       PUBLIC        rx_ip
  C:867DH         PUBLIC        _Bloque_Horario
  B:0080H.3       PUBLIC        Atascado_GP0_PIN_3
  B:0090H.7       PUBLIC        lock
  C:A031H         PUBLIC        _Armar_Trama_Tarjeta_Sector1_Bloque1_Camcel
  C:A3ECH         PUBLIC        _Responde_Lectura_Tarjeta_Sector1_Bloque0
  C:966DH         PUBLIC        error_rx_pto
  C:6080H         PUBLIC        _Responde_Lectura_Tarjeta_Sector1_Bloque1
  C:74BEH         PUBLIC        _Responde_Lectura_Tarjeta_Sector1_Bloque2
  C:A2B5H         PUBLIC        _Respuesta_Placa_Cancel
  B:0090H.1       PUBLIC        DataIn
  C:9F8CH         PUBLIC        _Send_Pto_Paralelo
  C:BD0AH         PUBLIC        Trama_Validacion_P_N
  B:0022H.0       PUBLIC        MenSual
  C:7390H         PUBLIC        _Armar_Trama_Pto_Paralelo_Expedidor_Mensual
  C:7B82H         PUBLIC        _Horarios
  C:9CE7H         PUBLIC        _Hora_Maxima
  C:6C05H         PUBLIC        _Responde_ReeLectura_Tarjeta_Sector1_Bloque2
  C:3C1FH         PUBLIC        _SecuenciaExpedidorMF
  C:B700H         PUBLIC        _Pregunta_Lpr
  C:9ACFH         PUBLIC        _Wait_Placa
  C:B0E2H         PUBLIC        Responde_Estado_Sensores_Transporte
  C:A351H         PUBLIC        Entrega_Card_Captura
  C:B596H         PUBLIC        _Respuesta_Segunda_clave
  X:0147H         SYMBOL        Estado
  C:C005H         PUBLIC        _Responde_Write_Tarjeta_Sector1_Bloque0
  C:BFCFH         PUBLIC        _Responde_Write_Tarjeta_Sector1_Bloque1
  C:B9A9H         PUBLIC        _Responde_Write_Tarjeta_Sector2_Bloque0
  C:B399H         PUBLIC        _Responde_Write_Tarjeta_Sector1_Bloque2
  C:B249H         PUBLIC        _En_Horario
  C:B15EH         PUBLIC        Responde_Tipo_Tarjeta
  C:C0D7H         PUBLIC        _Tarjeta_Rotacion
  -------         PROC          CAPTURA_EXPULSA
  -------         DO            
  D:0007H         SYMBOL        Estado_expedidor
  -------         ENDDO         
  C:C502H         LINE#         543
  C:C502H         LINE#         544
  C:C502H         LINE#         548
  C:C505H         LINE#         549
  C:C505H         LINE#         550
  C:C507H         LINE#         551
  C:C508H         LINE#         553
  C:C508H         LINE#         555
  C:C50AH         LINE#         556
  C:C50AH         LINE#         559
  C:C50AH         LINE#         560
  -------         ENDPROC       CAPTURA_EXPULSA
BL51 BANKED LINKER/LOCATER V6.22.2.0                                                  08/02/2021  16:39:51  PAGE 109


  -------         PROC          TRAMA_VALIDACION_P_N
  -------         DO            
  D:0007H         SYMBOL        Trama_Validacion_P_N
  -------         ENDDO         
  C:BD0AH         LINE#         571
  C:BD0AH         LINE#         572
  C:BD0AH         LINE#         573
  C:BD0CH         LINE#         575
  C:BD22H         LINE#         576
  C:BD22H         LINE#         577
  C:BD25H         LINE#         578
  C:BD25H         LINE#         579
  C:BD27H         LINE#         582
  C:BD2FH         LINE#         583
  C:BD2FH         LINE#         585
  C:BD31H         LINE#         587
  C:BD32H         LINE#         588
  C:BD36H         LINE#         589
  C:BD36H         LINE#         591
  C:BD38H         LINE#         593
  C:BD39H         LINE#         595
  C:BD39H         LINE#         596
  C:BD42H         LINE#         597
  C:BD44H         LINE#         599
  C:BD44H         LINE#         600
  C:BD45H         LINE#         602
  C:BD45H         LINE#         604
  C:BD47H         LINE#         606
  C:BD47H         LINE#         608
  C:BD47H         LINE#         610
  C:BD47H         LINE#         611
  -------         ENDPROC       TRAMA_VALIDACION_P_N
  -------         PROC          ERROR_RX_PTO
  -------         DO            
  X:00B7H         SYMBOL        cnt_espera_ask_on
  X:0007H         SYMBOL        error_rx_pto
  -------         ENDDO         
  C:966DH         LINE#         635
  C:966DH         LINE#         636
  C:966DH         LINE#         639
  C:9673H         LINE#         643
  C:967CH         LINE#         644
  C:9684H         LINE#         645
  C:968DH         LINE#         646
  C:9695H         LINE#         647
  C:969EH         LINE#         648
  C:96A1H         LINE#         650
  C:96A1H         LINE#         651
  C:96A7H         LINE#         652
  C:96B1H         LINE#         653
  C:96B1H         LINE#         654
  C:96BAH         LINE#         655
  C:96BCH         LINE#         656
  C:96C3H         LINE#         657
  C:96C8H         LINE#         658
  C:96CEH         LINE#         659
  C:96D3H         LINE#         660
BL51 BANKED LINKER/LOCATER V6.22.2.0                                                  08/02/2021  16:39:51  PAGE 110


  C:96D5H         LINE#         661
  C:96DCH         LINE#         662
  C:96E2H         LINE#         663
  C:96E2H         LINE#         665
  C:96E2H         LINE#         666
  C:96E7H         LINE#         667
  C:96E7H         LINE#         668
  C:96E7H         LINE#         669
  C:96E9H         LINE#         671
  C:96E9H         LINE#         672
  C:96F7H         LINE#         673
  C:970AH         LINE#         674
  C:970AH         LINE#         675
  C:970BH         LINE#         677
  C:9711H         LINE#         678
  C:9715H         LINE#         679
  C:9717H         LINE#         680
  C:9717H         LINE#         681
  C:9719H         LINE#         683
  C:9719H         LINE#         684
  C:971AH         LINE#         685
  C:971FH         LINE#         686
  C:9725H         LINE#         687
  C:9725H         LINE#         688
  C:9725H         LINE#         689
  C:972AH         LINE#         690
  -------         ENDPROC       ERROR_RX_PTO
  -------         PROC          _RTA_CMD_TRANSPORTE
  X:0002H         SYMBOL        secuencia_Expedidor
  -------         DO            
  X:0005H         SYMBOL        temp
  X:0006H         SYMBOL        EstadoComSeqMF
  -------         ENDDO         
  C:8C06H         LINE#         706
  C:8C11H         LINE#         707
  C:8C11H         LINE#         713
  C:8C1EH         LINE#         714
  C:8C1EH         LINE#         715
  C:8C26H         LINE#         716
  C:8C26H         LINE#         717
  C:8C34H         LINE#         718
  C:8C37H         LINE#         719
  C:8C3DH         LINE#         720
  C:8C3DH         LINE#         721
  C:8C46H         LINE#         722
  C:8C5AH         LINE#         723
  C:8C62H         LINE#         724
  C:8C62H         LINE#         725
  C:8C6BH         LINE#         726
  C:8C6BH         LINE#         728
  C:8C7CH         LINE#         730
  C:8C7EH         LINE#         732
  C:8C7EH         LINE#         735
  C:8C96H         LINE#         736
  C:8C96H         LINE#         737
  C:8CA1H         LINE#         738
  C:8CA3H         LINE#         740
BL51 BANKED LINKER/LOCATER V6.22.2.0                                                  08/02/2021  16:39:51  PAGE 111


  C:8CA3H         LINE#         741
  C:8CB1H         LINE#         742
  C:8CB1H         LINE#         743
  C:8CB1H         LINE#         744
  C:8CB3H         LINE#         746
  C:8CB3H         LINE#         748
  C:8CC7H         LINE#         749
  C:8CDCH         LINE#         750
  C:8CDCH         LINE#         751
  C:8CE1H         LINE#         752
  -------         ENDPROC       _RTA_CMD_TRANSPORTE
  -------         PROC          ANALIZA_PRESENCIA_MENSUAL
  -------         DO            
  X:0002H         SYMBOL        Estado_expedidor
  -------         ENDDO         
  C:C0A3H         LINE#         756
  C:C0A3H         LINE#         757
  C:C0A3H         LINE#         761
  C:C0A9H         LINE#         762
  C:C0A9H         LINE#         763
  C:C0B7H         LINE#         764
  C:C0B7H         LINE#         765
  C:C0B9H         LINE#         766
  C:C0BFH         LINE#         767
  C:C0C1H         LINE#         776
  C:C0C1H         LINE#         778
  C:C0C6H         LINE#         779
  C:C0CBH         LINE#         780
  C:C0D1H         LINE#         781
  C:C0D1H         LINE#         782
  C:C0D6H         LINE#         783
  -------         ENDPROC       ANALIZA_PRESENCIA_MENSUAL
  -------         PROC          ANALIZA_CARD_MOUNT_RF
  -------         DO            
  X:0002H         SYMBOL        Estado_expedidor
  -------         ENDDO         
  C:BF27H         LINE#         787
  C:BF27H         LINE#         788
  C:BF27H         LINE#         790
  C:BF2DH         LINE#         791
  C:BF34H         LINE#         792
  C:BF34H         LINE#         794
  C:BF3DH         LINE#         796
  C:BF43H         LINE#         797
  C:BF45H         LINE#         798
  C:BF4CH         LINE#         800
  C:BF4CH         LINE#         801
  C:BF55H         LINE#         802
  C:BF5BH         LINE#         803
  C:BF5BH         LINE#         806
  C:BF60H         LINE#         807
  -------         ENDPROC       ANALIZA_CARD_MOUNT_RF
  -------         PROC          ANALIZA_PRESENCIA_ROTACION
  -------         DO            
  X:0002H         SYMBOL        Estado_expedidor
  -------         ENDDO         
  C:C27BH         LINE#         811
BL51 BANKED LINKER/LOCATER V6.22.2.0                                                  08/02/2021  16:39:51  PAGE 112


  C:C27BH         LINE#         812
  C:C27BH         LINE#         814
  C:C281H         LINE#         815
  C:C281H         LINE#         817
  C:C287H         LINE#         818
  C:C289H         LINE#         820
  C:C289H         LINE#         822
  C:C28EH         LINE#         823
  C:C293H         LINE#         824
  C:C298H         LINE#         826
  C:C298H         LINE#         827
  C:C29DH         LINE#         828
  -------         ENDPROC       ANALIZA_PRESENCIA_ROTACION
  -------         PROC          _ANALIZA_UID_CARD
  X:0002H         SYMBOL        Atributos_Expedidor
  -------         DO            
  X:0005H         SYMBOL        Estado_expedidor
  D:0007H         SYMBOL        temp
  X:0006H         SYMBOL        buffer_UID
  -------         ENDDO         
  C:8DBDH         LINE#         832
  C:8DC8H         LINE#         833
  C:8DC8H         LINE#         837
  C:8DD8H         LINE#         838
  C:8DD8H         LINE#         840
  C:8DE4H         LINE#         841
  C:8DE4H         LINE#         842
  C:8DFCH         LINE#         844
  C:8DFFH         LINE#         846
  C:8E08H         LINE#         847
  C:8E19H         LINE#         850
  C:8E22H         LINE#         851
  C:8E2AH         LINE#         852
  C:8E32H         LINE#         853
  C:8E3AH         LINE#         854
  C:8E42H         LINE#         855
  C:8E4BH         LINE#         857
  C:8E62H         LINE#         858
  C:8E6CH         LINE#         859
  C:8E76H         LINE#         860
  C:8E80H         LINE#         861
  C:8E86H         LINE#         862
  C:8E88H         LINE#         864
  C:8E88H         LINE#         865
  C:8E8EH         LINE#         866
  C:8E8EH         LINE#         867
  C:8E93H         LINE#         868
  -------         ENDPROC       _ANALIZA_UID_CARD
  -------         PROC          INGRESO_VEHICULO
  -------         DO            
  D:0007H         SYMBOL        CardAutomatic
  X:00B9H         SYMBOL        pulseboton
  -------         ENDDO         
  C:B2BAH         LINE#         872
  C:B2BAH         LINE#         873
  C:B2BAH         LINE#         878
  C:B2C0H         LINE#         879
BL51 BANKED LINKER/LOCATER V6.22.2.0                                                  08/02/2021  16:39:51  PAGE 113


  C:B2C0H         LINE#         880
  C:B2C9H         LINE#         882
  C:B2CEH         LINE#         883
  C:B2CEH         LINE#         884
  C:B2D7H         LINE#         885
  C:B2DCH         LINE#         886
  C:B2DCH         LINE#         887
  C:B2DEH         LINE#         889
  C:B2DEH         LINE#         891
  C:B2EBH         LINE#         892
  C:B2F0H         LINE#         893
  C:B2F5H         LINE#         894
  C:B2F7H         LINE#         896
  C:B2F7H         LINE#         897
  C:B2FDH         LINE#         900
  C:B2FDH         LINE#         901
  C:B300H         LINE#         902
  C:B303H         LINE#         903
  C:B303H         LINE#         904
  C:B305H         LINE#         905
  C:B30AH         LINE#         906
  C:B310H         LINE#         907
  C:B312H         LINE#         909
  C:B312H         LINE#         910
  C:B317H         LINE#         911
  C:B31DH         LINE#         912
  C:B31DH         LINE#         915
  C:B31DH         LINE#         916
  C:B31FH         LINE#         918
  C:B31FH         LINE#         920
  C:B324H         LINE#         921
  C:B324H         LINE#         922
  C:B329H         LINE#         923
  -------         ENDPROC       INGRESO_VEHICULO
  -------         PROC          RESPONDE_ESTADO_SENSORES_TRANSPORTE
  -------         DO            
  X:0002H         SYMBOL        Estado_expedidor
  -------         ENDDO         
  C:B0E2H         LINE#         930
  C:B0E2H         LINE#         931
  C:B0E2H         LINE#         934
  C:B0EBH         LINE#         936
  C:B0F3H         LINE#         937
  C:B0F3H         LINE#         939
  C:B0FEH         LINE#         940
  C:B0FEH         LINE#         941
  C:B102H         LINE#         942
  C:B102H         LINE#         943
  C:B10BH         LINE#         944
  C:B110H         LINE#         946
  C:B110H         LINE#         947
  C:B112H         LINE#         949
  C:B112H         LINE#         951
  C:B11AH         LINE#         953
  C:B11AH         LINE#         954
  C:B11CH         LINE#         956
  C:B11CH         LINE#         958
BL51 BANKED LINKER/LOCATER V6.22.2.0                                                  08/02/2021  16:39:51  PAGE 114


  C:B125H         LINE#         960
  C:B12AH         LINE#         963
  C:B12AH         LINE#         964
  C:B12AH         LINE#         965
  C:B12CH         LINE#         966
  C:B133H         LINE#         967
  C:B133H         LINE#         969
  C:B139H         LINE#         971
  C:B139H         LINE#         972
  C:B13BH         LINE#         973
  C:B142H         LINE#         975
  C:B142H         LINE#         976
  C:B14BH         LINE#         977
  C:B151H         LINE#         978
  C:B153H         LINE#         980
  C:B153H         LINE#         981
  C:B158H         LINE#         982
  C:B158H         LINE#         983
  C:B15DH         LINE#         984
  -------         ENDPROC       RESPONDE_ESTADO_SENSORES_TRANSPORTE
  -------         PROC          RESPONDE_TIPO_TARJETA
  -------         DO            
  X:0002H         SYMBOL        Estado_expedidor
  -------         ENDDO         
  C:B15EH         LINE#         1000
  C:B15EH         LINE#         1001
  C:B15EH         LINE#         1004
  C:B167H         LINE#         1006
  C:B16FH         LINE#         1007
  C:B16FH         LINE#         1008
  C:B17AH         LINE#         1009
  C:B17AH         LINE#         1010
  C:B183H         LINE#         1011
  C:B189H         LINE#         1012
  C:B189H         LINE#         1013
  C:B18CH         LINE#         1014
  C:B18EH         LINE#         1016
  C:B18EH         LINE#         1017
  C:B191H         LINE#         1018
  C:B191H         LINE#         1019
  C:B193H         LINE#         1021
  C:B193H         LINE#         1022
  C:B19AH         LINE#         1023
  C:B19AH         LINE#         1025
  C:B1A0H         LINE#         1027
  C:B1A0H         LINE#         1028
  C:B1A0H         LINE#         1030
  C:B1A0H         LINE#         1032
  C:B1A2H         LINE#         1034
  C:B1A2H         LINE#         1035
  C:B1A2H         LINE#         1036
  C:B1A2H         LINE#         1037
  C:B1A2H         LINE#         1038
  C:B1A2H         LINE#         1039
  C:B1A4H         LINE#         1041
  C:B1A4H         LINE#         1042
  C:B1ABH         LINE#         1043
BL51 BANKED LINKER/LOCATER V6.22.2.0                                                  08/02/2021  16:39:51  PAGE 115


  C:B1ABH         LINE#         1046
  C:B1B4H         LINE#         1048
  C:B1B9H         LINE#         1049
  C:B1BEH         LINE#         1051
  C:B1C6H         LINE#         1054
  C:B1C8H         LINE#         1056
  C:B1C8H         LINE#         1057
  C:B1CAH         LINE#         1058
  C:B1CFH         LINE#         1059
  C:B1CFH         LINE#         1060
  C:B1CFH         LINE#         1062
  C:B1D4H         LINE#         1063
  -------         ENDPROC       RESPONDE_TIPO_TARJETA
  -------         PROC          _RESPONDE_LECTURA_TARJETA_SECTOR1_BLOQUE1
  X:0002H         SYMBOL        Atributos_Expedidor
  -------         DO            
  D:0007H         SYMBOL        temp
  X:0005H         SYMBOL        Estado_expedidor
  X:0006H         SYMBOL        buffer_S1_B1
  X:0017H         SYMBOL        ID_CLIENTE
  D:0007H         SYMBOL        COD_PARK
  X:00BAH         SYMBOL        falla
  -------         ENDDO         
  C:6080H         LINE#         1075
  C:608BH         LINE#         1076
  C:608BH         LINE#         1083
  C:6094H         LINE#         1087
  C:60A4H         LINE#         1088
  C:60A4H         LINE#         1090
  C:60B0H         LINE#         1091
  C:60B0H         LINE#         1092
  C:60C8H         LINE#         1094
  C:60CBH         LINE#         1097
  C:60D4H         LINE#         1098
  C:60E5H         LINE#         1099
  C:60F2H         LINE#         1100
  C:60FBH         LINE#         1103
  C:611AH         LINE#         1104
  C:611AH         LINE#         1106
  C:6123H         LINE#         1107
  C:612BH         LINE#         1108
  C:6134H         LINE#         1110
  C:613DH         LINE#         1111
  C:6145H         LINE#         1112
  C:614EH         LINE#         1114
  C:6157H         LINE#         1115
  C:615FH         LINE#         1116
  C:6168H         LINE#         1118
  C:6171H         LINE#         1119
  C:6179H         LINE#         1120
  C:6182H         LINE#         1122
  C:618BH         LINE#         1123
  C:6193H         LINE#         1124
  C:619CH         LINE#         1126
  C:61B3H         LINE#         1128
  C:61BDH         LINE#         1129
  C:61C7H         LINE#         1130
BL51 BANKED LINKER/LOCATER V6.22.2.0                                                  08/02/2021  16:39:51  PAGE 116


  C:61D1H         LINE#         1132
  C:61D6H         LINE#         1133
  C:61E9H         LINE#         1134
  C:61EEH         LINE#         1135
  C:61F4H         LINE#         1137
  C:61F6H         LINE#         1139
  C:61F6H         LINE#         1140
  C:61FBH         LINE#         1141
  C:6204H         LINE#         1142
  C:6209H         LINE#         1143
  C:620BH         LINE#         1144
  C:620BH         LINE#         1145
  C:620BH         LINE#         1146
  C:620DH         LINE#         1148
  C:620DH         LINE#         1150
  C:6215H         LINE#         1151
  C:6215H         LINE#         1152
  C:621BH         LINE#         1153
  C:621BH         LINE#         1154
  C:6228H         LINE#         1156
  C:6228H         LINE#         1157
  C:6231H         LINE#         1158
  C:6237H         LINE#         1160
  C:6239H         LINE#         1162
  C:6239H         LINE#         1163
  C:623EH         LINE#         1164
  C:6247H         LINE#         1165
  C:624CH         LINE#         1166
  C:6251H         LINE#         1167
  C:6259H         LINE#         1168
  C:6259H         LINE#         1169
  C:6259H         LINE#         1171
  C:625EH         LINE#         1172
  -------         ENDPROC       _RESPONDE_LECTURA_TARJETA_SECTOR1_BLOQUE1
  -------         PROC          _RESPONDE_LECTURA_TARJETA_SECTOR1_BLOQUE2
  X:0002H         SYMBOL        Atributos_Expedidor
  -------         DO            
  D:0007H         SYMBOL        temp
  X:0005H         SYMBOL        Estado_expedidor
  X:0006H         SYMBOL        buffer_S1_B2
  -------         ENDDO         
  C:74BEH         LINE#         1177
  C:74C9H         LINE#         1178
  C:74C9H         LINE#         1184
  C:74D2H         LINE#         1188
  C:74E2H         LINE#         1189
  C:74E2H         LINE#         1191
  C:74EEH         LINE#         1192
  C:74EEH         LINE#         1193
  C:7506H         LINE#         1194
  C:7509H         LINE#         1195
  C:7512H         LINE#         1196
  C:7523H         LINE#         1200
  C:752CH         LINE#         1201
  C:7539H         LINE#         1202
  C:7555H         LINE#         1203
  C:755EH         LINE#         1205
BL51 BANKED LINKER/LOCATER V6.22.2.0                                                  08/02/2021  16:39:51  PAGE 117


  C:7567H         LINE#         1207
  C:7583H         LINE#         1208
  C:758DH         LINE#         1209
  C:7596H         LINE#         1212
  C:759FH         LINE#         1213
  C:75A7H         LINE#         1214
  C:75B0H         LINE#         1218
  C:75C7H         LINE#         1221
  C:75D3H         LINE#         1222
  C:75D9H         LINE#         1225
  C:75DBH         LINE#         1227
  C:75DBH         LINE#         1228
  C:75E3H         LINE#         1229
  C:75E3H         LINE#         1230
  C:75E8H         LINE#         1231
  -------         ENDPROC       _RESPONDE_LECTURA_TARJETA_SECTOR1_BLOQUE2
  -------         PROC          _RESPONDE_LECTURA_TARJETA_SECTOR1_BLOQUE0
  X:0002H         SYMBOL        Nombre_Mensual
  -------         DO            
  D:0007H         SYMBOL        temp
  X:0005H         SYMBOL        Estado_expedidor
  -------         ENDDO         
  C:A3ECH         LINE#         1233
  C:A3F7H         LINE#         1234
  C:A3F7H         LINE#         1240
  C:A400H         LINE#         1244
  C:A40DH         LINE#         1245
  C:A40DH         LINE#         1247
  C:A419H         LINE#         1248
  C:A419H         LINE#         1249
  C:A439H         LINE#         1250
  C:A43CH         LINE#         1251
  C:A450H         LINE#         1252
  C:A459H         LINE#         1253
  C:A467H         LINE#         1254
  C:A470H         LINE#         1255
  C:A476H         LINE#         1258
  C:A478H         LINE#         1260
  C:A478H         LINE#         1261
  C:A480H         LINE#         1262
  C:A480H         LINE#         1263
  C:A485H         LINE#         1264
  -------         ENDPROC       _RESPONDE_LECTURA_TARJETA_SECTOR1_BLOQUE0
  -------         PROC          _RESPONDE_REELECTURA_TARJETA_SECTOR1_BLOQUE2
  X:0002H         SYMBOL        lectura_anterior
  X:0005H         SYMBOL        Atributos_Expedidor
  -------         DO            
  D:0007H         SYMBOL        temp
  X:0008H         SYMBOL        Estado_expedidor
  X:0009H         SYMBOL        reelectura
  X:00BBH         SYMBOL        error_lectura
  -------         ENDDO         
  C:6C05H         LINE#         1265
  C:6C10H         LINE#         1266
  C:6C10H         LINE#         1272
  C:6C19H         LINE#         1275
  C:6C29H         LINE#         1276
BL51 BANKED LINKER/LOCATER V6.22.2.0                                                  08/02/2021  16:39:51  PAGE 118


  C:6C29H         LINE#         1278
  C:6C35H         LINE#         1279
  C:6C35H         LINE#         1280
  C:6C55H         LINE#         1281
  C:6C58H         LINE#         1282
  C:6C6CH         LINE#         1283
  C:6C75H         LINE#         1284
  C:6C8BH         LINE#         1285
  C:6C94H         LINE#         1287
  C:6CB8H         LINE#         1288
  C:6CB8H         LINE#         1289
  C:6CBCH         LINE#         1290
  C:6CC5H         LINE#         1291
  C:6CCEH         LINE#         1292
  C:6CDEH         LINE#         1293
  C:6CF0H         LINE#         1294
  C:6CFEH         LINE#         1295
  C:6CFEH         LINE#         1296
  C:6D00H         LINE#         1298
  C:6D00H         LINE#         1299
  C:6D06H         LINE#         1300
  C:6D16H         LINE#         1301
  C:6D16H         LINE#         1302
  C:6D19H         LINE#         1303
  C:6D1FH         LINE#         1305
  C:6D21H         LINE#         1307
  C:6D21H         LINE#         1308
  C:6D24H         LINE#         1309
  C:6D2DH         LINE#         1310
  C:6D3DH         LINE#         1311
  C:6D50H         LINE#         1312
  C:6D56H         LINE#         1314
  C:6D56H         LINE#         1315
  C:6D56H         LINE#         1317
  C:6D56H         LINE#         1318
  C:6D5BH         LINE#         1319
  -------         ENDPROC       _RESPONDE_REELECTURA_TARJETA_SECTOR1_BLOQUE2
  -------         PROC          _RESPONDE_WRITE_TARJETA_SECTOR1_BLOQUE1
  X:0002H         SYMBOL        Buffer_Write_MF
  -------         DO            
  D:0007H         SYMBOL        Estado_expedidor
  -------         ENDDO         
  C:BFCFH         LINE#         1320
  C:BFDAH         LINE#         1321
  C:BFDAH         LINE#         1323
  C:BFE3H         LINE#         1324
  C:BFECH         LINE#         1325
  C:C002H         LINE#         1326
  C:C004H         LINE#         1327
  C:C004H         LINE#         1328
  -------         ENDPROC       _RESPONDE_WRITE_TARJETA_SECTOR1_BLOQUE1
  -------         PROC          _RESPONDE_WRITE_TARJETA_SECTOR1_BLOQUE2
  X:0002H         SYMBOL        Atributos_Expedidor
  X:0005H         SYMBOL        Buffer_Write_MF
  -------         DO            
  X:0008H         SYMBOL        Estado_expedidor
  -------         ENDDO         
BL51 BANKED LINKER/LOCATER V6.22.2.0                                                  08/02/2021  16:39:51  PAGE 119


  C:B399H         LINE#         1329
  C:B3A4H         LINE#         1330
  C:B3A4H         LINE#         1332
  C:B3ADH         LINE#         1333
  C:B3B6H         LINE#         1334
  C:B3CCH         LINE#         1335
  C:B3CFH         LINE#         1336
  C:B3CFH         LINE#         1337
  C:B3D5H         LINE#         1343
  C:B3D7H         LINE#         1345
  C:B3D7H         LINE#         1346
  C:B3E7H         LINE#         1347
  C:B3F9H         LINE#         1348
  C:B3FFH         LINE#         1350
  C:B3FFH         LINE#         1351
  C:B404H         LINE#         1352
  -------         ENDPROC       _RESPONDE_WRITE_TARJETA_SECTOR1_BLOQUE2
  -------         PROC          _RESPONDE_WRITE_TARJETA_SECTOR1_BLOQUE0
  X:0002H         SYMBOL        Buffer_Write_MF
  C:C005H         LINE#         1355
  C:C010H         LINE#         1356
  C:C010H         LINE#         1358
  C:C019H         LINE#         1359
  C:C022H         LINE#         1360
  C:C038H         LINE#         1362
  C:C03AH         LINE#         1363
  -------         ENDPROC       _RESPONDE_WRITE_TARJETA_SECTOR1_BLOQUE0
  -------         PROC          _RESPONDE_WRITE_TARJETA_SECTOR2_BLOQUE0
  X:0002H         SYMBOL        Buffer_Write_MF
  C:B9A9H         LINE#         1366
  C:B9B4H         LINE#         1367
  C:B9B4H         LINE#         1369
  C:B9BDH         LINE#         1370
  C:B9C6H         LINE#         1371
  C:B9CFH         LINE#         1372
  C:B9D8H         LINE#         1373
  C:B9EDH         LINE#         1374
  C:B9EFH         LINE#         1375
  -------         ENDPROC       _RESPONDE_WRITE_TARJETA_SECTOR2_BLOQUE0
  -------         PROC          _PREGUNTA_LPR
  X:0002H         SYMBOL        Atributos_Expedidor
  -------         DO            
  D:0007H         SYMBOL        Estado_expedidor
  -------         ENDDO         
  C:B700H         LINE#         1379
  C:B70BH         LINE#         1380
  C:B70BH         LINE#         1382
  C:B714H         LINE#         1383
  C:B722H         LINE#         1384
  C:B730H         LINE#         1385
  C:B730H         LINE#         1387
  C:B741H         LINE#         1388
  C:B74DH         LINE#         1389
  C:B74DH         LINE#         1390
  C:B751H         LINE#         1391
  C:B751H         LINE#         1392
  C:B751H         LINE#         1395
BL51 BANKED LINKER/LOCATER V6.22.2.0                                                  08/02/2021  16:39:51  PAGE 120


  C:B753H         LINE#         1397
  C:B753H         LINE#         1398
  -------         ENDPROC       _PREGUNTA_LPR
  -------         PROC          PREGUNTA_PLACA
  -------         DO            
  X:0002H         SYMBOL        Estado_expedidor
  -------         ENDDO         
  C:C108H         LINE#         1400
  C:C108H         LINE#         1401
  C:C108H         LINE#         1403
  C:C111H         LINE#         1404
  C:C120H         LINE#         1405
  C:C120H         LINE#         1407
  C:C123H         LINE#         1408
  C:C128H         LINE#         1409
  C:C12DH         LINE#         1410
  C:C12FH         LINE#         1412
  C:C12FH         LINE#         1413
  C:C132H         LINE#         1414
  C:C132H         LINE#         1415
  C:C137H         LINE#         1416
  -------         ENDPROC       PREGUNTA_PLACA
  -------         PROC          _RESPUESTA_SEGUNDA_CLAVE
  X:0002H         SYMBOL        Atributos_Expedidor
  X:0005H         SYMBOL        Buffer_Write_MF
  C:B596H         LINE#         1417
  C:B5A1H         LINE#         1418
  C:B5A1H         LINE#         1420
  C:B5AAH         LINE#         1421
  C:B5C0H         LINE#         1424
  C:B5D0H         LINE#         1425
  C:B5E2H         LINE#         1426
  C:B5F0H         LINE#         1428
  C:B5F2H         LINE#         1429
  -------         ENDPROC       _RESPUESTA_SEGUNDA_CLAVE
  -------         PROC          _RESPUESTA_PLACA_CANCEL
  X:0009H         SYMBOL        Atributos_Expedidor
  X:000CH         SYMBOL        Buffer_Write_MF
  -------         DO            
  X:000FH         SYMBOL        Estado_expedidor
  X:0010H         SYMBOL        Cancel
  -------         ENDDO         
  C:A2B5H         LINE#         1430
  C:A2C0H         LINE#         1431
  C:A2C0H         LINE#         1433
  C:A2CEH         LINE#         1434
  C:A2D7H         LINE#         1435
  C:A2E0H         LINE#         1436
  C:A2E9H         LINE#         1438
  C:A304H         LINE#         1439
  C:A304H         LINE#         1440
  C:A314H         LINE#         1441
  C:A327H         LINE#         1442
  C:A335H         LINE#         1443
  C:A33BH         LINE#         1444
  C:A33DH         LINE#         1446
  C:A33DH         LINE#         1447
BL51 BANKED LINKER/LOCATER V6.22.2.0                                                  08/02/2021  16:39:51  PAGE 121


  C:A343H         LINE#         1448
  C:A343H         LINE#         1449
  C:A346H         LINE#         1450
  C:A348H         LINE#         1452
  C:A348H         LINE#         1454
  C:A34BH         LINE#         1455
  C:A34BH         LINE#         1456
  C:A34BH         LINE#         1457
  C:A350H         LINE#         1458
  -------         ENDPROC       _RESPUESTA_PLACA_CANCEL
  -------         PROC          _ARMAR_TRAMA_TARJETA_SECTOR1_BLOQUE1_CAMCEL
  X:0013H         SYMBOL        Buffer_Write_MF
  -------         DO            
  X:0016H         SYMBOL        ID_CLIENTE
  D:0007H         SYMBOL        COD_PARK
  -------         ENDDO         
  C:A031H         LINE#         1461
  C:A03CH         LINE#         1462
  C:A03CH         LINE#         1466
  C:A03FH         LINE#         1467
  C:A04CH         LINE#         1468
  C:A055H         LINE#         1470
  C:A065H         LINE#         1471
  C:A077H         LINE#         1472
  C:A07EH         LINE#         1473
  C:A088H         LINE#         1474
  C:A08FH         LINE#         1475
  C:A096H         LINE#         1476
  C:A09DH         LINE#         1477
  C:A0A4H         LINE#         1478
  C:A0ABH         LINE#         1479
  C:A0B2H         LINE#         1480
  C:A0B9H         LINE#         1481
  C:A0C0H         LINE#         1482
  C:A0C7H         LINE#         1483
  C:A0CEH         LINE#         1484
  -------         ENDPROC       _ARMAR_TRAMA_TARJETA_SECTOR1_BLOQUE1_CAMCEL
  -------         PROC          _ARMAR_TRAMA_TARJETA_SECTOR1_BLOQUE2
  X:0010H         SYMBOL        Atributos_Expedidor
  X:0013H         SYMBOL        Buffer_Write_MF
  C:5E95H         LINE#         1490
  C:5EA0H         LINE#         1491
  C:5EA0H         LINE#         1496
  C:5EC4H         LINE#         1497
  C:5EEBH         LINE#         1498
  C:5F12H         LINE#         1499
  C:5F39H         LINE#         1500
  C:5F60H         LINE#         1503
  C:5F67H         LINE#         1504
  C:5F6EH         LINE#         1505
  C:5F75H         LINE#         1507
  C:5F8AH         LINE#         1508
  C:5F8AH         LINE#         1509
  C:5FA1H         LINE#         1510
  C:5FBAH         LINE#         1511
  C:5FBAH         LINE#         1512
  C:5FBDH         LINE#         1516
BL51 BANKED LINKER/LOCATER V6.22.2.0                                                  08/02/2021  16:39:51  PAGE 122


  C:5FBDH         LINE#         1518
  C:5FECH         LINE#         1519
  C:601BH         LINE#         1521
  C:6033H         LINE#         1522
  C:6033H         LINE#         1523
  C:6040H         LINE#         1524
  C:6042H         LINE#         1526
  C:6042H         LINE#         1527
  C:6052H         LINE#         1528
  C:6052H         LINE#         1529
  C:6052H         LINE#         1531
  C:6064H         LINE#         1532
  C:606BH         LINE#         1533
  C:6072H         LINE#         1534
  C:6079H         LINE#         1535
  -------         ENDPROC       _ARMAR_TRAMA_TARJETA_SECTOR1_BLOQUE2
  -------         PROC          _ARMAR_TRAMA_TARJETA_SECTOR1_BLOQUE0
  X:000CH         SYMBOL        Buffer_Write_MF
  C:C1E0H         LINE#         1537
  C:C1EBH         LINE#         1538
  C:C1EBH         LINE#         1540
  -------         ENDPROC       _ARMAR_TRAMA_TARJETA_SECTOR1_BLOQUE0
  -------         PROC          _ARMAR_TRAMA_PTO_PARALELO_EXPEDIDOR
  X:0009H         SYMBOL        Atributos_Expedidor
  X:000CH         SYMBOL        longitud_trama_pto_paralelo
  -------         DO            
  X:00BCH         SYMBOL        buffer
  X:000FH         SYMBOL        ticket
  X:001AH         SYMBOL        j
  -------         ENDDO         
  C:5413H         LINE#         1542
  C:541EH         LINE#         1543
  C:541EH         LINE#         1550
  C:5424H         LINE#         1551
  C:5428H         LINE#         1552
  C:542BH         LINE#         1553
  C:5437H         LINE#         1554
  C:544EH         LINE#         1555
  C:545CH         LINE#         1557
  C:546DH         LINE#         1559
  C:5499H         LINE#         1560
  C:54C5H         LINE#         1561
  C:54F1H         LINE#         1562
  C:551DH         LINE#         1563
  C:5549H         LINE#         1564
  C:555DH         LINE#         1574
  C:556CH         LINE#         1575
  C:556CH         LINE#         1576
  C:5572H         LINE#         1577
  C:5572H         LINE#         1578
  C:5589H         LINE#         1579
  C:559FH         LINE#         1580
  C:55B5H         LINE#         1581
  C:55CBH         LINE#         1582
  C:55E1H         LINE#         1583
  C:55F6H         LINE#         1584
  C:55F6H         LINE#         1585
BL51 BANKED LINKER/LOCATER V6.22.2.0                                                  08/02/2021  16:39:51  PAGE 123


  C:55F8H         LINE#         1587
  C:55F8H         LINE#         1588
  C:560BH         LINE#         1589
  C:560BH         LINE#         1590
  C:560BH         LINE#         1591
  C:560DH         LINE#         1593
  C:560DH         LINE#         1594
  C:5621H         LINE#         1595
  C:5634H         LINE#         1596
  C:5634H         LINE#         1597
  C:5642H         LINE#         1598
  C:5650H         LINE#         1599
  C:5662H         LINE#         1601
  C:5668H         LINE#         1602
  -------         ENDPROC       _ARMAR_TRAMA_PTO_PARALELO_EXPEDIDOR
  -------         PROC          _ARMAR_TRAMA_PTO_PARALELO_EXPEDIDOR_MENSUAL
  X:0009H         SYMBOL        Atributos_Expedidor
  X:000CH         SYMBOL        longitud_trama_pto_paralelo
  -------         DO            
  X:00D8H         SYMBOL        buffer
  -------         ENDDO         
  C:7390H         LINE#         1603
  C:739BH         LINE#         1604
  C:739BH         LINE#         1610
  C:73A1H         LINE#         1611
  C:73A5H         LINE#         1612
  C:73BAH         LINE#         1613
  C:73C4H         LINE#         1614
  C:73CEH         LINE#         1615
  C:73D8H         LINE#         1619
  C:73E9H         LINE#         1620
  C:7405H         LINE#         1621
  C:7421H         LINE#         1622
  C:743DH         LINE#         1623
  C:7459H         LINE#         1633
  C:7465H         LINE#         1634
  C:7465H         LINE#         1636
  C:746CH         LINE#         1637
  C:7470H         LINE#         1638
  C:7474H         LINE#         1639
  C:7478H         LINE#         1640
  C:747CH         LINE#         1641
  C:7480H         LINE#         1643
  C:7480H         LINE#         1645
  C:7496H         LINE#         1646
  C:7496H         LINE#         1647
  C:7499H         LINE#         1648
  C:749BH         LINE#         1650
  C:749BH         LINE#         1651
  C:749EH         LINE#         1652
  C:749EH         LINE#         1654
  C:74A4H         LINE#         1655
  C:74A7H         LINE#         1656
  C:74B7H         LINE#         1657
  C:74BDH         LINE#         1658
  -------         ENDPROC       _ARMAR_TRAMA_PTO_PARALELO_EXPEDIDOR_MENSUAL
  -------         PROC          _ARMAR_TRAMA_MONITOR
BL51 BANKED LINKER/LOCATER V6.22.2.0                                                  08/02/2021  16:39:51  PAGE 124


  X:0005H         SYMBOL        Atributos_Expedidor
  -------         DO            
  X:00F4H         SYMBOL        buffer
  X:0008H         SYMBOL        ticket
  X:0013H         SYMBOL        j
  -------         ENDDO         
  C:5170H         LINE#         1659
  C:517BH         LINE#         1660
  C:517BH         LINE#         1666
  C:5180H         LINE#         1667
  C:5186H         LINE#         1668
  C:518EH         LINE#         1669
  C:5192H         LINE#         1670
  C:519BH         LINE#         1671
  C:519BH         LINE#         1672
  C:519EH         LINE#         1673
  C:51A0H         LINE#         1675
  C:51A0H         LINE#         1676
  C:51A3H         LINE#         1677
  C:51A3H         LINE#         1680
  C:51A6H         LINE#         1681
  C:51A6H         LINE#         1682
  C:51ABH         LINE#         1683
  C:51B7H         LINE#         1684
  C:51CEH         LINE#         1685
  C:51D1H         LINE#         1687
  C:51D1H         LINE#         1688
  C:51ECH         LINE#         1689
  C:51FAH         LINE#         1690
  C:5208H         LINE#         1691
  C:5214H         LINE#         1692
  C:5222H         LINE#         1693
  C:525BH         LINE#         1695
  C:525BH         LINE#         1696
  C:5269H         LINE#         1697
  C:527AH         LINE#         1700
  C:52A6H         LINE#         1701
  C:52C4H         LINE#         1704
  C:52E5H         LINE#         1705
  C:5303H         LINE#         1708
  C:5324H         LINE#         1709
  C:5342H         LINE#         1712
  C:5363H         LINE#         1713
  C:5381H         LINE#         1716
  C:53A2H         LINE#         1717
  C:53C0H         LINE#         1718
  C:53D3H         LINE#         1721
  C:53E1H         LINE#         1723
  C:53EFH         LINE#         1724
  C:53FCH         LINE#         1725
  C:5408H         LINE#         1726
  C:540DH         LINE#         1727
  C:5412H         LINE#         1728
  -------         ENDPROC       _ARMAR_TRAMA_MONITOR
  -------         PROC          _ARMAR_TRAMA_PLACA
  X:0008H         SYMBOL        Buffer_Write_MF
  -------         DO            
BL51 BANKED LINKER/LOCATER V6.22.2.0                                                  08/02/2021  16:39:51  PAGE 125


  D:0006H         SYMBOL        j
  D:0007H         SYMBOL        len_placa
  -------         ENDDO         
  C:B5F3H         LINE#         1729
  C:B5FEH         LINE#         1730
  C:B5FEH         LINE#         1733
  C:B607H         LINE#         1734
  C:B60EH         LINE#         1735
  C:B60EH         LINE#         1736
  C:B628H         LINE#         1737
  C:B62BH         LINE#         1738
  C:B637H         LINE#         1739
  C:B637H         LINE#         1740
  C:B64BH         LINE#         1741
  C:B64EH         LINE#         1742
  -------         ENDPROC       _ARMAR_TRAMA_PLACA
  C:BDFFH         SYMBOL        L?0405
  -------         PROC          L?0404
  -------         ENDPROC       L?0404
  C:BDFFH         SYMBOL        L?0405
  -------         PROC          _LOAD_SECUENCIA_EXPEDIDOR
  D:0001H         SYMBOL        Secuencia_Expedidor
  D:0004H         SYMBOL        estadoactivo
  X:0007H         SYMBOL        estadoactual
  X:0009H         SYMBOL        estadofuturo
  C:BE1BH         LINE#         1743
  C:BE1BH         LINE#         1744
  C:BE1BH         LINE#         1745
  C:BE22H         LINE#         1746
  C:BE2AH         LINE#         1747
  C:BE35H         LINE#         1748
  C:BE3BH         LINE#         1749
  -------         ENDPROC       _LOAD_SECUENCIA_EXPEDIDOR
  -------         PROC          _DISPARO_LOCK_ENTRADA_VEHICULO
  X:0002H         SYMBOL        Nombre_Mensual
  -------         DO            
  X:0005H         SYMBOL        Estado_expedidor
  X:010CH         SYMBOL        take_card
  -------         ENDDO         
  C:A893H         LINE#         1750
  C:A89EH         LINE#         1751
  C:A89EH         LINE#         1756
  C:A8A7H         LINE#         1760
  C:A8AEH         LINE#         1761
  C:A8AEH         LINE#         1763
  C:A8B7H         LINE#         1765
  C:A8BDH         LINE#         1766
  C:A8BFH         LINE#         1767
  C:A8C4H         LINE#         1769
  C:A8D4H         LINE#         1770
  C:A8DAH         LINE#         1773
  C:A8DCH         LINE#         1774
  C:A8E4H         LINE#         1775
  C:A8E4H         LINE#         1776
  C:A8EAH         LINE#         1777
  C:A8EAH         LINE#         1778
  C:A8F7H         LINE#         1779
BL51 BANKED LINKER/LOCATER V6.22.2.0                                                  08/02/2021  16:39:51  PAGE 126


  C:A8FCH         LINE#         1780
  C:A901H         LINE#         1781
  C:A903H         LINE#         1783
  C:A903H         LINE#         1784
  C:A909H         LINE#         1786
  C:A909H         LINE#         1788
  C:A90FH         LINE#         1789
  C:A915H         LINE#         1791
  C:A917H         LINE#         1793
  C:A917H         LINE#         1794
  C:A91DH         LINE#         1795
  C:A91DH         LINE#         1797
  C:A91DH         LINE#         1802
  C:A922H         LINE#         1803
  -------         ENDPROC       _DISPARO_LOCK_ENTRADA_VEHICULO
  -------         PROC          _SEND_PTO_PARALELO
  X:0002H         SYMBOL        Atributos_Expedidor
  -------         DO            
  X:0005H         SYMBOL        Trama_Expedidor
  X:0008H         SYMBOL        leng_trama_pto
  -------         ENDDO         
  C:9F8CH         LINE#         1804
  C:9F97H         LINE#         1805
  C:9F97H         LINE#         1808
  C:9F9AH         LINE#         1809
  C:9F9AH         LINE#         1810
  C:9FC1H         LINE#         1811
  C:9FC3H         LINE#         1813
  C:9FC3H         LINE#         1814
  C:9FEAH         LINE#         1815
  C:9FEDH         LINE#         1816
  C:9FEDH         LINE#         1818
  C:9FFEH         LINE#         1819
  C:A007H         LINE#         1820
  C:A01EH         LINE#         1824
  C:A021H         LINE#         1825
  C:A027H         LINE#         1826
  C:A02CH         LINE#         1827
  C:A02EH         LINE#         1828
  C:A030H         LINE#         1829
  -------         ENDPROC       _SEND_PTO_PARALELO
  -------         PROC          ENTREGA_CARD_CAPTURA
  -------         DO            
  X:0002H         SYMBOL        Estado_expedidor
  -------         ENDDO         
  C:A351H         LINE#         1833
  C:A351H         LINE#         1834
  C:A351H         LINE#         1838
  C:A35AH         LINE#         1839
  C:A35DH         LINE#         1840
  C:A360H         LINE#         1841
  C:A360H         LINE#         1842
  C:A36AH         LINE#         1843
  C:A36AH         LINE#         1844
  C:A36CH         LINE#         1845
  C:A36EH         LINE#         1846
  C:A377H         LINE#         1847
BL51 BANKED LINKER/LOCATER V6.22.2.0                                                  08/02/2021  16:39:51  PAGE 127


  C:A377H         LINE#         1848
  C:A377H         LINE#         1850
  C:A379H         LINE#         1852
  C:A379H         LINE#         1853
  C:A37FH         LINE#         1854
  C:A37FH         LINE#         1856
  C:A385H         LINE#         1858
  C:A398H         LINE#         1859
  C:A398H         LINE#         1860
  C:A3A5H         LINE#         1861
  C:A3A5H         LINE#         1862
  C:A3A7H         LINE#         1863
  C:A3B0H         LINE#         1865
  C:A3B2H         LINE#         1866
  C:A3B7H         LINE#         1867
  C:A3BDH         LINE#         1869
  C:A3BFH         LINE#         1870
  C:A3CCH         LINE#         1871
  C:A3CCH         LINE#         1872
  C:A3D2H         LINE#         1873
  C:A3D2H         LINE#         1874
  C:A3D2H         LINE#         1876
  C:A3D4H         LINE#         1878
  C:A3D4H         LINE#         1879
  C:A3D6H         LINE#         1880
  C:A3DFH         LINE#         1881
  C:A3E1H         LINE#         1882
  C:A3E6H         LINE#         1883
  C:A3E6H         LINE#         1884
  C:A3E6H         LINE#         1886
  C:A3EBH         LINE#         1887
  -------         ENDPROC       ENTREGA_CARD_CAPTURA
  -------         PROC          _WAIT_PLACA
  X:0002H         SYMBOL        Atributos_Expedidor
  X:0005H         SYMBOL        Buffer_Write_MF
  -------         DO            
  X:0008H         SYMBOL        Estado_expedidor
  -------         ENDDO         
  C:9ACFH         LINE#         1888
  C:9ADAH         LINE#         1889
  C:9ADAH         LINE#         1892
  C:9AE3H         LINE#         1894
  C:9AF9H         LINE#         1895
  C:9AF9H         LINE#         1896
  C:9AFCH         LINE#         1897
  C:9AFCH         LINE#         1899
  C:9AFFH         LINE#         1900
  C:9AFFH         LINE#         1901
  C:9B01H         LINE#         1903
  C:9B04H         LINE#         1904
  C:9B04H         LINE#         1905
  C:9B2CH         LINE#         1906
  C:9B2EH         LINE#         1909
  C:9B2EH         LINE#         1910
  C:9B34H         LINE#         1911
  C:9B47H         LINE#         1912
  C:9B47H         LINE#         1913
BL51 BANKED LINKER/LOCATER V6.22.2.0                                                  08/02/2021  16:39:51  PAGE 128


  C:9B54H         LINE#         1914
  C:9B54H         LINE#         1915
  C:9B63H         LINE#         1916
  C:9B69H         LINE#         1917
  C:9B6BH         LINE#         1918
  C:9B78H         LINE#         1919
  C:9B78H         LINE#         1920
  C:9B7EH         LINE#         1921
  C:9B7EH         LINE#         1922
  C:9B7EH         LINE#         1923
  C:9B7EH         LINE#         1924
  C:9B83H         LINE#         1925
  -------         ENDPROC       _WAIT_PLACA
  -------         PROC          _VALIDA_VEHICULO_CARD_MENSUAL
  X:0010H         SYMBOL        Atributos_Expedidor
  -------         DO            
  X:0013H         SYMBOL        Estado_expedidor
  -------         ENDDO         
  C:A5B9H         LINE#         1926
  C:A5C4H         LINE#         1927
  C:A5C4H         LINE#         1930
  C:A5CDH         LINE#         1931
  C:A5E2H         LINE#         1932
  C:A5E2H         LINE#         1933
  C:A5E6H         LINE#         1934
  C:A5E8H         LINE#         1936
  C:A5E8H         LINE#         1937
  C:A5EFH         LINE#         1938
  C:A5EFH         LINE#         1940
  C:A5F8H         LINE#         1941
  C:A606H         LINE#         1942
  C:A606H         LINE#         1943
  C:A61FH         LINE#         1944
  C:A61FH         LINE#         1945
  C:A625H         LINE#         1946
  C:A625H         LINE#         1947
  C:A627H         LINE#         1950
  C:A627H         LINE#         1951
  C:A62CH         LINE#         1952
  C:A635H         LINE#         1953
  C:A63AH         LINE#         1954
  C:A63AH         LINE#         1955
  C:A63CH         LINE#         1957
  C:A63CH         LINE#         1958
  C:A645H         LINE#         1959
  C:A64BH         LINE#         1960
  C:A64BH         LINE#         1961
  C:A650H         LINE#         1962
  -------         ENDPROC       _VALIDA_VEHICULO_CARD_MENSUAL
  -------         PROC          _TARJETA_MENSUAL
  X:0009H         SYMBOL        Atributos_Expedidor
  X:000CH         SYMBOL        Buffer_Write_MF
  -------         DO            
  X:000FH         SYMBOL        Estado_expedidor
  -------         ENDDO         
  C:9363H         LINE#         1963
  C:936EH         LINE#         1964
BL51 BANKED LINKER/LOCATER V6.22.2.0                                                  08/02/2021  16:39:51  PAGE 129


  C:936EH         LINE#         1969
  C:9379H         LINE#         1970
  C:9379H         LINE#         1971
  C:9397H         LINE#         1972
  C:9397H         LINE#         1974
  C:93A8H         LINE#         1975
  C:93A8H         LINE#         1976
  C:93B0H         LINE#         1977
  C:93B2H         LINE#         1979
  C:93B2H         LINE#         1980
  C:93BBH         LINE#         1981
  C:93CBH         LINE#         1982
  C:93DEH         LINE#         1983
  C:93FEH         LINE#         1984
  C:9404H         LINE#         1985
  C:9404H         LINE#         1986
  C:9406H         LINE#         1988
  C:9406H         LINE#         1989
  C:940BH         LINE#         1991
  C:9410H         LINE#         1992
  C:9419H         LINE#         1993
  C:9419H         LINE#         1994
  C:9419H         LINE#         1995
  C:941BH         LINE#         1997
  C:941BH         LINE#         1999
  C:9421H         LINE#         2000
  C:9421H         LINE#         2001
  C:9426H         LINE#         2002
  -------         ENDPROC       _TARJETA_MENSUAL
  -------         PROC          _TARJETA_ROTACION
  D:0001H         SYMBOL        Atributos_Expedidor
  X:000CH         SYMBOL        Buffer_Write_MF
  C:C0D7H         LINE#         2003
  C:C0D7H         LINE#         2004
  C:C0D7H         LINE#         2005
  C:C0DCH         LINE#         2006
  C:C0E5H         LINE#         2007
  C:C105H         LINE#         2008
  C:C107H         LINE#         2011
  -------         ENDPROC       _TARJETA_ROTACION
  -------         PROC          _VALIDA_TIPO_TARJETA
  X:0002H         SYMBOL        Atributos_Expedidor
  X:0005H         SYMBOL        Buffer_Write_MF
  -------         DO            
  X:0008H         SYMBOL        Estado_expedidor
  -------         ENDDO         
  C:65EAH         LINE#         2012
  C:65F5H         LINE#         2013
  C:65F5H         LINE#         2015
  C:6602H         LINE#         2016
  C:6602H         LINE#         2017
  C:660BH         LINE#         2018
  C:6611H         LINE#         2019
  C:6611H         LINE#         2023
  C:661FH         LINE#         2024
  C:661FH         LINE#         2027
  C:663CH         LINE#         2028
BL51 BANKED LINKER/LOCATER V6.22.2.0                                                  08/02/2021  16:39:51  PAGE 130


  C:663CH         LINE#         2029
  C:6659H         LINE#         2031
  C:665BH         LINE#         2033
  C:665BH         LINE#         2034
  C:6664H         LINE#         2035
  C:6666H         LINE#         2036
  C:6666H         LINE#         2037
  C:6666H         LINE#         2038
  C:6669H         LINE#         2041
  C:6669H         LINE#         2042
  C:6672H         LINE#         2044
  C:6695H         LINE#         2045
  C:6695H         LINE#         2046
  C:6698H         LINE#         2048
  C:6698H         LINE#         2049
  C:669DH         LINE#         2050
  C:66A2H         LINE#         2051
  C:66A5H         LINE#         2052
  C:66A5H         LINE#         2053
  C:66A8H         LINE#         2054
  C:66C0H         LINE#         2055
  C:66C0H         LINE#         2057
  C:66C9H         LINE#         2058
  C:66CFH         LINE#         2059
  C:66CFH         LINE#         2060
  C:66DBH         LINE#         2061
  C:66DBH         LINE#         2062
  C:66F8H         LINE#         2064
  C:66F8H         LINE#         2065
  C:6718H         LINE#         2066
  C:671AH         LINE#         2068
  C:671AH         LINE#         2069
  C:6723H         LINE#         2070
  C:6728H         LINE#         2071
  C:672DH         LINE#         2072
  C:6730H         LINE#         2073
  C:6730H         LINE#         2074
  C:6732H         LINE#         2076
  C:6732H         LINE#         2077
  C:673BH         LINE#         2078
  C:675EH         LINE#         2079
  C:675EH         LINE#         2080
  C:6760H         LINE#         2082
  C:6760H         LINE#         2084
  C:6765H         LINE#         2085
  C:676AH         LINE#         2086
  C:6770H         LINE#         2087
  C:6770H         LINE#         2088
  C:6772H         LINE#         2090
  C:6772H         LINE#         2091
  C:677BH         LINE#         2092
  C:6780H         LINE#         2094
  C:6788H         LINE#         2095
  C:6788H         LINE#         2097
  C:678DH         LINE#         2098
  -------         ENDPROC       _VALIDA_TIPO_TARJETA
  -------         PROC          _HORARIOS
BL51 BANKED LINKER/LOCATER V6.22.2.0                                                  08/02/2021  16:39:51  PAGE 131


  X:0010H         SYMBOL        Atributos_Expedidor
  -------         DO            
  X:0013H         SYMBOL        Estado_Horario
  X:0014H         SYMBOL        Addr_horarios
  X:001FH         SYMBOL        dia_semana
  X:0020H         SYMBOL        EE_dia_semana
  X:0021H         SYMBOL        addr
  -------         ENDDO         
  C:7B82H         LINE#         2192
  C:7B8DH         LINE#         2193
  C:7B8DH         LINE#         2199
  C:7B98H         LINE#         2200
  C:7B98H         LINE#         2202
  C:7BA4H         LINE#         2204
  C:7BCAH         LINE#         2208
  C:7BDDH         LINE#         2209
  C:7BDDH         LINE#         2211
  C:7BE7H         LINE#         2212
  C:7BF0H         LINE#         2213
  C:7BF8H         LINE#         2214
  C:7C01H         LINE#         2217
  C:7C26H         LINE#         2218
  C:7C2FH         LINE#         2219
  C:7C37H         LINE#         2220
  C:7C40H         LINE#         2222
  C:7C4AH         LINE#         2223
  C:7C4AH         LINE#         2225
  C:7C58H         LINE#         2226
  C:7C5AH         LINE#         2228
  C:7C5AH         LINE#         2230
  C:7C63H         LINE#         2231
  C:7C68H         LINE#         2232
  C:7C68H         LINE#         2233
  C:7C6AH         LINE#         2235
  C:7C6AH         LINE#         2237
  C:7C6FH         LINE#         2238
  C:7C74H         LINE#         2239
  C:7C7AH         LINE#         2241
  C:7C7AH         LINE#         2243
  C:7C7CH         LINE#         2245
  C:7C7CH         LINE#         2246
  C:7C82H         LINE#         2248
  C:7C8BH         LINE#         2249
  C:7C8BH         LINE#         2250
  C:7C90H         LINE#         2251
  -------         ENDPROC       _HORARIOS
  -------         PROC          _HORA_MAXIMA
  X:002FH         SYMBOL        addr
  -------         DO            
  X:0031H         SYMBOL        Hora_High
  X:0032H         SYMBOL        Minuto_High
  X:0033H         SYMBOL        HoraIni
  X:0034H         SYMBOL        MinutoIni
  X:0035H         SYMBOL        Hora_Prog
  -------         ENDDO         
  C:9CE7H         LINE#         2252
  C:9CEFH         LINE#         2253
BL51 BANKED LINKER/LOCATER V6.22.2.0                                                  08/02/2021  16:39:51  PAGE 132


  C:9CEFH         LINE#         2258
  C:9D04H         LINE#         2259
  C:9D24H         LINE#         2260
  C:9D41H         LINE#         2261
  C:9D61H         LINE#         2262
  C:9D69H         LINE#         2263
  C:9D71H         LINE#         2264
  C:9D7AH         LINE#         2266
  C:9D92H         LINE#         2267
  -------         ENDPROC       _HORA_MAXIMA
  -------         PROC          _EN_HORARIO
  X:002AH         SYMBOL        HoraNow
  D:0004H         SYMBOL        Hora_Prog
  X:002CH         SYMBOL        addr
  -------         DO            
  X:002EH         SYMBOL        Estado_Horario
  -------         ENDDO         
  C:B249H         LINE#         2268
  C:B257H         LINE#         2269
  C:B257H         LINE#         2272
  C:B264H         LINE#         2273
  C:B264H         LINE#         2276
  C:B26DH         LINE#         2277
  C:B282H         LINE#         2280
  C:B291H         LINE#         2281
  C:B291H         LINE#         2283
  C:B298H         LINE#         2284
  C:B29EH         LINE#         2285
  C:B2A0H         LINE#         2287
  C:B2A0H         LINE#         2290
  C:B2A4H         LINE#         2291
  C:B2A4H         LINE#         2292
  C:B2A4H         LINE#         2294
  C:B2A6H         LINE#         2296
  C:B2A6H         LINE#         2299
  C:B2AFH         LINE#         2300
  C:B2B4H         LINE#         2302
  C:B2B4H         LINE#         2303
  C:B2B9H         LINE#         2304
  -------         ENDPROC       _EN_HORARIO
  -------         PROC          _BLOQUE_HORARIO
  X:0023H         SYMBOL        addr
  -------         DO            
  X:0025H         SYMBOL        Estado_Horario
  X:0026H         SYMBOL        HoraNow
  X:0028H         SYMBOL        Hora_Prog
  -------         ENDDO         
  C:867DH         LINE#         2306
  C:8685H         LINE#         2307
  C:8685H         LINE#         2313
  C:868EH         LINE#         2314
  C:8696H         LINE#         2315
  C:869EH         LINE#         2316
  C:86A7H         LINE#         2317
  C:86CEH         LINE#         2322
  C:86D7H         LINE#         2323
  C:86ECH         LINE#         2324
BL51 BANKED LINKER/LOCATER V6.22.2.0                                                  08/02/2021  16:39:51  PAGE 133


  C:8704H         LINE#         2325
  C:8706H         LINE#         2326
  C:8706H         LINE#         2329
  C:871EH         LINE#         2330
  C:871EH         LINE#         2331
  C:8727H         LINE#         2332
  C:8742H         LINE#         2333
  C:8760H         LINE#         2334
  C:8762H         LINE#         2336
  C:8762H         LINE#         2337
  C:8767H         LINE#         2338
  C:876CH         LINE#         2339
  C:8771H         LINE#         2340
  C:8771H         LINE#         2341
  C:8771H         LINE#         2343
  C:8778H         LINE#         2344
  -------         ENDPROC       _BLOQUE_HORARIO
  -------         PROC          SECUENCIA_INICIO_EXPEDIDOR
  -------         DO            
  X:0001H         SYMBOL        temp
  -------         ENDDO         
  C:6FDFH         LINE#         2353
  C:6FDFH         LINE#         2354
  C:6FDFH         LINE#         2356
  C:6FFFH         LINE#         2357
  C:6FFFH         LINE#         2358
  C:6FFFH         LINE#         2361
  C:7004H         LINE#         2362
  C:700AH         LINE#         2365
  C:700CH         LINE#         2366
  C:700CH         LINE#         2377
  C:700CH         LINE#         2379
  C:701AH         LINE#         2380
  C:701AH         LINE#         2381
  C:7026H         LINE#         2382
  C:7026H         LINE#         2383
  C:702CH         LINE#         2384
  C:702FH         LINE#         2385
  C:7037H         LINE#         2386
  C:7037H         LINE#         2387
  C:703EH         LINE#         2388
  C:7052H         LINE#         2389
  C:7052H         LINE#         2390
  C:7054H         LINE#         2392
  C:7054H         LINE#         2393
  C:705BH         LINE#         2394
  C:7061H         LINE#         2395
  C:7061H         LINE#         2396
  C:7064H         LINE#         2398
  C:7064H         LINE#         2399
  C:706DH         LINE#         2400
  C:7081H         LINE#         2401
  C:7087H         LINE#         2402
  C:7087H         LINE#         2403
  C:708AH         LINE#         2404
  C:708AH         LINE#         2410
  C:708AH         LINE#         2412
BL51 BANKED LINKER/LOCATER V6.22.2.0                                                  08/02/2021  16:39:51  PAGE 134


  C:708DH         LINE#         2413
  C:7093H         LINE#         2417
  C:7095H         LINE#         2418
  C:7095H         LINE#         2428
  C:7095H         LINE#         2430
  C:70A3H         LINE#         2431
  C:70A3H         LINE#         2432
  C:70AFH         LINE#         2433
  C:70AFH         LINE#         2434
  C:70B5H         LINE#         2435
  C:70B7H         LINE#         2436
  C:70BFH         LINE#         2437
  C:70BFH         LINE#         2438
  C:70C6H         LINE#         2439
  C:70DAH         LINE#         2440
  C:70DAH         LINE#         2441
  C:70DCH         LINE#         2443
  C:70DCH         LINE#         2444
  C:70E3H         LINE#         2445
  C:70E9H         LINE#         2446
  C:70E9H         LINE#         2447
  C:70EBH         LINE#         2449
  C:70EBH         LINE#         2450
  C:70F4H         LINE#         2451
  C:7108H         LINE#         2452
  C:710DH         LINE#         2453
  C:710DH         LINE#         2455
  C:710FH         LINE#         2456
  C:710FH         LINE#         2462
  C:710FH         LINE#         2464
  C:7115H         LINE#         2465
  C:7115H         LINE#         2468
  C:7115H         LINE#         2469
  C:711CH         LINE#         2470
  C:711CH         LINE#         2471
  C:711CH         LINE#         2472
  -------         ENDPROC       SECUENCIA_INICIO_EXPEDIDOR
  -------         PROC          _SECUENCIAEXPEDIDORMF
  X:0001H         SYMBOL        EstadoActivo
  -------         DO            
  X:010DH         SYMBOL        Buffer_Write_MF
  X:011EH         SYMBOL        Atributos_Expedidor
  X:0132H         SYMBOL        Secuencia_Expedidor
  X:0136H         SYMBOL        Nombre_Mensual
  -------         ENDDO         
  C:3C1FH         LINE#         2482
  C:3C24H         LINE#         2483
  C:3C24H         LINE#         2491
  C:3C87H         LINE#         2492
  C:3C87H         LINE#         2495
  C:3C87H         LINE#         2497
  C:3C97H         LINE#         2498
  C:3C97H         LINE#         2501
  C:3C99H         LINE#         2502
  C:3C9BH         LINE#         2503
  C:3CA0H         LINE#         2504
  C:3CA8H         LINE#         2505
BL51 BANKED LINKER/LOCATER V6.22.2.0                                                  08/02/2021  16:39:51  PAGE 135


  C:3CADH         LINE#         2506
  C:3CB0H         LINE#         2507
  C:3CB0H         LINE#         2508
  C:3CB6H         LINE#         2509
  C:3CB6H         LINE#         2510
  C:3CB9H         LINE#         2511
  C:3CB9H         LINE#         2512
  C:3CB9H         LINE#         2514
  C:3CBCH         LINE#         2515
  C:3CBCH         LINE#         2517
  C:3CC5H         LINE#         2518
  C:3CC8H         LINE#         2519
  C:3CC8H         LINE#         2520
  C:3CCDH         LINE#         2521
  C:3CEDH         LINE#         2522
  C:3CF0H         LINE#         2523
  C:3CF0H         LINE#         2524
  C:3CF5H         LINE#         2525
  C:3CFDH         LINE#         2526
  C:3D03H         LINE#         2527
  C:3D06H         LINE#         2528
  C:3D06H         LINE#         2529
  C:3D09H         LINE#         2530
  C:3D11H         LINE#         2531
  C:3D17H         LINE#         2532
  C:3D1AH         LINE#         2533
  C:3D1AH         LINE#         2534
  C:3D1DH         LINE#         2535
  C:3D42H         LINE#         2536
  C:3D48H         LINE#         2537
  C:3D4AH         LINE#         2538
  C:3D4DH         LINE#         2539
  C:3D4DH         LINE#         2540
  C:3D58H         LINE#         2541
  C:3D60H         LINE#         2542
  C:3D66H         LINE#         2543
  C:3D69H         LINE#         2544
  C:3D69H         LINE#         2545
  C:3D7AH         LINE#         2546
  C:3D82H         LINE#         2547
  C:3D88H         LINE#         2548
  C:3D8BH         LINE#         2549
  C:3D8BH         LINE#         2550
  C:3D90H         LINE#         2551
  C:3DAEH         LINE#         2552
  C:3DB1H         LINE#         2553
  C:3DB1H         LINE#         2554
  C:3DB6H         LINE#         2555
  C:3DD6H         LINE#         2556
  C:3DD9H         LINE#         2557
  C:3DD9H         LINE#         2558
  C:3DDEH         LINE#         2559
  C:3DE0H         LINE#         2560
  C:3DFEH         LINE#         2561
  C:3E01H         LINE#         2562
  C:3E01H         LINE#         2563
  C:3E06H         LINE#         2564
BL51 BANKED LINKER/LOCATER V6.22.2.0                                                  08/02/2021  16:39:51  PAGE 136


  C:3E26H         LINE#         2565
  C:3E29H         LINE#         2566
  C:3E29H         LINE#         2567
  C:3E3CH         LINE#         2568
  C:3E3CH         LINE#         2569
  C:3E41H         LINE#         2570
  C:3E49H         LINE#         2571
  C:3E4FH         LINE#         2572
  C:3E4FH         LINE#         2573
  C:3E52H         LINE#         2574
  C:3E52H         LINE#         2575
  C:3E65H         LINE#         2576
  C:3E65H         LINE#         2577
  C:3E6AH         LINE#         2578
  C:3E6DH         LINE#         2579
  C:3E6DH         LINE#         2580
  C:3E70H         LINE#         2581
  C:3E70H         LINE#         2582
  C:3E73H         LINE#         2583
  C:3E93H         LINE#         2584
  C:3E96H         LINE#         2585
  C:3E96H         LINE#         2586
  C:3E98H         LINE#         2587
  C:3E9BH         LINE#         2588
  C:3E9EH         LINE#         2589
  C:3E9EH         LINE#         2590
  C:3EA7H         LINE#         2591
  C:3EAAH         LINE#         2592
  C:3EAAH         LINE#         2593
  C:3EC1H         LINE#         2594
  C:3EC4H         LINE#         2595
  C:3EC4H         LINE#         2596
  C:3EC7H         LINE#         2597
  C:3ECFH         LINE#         2598
  C:3ED5H         LINE#         2599
  C:3ED8H         LINE#         2600
  C:3ED8H         LINE#         2601
  C:3EE1H         LINE#         2602
  C:3EE4H         LINE#         2603
  C:3EE4H         LINE#         2604
  C:3EE6H         LINE#         2605
  C:3EE9H         LINE#         2606
  C:3EECH         LINE#         2607
  C:3EECH         LINE#         2608
  C:3F03H         LINE#         2609
  C:3F06H         LINE#         2610
  C:3F06H         LINE#         2613
  C:3F0BH         LINE#         2614
  C:3F13H         LINE#         2615
  C:3F19H         LINE#         2617
  C:3F1CH         LINE#         2618
  C:3F1CH         LINE#         2619
  C:3F1FH         LINE#         2620
  C:3F3FH         LINE#         2621
  C:3F42H         LINE#         2622
  C:3F42H         LINE#         2623
  C:3F45H         LINE#         2624
BL51 BANKED LINKER/LOCATER V6.22.2.0                                                  08/02/2021  16:39:51  PAGE 137


  C:3F65H         LINE#         2625
  C:3F68H         LINE#         2626
  C:3F68H         LINE#         2627
  C:3F6BH         LINE#         2628
  C:3F73H         LINE#         2629
  C:3F76H         LINE#         2630
  C:3F78H         LINE#         2631
  C:3F78H         LINE#         2633
  C:3F83H         LINE#         2634
  C:3F8BH         LINE#         2635
  C:3F9FH         LINE#         2636
  C:3FA2H         LINE#         2640
  C:3FA2H         LINE#         2641
  C:3FA8H         LINE#         2642
  C:3FAEH         LINE#         2643
  C:3FAEH         LINE#         2644
  C:3FB6H         LINE#         2645
  C:3FBCH         LINE#         2647
  C:3FBFH         LINE#         2648
  C:3FC7H         LINE#         2649
  C:3FC7H         LINE#         2651
  C:3FCAH         LINE#         2652
  C:3FCDH         LINE#         2653
  C:3FD5H         LINE#         2654
  C:3FD5H         LINE#         2655
  C:3FE3H         LINE#         2656
  C:3FE3H         LINE#         2657
  C:3FECH         LINE#         2658
  C:3FEFH         LINE#         2659
  C:3FFBH         LINE#         2660
  C:3FFBH         LINE#         2661
  C:4004H         LINE#         2662
  C:4007H         LINE#         2664
  C:4007H         LINE#         2665
  C:4010H         LINE#         2666
  C:4010H         LINE#         2667
  C:4013H         LINE#         2668
  C:401BH         LINE#         2669
  C:401BH         LINE#         2670
  C:4029H         LINE#         2671
  C:4029H         LINE#         2672
  C:403FH         LINE#         2673
  C:4042H         LINE#         2674
  C:404EH         LINE#         2675
  C:404EH         LINE#         2676
  C:4057H         LINE#         2677
  C:405AH         LINE#         2678
  C:4068H         LINE#         2679
  C:4068H         LINE#         2680
  C:4071H         LINE#         2681
  C:4073H         LINE#         2683
  C:4073H         LINE#         2684
  C:407CH         LINE#         2685
  C:407CH         LINE#         2686
  C:407EH         LINE#         2687
  C:4086H         LINE#         2688
  C:4086H         LINE#         2689
BL51 BANKED LINKER/LOCATER V6.22.2.0                                                  08/02/2021  16:39:51  PAGE 138


  C:408FH         LINE#         2690
  C:4091H         LINE#         2691
  C:4099H         LINE#         2692
  C:4099H         LINE#         2693
  C:40AFH         LINE#         2694
  C:40B1H         LINE#         2695
  C:40B9H         LINE#         2696
  C:40B9H         LINE#         2697
  C:40BCH         LINE#         2698
  C:40BEH         LINE#         2700
  C:40C6H         LINE#         2701
  C:40C6H         LINE#         2702
  C:40CFH         LINE#         2703
  C:40D1H         LINE#         2706
  C:40D9H         LINE#         2707
  C:40D9H         LINE#         2708
  C:40E1H         LINE#         2709
  C:40E3H         LINE#         2711
  C:40E3H         LINE#         2712
  C:40ECH         LINE#         2713
  C:40ECH         LINE#         2714
  C:40EEH         LINE#         2715
  C:40EEH         LINE#         2716
  C:40F3H         LINE#         2717
  C:40F3H         LINE#         2719
  C:40F3H         LINE#         2720
  C:40F8H         LINE#         2721
  -------         ENDPROC       _SECUENCIAEXPEDIDORMF
  -------         ENDMOD        VERIFICADOR

  -------         MODULE        MONITOR
  C:0000H         SYMBOL        _ICE_DUMMY_
  D:0080H         PUBLIC        P0
  D:0090H         PUBLIC        P1
  I:0011H         PUBLIC        placa
  C:C255H         PUBLIC        Rx_Monitor
  B:0080H.0       PUBLIC        rx_ip
  B:0090H.7       PUBLIC        lock
  C:95ACH         PUBLIC        _recibe_cmd_Monitor
  C:C3BAH         PUBLIC        clear_placa
  C:98A5H         PUBLIC        _Valida_Trama_Monitor
  -------         PROC          _RECIBE_CMD_MONITOR
  X:0016H         SYMBOL        buffer_cmd
  -------         DO            
  X:0019H         SYMBOL        j
  X:001AH         SYMBOL        NumDatos
  X:001BH         SYMBOL        time_out
  X:001CH         SYMBOL        MaxChrRx
  X:001DH         SYMBOL        contador
  -------         ENDDO         
  C:95ACH         LINE#         50
  C:95B7H         LINE#         51
  C:95B7H         LINE#         55
  C:95BCH         LINE#         56
  C:95C2H         LINE#         58
  C:95CDH         LINE#         59
  C:95CDH         LINE#         60
BL51 BANKED LINKER/LOCATER V6.22.2.0                                                  08/02/2021  16:39:51  PAGE 139


  C:95DEH         LINE#         61
  C:95DEH         LINE#         62
  C:95E5H         LINE#         63
  C:95E9H         LINE#         64
  C:95F2H         LINE#         65
  C:95F2H         LINE#         66
  C:9600H         LINE#         67
  C:9617H         LINE#         68
  C:9617H         LINE#         69
  C:961DH         LINE#         70
  C:9623H         LINE#         71
  C:9623H         LINE#         72
  C:9625H         LINE#         73
  C:962DH         LINE#         74
  C:9633H         LINE#         75
  C:9645H         LINE#         76
  C:964FH         LINE#         77
  C:9658H         LINE#         79
  C:9667H         LINE#         82
  C:9667H         LINE#         83
  C:966CH         LINE#         84
  -------         ENDPROC       _RECIBE_CMD_MONITOR
  -------         PROC          _VALIDA_TRAMA_MONITOR
  X:0016H         SYMBOL        buffer
  D:0005H         SYMBOL        length_trama
  -------         DO            
  X:0019H         SYMBOL        j
  X:001AH         SYMBOL        p
  X:001BH         SYMBOL        cont
  -------         ENDDO         
  C:98A5H         LINE#         89
  C:98B0H         LINE#         90
  C:98B0H         LINE#         91
  C:98B3H         LINE#         92
  C:98B7H         LINE#         93
  C:98BAH         LINE#         94
  C:98BCH         LINE#         97
  C:98D0H         LINE#         98
  C:98D0H         LINE#         100
  C:98D2H         LINE#         102
  C:98D9H         LINE#         103
  C:98DEH         LINE#         106
  C:98DEH         LINE#         108
  C:98F9H         LINE#         109
  C:98F9H         LINE#         112
  C:98F9H         LINE#         113
  C:991AH         LINE#         114
  C:991EH         LINE#         115
  C:9924H         LINE#         116
  C:9936H         LINE#         117
  C:994EH         LINE#         118
  C:9957H         LINE#         119
  C:9959H         LINE#         120
  C:995FH         LINE#         123
  C:995FH         LINE#         126
  -------         ENDPROC       _VALIDA_TRAMA_MONITOR
  -------         PROC          CLEAR_PLACA
BL51 BANKED LINKER/LOCATER V6.22.2.0                                                  08/02/2021  16:39:51  PAGE 140


  -------         DO            
  D:0007H         SYMBOL        i
  -------         ENDDO         
  C:C3BAH         LINE#         127
  C:C3BAH         LINE#         128
  C:C3BAH         LINE#         130
  C:C3C6H         LINE#         131
  C:C3C6H         LINE#         132
  C:C3CCH         LINE#         133
  C:C3CFH         LINE#         134
  C:C3D1H         LINE#         135
  -------         ENDPROC       CLEAR_PLACA
  -------         PROC          RX_MONITOR
  -------         DO            
  X:0009H         SYMBOL        Length_trama
  X:000AH         SYMBOL        buffer1
  -------         ENDDO         
  C:C255H         LINE#         136
  C:C255H         LINE#         137
  C:C255H         LINE#         140
  C:C264H         LINE#         141
  C:C26DH         LINE#         142
  -------         ENDPROC       RX_MONITOR
  -------         ENDMOD        MONITOR

  -------         MODULE        ?C?FPADD
  C:1448H         PUBLIC        ?C?FPADD
  C:1444H         PUBLIC        ?C?FPSUB
  -------         ENDMOD        ?C?FPADD

  -------         MODULE        ?C?FPMUL
  C:1539H         PUBLIC        ?C?FPMUL
  -------         ENDMOD        ?C?FPMUL

  -------         MODULE        ?C?FCAST
  C:1649H         PUBLIC        ?C?FCASTC
  C:1644H         PUBLIC        ?C?FCASTI
  C:163FH         PUBLIC        ?C?FCASTL
  -------         ENDMOD        ?C?FCAST

  -------         MODULE        ?C?CASTF
  C:167DH         PUBLIC        ?C?CASTF
  -------         ENDMOD        ?C?CASTF

  -------         MODULE        PRINTF
  X:0077H         PUBLIC        ?_PRINTF?BYTE
  X:0077H         PUBLIC        ?_SPRINTF?BYTE
  C:4164H         PUBLIC        _PRINTF
  C:415EH         PUBLIC        _SPRINTF
  -------         ENDMOD        PRINTF

  -------         MODULE        POW
  X:0020H         PUBLIC        ?_pow?BYTE
  C:6A9FH         PUBLIC        _pow
  -------         ENDMOD        POW

  -------         MODULE        ?C?CHKFLOAT
BL51 BANKED LINKER/LOCATER V6.22.2.0                                                  08/02/2021  16:39:51  PAGE 141


  C:16FEH         PUBLIC        ?C?CHKFLOAT
  -------         ENDMOD        ?C?CHKFLOAT

  -------         MODULE        ?C?FPCMP
  C:171AH         PUBLIC        ?C?FPCMP
  C:1718H         PUBLIC        ?C?FPCMP3
  -------         ENDMOD        ?C?FPCMP

  -------         MODULE        ?C?FPNEG
  C:1791H         PUBLIC        ?C?FPNEG
  -------         ENDMOD        ?C?FPNEG

  -------         MODULE        ?C?FPROUND
  C:17A2H         PUBLIC        ?C?FPROUND
  -------         ENDMOD        ?C?FPROUND

  -------         MODULE        ?C?FPCONVERT
  C:17DFH         PUBLIC        ?C?FPCONVERT
  -------         ENDMOD        ?C?FPCONVERT

  -------         MODULE        EXP
  C:A4BEH         PUBLIC        _EXP
  -------         ENDMOD        EXP

  -------         MODULE        LOG
  C:761DH         PUBLIC        _LOG
  C:7619H         PUBLIC        _LOG10
  -------         ENDMOD        LOG

  -------         MODULE        ?C?FPDIV
  C:18E7H         PUBLIC        ?C?FPDIV
  -------         ENDMOD        ?C?FPDIV

  -------         MODULE        ?C?FTNPWR
  C:19B4H         PUBLIC        ?C?FTNPWR
  -------         ENDMOD        ?C?FTNPWR

  -------         MODULE        ?C?COPY
  C:1B11H         PUBLIC        ?C?COPY
  -------         ENDMOD        ?C?COPY

  -------         MODULE        ?C?CLDPTR
  C:1B37H         PUBLIC        ?C?CLDPTR
  -------         ENDMOD        ?C?CLDPTR

  -------         MODULE        ?C?CLDOPTR
  C:1B50H         PUBLIC        ?C?CLDOPTR
  -------         ENDMOD        ?C?CLDOPTR

  -------         MODULE        ?C?CSTPTR
  C:1B7DH         PUBLIC        ?C?CSTPTR
  -------         ENDMOD        ?C?CSTPTR

  -------         MODULE        ?C?CSTOPTR
  C:1B8FH         PUBLIC        ?C?CSTOPTR
  -------         ENDMOD        ?C?CSTOPTR

BL51 BANKED LINKER/LOCATER V6.22.2.0                                                  08/02/2021  16:39:51  PAGE 142


  -------         MODULE        ?C?IMUL
  C:1BB1H         PUBLIC        ?C?IMUL
  -------         ENDMOD        ?C?IMUL

  -------         MODULE        ?C?IILDX
  C:1BC3H         PUBLIC        ?C?IILDX
  -------         ENDMOD        ?C?IILDX

  -------         MODULE        ?C?LNEG
  C:1BD9H         PUBLIC        ?C?LNEG
  -------         ENDMOD        ?C?LNEG

  -------         MODULE        ?C?SLCMP
  C:1BE7H         PUBLIC        ?C?SLCMP
  -------         ENDMOD        ?C?SLCMP

  -------         MODULE        ?C?ULCMP
  C:1BFDH         PUBLIC        ?C?ULCMP
  -------         ENDMOD        ?C?ULCMP

  -------         MODULE        ?C?ULSHR
  C:1C0EH         PUBLIC        ?C?ULSHR
  -------         ENDMOD        ?C?ULSHR

  -------         MODULE        ?C?LSHL
  C:1C21H         PUBLIC        ?C?LSHL
  -------         ENDMOD        ?C?LSHL

  -------         MODULE        ?C?LLDCODE
  C:1C34H         PUBLIC        ?C?LLDCODE
  -------         ENDMOD        ?C?LLDCODE

  -------         MODULE        ?C?LLDXDATA0
  C:1C44H         PUBLIC        ?C?LLDXDATA0
  -------         ENDMOD        ?C?LLDXDATA0

  -------         MODULE        ?C?LLDCODE0
  C:1C50H         PUBLIC        ?C?LLDCODE0
  -------         ENDMOD        ?C?LLDCODE0

  -------         MODULE        ?C?LSTXDATA
  C:1C60H         PUBLIC        ?C?LSTXDATA
  -------         ENDMOD        ?C?LSTXDATA

  -------         MODULE        ?C?LSTKXDATA
  C:1C6CH         PUBLIC        ?C?LSTKXDATA
  -------         ENDMOD        ?C?LSTKXDATA

  -------         MODULE        ?C?PLDIXDATA
  C:1C9DH         PUBLIC        ?C?PLDIXDATA
  -------         ENDMOD        ?C?PLDIXDATA

  -------         MODULE        ?C?PSTXDATA
  C:1CB4H         PUBLIC        ?C?PSTXDATA
  -------         ENDMOD        ?C?PSTXDATA

  -------         MODULE        ?C?CCASE
BL51 BANKED LINKER/LOCATER V6.22.2.0                                                  08/02/2021  16:39:51  PAGE 143


  C:1CBDH         PUBLIC        ?C?CCASE
  -------         ENDMOD        ?C?CCASE

  -------         MODULE        STRCAT
  X:0046H         PUBLIC        ?_strcat?BYTE
  C:B405H         PUBLIC        _strcat
  -------         ENDMOD        STRCAT

  -------         MODULE        ?C?STRCMP
  C:1E61H         PUBLIC        ?C?STRCMP
  -------         ENDMOD        ?C?STRCMP

  -------         MODULE        ?C?STRCPY
  C:1F4AH         PUBLIC        ?C?STRCPY
  -------         ENDMOD        ?C?STRCPY

  -------         MODULE        STRLEN
  C:000EH         PUBLIC        _STRLEN
  -------         ENDMOD        STRLEN

  -------         MODULE        STRTOK
  X:0064H         PUBLIC        ?_strtok?BYTE
  C:8A44H         PUBLIC        _strtok
  -------         ENDMOD        STRTOK

  -------         MODULE        ATOL
  C:7C91H         PUBLIC        _atol
  -------         ENDMOD        ATOL

  -------         MODULE        ATOI
  C:8CE2H         PUBLIC        _atoi
  -------         ENDMOD        ATOI

  -------         MODULE        ?C?ILDIX
  C:1F67H         PUBLIC        ?C?ILDIX
  -------         ENDMOD        ?C?ILDIX

  -------         MODULE        ?C?LMUL
  C:1F7DH         PUBLIC        ?C?LMUL
  -------         ENDMOD        ?C?LMUL

  -------         MODULE        ISDIGIT
  C:C4CAH         PUBLIC        _isdigit
  -------         ENDMOD        ISDIGIT

  -------         MODULE        ISSPACE
  C:C42AH         PUBLIC        _isspace
  -------         ENDMOD        ISSPACE

  -------         MODULE        STRSPN
  X:006AH         PUBLIC        ?_strspn?BYTE
  C:ACDEH         PUBLIC        _strspn
  -------         ENDMOD        STRSPN

  -------         MODULE        STRPBRK
  X:006AH         PUBLIC        ?_strpbrk?BYTE
  C:ADE5H         PUBLIC        _strpbrk
BL51 BANKED LINKER/LOCATER V6.22.2.0                                                  08/02/2021  16:39:51  PAGE 144


  -------         ENDMOD        STRPBRK

Program Size: data=99.1 xdata=541 code=50519
LINK/LOCATE RUN COMPLETE.  0 WARNING(S),  0 ERROR(S)
