BL51 BANKED LINKER/LOCATER V6.22.2.0                                                    09/15/2020  15:49:49  PAGE 1


BL51 BANKED LINKER/LOCATER V6.22.2.0, INVOKED BY:
C:\KEIL_V5\C51\BIN\BL51.EXE .\Objects\main.obj, .\Objects\Accescan.obj, .\Objects\Clock.obj, .\Objects\delay.obj, .\Obje
>> cts\eeprom.obj, .\Objects\io_sensores.obj, .\Objects\pantallas.obj, .\Objects\prog.obj, .\Objects\pto_paralelo.obj, .
>> \Objects\tibbo.obj, .\Objects\uart.obj, .\Objects\lintech.obj, .\Objects\verificador.obj, .\Objects\Monitor.obj TO .\
>> Objects\expedidor_v_01_raspberry PRINT (.\Listings\expedidor_v_01_raspberry.m51) RAMSIZE (256)


MEMORY MODEL: LARGE WITH FLOATING POINT ARITHMETIC


INPUT MODULES INCLUDED:
  .\Objects\main.obj (MAIN)
  .\Objects\Accescan.obj (ACCESCAN)
  .\Objects\Clock.obj (CLOCK)
  .\Objects\delay.obj (DELAY)
  .\Objects\eeprom.obj (EEPROM)
  .\Objects\io_sensores.obj (IO_SENSORES)
  .\Objects\pantallas.obj (PANTALLAS)
  .\Objects\prog.obj (PROG)
  .\Objects\pto_paralelo.obj (PTO_PARALELO)
  .\Objects\tibbo.obj (TIBBO)
  .\Objects\uart.obj (UART)
  .\Objects\lintech.obj (LINTECH)
  .\Objects\verificador.obj (VERIFICADOR)
  .\Objects\Monitor.obj (MONITOR)
  C:\KEIL_V5\C51\LIB\C51FPL.LIB (?C?FPADD)
  C:\KEIL_V5\C51\LIB\C51FPL.LIB (?C?FPMUL)
  C:\KEIL_V5\C51\LIB\C51FPL.LIB (?C?FCAST)
  C:\KEIL_V5\C51\LIB\C51FPL.LIB (?C?CASTF)
  C:\KEIL_V5\C51\LIB\C51FPL.LIB (PRINTF)
  C:\KEIL_V5\C51\LIB\C51FPL.LIB (POW)
  C:\KEIL_V5\C51\LIB\C51FPL.LIB (?C?FPGETOPN)
  C:\KEIL_V5\C51\LIB\C51FPL.LIB (?C?CHKFLOAT)
  C:\KEIL_V5\C51\LIB\C51FPL.LIB (?C?FPCMP)
  C:\KEIL_V5\C51\LIB\C51FPL.LIB (?C?FPNEG)
  C:\KEIL_V5\C51\LIB\C51FPL.LIB (?C?FPROUND)
  C:\KEIL_V5\C51\LIB\C51FPL.LIB (?C?FPCONVERT)
  C:\KEIL_V5\C51\LIB\C51FPL.LIB (EXP)
  C:\KEIL_V5\C51\LIB\C51FPL.LIB (LOG)
  C:\KEIL_V5\C51\LIB\C51FPL.LIB (?C?FPDIV)
  C:\KEIL_V5\C51\LIB\C51FPL.LIB (?C?FTNPWR)
  C:\KEIL_V5\C51\LIB\C51FPL.LIB (?C?FPSERIES)
  C:\KEIL_V5\C51\LIB\C51L.LIB (?C_STARTUP)
  C:\KEIL_V5\C51\LIB\C51L.LIB (?C?COPY)
  C:\KEIL_V5\C51\LIB\C51L.LIB (?C?CLDPTR)
  C:\KEIL_V5\C51\LIB\C51L.LIB (?C?CLDOPTR)
  C:\KEIL_V5\C51\LIB\C51L.LIB (?C?CSTPTR)
  C:\KEIL_V5\C51\LIB\C51L.LIB (?C?CSTOPTR)
  C:\KEIL_V5\C51\LIB\C51L.LIB (?C?IMUL)
  C:\KEIL_V5\C51\LIB\C51L.LIB (?C?IILDX)
  C:\KEIL_V5\C51\LIB\C51L.LIB (?C?LNEG)
  C:\KEIL_V5\C51\LIB\C51L.LIB (?C?SLCMP)
  C:\KEIL_V5\C51\LIB\C51L.LIB (?C?ULCMP)
  C:\KEIL_V5\C51\LIB\C51L.LIB (?C?ULSHR)
  C:\KEIL_V5\C51\LIB\C51L.LIB (?C?LSHL)
  C:\KEIL_V5\C51\LIB\C51L.LIB (?C?LLDCODE)
  C:\KEIL_V5\C51\LIB\C51L.LIB (?C?LLDXDATA0)
  C:\KEIL_V5\C51\LIB\C51L.LIB (?C?LLDCODE0)
BL51 BANKED LINKER/LOCATER V6.22.2.0                                                  09/15/2020  15:49:49  PAGE 2


  C:\KEIL_V5\C51\LIB\C51L.LIB (?C?LSTXDATA)
  C:\KEIL_V5\C51\LIB\C51L.LIB (?C?LSTKXDATA)
  C:\KEIL_V5\C51\LIB\C51L.LIB (?C?PLDIXDATA)
  C:\KEIL_V5\C51\LIB\C51L.LIB (?C?PSTXDATA)
  C:\KEIL_V5\C51\LIB\C51L.LIB (?C?CCASE)
  C:\KEIL_V5\C51\LIB\C51L.LIB (STRCAT)
  C:\KEIL_V5\C51\LIB\C51L.LIB (?C?STRCMP)
  C:\KEIL_V5\C51\LIB\C51L.LIB (?C?STRCPY)
  C:\KEIL_V5\C51\LIB\C51L.LIB (STRLEN)
  C:\KEIL_V5\C51\LIB\C51L.LIB (STRTOK)
  C:\KEIL_V5\C51\LIB\C51L.LIB (ATOL)
  C:\KEIL_V5\C51\LIB\C51L.LIB (ATOI)
  C:\KEIL_V5\C51\LIB\C51L.LIB (?C_INIT)
  C:\KEIL_V5\C51\LIB\C51L.LIB (?C?ILDIX)
  C:\KEIL_V5\C51\LIB\C51L.LIB (?C?LMUL)
  C:\KEIL_V5\C51\LIB\C51L.LIB (ISDIGIT)
  C:\KEIL_V5\C51\LIB\C51L.LIB (ISSPACE)
  C:\KEIL_V5\C51\LIB\C51L.LIB (STRSPN)
  C:\KEIL_V5\C51\LIB\C51L.LIB (STRPBRK)


LINK MAP OF MODULE:  .\Objects\expedidor_v_01_raspberry (MAIN)


            TYPE    BASE      LENGTH    RELOCATION   SEGMENT NAME
            -----------------------------------------------------

            * * * * * * *   D A T A   M E M O R Y   * * * * * * *
            REG     0000H     0008H     ABSOLUTE     "REG BANK 0"
            DATA    0008H     0005H     UNIT         _DATA_GROUP_
            DATA    000DH     0004H     UNIT         ?DT?UART
            IDATA   0011H     0009H     UNIT         ?ID?MONITOR
                    001AH     0006H                  *** GAP ***
            BIT     0020H.0   0001H.1   UNIT         _BIT_GROUP_
            BIT     0021H.1   0000H.2   UNIT         ?BI?MAIN
            BIT     0021H.3   0000H.2   UNIT         ?BI?UART
            BIT     0021H.5   0000H.1   UNIT         ?BI?EEPROM
            BIT     0021H.6   0000H.1   UNIT         ?BI?VERIFICADOR
                    0021H.7   0000H.1                *** GAP ***
            IDATA   0022H     0046H     UNIT         ?ID?MAIN
            IDATA   0068H     0028H     UNIT         ?ID?PANTALLAS
            IDATA   0090H     0001H     UNIT         ?STACK

            * * * * * * *  X D A T A   M E M O R Y  * * * * * * *
            XDATA   0000H     00B8H     UNIT         _XDATA_GROUP_
            XDATA   00B8H     008AH     UNIT         ?XD?VERIFICADOR
            XDATA   0142H     006BH     UNIT         ?XD?MAIN
            XDATA   01ADH     0059H     UNIT         ?XD?PROG
            XDATA   0206H     0003H     UNIT         ?XD?EEPROM
            XDATA   0209H     0003H     UNIT         ?XD?UART
            XDATA   020CH     0003H     UNIT         ?XD?STRTOK
            XDATA   020FH     0001H     UNIT         ?XD?ACCESCAN
            XDATA   0210H     0001H     UNIT         ?XD?CLOCK
            XDATA   0211H     0001H     UNIT         ?XD?IO_SENSORES

            * * * * * * *   C O D E   M E M O R Y   * * * * * * *
            CODE    0000H     0003H     ABSOLUTE     
BL51 BANKED LINKER/LOCATER V6.22.2.0                                                  09/15/2020  15:49:49  PAGE 3


            CODE    0003H     0008H     UNIT         ?PR?P_CK?CLOCK
            CODE    000BH     0003H     ABSOLUTE     
            CODE    000EH     0015H     UNIT         ?PR?_STRLEN?STRLEN
            CODE    0023H     0003H     ABSOLUTE     
            CODE    0026H     1308H     UNIT         ?CO?PROG
            CODE    132EH     0B8BH     UNIT         ?C?LIB_CODE
            CODE    1EB9H     072CH     UNIT         ?CO?VERIFICADOR
            CODE    25E5H     06BFH     UNIT         ?CO?PANTALLAS
            CODE    2CA4H     05D9H     UNIT         ?PR?_PANTALLALCD?PANTALLAS
            CODE    327DH     0483H     UNIT         ?PR?PRINTF?PRINTF
            CODE    3700H     0435H     UNIT         ?PR?_SECUENCIAEXPEDIDORMF?VERIFICADOR
            CODE    3B35H     035CH     UNIT         ?PR?VER_PROG?PROG
            CODE    3E91H     033EH     UNIT         ?PR?_VALIDA_TRAMA_PTO?ACCESCAN
            CODE    41CFH     02D0H     UNIT         ?PR?_TWO_BYTEHEX_DECIMAL?CLOCK
            CODE    449FH     02B7H     UNIT         ?PR?_PROG_HORARIO_DIAS?PROG
            CODE    4756H     022CH     UNIT         ?PR?MENU?PROG
            CODE    4982H     021EH     UNIT         ?PR?_PANTALLALCD_LINEA_2?PANTALLAS
            CODE    4BA0H     0208H     UNIT         ?PR?_HASH_ID?PROG
            CODE    4DA8H     01FAH     UNIT         ?PR?_PROG_HORARIO_DESDE_HASTA?PROG
            CODE    4FA2H     01F5H     UNIT         ?PR?PROG_FECHA_VENCIMIENTO?PROG
            CODE    5197H     01DFH     UNIT         ?PR?_RESPONDE_LECTURA_TARJETA_SECTOR1_BLOQUE1?VERIFICADOR
            CODE    5376H     01B3H     UNIT         ?PR?COM_ISR?UART
            CODE    5529H     01A9H     UNIT         ?PR?_ARMAR_TRAMA_PTO_PARALELO_EXPEDIDOR?VERIFICADOR
            CODE    56D2H     01A1H     UNIT         ?PR?_VALIDA_TIPO_TARJETA?VERIFICADOR
            CODE    5873H     017AH     UNIT         ?CO?LINTECH
            CODE    59EDH     016EH     UNIT         ?PR?_BLOCK_READ_CLOCK_ASCII?CLOCK
            CODE    5B5BH     0166H     UNIT         ?PR?_POW?POW
            CODE    5CC1H     0154H     UNIT         ?PR?_ARMAR_TRAMA_MONITOR?VERIFICADOR
            CODE    5E15H     0145H     UNIT         ?PR?PROG_HORARIOS?PROG
            CODE    5F5AH     0142H     UNIT         ?PR?_ARMAR_TRAMA_TARJETA_SECTOR1_BLOQUE2?VERIFICADOR
            CODE    609CH     013EH     UNIT         ?PR?PROG_SIN_COBRO?PROG
            CODE    61DAH     013EH     UNIT         ?PR?SECUENCIA_INICIO_EXPEDIDOR?VERIFICADOR
            CODE    6318H     0137H     UNIT         ?PR?VER_HORARIO?PROG
            CODE    644FH     012BH     UNIT         ?PR?_RESPONDE_LECTURA_TARJETA_SECTOR1_BLOQUE2?VERIFICADOR
            CODE    657AH     0129H     UNIT         ?PR?LOG?LOG
            CODE    66A3H     0128H     UNIT         ?PR?_VER_HORARIO_DIAS?PROG
            CODE    67CBH     011CH     UNIT         ?PR?LOAD_AND_SEND_ID_COD?PTO_PARALELO
            CODE    68E7H     011AH     UNIT         ?PR?_PROG_HORARIOS_ON_OFF?PROG
            CODE    6A01H     0119H     UNIT         ?PR?_VER_HORARIO_DESDE_HASTA?PROG
            CODE    6B1AH     0115H     UNIT         ?PR?_VALIDAR_CLK?CLOCK
            CODE    6C2FH     010FH     UNIT         ?PR?_HORARIOS?VERIFICADOR
            CODE    6D3EH     010CH     UNIT         ?PR?_ATOL?ATOL
            CODE    6E4AH     0103H     UNIT         ?PR?_BLOQUE_HORARIO?VERIFICADOR
            CODE    6F4DH     0100H     UNIT         ?PR?_WR_MF?LINTECH
            CODE    704DH     00FCH     UNIT         ?PR?PROG_DEBUG?PROG
            CODE    7149H     00FCH     UNIT         ?PR?PROG_USE_LPR?PROG
            CODE    7245H     00FCH     UNIT         ?PR?TIPO_PANTALLA?PROG
            CODE    7341H     00FCH     UNIT         ?PR?PROG_ANTIPASSBACK?PROG
            CODE    743DH     00FCH     UNIT         ?PR?PROG_PLACA?PROG
            CODE    7539H     00FCH     UNIT         ?PR?PROG_VALIDAR_TIPO_VEHICULO_MENSUAL?PROG
            CODE    7635H     00FCH     UNIT         ?PR?PROG_APB_MENSUAL?PROG
            CODE    7731H     00F1H     UNIT         ?PR?_WRITE_EEPROM_TICKET?EEPROM
            CODE    7822H     00EAH     UNIT         ?PR?_MOV_CARD?LINTECH
            CODE    790CH     00E4H     UNIT         ?PR?_STRTOK?STRTOK
            CODE    79F0H     00DEH     UNIT         ?PR?PROG_ADDRESS_HIGH_BOARD?PROG
            CODE    7ACEH     00DBH     UNIT         ?PR?_ATOI?ATOI
            CODE    7BA9H     00D7H     UNIT         ?PR?_ANALIZA_UID_CARD?VERIFICADOR
BL51 BANKED LINKER/LOCATER V6.22.2.0                                                  09/15/2020  15:49:49  PAGE 4


            CODE    7C80H     00D6H     UNIT         ?PR?_CMD_LPR_SALIDA_WIEGAND?ACCESCAN
            CODE    7D56H     00D1H     UNIT         ?PR?_ARMAR_TRAMA_PTO_PARALELO_EXPEDIDOR_MENSUAL?VERIFICADOR
            CODE    7E27H     00CCH     UNIT         ?PR?_GRABA_SERIE?EEPROM
            CODE    7EF3H     00CBH     UNIT         ?PR?_RTA_CMD_TRANSPORTE?VERIFICADOR
            CODE    7FBEH     00CAH     UNIT         ?PR?READ_EEPROM_TICKET?EEPROM
            CODE    8088H     00C9H     UNIT         ?PR?_CHECK_FECHAOUT?CLOCK
            CODE    8151H     00C4H     UNIT         ?PR?_BLOCK_READ_CLOCK?CLOCK
            CODE    8215H     00C4H     UNIT         ?PR?_TARJETA_MENSUAL?VERIFICADOR
            CODE    82D9H     00C3H     UNIT         ?PR?_RD_MF?LINTECH
            CODE    839CH     00C2H     UNIT         ?PR?PROG_TARJETA_AUTOMATICA_O_BOTON?PROG
            CODE    845EH     00C1H     UNIT         ?PR?_RECIBE_CMD_MONITOR?MONITOR
            CODE    851FH     00BFH     UNIT         ?C_INITSEG
            CODE    85DEH     00BEH     UNIT         ?PR?ERROR_RX_PTO?VERIFICADOR
            CODE    869CH     00BDH     UNIT         ?PR?PROG_COD_PARK?PROG
            CODE    8759H     00BDH     UNIT         ?PR?PROG_TIEMPO_GRACIA?PROG
            CODE    8816H     00BAH     UNIT         ?CO?TIBBO
            CODE    88D0H     00B6H     UNIT         ?PR?PROG_ID_CLIENTE?PROG
            CODE    8986H     00B4H     UNIT         ?PR?_SEND_PORT?PTO_PARALELO
            CODE    8A3AH     00ADH     UNIT         ?CO?IO_SENSORES
            CODE    8AE7H     00ACH     UNIT         ?PR?_HORA_MAXIMA?VERIFICADOR
            CODE    8B93H     00AAH     UNIT         ?PR?CLAVE_SEGURIDAD_S2?LINTECH
            CODE    8C3DH     00A9H     UNIT         ?PR?DWLOAD_EEPROM?LINTECH
            CODE    8CE6H     00A6H     UNIT         ?PR?_BLOCK_READ_CLOCK_HEX?CLOCK
            CODE    8D8CH     00A3H     UNIT         ?PR?_WAIT_PLACA?VERIFICADOR
            CODE    8E2FH     009DH     UNIT         ?PR?_INICIALIZA?LINTECH
            CODE    8ECCH     009AH     UNIT         ?PR?_RESPONDE_LECTURA_TARJETA_SECTOR1_BLOQUE0?VERIFICADOR
            CODE    8F66H     009AH     UNIT         ?PR?EXP?EXP
            CODE    9000H     0099H     UNIT         ?PR?SHOW?PROG
            CODE    9099H     0099H     UNIT         ?PR?_RECIBE_PORT?PTO_PARALELO
            CODE    9132H     0098H     UNIT         ?PR?_VALIDA_VEHICULO_CARD_MENSUAL?VERIFICADOR
            CODE    91CAH     0095H     UNIT         ?PR?_VALIDA_TRAMA_MONITOR?MONITOR
            CODE    925FH     0091H     UNIT         ?PR?_HEX_ASCII?CLOCK
            CODE    92F0H     0091H     UNIT         ?PR?_CARD_INSERCION?LINTECH
            CODE    9381H     0091H     UNIT         ?PR?LOADVERIFY_EEPROM?LINTECH
            CODE    9412H     0090H     UNIT         ?PR?_LEE_CLK?CLOCK
            CODE    94A2H     0090H     UNIT         ?PR?_GETOPTION?PROG
            CODE    9532H     008FH     UNIT         ?PR?_BLOCK_WRITE_CLOCK_ASCII?CLOCK
            CODE    95C1H     008FH     UNIT         ?PR?_RESPONDE_WRITE_TARJETA_SECTOR1_BLOQUE2?VERIFICADOR
            CODE    9650H     008CH     UNIT         ?C_C51STARTUP
            CODE    96DCH     0088H     UNIT         ?PR?_SEND_PORTERR?PTO_PARALELO
            CODE    9764H     0088H     UNIT         ?PR?RX_DATA?TIBBO
            CODE    97ECH     0088H     UNIT         ?PR?UNIQUE_IDENTIFIER_UID?LINTECH
            CODE    9874H     0084H     UNIT         ?PR?_STRSPN?STRSPN
            CODE    98F8H     0082H     UNIT         ?PR?_SEND_PTO_PARALELO?VERIFICADOR
            CODE    997AH     0081H     UNIT         ?PR?MAIN?MAIN
            CODE    99FBH     0081H     UNIT         ?PR?_STRPBRK?STRPBRK
            CODE    9A7CH     0080H     UNIT         ?PR?MSJ_LCD_INFORMATIVO?IO_SENSORES
            CODE    9AFCH     0080H     UNIT         ?PR?_INGRESADATO?PROG
            CODE    9B7CH     0080H     UNIT         ?PR?AUT_CARD_CHECK_STATUS?LINTECH
            CODE    9BFCH     0080H     UNIT         ?PR?POWER_OFF?LINTECH
            CODE    9C7CH     007CH     UNIT         ?PR?_CHECK_STATUS?LINTECH
            CODE    9CF8H     007CH     UNIT         ?PR?RESPONDE_ESTADO_SENSORES_TRANSPORTE?VERIFICADOR
            CODE    9D74H     0079H     UNIT         ?PR?ENTREGA_CARD_CAPTURA?VERIFICADOR
            CODE    9DEDH     0073H     UNIT         ?PR?_DEBUGBUFFERMF?TIBBO
            CODE    9E60H     0071H     UNIT         ?PR?RESPONDE_TIPO_TARJETA?VERIFICADOR
            CODE    9ED1H     0071H     UNIT         ?PR?_EN_HORARIO?VERIFICADOR
            CODE    9F42H     006FH     UNIT         ?PR?_ESCRIBIRMEMORIA?EEPROM
BL51 BANKED LINKER/LOCATER V6.22.2.0                                                  09/15/2020  15:49:49  PAGE 5


            CODE    9FB1H     006BH     UNIT         ?PR?_STRCAT?STRCAT
            CODE    A01CH     0066H     UNIT         ?PR?_LEERMEMORIA?EEPROM
            CODE    A082H     0066H     UNIT         ?PR?_DISPARO_LOCK_ENTRADA_VEHICULO?VERIFICADOR
            CODE    A0E8H     0062H     UNIT         ?PR?_LISTACOMANDOS?PROG
            CODE    A14AH     0061H     UNIT         ?PR?_PREGUNTA_LPR?VERIFICADOR
            CODE    A1ABH     005EH     UNIT         ?PR?_BYTEHEX_DECIMAL?CLOCK
            CODE    A209H     005DH     UNIT         ?PR?_RESPUESTA_SEGUNDA_CLAVE?VERIFICADOR
            CODE    A266H     005AH     UNIT         ?PR?RASPBERRY_DATA1?PANTALLAS
            CODE    A2C0H     0059H     UNIT         ?PR?INGRESO_VEHICULO?VERIFICADOR
            CODE    A319H     0058H     UNIT         ?PR?VALIDA_SENSOR1_AUTO?IO_SENSORES
            CODE    A371H     0058H     UNIT         ?PR?_ARMAR_TRAMA_PLACA?VERIFICADOR
            CODE    A3C9H     0056H     UNIT         ?PR?_WR_EEPROM?EEPROM
            CODE    A41FH     0055H     UNIT         ?PR?RELOJ_PANTALLA_LCD?PANTALLAS
            CODE    A474H     004DH     UNIT         ?PR?VARIABLE_INICIO?MAIN
            CODE    A4C1H     004DH     UNIT         ?PR?L_D_M?EEPROM
            CODE    A50EH     004CH     UNIT         ?PR?LEE_NO_TICKET?EEPROM
            CODE    A55AH     004BH     UNIT         ?PR?_TX_AUX?TIBBO
            CODE    A5A5H     0049H     UNIT         ?PR?_DEBUG_TXT_TIBBO?TIBBO
            CODE    A5EEH     0048H     UNIT         ?PR?FIRST_CLAVE?PROG
            CODE    A636H     0047H     UNIT         ?PR?_DEBUG_CHR_TIBBO?TIBBO
            CODE    A67DH     0047H     UNIT         ?PR?_RESPONDE_WRITE_TARJETA_SECTOR2_BLOQUE0?VERIFICADOR
            CODE    A6C4H     0046H     UNIT         ?PR?_ESCRIBIRCADENASOFT_BUFFER?MAIN
            CODE    A70AH     0046H     UNIT         ?PR?_LCD_TXT_NUM_CHAR?PANTALLAS
            CODE    A750H     0046H     UNIT         ?PR?_DEBUG_HEXDEC?TIBBO
            CODE    A796H     0044H     UNIT         ?PR?_LCD_TXT?PANTALLAS
            CODE    A7DAH     0043H     UNIT         ?PR?DIR_BOARD?IO_SENSORES
            CODE    A81DH     0042H     UNIT         ?PR?_VALIDARCLAVE?PROG
            CODE    A85FH     0041H     UNIT         ?PR?_MONITOR_CHR?ACCESCAN
            CODE    A8A0H     0041H     UNIT         ?PR?_TWO_ONE?CLOCK
            CODE    A8E1H     0040H     UNIT         ?PR?_GETCMD?PROG
            CODE    A921H     003FH     UNIT         ?PR?_EB_CLK?CLOCK
            CODE    A960H     003EH     UNIT         ?PR?_PUTCHAR?MAIN
            CODE    A99EH     003DH     UNIT         ?PR?_HEX_BCD?CLOCK
            CODE    A9DBH     003DH     UNIT         ?PR?_RD_EEPROM?EEPROM
            CODE    AA18H     003DH     UNIT         ?PR?_LOAD_SECUENCIA_EXPEDIDOR?VERIFICADOR
            CODE    AA55H     003BH     UNIT         ?CO?EEPROM
            CODE    AA90H     003BH     UNIT         ?PR?_DEBUG_PTO_PARALELO?TIBBO
            CODE    AACBH     003BH     UNIT         ?PR?_COM_PUTCHAR?UART
            CODE    AB06H     003AH     UNIT         ?PR?_DELAY_10MS?DELAY
            CODE    AB40H     0038H     UNIT         ?PR?VALIDASENSORESPASO?IO_SENSORES
            CODE    AB78H     0036H     UNIT         ?PR?_RESPONDE_WRITE_TARJETA_SECTOR1_BLOQUE0?VERIFICADOR
            CODE    ABAEH     0034H     UNIT         ?PR?INCREMENTE_TICKET?EEPROM
            CODE    ABE2H     0034H     UNIT         ?PR?ADDR_HORARIOS?PROG
            CODE    AC16H     0033H     UNIT         ?PR?TRAMA_VALIDACION_P_N?VERIFICADOR
            CODE    AC49H     0032H     UNIT         ?PR?_DEBUG_MONITOR?TIBBO
            CODE    AC7BH     0031H     UNIT         ?PR?_TARJETA_ROTACION?VERIFICADOR
            CODE    ACACH     002EH     UNIT         ?PR?TIMER0_INT?MAIN
            CODE    ACDAH     002CH     UNIT         ?PR?LOAD_AND_SEND_INFO_RELOJ?PTO_PARALELO
            CODE    AD06H     002AH     UNIT         ?PR?COM_INITIALIZE?UART
            CODE    AD30H     0028H     UNIT         ?PR?_WR_CLK?CLOCK
            CODE    AD58H     0028H     UNIT         ?PR?COM_BAUDRATE?UART
            CODE    AD80H     0028H     UNIT         ?PR?_ARMAR_TRAMA_TARJETA_SECTOR1_BLOQUE0?VERIFICADOR
            CODE    ADA8H     0027H     UNIT         ?PR?_TX_CHRLCD?PANTALLAS
            CODE    ADCFH     0026H     UNIT         ?PR?COM_GETCHAR?UART
            CODE    ADF5H     0026H     UNIT         ?PR?ANALIZA_PRESENCIA_MENSUAL?VERIFICADOR
            CODE    AE1BH     0026H     UNIT         ?PR?RX_MONITOR?MONITOR
            CODE    AE41H     0023H     UNIT         ?PR?ANALIZA_PRESENCIA_ROTACION?VERIFICADOR
BL51 BANKED LINKER/LOCATER V6.22.2.0                                                  09/15/2020  15:49:49  PAGE 6


            CODE    AE64H     0022H     UNIT         ?PR?_E_D_M?EEPROM
            CODE    AE86H     0020H     UNIT         ?PR?ACKD?EEPROM
            CODE    AEA6H     0020H     UNIT         ?PR?ACK_LECT?EEPROM
            CODE    AEC6H     001FH     UNIT         ?PR?VALIDASENSOR?IO_SENSORES
            CODE    AEE5H     001FH     UNIT         ?PR?TIME_BIT?TIBBO
            CODE    AF04H     001EH     UNIT         ?PR?_BCD_HEX?CLOCK
            CODE    AF22H     001BH     UNIT         ?PR?_DELAY_1MS?DELAY
            CODE    AF3DH     0018H     UNIT         ?PR?CLEAR_PLACA?MONITOR
            CODE    AF55H     0017H     UNIT         ?PR?DISPLAYCURSOR?PROG
            CODE    AF6CH     0017H     UNIT         ?PR?TIME_MBIT?TIBBO
            CODE    AF83H     0014H     UNIT         ?PR?DEBUG_DIVIDIR_TEXTO?TIBBO
            CODE    AF97H     0014H     UNIT         ?PR?_ISSPACE?ISSPACE
            CODE    AFABH     0012H     UNIT         ?PR?_DELAY_20US?DELAY
            CODE    AFBDH     0012H     UNIT         ?PR?START?EEPROM
            CODE    AFCFH     0012H     UNIT         ?PR?PULSO_BUS?PTO_PARALELO
            CODE    AFE1H     0012H     UNIT         ?PR?COM_RBUFLEN?UART
            CODE    AFF3H     0012H     UNIT         ?PR?COM_TBUFLEN?UART
            CODE    B005H     0010H     UNIT         ?PR?INI_TIMER?MAIN
            CODE    B015H     0010H     UNIT         ?PR?INICIA_BOARD?MAIN
            CODE    B025H     000FH     UNIT         ?PR?_ISDIGIT?ISDIGIT
            CODE    B034H     000CH     UNIT         ?PR?_GETKEY?MAIN
            CODE    B040H     000AH     UNIT         ?PR?COND_INI_PTO?PTO_PARALELO
            CODE    B04AH     0009H     UNIT         ?PR?STOP?EEPROM
            CODE    B053H     0009H     UNIT         ?PR?CAPTURA_EXPULSA?VERIFICADOR
            CODE    B05CH     0007H     UNIT         ?PR?COND_INI_CLOCK?CLOCK
            CODE    B063H     0007H     UNIT         ?PR?SEL_FUNCION?IO_SENSORES
            CODE    B06AH     0007H     UNIT         ?PR?SEL_AUTO?IO_SENSORES
            CODE    B071H     0007H     UNIT         ?PR?SEL_PULSA?IO_SENSORES
            CODE    B078H     0007H     UNIT         ?PR?SEL_SENSOR2?IO_SENSORES
            CODE    B07FH     0007H     UNIT         ?PR?SEL_SENSOR1?IO_SENSORES
            CODE    B086H     0007H     UNIT         ?PR?SEL_DIR1?IO_SENSORES
            CODE    B08DH     0007H     UNIT         ?PR?SEL_DIR2?IO_SENSORES
            CODE    B094H     0006H     UNIT         ?PR?P_ME?EEPROM
            CODE    B09AH     0005H     UNIT         ?PR?ON_TIMER0_INTERRUP?MAIN
            CODE    B09FH     0005H     UNIT         ?CO?ACCESCAN
            CODE    B0A4H     0005H     UNIT         ?PR?COND_INI_TIBBO?TIBBO
            CODE    B0A9H     0003H     UNIT         ?PR?OFF_TIMER0_INTERRUP?MAIN
            CODE    B0ACH     0003H     UNIT         ?CO?PTO_PARALELO
            CODE    B0AFH     0001H     UNIT         ?PR?DELAY?DELAY



OVERLAY MAP OF MODULE:   .\Objects\expedidor_v_01_raspberry (MAIN)


SEGMENT                                             BIT_GROUP          DATA_GROUP          XDATA_GROUP
  +--> CALLED SEGMENT                            START    LENGTH     START    LENGTH     START    LENGTH
--------------------------------------------------------------------------------------------------------
?C_C51STARTUP                                    -----    -----      -----    -----      -----    -----
  +--> ?PR?MAIN?MAIN
  +--> ?C_INITSEG

?PR?MAIN?MAIN                                    -----    -----      -----    -----      0000H    0002H
  +--> ?PR?INI_TIMER?MAIN
  +--> ?PR?ON_TIMER0_INTERRUP?MAIN
  +--> ?PR?COM_INITIALIZE?UART
  +--> ?PR?COM_BAUDRATE?UART
BL51 BANKED LINKER/LOCATER V6.22.2.0                                                  09/15/2020  15:49:49  PAGE 7


  +--> ?PR?INICIA_BOARD?MAIN
  +--> ?PR?TIME_BIT?TIBBO
  +--> ?PR?_DELAY_20US?DELAY
  +--> ?PR?TIME_MBIT?TIBBO
  +--> ?PR?_TX_AUX?TIBBO
  +--> ?PR?SEL_FUNCION?IO_SENSORES
  +--> ?PR?MENU?PROG
  +--> ?PR?VARIABLE_INICIO?MAIN
  +--> ?PR?SECUENCIA_INICIO_EXPEDIDOR?VERIFI...
  +--> ?PR?RX_MONITOR?MONITOR
  +--> ?PR?_SECUENCIAEXPEDIDORMF?VERIFICADOR
  +--> ?PR?_RECIBE_PORT?PTO_PARALELO
  +--> ?PR?_DEBUG_PTO_PARALELO?TIBBO
  +--> ?PR?_VALIDA_TRAMA_PTO?ACCESCAN
  +--> ?PR?MSJ_LCD_INFORMATIVO?IO_SENSORES

?PR?COM_INITIALIZE?UART                          -----    -----      -----    -----      -----    -----
  +--> ?PR?COM_BAUDRATE?UART

?PR?INICIA_BOARD?MAIN                            -----    -----      -----    -----      -----    -----
  +--> ?PR?COND_INI_TIBBO?TIBBO
  +--> ?PR?COND_INI_CLOCK?CLOCK
  +--> ?PR?COND_INI_PTO?PTO_PARALELO

?PR?_TX_AUX?TIBBO                                -----    -----      -----    -----      -----    -----
  +--> ?PR?TIME_BIT?TIBBO

?PR?MENU?PROG                                    -----    -----      -----    -----      0002H    0045H
  +--> ?CO?PROG
  +--> ?PR?PRINTF?PRINTF
  +--> ?PR?_RD_EEPROM?EEPROM
  +--> ?PR?FIRST_CLAVE?PROG
  +--> ?PR?_WR_EEPROM?EEPROM
  +--> ?PR?_LEERMEMORIA?EEPROM
  +--> ?PR?_HASH_ID?PROG
  +--> ?PR?_INGRESADATO?PROG
  +--> ?PR?_GETCMD?PROG
  +--> ?PR?_ESCRIBIRMEMORIA?EEPROM
  +--> ?PR?_VALIDARCLAVE?PROG
  +--> ?PR?DISPLAYCURSOR?PROG
  +--> ?PR?_STRLEN?STRLEN
  +--> ?PR?_GETOPTION?PROG
  +--> ?PR?_STRCAT?STRCAT
  +--> ?PR?_LISTACOMANDOS?PROG
  +--> ?PR?PROG_ID_CLIENTE?PROG
  +--> ?PR?PROG_COD_PARK?PROG
  +--> ?PR?PROG_TIEMPO_GRACIA?PROG
  +--> ?PR?PROG_SIN_COBRO?PROG
  +--> ?PR?PROG_DEBUG?PROG
  +--> ?PR?PROG_USE_LPR?PROG
  +--> ?PR?TIPO_PANTALLA?PROG
  +--> ?PR?PROG_TARJETA_AUTOMATICA_O_BOTON?PROG
  +--> ?PR?PROG_ANTIPASSBACK?PROG
  +--> ?PR?PROG_PLACA?PROG
  +--> ?PR?PROG_ADDRESS_HIGH_BOARD?PROG
  +--> ?PR?PROG_HORARIOS?PROG
  +--> ?PR?PROG_VALIDAR_TIPO_VEHICULO_MENSUA...
BL51 BANKED LINKER/LOCATER V6.22.2.0                                                  09/15/2020  15:49:49  PAGE 8


  +--> ?PR?PROG_APB_MENSUAL?PROG
  +--> ?PR?VER_PROG?PROG
  +--> ?PR?SHOW?PROG
  +--> ?PR?PROG_FECHA_VENCIMIENTO?PROG

?PR?PRINTF?PRINTF                                0020H.0  0001H.1    0008H    0005H      0078H    0030H
  +--> ?PR?_PUTCHAR?MAIN

?PR?_PUTCHAR?MAIN                                -----    -----      -----    -----      00A8H    0003H
  +--> ?PR?_COM_PUTCHAR?UART

?PR?_COM_PUTCHAR?UART                            -----    -----      -----    -----      00ABH    0001H
  +--> ?PR?COM_TBUFLEN?UART

?PR?_RD_EEPROM?EEPROM                            -----    -----      -----    -----      -----    -----
  +--> ?PR?START?EEPROM
  +--> ?PR?ACK_LECT?EEPROM
  +--> ?PR?_E_D_M?EEPROM
  +--> ?PR?ACKD?EEPROM
  +--> ?PR?L_D_M?EEPROM
  +--> ?PR?STOP?EEPROM

?PR?ACK_LECT?EEPROM                              -----    -----      -----    -----      -----    -----
  +--> ?PR?_E_D_M?EEPROM

?PR?_E_D_M?EEPROM                                -----    -----      -----    -----      -----    -----
  +--> ?PR?P_ME?EEPROM

?PR?ACKD?EEPROM                                  -----    -----      -----    -----      -----    -----
  +--> ?PR?_E_D_M?EEPROM

?PR?FIRST_CLAVE?PROG                             -----    -----      -----    -----      0047H    000BH
  +--> ?PR?_BLOCK_READ_CLOCK_ASCII?CLOCK
  +--> ?PR?_HASH_ID?PROG
  +--> ?PR?_ESCRIBIRMEMORIA?EEPROM

?PR?_BLOCK_READ_CLOCK_ASCII?CLOCK                -----    -----      -----    -----      0052H    0003H
  +--> ?PR?_LEE_CLK?CLOCK

?PR?_LEE_CLK?CLOCK                               -----    -----      -----    -----      00B2H    0003H
  +--> ?PR?_DELAY_20US?DELAY
  +--> ?PR?_EB_CLK?CLOCK
  +--> ?PR?P_CK?CLOCK

?PR?_EB_CLK?CLOCK                                -----    -----      -----    -----      00B5H    0003H
  +--> ?PR?P_CK?CLOCK

?PR?P_CK?CLOCK                                   -----    -----      -----    -----      -----    -----
  +--> ?PR?DELAY?DELAY

?PR?_HASH_ID?PROG                                -----    -----      -----    -----      005EH    003FH
  +--> ?CO?PROG
  +--> ?PR?_LEERMEMORIA?EEPROM
  +--> ?PR?_CHECK_FECHAOUT?CLOCK
  +--> ?PR?_STRLEN?STRLEN

?PR?_LEERMEMORIA?EEPROM                          -----    -----      -----    -----      009DH    0005H
BL51 BANKED LINKER/LOCATER V6.22.2.0                                                  09/15/2020  15:49:49  PAGE 9


  +--> ?PR?_RD_EEPROM?EEPROM

?PR?_CHECK_FECHAOUT?CLOCK                        -----    -----      -----    -----      009DH    0012H
  +--> ?PR?_BLOCK_READ_CLOCK_HEX?CLOCK

?PR?_BLOCK_READ_CLOCK_HEX?CLOCK                  -----    -----      -----    -----      00AFH    0003H
  +--> ?PR?_LEE_CLK?CLOCK
  +--> ?PR?_BCD_HEX?CLOCK

?PR?_ESCRIBIRMEMORIA?EEPROM                      -----    -----      -----    -----      005EH    0005H
  +--> ?PR?_WR_EEPROM?EEPROM

?PR?_WR_EEPROM?EEPROM                            -----    -----      -----    -----      -----    -----
  +--> ?PR?START?EEPROM
  +--> ?PR?ACKD?EEPROM
  +--> ?PR?_E_D_M?EEPROM
  +--> ?PR?STOP?EEPROM
  +--> ?PR?_DELAY_1MS?DELAY
  +--> ?PR?_DELAY_20US?DELAY

?PR?_DELAY_1MS?DELAY                             -----    -----      -----    -----      -----    -----
  +--> ?PR?_DELAY_20US?DELAY

?PR?_INGRESADATO?PROG                            -----    -----      -----    -----      0072H    0004H
  +--> ?PR?_GETKEY?MAIN
  +--> ?CO?PROG
  +--> ?PR?PRINTF?PRINTF
  +--> ?PR?_PUTCHAR?MAIN

?PR?_GETKEY?MAIN                                 -----    -----      -----    -----      -----    -----
  +--> ?PR?COM_GETCHAR?UART

?PR?COM_GETCHAR?UART                             -----    -----      -----    -----      -----    -----
  +--> ?PR?COM_RBUFLEN?UART

?PR?_GETCMD?PROG                                 -----    -----      -----    -----      005EH    0007H
  +--> ?CO?PROG
  +--> ?PR?_STRTOK?STRTOK

?PR?_STRTOK?STRTOK                               -----    -----      -----    -----      0065H    0006H
  +--> ?PR?_STRSPN?STRSPN
  +--> ?PR?_STRPBRK?STRPBRK

?PR?_STRSPN?STRSPN                               -----    -----      -----    -----      006BH    0008H

?PR?_STRPBRK?STRPBRK                             -----    -----      -----    -----      006BH    0009H

?PR?_VALIDARCLAVE?PROG                           -----    -----      -----    -----      005EH    000EH

?PR?DISPLAYCURSOR?PROG                           -----    -----      -----    -----      -----    -----
  +--> ?CO?PROG
  +--> ?PR?PRINTF?PRINTF

?PR?_GETOPTION?PROG                              -----    -----      -----    -----      0047H    000BH
  +--> ?CO?PROG
  +--> ?PR?_STRTOK?STRTOK

BL51 BANKED LINKER/LOCATER V6.22.2.0                                                  09/15/2020  15:49:49  PAGE 10


?PR?_STRCAT?STRCAT                               -----    -----      -----    -----      0047H    0009H

?PR?_LISTACOMANDOS?PROG                          -----    -----      -----    -----      0047H    0007H

?PR?PROG_ID_CLIENTE?PROG                         -----    -----      -----    -----      0047H    000CH
  +--> ?PR?_RD_EEPROM?EEPROM
  +--> ?CO?PROG
  +--> ?PR?PRINTF?PRINTF
  +--> ?PR?_INGRESADATO?PROG
  +--> ?PR?_ATOI?ATOI
  +--> ?PR?_WR_EEPROM?EEPROM

?PR?_ATOI?ATOI                                   0020H.0  0000H.1    -----    -----      0072H    0005H
  +--> ?PR?_ISSPACE?ISSPACE
  +--> ?PR?_ISDIGIT?ISDIGIT

?PR?PROG_COD_PARK?PROG                           -----    -----      -----    -----      0047H    000CH
  +--> ?PR?_RD_EEPROM?EEPROM
  +--> ?CO?PROG
  +--> ?PR?PRINTF?PRINTF
  +--> ?PR?_INGRESADATO?PROG
  +--> ?PR?_ATOI?ATOI
  +--> ?PR?_WR_EEPROM?EEPROM

?PR?PROG_TIEMPO_GRACIA?PROG                      -----    -----      -----    -----      0047H    000CH
  +--> ?PR?_RD_EEPROM?EEPROM
  +--> ?CO?PROG
  +--> ?PR?PRINTF?PRINTF
  +--> ?PR?_INGRESADATO?PROG
  +--> ?PR?_ATOI?ATOI
  +--> ?PR?_WR_EEPROM?EEPROM

?PR?PROG_SIN_COBRO?PROG                          -----    -----      -----    -----      0047H    000CH
  +--> ?PR?_RD_EEPROM?EEPROM
  +--> ?CO?PROG
  +--> ?PR?PRINTF?PRINTF
  +--> ?PR?_INGRESADATO?PROG
  +--> ?PR?_ATOI?ATOI
  +--> ?PR?_WR_EEPROM?EEPROM

?PR?PROG_DEBUG?PROG                              -----    -----      -----    -----      0047H    000CH
  +--> ?PR?_RD_EEPROM?EEPROM
  +--> ?CO?PROG
  +--> ?PR?PRINTF?PRINTF
  +--> ?PR?_INGRESADATO?PROG
  +--> ?PR?_ATOI?ATOI
  +--> ?PR?_WR_EEPROM?EEPROM

?PR?PROG_USE_LPR?PROG                            -----    -----      -----    -----      0047H    000CH
  +--> ?PR?_RD_EEPROM?EEPROM
  +--> ?CO?PROG
  +--> ?PR?PRINTF?PRINTF
  +--> ?PR?_INGRESADATO?PROG
  +--> ?PR?_ATOI?ATOI
  +--> ?PR?_WR_EEPROM?EEPROM

?PR?TIPO_PANTALLA?PROG                           -----    -----      -----    -----      0047H    000CH
BL51 BANKED LINKER/LOCATER V6.22.2.0                                                  09/15/2020  15:49:49  PAGE 11


  +--> ?PR?_RD_EEPROM?EEPROM
  +--> ?CO?PROG
  +--> ?PR?PRINTF?PRINTF
  +--> ?PR?_INGRESADATO?PROG
  +--> ?PR?_ATOI?ATOI
  +--> ?PR?_WR_EEPROM?EEPROM

?PR?PROG_TARJETA_AUTOMATICA_O_BOTON?PROG         -----    -----      -----    -----      0047H    000CH
  +--> ?PR?_RD_EEPROM?EEPROM
  +--> ?CO?PROG
  +--> ?PR?PRINTF?PRINTF
  +--> ?PR?_INGRESADATO?PROG
  +--> ?PR?_ATOI?ATOI
  +--> ?PR?_WR_EEPROM?EEPROM

?PR?PROG_ANTIPASSBACK?PROG                       -----    -----      -----    -----      0047H    000CH
  +--> ?PR?_RD_EEPROM?EEPROM
  +--> ?CO?PROG
  +--> ?PR?PRINTF?PRINTF
  +--> ?PR?_INGRESADATO?PROG
  +--> ?PR?_ATOI?ATOI
  +--> ?PR?_WR_EEPROM?EEPROM

?PR?PROG_PLACA?PROG                              -----    -----      -----    -----      0047H    000CH
  +--> ?PR?_RD_EEPROM?EEPROM
  +--> ?CO?PROG
  +--> ?PR?PRINTF?PRINTF
  +--> ?PR?_INGRESADATO?PROG
  +--> ?PR?_ATOI?ATOI
  +--> ?PR?_WR_EEPROM?EEPROM

?PR?PROG_ADDRESS_HIGH_BOARD?PROG                 -----    -----      -----    -----      0047H    000CH
  +--> ?PR?_RD_EEPROM?EEPROM
  +--> ?CO?PROG
  +--> ?PR?PRINTF?PRINTF
  +--> ?PR?_INGRESADATO?PROG
  +--> ?PR?_ATOI?ATOI
  +--> ?PR?_WR_EEPROM?EEPROM

?PR?PROG_HORARIOS?PROG                           -----    -----      -----    -----      0047H    001BH
  +--> ?PR?ADDR_HORARIOS?PROG
  +--> ?CO?PROG
  +--> ?PR?PRINTF?PRINTF
  +--> ?PR?_INGRESADATO?PROG
  +--> ?PR?_ATOI?ATOI
  +--> ?PR?_PROG_HORARIOS_ON_OFF?PROG
  +--> ?PR?_WR_EEPROM?EEPROM
  +--> ?PR?_PROG_HORARIO_DIAS?PROG
  +--> ?PR?_PROG_HORARIO_DESDE_HASTA?PROG
  +--> ?PR?_RD_EEPROM?EEPROM

?PR?ADDR_HORARIOS?PROG                           -----    -----      -----    -----      0075H    000BH

?PR?_PROG_HORARIOS_ON_OFF?PROG                   -----    -----      -----    -----      0062H    0010H
  +--> ?PR?_RD_EEPROM?EEPROM
  +--> ?CO?PROG
  +--> ?PR?PRINTF?PRINTF
BL51 BANKED LINKER/LOCATER V6.22.2.0                                                  09/15/2020  15:49:49  PAGE 12


  +--> ?PR?_INGRESADATO?PROG
  +--> ?PR?_ATOI?ATOI
  +--> ?PR?_WR_EEPROM?EEPROM

?PR?_PROG_HORARIO_DIAS?PROG                      -----    -----      -----    -----      0062H    000FH
  +--> ?CO?PROG
  +--> ?PR?PRINTF?PRINTF
  +--> ?PR?_INGRESADATO?PROG
  +--> ?PR?_WR_EEPROM?EEPROM
  +--> ?PR?_RD_EEPROM?EEPROM

?PR?_PROG_HORARIO_DESDE_HASTA?PROG               -----    -----      -----    -----      0062H    000CH
  +--> ?CO?PROG
  +--> ?PR?PRINTF?PRINTF
  +--> ?PR?_INGRESADATO?PROG
  +--> ?PR?_WR_EEPROM?EEPROM
  +--> ?PR?_RD_EEPROM?EEPROM

?PR?PROG_VALIDAR_TIPO_VEHICULO_MENSUA...         -----    -----      -----    -----      0047H    000CH
  +--> ?PR?_RD_EEPROM?EEPROM
  +--> ?CO?PROG
  +--> ?PR?PRINTF?PRINTF
  +--> ?PR?_INGRESADATO?PROG
  +--> ?PR?_ATOI?ATOI
  +--> ?PR?_WR_EEPROM?EEPROM

?PR?PROG_APB_MENSUAL?PROG                        -----    -----      -----    -----      0047H    000CH
  +--> ?PR?_RD_EEPROM?EEPROM
  +--> ?CO?PROG
  +--> ?PR?PRINTF?PRINTF
  +--> ?PR?_INGRESADATO?PROG
  +--> ?PR?_ATOI?ATOI
  +--> ?PR?_WR_EEPROM?EEPROM

?PR?VER_PROG?PROG                                -----    -----      -----    -----      0047H    0013H
  +--> ?PR?_RD_EEPROM?EEPROM
  +--> ?CO?PROG
  +--> ?PR?PRINTF?PRINTF
  +--> ?PR?VER_HORARIO?PROG
  +--> ?PR?_LEERMEMORIA?EEPROM
  +--> ?PR?_HEX_ASCII?CLOCK

?PR?VER_HORARIO?PROG                             -----    -----      -----    -----      005AH    001BH
  +--> ?PR?ADDR_HORARIOS?PROG
  +--> ?CO?PROG
  +--> ?PR?PRINTF?PRINTF
  +--> ?PR?_RD_EEPROM?EEPROM
  +--> ?PR?_VER_HORARIO_DIAS?PROG
  +--> ?PR?_VER_HORARIO_DESDE_HASTA?PROG

?PR?_VER_HORARIO_DIAS?PROG                       -----    -----      -----    -----      0075H    0003H
  +--> ?PR?_RD_EEPROM?EEPROM
  +--> ?CO?PROG
  +--> ?PR?PRINTF?PRINTF

?PR?_VER_HORARIO_DESDE_HASTA?PROG                -----    -----      -----    -----      0075H    0002H
  +--> ?CO?PROG
BL51 BANKED LINKER/LOCATER V6.22.2.0                                                  09/15/2020  15:49:49  PAGE 13


  +--> ?PR?PRINTF?PRINTF
  +--> ?PR?_RD_EEPROM?EEPROM

?PR?_HEX_ASCII?CLOCK                             -----    -----      -----    -----      005EH    0006H
  +--> ?PR?_HEX_BCD?CLOCK

?PR?SHOW?PROG                                    -----    -----      -----    -----      -----    -----
  +--> ?CO?PROG
  +--> ?PR?PRINTF?PRINTF

?PR?PROG_FECHA_VENCIMIENTO?PROG                  -----    -----      -----    -----      0047H    0017H
  +--> ?PR?_LEERMEMORIA?EEPROM
  +--> ?PR?_HEX_ASCII?CLOCK
  +--> ?CO?PROG
  +--> ?PR?PRINTF?PRINTF
  +--> ?PR?_HASH_ID?PROG
  +--> ?PR?_INGRESADATO?PROG
  +--> ?PR?_GETCMD?PROG
  +--> ?PR?_ESCRIBIRMEMORIA?EEPROM
  +--> ?PR?_VALIDARCLAVE?PROG
  +--> ?PR?_ATOI?ATOI
  +--> ?PR?_WR_EEPROM?EEPROM

?PR?VARIABLE_INICIO?MAIN                         -----    -----      -----    -----      -----    -----
  +--> ?PR?_RD_EEPROM?EEPROM

?PR?SECUENCIA_INICIO_EXPEDIDOR?VERIFI...         -----    -----      -----    -----      0002H    0001H
  +--> ?PR?_INICIALIZA?LINTECH
  +--> ?PR?TRAMA_VALIDACION_P_N?VERIFICADOR
  +--> ?CO?VERIFICADOR
  +--> ?PR?_DEBUG_TXT_TIBBO?TIBBO
  +--> ?PR?_DEBUGBUFFERMF?TIBBO
  +--> ?PR?DWLOAD_EEPROM?LINTECH

?PR?_INICIALIZA?LINTECH                          -----    -----      -----    -----      0003H    000CH
  +--> ?CO?LINTECH
  +--> ?PR?_DEBUG_TXT_TIBBO?TIBBO
  +--> ?PR?_DEBUGBUFFERMF?TIBBO
  +--> ?PR?_ESCRIBIRCADENASOFT_BUFFER?MAIN

?PR?_DEBUG_TXT_TIBBO?TIBBO                       -----    -----      -----    -----      0038H    0004H
  +--> ?PR?_DEBUG_CHR_TIBBO?TIBBO
  +--> ?CO?TIBBO
  +--> ?PR?_TX_AUX?TIBBO

?PR?_DEBUG_CHR_TIBBO?TIBBO                       -----    -----      -----    -----      -----    -----
  +--> ?PR?_TX_AUX?TIBBO

?PR?_DEBUGBUFFERMF?TIBBO                         -----    -----      -----    -----      0028H    0006H
  +--> ?CO?TIBBO
  +--> ?PR?_DEBUG_TXT_TIBBO?TIBBO
  +--> ?PR?_DEBUG_CHR_TIBBO?TIBBO
  +--> ?PR?_TX_AUX?TIBBO

?PR?_ESCRIBIRCADENASOFT_BUFFER?MAIN              -----    -----      -----    -----      0028H    0006H
  +--> ?PR?_PUTCHAR?MAIN

BL51 BANKED LINKER/LOCATER V6.22.2.0                                                  09/15/2020  15:49:49  PAGE 14


?PR?TRAMA_VALIDACION_P_N?VERIFICADOR             -----    -----      -----    -----      -----    -----
  +--> ?CO?VERIFICADOR
  +--> ?PR?_DEBUG_TXT_TIBBO?TIBBO

?PR?DWLOAD_EEPROM?LINTECH                        -----    -----      -----    -----      0003H    0016H
  +--> ?CO?LINTECH
  +--> ?PR?_DEBUG_TXT_TIBBO?TIBBO
  +--> ?PR?_DEBUGBUFFERMF?TIBBO
  +--> ?PR?_ESCRIBIRCADENASOFT_BUFFER?MAIN

?PR?RX_MONITOR?MONITOR                           -----    -----      -----    -----      0008H    000DH
  +--> ?PR?_RECIBE_CMD_MONITOR?MONITOR
  +--> ?PR?_DEBUG_MONITOR?TIBBO
  +--> ?PR?_VALIDA_TRAMA_MONITOR?MONITOR

?PR?_RECIBE_CMD_MONITOR?MONITOR                  -----    -----      -----    -----      0015H    0009H
  +--> ?PR?RX_DATA?TIBBO

?PR?RX_DATA?TIBBO                                -----    -----      -----    -----      -----    -----
  +--> ?PR?TIME_MBIT?TIBBO
  +--> ?PR?TIME_BIT?TIBBO

?PR?_DEBUG_MONITOR?TIBBO                         -----    -----      -----    -----      0015H    0004H
  +--> ?PR?DEBUG_DIVIDIR_TEXTO?TIBBO
  +--> ?CO?TIBBO
  +--> ?PR?_DEBUG_TXT_TIBBO?TIBBO

?PR?DEBUG_DIVIDIR_TEXTO?TIBBO                    -----    -----      -----    -----      -----    -----
  +--> ?CO?TIBBO
  +--> ?PR?_DEBUG_TXT_TIBBO?TIBBO

?PR?_VALIDA_TRAMA_MONITOR?MONITOR                -----    -----      -----    -----      0015H    0003H

?PR?_SECUENCIAEXPEDIDORMF?VERIFICADOR            -----    -----      -----    -----      0002H    0001H
  +--> ?PR?_CHECK_STATUS?LINTECH
  +--> ?PR?_LOAD_SECUENCIA_EXPEDIDOR?VERIFIC...
  +--> ?PR?_RTA_CMD_TRANSPORTE?VERIFICADOR
  +--> ?PR?RESPONDE_ESTADO_SENSORES_TRANSPOR...
  +--> ?PR?RESPONDE_TIPO_TARJETA?VERIFICADOR
  +--> ?PR?_RESPONDE_LECTURA_TARJETA_SECTOR1...
  +--> ?PR?_RESPONDE_LECTURA_TARJETA_SECTOR1...
  +--> ?PR?_RESPONDE_LECTURA_TARJETA_SECTOR1...
  +--> ?PR?_RESPONDE_WRITE_TARJETA_SECTOR1_B...
  +--> ?PR?_RESPONDE_WRITE_TARJETA_SECTOR2_B...
  +--> ?PR?_RESPONDE_WRITE_TARJETA_SECTOR1_B...
  +--> ?PR?_DISPARO_LOCK_ENTRADA_VEHICULO?VE...
  +--> ?PR?_RESPUESTA_SEGUNDA_CLAVE?VERIFICADOR
  +--> ?PR?ANALIZA_PRESENCIA_MENSUAL?VERIFIC...
  +--> ?PR?_ANALIZA_UID_CARD?VERIFICADOR
  +--> ?CO?VERIFICADOR
  +--> ?PR?_DEBUG_TXT_TIBBO?TIBBO
  +--> ?PR?_MOV_CARD?LINTECH
  +--> ?PR?_CARD_INSERCION?LINTECH
  +--> ?PR?AUT_CARD_CHECK_STATUS?LINTECH
  +--> ?PR?LOADVERIFY_EEPROM?LINTECH
  +--> ?PR?_RD_MF?LINTECH
  +--> ?PR?_WR_MF?LINTECH
BL51 BANKED LINKER/LOCATER V6.22.2.0                                                  09/15/2020  15:49:49  PAGE 15


  +--> ?PR?DWLOAD_EEPROM?LINTECH
  +--> ?PR?ENTREGA_CARD_CAPTURA?VERIFICADOR
  +--> ?PR?_SEND_PTO_PARALELO?VERIFICADOR
  +--> ?PR?_WAIT_PLACA?VERIFICADOR
  +--> ?PR?UNIQUE_IDENTIFIER_UID?LINTECH
  +--> ?PR?_PREGUNTA_LPR?VERIFICADOR
  +--> ?PR?_VALIDA_TIPO_TARJETA?VERIFICADOR
  +--> ?PR?ANALIZA_PRESENCIA_ROTACION?VERIFI...
  +--> ?PR?POWER_OFF?LINTECH

?PR?_CHECK_STATUS?LINTECH                        -----    -----      -----    -----      0003H    000BH
  +--> ?CO?LINTECH
  +--> ?PR?_DEBUG_TXT_TIBBO?TIBBO
  +--> ?PR?_DEBUGBUFFERMF?TIBBO
  +--> ?PR?_ESCRIBIRCADENASOFT_BUFFER?MAIN

?PR?_LOAD_SECUENCIA_EXPEDIDOR?VERIFIC...         -----    -----      -----    -----      0008H    0009H

?PR?_RTA_CMD_TRANSPORTE?VERIFICADOR              -----    -----      -----    -----      0003H    0005H
  +--> ?PR?TRAMA_VALIDACION_P_N?VERIFICADOR
  +--> ?CO?VERIFICADOR
  +--> ?PR?_DEBUG_TXT_TIBBO?TIBBO
  +--> ?PR?_DEBUGBUFFERMF?TIBBO
  +--> ?PR?ERROR_RX_PTO?VERIFICADOR

?PR?ERROR_RX_PTO?VERIFICADOR                     -----    -----      -----    -----      0008H    0001H
  +--> ?CO?VERIFICADOR
  +--> ?PR?_DEBUG_TXT_TIBBO?TIBBO
  +--> ?PR?_DEBUG_CHR_TIBBO?TIBBO
  +--> ?PR?_DELAY_10MS?DELAY

?PR?_DELAY_10MS?DELAY                            -----    -----      -----    -----      0009H    0004H
  +--> ?PR?_DELAY_1MS?DELAY

?PR?RESPONDE_ESTADO_SENSORES_TRANSPOR...         -----    -----      -----    -----      0003H    0001H
  +--> ?CO?VERIFICADOR
  +--> ?PR?_DEBUG_TXT_TIBBO?TIBBO
  +--> ?PR?_SEND_PORTERR?PTO_PARALELO
  +--> ?PR?INGRESO_VEHICULO?VERIFICADOR

?PR?_SEND_PORTERR?PTO_PARALELO                   -----    -----      -----    -----      002BH    0006H
  +--> ?PR?PULSO_BUS?PTO_PARALELO
  +--> ?PR?_DELAY_20US?DELAY

?PR?PULSO_BUS?PTO_PARALELO                       -----    -----      -----    -----      -----    -----
  +--> ?PR?_DELAY_20US?DELAY

?PR?INGRESO_VEHICULO?VERIFICADOR                 -----    -----      -----    -----      -----    -----
  +--> ?PR?VALIDASENSORESPASO?IO_SENSORES
  +--> ?PR?_RD_EEPROM?EEPROM
  +--> ?CO?VERIFICADOR
  +--> ?PR?_DEBUG_TXT_TIBBO?TIBBO
  +--> ?PR?_PANTALLALCD?PANTALLAS
  +--> ?PR?SEL_PULSA?IO_SENSORES

?PR?VALIDASENSORESPASO?IO_SENSORES               -----    -----      -----    -----      0011H    0001H
  +--> ?PR?SEL_SENSOR2?IO_SENSORES
BL51 BANKED LINKER/LOCATER V6.22.2.0                                                  09/15/2020  15:49:49  PAGE 16


  +--> ?PR?VALIDASENSOR?IO_SENSORES
  +--> ?PR?VALIDA_SENSOR1_AUTO?IO_SENSORES
  +--> ?CO?IO_SENSORES
  +--> ?PR?_DEBUG_TXT_TIBBO?TIBBO

?PR?VALIDA_SENSOR1_AUTO?IO_SENSORES              -----    -----      -----    -----      0012H    0001H
  +--> ?PR?SEL_SENSOR1?IO_SENSORES
  +--> ?PR?SEL_AUTO?IO_SENSORES
  +--> ?CO?IO_SENSORES
  +--> ?PR?_DEBUG_TXT_TIBBO?TIBBO

?PR?_PANTALLALCD?PANTALLAS                       -----    -----      -----    -----      002BH    0008H
  +--> ?CO?PANTALLAS
  +--> ?PR?_LCD_TXT?PANTALLAS
  +--> ?PR?_STRLEN?STRLEN
  +--> ?PR?_TX_CHRLCD?PANTALLAS
  +--> ?PR?RASPBERRY_DATA1?PANTALLAS

?PR?_LCD_TXT?PANTALLAS                           -----    -----      -----    -----      0033H    0005H
  +--> ?PR?_TX_CHRLCD?PANTALLAS

?PR?_TX_CHRLCD?PANTALLAS                         -----    -----      -----    -----      0038H    0002H
  +--> ?PR?_PUTCHAR?MAIN

?PR?RASPBERRY_DATA1?PANTALLAS                    -----    -----      -----    -----      0033H    0003H
  +--> ?PR?_STRLEN?STRLEN
  +--> ?PR?_PUTCHAR?MAIN

?PR?RESPONDE_TIPO_TARJETA?VERIFICADOR            -----    -----      -----    -----      0003H    0001H
  +--> ?CO?VERIFICADOR
  +--> ?PR?_DEBUG_TXT_TIBBO?TIBBO
  +--> ?PR?_SEND_PORTERR?PTO_PARALELO
  +--> ?PR?_PANTALLALCD?PANTALLAS
  +--> ?PR?CAPTURA_EXPULSA?VERIFICADOR

?PR?_RESPONDE_LECTURA_TARJETA_SECTOR1...         -----    -----      -----    -----      0003H    0016H
  +--> ?CO?VERIFICADOR
  +--> ?PR?_DEBUG_TXT_TIBBO?TIBBO
  +--> ?PR?_DEBUGBUFFERMF?TIBBO
  +--> ?PR?_RD_EEPROM?EEPROM
  +--> ?PR?_DEBUG_HEXDEC?TIBBO
  +--> ?PR?_DEBUG_CHR_TIBBO?TIBBO
  +--> ?PR?_SEND_PORTERR?PTO_PARALELO
  +--> ?PR?_PANTALLALCD?PANTALLAS
  +--> ?PR?CAPTURA_EXPULSA?VERIFICADOR

?PR?_DEBUG_HEXDEC?TIBBO                          -----    -----      -----    -----      0019H    0002H
  +--> ?PR?_TX_AUX?TIBBO

?PR?_RESPONDE_LECTURA_TARJETA_SECTOR1...         -----    -----      -----    -----      0003H    0004H
  +--> ?CO?VERIFICADOR
  +--> ?PR?_DEBUG_TXT_TIBBO?TIBBO
  +--> ?PR?CAPTURA_EXPULSA?VERIFICADOR

?PR?_RESPONDE_LECTURA_TARJETA_SECTOR1...         -----    -----      -----    -----      0003H    0015H
  +--> ?CO?VERIFICADOR
  +--> ?PR?_DEBUG_TXT_TIBBO?TIBBO
BL51 BANKED LINKER/LOCATER V6.22.2.0                                                  09/15/2020  15:49:49  PAGE 17


  +--> ?PR?_DEBUGBUFFERMF?TIBBO
  +--> ?PR?_DEBUG_CHR_TIBBO?TIBBO
  +--> ?PR?CAPTURA_EXPULSA?VERIFICADOR

?PR?_RESPONDE_WRITE_TARJETA_SECTOR1_B...         -----    -----      -----    -----      0003H    0007H
  +--> ?CO?VERIFICADOR
  +--> ?PR?_DEBUG_TXT_TIBBO?TIBBO
  +--> ?PR?_DEBUGBUFFERMF?TIBBO
  +--> ?PR?_ARMAR_TRAMA_TARJETA_SECTOR1_BLOQ...

?PR?_ARMAR_TRAMA_TARJETA_SECTOR1_BLOQ...         -----    -----      -----    -----      000AH    0003H
  +--> ?PR?LEE_NO_TICKET?EEPROM

?PR?LEE_NO_TICKET?EEPROM                         -----    -----      -----    -----      001CH    000BH
  +--> ?PR?READ_EEPROM_TICKET?EEPROM
  +--> ?CO?EEPROM
  +--> ?PR?PRINTF?PRINTF
  +--> ?PR?_STRLEN?STRLEN
  +--> ?PR?_DEBUG_TXT_TIBBO?TIBBO

?PR?READ_EEPROM_TICKET?EEPROM                    -----    -----      -----    -----      0027H    0007H
  +--> ?PR?_RD_EEPROM?EEPROM

?PR?_RESPONDE_WRITE_TARJETA_SECTOR2_B...         -----    -----      -----    -----      0003H    0003H
  +--> ?CO?VERIFICADOR
  +--> ?PR?_DEBUG_TXT_TIBBO?TIBBO
  +--> ?PR?_DEBUGBUFFERMF?TIBBO

?PR?_RESPONDE_WRITE_TARJETA_SECTOR1_B...         -----    -----      -----    -----      0003H    0003H
  +--> ?CO?VERIFICADOR
  +--> ?PR?_DEBUG_TXT_TIBBO?TIBBO
  +--> ?PR?_DEBUGBUFFERMF?TIBBO

?PR?_DISPARO_LOCK_ENTRADA_VEHICULO?VE...         -----    -----      -----    -----      0003H    0004H
  +--> ?CO?VERIFICADOR
  +--> ?PR?_DEBUG_TXT_TIBBO?TIBBO
  +--> ?PR?_PANTALLALCD?PANTALLAS
  +--> ?PR?_SEND_PORTERR?PTO_PARALELO
  +--> ?PR?_PANTALLALCD_LINEA_2?PANTALLAS
  +--> ?PR?VALIDA_SENSOR1_AUTO?IO_SENSORES

?PR?_PANTALLALCD_LINEA_2?PANTALLAS               -----    -----      -----    -----      0011H    000BH
  +--> ?CO?PANTALLAS
  +--> ?PR?_LCD_TXT?PANTALLAS
  +--> ?PR?_STRLEN?STRLEN
  +--> ?PR?_TX_CHRLCD?PANTALLAS
  +--> ?PR?RASPBERRY_DATA1?PANTALLAS
  +--> ?PR?LEE_NO_TICKET?EEPROM
  +--> ?PR?_STRCAT?STRCAT

?PR?_RESPUESTA_SEGUNDA_CLAVE?VERIFICADOR         -----    -----      -----    -----      0003H    0006H
  +--> ?CO?VERIFICADOR
  +--> ?PR?_DEBUG_TXT_TIBBO?TIBBO
  +--> ?PR?_DEBUGBUFFERMF?TIBBO
  +--> ?PR?_ARMAR_TRAMA_PLACA?VERIFICADOR

?PR?_ARMAR_TRAMA_PLACA?VERIFICADOR               -----    -----      -----    -----      0009H    0003H
BL51 BANKED LINKER/LOCATER V6.22.2.0                                                  09/15/2020  15:49:49  PAGE 18



?PR?ANALIZA_PRESENCIA_MENSUAL?VERIFIC...         -----    -----      -----    -----      0003H    0001H
  +--> ?PR?VALIDASENSORESPASO?IO_SENSORES
  +--> ?PR?_SEND_PORTERR?PTO_PARALELO
  +--> ?PR?_PANTALLALCD?PANTALLAS

?PR?_ANALIZA_UID_CARD?VERIFICADOR                -----    -----      -----    -----      0003H    0015H
  +--> ?CO?VERIFICADOR
  +--> ?PR?_DEBUG_TXT_TIBBO?TIBBO
  +--> ?PR?_DEBUGBUFFERMF?TIBBO
  +--> ?PR?_DEBUG_CHR_TIBBO?TIBBO

?PR?_MOV_CARD?LINTECH                            -----    -----      -----    -----      0003H    000CH
  +--> ?CO?LINTECH
  +--> ?PR?_DEBUG_TXT_TIBBO?TIBBO
  +--> ?PR?_DEBUGBUFFERMF?TIBBO
  +--> ?PR?_ESCRIBIRCADENASOFT_BUFFER?MAIN

?PR?_CARD_INSERCION?LINTECH                      -----    -----      -----    -----      0003H    000AH
  +--> ?CO?LINTECH
  +--> ?PR?_DEBUG_TXT_TIBBO?TIBBO
  +--> ?PR?_DEBUGBUFFERMF?TIBBO
  +--> ?PR?_ESCRIBIRCADENASOFT_BUFFER?MAIN

?PR?AUT_CARD_CHECK_STATUS?LINTECH                -----    -----      -----    -----      0003H    000BH
  +--> ?CO?LINTECH
  +--> ?PR?_DEBUG_TXT_TIBBO?TIBBO
  +--> ?PR?_DEBUGBUFFERMF?TIBBO
  +--> ?PR?_ESCRIBIRCADENASOFT_BUFFER?MAIN

?PR?LOADVERIFY_EEPROM?LINTECH                    -----    -----      -----    -----      0003H    0010H
  +--> ?CO?LINTECH
  +--> ?PR?_DEBUG_TXT_TIBBO?TIBBO
  +--> ?PR?_DEBUGBUFFERMF?TIBBO
  +--> ?PR?_ESCRIBIRCADENASOFT_BUFFER?MAIN

?PR?_RD_MF?LINTECH                               -----    -----      -----    -----      0003H    0012H
  +--> ?CO?LINTECH
  +--> ?PR?_DEBUG_TXT_TIBBO?TIBBO
  +--> ?PR?_DEBUG_CHR_TIBBO?TIBBO
  +--> ?PR?_DEBUGBUFFERMF?TIBBO
  +--> ?PR?_ESCRIBIRCADENASOFT_BUFFER?MAIN

?PR?_WR_MF?LINTECH                               -----    -----      -----    -----      0003H    0025H
  +--> ?CO?LINTECH
  +--> ?PR?_DEBUG_TXT_TIBBO?TIBBO
  +--> ?PR?_DEBUG_CHR_TIBBO?TIBBO
  +--> ?PR?_DEBUGBUFFERMF?TIBBO
  +--> ?PR?_ESCRIBIRCADENASOFT_BUFFER?MAIN

?PR?ENTREGA_CARD_CAPTURA?VERIFICADOR             -----    -----      -----    -----      0003H    0001H
  +--> ?CO?VERIFICADOR
  +--> ?PR?_DEBUG_TXT_TIBBO?TIBBO
  +--> ?PR?SEL_SENSOR2?IO_SENSORES
  +--> ?PR?VALIDASENSOR?IO_SENSORES
  +--> ?PR?VALIDA_SENSOR1_AUTO?IO_SENSORES

BL51 BANKED LINKER/LOCATER V6.22.2.0                                                  09/15/2020  15:49:49  PAGE 19


?PR?_SEND_PTO_PARALELO?VERIFICADOR               -----    -----      -----    -----      0003H    0004H
  +--> ?PR?_ARMAR_TRAMA_PTO_PARALELO_EXPEDID...
  +--> ?PR?_ARMAR_TRAMA_PTO_PARALELO_EXPEDID...
  +--> ?PR?INCREMENTE_TICKET?EEPROM
  +--> ?PR?_SEND_PORT?PTO_PARALELO
  +--> ?CO?VERIFICADOR
  +--> ?PR?_DEBUG_TXT_TIBBO?TIBBO
  +--> ?PR?_DEBUGBUFFERMF?TIBBO
  +--> ?PR?CLEAR_PLACA?MONITOR

?PR?_ARMAR_TRAMA_PTO_PARALELO_EXPEDID...         -----    -----      -----    -----      0007H    0006H
  +--> ?PR?_BLOCK_READ_CLOCK_HEX?CLOCK
  +--> ?PR?_RD_EEPROM?EEPROM

?PR?_ARMAR_TRAMA_PTO_PARALELO_EXPEDID...         -----    -----      -----    -----      0007H    000FH
  +--> ?PR?LEE_NO_TICKET?EEPROM
  +--> ?PR?_STRCAT?STRCAT
  +--> ?PR?_STRLEN?STRLEN
  +--> ?PR?_BLOCK_READ_CLOCK_HEX?CLOCK
  +--> ?PR?_RD_EEPROM?EEPROM

?PR?INCREMENTE_TICKET?EEPROM                     -----    -----      -----    -----      0007H    000BH
  +--> ?PR?READ_EEPROM_TICKET?EEPROM
  +--> ?CO?EEPROM
  +--> ?PR?PRINTF?PRINTF
  +--> ?PR?_WRITE_EEPROM_TICKET?EEPROM

?PR?_WRITE_EEPROM_TICKET?EEPROM                  -----    -----      -----    -----      0016H    000BH
  +--> ?CO?EEPROM
  +--> ?PR?_DEBUG_TXT_TIBBO?TIBBO
  +--> ?PR?_ATOL?ATOL
  +--> ?PR?_DEBUG_CHR_TIBBO?TIBBO
  +--> ?PR?_WR_EEPROM?EEPROM

?PR?_ATOL?ATOL                                   0020H.0  0000H.1    -----    -----      0021H    0007H
  +--> ?PR?_ISSPACE?ISSPACE
  +--> ?PR?_ISDIGIT?ISDIGIT

?PR?_SEND_PORT?PTO_PARALELO                      -----    -----      -----    -----      0016H    000AH
  +--> ?PR?PULSO_BUS?PTO_PARALELO
  +--> ?PR?_DELAY_20US?DELAY

?PR?_WAIT_PLACA?VERIFICADOR                      -----    -----      -----    -----      0003H    0005H
  +--> ?PR?RX_MONITOR?MONITOR
  +--> ?PR?CLAVE_SEGURIDAD_S2?LINTECH
  +--> ?PR?_LOAD_SECUENCIA_EXPEDIDOR?VERIFIC...

?PR?CLAVE_SEGURIDAD_S2?LINTECH                   -----    -----      -----    -----      0008H    0016H
  +--> ?CO?LINTECH
  +--> ?PR?_DEBUG_TXT_TIBBO?TIBBO
  +--> ?PR?_DEBUGBUFFERMF?TIBBO
  +--> ?PR?_ESCRIBIRCADENASOFT_BUFFER?MAIN

?PR?UNIQUE_IDENTIFIER_UID?LINTECH                -----    -----      -----    -----      0003H    000BH
  +--> ?CO?LINTECH
  +--> ?PR?_DEBUG_TXT_TIBBO?TIBBO
  +--> ?PR?_DEBUGBUFFERMF?TIBBO
BL51 BANKED LINKER/LOCATER V6.22.2.0                                                  09/15/2020  15:49:49  PAGE 20


  +--> ?PR?_ESCRIBIRCADENASOFT_BUFFER?MAIN

?PR?_PREGUNTA_LPR?VERIFICADOR                    -----    -----      -----    -----      0003H    0004H
  +--> ?PR?_RD_EEPROM?EEPROM
  +--> ?PR?_ARMAR_TRAMA_MONITOR?VERIFICADOR
  +--> ?PR?_DEBUG_TXT_TIBBO?TIBBO

?PR?_ARMAR_TRAMA_MONITOR?VERIFICADOR             -----    -----      -----    -----      0007H    000FH
  +--> ?PR?DIR_BOARD?IO_SENSORES
  +--> ?PR?LEE_NO_TICKET?EEPROM
  +--> ?PR?_STRCAT?STRCAT
  +--> ?PR?_BYTEHEX_DECIMAL?CLOCK
  +--> ?PR?_STRLEN?STRLEN
  +--> ?PR?_TWO_BYTEHEX_DECIMAL?CLOCK
  +--> ?PR?_BLOCK_READ_CLOCK_ASCII?CLOCK

?PR?DIR_BOARD?IO_SENSORES                        -----    -----      -----    -----      0033H    0001H
  +--> ?PR?SEL_DIR1?IO_SENSORES
  +--> ?PR?SEL_DIR2?IO_SENSORES
  +--> ?PR?_RD_EEPROM?EEPROM

?PR?_BYTEHEX_DECIMAL?CLOCK                       -----    -----      -----    -----      0016H    0001H

?PR?_TWO_BYTEHEX_DECIMAL?CLOCK                   -----    -----      -----    -----      0016H    000CH
  +--> ?PR?_POW?POW

?PR?_POW?POW                                     -----    -----      -----    -----      0022H    000AH
  +--> ?PR?LOG?LOG
  +--> ?PR?EXP?EXP

?PR?LOG?LOG                                      0020H.0  0000H.1    -----    -----      002CH    0004H

?PR?_VALIDA_TIPO_TARJETA?VERIFICADOR             -----    -----      -----    -----      0003H    0007H
  +--> ?CO?VERIFICADOR
  +--> ?PR?_DEBUG_TXT_TIBBO?TIBBO
  +--> ?PR?_RD_EEPROM?EEPROM
  +--> ?PR?_TARJETA_MENSUAL?VERIFICADOR
  +--> ?PR?_SEND_PORTERR?PTO_PARALELO
  +--> ?PR?_PANTALLALCD?PANTALLAS
  +--> ?PR?CAPTURA_EXPULSA?VERIFICADOR
  +--> ?PR?_TARJETA_ROTACION?VERIFICADOR

?PR?_TARJETA_MENSUAL?VERIFICADOR                 -----    -----      -----    -----      000AH    0007H
  +--> ?PR?_HORARIOS?VERIFICADOR
  +--> ?PR?_CHECK_FECHAOUT?CLOCK
  +--> ?PR?_VALIDA_VEHICULO_CARD_MENSUAL?VER...
  +--> ?PR?CAPTURA_EXPULSA?VERIFICADOR
  +--> ?CO?VERIFICADOR
  +--> ?PR?_DEBUG_TXT_TIBBO?TIBBO
  +--> ?PR?_ARMAR_TRAMA_TARJETA_SECTOR1_BLOQ...
  +--> ?PR?_SEND_PORTERR?PTO_PARALELO
  +--> ?PR?_PANTALLALCD?PANTALLAS

?PR?_HORARIOS?VERIFICADOR                        -----    -----      -----    -----      0011H    0013H
  +--> ?PR?ADDR_HORARIOS?PROG
  +--> ?PR?_RD_EEPROM?EEPROM
  +--> ?PR?_LEE_CLK?CLOCK
BL51 BANKED LINKER/LOCATER V6.22.2.0                                                  09/15/2020  15:49:49  PAGE 21


  +--> ?CO?VERIFICADOR
  +--> ?PR?_DEBUG_TXT_TIBBO?TIBBO
  +--> ?PR?_DEBUG_CHR_TIBBO?TIBBO
  +--> ?PR?_BLOQUE_HORARIO?VERIFICADOR
  +--> ?PR?_PANTALLALCD?PANTALLAS

?PR?_BLOQUE_HORARIO?VERIFICADOR                  -----    -----      -----    -----      0024H    0007H
  +--> ?CO?VERIFICADOR
  +--> ?PR?_DEBUG_TXT_TIBBO?TIBBO
  +--> ?PR?_LEE_CLK?CLOCK
  +--> ?PR?_DEBUG_CHR_TIBBO?TIBBO
  +--> ?PR?_HORA_MAXIMA?VERIFICADOR
  +--> ?PR?_EN_HORARIO?VERIFICADOR
  +--> ?PR?_RD_EEPROM?EEPROM
  +--> ?PR?_SEND_PORTERR?PTO_PARALELO
  +--> ?PR?_PANTALLALCD?PANTALLAS

?PR?_HORA_MAXIMA?VERIFICADOR                     -----    -----      -----    -----      0030H    0008H
  +--> ?PR?_RD_EEPROM?EEPROM
  +--> ?PR?_DEBUG_CHR_TIBBO?TIBBO
  +--> ?CO?VERIFICADOR
  +--> ?PR?_DEBUG_TXT_TIBBO?TIBBO

?PR?_EN_HORARIO?VERIFICADOR                      -----    -----      -----    -----      002BH    0005H
  +--> ?CO?VERIFICADOR
  +--> ?PR?_DEBUG_TXT_TIBBO?TIBBO
  +--> ?PR?_HORA_MAXIMA?VERIFICADOR

?PR?_VALIDA_VEHICULO_CARD_MENSUAL?VER...         -----    -----      -----    -----      0011H    0004H
  +--> ?CO?VERIFICADOR
  +--> ?PR?_DEBUG_TXT_TIBBO?TIBBO
  +--> ?PR?_RD_EEPROM?EEPROM
  +--> ?PR?_SEND_PORTERR?PTO_PARALELO

?PR?_ARMAR_TRAMA_TARJETA_SECTOR1_BLOQ...         -----    -----      -----    -----      0011H    0006H
  +--> ?PR?_BLOCK_READ_CLOCK_HEX?CLOCK
  +--> ?PR?DIR_BOARD?IO_SENSORES

?PR?_TARJETA_ROTACION?VERIFICADOR                -----    -----      -----    -----      000AH    0006H
  +--> ?PR?_ARMAR_TRAMA_TARJETA_SECTOR1_BLOQ...

?PR?ANALIZA_PRESENCIA_ROTACION?VERIFI...         -----    -----      -----    -----      0003H    0001H
  +--> ?PR?VALIDASENSORESPASO?IO_SENSORES
  +--> ?PR?_SEND_PORTERR?PTO_PARALELO
  +--> ?PR?_PANTALLALCD?PANTALLAS

?PR?POWER_OFF?LINTECH                            -----    -----      -----    -----      0003H    000BH
  +--> ?CO?LINTECH
  +--> ?PR?_DEBUG_TXT_TIBBO?TIBBO
  +--> ?PR?_DEBUGBUFFERMF?TIBBO
  +--> ?PR?_ESCRIBIRCADENASOFT_BUFFER?MAIN

?PR?_RECIBE_PORT?PTO_PARALELO                    -----    -----      -----    -----      0002H    0008H
  +--> ?PR?OFF_TIMER0_INTERRUP?MAIN
  +--> ?PR?ON_TIMER0_INTERRUP?MAIN

?PR?_DEBUG_PTO_PARALELO?TIBBO                    -----    -----      -----    -----      0002H    0004H
BL51 BANKED LINKER/LOCATER V6.22.2.0                                                  09/15/2020  15:49:49  PAGE 22


  +--> ?PR?DEBUG_DIVIDIR_TEXTO?TIBBO
  +--> ?CO?TIBBO
  +--> ?PR?_DEBUG_TXT_TIBBO?TIBBO
  +--> ?PR?_DEBUGBUFFERMF?TIBBO

?PR?_VALIDA_TRAMA_PTO?ACCESCAN                   -----    -----      -----    -----      0002H    000FH
  +--> ?PR?_VALIDAR_CLK?CLOCK
  +--> ?PR?_BLOCK_WRITE_CLOCK_ASCII?CLOCK
  +--> ?PR?RELOJ_PANTALLA_LCD?PANTALLAS
  +--> ?PR?_PANTALLALCD?PANTALLAS
  +--> ?CO?ACCESCAN
  +--> ?PR?_DEBUG_TXT_TIBBO?TIBBO
  +--> ?PR?_BYTEHEX_DECIMAL?CLOCK
  +--> ?PR?_TWO_BYTEHEX_DECIMAL?CLOCK
  +--> ?PR?VALIDASENSORESPASO?IO_SENSORES
  +--> ?PR?_CMD_LPR_SALIDA_WIEGAND?ACCESCAN
  +--> ?PR?_PANTALLALCD_LINEA_2?PANTALLAS
  +--> ?PR?_GRABA_SERIE?EEPROM

?PR?_BLOCK_WRITE_CLOCK_ASCII?CLOCK               -----    -----      -----    -----      0011H    0003H
  +--> ?PR?_TWO_ONE?CLOCK
  +--> ?PR?_WR_CLK?CLOCK

?PR?_WR_CLK?CLOCK                                -----    -----      -----    -----      0014H    0002H
  +--> ?PR?_DELAY_20US?DELAY
  +--> ?PR?_EB_CLK?CLOCK

?PR?RELOJ_PANTALLA_LCD?PANTALLAS                 -----    -----      -----    -----      0011H    000DH
  +--> ?CO?PANTALLAS
  +--> ?PR?_BLOCK_READ_CLOCK?CLOCK
  +--> ?PR?_LCD_TXT_NUM_CHAR?PANTALLAS
  +--> ?PR?RASPBERRY_DATA1?PANTALLAS

?PR?_BLOCK_READ_CLOCK?CLOCK                      -----    -----      -----    -----      001EH    0003H
  +--> ?PR?_LEE_CLK?CLOCK

?PR?_LCD_TXT_NUM_CHAR?PANTALLAS                  -----    -----      -----    -----      001EH    0006H
  +--> ?PR?_TX_CHRLCD?PANTALLAS

?PR?_CMD_LPR_SALIDA_WIEGAND?ACCESCAN             -----    -----      -----    -----      0011H    0022H
  +--> ?PR?DIR_BOARD?IO_SENSORES
  +--> ?PR?_BLOCK_READ_CLOCK_ASCII?CLOCK
  +--> ?PR?_MONITOR_CHR?ACCESCAN

?PR?_MONITOR_CHR?ACCESCAN                        -----    -----      -----    -----      0033H    0005H
  +--> ?PR?_TX_AUX?TIBBO

?PR?_GRABA_SERIE?EEPROM                          -----    -----      -----    -----      0011H    0005H
  +--> ?CO?EEPROM
  +--> ?PR?_DEBUG_TXT_TIBBO?TIBBO
  +--> ?PR?_WRITE_EEPROM_TICKET?EEPROM
  +--> ?PR?_WR_EEPROM?EEPROM

?PR?MSJ_LCD_INFORMATIVO?IO_SENSORES              -----    -----      -----    -----      0002H    0001H
  +--> ?PR?SEL_FUNCION?IO_SENSORES
  +--> ?PR?LOAD_AND_SEND_INFO_RELOJ?PTO_PARA...
  +--> ?PR?LOAD_AND_SEND_ID_COD?PTO_PARALELO
BL51 BANKED LINKER/LOCATER V6.22.2.0                                                  09/15/2020  15:49:49  PAGE 23


  +--> ?PR?_RD_EEPROM?EEPROM
  +--> ?PR?_SEND_PORTERR?PTO_PARALELO

?PR?LOAD_AND_SEND_INFO_RELOJ?PTO_PARA...         -----    -----      -----    -----      0003H    000BH
  +--> ?PR?_BLOCK_READ_CLOCK?CLOCK
  +--> ?PR?_LEE_CLK?CLOCK
  +--> ?PR?_SEND_PORT?PTO_PARALELO

?PR?LOAD_AND_SEND_ID_COD?PTO_PARALELO            -----    -----      -----    -----      0003H    0013H
  +--> ?PR?_RD_EEPROM?EEPROM
  +--> ?CO?PTO_PARALELO
  +--> ?PR?PRINTF?PRINTF
  +--> ?PR?_SEND_PORT?PTO_PARALELO



SYMBOL TABLE OF MODULE:  .\Objects\expedidor_v_01_raspberry (MAIN)

  VALUE           TYPE          NAME
  ----------------------------------

  -------         MODULE        MAIN
  C:0000H         SYMBOL        _ICE_DUMMY_
  D:0080H         PUBLIC        P0
  D:0090H         PUBLIC        P1
  C:ACACH         PUBLIC        timer0_int
  D:00B0H         PUBLIC        P3
  B:00A8H.7       PUBLIC        EA
  C:B0A9H         PUBLIC        off_Timer0_Interrup
  X:016AH         PUBLIC        ValTimeOutCom
  X:016BH         PUBLIC        Buffer_Rta_Lintech
  X:019DH         PUBLIC        Timer_wait
  X:019EH         PUBLIC        g_cContByteRx
  B:0080H.0       PUBLIC        rx_ip
  B:0080H.3       PUBLIC        Atascado
  C:997AH         PUBLIC        main
  X:019FH         PUBLIC        Timer_tivo
  C:A474H         PUBLIC        variable_inicio
  B:0090H.7       PUBLIC        lock
  I:0022H         PUBLIC        rbuf
  C:B09AH         PUBLIC        on_Timer0_Interrup
  I:0054H         PUBLIC        tbuf
  B:0090H.1       PUBLIC        DataIn
  D:0089H         PUBLIC        TMOD
  X:01A1H         PUBLIC        USE_LPR
  X:01A2H         PUBLIC        Debug_Tibbo
  X:01A3H         PUBLIC        Raspberry
  X:01A4H         PUBLIC        SIN_COBRO
  X:01A6H         PUBLIC        Tipo_Vehiculo
  B:00B0H.3       PUBLIC        busy
  C:B005H         PUBLIC        ini_timer
  B:00A8H.1       PUBLIC        ET0
  B:0088H.5       PUBLIC        TF0
  D:008CH         PUBLIC        TH0
  X:01A7H         PUBLIC        ACK
  X:01A8H         PUBLIC        g_cEstadoComSoft
  D:008AH         PUBLIC        TL0
BL51 BANKED LINKER/LOCATER V6.22.2.0                                                  09/15/2020  15:49:49  PAGE 24


  B:0088H.4       PUBLIC        TR0
  C:B015H         PUBLIC        inicia_board
  X:01A9H         PUBLIC        T_GRACIA
  B:0080H.7       PUBLIC        sel_com
  X:01ABH         PUBLIC        STX_LINTECH
  C:B034H         PUBLIC        _getkey
  X:01ACH         PUBLIC        ETX
  C:A6C4H         PUBLIC        _EscribirCadenaSoft_buffer
  B:0021H.1       PUBLIC        buffer_ready
  C:A960H         PUBLIC        _putchar
  B:0021H.2       PUBLIC        placa_ready
  -------         PROC          TIMER0_INT
  C:ACACH         LINE#         16
  C:ACB2H         LINE#         19
  C:ACB8H         LINE#         20
  C:ACBDH         LINE#         21
  C:ACBDH         LINE#         22
  C:ACC3H         LINE#         23
  C:ACC3H         LINE#         25
  C:ACD1H         LINE#         26
  C:ACD3H         LINE#         28
  -------         ENDPROC       TIMER0_INT
  -------         PROC          INI_TIMER
  C:B005H         LINE#         31
  C:B005H         LINE#         32
  C:B005H         LINE#         34
  C:B00DH         LINE#         36
  C:B010H         LINE#         37
  C:B012H         LINE#         38
  C:B014H         LINE#         40
  -------         ENDPROC       INI_TIMER
  -------         PROC          ON_TIMER0_INTERRUP
  C:B09AH         LINE#         43
  C:B09AH         LINE#         44
  C:B09AH         LINE#         45
  C:B09CH         LINE#         46
  C:B09EH         LINE#         48
  -------         ENDPROC       ON_TIMER0_INTERRUP
  -------         PROC          OFF_TIMER0_INTERRUP
  C:B0A9H         LINE#         51
  C:B0A9H         LINE#         52
  C:B0A9H         LINE#         53
  C:B0ABH         LINE#         55
  -------         ENDPROC       OFF_TIMER0_INTERRUP
  -------         PROC          _GETKEY
  -------         DO            
  D:0006H         SYMBOL        k
  -------         ENDDO         
  C:B034H         LINE#         63
  C:B034H         LINE#         64
  C:B034H         LINE#         68
  C:B034H         LINE#         69
  C:B037H         LINE#         70
  C:B037H         LINE#         71
  C:B03FH         LINE#         73
  C:B03FH         LINE#         74
  -------         ENDPROC       _GETKEY
BL51 BANKED LINKER/LOCATER V6.22.2.0                                                  09/15/2020  15:49:49  PAGE 25


  -------         PROC          _PUTCHAR
  X:00A8H         SYMBOL        c
  -------         DO            
  X:00A9H         SYMBOL        i
  -------         ENDDO         
  C:A960H         LINE#         78
  C:A965H         LINE#         79
  C:A965H         LINE#         82
  C:A974H         LINE#         83
  C:A974H         LINE#         84
  C:A98AH         LINE#         85
  C:A98AH         LINE#         87
  C:A998H         LINE#         88
  C:A998H         LINE#         90
  C:A99DH         LINE#         91
  -------         ENDPROC       _PUTCHAR
  -------         PROC          _ESCRIBIRCADENASOFT_BUFFER
  X:0028H         SYMBOL        buffer
  X:002BH         SYMBOL        tamano_cadena
  -------         DO            
  X:002CH         SYMBOL        i
  X:002DH         SYMBOL        d
  -------         ENDDO         
  C:A6C4H         LINE#         95
  C:A6D2H         LINE#         96
  C:A6D2H         LINE#         98
  C:A6E0H         LINE#         99
  C:A6E0H         LINE#         100
  C:A6F7H         LINE#         101
  C:A701H         LINE#         102
  C:A709H         LINE#         103
  -------         ENDPROC       _ESCRIBIRCADENASOFT_BUFFER
  -------         PROC          INICIA_BOARD
  C:B015H         LINE#         108
  C:B015H         LINE#         109
  C:B015H         LINE#         110
  C:B018H         LINE#         111
  C:B01BH         LINE#         112
  C:B01EH         LINE#         113
  C:B020H         LINE#         114
  C:B022H         LINE#         115
  C:B024H         LINE#         117
  -------         ENDPROC       INICIA_BOARD
  -------         PROC          VARIABLE_INICIO
  C:A474H         LINE#         122
  C:A474H         LINE#         123
  C:A474H         LINE#         126
  C:A485H         LINE#         127
  C:A496H         LINE#         128
  C:A4A4H         LINE#         129
  C:A4B2H         LINE#         130
  C:A4C0H         LINE#         132
  -------         ENDPROC       VARIABLE_INICIO
  -------         PROC          MAIN
  -------         DO            
  X:0142H         SYMBOL        buffer
  X:0000H         SYMBOL        Estado_Comunicacion_Secuencia_MF
BL51 BANKED LINKER/LOCATER V6.22.2.0                                                  09/15/2020  15:49:49  PAGE 26


  X:0001H         SYMBOL        Length_trama
  -------         ENDDO         
  C:997AH         LINE#         140
  C:997AH         LINE#         141
  C:997AH         LINE#         144
  C:997FH         LINE#         148
  C:9982H         LINE#         149
  C:9985H         LINE#         150
  C:9988H         LINE#         151
  C:998BH         LINE#         152
  C:998EH         LINE#         153
  C:9990H         LINE#         155
  C:9993H         LINE#         156
  C:999AH         LINE#         157
  C:999DH         LINE#         159
  C:99A2H         LINE#         161
  C:99A5H         LINE#         163
  C:99A8H         LINE#         164
  C:99A8H         LINE#         165
  C:99ABH         LINE#         166
  C:99ABH         LINE#         169
  C:99AEH         LINE#         170
  C:99B4H         LINE#         171
  C:99BAH         LINE#         173
  C:99BAH         LINE#         174
  C:99BAH         LINE#         177
  C:99BDH         LINE#         178
  C:99BDH         LINE#         179
  C:99C0H         LINE#         180
  C:99C0H         LINE#         184
  C:99CDH         LINE#         189
  C:99D0H         LINE#         190
  C:99D0H         LINE#         192
  C:99DFH         LINE#         194
  C:99E8H         LINE#         196
  C:99F6H         LINE#         198
  C:99F6H         LINE#         199
  C:99F9H         LINE#         203
  -------         ENDPROC       MAIN
  -------         ENDMOD        MAIN

  -------         MODULE        ACCESCAN
  C:0000H         SYMBOL        _ICE_DUMMY_
  D:0080H         PUBLIC        P0
  D:0090H         PUBLIC        P1
  B:0080H.2       PUBLIC        led_err_imp
  C:A85FH         PUBLIC        _Monitor_chr
  B:0080H.3       PUBLIC        Atascado
  B:0090H.7       PUBLIC        lock
  C:3E91H         PUBLIC        _Valida_Trama_Pto
  C:7C80H         PUBLIC        _Cmd_LPR_Salida_wiegand
  -------         PROC          _VALIDA_TRAMA_PTO
  X:0002H         SYMBOL        buffer
  X:0005H         SYMBOL        length_trama
  -------         DO            
  X:020FH         SYMBOL        cont
  X:0006H         SYMBOL        buff
BL51 BANKED LINKER/LOCATER V6.22.2.0                                                  09/15/2020  15:49:49  PAGE 27


  -------         ENDDO         
  C:3E91H         LINE#         85
  C:3E9FH         LINE#         86
  C:3E9FH         LINE#         92
  C:3ED5H         LINE#         93
  C:3ED5H         LINE#         94
  C:3EEAH         LINE#         95
  C:3EEAH         LINE#         96
  C:3EFDH         LINE#         98
  C:3F00H         LINE#         100
  C:3F00H         LINE#         102
  C:3F00H         LINE#         104
  C:3F12H         LINE#         105
  C:3F12H         LINE#         106
  C:3F18H         LINE#         107
  C:3F25H         LINE#         108
  C:3F25H         LINE#         109
  C:3F2AH         LINE#         110
  C:3F2CH         LINE#         111
  C:3F31H         LINE#         112
  C:3F33H         LINE#         113
  C:3F35H         LINE#         114
  C:3F39H         LINE#         115
  C:3F39H         LINE#         116
  C:3F3AH         LINE#         118
  C:3F52H         LINE#         119
  C:3F52H         LINE#         121
  C:3F5FH         LINE#         122
  C:3F5FH         LINE#         123
  C:3F61H         LINE#         124
  C:3F63H         LINE#         125
  C:3F65H         LINE#         126
  C:3F67H         LINE#         127
  C:3F67H         LINE#         129
  C:3F8DH         LINE#         130
  C:3F8DH         LINE#         131
  C:3F91H         LINE#         132
  C:3F96H         LINE#         133
  C:3F9FH         LINE#         134
  C:3FA4H         LINE#         135
  C:3FA4H         LINE#         138
  C:3FA5H         LINE#         141
  C:3FB7H         LINE#         142
  C:3FB7H         LINE#         143
  C:3FB9H         LINE#         144
  C:3FBCH         LINE#         146
  C:3FCEH         LINE#         147
  C:3FCEH         LINE#         148
  C:3FD0H         LINE#         149
  C:3FD3H         LINE#         151
  C:3FEDH         LINE#         152
  C:3FEDH         LINE#         153
  C:3FEFH         LINE#         154
  C:3FF2H         LINE#         157
  C:400CH         LINE#         158
  C:400CH         LINE#         159
  C:400EH         LINE#         160
BL51 BANKED LINKER/LOCATER V6.22.2.0                                                  09/15/2020  15:49:49  PAGE 28


  C:4010H         LINE#         163
  C:402AH         LINE#         164
  C:402AH         LINE#         165
  C:402CH         LINE#         166
  C:402EH         LINE#         170
  C:4048H         LINE#         171
  C:4048H         LINE#         172
  C:404AH         LINE#         173
  C:404CH         LINE#         176
  C:4066H         LINE#         177
  C:4066H         LINE#         178
  C:4068H         LINE#         179
  C:406AH         LINE#         181
  C:4084H         LINE#         182
  C:4084H         LINE#         183
  C:4089H         LINE#         184
  C:4089H         LINE#         186
  C:40B9H         LINE#         187
  C:40B9H         LINE#         188
  C:40C7H         LINE#         189
  C:40CAH         LINE#         192
  C:410DH         LINE#         193
  C:410DH         LINE#         195
  C:4122H         LINE#         196
  C:4128H         LINE#         197
  C:4152H         LINE#         200
  C:415AH         LINE#         201
  C:415AH         LINE#         204
  C:4161H         LINE#         205
  C:4161H         LINE#         206
  C:4166H         LINE#         207
  C:4166H         LINE#         208
  C:4168H         LINE#         210
  C:4168H         LINE#         211
  C:4171H         LINE#         212
  C:4179H         LINE#         213
  C:4179H         LINE#         218
  C:417BH         LINE#         221
  C:417BH         LINE#         224
  C:4182H         LINE#         225
  C:4182H         LINE#         226
  C:4187H         LINE#         227
  C:4187H         LINE#         228
  C:4192H         LINE#         232
  C:4192H         LINE#         233
  C:4192H         LINE#         235
  C:41BFH         LINE#         236
  C:41BFH         LINE#         237
  C:41CEH         LINE#         239
  C:41CEH         LINE#         241
  -------         ENDPROC       _VALIDA_TRAMA_PTO
  -------         PROC          _MONITOR_CHR
  X:0033H         SYMBOL        str
  X:0036H         SYMBOL        num_char
  -------         DO            
  X:0037H         SYMBOL        j
  -------         ENDDO         
BL51 BANKED LINKER/LOCATER V6.22.2.0                                                  09/15/2020  15:49:49  PAGE 29


  C:A85FH         LINE#         396
  C:A86DH         LINE#         397
  C:A86DH         LINE#         399
  C:A87BH         LINE#         400
  C:A87BH         LINE#         401
  C:A88DH         LINE#         402
  C:A897H         LINE#         403
  C:A89FH         LINE#         404
  -------         ENDPROC       _MONITOR_CHR
  -------         PROC          _CMD_LPR_SALIDA_WIEGAND
  X:0011H         SYMBOL        buffer
  -------         DO            
  X:0014H         SYMBOL        Buffer_Lpr
  X:0032H         SYMBOL        j
  -------         ENDDO         
  C:7C80H         LINE#         409
  C:7C8BH         LINE#         410
  C:7C8BH         LINE#         412
  C:7C91H         LINE#         413
  C:7C96H         LINE#         414
  C:7C9EH         LINE#         415
  C:7CA2H         LINE#         416
  C:7CABH         LINE#         417
  C:7CABH         LINE#         418
  C:7CBCH         LINE#         419
  C:7CBEH         LINE#         421
  C:7CBEH         LINE#         422
  C:7CCFH         LINE#         423
  C:7CCFH         LINE#         427
  C:7CE6H         LINE#         428
  C:7CE6H         LINE#         429
  C:7CF5H         LINE#         430
  C:7CFFH         LINE#         432
  C:7D07H         LINE#         433
  C:7D1BH         LINE#         435
  C:7D2BH         LINE#         436
  C:7D3CH         LINE#         437
  C:7D49H         LINE#         441
  -------         ENDPROC       _CMD_LPR_SALIDA_WIEGAND
  -------         ENDMOD        ACCESCAN

  -------         MODULE        CLOCK
  C:0000H         SYMBOL        _ICE_DUMMY_
  C:A8D4H         PUBLIC        _two_one
  D:0090H         PUBLIC        P1
  C:6B1AH         PUBLIC        _validar_clk
  C:AD30H         PUBLIC        _wr_clk
  C:8088H         PUBLIC        _check_fechaOut
  B:00D0H.7       PUBLIC        CY
  C:0003H         PUBLIC        p_ck
  C:925FH         PUBLIC        _hex_ascii
  X:0210H         PUBLIC        data_clk
  C:B05CH         PUBLIC        cond_ini_clock
  C:8151H         PUBLIC        _Block_read_Clock
  B:0090H.4       PUBLIC        sck
  C:8CE6H         PUBLIC        _Block_read_Clock_Hex
  C:59EDH         PUBLIC        _Block_read_clock_ascii
BL51 BANKED LINKER/LOCATER V6.22.2.0                                                  09/15/2020  15:49:49  PAGE 30


  C:A9BAH         PUBLIC        _hex_bcd
  C:AF04H         PUBLIC        _bcd_hex
  C:A1ABH         PUBLIC        _ByteHex_Decimal
  C:941CH         PUBLIC        _lee_clk
  B:0090H.5       PUBLIC        io
  C:9532H         PUBLIC        _Block_write_clock_ascii
  B:0090H.6       PUBLIC        rst
  C:A921H         PUBLIC        _eb_clk
  C:41CFH         PUBLIC        _Two_ByteHex_Decimal
  -------         PROC          P_CK
  C:0003H         LINE#         48
  C:0003H         LINE#         49
  C:0003H         LINE#         50
  C:0005H         LINE#         51
  C:0008H         LINE#         52
  C:000AH         LINE#         53
  -------         ENDPROC       P_CK
  -------         PROC          _EB_CLK
  X:00B5H         SYMBOL        dir_clk
  -------         DO            
  X:00B6H         SYMBOL        nbits
  -------         ENDDO         
  C:A921H         LINE#         55
  C:A926H         LINE#         57
  C:A92BH         LINE#         58
  C:A92BH         LINE#         59
  C:A934H         LINE#         60
  C:A937H         LINE#         61
  C:A937H         LINE#         62
  C:A939H         LINE#         63
  C:A93BH         LINE#         65
  C:A93BH         LINE#         66
  C:A93DH         LINE#         67
  C:A93DH         LINE#         68
  C:A940H         LINE#         69
  C:A95FH         LINE#         70
  -------         ENDPROC       _EB_CLK
  C:9412H         SYMBOL        L?0082
  -------         PROC          L?0081
  -------         ENDPROC       L?0081
  C:9412H         SYMBOL        L?0082
  -------         PROC          _LEE_CLK
  X:00B2H         SYMBOL        dir_clk
  -------         DO            
  X:00B3H         SYMBOL        nbits
  -------         ENDDO         
  C:941CH         LINE#         72
  C:9421H         LINE#         74
  C:9423H         LINE#         75
  C:942AH         LINE#         76
  C:9432H         LINE#         77
  C:944BH         LINE#         78
  C:944BH         LINE#         79
  C:944EH         LINE#         80
  C:944EH         LINE#         81
  C:9455H         LINE#         82
  C:945FH         LINE#         83
BL51 BANKED LINKER/LOCATER V6.22.2.0                                                  09/15/2020  15:49:49  PAGE 31


  C:9464H         LINE#         84
  C:9464H         LINE#         85
  C:9464H         LINE#         86
  C:9467H         LINE#         87
  C:9467H         LINE#         88
  C:946EH         LINE#         89
  C:947FH         LINE#         90
  C:947FH         LINE#         91
  C:9487H         LINE#         92
  C:9487H         LINE#         93
  C:9487H         LINE#         94
  C:948AH         LINE#         95
  C:949AH         LINE#         96
  C:949CH         LINE#         97
  C:94A1H         LINE#         98
  -------         ENDPROC       _LEE_CLK
  -------         PROC          _WR_CLK
  X:0014H         SYMBOL        dir_clk
  X:0015H         SYMBOL        byte
  C:AD30H         LINE#         100
  C:AD38H         LINE#         101
  C:AD3AH         LINE#         102
  C:AD41H         LINE#         103
  C:AD49H         LINE#         104
  C:AD52H         LINE#         105
  C:AD55H         LINE#         106
  C:AD57H         LINE#         108
  -------         ENDPROC       _WR_CLK
  C:A8A0H         SYMBOL        L?0077
  C:A8BEH         SYMBOL        L?0078
  -------         PROC          L?0076
  -------         ENDPROC       L?0076
  C:A8A0H         SYMBOL        L?0077
  C:A8BEH         SYMBOL        L?0078
  -------         PROC          _TWO_ONE
  D:0007H         SYMBOL        byte_h
  D:0005H         SYMBOL        byte_l
  -------         DO            
  D:0007H         SYMBOL        byte_out
  -------         ENDDO         
  C:A8D4H         LINE#         110
  C:A8D4H         LINE#         111
  C:A8D4H         LINE#         113
  C:A8D7H         LINE#         114
  C:A8DBH         LINE#         115
  C:A8DEH         LINE#         116
  C:A8E0H         LINE#         117
  C:A8E0H         LINE#         118
  -------         ENDPROC       _TWO_ONE
  -------         PROC          _VALIDAR_CLK
  D:0001H         SYMBOL        datos_clock
  -------         DO            
  D:0007H         SYMBOL        validador
  -------         ENDDO         
  C:6B1AH         LINE#         122
  C:6B1AH         LINE#         123
  C:6B1AH         LINE#         124
BL51 BANKED LINKER/LOCATER V6.22.2.0                                                  09/15/2020  15:49:49  PAGE 32


  C:6B1CH         LINE#         127
  C:6B31H         LINE#         128
  C:6B31H         LINE#         130
  C:6B49H         LINE#         131
  C:6B49H         LINE#         133
  C:6B61H         LINE#         134
  C:6B61H         LINE#         135
  C:6B79H         LINE#         136
  C:6B79H         LINE#         137
  C:6B91H         LINE#         138
  C:6B91H         LINE#         139
  C:6BA6H         LINE#         140
  C:6BA6H         LINE#         141
  C:6BB8H         LINE#         142
  C:6BB8H         LINE#         143
  C:6BCAH         LINE#         144
  C:6BCAH         LINE#         145
  C:6BDCH         LINE#         146
  C:6BDCH         LINE#         147
  C:6BEEH         LINE#         148
  C:6BEEH         LINE#         149
  C:6C00H         LINE#         150
  C:6C00H         LINE#         151
  C:6C10H         LINE#         152
  C:6C10H         LINE#         153
  C:6C10H         LINE#         154
  C:6C10H         LINE#         155
  C:6C11H         LINE#         157
  C:6C11H         LINE#         158
  C:6C13H         LINE#         159
  C:6C13H         LINE#         160
  C:6C14H         LINE#         162
  C:6C14H         LINE#         163
  C:6C16H         LINE#         165
  C:6C16H         LINE#         166
  C:6C17H         LINE#         168
  C:6C17H         LINE#         169
  C:6C19H         LINE#         171
  C:6C19H         LINE#         173
  C:6C1AH         LINE#         175
  C:6C1AH         LINE#         176
  C:6C1CH         LINE#         178
  C:6C1CH         LINE#         179
  C:6C1DH         LINE#         181
  C:6C1DH         LINE#         182
  C:6C1FH         LINE#         184
  C:6C1FH         LINE#         185
  C:6C20H         LINE#         187
  C:6C20H         LINE#         188
  C:6C22H         LINE#         190
  C:6C22H         LINE#         191
  C:6C23H         LINE#         193
  C:6C23H         LINE#         194
  C:6C25H         LINE#         196
  C:6C25H         LINE#         197
  C:6C25H         LINE#         199
  C:6C26H         LINE#         201
BL51 BANKED LINKER/LOCATER V6.22.2.0                                                  09/15/2020  15:49:49  PAGE 33


  C:6C26H         LINE#         202
  C:6C28H         LINE#         204
  C:6C28H         LINE#         206
  C:6C29H         LINE#         209
  C:6C29H         LINE#         210
  C:6C2BH         LINE#         212
  C:6C2BH         LINE#         214
  C:6C2CH         LINE#         217
  C:6C2CH         LINE#         218
  C:6C2EH         LINE#         220
  C:6C2EH         LINE#         222
  C:6C2EH         LINE#         224
  -------         ENDPROC       _VALIDAR_CLK
  -------         PROC          _BLOCK_WRITE_CLOCK_ASCII
  X:0011H         SYMBOL        datos_clock
  -------         DO            
  D:0007H         SYMBOL        temp
  -------         ENDDO         
  C:9532H         LINE#         230
  C:953DH         LINE#         232
  C:953DH         LINE#         237
  C:9547H         LINE#         238
  C:9547H         LINE#         239
  C:9547H         LINE#         240
  C:9547H         LINE#         242
  C:9551H         LINE#         243
  C:955BH         LINE#         244
  C:9565H         LINE#         245
  C:9565H         LINE#         246
  C:9565H         LINE#         247
  C:9565H         LINE#         249
  C:956FH         LINE#         250
  C:956FH         LINE#         251
  C:956FH         LINE#         252
  C:956FH         LINE#         254
  C:9579H         LINE#         255
  C:9579H         LINE#         256
  C:9579H         LINE#         257
  C:9579H         LINE#         259
  C:9583H         LINE#         260
  C:9583H         LINE#         261
  C:9583H         LINE#         262
  C:9583H         LINE#         264
  C:958DH         LINE#         265
  C:9597H         LINE#         266
  C:95A1H         LINE#         267
  C:95ABH         LINE#         269
  C:95BBH         LINE#         270
  -------         ENDPROC       _BLOCK_WRITE_CLOCK_ASCII
  -------         PROC          _BCD_HEX
  D:0007H         SYMBOL        l_data
  -------         DO            
  D:0006H         SYMBOL        temp
  D:0005H         SYMBOL        j
  -------         ENDDO         
  C:AF04H         LINE#         276
  C:AF04H         LINE#         277
BL51 BANKED LINKER/LOCATER V6.22.2.0                                                  09/15/2020  15:49:49  PAGE 34


  C:AF04H         LINE#         279
  C:AF06H         LINE#         280
  C:AF0AH         LINE#         281
  C:AF0DH         LINE#         282
  C:AF0FH         LINE#         283
  C:AF0FH         LINE#         284
  C:AF13H         LINE#         285
  C:AF1AH         LINE#         286
  C:AF1AH         LINE#         287
  C:AF1EH         LINE#         288
  C:AF21H         LINE#         289
  C:AF21H         LINE#         290
  C:AF21H         LINE#         291
  -------         ENDPROC       _BCD_HEX
  C:A9ABH         SYMBOL        L?0080
  -------         PROC          L?0079
  -------         ENDPROC       L?0079
  C:A9ABH         SYMBOL        L?0080
  -------         PROC          _HEX_BCD
  D:0007H         SYMBOL        byte
  -------         DO            
  D:0006H         SYMBOL        nibble_h
  D:0005H         SYMBOL        nibble_l
  D:0004H         SYMBOL        k
  D:0007H         SYMBOL        byte_out
  -------         ENDDO         
  C:A9BAH         LINE#         295
  C:A9BAH         LINE#         296
  C:A9BAH         LINE#         301
  C:A9BCH         LINE#         302
  C:A9BDH         LINE#         304
  C:A9C3H         LINE#         305
  C:A9C3H         LINE#         306
  C:A9C4H         LINE#         307
  C:A9C9H         LINE#         308
  C:A9C9H         LINE#         309
  C:A9CAH         LINE#         310
  C:A9CBH         LINE#         311
  C:A9CBH         LINE#         312
  C:A9CEH         LINE#         313
  C:A9D2H         LINE#         314
  C:A9D5H         LINE#         315
  C:A9D8H         LINE#         316
  C:A9DAH         LINE#         317
  C:A9DAH         LINE#         319
  -------         ENDPROC       _HEX_BCD
  -------         PROC          _HEX_ASCII
  X:005EH         SYMBOL        datos
  X:0061H         SYMBOL        fecha_asii
  -------         DO            
  D:0007H         SYMBOL        dato
  -------         ENDDO         
  C:925FH         LINE#         320
  C:926AH         LINE#         321
  C:926AH         LINE#         325
  C:926DH         LINE#         326
  C:9285H         LINE#         327
BL51 BANKED LINKER/LOCATER V6.22.2.0                                                  09/15/2020  15:49:49  PAGE 35


  C:929AH         LINE#         328
  C:929AH         LINE#         330
  C:929DH         LINE#         331
  C:92B8H         LINE#         332
  C:92C0H         LINE#         333
  C:92C0H         LINE#         335
  C:92C3H         LINE#         336
  C:92DEH         LINE#         337
  C:92E9H         LINE#         339
  -------         ENDPROC       _HEX_ASCII
  -------         PROC          _BYTEHEX_DECIMAL
  D:0001H         SYMBOL        buffer
  D:0005H         SYMBOL        valorhex
  -------         DO            
  X:0016H         SYMBOL        numero
  D:0007H         SYMBOL        centena
  D:0006H         SYMBOL        decena
  -------         ENDDO         
  C:A1ABH         LINE#         347
  C:A1ABH         LINE#         348
  C:A1ABH         LINE#         351
  C:A1ADH         LINE#         352
  C:A1AEH         LINE#         353
  C:A1B3H         LINE#         355
  C:A1C0H         LINE#         356
  C:A1C0H         LINE#         357
  C:A1C4H         LINE#         358
  C:A1C5H         LINE#         359
  C:A1C7H         LINE#         360
  C:A1CDH         LINE#         361
  C:A1D4H         LINE#         362
  C:A1E1H         LINE#         363
  C:A1E1H         LINE#         364
  C:A1E5H         LINE#         365
  C:A1E6H         LINE#         366
  C:A1E8H         LINE#         367
  C:A1EEH         LINE#         368
  C:A1F5H         LINE#         369
  C:A1FEH         LINE#         370
  C:A205H         LINE#         371
  -------         ENDPROC       _BYTEHEX_DECIMAL
  -------         PROC          _TWO_BYTEHEX_DECIMAL
  X:0016H         SYMBOL        buffer
  X:0019H         SYMBOL        id_h
  X:001AH         SYMBOL        id_l
  -------         DO            
  X:001BH         SYMBOL        valor
  D:0006H         SYMBOL        numero
  X:001DH         SYMBOL        temp
  X:001EH         SYMBOL        dmil
  X:001FH         SYMBOL        mil
  X:0020H         SYMBOL        centena
  X:0021H         SYMBOL        decena
  -------         ENDDO         
  C:41CFH         LINE#         378
  C:41DDH         LINE#         379
  C:41DDH         LINE#         383
BL51 BANKED LINKER/LOCATER V6.22.2.0                                                  09/15/2020  15:49:49  PAGE 36


  C:41E4H         LINE#         384
  C:41E8H         LINE#         385
  C:41EAH         LINE#         386
  C:41ECH         LINE#         387
  C:41EEH         LINE#         390
  C:41F3H         LINE#         391
  C:41F6H         LINE#         392
  C:41FCH         LINE#         394
  C:4257H         LINE#         395
  C:425FH         LINE#         396
  C:4262H         LINE#         397
  C:42BDH         LINE#         399
  C:42C5H         LINE#         400
  C:42C8H         LINE#         401
  C:42CEH         LINE#         402
  C:4329H         LINE#         403
  C:4331H         LINE#         404
  C:4334H         LINE#         405
  C:438FH         LINE#         406
  C:438FH         LINE#         408
  C:4398H         LINE#         409
  C:4398H         LINE#         410
  C:43A0H         LINE#         411
  C:43A6H         LINE#         412
  C:43A8H         LINE#         413
  C:43BEH         LINE#         414
  C:43C8H         LINE#         415
  C:43D1H         LINE#         416
  C:43D1H         LINE#         417
  C:43D9H         LINE#         418
  C:43DFH         LINE#         419
  C:43E1H         LINE#         420
  C:43F7H         LINE#         421
  C:4401H         LINE#         422
  C:440AH         LINE#         423
  C:440AH         LINE#         424
  C:4412H         LINE#         425
  C:4418H         LINE#         426
  C:441AH         LINE#         427
  C:4430H         LINE#         428
  C:443AH         LINE#         429
  C:4443H         LINE#         430
  C:4443H         LINE#         431
  C:444BH         LINE#         432
  C:4451H         LINE#         433
  C:4453H         LINE#         434
  C:4469H         LINE#         435
  C:4473H         LINE#         436
  C:4486H         LINE#         437
  C:4490H         LINE#         438
  -------         ENDPROC       _TWO_BYTEHEX_DECIMAL
  -------         PROC          _BLOCK_READ_CLOCK_ASCII
  X:0052H         SYMBOL        datos_clock
  -------         DO            
  D:0007H         SYMBOL        dato
  -------         ENDDO         
  C:59EDH         LINE#         444
BL51 BANKED LINKER/LOCATER V6.22.2.0                                                  09/15/2020  15:49:49  PAGE 37


  C:59F0H         LINE#         445
  C:59F0H         LINE#         451
  C:59F3H         LINE#         452
  C:5A0BH         LINE#         453
  C:5A15H         LINE#         454
  C:5A2AH         LINE#         455
  C:5A34H         LINE#         458
  C:5A39H         LINE#         459
  C:5A51H         LINE#         460
  C:5A5BH         LINE#         461
  C:5A70H         LINE#         462
  C:5A7AH         LINE#         465
  C:5A7FH         LINE#         466
  C:5A97H         LINE#         467
  C:5AA1H         LINE#         468
  C:5AB6H         LINE#         469
  C:5AC0H         LINE#         473
  C:5AC5H         LINE#         474
  C:5ADDH         LINE#         475
  C:5AE7H         LINE#         476
  C:5AFCH         LINE#         477
  C:5B06H         LINE#         480
  C:5B0BH         LINE#         481
  C:5B23H         LINE#         482
  C:5B2DH         LINE#         483
  C:5B42H         LINE#         484
  C:5B4CH         LINE#         485
  -------         ENDPROC       _BLOCK_READ_CLOCK_ASCII
  -------         PROC          _BLOCK_READ_CLOCK_HEX
  X:00AFH         SYMBOL        datos_clock
  C:8CE6H         LINE#         489
  C:8CE9H         LINE#         490
  C:8CE9H         LINE#         493
  C:8CFEH         LINE#         494
  C:8D08H         LINE#         496
  C:8D1FH         LINE#         497
  C:8D29H         LINE#         499
  C:8D40H         LINE#         500
  C:8D4AH         LINE#         502
  C:8D61H         LINE#         503
  C:8D6BH         LINE#         505
  C:8D82H         LINE#         506
  -------         ENDPROC       _BLOCK_READ_CLOCK_HEX
  -------         PROC          _BLOCK_READ_CLOCK
  X:001EH         SYMBOL        datos_clock
  C:8151H         LINE#         533
  C:8154H         LINE#         534
  C:8154H         LINE#         536
  C:8166H         LINE#         537
  C:8170H         LINE#         539
  C:8184H         LINE#         540
  C:818EH         LINE#         542
  C:81A2H         LINE#         543
  C:81ACH         LINE#         545
  C:81C0H         LINE#         546
  C:81CAH         LINE#         548
  C:81DEH         LINE#         549
BL51 BANKED LINKER/LOCATER V6.22.2.0                                                  09/15/2020  15:49:49  PAGE 38


  C:81E8H         LINE#         551
  C:81FCH         LINE#         552
  C:8206H         LINE#         553
  -------         ENDPROC       _BLOCK_READ_CLOCK
  -------         PROC          COND_INI_CLOCK
  C:B05CH         LINE#         556
  C:B05CH         LINE#         557
  C:B05CH         LINE#         558
  C:B05EH         LINE#         559
  C:B060H         LINE#         560
  C:B062H         LINE#         561
  -------         ENDPROC       COND_INI_CLOCK
  -------         PROC          _CHECK_FECHAOUT
  X:009DH         SYMBOL        buffer
  -------         DO            
  X:00A0H         SYMBOL        fecha_inicio
  X:00A4H         SYMBOL        fecha_fin
  X:00A8H         SYMBOL        datos_clk
  X:00AEH         SYMBOL        temp
  -------         ENDDO         
  C:8088H         LINE#         571
  C:8093H         LINE#         572
  C:8093H         LINE#         578
  C:809CH         LINE#         579
  C:80CBH         LINE#         580
  C:811EH         LINE#         583
  C:813EH         LINE#         584
  C:813EH         LINE#         585
  C:8144H         LINE#         586
  C:8146H         LINE#         588
  C:8146H         LINE#         589
  C:814BH         LINE#         590
  C:814BH         LINE#         594
  C:8150H         LINE#         595
  -------         ENDPROC       _CHECK_FECHAOUT
  -------         ENDMOD        CLOCK

  -------         MODULE        DELAY
  C:0000H         SYMBOL        _ICE_DUMMY_
  C:AB06H         PUBLIC        _Delay_10ms
  C:AFABH         PUBLIC        _Delay_20us
  C:AF22H         PUBLIC        _Delay_1ms
  C:B0AFH         PUBLIC        Delay
  -------         PROC          _DELAY_20US
  D:0006H         SYMBOL        cntd_us
  -------         DO            
  D:0004H         SYMBOL        i
  -------         ENDDO         
  C:AFABH         LINE#         20
  C:AFABH         LINE#         21
  C:AFABH         LINE#         24
  C:AFB5H         LINE#         26
  C:AFBCH         LINE#         27
  -------         ENDPROC       _DELAY_20US
  -------         PROC          _DELAY_1MS
  D:0002H         SYMBOL        cntd_ms
  -------         DO            
BL51 BANKED LINKER/LOCATER V6.22.2.0                                                  09/15/2020  15:49:49  PAGE 39


  D:0082H         SYMBOL        i
  -------         ENDDO         
  C:AF22H         LINE#         38
  C:AF26H         LINE#         39
  C:AF26H         LINE#         41
  C:AF3CH         LINE#         42
  -------         ENDPROC       _DELAY_1MS
  -------         PROC          _DELAY_10MS
  X:0009H         SYMBOL        cntd_10ms
  -------         DO            
  X:000BH         SYMBOL        i
  -------         ENDDO         
  C:AB06H         LINE#         54
  C:AB0EH         LINE#         55
  C:AB0EH         LINE#         57
  C:AB3FH         LINE#         58
  -------         ENDPROC       _DELAY_10MS
  -------         PROC          DELAY
  C:B0AFH         LINE#         60
  C:B0AFH         LINE#         62
  -------         ENDPROC       DELAY
  -------         ENDMOD        DELAY

  -------         MODULE        EEPROM
  C:0000H         SYMBOL        _ICE_DUMMY_
  D:0090H         PUBLIC        P1
  C:7731H         PUBLIC        _Write_EEprom_Ticket
  C:9F42H         PUBLIC        _EscribirMemoria
  X:0206H         PUBLIC        l_chr
  C:AE89H         PUBLIC        ackd
  B:0021H.5       PUBLIC        memory_flag
  B:00D0H.7       PUBLIC        CY
  C:B094H         PUBLIC        p_me
  C:AFC5H         PUBLIC        start
  B:0090H.2       PUBLIC        sda
  C:AEA9H         PUBLIC        ack_lect
  B:0090H.3       PUBLIC        scl
  C:A9DFH         PUBLIC        _rd_eeprom
  C:B04AH         PUBLIC        stop
  X:0207H         PUBLIC        l_data_eeprom
  C:A3E0H         PUBLIC        _wr_eeprom
  C:A01CH         PUBLIC        _LeerMemoria
  C:ABAEH         PUBLIC        Incremente_Ticket
  X:0208H         PUBLIC        byte_rd
  C:7FBEH         PUBLIC        Read_EEprom_Ticket
  C:AE64H         PUBLIC        _e_d_m
  C:7E27H         PUBLIC        _graba_serie
  C:A50EH         PUBLIC        Lee_No_Ticket
  C:A4C1H         PUBLIC        l_d_m
  -------         PROC          L?0057
  -------         ENDPROC       L?0057
  -------         PROC          ACKD
  -------         DO            
  D:0006H         SYMBOL        i
  -------         ENDDO         
  C:AE89H         LINE#         35
  C:AE89H         LINE#         36
BL51 BANKED LINKER/LOCATER V6.22.2.0                                                  09/15/2020  15:49:49  PAGE 40


  C:AE89H         LINE#         38
  C:AE8BH         LINE#         39
  C:AE8DH         LINE#         40
  C:AE8FH         LINE#         41
  C:AE92H         LINE#         42
  C:AE92H         LINE#         43
  C:AE95H         LINE#         44
  C:AE95H         LINE#         45
  C:AE97H         LINE#         46
  C:AE99H         LINE#         48
  C:AE9AH         LINE#         49
  C:AE9AH         LINE#         50
  C:AEA5H         LINE#         52
  C:AEA5H         LINE#         53
  C:AEA5H         LINE#         55
  C:AEA5H         LINE#         56
  -------         ENDPROC       ACKD
  -------         PROC          L?0061
  -------         ENDPROC       L?0061
  -------         PROC          ACK_LECT
  -------         DO            
  D:0006H         SYMBOL        i
  -------         ENDDO         
  C:AEA9H         LINE#         59
  C:AEA9H         LINE#         60
  C:AEA9H         LINE#         62
  C:AEABH         LINE#         63
  C:AEADH         LINE#         64
  C:AEAFH         LINE#         65
  C:AEB2H         LINE#         66
  C:AEB2H         LINE#         67
  C:AEB5H         LINE#         68
  C:AEB5H         LINE#         69
  C:AEB7H         LINE#         70
  C:AEB9H         LINE#         71
  C:AEBAH         LINE#         72
  C:AEBAH         LINE#         73
  C:AEC5H         LINE#         74
  -------         ENDPROC       ACK_LECT
  -------         PROC          P_ME
  C:B094H         LINE#         76
  C:B094H         LINE#         77
  C:B094H         LINE#         78
  C:B096H         LINE#         79
  C:B097H         LINE#         80
  C:B099H         LINE#         81
  -------         ENDPROC       P_ME
  -------         PROC          _E_D_M
  D:0007H         SYMBOL        a_serial_eeprom
  -------         DO            
  D:0006H         SYMBOL        nbits
  -------         ENDDO         
  C:AE64H         LINE#         83
  C:AE64H         LINE#         84
  C:AE64H         LINE#         86
  C:AE70H         LINE#         87
  C:AE70H         LINE#         88
BL51 BANKED LINKER/LOCATER V6.22.2.0                                                  09/15/2020  15:49:49  PAGE 41


  C:AE74H         LINE#         89
  C:AE77H         LINE#         90
  C:AE77H         LINE#         91
  C:AE79H         LINE#         92
  C:AE7BH         LINE#         94
  C:AE7BH         LINE#         95
  C:AE7DH         LINE#         96
  C:AE7DH         LINE#         97
  C:AE7FH         LINE#         98
  C:AE82H         LINE#         99
  C:AE85H         LINE#         101
  -------         ENDPROC       _E_D_M
  -------         PROC          L?0058
  -------         ENDPROC       L?0058
  -------         PROC          START
  C:AFC5H         LINE#         103
  C:AFC5H         LINE#         104
  C:AFC5H         LINE#         105
  C:AFC7H         LINE#         106
  C:AFC9H         LINE#         107
  C:AFCAH         LINE#         108
  C:AFCCH         LINE#         109
  C:AFCEH         LINE#         111
  -------         ENDPROC       START
  -------         PROC          STOP
  C:B04AH         LINE#         113
  C:B04AH         LINE#         114
  C:B04AH         LINE#         115
  C:B04CH         LINE#         116
  C:B04EH         LINE#         117
  C:B050H         LINE#         118
  C:B052H         LINE#         120
  -------         ENDPROC       STOP
  -------         PROC          L_D_M
  -------         DO            
  D:0003H         SYMBOL        nbits
  -------         ENDDO         
  C:A4C1H         LINE#         122
  C:A4C1H         LINE#         123
  C:A4C1H         LINE#         125
  C:A4CEH         LINE#         126
  C:A4CEH         LINE#         127
  C:A4D0H         LINE#         128
  C:A4D3H         LINE#         129
  C:A4D3H         LINE#         130
  C:A4DAH         LINE#         131
  C:A4E3H         LINE#         132
  C:A4E3H         LINE#         133
  C:A4E7H         LINE#         134
  C:A4E9H         LINE#         135
  C:A4E9H         LINE#         136
  C:A4E9H         LINE#         137
  C:A4ECH         LINE#         138
  C:A4ECH         LINE#         139
  C:A4F3H         LINE#         140
  C:A4FDH         LINE#         141
  C:A4FDH         LINE#         142
BL51 BANKED LINKER/LOCATER V6.22.2.0                                                  09/15/2020  15:49:49  PAGE 42


  C:A501H         LINE#         143
  C:A503H         LINE#         144
  C:A503H         LINE#         145
  C:A503H         LINE#         146
  C:A506H         LINE#         147
  C:A508H         LINE#         148
  C:A50DH         LINE#         149
  -------         ENDPROC       L_D_M
  -------         PROC          L?0056
  -------         ENDPROC       L?0056
  -------         PROC          _WR_EEPROM
  D:0002H         SYMBOL        control
  D:0004H         SYMBOL        Dir
  D:0003H         SYMBOL        data_eeprom
  -------         DO            
  D:0005H         SYMBOL        dir_h
  D:0001H         SYMBOL        dir_l
  -------         ENDDO         
  C:A3E0H         LINE#         155
  C:A3E2H         LINE#         156
  C:A3E2H         LINE#         158
  C:A3E6H         LINE#         159
  C:A3E6H         LINE#         160
  C:A3E6H         LINE#         163
  C:A3E6H         LINE#         164
  C:A3E6H         LINE#         166
  C:A3E9H         LINE#         167
  C:A3EBH         LINE#         168
  C:A3EEH         LINE#         169
  C:A3F0H         LINE#         170
  C:A3F3H         LINE#         171
  C:A3F8H         LINE#         172
  C:A3FBH         LINE#         173
  C:A400H         LINE#         174
  C:A403H         LINE#         175
  C:A406H         LINE#         176
  C:A40DH         LINE#         178
  C:A40FH         LINE#         179
  C:A411H         LINE#         180
  C:A418H         LINE#         181
  -------         ENDPROC       _WR_EEPROM
  C:A9DBH         SYMBOL        L?0060
  -------         PROC          L?0059
  -------         ENDPROC       L?0059
  C:A9DBH         SYMBOL        L?0060
  -------         PROC          _RD_EEPROM
  D:0003H         SYMBOL        control
  D:0004H         SYMBOL        Dir
  -------         DO            
  D:0005H         SYMBOL        dir_h
  D:0002H         SYMBOL        dir_l
  -------         ENDDO         
  C:A9DFH         LINE#         219
  C:A9E1H         LINE#         220
  C:A9E1H         LINE#         223
  C:A9E5H         LINE#         224
  C:A9E5H         LINE#         225
BL51 BANKED LINKER/LOCATER V6.22.2.0                                                  09/15/2020  15:49:49  PAGE 43


  C:A9E5H         LINE#         227
  C:A9E5H         LINE#         228
  C:A9E5H         LINE#         230
  C:A9E8H         LINE#         231
  C:A9EAH         LINE#         232
  C:A9EDH         LINE#         233
  C:A9EFH         LINE#         234
  C:A9F2H         LINE#         235
  C:A9F7H         LINE#         236
  C:A9FAH         LINE#         237
  C:A9FDH         LINE#         238
  C:AA03H         LINE#         239
  C:AA06H         LINE#         240
  C:AA08H         LINE#         241
  C:AA0BH         LINE#         242
  C:AA0EH         LINE#         243
  C:AA10H         LINE#         244
  C:AA12H         LINE#         245
  C:AA17H         LINE#         246
  -------         ENDPROC       _RD_EEPROM
  -------         PROC          _GRABA_SERIE
  X:0011H         SYMBOL        buffer
  -------         DO            
  X:0014H         SYMBOL        j
  X:0015H         SYMBOL        error
  -------         ENDDO         
  C:7E27H         LINE#         253
  C:7E32H         LINE#         254
  C:7E32H         LINE#         257
  C:7E37H         LINE#         262
  C:7E49H         LINE#         264
  C:7E5CH         LINE#         265
  C:7E5CH         LINE#         266
  C:7E85H         LINE#         267
  C:7E85H         LINE#         268
  C:7E8BH         LINE#         270
  C:7E94H         LINE#         271
  C:7EA2H         LINE#         272
  C:7EABH         LINE#         273
  C:7EABH         LINE#         275
  C:7EB3H         LINE#         279
  C:7EB9H         LINE#         280
  C:7EB9H         LINE#         281
  C:7EC7H         LINE#         283
  C:7EC7H         LINE#         285
  C:7EC7H         LINE#         286
  C:7ED1H         LINE#         287
  C:7EDCH         LINE#         288
  C:7EE7H         LINE#         289
  C:7EF2H         LINE#         291
  C:7EF2H         LINE#         292
  -------         ENDPROC       _GRABA_SERIE
  -------         PROC          _WRITE_EEPROM_TICKET
  X:0016H         SYMBOL        buffer
  -------         DO            
  X:0019H         SYMBOL        cod_3
  X:001AH         SYMBOL        cod_2
BL51 BANKED LINKER/LOCATER V6.22.2.0                                                  09/15/2020  15:49:49  PAGE 44


  X:001BH         SYMBOL        cod_1
  X:001CH         SYMBOL        cod_0
  X:001DH         SYMBOL        Noticket
  D:0004H         SYMBOL        Bnoticket
  -------         ENDDO         
  C:7731H         LINE#         293
  C:773CH         LINE#         294
  C:773CH         LINE#         296
  C:7744H         LINE#         297
  C:774DH         LINE#         298
  C:775BH         LINE#         299
  C:7764H         LINE#         300
  C:7778H         LINE#         302
  C:7781H         LINE#         303
  C:7794H         LINE#         304
  C:7799H         LINE#         305
  C:779CH         LINE#         307
  C:77AFH         LINE#         308
  C:77B4H         LINE#         309
  C:77B7H         LINE#         311
  C:77CAH         LINE#         312
  C:77CFH         LINE#         313
  C:77D2H         LINE#         315
  C:77DEH         LINE#         316
  C:77E1H         LINE#         317
  C:77EAH         LINE#         319
  C:77F8H         LINE#         320
  C:7806H         LINE#         321
  C:7814H         LINE#         322
  -------         ENDPROC       _WRITE_EEPROM_TICKET
  -------         PROC          LEE_NO_TICKET
  -------         DO            
  D:0004H         SYMBOL        Noticket
  X:001CH         SYMBOL        Lee_No_Ticket
  D:0007H         SYMBOL        num_chr
  -------         ENDDO         
  C:A50EH         LINE#         327
  C:A50EH         LINE#         328
  C:A50EH         LINE#         332
  C:A511H         LINE#         333
  C:A52CH         LINE#         334
  C:A535H         LINE#         335
  C:A541H         LINE#         336
  C:A54AH         LINE#         337
  C:A553H         LINE#         338
  C:A559H         LINE#         339
  -------         ENDPROC       LEE_NO_TICKET
  -------         PROC          READ_EEPROM_TICKET
  -------         DO            
  D:0001H         SYMBOL        cod3
  X:0027H         SYMBOL        cod2
  X:0028H         SYMBOL        cod1
  X:0029H         SYMBOL        cod0
  X:002AH         SYMBOL        Noticket
  -------         ENDDO         
  C:7FBEH         LINE#         343
  C:7FBEH         LINE#         344
BL51 BANKED LINKER/LOCATER V6.22.2.0                                                  09/15/2020  15:49:49  PAGE 45


  C:7FBEH         LINE#         346
  C:7FC8H         LINE#         347
  C:7FCFH         LINE#         348
  C:7FD9H         LINE#         349
  C:7FE7H         LINE#         350
  C:7FF1H         LINE#         352
  C:8011H         LINE#         353
  C:8036H         LINE#         354
  C:805BH         LINE#         355
  C:8079H         LINE#         356
  C:8087H         LINE#         357
  -------         ENDPROC       READ_EEPROM_TICKET
  -------         PROC          INCREMENTE_TICKET
  -------         DO            
  D:0004H         SYMBOL        Noticket
  X:0007H         SYMBOL        Lee_No_Ticket
  -------         ENDDO         
  C:ABAEH         LINE#         361
  C:ABAEH         LINE#         362
  C:ABAEH         LINE#         366
  C:ABB1H         LINE#         367
  C:ABBEH         LINE#         368
  C:ABD9H         LINE#         369
  -------         ENDPROC       INCREMENTE_TICKET
  -------         PROC          _LEERMEMORIA
  X:009DH         SYMBOL        addres
  X:009FH         SYMBOL        res
  -------         DO            
  D:0007H         SYMBOL        i
  -------         ENDDO         
  C:A01CH         LINE#         375
  C:A02DH         LINE#         376
  C:A02DH         LINE#         378
  C:A02DH         LINE#         379
  C:A049H         LINE#         380
  C:A058H         LINE#         381
  C:A066H         LINE#         382
  C:A070H         LINE#         383
  C:A073H         LINE#         384
  -------         ENDPROC       _LEERMEMORIA
  -------         PROC          _ESCRIBIRMEMORIA
  X:005EH         SYMBOL        addres
  X:0060H         SYMBOL        res
  C:9F42H         LINE#         386
  C:9F53H         LINE#         387
  C:9F53H         LINE#         390
  C:9F63H         LINE#         391
  C:9F6AH         LINE#         392
  C:9F6DH         LINE#         394
  C:9F7BH         LINE#         395
  C:9F85H         LINE#         396
  C:9F87H         LINE#         397
  C:9F8AH         LINE#         398
  C:9F98H         LINE#         399
  C:9FA2H         LINE#         400
  -------         ENDPROC       _ESCRIBIRMEMORIA
  -------         ENDMOD        EEPROM
BL51 BANKED LINKER/LOCATER V6.22.2.0                                                  09/15/2020  15:49:49  PAGE 46



  -------         MODULE        IO_SENSORES
  C:0000H         SYMBOL        _ICE_DUMMY_
  D:0090H         PUBLIC        P1
  D:00B0H         PUBLIC        P3
  C:A7DAH         PUBLIC        Dir_board
  C:B071H         PUBLIC        sel_Pulsa
  B:0090H.1       PUBLIC        DataIn
  C:B06AH         PUBLIC        sel_Auto
  C:AB40H         PUBLIC        ValidaSensoresPaso
  B:00B0H.3       PUBLIC        busy
  C:AEC6H         PUBLIC        ValidaSensor
  C:B07FH         PUBLIC        sel_Sensor1
  C:B078H         PUBLIC        sel_Sensor2
  C:A319H         PUBLIC        Valida_Sensor1_Auto
  B:00B0H.5       PUBLIC        sel_A
  B:00B0H.6       PUBLIC        sel_B
  B:00B0H.7       PUBLIC        sel_C
  C:9A7CH         PUBLIC        msj_lcd_informativo
  C:B086H         PUBLIC        sel_Dir1
  C:B08DH         PUBLIC        sel_Dir2
  C:B063H         PUBLIC        sel_Funcion
  -------         PROC          SEL_FUNCION
  C:B063H         LINE#         31
  C:B063H         LINE#         32
  C:B063H         LINE#         33
  C:B065H         LINE#         34
  C:B067H         LINE#         35
  C:B069H         LINE#         36
  -------         ENDPROC       SEL_FUNCION
  -------         PROC          SEL_AUTO
  C:B06AH         LINE#         38
  C:B06AH         LINE#         39
  C:B06AH         LINE#         40
  C:B06CH         LINE#         41
  C:B06EH         LINE#         42
  C:B070H         LINE#         43
  -------         ENDPROC       SEL_AUTO
  -------         PROC          SEL_PULSA
  C:B071H         LINE#         45
  C:B071H         LINE#         46
  C:B071H         LINE#         47
  C:B073H         LINE#         48
  C:B075H         LINE#         49
  C:B077H         LINE#         50
  -------         ENDPROC       SEL_PULSA
  -------         PROC          SEL_SENSOR2
  C:B078H         LINE#         53
  C:B078H         LINE#         54
  C:B078H         LINE#         55
  C:B07AH         LINE#         56
  C:B07CH         LINE#         57
  C:B07EH         LINE#         58
  -------         ENDPROC       SEL_SENSOR2
  -------         PROC          SEL_SENSOR1
  C:B07FH         LINE#         60
  C:B07FH         LINE#         61
BL51 BANKED LINKER/LOCATER V6.22.2.0                                                  09/15/2020  15:49:49  PAGE 47


  C:B07FH         LINE#         62
  C:B081H         LINE#         63
  C:B083H         LINE#         64
  C:B085H         LINE#         65
  -------         ENDPROC       SEL_SENSOR1
  -------         PROC          SEL_DIR1
  C:B086H         LINE#         67
  C:B086H         LINE#         68
  C:B086H         LINE#         69
  C:B088H         LINE#         70
  C:B08AH         LINE#         71
  C:B08CH         LINE#         72
  -------         ENDPROC       SEL_DIR1
  -------         PROC          SEL_DIR2
  C:B08DH         LINE#         74
  C:B08DH         LINE#         75
  C:B08DH         LINE#         76
  C:B08FH         LINE#         77
  C:B091H         LINE#         78
  C:B093H         LINE#         79
  -------         ENDPROC       SEL_DIR2
  -------         PROC          VALIDASENSOR
  -------         DO            
  D:0007H         SYMBOL        Valido
  D:0004H         SYMBOL        Tmin
  -------         ENDDO         
  C:AEC6H         LINE#         81
  C:AEC6H         LINE#         82
  C:AEC6H         LINE#         84
  C:AEC8H         LINE#         85
  C:AECCH         LINE#         86
  C:AED7H         LINE#         87
  C:AED7H         LINE#         88
  C:AEDCH         LINE#         89
  C:AEE0H         LINE#         90
  C:AEE0H         LINE#         91
  C:AEE2H         LINE#         92
  C:AEE2H         LINE#         93
  C:AEE4H         LINE#         94
  C:AEE4H         LINE#         95
  -------         ENDPROC       VALIDASENSOR
  -------         PROC          DIR_BOARD
  -------         DO            
  X:0033H         SYMBOL        Board
  D:0007H         SYMBOL        Board_High
  -------         ENDDO         
  C:A7DAH         LINE#         99
  C:A7DAH         LINE#         100
  C:A7DAH         LINE#         101
  C:A7E0H         LINE#         103
  C:A7E3H         LINE#         104
  C:A7E6H         LINE#         105
  C:A7E6H         LINE#         106
  C:A7E9H         LINE#         107
  C:A7E9H         LINE#         108
  C:A7ECH         LINE#         109
  C:A7EFH         LINE#         110
BL51 BANKED LINKER/LOCATER V6.22.2.0                                                  09/15/2020  15:49:49  PAGE 48


  C:A7EFH         LINE#         111
  C:A7F6H         LINE#         112
  C:A7F6H         LINE#         113
  C:A7FEH         LINE#         114
  C:A7FEH         LINE#         115
  C:A806H         LINE#         117
  C:A809H         LINE#         118
  C:A809H         LINE#         119
  C:A80FH         LINE#         120
  C:A80FH         LINE#         121
  C:A811H         LINE#         122
  C:A813H         LINE#         123
  C:A815H         LINE#         124
  C:A815H         LINE#         126
  C:A815H         LINE#         127
  C:A81CH         LINE#         128
  -------         ENDPROC       DIR_BOARD
  -------         PROC          VALIDA_SENSOR1_AUTO
  -------         DO            
  X:0012H         SYMBOL        sensor
  -------         ENDDO         
  C:A319H         LINE#         132
  C:A319H         LINE#         133
  C:A319H         LINE#         135
  C:A31CH         LINE#         136
  C:A31FH         LINE#         137
  C:A322H         LINE#         138
  C:A327H         LINE#         139
  C:A327H         LINE#         140
  C:A32EH         LINE#         141
  C:A332H         LINE#         142
  C:A332H         LINE#         144
  C:A334H         LINE#         146
  C:A334H         LINE#         147
  C:A33BH         LINE#         148
  C:A340H         LINE#         149
  C:A340H         LINE#         150
  C:A340H         LINE#         153
  C:A342H         LINE#         155
  C:A345H         LINE#         156
  C:A34AH         LINE#         157
  C:A34AH         LINE#         159
  C:A351H         LINE#         160
  C:A357H         LINE#         161
  C:A35DH         LINE#         162
  C:A35FH         LINE#         164
  C:A35FH         LINE#         165
  C:A366H         LINE#         166
  C:A36BH         LINE#         167
  C:A36BH         LINE#         170
  C:A36BH         LINE#         171
  C:A370H         LINE#         172
  -------         ENDPROC       VALIDA_SENSOR1_AUTO
  -------         PROC          VALIDASENSORESPASO
  -------         DO            
  X:0011H         SYMBOL        sensor
  -------         ENDDO         
BL51 BANKED LINKER/LOCATER V6.22.2.0                                                  09/15/2020  15:49:49  PAGE 49


  C:AB40H         LINE#         177
  C:AB40H         LINE#         178
  C:AB40H         LINE#         180
  C:AB43H         LINE#         181
  C:AB46H         LINE#         182
  C:AB46H         LINE#         183
  C:AB54H         LINE#         184
  C:AB54H         LINE#         185
  C:AB5CH         LINE#         187
  C:AB5EH         LINE#         189
  C:AB5EH         LINE#         190
  C:AB64H         LINE#         191
  C:AB66H         LINE#         192
  C:AB66H         LINE#         193
  C:AB66H         LINE#         194
  C:AB66H         LINE#         195
  C:AB6FH         LINE#         196
  C:AB72H         LINE#         197
  C:AB72H         LINE#         198
  C:AB77H         LINE#         199
  -------         ENDPROC       VALIDASENSORESPASO
  -------         PROC          MSJ_LCD_INFORMATIVO
  -------         DO            
  X:0002H         SYMBOL        info
  X:0211H         SYMBOL        toggle
  -------         ENDDO         
  C:9A7CH         LINE#         209
  C:9A7CH         LINE#         210
  C:9A7CH         LINE#         211
  C:9A81H         LINE#         213
  C:9A84H         LINE#         214
  C:9A87H         LINE#         215
  C:9A87H         LINE#         216
  C:9A93H         LINE#         217
  C:9A93H         LINE#         218
  C:9A96H         LINE#         219
  C:9A96H         LINE#         220
  C:9A98H         LINE#         221
  C:9A9BH         LINE#         222
  C:9AA1H         LINE#         223
  C:9AA1H         LINE#         224
  C:9AA3H         LINE#         225
  C:9AB1H         LINE#         226
  C:9AB1H         LINE#         227
  C:9AB4H         LINE#         228
  C:9AB4H         LINE#         229
  C:9AB6H         LINE#         230
  C:9AB9H         LINE#         231
  C:9ABFH         LINE#         232
  C:9ABFH         LINE#         233
  C:9AC1H         LINE#         234
  C:9ACFH         LINE#         235
  C:9ACFH         LINE#         236
  C:9AD2H         LINE#         237
  C:9AD2H         LINE#         238
  C:9AD4H         LINE#         239
  C:9AE2H         LINE#         240
BL51 BANKED LINKER/LOCATER V6.22.2.0                                                  09/15/2020  15:49:49  PAGE 50


  C:9AE2H         LINE#         241
  C:9AE4H         LINE#         242
  C:9AEBH         LINE#         244
  C:9AF0H         LINE#         245
  C:9AF0H         LINE#         247
  C:9AF0H         LINE#         249
  C:9AF0H         LINE#         251
  C:9AF3H         LINE#         252
  C:9AF6H         LINE#         253
  C:9AF6H         LINE#         254
  C:9AFBH         LINE#         255
  C:9AFBH         LINE#         257
  -------         ENDPROC       MSJ_LCD_INFORMATIVO
  -------         ENDMOD        IO_SENSORES

  -------         MODULE        PANTALLAS
  C:0000H         SYMBOL        _ICE_DUMMY_
  D:0080H         PUBLIC        P0
  C:A41FH         PUBLIC        Reloj_Pantalla_Lcd
  C:2CA4H         PUBLIC        _PantallaLCD
  C:A79EH         PUBLIC        _LCD_txt
  I:0068H         PUBLIC        msjpantalla
  C:ADB1H         PUBLIC        _tx_chrlcd
  C:2C8BH         SYMBOL        _?ix1000
  C:2C91H         SYMBOL        _?ix1001
  C:2C97H         SYMBOL        _?ix1002
  C:A70AH         PUBLIC        _LCD_txt_num_char
  C:4982H         PUBLIC        _PantallaLCD_LINEA_2
  B:0098H.4       PUBLIC        REN
  B:0080H.7       PUBLIC        sel_com
  C:A271H         PUBLIC        Raspberry_data1
  -------         PROC          _PANTALLALCD
  X:002BH         SYMBOL        cod_msg
  -------         DO            
  X:002CH         SYMBOL        Ini_LCD_Line_one
  X:0032H         SYMBOL        num_chr
  -------         ENDDO         
  C:2CA4H         LINE#         86
  C:2CA9H         LINE#         87
  C:2CA9H         LINE#         89
  C:2CBCH         LINE#         96
  C:2CBEH         LINE#         98
  C:2CC7H         LINE#         99
  C:2CC7H         LINE#         100
  C:2CD1H         LINE#         102
  C:2D2DH         LINE#         103
  C:2D2DH         LINE#         105
  C:2D2DH         LINE#         106
  C:2D3BH         LINE#         107
  C:2D41H         LINE#         108
  C:2D44H         LINE#         109
  C:2D4AH         LINE#         110
  C:2D4DH         LINE#         112
  C:2D4DH         LINE#         114
  C:2D5BH         LINE#         115
  C:2D61H         LINE#         116
  C:2D64H         LINE#         117
BL51 BANKED LINKER/LOCATER V6.22.2.0                                                  09/15/2020  15:49:49  PAGE 51


  C:2D6AH         LINE#         118
  C:2D6DH         LINE#         120
  C:2D6DH         LINE#         122
  C:2D7BH         LINE#         123
  C:2D81H         LINE#         124
  C:2D84H         LINE#         125
  C:2D8AH         LINE#         126
  C:2D8DH         LINE#         127
  C:2D8DH         LINE#         128
  C:2D9BH         LINE#         129
  C:2DA1H         LINE#         130
  C:2DA4H         LINE#         131
  C:2DAAH         LINE#         132
  C:2DADH         LINE#         133
  C:2DADH         LINE#         134
  C:2DBBH         LINE#         135
  C:2DC1H         LINE#         136
  C:2DC4H         LINE#         137
  C:2DCAH         LINE#         138
  C:2DCDH         LINE#         139
  C:2DCDH         LINE#         140
  C:2DDBH         LINE#         141
  C:2DE1H         LINE#         142
  C:2DE4H         LINE#         143
  C:2DEAH         LINE#         144
  C:2DEDH         LINE#         145
  C:2DEDH         LINE#         147
  C:2DFBH         LINE#         148
  C:2E01H         LINE#         149
  C:2E04H         LINE#         150
  C:2E0AH         LINE#         151
  C:2E0DH         LINE#         152
  C:2E0DH         LINE#         158
  C:2E0DH         LINE#         159
  C:2E1BH         LINE#         160
  C:2E21H         LINE#         161
  C:2E24H         LINE#         162
  C:2E2AH         LINE#         163
  C:2E2DH         LINE#         164
  C:2E2DH         LINE#         165
  C:2E3BH         LINE#         166
  C:2E41H         LINE#         167
  C:2E44H         LINE#         168
  C:2E4AH         LINE#         169
  C:2E4DH         LINE#         171
  C:2E4DH         LINE#         172
  C:2E5BH         LINE#         173
  C:2E61H         LINE#         174
  C:2E64H         LINE#         175
  C:2E6AH         LINE#         176
  C:2E6DH         LINE#         178
  C:2E6DH         LINE#         179
  C:2E7BH         LINE#         180
  C:2E81H         LINE#         181
  C:2E84H         LINE#         182
  C:2E8AH         LINE#         183
  C:2E8DH         LINE#         188
BL51 BANKED LINKER/LOCATER V6.22.2.0                                                  09/15/2020  15:49:49  PAGE 52


  C:2E8DH         LINE#         190
  C:2E9BH         LINE#         191
  C:2EA1H         LINE#         192
  C:2EA4H         LINE#         193
  C:2EAAH         LINE#         194
  C:2EADH         LINE#         196
  C:2EADH         LINE#         198
  C:2EBBH         LINE#         199
  C:2EC1H         LINE#         200
  C:2EC4H         LINE#         201
  C:2ECAH         LINE#         202
  C:2ECDH         LINE#         204
  C:2ECDH         LINE#         205
  C:2EDBH         LINE#         206
  C:2EE1H         LINE#         207
  C:2EE4H         LINE#         208
  C:2EEAH         LINE#         209
  C:2EEDH         LINE#         211
  C:2EEDH         LINE#         213
  C:2EFBH         LINE#         214
  C:2F01H         LINE#         215
  C:2F04H         LINE#         216
  C:2F0AH         LINE#         217
  C:2F0DH         LINE#         219
  C:2F0DH         LINE#         221
  C:2F1BH         LINE#         222
  C:2F21H         LINE#         223
  C:2F24H         LINE#         224
  C:2F2AH         LINE#         225
  C:2F2DH         LINE#         227
  C:2F2DH         LINE#         228
  C:2F3BH         LINE#         229
  C:2F41H         LINE#         230
  C:2F44H         LINE#         231
  C:2F4AH         LINE#         232
  C:2F4DH         LINE#         234
  C:2F4DH         LINE#         235
  C:2F5BH         LINE#         236
  C:2F61H         LINE#         237
  C:2F64H         LINE#         238
  C:2F6AH         LINE#         239
  C:2F6DH         LINE#         241
  C:2F6DH         LINE#         243
  C:2F7BH         LINE#         244
  C:2F81H         LINE#         245
  C:2F84H         LINE#         246
  C:2F8AH         LINE#         247
  C:2F8DH         LINE#         249
  C:2F8DH         LINE#         250
  C:2F9BH         LINE#         251
  C:2FA1H         LINE#         252
  C:2FA4H         LINE#         253
  C:2FAAH         LINE#         254
  C:2FADH         LINE#         255
  C:2FADH         LINE#         256
  C:2FBBH         LINE#         257
  C:2FC1H         LINE#         258
BL51 BANKED LINKER/LOCATER V6.22.2.0                                                  09/15/2020  15:49:49  PAGE 53


  C:2FC4H         LINE#         259
  C:2FCAH         LINE#         260
  C:2FCDH         LINE#         261
  C:2FCDH         LINE#         262
  C:2FDBH         LINE#         263
  C:2FE1H         LINE#         264
  C:2FE4H         LINE#         265
  C:2FEAH         LINE#         266
  C:2FEDH         LINE#         267
  C:2FEDH         LINE#         268
  C:2FFBH         LINE#         269
  C:2FFEH         LINE#         270
  C:3004H         LINE#         271
  C:3006H         LINE#         275
  C:3006H         LINE#         276
  C:3014H         LINE#         277
  C:301AH         LINE#         278
  C:301DH         LINE#         279
  C:3023H         LINE#         280
  C:3025H         LINE#         281
  C:3025H         LINE#         282
  C:3033H         LINE#         283
  C:3039H         LINE#         284
  C:303CH         LINE#         285
  C:3042H         LINE#         286
  C:3044H         LINE#         287
  C:3044H         LINE#         288
  C:3052H         LINE#         289
  C:3058H         LINE#         290
  C:305BH         LINE#         291
  C:3066H         LINE#         292
  C:3066H         LINE#         301
  C:3066H         LINE#         303
  C:3066H         LINE#         304
  C:3066H         LINE#         305
  C:3068H         LINE#         307
  C:3069H         LINE#         309
  C:3069H         LINE#         310
  C:306BH         LINE#         311
  C:30CDH         LINE#         312
  C:30CDH         LINE#         315
  C:30CDH         LINE#         316
  C:30D9H         LINE#         317
  C:30D9H         LINE#         319
  C:30DCH         LINE#         320
  C:30DCH         LINE#         323
  C:30E8H         LINE#         324
  C:30E8H         LINE#         325
  C:30EBH         LINE#         327
  C:30EBH         LINE#         328
  C:30F7H         LINE#         329
  C:30F7H         LINE#         331
  C:30FAH         LINE#         332
  C:30FAH         LINE#         333
  C:3106H         LINE#         334
  C:3106H         LINE#         336
  C:3109H         LINE#         337
BL51 BANKED LINKER/LOCATER V6.22.2.0                                                  09/15/2020  15:49:49  PAGE 54


  C:3109H         LINE#         338
  C:3115H         LINE#         339
  C:3115H         LINE#         341
  C:3118H         LINE#         342
  C:3118H         LINE#         343
  C:3124H         LINE#         344
  C:3124H         LINE#         346
  C:3127H         LINE#         347
  C:3127H         LINE#         348
  C:3133H         LINE#         349
  C:3133H         LINE#         351
  C:3136H         LINE#         352
  C:3136H         LINE#         353
  C:3142H         LINE#         354
  C:3142H         LINE#         356
  C:3145H         LINE#         358
  C:3145H         LINE#         359
  C:3151H         LINE#         360
  C:3151H         LINE#         362
  C:3154H         LINE#         364
  C:3154H         LINE#         365
  C:3160H         LINE#         366
  C:3160H         LINE#         368
  C:3163H         LINE#         370
  C:3163H         LINE#         371
  C:316FH         LINE#         372
  C:316FH         LINE#         374
  C:3172H         LINE#         376
  C:3172H         LINE#         377
  C:317EH         LINE#         378
  C:317EH         LINE#         380
  C:3181H         LINE#         384
  C:3181H         LINE#         385
  C:318DH         LINE#         386
  C:318DH         LINE#         388
  C:3190H         LINE#         390
  C:3190H         LINE#         391
  C:319CH         LINE#         392
  C:319CH         LINE#         394
  C:319FH         LINE#         396
  C:319FH         LINE#         397
  C:31ABH         LINE#         399
  C:31ABH         LINE#         400
  C:31AEH         LINE#         401
  C:31AEH         LINE#         402
  C:31BAH         LINE#         403
  C:31BAH         LINE#         405
  C:31BDH         LINE#         406
  C:31BDH         LINE#         407
  C:31C9H         LINE#         408
  C:31C9H         LINE#         410
  C:31CCH         LINE#         411
  C:31CCH         LINE#         412
  C:31D8H         LINE#         413
  C:31D8H         LINE#         415
  C:31DBH         LINE#         416
  C:31DBH         LINE#         417
BL51 BANKED LINKER/LOCATER V6.22.2.0                                                  09/15/2020  15:49:49  PAGE 55


  C:31E7H         LINE#         418
  C:31E7H         LINE#         420
  C:31EAH         LINE#         422
  C:31EAH         LINE#         423
  C:31F6H         LINE#         424
  C:31F6H         LINE#         426
  C:31F8H         LINE#         428
  C:31F8H         LINE#         429
  C:3204H         LINE#         430
  C:3204H         LINE#         432
  C:3206H         LINE#         433
  C:3206H         LINE#         434
  C:3212H         LINE#         435
  C:3212H         LINE#         437
  C:3214H         LINE#         438
  C:3214H         LINE#         439
  C:3220H         LINE#         440
  C:3220H         LINE#         442
  C:3222H         LINE#         443
  C:3222H         LINE#         444
  C:322EH         LINE#         445
  C:322EH         LINE#         447
  C:3230H         LINE#         449
  C:3230H         LINE#         450
  C:323CH         LINE#         451
  C:323CH         LINE#         453
  C:323EH         LINE#         454
  C:323EH         LINE#         455
  C:324AH         LINE#         456
  C:324AH         LINE#         458
  C:324CH         LINE#         459
  C:324CH         LINE#         460
  C:3258H         LINE#         461
  C:3258H         LINE#         463
  C:325AH         LINE#         468
  C:325AH         LINE#         469
  C:3266H         LINE#         470
  C:3266H         LINE#         472
  C:3268H         LINE#         473
  C:3268H         LINE#         474
  C:3277H         LINE#         475
  C:327AH         LINE#         477
  C:327AH         LINE#         485
  C:327AH         LINE#         486
  C:327AH         LINE#         487
  C:327AH         LINE#         488
  C:327CH         LINE#         489
  C:327CH         LINE#         493
  -------         ENDPROC       _PANTALLALCD
  -------         PROC          _PANTALLALCD_LINEA_2
  X:0011H         SYMBOL        cod_msg
  X:0012H         SYMBOL        buffer
  -------         DO            
  X:0015H         SYMBOL        Ini_LCD_Line_one
  X:001BH         SYMBOL        num_chr
  -------         ENDDO         
  C:4982H         LINE#         494
BL51 BANKED LINKER/LOCATER V6.22.2.0                                                  09/15/2020  15:49:49  PAGE 56


  C:4990H         LINE#         495
  C:4990H         LINE#         497
  C:49A3H         LINE#         505
  C:49A5H         LINE#         507
  C:49AEH         LINE#         508
  C:49AEH         LINE#         511
  C:49BCH         LINE#         512
  C:49BCH         LINE#         514
  C:49BCH         LINE#         515
  C:49BFH         LINE#         516
  C:49CDH         LINE#         517
  C:49E2H         LINE#         518
  C:49E8H         LINE#         519
  C:49EEH         LINE#         520
  C:49F4H         LINE#         521
  C:49F4H         LINE#         522
  C:49F6H         LINE#         523
  C:49F6H         LINE#         524
  C:49F9H         LINE#         525
  C:4A07H         LINE#         526
  C:4A1CH         LINE#         527
  C:4A22H         LINE#         528
  C:4A28H         LINE#         529
  C:4A33H         LINE#         530
  C:4A43H         LINE#         531
  C:4A43H         LINE#         535
  C:4A43H         LINE#         537
  C:4A43H         LINE#         539
  C:4A43H         LINE#         540
  C:4A45H         LINE#         541
  C:4A46H         LINE#         543
  C:4A46H         LINE#         544
  C:4A48H         LINE#         545
  C:4A62H         LINE#         546
  C:4A62H         LINE#         547
  C:4A62H         LINE#         549
  C:4A71H         LINE#         550
  C:4A71H         LINE#         551
  C:4A71H         LINE#         552
  C:4A71H         LINE#         555
  C:4A74H         LINE#         557
  C:4A74H         LINE#         558
  C:4A83H         LINE#         559
  C:4A96H         LINE#         560
  C:4AB0H         LINE#         561
  C:4AB0H         LINE#         562
  C:4AB0H         LINE#         563
  C:4AB0H         LINE#         565
  C:4AB3H         LINE#         566
  C:4AB3H         LINE#         568
  C:4AB7H         LINE#         569
  C:4ABAH         LINE#         570
  C:4ABDH         LINE#         571
  C:4ABDH         LINE#         573
  C:4AC6H         LINE#         575
  C:4AC6H         LINE#         576
  C:4AC8H         LINE#         578
BL51 BANKED LINKER/LOCATER V6.22.2.0                                                  09/15/2020  15:49:49  PAGE 57


  C:4AC8H         LINE#         580
  C:4ADCH         LINE#         582
  C:4ADFH         LINE#         584
  C:4ADFH         LINE#         585
  C:4AEAH         LINE#         586
  C:4AEAH         LINE#         587
  C:4AF1H         LINE#         589
  C:4B07H         LINE#         591
  C:4B1EH         LINE#         592
  C:4B20H         LINE#         594
  C:4B20H         LINE#         595
  C:4B27H         LINE#         597
  C:4B27H         LINE#         598
  C:4B27H         LINE#         601
  C:4B29H         LINE#         603
  C:4B29H         LINE#         604
  C:4B38H         LINE#         605
  C:4B4BH         LINE#         606
  C:4B65H         LINE#         607
  C:4B83H         LINE#         608
  C:4B9AH         LINE#         609
  C:4B9DH         LINE#         611
  C:4B9DH         LINE#         613
  C:4B9DH         LINE#         615
  C:4B9DH         LINE#         616
  C:4B9DH         LINE#         617
  C:4B9FH         LINE#         618
  C:4B9FH         LINE#         619
  -------         ENDPROC       _PANTALLALCD_LINEA_2
  C:ADA8H         SYMBOL        L?0161
  C:ADABH         SYMBOL        L?0162
  C:ADACH         SYMBOL        L?0163
  -------         PROC          L?0160
  -------         ENDPROC       L?0160
  C:ADA8H         SYMBOL        L?0161
  C:ADABH         SYMBOL        L?0162
  C:ADACH         SYMBOL        L?0163
  -------         PROC          _TX_CHRLCD
  D:0007H         SYMBOL        data_com
  X:0038H         SYMBOL        enable_char_add
  -------         DO            
  X:0039H         SYMBOL        d
  -------         ENDDO         
  C:ADB1H         LINE#         625
  C:ADB6H         LINE#         626
  C:ADB6H         LINE#         628
  C:ADBEH         LINE#         629
  C:ADCEH         LINE#         631
  -------         ENDPROC       _TX_CHRLCD
  -------         PROC          L?0165
  -------         ENDPROC       L?0165
  -------         PROC          _LCD_TXT
  X:0033H         SYMBOL        msg
  X:0036H         SYMBOL        enable_char_add
  -------         DO            
  X:0037H         SYMBOL        i
  -------         ENDDO         
BL51 BANKED LINKER/LOCATER V6.22.2.0                                                  09/15/2020  15:49:49  PAGE 58


  C:A79EH         LINE#         638
  C:A7ACH         LINE#         639
  C:A7ACH         LINE#         642
  C:A7C9H         LINE#         643
  C:A7C9H         LINE#         644
  C:A7D1H         LINE#         645
  C:A7D9H         LINE#         646
  -------         ENDPROC       _LCD_TXT
  -------         PROC          _LCD_TXT_NUM_CHAR
  X:001EH         SYMBOL        msg
  X:0021H         SYMBOL        length_char
  X:0022H         SYMBOL        enable_char_add
  -------         DO            
  X:0023H         SYMBOL        i
  -------         ENDDO         
  C:A70AH         LINE#         653
  C:A718H         LINE#         654
  C:A718H         LINE#         657
  C:A72BH         LINE#         658
  C:A72BH         LINE#         659
  C:A747H         LINE#         660
  C:A74FH         LINE#         661
  -------         ENDPROC       _LCD_TXT_NUM_CHAR
  -------         PROC          L?0164
  -------         ENDPROC       L?0164
  -------         PROC          RASPBERRY_DATA1
  -------         DO            
  X:0033H         SYMBOL        i
  X:0034H         SYMBOL        lenth_cadena
  X:0035H         SYMBOL        d
  -------         ENDDO         
  C:A271H         LINE#         689
  C:A271H         LINE#         690
  C:A271H         LINE#         695
  C:A27FH         LINE#         697
  C:A292H         LINE#         698
  C:A292H         LINE#         699
  C:A2A0H         LINE#         701
  C:A2A8H         LINE#         702
  C:A2BAH         LINE#         703
  C:A2BAH         LINE#         705
  C:A2BFH         LINE#         708
  -------         ENDPROC       RASPBERRY_DATA1
  -------         PROC          RELOJ_PANTALLA_LCD
  -------         DO            
  X:0011H         SYMBOL        Ini_Clock_LCD
  -------         ENDDO         
  C:A41FH         LINE#         715
  C:A41FH         LINE#         716
  C:A41FH         LINE#         718
  C:A432H         LINE#         719
  C:A438H         LINE#         720
  C:A438H         LINE#         721
  C:A43AH         LINE#         722
  C:A443H         LINE#         726
  C:A445H         LINE#         727
  C:A455H         LINE#         729
BL51 BANKED LINKER/LOCATER V6.22.2.0                                                  09/15/2020  15:49:49  PAGE 59


  C:A457H         LINE#         730
  C:A459H         LINE#         732
  C:A45AH         LINE#         734
  C:A45AH         LINE#         735
  C:A45CH         LINE#         736
  C:A461H         LINE#         737
  C:A46AH         LINE#         738
  C:A46EH         LINE#         739
  C:A471H         LINE#         741
  C:A473H         LINE#         742
  C:A473H         LINE#         743
  -------         ENDPROC       RELOJ_PANTALLA_LCD
  -------         ENDMOD        PANTALLAS

  -------         MODULE        PROG
  C:0000H         SYMBOL        _ICE_DUMMY_
  C:4FA2H         PUBLIC        Prog_fecha_vencimiento
  C:609CH         PUBLIC        Prog_Sin_Cobro
  C:6A01H         PUBLIC        _Ver_Horario_Desde_Hasta
  C:704DH         PUBLIC        Prog_debug
  C:7341H         PUBLIC        Prog_AntiPassBack
  C:94B5H         PUBLIC        _GetOption
  X:01B1H         PUBLIC        validacion
  C:7539H         PUBLIC        Prog_Validar_Tipo_Vehiculo_Mensual
  X:01BCH         PUBLIC        cursor
  C:68E7H         PUBLIC        _Prog_Horarios_on_off
  C:9000H         PUBLIC        Show
  C:3B35H         PUBLIC        Ver_Prog
  C:ABE2H         PUBLIC        Addr_Horarios
  C:88D0H         PUBLIC        prog_id_cliente
  C:A825H         PUBLIC        _ValidarClave
  C:4756H         PUBLIC        menu
  C:7149H         PUBLIC        Prog_Use_Lpr
  C:A0E8H         PUBLIC        _ListaComandos
  C:12F7H         SYMBOL        _?ix1000
  C:1302H         SYMBOL        _?ix1001
  C:1312H         SYMBOL        _?ix1002
  C:1322H         SYMBOL        _?ix1003
  C:1326H         SYMBOL        _?ix1004
  C:5E15H         PUBLIC        Prog_Horarios
  C:132AH         SYMBOL        _?ix1005
  C:7635H         PUBLIC        Prog_Apb_Mensual
  C:839CH         PUBLIC        Prog_tarjeta_automatica_o_boton
  C:4BA0H         PUBLIC        _hash_id
  C:449FH         PUBLIC        _Prog_Horario_dias
  C:8759H         PUBLIC        Prog_tiempo_gracia
  C:9B04H         PUBLIC        _IngresaDato
  X:01D0H         PUBLIC        comandos
  C:A5EEH         PUBLIC        First_Clave
  C:AF55H         PUBLIC        DisplayCursor
  C:743DH         PUBLIC        Prog_Placa
  C:869CH         PUBLIC        prog_cod_park
  C:6318H         PUBLIC        Ver_Horario
  C:66A3H         PUBLIC        _Ver_Horario_dias
  C:4DA8H         PUBLIC        _Prog_Horario_Desde_Hasta
  C:7245H         PUBLIC        tipo_pantalla
  C:79F0H         PUBLIC        Prog_Address_High_Board
BL51 BANKED LINKER/LOCATER V6.22.2.0                                                  09/15/2020  15:49:49  PAGE 60


  C:A8E7H         PUBLIC        _GetCMD
  -------         PROC          _HASH_ID
  X:005EH         SYMBOL        clave
  -------         DO            
  X:0061H         SYMBOL        len_clave
  X:0062H         SYMBOL        i
  X:01ADH         SYMBOL        temp
  X:01AFH         SYMBOL        temp1
  X:0063H         SYMBOL        aleatorio
  X:006EH         SYMBOL        suma
  X:007EH         SYMBOL        xxor
  X:008EH         SYMBOL        usuario1
  X:0099H         SYMBOL        vencimiento_password
  -------         ENDDO         
  C:4BA0H         LINE#         121
  C:4BABH         LINE#         122
  C:4BABH         LINE#         125
  C:4BBEH         LINE#         127
  C:4BD1H         LINE#         128
  C:4BE4H         LINE#         132
  C:4BF1H         LINE#         133
  C:4C0DH         LINE#         135
  C:4C0DH         LINE#         136
  C:4C11H         LINE#         137
  C:4C13H         LINE#         139
  C:4C13H         LINE#         140
  C:4C1AH         LINE#         141
  C:4C1AH         LINE#         142
  C:4C2DH         LINE#         143
  C:4C41H         LINE#         144
  C:4C41H         LINE#         145
  C:4C6DH         LINE#         146
  C:4C78H         LINE#         147
  C:4C85H         LINE#         148
  C:4CA3H         LINE#         149
  C:4CAEH         LINE#         150
  C:4CBBH         LINE#         151
  C:4CDFH         LINE#         152
  C:4CE7H         LINE#         153
  C:4CE7H         LINE#         154
  C:4CECH         LINE#         155
  C:4CECH         LINE#         156
  C:4D05H         LINE#         157
  C:4D05H         LINE#         158
  C:4D11H         LINE#         160
  C:4D11H         LINE#         161
  C:4D20H         LINE#         162
  C:4D20H         LINE#         163
  C:4D2CH         LINE#         164
  C:4D2CH         LINE#         165
  C:4D45H         LINE#         166
  C:4D45H         LINE#         167
  C:4D50H         LINE#         168
  C:4D50H         LINE#         169
  C:4D69H         LINE#         170
  C:4D69H         LINE#         171
  C:4D74H         LINE#         172
BL51 BANKED LINKER/LOCATER V6.22.2.0                                                  09/15/2020  15:49:49  PAGE 61


  C:4D74H         LINE#         173
  C:4D89H         LINE#         175
  C:4D92H         LINE#         176
  C:4DA1H         LINE#         178
  C:4DA7H         LINE#         179
  -------         ENDPROC       _HASH_ID
  -------         PROC          _LISTACOMANDOS
  X:0047H         SYMBOL        cmd
  -------         DO            
  X:004AH         SYMBOL        buf
  X:004DH         SYMBOL        i
  -------         ENDDO         
  C:A0E8H         LINE#         186
  C:A0F3H         LINE#         187
  C:A0F3H         LINE#         191
  C:A106H         LINE#         192
  C:A106H         LINE#         193
  C:A11EH         LINE#         194
  C:A139H         LINE#         195
  C:A13FH         LINE#         196
  C:A147H         LINE#         198
  C:A149H         LINE#         199
  -------         ENDPROC       _LISTACOMANDOS
  -------         PROC          L?0274
  -------         ENDPROC       L?0274
  -------         PROC          _VALIDARCLAVE
  X:005EH         SYMBOL        buffer
  -------         DO            
  X:0061H         SYMBOL        buf
  -------         ENDDO         
  C:A825H         LINE#         205
  C:A830H         LINE#         206
  C:A830H         LINE#         209
  C:A83FH         LINE#         210
  C:A85AH         LINE#         211
  C:A85CH         LINE#         214
  C:A85EH         LINE#         215
  -------         ENDPROC       _VALIDARCLAVE
  -------         PROC          L?0275
  -------         ENDPROC       L?0275
  -------         PROC          _GETCMD
  X:005EH         SYMBOL        in
  -------         DO            
  X:0061H         SYMBOL        tokens
  -------         ENDDO         
  C:A8E7H         LINE#         222
  C:A8F2H         LINE#         223
  C:A8F2H         LINE#         224
  C:A905H         LINE#         225
  -------         ENDPROC       _GETCMD
  -------         PROC          L?0273
  -------         ENDPROC       L?0273
  -------         PROC          _GETOPTION
  X:0047H         SYMBOL        in
  -------         DO            
  X:004AH         SYMBOL        tokensSpace
  X:004EH         SYMBOL        tokensQuote
BL51 BANKED LINKER/LOCATER V6.22.2.0                                                  09/15/2020  15:49:49  PAGE 62


  -------         ENDDO         
  C:94B5H         LINE#         231
  C:94C0H         LINE#         232
  C:94C0H         LINE#         233
  C:94D3H         LINE#         234
  C:94E6H         LINE#         237
  C:94F8H         LINE#         238
  C:9504H         LINE#         241
  C:950BH         LINE#         242
  C:9518H         LINE#         244
  C:9531H         LINE#         245
  -------         ENDPROC       _GETOPTION
  -------         PROC          DISPLAYCURSOR
  C:AF55H         LINE#         250
  C:AF55H         LINE#         251
  C:AF55H         LINE#         252
  -------         ENDPROC       DISPLAYCURSOR
  C:9B00H         SYMBOL        L?0272
  -------         PROC          L?0271
  -------         ENDPROC       L?0271
  C:9B00H         SYMBOL        L?0272
  -------         PROC          _INGRESADATO
  X:0072H         SYMBOL        buffer
  X:0075H         SYMBOL        modo
  -------         DO            
  D:0006H         SYMBOL        i
  -------         ENDDO         
  C:9B04H         LINE#         259
  C:9B12H         LINE#         260
  C:9B12H         LINE#         265
  C:9B12H         LINE#         266
  C:9B24H         LINE#         267
  C:9B2AH         LINE#         268
  C:9B2AH         LINE#         269
  C:9B45H         LINE#         270
  C:9B47H         LINE#         272
  C:9B47H         LINE#         273
  C:9B4CH         LINE#         274
  C:9B4CH         LINE#         275
  C:9B5DH         LINE#         276
  C:9B67H         LINE#         277
  C:9B76H         LINE#         279
  C:9B7BH         LINE#         283
  -------         ENDPROC       _INGRESADATO
  -------         PROC          PROG_ID_CLIENTE
  -------         DO            
  X:0047H         SYMBOL        buffer
  X:0051H         SYMBOL        dataee
  -------         ENDDO         
  C:88D0H         LINE#         300
  C:88D0H         LINE#         301
  C:88D0H         LINE#         305
  C:88E2H         LINE#         306
  C:88FFH         LINE#         308
  C:8916H         LINE#         310
  C:891FH         LINE#         311
  C:8926H         LINE#         312
BL51 BANKED LINKER/LOCATER V6.22.2.0                                                  09/15/2020  15:49:49  PAGE 63


  C:8937H         LINE#         313
  C:8940H         LINE#         315
  C:8952H         LINE#         316
  C:896FH         LINE#         317
  -------         ENDPROC       PROG_ID_CLIENTE
  -------         PROC          PROG_COD_PARK
  -------         DO            
  X:0047H         SYMBOL        buffer
  X:0051H         SYMBOL        dataee
  -------         ENDDO         
  C:869CH         LINE#         322
  C:869CH         LINE#         323
  C:869CH         LINE#         327
  C:86AFH         LINE#         328
  C:86CCH         LINE#         330
  C:86E3H         LINE#         332
  C:86ECH         LINE#         333
  C:86F7H         LINE#         334
  C:8708H         LINE#         335
  C:8712H         LINE#         337
  C:8725H         LINE#         338
  C:8742H         LINE#         339
  -------         ENDPROC       PROG_COD_PARK
  -------         PROC          PROG_TIEMPO_GRACIA
  -------         DO            
  X:0047H         SYMBOL        buffer
  X:0051H         SYMBOL        dataee
  -------         ENDDO         
  C:8759H         LINE#         344
  C:8759H         LINE#         345
  C:8759H         LINE#         349
  C:876CH         LINE#         350
  C:8789H         LINE#         352
  C:87A0H         LINE#         354
  C:87A9H         LINE#         355
  C:87B4H         LINE#         356
  C:87C5H         LINE#         357
  C:87CFH         LINE#         359
  C:87E2H         LINE#         360
  C:87FFH         LINE#         361
  -------         ENDPROC       PROG_TIEMPO_GRACIA
  -------         PROC          PROG_SIN_COBRO
  -------         DO            
  X:0047H         SYMBOL        buffer
  X:0051H         SYMBOL        dataee
  -------         ENDDO         
  C:609CH         LINE#         367
  C:609CH         LINE#         368
  C:609CH         LINE#         374
  C:60AFH         LINE#         375
  C:60CCH         LINE#         376
  C:60D6H         LINE#         377
  C:60D6H         LINE#         378
  C:60E9H         LINE#         379
  C:60EBH         LINE#         380
  C:60F7H         LINE#         381
  C:60F7H         LINE#         382
BL51 BANKED LINKER/LOCATER V6.22.2.0                                                  09/15/2020  15:49:49  PAGE 64


  C:610AH         LINE#         383
  C:610CH         LINE#         385
  C:610CH         LINE#         386
  C:6123H         LINE#         387
  C:6123H         LINE#         389
  C:612CH         LINE#         390
  C:6137H         LINE#         391
  C:6148H         LINE#         392
  C:6152H         LINE#         394
  C:6165H         LINE#         395
  C:6182H         LINE#         396
  C:618CH         LINE#         397
  C:618CH         LINE#         398
  C:619FH         LINE#         399
  C:61A1H         LINE#         400
  C:61ADH         LINE#         401
  C:61ADH         LINE#         402
  C:61C0H         LINE#         403
  C:61C2H         LINE#         405
  C:61C2H         LINE#         406
  C:61D9H         LINE#         407
  C:61D9H         LINE#         409
  -------         ENDPROC       PROG_SIN_COBRO
  -------         PROC          PROG_DEBUG
  -------         DO            
  X:0047H         SYMBOL        buffer
  X:0051H         SYMBOL        dataee
  -------         ENDDO         
  C:704DH         LINE#         415
  C:704DH         LINE#         416
  C:704DH         LINE#         421
  C:7060H         LINE#         422
  C:707DH         LINE#         423
  C:7087H         LINE#         424
  C:7087H         LINE#         425
  C:709AH         LINE#         426
  C:709CH         LINE#         428
  C:709CH         LINE#         429
  C:70B3H         LINE#         430
  C:70B3H         LINE#         432
  C:70BCH         LINE#         433
  C:70C7H         LINE#         434
  C:70D8H         LINE#         435
  C:70E2H         LINE#         437
  C:70F5H         LINE#         438
  C:7112H         LINE#         439
  C:711CH         LINE#         440
  C:711CH         LINE#         441
  C:712FH         LINE#         442
  C:7131H         LINE#         444
  C:7131H         LINE#         445
  C:7148H         LINE#         446
  C:7148H         LINE#         447
  -------         ENDPROC       PROG_DEBUG
  -------         PROC          PROG_USE_LPR
  -------         DO            
  X:0047H         SYMBOL        buffer
BL51 BANKED LINKER/LOCATER V6.22.2.0                                                  09/15/2020  15:49:49  PAGE 65


  X:0051H         SYMBOL        dataee
  -------         ENDDO         
  C:7149H         LINE#         452
  C:7149H         LINE#         453
  C:7149H         LINE#         458
  C:715CH         LINE#         459
  C:7179H         LINE#         460
  C:7183H         LINE#         461
  C:7183H         LINE#         462
  C:7196H         LINE#         463
  C:7198H         LINE#         465
  C:7198H         LINE#         466
  C:71AFH         LINE#         467
  C:71AFH         LINE#         469
  C:71B8H         LINE#         470
  C:71C3H         LINE#         471
  C:71D4H         LINE#         472
  C:71DEH         LINE#         474
  C:71F1H         LINE#         475
  C:720EH         LINE#         476
  C:7218H         LINE#         477
  C:7218H         LINE#         478
  C:722BH         LINE#         479
  C:722DH         LINE#         481
  C:722DH         LINE#         482
  C:7244H         LINE#         483
  C:7244H         LINE#         484
  -------         ENDPROC       PROG_USE_LPR
  -------         PROC          TIPO_PANTALLA
  -------         DO            
  X:0047H         SYMBOL        buffer
  X:0051H         SYMBOL        dataee
  -------         ENDDO         
  C:7245H         LINE#         491
  C:7245H         LINE#         492
  C:7245H         LINE#         497
  C:7258H         LINE#         498
  C:7275H         LINE#         499
  C:727FH         LINE#         500
  C:727FH         LINE#         501
  C:7292H         LINE#         502
  C:7294H         LINE#         504
  C:7294H         LINE#         505
  C:72ABH         LINE#         506
  C:72ABH         LINE#         508
  C:72B4H         LINE#         509
  C:72BFH         LINE#         510
  C:72D0H         LINE#         511
  C:72DAH         LINE#         513
  C:72EDH         LINE#         514
  C:730AH         LINE#         515
  C:7314H         LINE#         516
  C:7314H         LINE#         517
  C:7327H         LINE#         518
  C:7329H         LINE#         520
  C:7329H         LINE#         521
  C:7340H         LINE#         522
BL51 BANKED LINKER/LOCATER V6.22.2.0                                                  09/15/2020  15:49:49  PAGE 66


  C:7340H         LINE#         524
  -------         ENDPROC       TIPO_PANTALLA
  -------         PROC          PROG_TARJETA_AUTOMATICA_O_BOTON
  -------         DO            
  X:0047H         SYMBOL        buffer
  X:0051H         SYMBOL        dataee
  -------         ENDDO         
  C:839CH         LINE#         525
  C:839CH         LINE#         526
  C:839CH         LINE#         531
  C:83AFH         LINE#         532
  C:83CCH         LINE#         533
  C:83D8H         LINE#         534
  C:83D8H         LINE#         535
  C:83DCH         LINE#         536
  C:83DEH         LINE#         538
  C:83DEH         LINE#         539
  C:83E5H         LINE#         540
  C:83E5H         LINE#         542
  C:83EEH         LINE#         543
  C:83F9H         LINE#         544
  C:840AH         LINE#         545
  C:8414H         LINE#         547
  C:8427H         LINE#         548
  C:8444H         LINE#         549
  C:8450H         LINE#         550
  C:8450H         LINE#         551
  C:8454H         LINE#         552
  C:8456H         LINE#         554
  C:8456H         LINE#         555
  C:845DH         LINE#         556
  C:845DH         LINE#         557
  -------         ENDPROC       PROG_TARJETA_AUTOMATICA_O_BOTON
  -------         PROC          PROG_ANTIPASSBACK
  -------         DO            
  X:0047H         SYMBOL        buffer
  X:0051H         SYMBOL        dataee
  -------         ENDDO         
  C:7341H         LINE#         558
  C:7341H         LINE#         559
  C:7341H         LINE#         564
  C:7354H         LINE#         565
  C:7371H         LINE#         566
  C:737BH         LINE#         567
  C:737BH         LINE#         568
  C:738EH         LINE#         569
  C:7390H         LINE#         571
  C:7390H         LINE#         572
  C:73A7H         LINE#         573
  C:73A7H         LINE#         575
  C:73B0H         LINE#         576
  C:73BBH         LINE#         577
  C:73CCH         LINE#         578
  C:73D6H         LINE#         580
  C:73E9H         LINE#         581
  C:7406H         LINE#         582
  C:7410H         LINE#         583
BL51 BANKED LINKER/LOCATER V6.22.2.0                                                  09/15/2020  15:49:49  PAGE 67


  C:7410H         LINE#         584
  C:7423H         LINE#         585
  C:7425H         LINE#         587
  C:7425H         LINE#         588
  C:743CH         LINE#         589
  C:743CH         LINE#         590
  -------         ENDPROC       PROG_ANTIPASSBACK
  -------         PROC          PROG_PLACA
  -------         DO            
  X:0047H         SYMBOL        buffer
  X:0051H         SYMBOL        dataee
  -------         ENDDO         
  C:743DH         LINE#         591
  C:743DH         LINE#         592
  C:743DH         LINE#         597
  C:7450H         LINE#         598
  C:746DH         LINE#         599
  C:7477H         LINE#         600
  C:7477H         LINE#         601
  C:748AH         LINE#         602
  C:748CH         LINE#         604
  C:748CH         LINE#         605
  C:74A3H         LINE#         606
  C:74A3H         LINE#         608
  C:74ACH         LINE#         609
  C:74B7H         LINE#         610
  C:74C8H         LINE#         611
  C:74D2H         LINE#         613
  C:74E5H         LINE#         614
  C:7502H         LINE#         615
  C:750CH         LINE#         616
  C:750CH         LINE#         617
  C:751FH         LINE#         618
  C:7521H         LINE#         620
  C:7521H         LINE#         621
  C:7538H         LINE#         622
  C:7538H         LINE#         623
  -------         ENDPROC       PROG_PLACA
  -------         PROC          PROG_ADDRESS_HIGH_BOARD
  -------         DO            
  X:0047H         SYMBOL        buffer
  X:0051H         SYMBOL        dataee
  -------         ENDDO         
  C:79F0H         LINE#         624
  C:79F0H         LINE#         625
  C:79F0H         LINE#         630
  C:7A03H         LINE#         631
  C:7A20H         LINE#         632
  C:7A2AH         LINE#         633
  C:7A2AH         LINE#         634
  C:7A2EH         LINE#         635
  C:7A30H         LINE#         637
  C:7A30H         LINE#         638
  C:7A47H         LINE#         639
  C:7A47H         LINE#         641
  C:7A50H         LINE#         642
  C:7A5BH         LINE#         643
BL51 BANKED LINKER/LOCATER V6.22.2.0                                                  09/15/2020  15:49:49  PAGE 68


  C:7A6CH         LINE#         644
  C:7A76H         LINE#         646
  C:7A89H         LINE#         647
  C:7AA6H         LINE#         648
  C:7AB0H         LINE#         649
  C:7AB0H         LINE#         650
  C:7AB4H         LINE#         651
  C:7AB6H         LINE#         653
  C:7AB6H         LINE#         654
  C:7ACDH         LINE#         655
  C:7ACDH         LINE#         656
  -------         ENDPROC       PROG_ADDRESS_HIGH_BOARD
  -------         PROC          ADDR_HORARIOS
  -------         DO            
  X:0075H         SYMBOL        ee_addr_horario
  -------         ENDDO         
  C:ABE2H         LINE#         658
  C:ABE2H         LINE#         659
  C:ABE2H         LINE#         662
  C:ABE8H         LINE#         663
  C:ABECH         LINE#         664
  C:ABF0H         LINE#         665
  C:ABF4H         LINE#         666
  C:ABF8H         LINE#         667
  C:ABFCH         LINE#         668
  C:AC00H         LINE#         669
  C:AC04H         LINE#         670
  C:AC08H         LINE#         671
  C:AC0CH         LINE#         672
  C:AC0FH         LINE#         673
  C:AC15H         LINE#         674
  -------         ENDPROC       ADDR_HORARIOS
  -------         PROC          _PROG_HORARIOS_ON_OFF
  X:0062H         SYMBOL        addr
  -------         DO            
  X:0064H         SYMBOL        buffer
  X:006EH         SYMBOL        dataee
  X:0070H         SYMBOL        habilitado
  -------         ENDDO         
  C:68E7H         LINE#         675
  C:68F1H         LINE#         676
  C:68F1H         LINE#         679
  C:6900H         LINE#         680
  C:691DH         LINE#         681
  C:6927H         LINE#         682
  C:6927H         LINE#         683
  C:693AH         LINE#         684
  C:693CH         LINE#         686
  C:693CH         LINE#         687
  C:6953H         LINE#         688
  C:6953H         LINE#         689
  C:695CH         LINE#         690
  C:6967H         LINE#         691
  C:6978H         LINE#         692
  C:6987H         LINE#         694
  C:699EH         LINE#         695
  C:69BBH         LINE#         696
BL51 BANKED LINKER/LOCATER V6.22.2.0                                                  09/15/2020  15:49:49  PAGE 69


  C:69C8H         LINE#         697
  C:69C8H         LINE#         698
  C:69CBH         LINE#         699
  C:69DEH         LINE#         700
  C:69E0H         LINE#         702
  C:69E0H         LINE#         703
  C:69E5H         LINE#         704
  C:69FAH         LINE#         705
  C:69FAH         LINE#         706
  C:6A00H         LINE#         707
  -------         ENDPROC       _PROG_HORARIOS_ON_OFF
  -------         PROC          _PROG_HORARIO_DESDE_HASTA
  X:0062H         SYMBOL        addr
  -------         DO            
  X:0064H         SYMBOL        buffer
  D:0007H         SYMBOL        dataee
  -------         ENDDO         
  C:4DA8H         LINE#         708
  C:4DB0H         LINE#         709
  C:4DB0H         LINE#         714
  C:4DB9H         LINE#         715
  C:4DBCH         LINE#         716
  C:4DC5H         LINE#         717
  C:4DDDH         LINE#         718
  C:4DF0H         LINE#         719
  C:4DFEH         LINE#         720
  C:4E16H         LINE#         721
  C:4E29H         LINE#         722
  C:4E37H         LINE#         723
  C:4E4FH         LINE#         724
  C:4E62H         LINE#         725
  C:4E70H         LINE#         726
  C:4E88H         LINE#         727
  C:4E9BH         LINE#         728
  C:4EA9H         LINE#         732
  C:4EB2H         LINE#         733
  C:4EB5H         LINE#         735
  C:4EBEH         LINE#         737
  C:4ED6H         LINE#         738
  C:4EE9H         LINE#         739
  C:4EF7H         LINE#         740
  C:4F0FH         LINE#         741
  C:4F22H         LINE#         742
  C:4F30H         LINE#         743
  C:4F48H         LINE#         744
  C:4F5BH         LINE#         745
  C:4F69H         LINE#         746
  C:4F81H         LINE#         747
  C:4F94H         LINE#         748
  -------         ENDPROC       _PROG_HORARIO_DESDE_HASTA
  -------         PROC          _VER_HORARIO_DESDE_HASTA
  X:0075H         SYMBOL        addr
  -------         DO            
  D:0007H         SYMBOL        dataee
  -------         ENDDO         
  C:6A01H         LINE#         750
  C:6A09H         LINE#         751
BL51 BANKED LINKER/LOCATER V6.22.2.0                                                  09/15/2020  15:49:49  PAGE 70


  C:6A09H         LINE#         753
  C:6A12H         LINE#         754
  C:6A25H         LINE#         755
  C:6A33H         LINE#         756
  C:6A46H         LINE#         757
  C:6A54H         LINE#         758
  C:6A67H         LINE#         759
  C:6A75H         LINE#         760
  C:6A88H         LINE#         761
  C:6A96H         LINE#         763
  C:6AA9H         LINE#         764
  C:6AB7H         LINE#         766
  C:6ACAH         LINE#         767
  C:6AD8H         LINE#         769
  C:6AEBH         LINE#         770
  C:6AF9H         LINE#         772
  C:6B0CH         LINE#         773
  -------         ENDPROC       _VER_HORARIO_DESDE_HASTA
  -------         PROC          _PROG_HORARIO_DIAS
  X:0062H         SYMBOL        addr
  -------         DO            
  X:0064H         SYMBOL        buffer
  X:006EH         SYMBOL        dataee
  X:006FH         SYMBOL        j
  X:0070H         SYMBOL        temp
  -------         ENDDO         
  C:449FH         LINE#         775
  C:44A7H         LINE#         776
  C:44A7H         LINE#         780
  C:44B0H         LINE#         781
  C:44B9H         LINE#         782
  C:44C2H         LINE#         783
  C:44CDH         LINE#         786
  C:44D6H         LINE#         788
  C:44ECH         LINE#         789
  C:44ECH         LINE#         791
  C:44FFH         LINE#         792
  C:44FFH         LINE#         793
  C:4508H         LINE#         795
  C:451DH         LINE#         796
  C:4535H         LINE#         797
  C:4542H         LINE#         798
  C:4542H         LINE#         800
  C:4558H         LINE#         801
  C:4558H         LINE#         802
  C:4561H         LINE#         803
  C:4576H         LINE#         804
  C:458EH         LINE#         805
  C:459BH         LINE#         806
  C:459BH         LINE#         808
  C:45B1H         LINE#         809
  C:45B1H         LINE#         810
  C:45BAH         LINE#         811
  C:45CFH         LINE#         812
  C:45E7H         LINE#         813
  C:45F4H         LINE#         814
  C:45F4H         LINE#         816
BL51 BANKED LINKER/LOCATER V6.22.2.0                                                  09/15/2020  15:49:49  PAGE 71


  C:460AH         LINE#         817
  C:460AH         LINE#         818
  C:4613H         LINE#         819
  C:4628H         LINE#         820
  C:4640H         LINE#         821
  C:464DH         LINE#         822
  C:464DH         LINE#         824
  C:4663H         LINE#         825
  C:4663H         LINE#         826
  C:466CH         LINE#         827
  C:4681H         LINE#         828
  C:4699H         LINE#         829
  C:46A6H         LINE#         830
  C:46A6H         LINE#         832
  C:46BCH         LINE#         833
  C:46BCH         LINE#         834
  C:46C5H         LINE#         835
  C:46DAH         LINE#         836
  C:46F2H         LINE#         837
  C:46FFH         LINE#         838
  C:46FFH         LINE#         840
  C:4715H         LINE#         841
  C:4715H         LINE#         842
  C:471EH         LINE#         843
  C:472DH         LINE#         844
  C:473FH         LINE#         845
  C:474CH         LINE#         846
  C:474CH         LINE#         847
  C:4755H         LINE#         849
  -------         ENDPROC       _PROG_HORARIO_DIAS
  -------         PROC          _VER_HORARIO_DIAS
  X:0075H         SYMBOL        addr
  -------         DO            
  X:0077H         SYMBOL        dataee
  -------         ENDDO         
  C:66A3H         LINE#         850
  C:66ABH         LINE#         851
  C:66ABH         LINE#         854
  C:66BBH         LINE#         855
  C:66C1H         LINE#         856
  C:66C1H         LINE#         857
  C:66C5H         LINE#         858
  C:66C7H         LINE#         860
  C:66C7H         LINE#         861
  C:66CEH         LINE#         862
  C:66CEH         LINE#         865
  C:66E6H         LINE#         866
  C:66ECH         LINE#         867
  C:66ECH         LINE#         868
  C:66F0H         LINE#         869
  C:66F2H         LINE#         871
  C:66F2H         LINE#         872
  C:66F9H         LINE#         873
  C:66F9H         LINE#         876
  C:6711H         LINE#         877
  C:6717H         LINE#         878
  C:6717H         LINE#         879
BL51 BANKED LINKER/LOCATER V6.22.2.0                                                  09/15/2020  15:49:49  PAGE 72


  C:671BH         LINE#         880
  C:671DH         LINE#         882
  C:671DH         LINE#         883
  C:6724H         LINE#         884
  C:6724H         LINE#         886
  C:673CH         LINE#         887
  C:6742H         LINE#         888
  C:6742H         LINE#         889
  C:6746H         LINE#         890
  C:6748H         LINE#         892
  C:6748H         LINE#         893
  C:674FH         LINE#         894
  C:674FH         LINE#         896
  C:6767H         LINE#         897
  C:676DH         LINE#         898
  C:676DH         LINE#         899
  C:6771H         LINE#         900
  C:6773H         LINE#         902
  C:6773H         LINE#         903
  C:677AH         LINE#         904
  C:677AH         LINE#         907
  C:6792H         LINE#         908
  C:6798H         LINE#         909
  C:6798H         LINE#         910
  C:679CH         LINE#         911
  C:679EH         LINE#         913
  C:679EH         LINE#         914
  C:67A5H         LINE#         915
  C:67A5H         LINE#         917
  C:67B7H         LINE#         918
  C:67BDH         LINE#         919
  C:67BDH         LINE#         920
  C:67C1H         LINE#         921
  C:67C3H         LINE#         923
  C:67C3H         LINE#         924
  C:67CAH         LINE#         925
  C:67CAH         LINE#         926
  -------         ENDPROC       _VER_HORARIO_DIAS
  -------         PROC          PROG_HORARIOS
  -------         DO            
  X:0047H         SYMBOL        buffer
  X:0051H         SYMBOL        ee_addr_horario
  X:005CH         SYMBOL        addr
  X:005EH         SYMBOL        temp
  X:0060H         SYMBOL        dataee
  X:0061H         SYMBOL        j
  -------         ENDDO         
  C:5E15H         LINE#         927
  C:5E15H         LINE#         928
  C:5E15H         LINE#         937
  C:5E21H         LINE#         941
  C:5E2AH         LINE#         942
  C:5E35H         LINE#         944
  C:5E44H         LINE#         948
  C:5E5AH         LINE#         949
  C:5E60H         LINE#         953
  C:5E6EH         LINE#         954
BL51 BANKED LINKER/LOCATER V6.22.2.0                                                  09/15/2020  15:49:49  PAGE 73


  C:5E76H         LINE#         955
  C:5E76H         LINE#         957
  C:5E85H         LINE#         958
  C:5E99H         LINE#         959
  C:5E99H         LINE#         960
  C:5EADH         LINE#         961
  C:5EB5H         LINE#         963
  C:5EC5H         LINE#         966
  C:5EC8H         LINE#         970
  C:5ED3H         LINE#         973
  C:5EDCH         LINE#         974
  C:5EE7H         LINE#         975
  C:5EF6H         LINE#         976
  C:5F09H         LINE#         978
  C:5F21H         LINE#         979
  C:5F3BH         LINE#         980
  C:5F43H         LINE#         981
  C:5F43H         LINE#         983
  C:5F51H         LINE#         984
  C:5F59H         LINE#         985
  C:5F59H         LINE#         986
  C:5F59H         LINE#         988
  -------         ENDPROC       PROG_HORARIOS
  -------         PROC          PROG_VALIDAR_TIPO_VEHICULO_MENSUAL
  -------         DO            
  X:0047H         SYMBOL        buffer
  X:0051H         SYMBOL        dataee
  -------         ENDDO         
  C:7539H         LINE#         989
  C:7539H         LINE#         990
  C:7539H         LINE#         995
  C:754CH         LINE#         996
  C:7569H         LINE#         997
  C:7573H         LINE#         998
  C:7573H         LINE#         999
  C:7586H         LINE#         1000
  C:7588H         LINE#         1002
  C:7588H         LINE#         1003
  C:759FH         LINE#         1004
  C:759FH         LINE#         1006
  C:75A8H         LINE#         1007
  C:75B3H         LINE#         1008
  C:75C4H         LINE#         1009
  C:75CEH         LINE#         1011
  C:75E1H         LINE#         1012
  C:75FEH         LINE#         1013
  C:7608H         LINE#         1014
  C:7608H         LINE#         1015
  C:761BH         LINE#         1016
  C:761DH         LINE#         1018
  C:761DH         LINE#         1019
  C:7634H         LINE#         1020
  C:7634H         LINE#         1021
  -------         ENDPROC       PROG_VALIDAR_TIPO_VEHICULO_MENSUAL
  -------         PROC          PROG_APB_MENSUAL
  -------         DO            
  X:0047H         SYMBOL        buffer
BL51 BANKED LINKER/LOCATER V6.22.2.0                                                  09/15/2020  15:49:49  PAGE 74


  X:0051H         SYMBOL        dataee
  -------         ENDDO         
  C:7635H         LINE#         1022
  C:7635H         LINE#         1023
  C:7635H         LINE#         1028
  C:7648H         LINE#         1029
  C:7665H         LINE#         1030
  C:766FH         LINE#         1031
  C:766FH         LINE#         1032
  C:7682H         LINE#         1033
  C:7684H         LINE#         1035
  C:7684H         LINE#         1036
  C:769BH         LINE#         1037
  C:769BH         LINE#         1039
  C:76A4H         LINE#         1040
  C:76AFH         LINE#         1041
  C:76C0H         LINE#         1042
  C:76CAH         LINE#         1044
  C:76DDH         LINE#         1045
  C:76FAH         LINE#         1046
  C:7704H         LINE#         1047
  C:7704H         LINE#         1048
  C:7717H         LINE#         1049
  C:7719H         LINE#         1051
  C:7719H         LINE#         1052
  C:7730H         LINE#         1053
  C:7730H         LINE#         1054
  -------         ENDPROC       PROG_APB_MENSUAL
  -------         PROC          PROG_FECHA_VENCIMIENTO
  -------         DO            
  X:0047H         SYMBOL        buffer
  X:0052H         SYMBOL        cmd
  X:0055H         SYMBOL        fecha
  X:005CH         SYMBOL        dataee
  -------         ENDDO         
  C:4FA2H         LINE#         1056
  C:4FA2H         LINE#         1057
  C:4FA2H         LINE#         1064
  C:4FAFH         LINE#         1065
  C:4FC6H         LINE#         1068
  C:4FDDH         LINE#         1070
  C:4FDDH         LINE#         1071
  C:4FE6H         LINE#         1072
  C:4FF3H         LINE#         1073
  C:500AH         LINE#         1074
  C:501CH         LINE#         1075
  C:5025H         LINE#         1080
  C:5030H         LINE#         1081
  C:5044H         LINE#         1082
  C:5051H         LINE#         1084
  C:505AH         LINE#         1087
  C:5063H         LINE#         1088
  C:506EH         LINE#         1089
  C:5085H         LINE#         1091
  C:508DH         LINE#         1092
  C:5095H         LINE#         1093
  C:5098H         LINE#         1095
BL51 BANKED LINKER/LOCATER V6.22.2.0                                                  09/15/2020  15:49:49  PAGE 75


  C:50A9H         LINE#         1096
  C:50BAH         LINE#         1098
  C:50C9H         LINE#         1099
  C:50D1H         LINE#         1100
  C:50D9H         LINE#         1101
  C:50DCH         LINE#         1102
  C:50EDH         LINE#         1103
  C:50FEH         LINE#         1104
  C:510DH         LINE#         1105
  C:5115H         LINE#         1106
  C:511DH         LINE#         1107
  C:5120H         LINE#         1108
  C:5131H         LINE#         1109
  C:5142H         LINE#         1110
  C:5151H         LINE#         1111
  C:515CH         LINE#         1113
  C:5169H         LINE#         1115
  C:5180H         LINE#         1116
  -------         ENDPROC       PROG_FECHA_VENCIMIENTO
  -------         PROC          VER_HORARIO
  -------         DO            
  X:005AH         SYMBOL        buffer
  X:0064H         SYMBOL        ee_addr_horario
  X:006FH         SYMBOL        conta
  X:0070H         SYMBOL        addr
  X:0072H         SYMBOL        temp
  X:0074H         SYMBOL        dataee
  -------         ENDDO         
  C:6318H         LINE#         1119
  C:6318H         LINE#         1120
  C:6318H         LINE#         1129
  C:6324H         LINE#         1130
  C:633AH         LINE#         1131
  C:633AH         LINE#         1133
  C:634AH         LINE#         1136
  C:6363H         LINE#         1137
  C:6369H         LINE#         1140
  C:6377H         LINE#         1141
  C:6386H         LINE#         1142
  C:63A0H         LINE#         1143
  C:63ABH         LINE#         1144
  C:63ABH         LINE#         1145
  C:63B4H         LINE#         1147
  C:63BDH         LINE#         1148
  C:63CDH         LINE#         1149
  C:63D0H         LINE#         1151
  C:63DBH         LINE#         1152
  C:63F3H         LINE#         1153
  C:640DH         LINE#         1154
  C:6417H         LINE#         1155
  C:6417H         LINE#         1156
  C:641EH         LINE#         1158
  C:642CH         LINE#         1159
  C:6434H         LINE#         1160
  C:6436H         LINE#         1162
  C:6436H         LINE#         1163
  C:643AH         LINE#         1164
BL51 BANKED LINKER/LOCATER V6.22.2.0                                                  09/15/2020  15:49:49  PAGE 76


  C:643AH         LINE#         1165
  C:643CH         LINE#         1167
  C:643CH         LINE#         1168
  C:6445H         LINE#         1169
  C:6445H         LINE#         1171
  C:644EH         LINE#         1174
  -------         ENDPROC       VER_HORARIO
  -------         PROC          VER_PROG
  -------         DO            
  X:0047H         SYMBOL        buffer
  X:0051H         SYMBOL        dataee
  X:0053H         SYMBOL        fecha
  -------         ENDDO         
  C:3B35H         LINE#         1175
  C:3B35H         LINE#         1176
  C:3B35H         LINE#         1182
  C:3B47H         LINE#         1183
  C:3B64H         LINE#         1185
  C:3B7BH         LINE#         1187
  C:3B8EH         LINE#         1188
  C:3BABH         LINE#         1190
  C:3BC2H         LINE#         1192
  C:3BD5H         LINE#         1193
  C:3BF2H         LINE#         1194
  C:3C00H         LINE#         1195
  C:3C00H         LINE#         1196
  C:3C04H         LINE#         1197
  C:3C06H         LINE#         1199
  C:3C06H         LINE#         1200
  C:3C0DH         LINE#         1201
  C:3C0DH         LINE#         1203
  C:3C20H         LINE#         1204
  C:3C3DH         LINE#         1205
  C:3C49H         LINE#         1206
  C:3C49H         LINE#         1207
  C:3C4DH         LINE#         1208
  C:3C4FH         LINE#         1210
  C:3C4FH         LINE#         1211
  C:3C56H         LINE#         1212
  C:3C56H         LINE#         1214
  C:3C69H         LINE#         1215
  C:3C86H         LINE#         1216
  C:3C92H         LINE#         1217
  C:3C92H         LINE#         1218
  C:3C96H         LINE#         1219
  C:3C98H         LINE#         1221
  C:3C98H         LINE#         1222
  C:3C9FH         LINE#         1223
  C:3C9FH         LINE#         1225
  C:3CB2H         LINE#         1226
  C:3CCFH         LINE#         1227
  C:3CDBH         LINE#         1228
  C:3CDBH         LINE#         1229
  C:3CDFH         LINE#         1230
  C:3CE1H         LINE#         1232
  C:3CE1H         LINE#         1233
  C:3CE8H         LINE#         1234
BL51 BANKED LINKER/LOCATER V6.22.2.0                                                  09/15/2020  15:49:49  PAGE 77


  C:3CE8H         LINE#         1236
  C:3CFBH         LINE#         1237
  C:3D18H         LINE#         1238
  C:3D24H         LINE#         1239
  C:3D24H         LINE#         1240
  C:3D28H         LINE#         1241
  C:3D2AH         LINE#         1243
  C:3D2AH         LINE#         1244
  C:3D31H         LINE#         1245
  C:3D31H         LINE#         1247
  C:3D44H         LINE#         1248
  C:3D61H         LINE#         1249
  C:3D6DH         LINE#         1250
  C:3D6DH         LINE#         1251
  C:3D71H         LINE#         1252
  C:3D73H         LINE#         1254
  C:3D73H         LINE#         1255
  C:3D7AH         LINE#         1256
  C:3D7AH         LINE#         1259
  C:3D8DH         LINE#         1260
  C:3DAAH         LINE#         1262
  C:3DC1H         LINE#         1264
  C:3DC4H         LINE#         1268
  C:3DD7H         LINE#         1269
  C:3DF4H         LINE#         1270
  C:3E00H         LINE#         1271
  C:3E00H         LINE#         1272
  C:3E04H         LINE#         1273
  C:3E06H         LINE#         1275
  C:3E06H         LINE#         1276
  C:3E0DH         LINE#         1277
  C:3E0DH         LINE#         1279
  C:3E20H         LINE#         1280
  C:3E3DH         LINE#         1281
  C:3E49H         LINE#         1282
  C:3E49H         LINE#         1283
  C:3E4DH         LINE#         1284
  C:3E4FH         LINE#         1286
  C:3E4FH         LINE#         1287
  C:3E56H         LINE#         1288
  C:3E56H         LINE#         1290
  C:3E63H         LINE#         1292
  C:3E7AH         LINE#         1293
  -------         ENDPROC       VER_PROG
  -------         PROC          SHOW
  C:9000H         LINE#         1299
  C:9000H         LINE#         1300
  C:9000H         LINE#         1301
  C:9009H         LINE#         1302
  C:9012H         LINE#         1303
  C:901BH         LINE#         1304
  C:9024H         LINE#         1305
  C:902DH         LINE#         1306
  C:9036H         LINE#         1307
  C:903FH         LINE#         1308
  C:9048H         LINE#         1309
  C:9051H         LINE#         1310
BL51 BANKED LINKER/LOCATER V6.22.2.0                                                  09/15/2020  15:49:49  PAGE 78


  C:905AH         LINE#         1311
  C:9063H         LINE#         1312
  C:906CH         LINE#         1313
  C:9075H         LINE#         1314
  C:907EH         LINE#         1315
  C:9087H         LINE#         1316
  C:9090H         LINE#         1317
  -------         ENDPROC       SHOW
  -------         PROC          FIRST_CLAVE
  -------         DO            
  X:0047H         SYMBOL        clave
  -------         ENDDO         
  C:A5EEH         LINE#         1324
  C:A5EEH         LINE#         1325
  C:A5EEH         LINE#         1329
  C:A5F7H         LINE#         1330
  C:A5FCH         LINE#         1331
  C:A60EH         LINE#         1332
  C:A61BH         LINE#         1333
  C:A621H         LINE#         1334
  C:A624H         LINE#         1335
  C:A627H         LINE#         1336
  C:A629H         LINE#         1338
  -------         ENDPROC       FIRST_CLAVE
  -------         PROC          MENU
  -------         DO            
  X:0002H         SYMBOL        cmd
  X:0005H         SYMBOL        option1
  X:0008H         SYMBOL        option2
  X:000BH         SYMBOL        opt_buffer
  X:0033H         SYMBOL        buffer
  -------         ENDDO         
  C:4756H         LINE#         1342
  C:4756H         LINE#         1343
  C:4756H         LINE#         1352
  C:475FH         LINE#         1357
  C:476BH         LINE#         1358
  C:476BH         LINE#         1359
  C:476EH         LINE#         1360
  C:4778H         LINE#         1363
  C:4778H         LINE#         1365
  C:4778H         LINE#         1366
  C:4781H         LINE#         1367
  C:478EH         LINE#         1368
  C:4793H         LINE#         1369
  C:47A9H         LINE#         1370
  C:47BBH         LINE#         1371
  C:47C4H         LINE#         1376
  C:47CFH         LINE#         1377
  C:47DDH         LINE#         1378
  C:47EAH         LINE#         1380
  C:47F3H         LINE#         1384
  C:47F6H         LINE#         1385
  C:47F6H         LINE#         1386
  C:47F6H         LINE#         1387
  C:47F9H         LINE#         1390
  C:4804H         LINE#         1391
BL51 BANKED LINKER/LOCATER V6.22.2.0                                                  09/15/2020  15:49:49  PAGE 79


  C:4812H         LINE#         1392
  C:4826H         LINE#         1393
  C:483AH         LINE#         1398
  C:4850H         LINE#         1399
  C:4850H         LINE#         1401
  C:485FH         LINE#         1402
  C:4861H         LINE#         1403
  C:4871H         LINE#         1404
  C:4871H         LINE#         1406
  C:4880H         LINE#         1407
  C:489EH         LINE#         1408
  C:489EH         LINE#         1414
  C:48B1H         LINE#         1415
  C:48B1H         LINE#         1416
  C:48FAH         LINE#         1417
  C:48FAH         LINE#         1418
  C:48FAH         LINE#         1419
  C:48FDH         LINE#         1421
  C:4900H         LINE#         1423
  C:4900H         LINE#         1424
  C:4903H         LINE#         1425
  C:4906H         LINE#         1426
  C:4906H         LINE#         1427
  C:4909H         LINE#         1428
  C:490CH         LINE#         1429
  C:490CH         LINE#         1430
  C:490FH         LINE#         1431
  C:4912H         LINE#         1432
  C:4912H         LINE#         1433
  C:4915H         LINE#         1434
  C:4918H         LINE#         1435
  C:4918H         LINE#         1436
  C:491BH         LINE#         1437
  C:491EH         LINE#         1438
  C:491EH         LINE#         1439
  C:4921H         LINE#         1440
  C:4924H         LINE#         1441
  C:4924H         LINE#         1442
  C:4927H         LINE#         1443
  C:492AH         LINE#         1444
  C:492AH         LINE#         1445
  C:492DH         LINE#         1446
  C:4930H         LINE#         1447
  C:4930H         LINE#         1448
  C:4933H         LINE#         1449
  C:4936H         LINE#         1450
  C:4936H         LINE#         1451
  C:4939H         LINE#         1452
  C:493CH         LINE#         1453
  C:493CH         LINE#         1454
  C:493FH         LINE#         1455
  C:4942H         LINE#         1456
  C:4942H         LINE#         1457
  C:4945H         LINE#         1458
  C:4948H         LINE#         1459
  C:4948H         LINE#         1460
  C:494BH         LINE#         1461
BL51 BANKED LINKER/LOCATER V6.22.2.0                                                  09/15/2020  15:49:49  PAGE 80


  C:494EH         LINE#         1462
  C:494EH         LINE#         1463
  C:4951H         LINE#         1464
  C:4954H         LINE#         1465
  C:4954H         LINE#         1466
  C:4957H         LINE#         1467
  C:495AH         LINE#         1468
  C:495AH         LINE#         1470
  C:495AH         LINE#         1471
  C:495AH         LINE#         1472
  C:495DH         LINE#         1473
  C:4960H         LINE#         1476
  C:4960H         LINE#         1477
  C:497EH         LINE#         1478
  C:4981H         LINE#         1479
  C:4981H         LINE#         1480
  C:4981H         LINE#         1481
  C:4981H         LINE#         1482
  -------         ENDPROC       MENU
  -------         ENDMOD        PROG

  -------         MODULE        PTO_PARALELO
  C:0000H         SYMBOL        _ICE_DUMMY_
  D:0080H         PUBLIC        P0
  D:00A0H         PUBLIC        P2
  D:00B0H         PUBLIC        P3
  B:0080H.2       PUBLIC        led_err_imp
  C:67CBH         PUBLIC        load_and_send_id_cod
  C:9099H         PUBLIC        _recibe_port
  B:00B0H.2       PUBLIC        ready
  B:0080H.6       PUBLIC        rx_in_data
  C:AFCFH         PUBLIC        Pulso_Bus
  C:96DCH         PUBLIC        _send_portERR
  B:00B0H.3       PUBLIC        busy
  C:ACDAH         PUBLIC        load_and_send_info_reloj
  C:8986H         PUBLIC        _send_port
  B:00B0H.4       PUBLIC        port_clk
  C:B040H         PUBLIC        cond_ini_pto
  -------         PROC          _RECIBE_PORT
  X:0002H         SYMBOL        buffer_port
  -------         DO            
  D:0006H         SYMBOL        count
  X:0005H         SYMBOL        time_out
  X:0006H         SYMBOL        num_data
  X:0007H         SYMBOL        T_ANCHO
  X:0009H         SYMBOL        data_temp
  -------         ENDDO         
  C:9099H         LINE#         48
  C:90A4H         LINE#         49
  C:90A4H         LINE#         53
  C:90ADH         LINE#         54
  C:90B0H         LINE#         57
  C:90B3H         LINE#         58
  C:90B3H         LINE#         60
  C:90B6H         LINE#         61
  C:90BBH         LINE#         62
  C:90BDH         LINE#         63
BL51 BANKED LINKER/LOCATER V6.22.2.0                                                  09/15/2020  15:49:49  PAGE 81


  C:90C1H         LINE#         64
  C:90C3H         LINE#         67
  C:90C8H         LINE#         68
  C:90D1H         LINE#         69
  C:90D1H         LINE#         70
  C:90D4H         LINE#         71
  C:90D4H         LINE#         73
  C:90D9H         LINE#         74
  C:90DDH         LINE#         75
  C:90DDH         LINE#         76
  C:90DFH         LINE#         77
  C:90E1H         LINE#         78
  C:90E1H         LINE#         79
  C:90E1H         LINE#         81
  C:90E1H         LINE#         82
  C:90EEH         LINE#         83
  C:90EEH         LINE#         85
  C:90F1H         LINE#         86
  C:90F1H         LINE#         88
  C:90F7H         LINE#         90
  C:90F9H         LINE#         91
  C:910DH         LINE#         92
  C:9117H         LINE#         93
  C:911DH         LINE#         94
  C:9123H         LINE#         95
  C:9125H         LINE#         96
  C:9125H         LINE#         97
  C:9125H         LINE#         98
  C:9125H         LINE#         101
  C:9127H         LINE#         102
  C:9129H         LINE#         103
  C:9129H         LINE#         104
  C:912CH         LINE#         106
  C:9131H         LINE#         107
  -------         ENDPROC       _RECIBE_PORT
  -------         PROC          _SEND_PORT
  X:0016H         SYMBOL        buffer_port
  X:0019H         SYMBOL        length_char
  -------         DO            
  X:001AH         SYMBOL        cont
  X:001EH         SYMBOL        timeOut
  X:001FH         SYMBOL        length
  -------         ENDDO         
  C:8986H         LINE#         114
  C:8994H         LINE#         115
  C:8994H         LINE#         120
  C:8998H         LINE#         122
  C:899AH         LINE#         123
  C:899CH         LINE#         124
  C:899EH         LINE#         125
  C:89A3H         LINE#         126
  C:89A5H         LINE#         127
  C:89AFH         LINE#         129
  C:89B8H         LINE#         130
  C:89B8H         LINE#         131
  C:89BAH         LINE#         132
  C:89BCH         LINE#         133
BL51 BANKED LINKER/LOCATER V6.22.2.0                                                  09/15/2020  15:49:49  PAGE 82


  C:89E0H         LINE#         134
  C:89F4H         LINE#         135
  C:89F4H         LINE#         136
  C:89F7H         LINE#         137
  C:89F9H         LINE#         138
  C:89F9H         LINE#         139
  C:89FBH         LINE#         140
  C:8A04H         LINE#         141
  C:8A04H         LINE#         145
  C:8A04H         LINE#         147
  C:8A14H         LINE#         148
  C:8A17H         LINE#         149
  C:8A21H         LINE#         151
  C:8A27H         LINE#         152
  C:8A2AH         LINE#         154
  C:8A2AH         LINE#         156
  C:8A2DH         LINE#         157
  C:8A2FH         LINE#         158
  C:8A31H         LINE#         159
  C:8A33H         LINE#         160
  -------         ENDPROC       _SEND_PORT
  -------         PROC          PULSO_BUS
  C:AFCFH         LINE#         435
  C:AFCFH         LINE#         436
  C:AFCFH         LINE#         437
  C:AFD1H         LINE#         438
  C:AFD8H         LINE#         439
  C:AFDAH         LINE#         440
  -------         ENDPROC       PULSO_BUS
  -------         PROC          _SEND_PORTERR
  X:002BH         SYMBOL        cod_err
  -------         DO            
  X:002CH         SYMBOL        timeOut
  X:002DH         SYMBOL        cont
  -------         ENDDO         
  C:96DCH         LINE#         445
  C:96E2H         LINE#         446
  C:96E2H         LINE#         450
  C:96E4H         LINE#         451
  C:96E6H         LINE#         452
  C:96E9H         LINE#         453
  C:96F1H         LINE#         455
  C:96F3H         LINE#         456
  C:96F5H         LINE#         457
  C:96FEH         LINE#         458
  C:96FEH         LINE#         459
  C:9720H         LINE#         460
  C:9734H         LINE#         461
  C:9734H         LINE#         462
  C:9739H         LINE#         463
  C:9739H         LINE#         464
  C:973BH         LINE#         465
  C:9744H         LINE#         466
  C:9744H         LINE#         467
  C:974AH         LINE#         468
  C:974DH         LINE#         469
  C:974DH         LINE#         470
BL51 BANKED LINKER/LOCATER V6.22.2.0                                                  09/15/2020  15:49:49  PAGE 83


  C:974FH         LINE#         471
  C:9751H         LINE#         472
  C:9753H         LINE#         474
  C:9756H         LINE#         476
  C:975DH         LINE#         477
  -------         ENDPROC       _SEND_PORTERR
  -------         PROC          COND_INI_PTO
  C:B040H         LINE#         483
  C:B040H         LINE#         484
  C:B040H         LINE#         486
  C:B042H         LINE#         487
  C:B044H         LINE#         488
  C:B046H         LINE#         489
  C:B049H         LINE#         490
  -------         ENDPROC       COND_INI_PTO
  -------         PROC          LOAD_AND_SEND_INFO_RELOJ
  -------         DO            
  X:0003H         SYMBOL        buffer_info
  -------         ENDDO         
  C:ACDAH         LINE#         495
  C:ACDAH         LINE#         496
  C:ACDAH         LINE#         499
  C:ACE0H         LINE#         501
  C:ACE4H         LINE#         503
  C:ACEDH         LINE#         504
  C:ACF7H         LINE#         505
  C:ACFBH         LINE#         509
  -------         ENDPROC       LOAD_AND_SEND_INFO_RELOJ
  -------         PROC          LOAD_AND_SEND_ID_COD
  -------         DO            
  X:0003H         SYMBOL        buffer_info
  X:000EH         SYMBOL        buf
  X:0012H         SYMBOL        i
  X:0013H         SYMBOL        k
  X:0014H         SYMBOL        ID_CLIENTE
  X:0015H         SYMBOL        COD_PARK
  -------         ENDDO         
  C:67CBH         LINE#         516
  C:67CBH         LINE#         517
  C:67CBH         LINE#         523
  C:67D0H         LINE#         524
  C:67DCH         LINE#         525
  C:67EAH         LINE#         526
  C:67F0H         LINE#         527
  C:67F4H         LINE#         528
  C:6813H         LINE#         529
  C:6819H         LINE#         530
  C:6819H         LINE#         531
  C:682AH         LINE#         532
  C:682AH         LINE#         533
  C:6839H         LINE#         534
  C:683FH         LINE#         535
  C:6841H         LINE#         536
  C:6859H         LINE#         538
  C:6861H         LINE#         541
  C:6880H         LINE#         543
  C:6885H         LINE#         544
BL51 BANKED LINKER/LOCATER V6.22.2.0                                                  09/15/2020  15:49:49  PAGE 84


  C:6885H         LINE#         545
  C:6896H         LINE#         546
  C:6896H         LINE#         547
  C:68A5H         LINE#         548
  C:68ABH         LINE#         549
  C:68C5H         LINE#         550
  C:68CDH         LINE#         553
  C:68DEH         LINE#         554
  -------         ENDPROC       LOAD_AND_SEND_ID_COD
  -------         ENDMOD        PTO_PARALELO

  -------         MODULE        TIBBO
  C:0000H         SYMBOL        _ICE_DUMMY_
  C:A750H         PUBLIC        _Debug_HexDec
  C:A5B0H         PUBLIC        _Debug_txt_Tibbo
  D:0080H         PUBLIC        P0
  D:0090H         PUBLIC        P1
  B:0090H.0       PUBLIC        txd2
  B:00A8H.7       PUBLIC        EA
  C:A55DH         PUBLIC        _tx_aux
  B:0080H.0       PUBLIC        rx_ip
  C:AF8EH         PUBLIC        Debug_Dividir_texto
  C:B0A4H         PUBLIC        cond_ini_tibbo
  C:AF6CH         PUBLIC        time_mbit
  C:9764H         PUBLIC        rx_Data
  C:AEEBH         PUBLIC        time_bit
  C:AA90H         PUBLIC        _Debug_pto_paralelo
  C:AC49H         PUBLIC        _Debug_monitor
  C:9DEDH         PUBLIC        _DebugBufferMF
  C:A636H         PUBLIC        _Debug_chr_Tibbo
  C:AEE5H         SYMBOL        L?0066
  -------         PROC          L?0065
  -------         ENDPROC       L?0065
  C:AEE5H         SYMBOL        L?0066
  -------         PROC          TIME_BIT
  -------         DO            
  D:0007H         SYMBOL        j
  -------         ENDDO         
  C:AEEBH         LINE#         19
  C:AEEBH         LINE#         20
  C:AEEBH         LINE#         23
  C:AEF7H         LINE#         24
  C:AEF7H         LINE#         25
  C:AEF8H         LINE#         26
  C:AEF9H         LINE#         27
  C:AEFAH         LINE#         28
  C:AEFBH         LINE#         29
  C:AEFCH         LINE#         30
  C:AEFDH         LINE#         31
  C:AEFEH         LINE#         32
  C:AEFFH         LINE#         33
  C:AF00H         LINE#         38
  C:AF03H         LINE#         39
  -------         ENDPROC       TIME_BIT
  -------         PROC          TIME_MBIT
  -------         DO            
  D:0007H         SYMBOL        j
BL51 BANKED LINKER/LOCATER V6.22.2.0                                                  09/15/2020  15:49:49  PAGE 85


  -------         ENDDO         
  C:AF6CH         LINE#         42
  C:AF6CH         LINE#         43
  C:AF6CH         LINE#         45
  C:AF78H         LINE#         46
  C:AF78H         LINE#         47
  C:AF79H         LINE#         48
  C:AF7AH         LINE#         49
  C:AF7BH         LINE#         50
  C:AF7CH         LINE#         51
  C:AF7DH         LINE#         52
  C:AF7EH         LINE#         53
  C:AF7FH         LINE#         54
  C:AF82H         LINE#         56
  -------         ENDPROC       TIME_MBIT
  -------         PROC          L?0070
  -------         ENDPROC       L?0070
  -------         PROC          _TX_AUX
  D:0006H         SYMBOL        caracter
  -------         DO            
  D:0004H         SYMBOL        j
  D:0005H         SYMBOL        temporal
  D:0006H         SYMBOL        bitTX
  -------         ENDDO         
  C:A55DH         LINE#         61
  C:A55FH         LINE#         62
  C:A55FH         LINE#         65
  C:A561H         LINE#         66
  C:A563H         LINE#         67
  C:A566H         LINE#         68
  C:A567H         LINE#         69
  C:A568H         LINE#         70
  C:A56AH         LINE#         71
  C:A56EH         LINE#         72
  C:A570H         LINE#         73
  C:A570H         LINE#         74
  C:A572H         LINE#         75
  C:A574H         LINE#         77
  C:A574H         LINE#         78
  C:A576H         LINE#         79
  C:A576H         LINE#         80
  C:A579H         LINE#         81
  C:A585H         LINE#         82
  C:A585H         LINE#         83
  C:A589H         LINE#         84
  C:A58CH         LINE#         85
  C:A58EH         LINE#         86
  C:A58EH         LINE#         87
  C:A590H         LINE#         88
  C:A592H         LINE#         90
  C:A592H         LINE#         91
  C:A594H         LINE#         92
  C:A594H         LINE#         93
  C:A597H         LINE#         94
  C:A59AH         LINE#         95
  C:A59CH         LINE#         96
  C:A59FH         LINE#         97
BL51 BANKED LINKER/LOCATER V6.22.2.0                                                  09/15/2020  15:49:49  PAGE 86


  C:A5A2H         LINE#         99
  C:A5A4H         LINE#         100
  -------         ENDPROC       _TX_AUX
  -------         PROC          _DEBUG_HEXDEC
  D:0007H         SYMBOL        xfc
  -------         DO            
  X:0019H         SYMBOL        valor
  D:0006H         SYMBOL        centena
  D:0003H         SYMBOL        decena
  D:0002H         SYMBOL        unidad
  -------         ENDDO         
  C:A750H         LINE#         103
  C:A750H         LINE#         104
  C:A750H         LINE#         107
  C:A757H         LINE#         109
  C:A758H         LINE#         110
  C:A759H         LINE#         111
  C:A75AH         LINE#         112
  C:A762H         LINE#         113
  C:A762H         LINE#         114
  C:A76CH         LINE#         115
  C:A76CH         LINE#         116
  C:A770H         LINE#         117
  C:A771H         LINE#         118
  C:A773H         LINE#         119
  C:A77DH         LINE#         120
  C:A77DH         LINE#         121
  C:A781H         LINE#         122
  C:A782H         LINE#         123
  C:A784H         LINE#         124
  C:A786H         LINE#         125
  C:A78AH         LINE#         126
  C:A78EH         LINE#         127
  C:A795H         LINE#         129
  C:A795H         LINE#         130
  -------         ENDPROC       _DEBUG_HEXDEC
  -------         PROC          _DEBUG_CHR_TIBBO
  D:0003H         SYMBOL        Dat
  -------         DO            
  D:0007H         SYMBOL        temp
  -------         ENDDO         
  C:A636H         LINE#         135
  C:A638H         LINE#         136
  C:A638H         LINE#         138
  C:A640H         LINE#         139
  C:A640H         LINE#         140
  C:A647H         LINE#         141
  C:A65AH         LINE#         143
  C:A65DH         LINE#         145
  C:A661H         LINE#         146
  C:A674H         LINE#         147
  C:A677H         LINE#         148
  C:A67CH         LINE#         150
  C:A67CH         LINE#         151
  -------         ENDPROC       _DEBUG_CHR_TIBBO
  -------         PROC          _DEBUGBUFFERMF
  X:0028H         SYMBOL        str
BL51 BANKED LINKER/LOCATER V6.22.2.0                                                  09/15/2020  15:49:49  PAGE 87


  X:002BH         SYMBOL        num_char
  X:002CH         SYMBOL        io
  -------         DO            
  X:002DH         SYMBOL        j
  -------         ENDDO         
  C:9DEDH         LINE#         158
  C:9DFBH         LINE#         159
  C:9DFBH         LINE#         163
  C:9E03H         LINE#         164
  C:9E03H         LINE#         165
  C:9E12H         LINE#         166
  C:9E12H         LINE#         167
  C:9E16H         LINE#         168
  C:9E1FH         LINE#         169
  C:9E31H         LINE#         170
  C:9E31H         LINE#         171
  C:9E43H         LINE#         172
  C:9E4DH         LINE#         173
  C:9E55H         LINE#         174
  C:9E5AH         LINE#         175
  C:9E5FH         LINE#         176
  C:9E5FH         LINE#         178
  -------         ENDPROC       _DEBUGBUFFERMF
  C:A5AAH         SYMBOL        L?0068
  -------         PROC          L?0067
  -------         ENDPROC       L?0067
  C:A5AAH         SYMBOL        L?0068
  -------         PROC          _DEBUG_TXT_TIBBO
  X:0038H         SYMBOL        str
  -------         DO            
  X:003BH         SYMBOL        i
  -------         ENDDO         
  C:A5B0H         LINE#         183
  C:A5BBH         LINE#         184
  C:A5BBH         LINE#         186
  C:A5BEH         LINE#         188
  C:A5C6H         LINE#         189
  C:A5C6H         LINE#         190
  C:A5E2H         LINE#         191
  C:A5E2H         LINE#         192
  C:A5E5H         LINE#         193
  C:A5EDH         LINE#         195
  C:A5EDH         LINE#         196
  -------         ENDPROC       _DEBUG_TXT_TIBBO
  -------         PROC          L?0069
  -------         ENDPROC       L?0069
  -------         PROC          DEBUG_DIVIDIR_TEXTO
  C:AF8EH         LINE#         198
  C:AF8EH         LINE#         199
  C:AF8EH         LINE#         200
  -------         ENDPROC       DEBUG_DIVIDIR_TEXTO
  -------         PROC          RX_DATA
  -------         DO            
  D:0006H         SYMBOL        temporal
  -------         ENDDO         
  C:9764H         LINE#         206
  C:9764H         LINE#         207
BL51 BANKED LINKER/LOCATER V6.22.2.0                                                  09/15/2020  15:49:49  PAGE 88


  C:9764H         LINE#         210
  C:9766H         LINE#         211
  C:9769H         LINE#         213
  C:976CH         LINE#         215
  C:9778H         LINE#         216
  C:9778H         LINE#         218
  C:977BH         LINE#         220
  C:9787H         LINE#         221
  C:9787H         LINE#         223
  C:978AH         LINE#         225
  C:9796H         LINE#         226
  C:9796H         LINE#         228
  C:9799H         LINE#         230
  C:97A5H         LINE#         231
  C:97A5H         LINE#         233
  C:97A8H         LINE#         235
  C:97B4H         LINE#         236
  C:97B4H         LINE#         238
  C:97B7H         LINE#         240
  C:97C3H         LINE#         241
  C:97C3H         LINE#         243
  C:97C6H         LINE#         245
  C:97D2H         LINE#         246
  C:97D2H         LINE#         248
  C:97D5H         LINE#         249
  C:97E3H         LINE#         251
  C:97E6H         LINE#         252
  C:97E9H         LINE#         253
  C:97E9H         LINE#         254
  C:97E9H         LINE#         257
  C:97EBH         LINE#         259
  -------         ENDPROC       RX_DATA
  -------         PROC          COND_INI_TIBBO
  C:B0A4H         LINE#         277
  C:B0A4H         LINE#         278
  C:B0A4H         LINE#         280
  C:B0A6H         LINE#         281
  C:B0A8H         LINE#         282
  -------         ENDPROC       COND_INI_TIBBO
  -------         PROC          _DEBUG_PTO_PARALELO
  X:0002H         SYMBOL        buffer
  X:0005H         SYMBOL        Length_trama
  C:AA90H         LINE#         283
  C:AA93H         LINE#         284
  C:AA93H         LINE#         285
  C:AA96H         LINE#         286
  C:AA9FH         LINE#         287
  C:AAB6H         LINE#         288
  C:AAB9H         LINE#         289
  C:AAC2H         LINE#         290
  C:AAC5H         LINE#         291
  C:AAC8H         LINE#         292
  -------         ENDPROC       _DEBUG_PTO_PARALELO
  -------         PROC          _DEBUG_MONITOR
  X:0015H         SYMBOL        buffer
  X:0018H         SYMBOL        Length_trama
  C:AC49H         LINE#         295
BL51 BANKED LINKER/LOCATER V6.22.2.0                                                  09/15/2020  15:49:49  PAGE 89


  C:AC4CH         LINE#         296
  C:AC4CH         LINE#         297
  C:AC4FH         LINE#         298
  C:AC58H         LINE#         299
  C:AC66H         LINE#         300
  C:AC69H         LINE#         301
  C:AC72H         LINE#         302
  C:AC75H         LINE#         303
  C:AC78H         LINE#         304
  -------         ENDPROC       _DEBUG_MONITOR
  -------         ENDMOD        TIBBO

  -------         MODULE        UART
  C:0000H         SYMBOL        _ICE_DUMMY_
  C:ADCFH         PUBLIC        com_getchar
  C:AFE1H         PUBLIC        com_rbuflen
  C:AFF3H         PUBLIC        com_tbuflen
  B:00A8H.4       PUBLIC        ES
  B:0098H.0       PUBLIC        RI
  C:AACBH         PUBLIC        _com_putchar
  B:0098H.1       PUBLIC        TI
  B:0021H.3       PUBLIC        aSk
  B:00B8H.4       PUBLIC        PS
  D:000DH         SYMBOL        r_in
  D:000EH         SYMBOL        r_out
  D:000FH         SYMBOL        t_in
  D:0010H         SYMBOL        t_out
  D:0099H         PUBLIC        SBUF
  D:0087H         PUBLIC        PCON
  D:0089H         PUBLIC        TMOD
  B:0021H.4       SYMBOL        ti_restart
  B:00A8H.3       PUBLIC        ET1
  D:008DH         PUBLIC        TH1
  B:0098H.7       PUBLIC        SM0
  B:0098H.6       PUBLIC        SM1
  D:008BH         PUBLIC        TL1
  B:0098H.5       PUBLIC        SM2
  B:0088H.6       PUBLIC        TR1
  C:AD06H         PUBLIC        com_initialize
  X:020BH         PUBLIC        cnt__ask_off
  B:0098H.4       PUBLIC        REN
  C:AD58H         PUBLIC        com_baudrate
  C:5376H         SYMBOL        com_isr
  -------         PROC          COM_ISR
  -------         DO            
  X:0209H         SYMBOL        cDatoRx
  D:0006H         SYMBOL        k
  D:0007H         SYMBOL        bcc
  X:020AH         SYMBOL        num_datos
  -------         ENDDO         
  C:5376H         LINE#         96
  C:538BH         LINE#         104
  C:5391H         LINE#         105
  C:5391H         LINE#         107
  C:5393H         LINE#         108
  C:5399H         LINE#         109
  C:53A9H         LINE#         110
BL51 BANKED LINKER/LOCATER V6.22.2.0                                                  09/15/2020  15:49:49  PAGE 90


  C:53A9H         LINE#         111
  C:53B4H         LINE#         112
  C:53B6H         LINE#         114
  C:53B6H         LINE#         115
  C:53C6H         LINE#         116
  C:53C6H         LINE#         117
  C:53CBH         LINE#         118
  C:53CBH         LINE#         119
  C:53E2H         LINE#         120
  C:53E2H         LINE#         124
  C:53E2H         LINE#         127
  C:53F1H         LINE#         128
  C:53F1H         LINE#         129
  C:53F3H         LINE#         130
  C:53FBH         LINE#         131
  C:5400H         LINE#         133
  C:5400H         LINE#         134
  C:5403H         LINE#         138
  C:5403H         LINE#         139
  C:5403H         LINE#         140
  C:541BH         LINE#         141
  C:542AH         LINE#         142
  C:542AH         LINE#         143
  C:542AH         LINE#         144
  C:542CH         LINE#         146
  C:542CH         LINE#         147
  C:542EH         LINE#         148
  C:542EH         LINE#         149
  C:542EH         LINE#         150
  C:5431H         LINE#         154
  C:5431H         LINE#         156
  C:543AH         LINE#         157
  C:543AH         LINE#         159
  C:5440H         LINE#         160
  C:5453H         LINE#         161
  C:5453H         LINE#         162
  C:5456H         LINE#         164
  C:5456H         LINE#         165
  C:546BH         LINE#         166
  C:5471H         LINE#         167
  C:5471H         LINE#         169
  C:5474H         LINE#         173
  C:5474H         LINE#         175
  C:548CH         LINE#         176
  C:5492H         LINE#         177
  C:5495H         LINE#         178
  C:5495H         LINE#         179
  C:54ADH         LINE#         180
  C:54ADH         LINE#         181
  C:54AEH         LINE#         182
  C:54BBH         LINE#         183
  C:54BBH         LINE#         184
  C:54C8H         LINE#         185
  C:54CBH         LINE#         186
  C:54D9H         LINE#         187
  C:54D9H         LINE#         188
  C:54DBH         LINE#         189
BL51 BANKED LINKER/LOCATER V6.22.2.0                                                  09/15/2020  15:49:49  PAGE 91


  C:54E0H         LINE#         190
  C:54E2H         LINE#         191
  C:54E6H         LINE#         193
  C:54E8H         LINE#         195
  C:54E8H         LINE#         196
  C:54E8H         LINE#         197
  C:54E8H         LINE#         198
  C:54EAH         LINE#         200
  C:54EAH         LINE#         201
  C:54EAH         LINE#         202
  C:54EAH         LINE#         204
  C:54ECH         LINE#         206
  C:54ECH         LINE#         207
  C:54F2H         LINE#         208
  C:54F2H         LINE#         210
  C:54F4H         LINE#         215
  C:54F4H         LINE#         216
  C:54F9H         LINE#         217
  C:54F9H         LINE#         218
  C:54F9H         LINE#         219
  C:54F9H         LINE#         224
  C:54FCH         LINE#         225
  C:54FCH         LINE#         226
  C:54FEH         LINE#         228
  C:5504H         LINE#         229
  C:5504H         LINE#         230
  C:550EH         LINE#         232
  C:5510H         LINE#         233
  C:5512H         LINE#         234
  C:5514H         LINE#         236
  C:5514H         LINE#         237
  C:5516H         LINE#         238
  C:5516H         LINE#         239
  C:5516H         LINE#         241
  -------         ENDPROC       COM_ISR
  -------         PROC          COM_INITIALIZE
  C:AD06H         LINE#         257
  C:AD0DH         LINE#         258
  C:AD0DH         LINE#         262
  C:AD10H         LINE#         267
  C:AD13H         LINE#         268
  C:AD15H         LINE#         270
  C:AD17H         LINE#         271
  C:AD19H         LINE#         276
  C:AD1DH         LINE#         277
  C:AD1FH         LINE#         278
  C:AD21H         LINE#         280
  C:AD23H         LINE#         281
  C:AD25H         LINE#         282
  C:AD27H         LINE#         284
  C:AD29H         LINE#         285
  C:AD2BH         LINE#         286
  -------         ENDPROC       COM_INITIALIZE
  -------         PROC          COM_BAUDRATE
  C:AD58H         LINE#         292
  C:AD5FH         LINE#         294
  C:AD5FH         LINE#         298
BL51 BANKED LINKER/LOCATER V6.22.2.0                                                  09/15/2020  15:49:49  PAGE 92


  C:AD61H         LINE#         299
  C:AD64H         LINE#         300
  C:AD66H         LINE#         305
  C:AD68H         LINE#         306
  C:AD6AH         LINE#         308
  C:AD6DH         LINE#         310
  C:AD70H         LINE#         311
  C:AD73H         LINE#         313
  C:AD76H         LINE#         314
  C:AD79H         LINE#         315
  C:AD7BH         LINE#         316
  -------         ENDPROC       COM_BAUDRATE
  -------         PROC          _COM_PUTCHAR
  X:00ABH         SYMBOL        c
  C:AACBH         LINE#         322
  C:AAD7H         LINE#         323
  C:AAD7H         LINE#         327
  C:AAE4H         LINE#         328
  C:AAE8H         LINE#         334
  C:AAF6H         LINE#         336
  C:AAF8H         LINE#         338
  C:AAFBH         LINE#         339
  C:AAFBH         LINE#         340
  C:AAFDH         LINE#         341
  C:AAFFH         LINE#         342
  C:AAFFH         LINE#         344
  C:AB01H         LINE#         345
  -------         ENDPROC       _COM_PUTCHAR
  -------         PROC          COM_GETCHAR
  C:ADCFH         LINE#         351
  C:ADD6H         LINE#         352
  C:ADD6H         LINE#         353
  C:ADDCH         LINE#         354
  C:ADE2H         LINE#         356
  C:ADF0H         LINE#         357
  -------         ENDPROC       COM_GETCHAR
  -------         PROC          COM_RBUFLEN
  C:AFE1H         LINE#         363
  C:AFE8H         LINE#         364
  C:AFE8H         LINE#         365
  C:AFEEH         LINE#         366
  -------         ENDPROC       COM_RBUFLEN
  -------         PROC          COM_TBUFLEN
  C:AFF3H         LINE#         372
  C:AFFAH         LINE#         373
  C:AFFAH         LINE#         374
  C:B000H         LINE#         375
  -------         ENDPROC       COM_TBUFLEN
  -------         ENDMOD        UART

  -------         MODULE        LINTECH
  C:0000H         SYMBOL        _ICE_DUMMY_
  C:8E2FH         PUBLIC        _Inicializa
  C:82D9H         PUBLIC        _RD_MF
  C:8C3DH         PUBLIC        Dwload_EEprom
  C:92F0H         PUBLIC        _Card_Insercion
  C:7822H         PUBLIC        _Mov_Card
BL51 BANKED LINKER/LOCATER V6.22.2.0                                                  09/15/2020  15:49:49  PAGE 93


  C:6F4DH         PUBLIC        _WR_MF
  C:9381H         PUBLIC        LoadVerify_EEprom
  C:97ECH         PUBLIC        Unique_Identifier_UID
  C:9BFCH         PUBLIC        Power_off
  C:9C7CH         PUBLIC        _Check_Status
  C:8B93H         PUBLIC        Clave_Seguridad_S2
  C:9B7CH         PUBLIC        Aut_Card_check_Status
  -------         PROC          _INICIALIZA
  X:0003H         SYMBOL        TipoMovimiento
  -------         DO            
  D:0003H         SYMBOL        j
  X:0004H         SYMBOL        bcc
  X:0005H         SYMBOL        g_scArrTxComSoft
  -------         ENDDO         
  C:8E2FH         LINE#         66
  C:8E34H         LINE#         67
  C:8E34H         LINE#         70
  C:8E37H         LINE#         71
  C:8E4DH         LINE#         72
  C:8E4DH         LINE#         74
  C:8E56H         LINE#         76
  C:8E5CH         LINE#         77
  C:8E5FH         LINE#         78
  C:8E61H         LINE#         79
  C:8E65H         LINE#         80
  C:8E69H         LINE#         81
  C:8E6DH         LINE#         82
  C:8E75H         LINE#         83
  C:8E79H         LINE#         84
  C:8E85H         LINE#         85
  C:8E85H         LINE#         86
  C:8E99H         LINE#         87
  C:8E9CH         LINE#         88
  C:8EA4H         LINE#         89
  C:8EA6H         LINE#         90
  C:8EABH         LINE#         91
  C:8EBAH         LINE#         92
  C:8EC5H         LINE#         93
  C:8ECBH         LINE#         94
  C:8ECBH         LINE#         95
  -------         ENDPROC       _INICIALIZA
  -------         PROC          _CHECK_STATUS
  X:0003H         SYMBOL        Detalle
  -------         DO            
  D:0006H         SYMBOL        j
  D:0007H         SYMBOL        bcc
  X:0004H         SYMBOL        g_scArrTxComSoft
  -------         ENDDO         
  C:9C7CH         LINE#         107
  C:9C81H         LINE#         108
  C:9C81H         LINE#         111
  C:9C8AH         LINE#         113
  C:9C8CH         LINE#         115
  C:9C92H         LINE#         116
  C:9C95H         LINE#         117
  C:9C97H         LINE#         118
  C:9C9BH         LINE#         119
BL51 BANKED LINKER/LOCATER V6.22.2.0                                                  09/15/2020  15:49:49  PAGE 94


  C:9C9FH         LINE#         120
  C:9CA3H         LINE#         121
  C:9CABH         LINE#         122
  C:9CAFH         LINE#         123
  C:9CBBH         LINE#         124
  C:9CBBH         LINE#         125
  C:9CC8H         LINE#         126
  C:9CCBH         LINE#         127
  C:9CD0H         LINE#         128
  C:9CD2H         LINE#         129
  C:9CD7H         LINE#         130
  C:9CE6H         LINE#         131
  C:9CF1H         LINE#         132
  C:9CF7H         LINE#         133
  -------         ENDPROC       _CHECK_STATUS
  -------         PROC          _CARD_INSERCION
  D:0007H         SYMBOL        Tipo
  -------         DO            
  D:0006H         SYMBOL        j
  D:0007H         SYMBOL        bcc
  X:0003H         SYMBOL        g_scArrTxComSoft
  -------         ENDDO         
  C:92F0H         LINE#         143
  C:92F0H         LINE#         144
  C:92F0H         LINE#         147
  C:92FDH         LINE#         148
  C:92FDH         LINE#         149
  C:9304H         LINE#         150
  C:930AH         LINE#         151
  C:930CH         LINE#         153
  C:930CH         LINE#         155
  C:9313H         LINE#         156
  C:9319H         LINE#         158
  C:9319H         LINE#         160
  C:931BH         LINE#         162
  C:9321H         LINE#         163
  C:9324H         LINE#         164
  C:9326H         LINE#         165
  C:932AH         LINE#         166
  C:932EH         LINE#         167
  C:9332H         LINE#         169
  C:9338H         LINE#         170
  C:9344H         LINE#         171
  C:9344H         LINE#         172
  C:9351H         LINE#         173
  C:9354H         LINE#         175
  C:9359H         LINE#         177
  C:935BH         LINE#         178
  C:9360H         LINE#         179
  C:936FH         LINE#         180
  C:937AH         LINE#         181
  C:9380H         LINE#         182
  -------         ENDPROC       _CARD_INSERCION
  -------         PROC          _MOV_CARD
  X:0003H         SYMBOL        Posicion
  -------         DO            
  D:0003H         SYMBOL        j
BL51 BANKED LINKER/LOCATER V6.22.2.0                                                  09/15/2020  15:49:49  PAGE 95


  X:0004H         SYMBOL        bcc
  X:0005H         SYMBOL        g_scArrTxComSoft
  -------         ENDDO         
  C:7822H         LINE#         193
  C:7827H         LINE#         194
  C:7827H         LINE#         197
  C:782AH         LINE#         199
  C:784AH         LINE#         200
  C:784AH         LINE#         201
  C:7851H         LINE#         202
  C:7851H         LINE#         203
  C:7857H         LINE#         204
  C:7859H         LINE#         205
  C:7860H         LINE#         206
  C:7860H         LINE#         207
  C:7866H         LINE#         208
  C:7868H         LINE#         209
  C:786FH         LINE#         210
  C:786FH         LINE#         211
  C:7875H         LINE#         212
  C:7877H         LINE#         213
  C:787EH         LINE#         214
  C:787EH         LINE#         215
  C:7884H         LINE#         216
  C:7886H         LINE#         217
  C:788DH         LINE#         218
  C:788DH         LINE#         219
  C:7896H         LINE#         220
  C:7896H         LINE#         222
  C:789CH         LINE#         223
  C:789FH         LINE#         224
  C:78A1H         LINE#         225
  C:78A5H         LINE#         226
  C:78A9H         LINE#         227
  C:78ADH         LINE#         228
  C:78B5H         LINE#         229
  C:78B9H         LINE#         230
  C:78C5H         LINE#         231
  C:78C5H         LINE#         232
  C:78D9H         LINE#         233
  C:78DCH         LINE#         234
  C:78E4H         LINE#         235
  C:78E6H         LINE#         236
  C:78EBH         LINE#         237
  C:78FAH         LINE#         238
  C:7905H         LINE#         239
  C:790BH         LINE#         240
  C:790BH         LINE#         242
  -------         ENDPROC       _MOV_CARD
  -------         PROC          AUT_CARD_CHECK_STATUS
  -------         DO            
  D:0003H         SYMBOL        j
  X:0003H         SYMBOL        bcc
  X:0004H         SYMBOL        g_scArrTxComSoft
  -------         ENDDO         
  C:9B7CH         LINE#         248
  C:9B7CH         LINE#         249
BL51 BANKED LINKER/LOCATER V6.22.2.0                                                  09/15/2020  15:49:49  PAGE 96


  C:9B7CH         LINE#         252
  C:9B81H         LINE#         254
  C:9B8AH         LINE#         256
  C:9B90H         LINE#         257
  C:9B93H         LINE#         258
  C:9B95H         LINE#         259
  C:9B99H         LINE#         260
  C:9B9DH         LINE#         261
  C:9BA1H         LINE#         262
  C:9BA5H         LINE#         263
  C:9BA9H         LINE#         264
  C:9BB5H         LINE#         265
  C:9BB5H         LINE#         266
  C:9BC9H         LINE#         267
  C:9BCCH         LINE#         268
  C:9BD4H         LINE#         269
  C:9BD6H         LINE#         270
  C:9BDBH         LINE#         271
  C:9BEAH         LINE#         272
  C:9BF5H         LINE#         273
  C:9BFBH         LINE#         274
  -------         ENDPROC       AUT_CARD_CHECK_STATUS
  -------         PROC          CLAVE_SEGURIDAD_S2
  -------         DO            
  D:0003H         SYMBOL        j
  X:0008H         SYMBOL        bcc
  X:0009H         SYMBOL        g_scArrTxComSoft
  -------         ENDDO         
  C:8B93H         LINE#         277
  C:8B93H         LINE#         278
  C:8B93H         LINE#         281
  C:8B98H         LINE#         282
  C:8BA1H         LINE#         285
  C:8BA7H         LINE#         286
  C:8BAAH         LINE#         287
  C:8BACH         LINE#         288
  C:8BB0H         LINE#         289
  C:8BB4H         LINE#         290
  C:8BB8H         LINE#         291
  C:8BBCH         LINE#         292
  C:8BBFH         LINE#         293
  C:8BC3H         LINE#         294
  C:8BC6H         LINE#         295
  C:8BCAH         LINE#         297
  C:8BCEH         LINE#         299
  C:8BD2H         LINE#         300
  C:8BD6H         LINE#         301
  C:8BDAH         LINE#         302
  C:8BDEH         LINE#         303
  C:8BE2H         LINE#         304
  C:8BE6H         LINE#         307
  C:8BEAH         LINE#         309
  C:8BF6H         LINE#         310
  C:8BF6H         LINE#         311
  C:8C0AH         LINE#         312
  C:8C0DH         LINE#         313
  C:8C15H         LINE#         314
BL51 BANKED LINKER/LOCATER V6.22.2.0                                                  09/15/2020  15:49:49  PAGE 97


  C:8C17H         LINE#         315
  C:8C1CH         LINE#         316
  C:8C2BH         LINE#         317
  C:8C36H         LINE#         318
  C:8C3CH         LINE#         321
  -------         ENDPROC       CLAVE_SEGURIDAD_S2
  -------         PROC          DWLOAD_EEPROM
  -------         DO            
  D:0003H         SYMBOL        j
  X:0003H         SYMBOL        bcc
  X:0004H         SYMBOL        g_scArrTxComSoft
  -------         ENDDO         
  C:8C3DH         LINE#         326
  C:8C3DH         LINE#         327
  C:8C3DH         LINE#         330
  C:8C42H         LINE#         331
  C:8C4BH         LINE#         333
  C:8C51H         LINE#         334
  C:8C54H         LINE#         335
  C:8C56H         LINE#         336
  C:8C5AH         LINE#         337
  C:8C5EH         LINE#         338
  C:8C62H         LINE#         339
  C:8C66H         LINE#         340
  C:8C69H         LINE#         341
  C:8C6DH         LINE#         342
  C:8C70H         LINE#         343
  C:8C73H         LINE#         344
  C:8C77H         LINE#         345
  C:8C7BH         LINE#         346
  C:8C7FH         LINE#         347
  C:8C83H         LINE#         348
  C:8C87H         LINE#         349
  C:8C8BH         LINE#         350
  C:8C8FH         LINE#         351
  C:8C93H         LINE#         353
  C:8C9FH         LINE#         354
  C:8C9FH         LINE#         355
  C:8CB3H         LINE#         356
  C:8CB6H         LINE#         357
  C:8CBEH         LINE#         358
  C:8CC0H         LINE#         359
  C:8CC5H         LINE#         360
  C:8CD4H         LINE#         361
  C:8CDFH         LINE#         362
  C:8CE5H         LINE#         363
  -------         ENDPROC       DWLOAD_EEPROM
  -------         PROC          LOADVERIFY_EEPROM
  -------         DO            
  D:0003H         SYMBOL        j
  X:0003H         SYMBOL        bcc
  X:0004H         SYMBOL        g_scArrTxComSoft
  -------         ENDDO         
  C:9381H         LINE#         369
  C:9381H         LINE#         370
  C:9381H         LINE#         373
  C:9386H         LINE#         374
BL51 BANKED LINKER/LOCATER V6.22.2.0                                                  09/15/2020  15:49:49  PAGE 98


  C:938FH         LINE#         377
  C:9395H         LINE#         378
  C:9398H         LINE#         379
  C:939AH         LINE#         380
  C:939EH         LINE#         381
  C:93A2H         LINE#         382
  C:93A6H         LINE#         383
  C:93AAH         LINE#         384
  C:93ADH         LINE#         385
  C:93B1H         LINE#         386
  C:93B4H         LINE#         387
  C:93B7H         LINE#         388
  C:93BBH         LINE#         389
  C:93BFH         LINE#         393
  C:93CBH         LINE#         394
  C:93CBH         LINE#         395
  C:93DFH         LINE#         396
  C:93E2H         LINE#         397
  C:93EAH         LINE#         398
  C:93ECH         LINE#         399
  C:93F1H         LINE#         400
  C:9400H         LINE#         401
  C:940BH         LINE#         402
  C:9411H         LINE#         404
  -------         ENDPROC       LOADVERIFY_EEPROM
  -------         PROC          _RD_MF
  X:0003H         SYMBOL        Sector
  X:0004H         SYMBOL        Bloque
  -------         DO            
  D:0003H         SYMBOL        j
  X:0005H         SYMBOL        bcc
  X:0006H         SYMBOL        g_scArrTxComSoft
  -------         ENDDO         
  C:82D9H         LINE#         410
  C:82E1H         LINE#         411
  C:82E1H         LINE#         415
  C:82E4H         LINE#         417
  C:82EDH         LINE#         418
  C:82F5H         LINE#         420
  C:82FEH         LINE#         421
  C:8306H         LINE#         422
  C:830FH         LINE#         425
  C:8315H         LINE#         426
  C:8318H         LINE#         427
  C:831AH         LINE#         428
  C:831EH         LINE#         429
  C:8322H         LINE#         430
  C:8326H         LINE#         431
  C:832AH         LINE#         432
  C:832DH         LINE#         433
  C:8331H         LINE#         434
  C:8339H         LINE#         435
  C:8341H         LINE#         436
  C:8345H         LINE#         437
  C:8349H         LINE#         439
  C:8355H         LINE#         440
  C:8355H         LINE#         441
BL51 BANKED LINKER/LOCATER V6.22.2.0                                                  09/15/2020  15:49:49  PAGE 99


  C:8369H         LINE#         442
  C:836CH         LINE#         443
  C:8374H         LINE#         446
  C:8376H         LINE#         447
  C:837BH         LINE#         448
  C:838AH         LINE#         449
  C:8395H         LINE#         450
  C:839BH         LINE#         452
  -------         ENDPROC       _RD_MF
  -------         PROC          _WR_MF
  X:0003H         SYMBOL        Sector
  X:0004H         SYMBOL        Bloque
  X:0005H         SYMBOL        buffer
  -------         DO            
  D:0005H         SYMBOL        j
  X:0008H         SYMBOL        bcc
  X:0009H         SYMBOL        g_scArrTxComSoft
  -------         ENDDO         
  C:6F4DH         LINE#         459
  C:6F5EH         LINE#         461
  C:6F5EH         LINE#         464
  C:6F61H         LINE#         466
  C:6F6AH         LINE#         467
  C:6F72H         LINE#         469
  C:6F7BH         LINE#         470
  C:6F83H         LINE#         471
  C:6F8CH         LINE#         473
  C:6F92H         LINE#         474
  C:6F95H         LINE#         475
  C:6F97H         LINE#         476
  C:6F9BH         LINE#         478
  C:6F9FH         LINE#         479
  C:6FA3H         LINE#         480
  C:6FA7H         LINE#         481
  C:6FAAH         LINE#         482
  C:6FAEH         LINE#         483
  C:6FB6H         LINE#         484
  C:6FBEH         LINE#         485
  C:6FC2H         LINE#         487
  C:6FCEH         LINE#         488
  C:6FCEH         LINE#         489
  C:6FEEH         LINE#         490
  C:6FF1H         LINE#         492
  C:6FF7H         LINE#         494
  C:7003H         LINE#         495
  C:7003H         LINE#         496
  C:701AH         LINE#         497
  C:701DH         LINE#         498
  C:7025H         LINE#         501
  C:7027H         LINE#         502
  C:702CH         LINE#         503
  C:703BH         LINE#         504
  C:7046H         LINE#         505
  C:704CH         LINE#         507
  -------         ENDPROC       _WR_MF
  -------         PROC          UNIQUE_IDENTIFIER_UID
  -------         DO            
BL51 BANKED LINKER/LOCATER V6.22.2.0                                                  09/15/2020  15:49:49  PAGE 100


  D:0003H         SYMBOL        j
  X:0003H         SYMBOL        bcc
  X:0004H         SYMBOL        g_scArrTxComSoft
  -------         ENDDO         
  C:97ECH         LINE#         512
  C:97ECH         LINE#         513
  C:97ECH         LINE#         516
  C:97F1H         LINE#         518
  C:97FAH         LINE#         520
  C:9800H         LINE#         521
  C:9803H         LINE#         522
  C:9805H         LINE#         523
  C:9809H         LINE#         524
  C:980DH         LINE#         525
  C:9811H         LINE#         526
  C:9815H         LINE#         527
  C:9819H         LINE#         528
  C:981DH         LINE#         529
  C:9821H         LINE#         530
  C:982DH         LINE#         531
  C:982DH         LINE#         532
  C:9841H         LINE#         533
  C:9844H         LINE#         534
  C:984CH         LINE#         535
  C:984EH         LINE#         536
  C:9853H         LINE#         537
  C:9862H         LINE#         538
  C:986DH         LINE#         539
  C:9873H         LINE#         540
  -------         ENDPROC       UNIQUE_IDENTIFIER_UID
  -------         PROC          POWER_OFF
  -------         DO            
  D:0003H         SYMBOL        j
  X:0003H         SYMBOL        bcc
  X:0004H         SYMBOL        g_scArrTxComSoft
  -------         ENDDO         
  C:9BFCH         LINE#         541
  C:9BFCH         LINE#         542
  C:9BFCH         LINE#         545
  C:9C01H         LINE#         547
  C:9C0AH         LINE#         549
  C:9C10H         LINE#         550
  C:9C13H         LINE#         551
  C:9C15H         LINE#         552
  C:9C19H         LINE#         553
  C:9C1DH         LINE#         554
  C:9C21H         LINE#         555
  C:9C25H         LINE#         556
  C:9C29H         LINE#         557
  C:9C35H         LINE#         558
  C:9C35H         LINE#         559
  C:9C49H         LINE#         560
  C:9C4CH         LINE#         561
  C:9C54H         LINE#         562
  C:9C56H         LINE#         563
  C:9C5BH         LINE#         564
  C:9C6AH         LINE#         565
BL51 BANKED LINKER/LOCATER V6.22.2.0                                                  09/15/2020  15:49:49  PAGE 101


  C:9C75H         LINE#         566
  C:9C7BH         LINE#         569
  -------         ENDPROC       POWER_OFF
  -------         ENDMOD        LINTECH

  -------         MODULE        VERIFICADOR
  C:0000H         SYMBOL        _ICE_DUMMY_
  D:0080H         PUBLIC        P0
  C:ADF5H         PUBLIC        Analiza_Presencia_Mensual
  C:A2C0H         PUBLIC        Ingreso_Vehiculo
  D:0090H         PUBLIC        P1
  C:AD80H         PUBLIC        _Armar_Trama_Tarjeta_Sector1_Bloque0
  D:00B0H         PUBLIC        P3
  C:56D2H         PUBLIC        _Valida_Tipo_Tarjeta
  C:AA34H         PUBLIC        _Load_Secuencia_Expedidor
  C:5F5AH         PUBLIC        _Armar_Trama_Tarjeta_Sector1_Bloque2
  C:5529H         PUBLIC        _Armar_Trama_Pto_Paralelo_Expedidor
  C:8215H         PUBLIC        _Tarjeta_Mensual
  C:AE41H         PUBLIC        Analiza_Presencia_rotacion
  C:A082H         PUBLIC        _Disparo_Lock_Entrada_Vehiculo
  C:9132H         PUBLIC        _Valida_Vehiculo_Card_Mensual
  C:A371H         PUBLIC        _Armar_Trama_Placa
  C:7EF3H         PUBLIC        _rta_cmd_transporte
  C:B053H         PUBLIC        Captura_Expulsa
  C:5CC1H         PUBLIC        _Armar_Trama_Monitor
  C:61DAH         PUBLIC        Secuencia_inicio_expedidor
  C:7BA9H         PUBLIC        _Analiza_Uid_Card
  B:0080H.0       PUBLIC        rx_ip
  C:6E4AH         PUBLIC        _Bloque_Horario
  B:0090H.7       PUBLIC        lock
  C:8ECCH         PUBLIC        _Responde_Lectura_Tarjeta_Sector1_Bloque0
  C:85DEH         PUBLIC        error_rx_pto
  C:5197H         PUBLIC        _Responde_Lectura_Tarjeta_Sector1_Bloque1
  C:644FH         PUBLIC        _Responde_Lectura_Tarjeta_Sector1_Bloque2
  B:0090H.1       PUBLIC        DataIn
  C:98F8H         PUBLIC        _Send_Pto_Paralelo
  C:AC16H         PUBLIC        Trama_Validacion_P_N
  B:0021H.6       PUBLIC        MenSual
  C:7D56H         PUBLIC        _Armar_Trama_Pto_Paralelo_Expedidor_Mensual
  B:0080H.3       PUBLIC        Rele_Atasco
  C:6C2FH         PUBLIC        _Horarios
  C:8AE7H         PUBLIC        _Hora_Maxima
  C:3700H         PUBLIC        _SecuenciaExpedidorMF
  C:A14AH         PUBLIC        _Pregunta_Lpr
  C:8D8CH         PUBLIC        _Wait_Placa
  C:9CF8H         PUBLIC        Responde_Estado_Sensores_Transporte
  C:9D74H         PUBLIC        Entrega_Card_Captura
  C:A209H         PUBLIC        _Respuesta_Segunda_clave
  X:0141H         SYMBOL        Estado
  C:AB78H         PUBLIC        _Responde_Write_Tarjeta_Sector1_Bloque0
  C:A67DH         PUBLIC        _Responde_Write_Tarjeta_Sector2_Bloque0
  C:95C1H         PUBLIC        _Responde_Write_Tarjeta_Sector1_Bloque2
  C:9ED1H         PUBLIC        _En_Horario
  C:9E60H         PUBLIC        Responde_Tipo_Tarjeta
  C:AC7BH         PUBLIC        _Tarjeta_Rotacion
  -------         PROC          CAPTURA_EXPULSA
  -------         DO            
BL51 BANKED LINKER/LOCATER V6.22.2.0                                                  09/15/2020  15:49:49  PAGE 102


  D:0007H         SYMBOL        Estado_expedidor
  -------         ENDDO         
  C:B053H         LINE#         522
  C:B053H         LINE#         523
  C:B053H         LINE#         527
  C:B056H         LINE#         528
  C:B056H         LINE#         529
  C:B058H         LINE#         530
  C:B059H         LINE#         532
  C:B059H         LINE#         534
  C:B05BH         LINE#         535
  C:B05BH         LINE#         538
  C:B05BH         LINE#         539
  -------         ENDPROC       CAPTURA_EXPULSA
  -------         PROC          TRAMA_VALIDACION_P_N
  -------         DO            
  D:0007H         SYMBOL        Trama_Validacion_P_N
  -------         ENDDO         
  C:AC16H         LINE#         550
  C:AC16H         LINE#         551
  C:AC16H         LINE#         552
  C:AC18H         LINE#         554
  C:AC23H         LINE#         555
  C:AC23H         LINE#         556
  C:AC26H         LINE#         557
  C:AC26H         LINE#         558
  C:AC28H         LINE#         561
  C:AC30H         LINE#         562
  C:AC30H         LINE#         564
  C:AC32H         LINE#         566
  C:AC33H         LINE#         567
  C:AC37H         LINE#         568
  C:AC37H         LINE#         570
  C:AC39H         LINE#         572
  C:AC3AH         LINE#         574
  C:AC3AH         LINE#         575
  C:AC43H         LINE#         576
  C:AC45H         LINE#         578
  C:AC45H         LINE#         579
  C:AC46H         LINE#         581
  C:AC46H         LINE#         583
  C:AC48H         LINE#         585
  C:AC48H         LINE#         587
  C:AC48H         LINE#         589
  C:AC48H         LINE#         590
  -------         ENDPROC       TRAMA_VALIDACION_P_N
  -------         PROC          ERROR_RX_PTO
  -------         DO            
  X:00B8H         SYMBOL        cnt_espera_ask_on
  X:0008H         SYMBOL        error_rx_pto
  -------         ENDDO         
  C:85DEH         LINE#         614
  C:85DEH         LINE#         615
  C:85DEH         LINE#         618
  C:85E4H         LINE#         622
  C:85EDH         LINE#         623
  C:85F5H         LINE#         624
BL51 BANKED LINKER/LOCATER V6.22.2.0                                                  09/15/2020  15:49:49  PAGE 103


  C:85FEH         LINE#         625
  C:8606H         LINE#         626
  C:860FH         LINE#         627
  C:8612H         LINE#         629
  C:8612H         LINE#         630
  C:8618H         LINE#         631
  C:8622H         LINE#         632
  C:8622H         LINE#         633
  C:862BH         LINE#         634
  C:862DH         LINE#         635
  C:8634H         LINE#         636
  C:8639H         LINE#         637
  C:863FH         LINE#         638
  C:8644H         LINE#         639
  C:8646H         LINE#         640
  C:864DH         LINE#         641
  C:8653H         LINE#         642
  C:8653H         LINE#         644
  C:8653H         LINE#         645
  C:8658H         LINE#         646
  C:8658H         LINE#         647
  C:8658H         LINE#         648
  C:865AH         LINE#         650
  C:865AH         LINE#         651
  C:8668H         LINE#         652
  C:867BH         LINE#         653
  C:867BH         LINE#         654
  C:867CH         LINE#         656
  C:8682H         LINE#         657
  C:8686H         LINE#         658
  C:8688H         LINE#         659
  C:8688H         LINE#         660
  C:868AH         LINE#         662
  C:868AH         LINE#         663
  C:868BH         LINE#         664
  C:8690H         LINE#         665
  C:8696H         LINE#         666
  C:8696H         LINE#         667
  C:8696H         LINE#         668
  C:869BH         LINE#         669
  -------         ENDPROC       ERROR_RX_PTO
  -------         PROC          _RTA_CMD_TRANSPORTE
  X:0003H         SYMBOL        secuencia_Expedidor
  -------         DO            
  X:0006H         SYMBOL        temp
  X:0007H         SYMBOL        EstadoComSeqMF
  -------         ENDDO         
  C:7EF3H         LINE#         685
  C:7EFEH         LINE#         686
  C:7EFEH         LINE#         691
  C:7F0BH         LINE#         692
  C:7F0BH         LINE#         693
  C:7F13H         LINE#         694
  C:7F13H         LINE#         695
  C:7F21H         LINE#         696
  C:7F24H         LINE#         697
  C:7F2AH         LINE#         698
BL51 BANKED LINKER/LOCATER V6.22.2.0                                                  09/15/2020  15:49:49  PAGE 104


  C:7F2AH         LINE#         699
  C:7F33H         LINE#         700
  C:7F47H         LINE#         701
  C:7F58H         LINE#         702
  C:7F5AH         LINE#         704
  C:7F5AH         LINE#         707
  C:7F72H         LINE#         708
  C:7F72H         LINE#         709
  C:7F7DH         LINE#         710
  C:7F7FH         LINE#         712
  C:7F7FH         LINE#         713
  C:7F8DH         LINE#         714
  C:7F8DH         LINE#         715
  C:7F8DH         LINE#         716
  C:7F8FH         LINE#         718
  C:7F8FH         LINE#         720
  C:7FA3H         LINE#         721
  C:7FB8H         LINE#         722
  C:7FB8H         LINE#         723
  C:7FBDH         LINE#         724
  -------         ENDPROC       _RTA_CMD_TRANSPORTE
  -------         PROC          ANALIZA_PRESENCIA_MENSUAL
  -------         DO            
  X:0003H         SYMBOL        Estado_expedidor
  -------         ENDDO         
  C:ADF5H         LINE#         728
  C:ADF5H         LINE#         729
  C:ADF5H         LINE#         731
  C:ADFBH         LINE#         732
  C:ADFBH         LINE#         733
  C:ADFDH         LINE#         734
  C:AE03H         LINE#         735
  C:AE05H         LINE#         737
  C:AE05H         LINE#         739
  C:AE0AH         LINE#         740
  C:AE0FH         LINE#         741
  C:AE15H         LINE#         743
  C:AE15H         LINE#         744
  C:AE1AH         LINE#         745
  -------         ENDPROC       ANALIZA_PRESENCIA_MENSUAL
  -------         PROC          ANALIZA_PRESENCIA_ROTACION
  -------         DO            
  X:0003H         SYMBOL        Estado_expedidor
  -------         ENDDO         
  C:AE41H         LINE#         746
  C:AE41H         LINE#         747
  C:AE41H         LINE#         749
  C:AE47H         LINE#         750
  C:AE47H         LINE#         752
  C:AE4DH         LINE#         753
  C:AE4FH         LINE#         755
  C:AE4FH         LINE#         757
  C:AE54H         LINE#         758
  C:AE59H         LINE#         759
  C:AE5EH         LINE#         761
  C:AE5EH         LINE#         762
  C:AE63H         LINE#         763
BL51 BANKED LINKER/LOCATER V6.22.2.0                                                  09/15/2020  15:49:49  PAGE 105


  -------         ENDPROC       ANALIZA_PRESENCIA_ROTACION
  -------         PROC          _ANALIZA_UID_CARD
  X:0003H         SYMBOL        Atributos_Expedidor
  -------         DO            
  X:0006H         SYMBOL        Estado_expedidor
  D:0007H         SYMBOL        temp
  X:0007H         SYMBOL        buffer_UID
  -------         ENDDO         
  C:7BA9H         LINE#         767
  C:7BB4H         LINE#         768
  C:7BB4H         LINE#         772
  C:7BC4H         LINE#         773
  C:7BC4H         LINE#         775
  C:7BD0H         LINE#         776
  C:7BD0H         LINE#         777
  C:7BE8H         LINE#         779
  C:7BEBH         LINE#         781
  C:7BF4H         LINE#         782
  C:7C05H         LINE#         785
  C:7C0EH         LINE#         786
  C:7C16H         LINE#         787
  C:7C1EH         LINE#         788
  C:7C26H         LINE#         789
  C:7C2EH         LINE#         790
  C:7C37H         LINE#         792
  C:7C4EH         LINE#         793
  C:7C58H         LINE#         794
  C:7C62H         LINE#         795
  C:7C6CH         LINE#         796
  C:7C72H         LINE#         797
  C:7C74H         LINE#         799
  C:7C74H         LINE#         800
  C:7C7AH         LINE#         801
  C:7C7AH         LINE#         802
  C:7C7FH         LINE#         803
  -------         ENDPROC       _ANALIZA_UID_CARD
  -------         PROC          INGRESO_VEHICULO
  -------         DO            
  D:0007H         SYMBOL        CardAutomatic
  X:00BAH         SYMBOL        pulseboton
  -------         ENDDO         
  C:A2C0H         LINE#         807
  C:A2C0H         LINE#         808
  C:A2C0H         LINE#         812
  C:A2C6H         LINE#         813
  C:A2C6H         LINE#         814
  C:A2CFH         LINE#         816
  C:A2D4H         LINE#         817
  C:A2D4H         LINE#         818
  C:A2DDH         LINE#         820
  C:A2DDH         LINE#         821
  C:A2DFH         LINE#         823
  C:A2DFH         LINE#         824
  C:A2E5H         LINE#         825
  C:A2EAH         LINE#         826
  C:A2ECH         LINE#         828
  C:A2ECH         LINE#         829
BL51 BANKED LINKER/LOCATER V6.22.2.0                                                  09/15/2020  15:49:49  PAGE 106


  C:A2F2H         LINE#         832
  C:A2F2H         LINE#         833
  C:A2F5H         LINE#         834
  C:A2F8H         LINE#         835
  C:A2F8H         LINE#         836
  C:A301H         LINE#         837
  C:A306H         LINE#         838
  C:A30CH         LINE#         839
  C:A30EH         LINE#         848
  C:A30EH         LINE#         850
  C:A313H         LINE#         851
  C:A313H         LINE#         852
  C:A318H         LINE#         853
  -------         ENDPROC       INGRESO_VEHICULO
  -------         PROC          RESPONDE_ESTADO_SENSORES_TRANSPORTE
  -------         DO            
  X:0003H         SYMBOL        Estado_expedidor
  -------         ENDDO         
  C:9CF8H         LINE#         860
  C:9CF8H         LINE#         861
  C:9CF8H         LINE#         864
  C:9D01H         LINE#         866
  C:9D09H         LINE#         867
  C:9D09H         LINE#         869
  C:9D14H         LINE#         870
  C:9D14H         LINE#         871
  C:9D18H         LINE#         872
  C:9D18H         LINE#         873
  C:9D21H         LINE#         874
  C:9D26H         LINE#         876
  C:9D26H         LINE#         877
  C:9D28H         LINE#         879
  C:9D28H         LINE#         881
  C:9D30H         LINE#         883
  C:9D30H         LINE#         884
  C:9D32H         LINE#         886
  C:9D32H         LINE#         888
  C:9D3BH         LINE#         890
  C:9D40H         LINE#         893
  C:9D40H         LINE#         894
  C:9D40H         LINE#         895
  C:9D42H         LINE#         896
  C:9D49H         LINE#         897
  C:9D49H         LINE#         899
  C:9D4FH         LINE#         901
  C:9D4FH         LINE#         902
  C:9D51H         LINE#         903
  C:9D58H         LINE#         905
  C:9D58H         LINE#         906
  C:9D61H         LINE#         907
  C:9D67H         LINE#         908
  C:9D69H         LINE#         910
  C:9D69H         LINE#         911
  C:9D6EH         LINE#         912
  C:9D6EH         LINE#         913
  C:9D73H         LINE#         914
  -------         ENDPROC       RESPONDE_ESTADO_SENSORES_TRANSPORTE
BL51 BANKED LINKER/LOCATER V6.22.2.0                                                  09/15/2020  15:49:49  PAGE 107


  -------         PROC          RESPONDE_TIPO_TARJETA
  -------         DO            
  X:0003H         SYMBOL        Estado_expedidor
  -------         ENDDO         
  C:9E60H         LINE#         930
  C:9E60H         LINE#         931
  C:9E60H         LINE#         934
  C:9E69H         LINE#         936
  C:9E71H         LINE#         937
  C:9E71H         LINE#         938
  C:9E76H         LINE#         939
  C:9E76H         LINE#         940
  C:9E7FH         LINE#         941
  C:9E85H         LINE#         942
  C:9E85H         LINE#         943
  C:9E88H         LINE#         944
  C:9E8AH         LINE#         946
  C:9E8AH         LINE#         947
  C:9E8DH         LINE#         948
  C:9E8DH         LINE#         949
  C:9E8FH         LINE#         951
  C:9E8FH         LINE#         952
  C:9E96H         LINE#         953
  C:9E96H         LINE#         954
  C:9E9CH         LINE#         955
  C:9E9CH         LINE#         956
  C:9E9CH         LINE#         958
  C:9E9CH         LINE#         960
  C:9E9EH         LINE#         962
  C:9E9EH         LINE#         963
  C:9E9EH         LINE#         964
  C:9E9EH         LINE#         965
  C:9E9EH         LINE#         966
  C:9E9EH         LINE#         967
  C:9EA0H         LINE#         969
  C:9EA0H         LINE#         970
  C:9EA7H         LINE#         971
  C:9EA7H         LINE#         972
  C:9EB0H         LINE#         974
  C:9EB5H         LINE#         975
  C:9EBAH         LINE#         977
  C:9EC2H         LINE#         980
  C:9EC4H         LINE#         982
  C:9EC4H         LINE#         983
  C:9EC6H         LINE#         984
  C:9ECBH         LINE#         985
  C:9ECBH         LINE#         986
  C:9ECBH         LINE#         988
  C:9ED0H         LINE#         989
  -------         ENDPROC       RESPONDE_TIPO_TARJETA
  -------         PROC          _RESPONDE_LECTURA_TARJETA_SECTOR1_BLOQUE1
  X:0003H         SYMBOL        Atributos_Expedidor
  -------         DO            
  D:0007H         SYMBOL        temp
  X:0006H         SYMBOL        Estado_expedidor
  X:0007H         SYMBOL        buffer_S1_B1
  X:0018H         SYMBOL        ID_CLIENTE
BL51 BANKED LINKER/LOCATER V6.22.2.0                                                  09/15/2020  15:49:49  PAGE 108


  D:0007H         SYMBOL        COD_PARK
  X:00BBH         SYMBOL        falla
  -------         ENDDO         
  C:5197H         LINE#         1001
  C:51A2H         LINE#         1002
  C:51A2H         LINE#         1009
  C:51ABH         LINE#         1013
  C:51BBH         LINE#         1014
  C:51BBH         LINE#         1016
  C:51C7H         LINE#         1017
  C:51C7H         LINE#         1018
  C:51DFH         LINE#         1020
  C:51E2H         LINE#         1023
  C:51EBH         LINE#         1024
  C:51FCH         LINE#         1025
  C:5209H         LINE#         1026
  C:5212H         LINE#         1029
  C:5231H         LINE#         1030
  C:5231H         LINE#         1032
  C:523AH         LINE#         1033
  C:5242H         LINE#         1034
  C:524BH         LINE#         1036
  C:5254H         LINE#         1037
  C:525CH         LINE#         1038
  C:5265H         LINE#         1040
  C:526EH         LINE#         1041
  C:5276H         LINE#         1042
  C:527FH         LINE#         1044
  C:5288H         LINE#         1045
  C:5290H         LINE#         1046
  C:5299H         LINE#         1048
  C:52A2H         LINE#         1049
  C:52AAH         LINE#         1050
  C:52B3H         LINE#         1052
  C:52CAH         LINE#         1054
  C:52D4H         LINE#         1055
  C:52DEH         LINE#         1056
  C:52E8H         LINE#         1058
  C:52EDH         LINE#         1059
  C:5300H         LINE#         1060
  C:5305H         LINE#         1061
  C:530BH         LINE#         1063
  C:530DH         LINE#         1065
  C:530DH         LINE#         1066
  C:5312H         LINE#         1067
  C:531BH         LINE#         1068
  C:5320H         LINE#         1069
  C:5322H         LINE#         1070
  C:5322H         LINE#         1071
  C:5322H         LINE#         1072
  C:5324H         LINE#         1074
  C:5324H         LINE#         1076
  C:532CH         LINE#         1077
  C:532CH         LINE#         1078
  C:5332H         LINE#         1079
  C:5332H         LINE#         1080
  C:533FH         LINE#         1082
BL51 BANKED LINKER/LOCATER V6.22.2.0                                                  09/15/2020  15:49:49  PAGE 109


  C:533FH         LINE#         1083
  C:5348H         LINE#         1084
  C:534EH         LINE#         1086
  C:5350H         LINE#         1088
  C:5350H         LINE#         1089
  C:5355H         LINE#         1090
  C:535EH         LINE#         1091
  C:5363H         LINE#         1092
  C:5368H         LINE#         1093
  C:5370H         LINE#         1094
  C:5370H         LINE#         1095
  C:5370H         LINE#         1097
  C:5375H         LINE#         1098
  -------         ENDPROC       _RESPONDE_LECTURA_TARJETA_SECTOR1_BLOQUE1
  -------         PROC          _RESPONDE_LECTURA_TARJETA_SECTOR1_BLOQUE2
  X:0003H         SYMBOL        Atributos_Expedidor
  -------         DO            
  D:0007H         SYMBOL        temp
  X:0006H         SYMBOL        Estado_expedidor
  X:0007H         SYMBOL        buffer_S1_B2
  -------         ENDDO         
  C:644FH         LINE#         1103
  C:645AH         LINE#         1104
  C:645AH         LINE#         1110
  C:6463H         LINE#         1114
  C:6473H         LINE#         1115
  C:6473H         LINE#         1117
  C:647FH         LINE#         1118
  C:647FH         LINE#         1119
  C:6497H         LINE#         1120
  C:649AH         LINE#         1121
  C:64A3H         LINE#         1122
  C:64B4H         LINE#         1126
  C:64BDH         LINE#         1127
  C:64CAH         LINE#         1128
  C:64E6H         LINE#         1129
  C:64EFH         LINE#         1131
  C:64F8H         LINE#         1133
  C:6514H         LINE#         1134
  C:651EH         LINE#         1135
  C:6527H         LINE#         1138
  C:6530H         LINE#         1139
  C:6538H         LINE#         1140
  C:6541H         LINE#         1144
  C:6558H         LINE#         1147
  C:6564H         LINE#         1148
  C:656AH         LINE#         1151
  C:656CH         LINE#         1153
  C:656CH         LINE#         1154
  C:6574H         LINE#         1155
  C:6574H         LINE#         1156
  C:6579H         LINE#         1157
  -------         ENDPROC       _RESPONDE_LECTURA_TARJETA_SECTOR1_BLOQUE2
  -------         PROC          _RESPONDE_LECTURA_TARJETA_SECTOR1_BLOQUE0
  X:0003H         SYMBOL        Nombre_Mensual
  -------         DO            
  D:0007H         SYMBOL        temp
BL51 BANKED LINKER/LOCATER V6.22.2.0                                                  09/15/2020  15:49:49  PAGE 110


  X:0006H         SYMBOL        Estado_expedidor
  -------         ENDDO         
  C:8ECCH         LINE#         1159
  C:8ED7H         LINE#         1160
  C:8ED7H         LINE#         1166
  C:8EE0H         LINE#         1170
  C:8EEDH         LINE#         1171
  C:8EEDH         LINE#         1173
  C:8EF9H         LINE#         1174
  C:8EF9H         LINE#         1175
  C:8F19H         LINE#         1176
  C:8F1CH         LINE#         1177
  C:8F30H         LINE#         1178
  C:8F39H         LINE#         1179
  C:8F47H         LINE#         1180
  C:8F50H         LINE#         1181
  C:8F56H         LINE#         1184
  C:8F58H         LINE#         1186
  C:8F58H         LINE#         1187
  C:8F60H         LINE#         1188
  C:8F60H         LINE#         1189
  C:8F65H         LINE#         1190
  -------         ENDPROC       _RESPONDE_LECTURA_TARJETA_SECTOR1_BLOQUE0
  -------         PROC          _RESPONDE_WRITE_TARJETA_SECTOR1_BLOQUE2
  X:0003H         SYMBOL        Atributos_Expedidor
  X:0006H         SYMBOL        Buffer_Write_MF
  -------         DO            
  X:0009H         SYMBOL        Estado_expedidor
  -------         ENDDO         
  C:95C1H         LINE#         1191
  C:95CCH         LINE#         1192
  C:95CCH         LINE#         1194
  C:95D5H         LINE#         1195
  C:95DEH         LINE#         1196
  C:95F4H         LINE#         1197
  C:9604H         LINE#         1198
  C:9604H         LINE#         1199
  C:9607H         LINE#         1200
  C:9619H         LINE#         1201
  C:9627H         LINE#         1202
  C:962DH         LINE#         1203
  C:962FH         LINE#         1205
  C:962FH         LINE#         1206
  C:9632H         LINE#         1207
  C:9644H         LINE#         1208
  C:964AH         LINE#         1210
  C:964AH         LINE#         1211
  C:964FH         LINE#         1212
  -------         ENDPROC       _RESPONDE_WRITE_TARJETA_SECTOR1_BLOQUE2
  -------         PROC          _RESPONDE_WRITE_TARJETA_SECTOR1_BLOQUE0
  X:0003H         SYMBOL        Buffer_Write_MF
  C:AB78H         LINE#         1215
  C:AB83H         LINE#         1216
  C:AB83H         LINE#         1218
  C:AB8CH         LINE#         1219
  C:AB95H         LINE#         1220
  C:ABABH         LINE#         1222
BL51 BANKED LINKER/LOCATER V6.22.2.0                                                  09/15/2020  15:49:49  PAGE 111


  C:ABADH         LINE#         1223
  -------         ENDPROC       _RESPONDE_WRITE_TARJETA_SECTOR1_BLOQUE0
  -------         PROC          _PREGUNTA_LPR
  X:0003H         SYMBOL        Atributos_Expedidor
  -------         DO            
  X:0006H         SYMBOL        Estado_expedidor
  -------         ENDDO         
  C:A14AH         LINE#         1226
  C:A155H         LINE#         1227
  C:A155H         LINE#         1229
  C:A163H         LINE#         1230
  C:A163H         LINE#         1232
  C:A174H         LINE#         1233
  C:A180H         LINE#         1234
  C:A180H         LINE#         1235
  C:A184H         LINE#         1236
  C:A184H         LINE#         1237
  C:A184H         LINE#         1239
  C:A193H         LINE#         1240
  C:A193H         LINE#         1242
  C:A196H         LINE#         1243
  C:A19BH         LINE#         1244
  C:A1A0H         LINE#         1245
  C:A1A2H         LINE#         1247
  C:A1A2H         LINE#         1248
  C:A1A5H         LINE#         1249
  C:A1A5H         LINE#         1250
  C:A1AAH         LINE#         1251
  -------         ENDPROC       _PREGUNTA_LPR
  -------         PROC          _RESPONDE_WRITE_TARJETA_SECTOR2_BLOQUE0
  X:0003H         SYMBOL        Buffer_Write_MF
  C:A67DH         LINE#         1254
  C:A688H         LINE#         1255
  C:A688H         LINE#         1257
  C:A691H         LINE#         1258
  C:A69AH         LINE#         1259
  C:A6A3H         LINE#         1260
  C:A6ACH         LINE#         1261
  C:A6C1H         LINE#         1262
  C:A6C3H         LINE#         1263
  -------         ENDPROC       _RESPONDE_WRITE_TARJETA_SECTOR2_BLOQUE0
  -------         PROC          _RESPUESTA_SEGUNDA_CLAVE
  X:0003H         SYMBOL        Atributos_Expedidor
  X:0006H         SYMBOL        Buffer_Write_MF
  C:A209H         LINE#         1264
  C:A214H         LINE#         1265
  C:A214H         LINE#         1266
  C:A21DH         LINE#         1267
  C:A233H         LINE#         1268
  C:A243H         LINE#         1269
  C:A255H         LINE#         1270
  C:A263H         LINE#         1271
  C:A265H         LINE#         1272
  -------         ENDPROC       _RESPUESTA_SEGUNDA_CLAVE
  -------         PROC          _ARMAR_TRAMA_TARJETA_SECTOR1_BLOQUE2
  X:0011H         SYMBOL        Atributos_Expedidor
  X:0014H         SYMBOL        Buffer_Write_MF
BL51 BANKED LINKER/LOCATER V6.22.2.0                                                  09/15/2020  15:49:49  PAGE 112


  C:5F5AH         LINE#         1284
  C:5F65H         LINE#         1285
  C:5F65H         LINE#         1289
  C:5F71H         LINE#         1293
  C:5F83H         LINE#         1294
  C:5F8AH         LINE#         1295
  C:5F91H         LINE#         1297
  C:5FA6H         LINE#         1298
  C:5FA6H         LINE#         1299
  C:5FBDH         LINE#         1300
  C:5FD6H         LINE#         1301
  C:5FD6H         LINE#         1302
  C:5FD9H         LINE#         1306
  C:5FD9H         LINE#         1308
  C:6008H         LINE#         1309
  C:6037H         LINE#         1311
  C:604FH         LINE#         1312
  C:604FH         LINE#         1313
  C:605CH         LINE#         1314
  C:605EH         LINE#         1316
  C:605EH         LINE#         1317
  C:606EH         LINE#         1318
  C:606EH         LINE#         1319
  C:606EH         LINE#         1321
  C:6080H         LINE#         1322
  C:6087H         LINE#         1323
  C:608EH         LINE#         1324
  C:6095H         LINE#         1325
  -------         ENDPROC       _ARMAR_TRAMA_TARJETA_SECTOR1_BLOQUE2
  -------         PROC          _ARMAR_TRAMA_TARJETA_SECTOR1_BLOQUE0
  X:000AH         SYMBOL        Buffer_Write_MF
  C:AD80H         LINE#         1327
  C:AD8BH         LINE#         1328
  C:AD8BH         LINE#         1330
  -------         ENDPROC       _ARMAR_TRAMA_TARJETA_SECTOR1_BLOQUE0
  -------         PROC          _ARMAR_TRAMA_PTO_PARALELO_EXPEDIDOR
  X:0007H         SYMBOL        h
  -------         DO            
  X:00BCH         SYMBOL        buffer
  X:000AH         SYMBOL        ticket
  X:0015H         SYMBOL        j
  -------         ENDDO         
  C:5529H         LINE#         1332
  C:5534H         LINE#         1333
  C:5534H         LINE#         1340
  C:553AH         LINE#         1341
  C:553EH         LINE#         1342
  C:5541H         LINE#         1343
  C:554DH         LINE#         1344
  C:5564H         LINE#         1345
  C:5572H         LINE#         1347
  C:5583H         LINE#         1349
  C:5593H         LINE#         1350
  C:55A5H         LINE#         1351
  C:55B3H         LINE#         1352
  C:55C1H         LINE#         1353
  C:55CFH         LINE#         1354
BL51 BANKED LINKER/LOCATER V6.22.2.0                                                  09/15/2020  15:49:49  PAGE 113


  C:55DDH         LINE#         1355
  C:55EAH         LINE#         1357
  C:55F9H         LINE#         1358
  C:55F9H         LINE#         1359
  C:55FCH         LINE#         1360
  C:55FCH         LINE#         1361
  C:5610H         LINE#         1362
  C:561FH         LINE#         1363
  C:562EH         LINE#         1364
  C:563DH         LINE#         1365
  C:564CH         LINE#         1366
  C:565BH         LINE#         1367
  C:5663H         LINE#         1368
  C:5665H         LINE#         1370
  C:5665H         LINE#         1371
  C:5676H         LINE#         1372
  C:567EH         LINE#         1373
  C:567EH         LINE#         1374
  C:5680H         LINE#         1376
  C:5680H         LINE#         1377
  C:5691H         LINE#         1378
  C:569DH         LINE#         1379
  C:569DH         LINE#         1380
  C:56ABH         LINE#         1381
  C:56B9H         LINE#         1382
  C:56CBH         LINE#         1384
  C:56D1H         LINE#         1385
  -------         ENDPROC       _ARMAR_TRAMA_PTO_PARALELO_EXPEDIDOR
  -------         PROC          _ARMAR_TRAMA_PTO_PARALELO_EXPEDIDOR_MENSUAL
  X:0007H         SYMBOL        Atributos_Expedidor
  X:000AH         SYMBOL        j
  -------         DO            
  X:00D8H         SYMBOL        buffer
  -------         ENDDO         
  C:7D56H         LINE#         1386
  C:7D61H         LINE#         1387
  C:7D61H         LINE#         1393
  C:7D67H         LINE#         1394
  C:7D6BH         LINE#         1395
  C:7D80H         LINE#         1396
  C:7D8AH         LINE#         1397
  C:7D94H         LINE#         1398
  C:7D9EH         LINE#         1401
  C:7DA7H         LINE#         1402
  C:7DAEH         LINE#         1403
  C:7DB3H         LINE#         1404
  C:7DB8H         LINE#         1405
  C:7DBDH         LINE#         1406
  C:7DC2H         LINE#         1409
  C:7DCEH         LINE#         1410
  C:7DCEH         LINE#         1412
  C:7DD5H         LINE#         1413
  C:7DD9H         LINE#         1414
  C:7DDDH         LINE#         1415
  C:7DE1H         LINE#         1416
  C:7DE5H         LINE#         1417
  C:7DE9H         LINE#         1419
BL51 BANKED LINKER/LOCATER V6.22.2.0                                                  09/15/2020  15:49:49  PAGE 114


  C:7DE9H         LINE#         1421
  C:7DFFH         LINE#         1422
  C:7DFFH         LINE#         1423
  C:7E02H         LINE#         1424
  C:7E04H         LINE#         1426
  C:7E04H         LINE#         1427
  C:7E07H         LINE#         1428
  C:7E07H         LINE#         1430
  C:7E0DH         LINE#         1431
  C:7E10H         LINE#         1432
  C:7E20H         LINE#         1433
  C:7E26H         LINE#         1434
  -------         ENDPROC       _ARMAR_TRAMA_PTO_PARALELO_EXPEDIDOR_MENSUAL
  -------         PROC          _ARMAR_TRAMA_MONITOR
  X:0007H         SYMBOL        Atributos_Expedidor
  -------         DO            
  X:00F4H         SYMBOL        buffer
  X:000AH         SYMBOL        ticket
  X:0015H         SYMBOL        j
  -------         ENDDO         
  C:5CC1H         LINE#         1435
  C:5CCCH         LINE#         1436
  C:5CCCH         LINE#         1442
  C:5CD1H         LINE#         1443
  C:5CD7H         LINE#         1444
  C:5CDFH         LINE#         1445
  C:5CE3H         LINE#         1446
  C:5CECH         LINE#         1447
  C:5CECH         LINE#         1448
  C:5CEFH         LINE#         1449
  C:5CF1H         LINE#         1451
  C:5CF1H         LINE#         1452
  C:5CF4H         LINE#         1453
  C:5CF4H         LINE#         1456
  C:5CF7H         LINE#         1457
  C:5CF7H         LINE#         1458
  C:5CFCH         LINE#         1459
  C:5D08H         LINE#         1460
  C:5D1FH         LINE#         1461
  C:5D22H         LINE#         1463
  C:5D22H         LINE#         1464
  C:5D3DH         LINE#         1465
  C:5D4BH         LINE#         1466
  C:5D59H         LINE#         1467
  C:5D65H         LINE#         1468
  C:5D73H         LINE#         1469
  C:5DACH         LINE#         1471
  C:5DACH         LINE#         1472
  C:5DBAH         LINE#         1473
  C:5DC8H         LINE#         1476
  C:5DD5H         LINE#         1477
  C:5DE3H         LINE#         1479
  C:5DF1H         LINE#         1480
  C:5DFEH         LINE#         1481
  C:5E0AH         LINE#         1482
  C:5E0FH         LINE#         1483
  C:5E14H         LINE#         1484
BL51 BANKED LINKER/LOCATER V6.22.2.0                                                  09/15/2020  15:49:49  PAGE 115


  -------         ENDPROC       _ARMAR_TRAMA_MONITOR
  -------         PROC          _ARMAR_TRAMA_PLACA
  X:0009H         SYMBOL        Buffer_Write_MF
  -------         DO            
  D:0007H         SYMBOL        j
  -------         ENDDO         
  C:A371H         LINE#         1485
  C:A37CH         LINE#         1486
  C:A37CH         LINE#         1489
  C:A388H         LINE#         1490
  C:A388H         LINE#         1491
  C:A3A2H         LINE#         1492
  C:A3A5H         LINE#         1493
  C:A3B1H         LINE#         1494
  C:A3B1H         LINE#         1495
  C:A3C5H         LINE#         1496
  C:A3C8H         LINE#         1497
  -------         ENDPROC       _ARMAR_TRAMA_PLACA
  C:AA18H         SYMBOL        L?0361
  C:AA21H         SYMBOL        L?0362
  -------         PROC          L?0360
  -------         ENDPROC       L?0360
  C:AA18H         SYMBOL        L?0361
  C:AA21H         SYMBOL        L?0362
  -------         PROC          _LOAD_SECUENCIA_EXPEDIDOR
  D:0001H         SYMBOL        Secuencia_Expedidor
  D:0004H         SYMBOL        estadoactivo
  X:000DH         SYMBOL        estadoactual
  X:000FH         SYMBOL        estadofuturo
  C:AA34H         LINE#         1498
  C:AA34H         LINE#         1499
  C:AA34H         LINE#         1500
  C:AA3BH         LINE#         1501
  C:AA43H         LINE#         1502
  C:AA4EH         LINE#         1503
  C:AA54H         LINE#         1504
  -------         ENDPROC       _LOAD_SECUENCIA_EXPEDIDOR
  -------         PROC          _DISPARO_LOCK_ENTRADA_VEHICULO
  X:0003H         SYMBOL        Nombre_Mensual
  -------         DO            
  X:0006H         SYMBOL        Estado_expedidor
  -------         ENDDO         
  C:A082H         LINE#         1505
  C:A08DH         LINE#         1506
  C:A08DH         LINE#         1508
  C:A096H         LINE#         1510
  C:A09BH         LINE#         1512
  C:A0A2H         LINE#         1513
  C:A0A2H         LINE#         1514
  C:A0ABH         LINE#         1515
  C:A0ADH         LINE#         1516
  C:A0B2H         LINE#         1517
  C:A0C2H         LINE#         1518
  C:A0C8H         LINE#         1521
  C:A0CAH         LINE#         1522
  C:A0D1H         LINE#         1523
  C:A0D1H         LINE#         1524
BL51 BANKED LINKER/LOCATER V6.22.2.0                                                  09/15/2020  15:49:49  PAGE 116


  C:A0DAH         LINE#         1525
  C:A0DAH         LINE#         1526
  C:A0DDH         LINE#         1527
  C:A0DFH         LINE#         1529
  C:A0DFH         LINE#         1530
  C:A0E2H         LINE#         1531
  C:A0E2H         LINE#         1533
  C:A0E2H         LINE#         1534
  C:A0E7H         LINE#         1535
  -------         ENDPROC       _DISPARO_LOCK_ENTRADA_VEHICULO
  -------         PROC          _SEND_PTO_PARALELO
  D:0001H         SYMBOL        Atributos_Expedidor
  -------         DO            
  X:0003H         SYMBOL        Trama_Expedidor
  X:0006H         SYMBOL        leng_trama_pto
  -------         ENDDO         
  C:98F8H         LINE#         1536
  C:98F8H         LINE#         1537
  C:98F8H         LINE#         1540
  C:98FBH         LINE#         1541
  C:98FBH         LINE#         1542
  C:9917H         LINE#         1543
  C:9919H         LINE#         1545
  C:9919H         LINE#         1546
  C:992DH         LINE#         1547
  C:9930H         LINE#         1548
  C:9930H         LINE#         1550
  C:9941H         LINE#         1551
  C:994AH         LINE#         1552
  C:9960H         LINE#         1553
  C:9969H         LINE#         1556
  C:996CH         LINE#         1557
  C:9972H         LINE#         1558
  C:9977H         LINE#         1559
  C:9979H         LINE#         1560
  -------         ENDPROC       _SEND_PTO_PARALELO
  -------         PROC          ENTREGA_CARD_CAPTURA
  -------         DO            
  X:0003H         SYMBOL        Estado_expedidor
  -------         ENDDO         
  C:9D74H         LINE#         1564
  C:9D74H         LINE#         1565
  C:9D74H         LINE#         1569
  C:9D7DH         LINE#         1570
  C:9D80H         LINE#         1571
  C:9D83H         LINE#         1572
  C:9D83H         LINE#         1573
  C:9D8DH         LINE#         1574
  C:9D8DH         LINE#         1575
  C:9D8FH         LINE#         1576
  C:9D98H         LINE#         1577
  C:9D98H         LINE#         1578
  C:9D98H         LINE#         1580
  C:9D9AH         LINE#         1582
  C:9D9AH         LINE#         1583
  C:9DA0H         LINE#         1584
  C:9DA0H         LINE#         1586
BL51 BANKED LINKER/LOCATER V6.22.2.0                                                  09/15/2020  15:49:49  PAGE 117


  C:9DA6H         LINE#         1588
  C:9DB9H         LINE#         1589
  C:9DB9H         LINE#         1590
  C:9DC9H         LINE#         1591
  C:9DC9H         LINE#         1592
  C:9DCBH         LINE#         1593
  C:9DCBH         LINE#         1594
  C:9DCDH         LINE#         1595
  C:9DD8H         LINE#         1596
  C:9DD8H         LINE#         1597
  C:9DDEH         LINE#         1598
  C:9DDEH         LINE#         1599
  C:9DDEH         LINE#         1601
  C:9DE0H         LINE#         1603
  C:9DE0H         LINE#         1604
  C:9DE2H         LINE#         1605
  C:9DE7H         LINE#         1606
  C:9DE7H         LINE#         1607
  C:9DE7H         LINE#         1609
  C:9DECH         LINE#         1610
  -------         ENDPROC       ENTREGA_CARD_CAPTURA
  -------         PROC          _WAIT_PLACA
  X:0003H         SYMBOL        secuencia_expedidor
  X:0006H         SYMBOL        estadoactivo
  -------         DO            
  X:0007H         SYMBOL        Estado_expedidor
  -------         ENDDO         
  C:8D8CH         LINE#         1611
  C:8D9AH         LINE#         1612
  C:8D9AH         LINE#         1616
  C:8DB0H         LINE#         1617
  C:8DB0H         LINE#         1618
  C:8DB3H         LINE#         1619
  C:8DB3H         LINE#         1621
  C:8DB6H         LINE#         1622
  C:8DB6H         LINE#         1623
  C:8DB8H         LINE#         1625
  C:8DBBH         LINE#         1626
  C:8DBBH         LINE#         1627
  C:8DBEH         LINE#         1628
  C:8DD2H         LINE#         1629
  C:8DE5H         LINE#         1630
  C:8DE7H         LINE#         1632
  C:8DE7H         LINE#         1633
  C:8DEDH         LINE#         1634
  C:8E00H         LINE#         1635
  C:8E00H         LINE#         1636
  C:8E10H         LINE#         1637
  C:8E10H         LINE#         1638
  C:8E16H         LINE#         1639
  C:8E18H         LINE#         1640
  C:8E23H         LINE#         1641
  C:8E23H         LINE#         1642
  C:8E29H         LINE#         1643
  C:8E29H         LINE#         1644
  C:8E29H         LINE#         1645
  C:8E29H         LINE#         1646
BL51 BANKED LINKER/LOCATER V6.22.2.0                                                  09/15/2020  15:49:49  PAGE 118


  C:8E2EH         LINE#         1647
  -------         ENDPROC       _WAIT_PLACA
  -------         PROC          _VALIDA_VEHICULO_CARD_MENSUAL
  X:0011H         SYMBOL        Atributos_Expedidor
  -------         DO            
  X:0014H         SYMBOL        Estado_expedidor
  -------         ENDDO         
  C:9132H         LINE#         1648
  C:913DH         LINE#         1649
  C:913DH         LINE#         1652
  C:9146H         LINE#         1653
  C:915BH         LINE#         1654
  C:915BH         LINE#         1655
  C:915FH         LINE#         1656
  C:9161H         LINE#         1658
  C:9161H         LINE#         1659
  C:9168H         LINE#         1660
  C:9168H         LINE#         1662
  C:9171H         LINE#         1663
  C:917FH         LINE#         1664
  C:917FH         LINE#         1665
  C:9198H         LINE#         1666
  C:9198H         LINE#         1667
  C:919EH         LINE#         1668
  C:919EH         LINE#         1669
  C:91A0H         LINE#         1672
  C:91A0H         LINE#         1673
  C:91A5H         LINE#         1674
  C:91AEH         LINE#         1675
  C:91B3H         LINE#         1676
  C:91B3H         LINE#         1677
  C:91B5H         LINE#         1679
  C:91B5H         LINE#         1680
  C:91BEH         LINE#         1681
  C:91C4H         LINE#         1682
  C:91C4H         LINE#         1683
  C:91C9H         LINE#         1684
  -------         ENDPROC       _VALIDA_VEHICULO_CARD_MENSUAL
  -------         PROC          _TARJETA_MENSUAL
  X:000AH         SYMBOL        Atributos_Expedidor
  X:000DH         SYMBOL        Buffer_Write_MF
  -------         DO            
  X:0010H         SYMBOL        Estado_expedidor
  -------         ENDDO         
  C:8215H         LINE#         1685
  C:8220H         LINE#         1686
  C:8220H         LINE#         1691
  C:822BH         LINE#         1692
  C:822BH         LINE#         1693
  C:8249H         LINE#         1694
  C:8249H         LINE#         1696
  C:825AH         LINE#         1697
  C:825AH         LINE#         1698
  C:8262H         LINE#         1699
  C:8264H         LINE#         1701
  C:8264H         LINE#         1702
  C:826DH         LINE#         1703
BL51 BANKED LINKER/LOCATER V6.22.2.0                                                  09/15/2020  15:49:49  PAGE 119


  C:827DH         LINE#         1704
  C:8290H         LINE#         1705
  C:82B0H         LINE#         1706
  C:82B6H         LINE#         1707
  C:82B6H         LINE#         1708
  C:82B8H         LINE#         1710
  C:82B8H         LINE#         1711
  C:82BDH         LINE#         1713
  C:82C2H         LINE#         1714
  C:82CBH         LINE#         1715
  C:82CBH         LINE#         1716
  C:82CBH         LINE#         1717
  C:82CDH         LINE#         1719
  C:82CDH         LINE#         1721
  C:82D3H         LINE#         1722
  C:82D3H         LINE#         1723
  C:82D8H         LINE#         1724
  -------         ENDPROC       _TARJETA_MENSUAL
  -------         PROC          _TARJETA_ROTACION
  D:0001H         SYMBOL        Atributos_Expedidor
  X:000DH         SYMBOL        Buffer_Write_MF
  C:AC7BH         LINE#         1725
  C:AC7BH         LINE#         1726
  C:AC7BH         LINE#         1727
  C:AC80H         LINE#         1728
  C:AC89H         LINE#         1729
  C:ACA9H         LINE#         1730
  C:ACABH         LINE#         1733
  -------         ENDPROC       _TARJETA_ROTACION
  -------         PROC          _VALIDA_TIPO_TARJETA
  X:0003H         SYMBOL        Atributos_Expedidor
  X:0006H         SYMBOL        Buffer_Write_MF
  -------         DO            
  X:0009H         SYMBOL        Estado_expedidor
  -------         ENDDO         
  C:56D2H         LINE#         1734
  C:56DDH         LINE#         1735
  C:56DDH         LINE#         1737
  C:56EAH         LINE#         1738
  C:56EAH         LINE#         1739
  C:56F3H         LINE#         1740
  C:56F9H         LINE#         1741
  C:56F9H         LINE#         1746
  C:5707H         LINE#         1747
  C:5707H         LINE#         1750
  C:5724H         LINE#         1751
  C:5724H         LINE#         1752
  C:5741H         LINE#         1754
  C:5743H         LINE#         1756
  C:5743H         LINE#         1757
  C:574CH         LINE#         1758
  C:574EH         LINE#         1760
  C:574EH         LINE#         1761
  C:574EH         LINE#         1762
  C:5751H         LINE#         1765
  C:5751H         LINE#         1766
  C:575AH         LINE#         1768
BL51 BANKED LINKER/LOCATER V6.22.2.0                                                  09/15/2020  15:49:49  PAGE 120


  C:577DH         LINE#         1769
  C:577DH         LINE#         1770
  C:5780H         LINE#         1772
  C:5780H         LINE#         1773
  C:5785H         LINE#         1774
  C:578AH         LINE#         1775
  C:578DH         LINE#         1776
  C:578DH         LINE#         1777
  C:5790H         LINE#         1778
  C:57A8H         LINE#         1779
  C:57A8H         LINE#         1781
  C:57B1H         LINE#         1782
  C:57B7H         LINE#         1783
  C:57B7H         LINE#         1784
  C:57C3H         LINE#         1785
  C:57C3H         LINE#         1786
  C:57E0H         LINE#         1788
  C:57E0H         LINE#         1789
  C:5800H         LINE#         1790
  C:5802H         LINE#         1792
  C:5802H         LINE#         1793
  C:580BH         LINE#         1794
  C:5810H         LINE#         1795
  C:5815H         LINE#         1796
  C:5818H         LINE#         1797
  C:5818H         LINE#         1798
  C:581AH         LINE#         1800
  C:581AH         LINE#         1801
  C:5823H         LINE#         1802
  C:5846H         LINE#         1803
  C:5846H         LINE#         1804
  C:5848H         LINE#         1806
  C:5848H         LINE#         1807
  C:584DH         LINE#         1808
  C:5852H         LINE#         1809
  C:5855H         LINE#         1810
  C:5855H         LINE#         1811
  C:5857H         LINE#         1813
  C:5857H         LINE#         1814
  C:5860H         LINE#         1815
  C:5865H         LINE#         1817
  C:586DH         LINE#         1818
  C:586DH         LINE#         1820
  C:5872H         LINE#         1821
  -------         ENDPROC       _VALIDA_TIPO_TARJETA
  -------         PROC          _HORARIOS
  X:0011H         SYMBOL        Atributos_Expedidor
  -------         DO            
  X:0014H         SYMBOL        Estado_Horario
  X:0015H         SYMBOL        Addr_horarios
  X:0020H         SYMBOL        dia_semana
  X:0021H         SYMBOL        EE_dia_semana
  X:0022H         SYMBOL        addr
  -------         ENDDO         
  C:6C2FH         LINE#         1915
  C:6C3AH         LINE#         1916
  C:6C3AH         LINE#         1922
BL51 BANKED LINKER/LOCATER V6.22.2.0                                                  09/15/2020  15:49:49  PAGE 121


  C:6C45H         LINE#         1923
  C:6C45H         LINE#         1925
  C:6C51H         LINE#         1927
  C:6C77H         LINE#         1931
  C:6C8AH         LINE#         1932
  C:6C8AH         LINE#         1934
  C:6C94H         LINE#         1935
  C:6C9DH         LINE#         1936
  C:6CA5H         LINE#         1937
  C:6CAEH         LINE#         1940
  C:6CD3H         LINE#         1941
  C:6CDCH         LINE#         1942
  C:6CE4H         LINE#         1943
  C:6CEDH         LINE#         1945
  C:6CF7H         LINE#         1946
  C:6CF7H         LINE#         1948
  C:6D05H         LINE#         1949
  C:6D07H         LINE#         1951
  C:6D07H         LINE#         1953
  C:6D10H         LINE#         1954
  C:6D15H         LINE#         1955
  C:6D15H         LINE#         1956
  C:6D17H         LINE#         1958
  C:6D17H         LINE#         1960
  C:6D1CH         LINE#         1961
  C:6D21H         LINE#         1962
  C:6D27H         LINE#         1964
  C:6D27H         LINE#         1966
  C:6D29H         LINE#         1968
  C:6D29H         LINE#         1969
  C:6D2FH         LINE#         1971
  C:6D38H         LINE#         1972
  C:6D38H         LINE#         1973
  C:6D3DH         LINE#         1974
  -------         ENDPROC       _HORARIOS
  -------         PROC          _HORA_MAXIMA
  X:0030H         SYMBOL        addr
  -------         DO            
  X:0032H         SYMBOL        Hora_High
  X:0033H         SYMBOL        Minuto_High
  X:0034H         SYMBOL        HoraIni
  X:0035H         SYMBOL        MinutoIni
  X:0036H         SYMBOL        Hora_Prog
  -------         ENDDO         
  C:8AE7H         LINE#         1975
  C:8AEFH         LINE#         1976
  C:8AEFH         LINE#         1981
  C:8B04H         LINE#         1982
  C:8B24H         LINE#         1983
  C:8B41H         LINE#         1984
  C:8B61H         LINE#         1985
  C:8B69H         LINE#         1986
  C:8B71H         LINE#         1987
  C:8B7AH         LINE#         1989
  C:8B92H         LINE#         1990
  -------         ENDPROC       _HORA_MAXIMA
  -------         PROC          _EN_HORARIO
BL51 BANKED LINKER/LOCATER V6.22.2.0                                                  09/15/2020  15:49:49  PAGE 122


  X:002BH         SYMBOL        HoraNow
  D:0004H         SYMBOL        Hora_Prog
  X:002DH         SYMBOL        addr
  -------         DO            
  X:002FH         SYMBOL        Estado_Horario
  -------         ENDDO         
  C:9ED1H         LINE#         1991
  C:9EDFH         LINE#         1992
  C:9EDFH         LINE#         1995
  C:9EECH         LINE#         1996
  C:9EECH         LINE#         1999
  C:9EF5H         LINE#         2000
  C:9F0AH         LINE#         2003
  C:9F19H         LINE#         2004
  C:9F19H         LINE#         2006
  C:9F20H         LINE#         2007
  C:9F26H         LINE#         2008
  C:9F28H         LINE#         2010
  C:9F28H         LINE#         2013
  C:9F2CH         LINE#         2014
  C:9F2CH         LINE#         2015
  C:9F2CH         LINE#         2017
  C:9F2EH         LINE#         2019
  C:9F2EH         LINE#         2022
  C:9F37H         LINE#         2023
  C:9F3CH         LINE#         2025
  C:9F3CH         LINE#         2026
  C:9F41H         LINE#         2027
  -------         ENDPROC       _EN_HORARIO
  -------         PROC          _BLOQUE_HORARIO
  X:0024H         SYMBOL        addr
  -------         DO            
  X:0026H         SYMBOL        Estado_Horario
  X:0027H         SYMBOL        HoraNow
  X:0029H         SYMBOL        Hora_Prog
  -------         ENDDO         
  C:6E4AH         LINE#         2029
  C:6E52H         LINE#         2030
  C:6E52H         LINE#         2036
  C:6E5BH         LINE#         2037
  C:6E63H         LINE#         2038
  C:6E6BH         LINE#         2039
  C:6E74H         LINE#         2040
  C:6EA2H         LINE#         2045
  C:6EABH         LINE#         2046
  C:6EC0H         LINE#         2047
  C:6ED8H         LINE#         2048
  C:6EDAH         LINE#         2049
  C:6EDAH         LINE#         2052
  C:6EF2H         LINE#         2053
  C:6EF2H         LINE#         2054
  C:6EFBH         LINE#         2055
  C:6F16H         LINE#         2056
  C:6F34H         LINE#         2057
  C:6F36H         LINE#         2059
  C:6F36H         LINE#         2060
  C:6F3BH         LINE#         2061
BL51 BANKED LINKER/LOCATER V6.22.2.0                                                  09/15/2020  15:49:49  PAGE 123


  C:6F40H         LINE#         2062
  C:6F45H         LINE#         2063
  C:6F45H         LINE#         2064
  C:6F45H         LINE#         2066
  C:6F4CH         LINE#         2067
  -------         ENDPROC       _BLOQUE_HORARIO
  -------         PROC          SECUENCIA_INICIO_EXPEDIDOR
  -------         DO            
  X:0002H         SYMBOL        temp
  -------         ENDDO         
  C:61DAH         LINE#         2075
  C:61DAH         LINE#         2076
  C:61DAH         LINE#         2078
  C:61FAH         LINE#         2079
  C:61FAH         LINE#         2080
  C:61FAH         LINE#         2083
  C:61FFH         LINE#         2084
  C:6205H         LINE#         2087
  C:6207H         LINE#         2088
  C:6207H         LINE#         2099
  C:6207H         LINE#         2101
  C:6215H         LINE#         2102
  C:6215H         LINE#         2103
  C:6221H         LINE#         2104
  C:6221H         LINE#         2105
  C:6227H         LINE#         2106
  C:622AH         LINE#         2107
  C:6232H         LINE#         2108
  C:6232H         LINE#         2109
  C:6239H         LINE#         2110
  C:624DH         LINE#         2111
  C:624DH         LINE#         2112
  C:624FH         LINE#         2114
  C:624FH         LINE#         2115
  C:6256H         LINE#         2116
  C:625CH         LINE#         2117
  C:625CH         LINE#         2118
  C:625FH         LINE#         2120
  C:625FH         LINE#         2121
  C:6268H         LINE#         2122
  C:627CH         LINE#         2123
  C:6282H         LINE#         2124
  C:6282H         LINE#         2125
  C:6285H         LINE#         2126
  C:6285H         LINE#         2132
  C:6285H         LINE#         2134
  C:6288H         LINE#         2135
  C:628EH         LINE#         2139
  C:6290H         LINE#         2140
  C:6290H         LINE#         2150
  C:6290H         LINE#         2152
  C:629EH         LINE#         2153
  C:629EH         LINE#         2154
  C:62AAH         LINE#         2155
  C:62AAH         LINE#         2156
  C:62B0H         LINE#         2157
  C:62B2H         LINE#         2158
BL51 BANKED LINKER/LOCATER V6.22.2.0                                                  09/15/2020  15:49:49  PAGE 124


  C:62BAH         LINE#         2159
  C:62BAH         LINE#         2160
  C:62C1H         LINE#         2161
  C:62D5H         LINE#         2162
  C:62D5H         LINE#         2163
  C:62D7H         LINE#         2165
  C:62D7H         LINE#         2166
  C:62DEH         LINE#         2167
  C:62E4H         LINE#         2168
  C:62E4H         LINE#         2169
  C:62E6H         LINE#         2171
  C:62E6H         LINE#         2172
  C:62EFH         LINE#         2173
  C:6303H         LINE#         2174
  C:6308H         LINE#         2175
  C:6308H         LINE#         2177
  C:630AH         LINE#         2178
  C:630AH         LINE#         2184
  C:630AH         LINE#         2186
  C:6310H         LINE#         2187
  C:6310H         LINE#         2190
  C:6310H         LINE#         2191
  C:6317H         LINE#         2192
  C:6317H         LINE#         2193
  C:6317H         LINE#         2194
  -------         ENDPROC       SECUENCIA_INICIO_EXPEDIDOR
  -------         PROC          _SECUENCIAEXPEDIDORMF
  X:0002H         SYMBOL        EstadoActivo
  -------         DO            
  X:010CH         SYMBOL        Buffer_Write_MF
  X:011DH         SYMBOL        Atributos_Expedidor
  X:012CH         SYMBOL        Secuencia_Expedidor
  X:0130H         SYMBOL        Nombre_Mensual
  -------         ENDDO         
  C:3700H         LINE#         2204
  C:3705H         LINE#         2205
  C:3705H         LINE#         2211
  C:375CH         LINE#         2212
  C:375CH         LINE#         2215
  C:375CH         LINE#         2217
  C:3772H         LINE#         2218
  C:3772H         LINE#         2219
  C:3774H         LINE#         2220
  C:3776H         LINE#         2221
  C:377BH         LINE#         2222
  C:3783H         LINE#         2223
  C:3788H         LINE#         2225
  C:3788H         LINE#         2227
  C:378BH         LINE#         2229
  C:378BH         LINE#         2231
  C:3794H         LINE#         2233
  C:3797H         LINE#         2240
  C:3797H         LINE#         2241
  C:379DH         LINE#         2242
  C:37A3H         LINE#         2243
  C:37A3H         LINE#         2244
  C:37A6H         LINE#         2246
BL51 BANKED LINKER/LOCATER V6.22.2.0                                                  09/15/2020  15:49:49  PAGE 125


  C:37A9H         LINE#         2247
  C:37B1H         LINE#         2248
  C:37B1H         LINE#         2250
  C:37B4H         LINE#         2251
  C:37B7H         LINE#         2252
  C:37BFH         LINE#         2253
  C:37BFH         LINE#         2254
  C:37CDH         LINE#         2255
  C:37CDH         LINE#         2256
  C:37D6H         LINE#         2257
  C:37D9H         LINE#         2258
  C:37E5H         LINE#         2259
  C:37E5H         LINE#         2260
  C:37EEH         LINE#         2261
  C:37F1H         LINE#         2263
  C:37F1H         LINE#         2264
  C:37FAH         LINE#         2265
  C:37FAH         LINE#         2266
  C:37FDH         LINE#         2267
  C:3805H         LINE#         2268
  C:3805H         LINE#         2269
  C:3813H         LINE#         2270
  C:3813H         LINE#         2271
  C:3829H         LINE#         2272
  C:382CH         LINE#         2273
  C:3838H         LINE#         2274
  C:3838H         LINE#         2275
  C:3841H         LINE#         2276
  C:3844H         LINE#         2278
  C:3844H         LINE#         2279
  C:384DH         LINE#         2280
  C:384DH         LINE#         2281
  C:3850H         LINE#         2282
  C:3858H         LINE#         2283
  C:3858H         LINE#         2284
  C:3861H         LINE#         2285
  C:3864H         LINE#         2286
  C:386CH         LINE#         2287
  C:386CH         LINE#         2288
  C:3882H         LINE#         2289
  C:3885H         LINE#         2290
  C:388DH         LINE#         2291
  C:388DH         LINE#         2292
  C:3890H         LINE#         2293
  C:3893H         LINE#         2295
  C:389BH         LINE#         2296
  C:389BH         LINE#         2297
  C:38A4H         LINE#         2298
  C:38A7H         LINE#         2300
  C:38A7H         LINE#         2301
  C:38B0H         LINE#         2302
  C:38B0H         LINE#         2303
  C:38B3H         LINE#         2304
  C:38B3H         LINE#         2305
  C:38B8H         LINE#         2306
  C:38D8H         LINE#         2307
  C:38DBH         LINE#         2308
BL51 BANKED LINKER/LOCATER V6.22.2.0                                                  09/15/2020  15:49:49  PAGE 126


  C:38DBH         LINE#         2309
  C:38E0H         LINE#         2310
  C:38E8H         LINE#         2311
  C:38EEH         LINE#         2312
  C:38F1H         LINE#         2313
  C:38F1H         LINE#         2314
  C:38F4H         LINE#         2315
  C:38FCH         LINE#         2316
  C:3902H         LINE#         2317
  C:3905H         LINE#         2318
  C:3905H         LINE#         2319
  C:3908H         LINE#         2320
  C:392DH         LINE#         2321
  C:3933H         LINE#         2322
  C:3935H         LINE#         2323
  C:3938H         LINE#         2324
  C:3938H         LINE#         2325
  C:3943H         LINE#         2326
  C:394BH         LINE#         2327
  C:3951H         LINE#         2328
  C:3954H         LINE#         2329
  C:3954H         LINE#         2330
  C:3965H         LINE#         2331
  C:396DH         LINE#         2332
  C:3973H         LINE#         2333
  C:3976H         LINE#         2334
  C:3976H         LINE#         2335
  C:397BH         LINE#         2336
  C:3999H         LINE#         2337
  C:399CH         LINE#         2338
  C:399CH         LINE#         2339
  C:39A1H         LINE#         2340
  C:39C1H         LINE#         2341
  C:39C4H         LINE#         2342
  C:39C4H         LINE#         2343
  C:39C9H         LINE#         2344
  C:39CBH         LINE#         2345
  C:39E9H         LINE#         2347
  C:39ECH         LINE#         2348
  C:39ECH         LINE#         2349
  C:39F1H         LINE#         2350
  C:3A11H         LINE#         2352
  C:3A14H         LINE#         2353
  C:3A14H         LINE#         2354
  C:3A19H         LINE#         2355
  C:3A21H         LINE#         2356
  C:3A27H         LINE#         2357
  C:3A2AH         LINE#         2358
  C:3A2AH         LINE#         2359
  C:3A2DH         LINE#         2360
  C:3A4DH         LINE#         2361
  C:3A50H         LINE#         2362
  C:3A50H         LINE#         2363
  C:3A52H         LINE#         2364
  C:3A55H         LINE#         2365
  C:3A58H         LINE#         2366
  C:3A58H         LINE#         2367
BL51 BANKED LINKER/LOCATER V6.22.2.0                                                  09/15/2020  15:49:49  PAGE 127


  C:3A61H         LINE#         2369
  C:3A64H         LINE#         2370
  C:3A64H         LINE#         2371
  C:3A72H         LINE#         2372
  C:3A75H         LINE#         2373
  C:3A75H         LINE#         2374
  C:3A78H         LINE#         2375
  C:3A80H         LINE#         2376
  C:3A86H         LINE#         2377
  C:3A89H         LINE#         2378
  C:3A89H         LINE#         2379
  C:3A92H         LINE#         2380
  C:3A95H         LINE#         2381
  C:3A95H         LINE#         2382
  C:3AACH         LINE#         2383
  C:3AAEH         LINE#         2384
  C:3AAEH         LINE#         2385
  C:3AB3H         LINE#         2386
  C:3AD6H         LINE#         2387
  C:3AD9H         LINE#         2388
  C:3ADBH         LINE#         2389
  C:3ADBH         LINE#         2390
  C:3ADEH         LINE#         2391
  C:3AFEH         LINE#         2392
  C:3B00H         LINE#         2393
  C:3B00H         LINE#         2394
  C:3B03H         LINE#         2395
  C:3B28H         LINE#         2396
  C:3B2AH         LINE#         2397
  C:3B2AH         LINE#         2398
  C:3B2FH         LINE#         2399
  C:3B2FH         LINE#         2401
  C:3B2FH         LINE#         2402
  C:3B34H         LINE#         2403
  -------         ENDPROC       _SECUENCIAEXPEDIDORMF
  -------         ENDMOD        VERIFICADOR

  -------         MODULE        MONITOR
  C:0000H         SYMBOL        _ICE_DUMMY_
  D:0080H         PUBLIC        P0
  D:0090H         PUBLIC        P1
  I:0011H         PUBLIC        placa
  C:AE1BH         PUBLIC        Rx_Monitor
  B:0080H.0       PUBLIC        rx_ip
  B:0090H.7       PUBLIC        lock
  C:845EH         PUBLIC        _recibe_cmd_Monitor
  C:AF3DH         PUBLIC        clear_placa
  C:91CAH         PUBLIC        _Valida_Trama_Monitor
  -------         PROC          _RECIBE_CMD_MONITOR
  X:0015H         SYMBOL        buffer_cmd
  -------         DO            
  X:0018H         SYMBOL        j
  X:0019H         SYMBOL        NumDatos
  X:001AH         SYMBOL        time_out
  X:001BH         SYMBOL        MaxChrRx
  X:001CH         SYMBOL        contador
  -------         ENDDO         
BL51 BANKED LINKER/LOCATER V6.22.2.0                                                  09/15/2020  15:49:49  PAGE 128


  C:845EH         LINE#         44
  C:8469H         LINE#         45
  C:8469H         LINE#         49
  C:846EH         LINE#         50
  C:8474H         LINE#         52
  C:847FH         LINE#         53
  C:847FH         LINE#         54
  C:8490H         LINE#         55
  C:8490H         LINE#         56
  C:8497H         LINE#         57
  C:849BH         LINE#         58
  C:84A4H         LINE#         59
  C:84A4H         LINE#         60
  C:84B2H         LINE#         61
  C:84C9H         LINE#         62
  C:84C9H         LINE#         63
  C:84CFH         LINE#         64
  C:84D5H         LINE#         65
  C:84D5H         LINE#         66
  C:84D7H         LINE#         67
  C:84DFH         LINE#         68
  C:84E5H         LINE#         69
  C:84F7H         LINE#         70
  C:8501H         LINE#         71
  C:850AH         LINE#         73
  C:8519H         LINE#         76
  C:8519H         LINE#         77
  C:851EH         LINE#         78
  -------         ENDPROC       _RECIBE_CMD_MONITOR
  -------         PROC          _VALIDA_TRAMA_MONITOR
  X:0015H         SYMBOL        buffer
  D:0005H         SYMBOL        length_trama
  -------         DO            
  D:0007H         SYMBOL        j
  D:0006H         SYMBOL        p
  -------         ENDDO         
  C:91CAH         LINE#         83
  C:91D5H         LINE#         84
  C:91D5H         LINE#         85
  C:91D7H         LINE#         86
  C:91D9H         LINE#         87
  C:91D9H         LINE#         88
  C:91F7H         LINE#         89
  C:91F7H         LINE#         90
  C:91F9H         LINE#         91
  C:91FEH         LINE#         92
  C:91FFH         LINE#         93
  C:9214H         LINE#         94
  C:9214H         LINE#         97
  C:9214H         LINE#         98
  C:922EH         LINE#         99
  C:922FH         LINE#         100
  C:9230H         LINE#         101
  C:923CH         LINE#         102
  C:9250H         LINE#         103
  C:9256H         LINE#         104
  C:9258H         LINE#         105
BL51 BANKED LINKER/LOCATER V6.22.2.0                                                  09/15/2020  15:49:49  PAGE 129


  C:925EH         LINE#         108
  C:925EH         LINE#         109
  C:925EH         LINE#         110
  C:925EH         LINE#         112
  C:925EH         LINE#         113
  -------         ENDPROC       _VALIDA_TRAMA_MONITOR
  -------         PROC          CLEAR_PLACA
  -------         DO            
  D:0007H         SYMBOL        i
  -------         ENDDO         
  C:AF3DH         LINE#         114
  C:AF3DH         LINE#         115
  C:AF3DH         LINE#         117
  C:AF49H         LINE#         118
  C:AF49H         LINE#         119
  C:AF4FH         LINE#         120
  C:AF52H         LINE#         121
  C:AF54H         LINE#         122
  -------         ENDPROC       CLEAR_PLACA
  -------         PROC          RX_MONITOR
  -------         DO            
  X:0008H         SYMBOL        Length_trama
  X:0009H         SYMBOL        buffer1
  -------         ENDDO         
  C:AE1BH         LINE#         123
  C:AE1BH         LINE#         124
  C:AE1BH         LINE#         127
  C:AE2AH         LINE#         128
  C:AE33H         LINE#         129
  -------         ENDPROC       RX_MONITOR
  -------         ENDMOD        MONITOR

  -------         MODULE        ?C?FPADD
  C:1335H         PUBLIC        ?C?FPADD
  C:1331H         PUBLIC        ?C?FPSUB
  -------         ENDMOD        ?C?FPADD

  -------         MODULE        ?C?FPMUL
  C:1426H         PUBLIC        ?C?FPMUL
  -------         ENDMOD        ?C?FPMUL

  -------         MODULE        ?C?FCAST
  C:1536H         PUBLIC        ?C?FCASTC
  C:1531H         PUBLIC        ?C?FCASTI
  C:152CH         PUBLIC        ?C?FCASTL
  -------         ENDMOD        ?C?FCAST

  -------         MODULE        ?C?CASTF
  C:156AH         PUBLIC        ?C?CASTF
  -------         ENDMOD        ?C?CASTF

  -------         MODULE        PRINTF
  X:0078H         PUBLIC        ?_PRINTF?BYTE
  X:0078H         PUBLIC        ?_SPRINTF?BYTE
  C:32E8H         PUBLIC        _PRINTF
  C:32E2H         PUBLIC        _SPRINTF
  -------         ENDMOD        PRINTF
BL51 BANKED LINKER/LOCATER V6.22.2.0                                                  09/15/2020  15:49:49  PAGE 130



  -------         MODULE        POW
  X:0022H         PUBLIC        ?_pow?BYTE
  C:5B5BH         PUBLIC        _pow
  -------         ENDMOD        POW

  -------         MODULE        ?C?CHKFLOAT
  C:15EBH         PUBLIC        ?C?CHKFLOAT
  -------         ENDMOD        ?C?CHKFLOAT

  -------         MODULE        ?C?FPCMP
  C:1607H         PUBLIC        ?C?FPCMP
  C:1605H         PUBLIC        ?C?FPCMP3
  -------         ENDMOD        ?C?FPCMP

  -------         MODULE        ?C?FPNEG
  C:167EH         PUBLIC        ?C?FPNEG
  -------         ENDMOD        ?C?FPNEG

  -------         MODULE        ?C?FPROUND
  C:168FH         PUBLIC        ?C?FPROUND
  -------         ENDMOD        ?C?FPROUND

  -------         MODULE        ?C?FPCONVERT
  C:16CCH         PUBLIC        ?C?FPCONVERT
  -------         ENDMOD        ?C?FPCONVERT

  -------         MODULE        EXP
  C:8F9EH         PUBLIC        _EXP
  -------         ENDMOD        EXP

  -------         MODULE        LOG
  C:65AEH         PUBLIC        _LOG
  C:65AAH         PUBLIC        _LOG10
  -------         ENDMOD        LOG

  -------         MODULE        ?C?FPDIV
  C:17D4H         PUBLIC        ?C?FPDIV
  -------         ENDMOD        ?C?FPDIV

  -------         MODULE        ?C?FTNPWR
  C:18A1H         PUBLIC        ?C?FTNPWR
  -------         ENDMOD        ?C?FTNPWR

  -------         MODULE        ?C?COPY
  C:19FEH         PUBLIC        ?C?COPY
  -------         ENDMOD        ?C?COPY

  -------         MODULE        ?C?CLDPTR
  C:1A24H         PUBLIC        ?C?CLDPTR
  -------         ENDMOD        ?C?CLDPTR

  -------         MODULE        ?C?CLDOPTR
  C:1A3DH         PUBLIC        ?C?CLDOPTR
  -------         ENDMOD        ?C?CLDOPTR

  -------         MODULE        ?C?CSTPTR
BL51 BANKED LINKER/LOCATER V6.22.2.0                                                  09/15/2020  15:49:49  PAGE 131


  C:1A6AH         PUBLIC        ?C?CSTPTR
  -------         ENDMOD        ?C?CSTPTR

  -------         MODULE        ?C?CSTOPTR
  C:1A7CH         PUBLIC        ?C?CSTOPTR
  -------         ENDMOD        ?C?CSTOPTR

  -------         MODULE        ?C?IMUL
  C:1A9EH         PUBLIC        ?C?IMUL
  -------         ENDMOD        ?C?IMUL

  -------         MODULE        ?C?IILDX
  C:1AB0H         PUBLIC        ?C?IILDX
  -------         ENDMOD        ?C?IILDX

  -------         MODULE        ?C?LNEG
  C:1AC6H         PUBLIC        ?C?LNEG
  -------         ENDMOD        ?C?LNEG

  -------         MODULE        ?C?SLCMP
  C:1AD4H         PUBLIC        ?C?SLCMP
  -------         ENDMOD        ?C?SLCMP

  -------         MODULE        ?C?ULCMP
  C:1AEAH         PUBLIC        ?C?ULCMP
  -------         ENDMOD        ?C?ULCMP

  -------         MODULE        ?C?ULSHR
  C:1AFBH         PUBLIC        ?C?ULSHR
  -------         ENDMOD        ?C?ULSHR

  -------         MODULE        ?C?LSHL
  C:1B0EH         PUBLIC        ?C?LSHL
  -------         ENDMOD        ?C?LSHL

  -------         MODULE        ?C?LLDCODE
  C:1B21H         PUBLIC        ?C?LLDCODE
  -------         ENDMOD        ?C?LLDCODE

  -------         MODULE        ?C?LLDXDATA0
  C:1B31H         PUBLIC        ?C?LLDXDATA0
  -------         ENDMOD        ?C?LLDXDATA0

  -------         MODULE        ?C?LLDCODE0
  C:1B3DH         PUBLIC        ?C?LLDCODE0
  -------         ENDMOD        ?C?LLDCODE0

  -------         MODULE        ?C?LSTXDATA
  C:1B4DH         PUBLIC        ?C?LSTXDATA
  -------         ENDMOD        ?C?LSTXDATA

  -------         MODULE        ?C?LSTKXDATA
  C:1B59H         PUBLIC        ?C?LSTKXDATA
  -------         ENDMOD        ?C?LSTKXDATA

  -------         MODULE        ?C?PLDIXDATA
  C:1B8AH         PUBLIC        ?C?PLDIXDATA
BL51 BANKED LINKER/LOCATER V6.22.2.0                                                  09/15/2020  15:49:49  PAGE 132


  -------         ENDMOD        ?C?PLDIXDATA

  -------         MODULE        ?C?PSTXDATA
  C:1BA1H         PUBLIC        ?C?PSTXDATA
  -------         ENDMOD        ?C?PSTXDATA

  -------         MODULE        ?C?CCASE
  C:1BAAH         PUBLIC        ?C?CCASE
  -------         ENDMOD        ?C?CCASE

  -------         MODULE        STRCAT
  X:0047H         PUBLIC        ?_strcat?BYTE
  C:9FB1H         PUBLIC        _strcat
  -------         ENDMOD        STRCAT

  -------         MODULE        ?C?STRCMP
  C:1D4EH         PUBLIC        ?C?STRCMP
  -------         ENDMOD        ?C?STRCMP

  -------         MODULE        ?C?STRCPY
  C:1E37H         PUBLIC        ?C?STRCPY
  -------         ENDMOD        ?C?STRCPY

  -------         MODULE        STRLEN
  C:000EH         PUBLIC        _STRLEN
  -------         ENDMOD        STRLEN

  -------         MODULE        STRTOK
  X:0065H         PUBLIC        ?_strtok?BYTE
  C:790CH         PUBLIC        _strtok
  -------         ENDMOD        STRTOK

  -------         MODULE        ATOL
  C:6D3EH         PUBLIC        _atol
  -------         ENDMOD        ATOL

  -------         MODULE        ATOI
  C:7ACEH         PUBLIC        _atoi
  -------         ENDMOD        ATOI

  -------         MODULE        ?C?ILDIX
  C:1E54H         PUBLIC        ?C?ILDIX
  -------         ENDMOD        ?C?ILDIX

  -------         MODULE        ?C?LMUL
  C:1E6AH         PUBLIC        ?C?LMUL
  -------         ENDMOD        ?C?LMUL

  -------         MODULE        ISDIGIT
  C:B025H         PUBLIC        _isdigit
  -------         ENDMOD        ISDIGIT

  -------         MODULE        ISSPACE
  C:AF97H         PUBLIC        _isspace
  -------         ENDMOD        ISSPACE

  -------         MODULE        STRSPN
BL51 BANKED LINKER/LOCATER V6.22.2.0                                                  09/15/2020  15:49:49  PAGE 133


  X:006BH         PUBLIC        ?_strspn?BYTE
  C:9874H         PUBLIC        _strspn
  -------         ENDMOD        STRSPN

  -------         MODULE        STRPBRK
  X:006BH         PUBLIC        ?_strpbrk?BYTE
  C:99FBH         PUBLIC        _strpbrk
  -------         ENDMOD        STRPBRK

Program Size: data=138.7 xdata=530 code=45232
LINK/LOCATE RUN COMPLETE.  0 WARNING(S),  0 ERROR(S)
