BL51 BANKED LINKER/LOCATER V6.22.2.0                                                    06/09/2021  12:25:34  PAGE 1


BL51 BANKED LINKER/LOCATER V6.22.2.0, INVOKED BY:
C:\KEIL_V5\C51\BIN\BL51.EXE .\Objects\main.obj, .\Objects\Accescan.obj, .\Objects\Clock.obj, .\Objects\delay.obj, .\Obje
>> cts\eeprom.obj, .\Objects\io_sensores.obj, .\Objects\pantallas.obj, .\Objects\prog.obj, .\Objects\pto_paralelo.obj, .
>> \Objects\tibbo.obj, .\Objects\uart.obj, .\Objects\lintech.obj, .\Objects\verificador.obj, .\Objects\Monitor.obj TO .\
>> Objects\expedidor_v_01_raspberry PRINT (.\Listings\expedidor_v_01_raspberry.m51) RAMSIZE (256)


MEMORY MODEL: LARGE WITH FLOATING POINT ARITHMETIC


INPUT MODULES INCLUDED:
  .\Objects\main.obj (MAIN)
  .\Objects\Accescan.obj (ACCESCAN)
  .\Objects\Clock.obj (CLOCK)
  .\Objects\delay.obj (DELAY)
  .\Objects\eeprom.obj (EEPROM)
  .\Objects\io_sensores.obj (IO_SENSORES)
  .\Objects\pantallas.obj (PANTALLAS)
  .\Objects\prog.obj (PROG)
  .\Objects\pto_paralelo.obj (PTO_PARALELO)
  .\Objects\tibbo.obj (TIBBO)
  .\Objects\uart.obj (UART)
  .\Objects\lintech.obj (LINTECH)
  .\Objects\verificador.obj (VERIFICADOR)
  .\Objects\Monitor.obj (MONITOR)
  C:\KEIL_V5\C51\LIB\C51FPL.LIB (?C?FPADD)
  C:\KEIL_V5\C51\LIB\C51FPL.LIB (?C?FPMUL)
  C:\KEIL_V5\C51\LIB\C51FPL.LIB (?C?FCAST)
  C:\KEIL_V5\C51\LIB\C51FPL.LIB (?C?CASTF)
  C:\KEIL_V5\C51\LIB\C51FPL.LIB (PRINTF)
  C:\KEIL_V5\C51\LIB\C51FPL.LIB (POW)
  C:\KEIL_V5\C51\LIB\C51FPL.LIB (?C?FPGETOPN)
  C:\KEIL_V5\C51\LIB\C51FPL.LIB (?C?CHKFLOAT)
  C:\KEIL_V5\C51\LIB\C51FPL.LIB (?C?FPCMP)
  C:\KEIL_V5\C51\LIB\C51FPL.LIB (?C?FPNEG)
  C:\KEIL_V5\C51\LIB\C51FPL.LIB (?C?FPROUND)
  C:\KEIL_V5\C51\LIB\C51FPL.LIB (?C?FPCONVERT)
  C:\KEIL_V5\C51\LIB\C51FPL.LIB (EXP)
  C:\KEIL_V5\C51\LIB\C51FPL.LIB (LOG)
  C:\KEIL_V5\C51\LIB\C51FPL.LIB (?C?FPDIV)
  C:\KEIL_V5\C51\LIB\C51FPL.LIB (?C?FTNPWR)
  C:\KEIL_V5\C51\LIB\C51FPL.LIB (?C?FPSERIES)
  C:\KEIL_V5\C51\LIB\C51L.LIB (?C_STARTUP)
  C:\KEIL_V5\C51\LIB\C51L.LIB (?C?COPY)
  C:\KEIL_V5\C51\LIB\C51L.LIB (?C?CLDPTR)
  C:\KEIL_V5\C51\LIB\C51L.LIB (?C?CLDOPTR)
  C:\KEIL_V5\C51\LIB\C51L.LIB (?C?CSTPTR)
  C:\KEIL_V5\C51\LIB\C51L.LIB (?C?CSTOPTR)
  C:\KEIL_V5\C51\LIB\C51L.LIB (?C?IMUL)
  C:\KEIL_V5\C51\LIB\C51L.LIB (?C?IILDX)
  C:\KEIL_V5\C51\LIB\C51L.LIB (?C?LNEG)
  C:\KEIL_V5\C51\LIB\C51L.LIB (?C?SLCMP)
  C:\KEIL_V5\C51\LIB\C51L.LIB (?C?ULCMP)
  C:\KEIL_V5\C51\LIB\C51L.LIB (?C?ULSHR)
  C:\KEIL_V5\C51\LIB\C51L.LIB (?C?LSHL)
  C:\KEIL_V5\C51\LIB\C51L.LIB (?C?LLDCODE)
  C:\KEIL_V5\C51\LIB\C51L.LIB (?C?LLDXDATA0)
  C:\KEIL_V5\C51\LIB\C51L.LIB (?C?LLDCODE0)
BL51 BANKED LINKER/LOCATER V6.22.2.0                                                  06/09/2021  12:25:34  PAGE 2


  C:\KEIL_V5\C51\LIB\C51L.LIB (?C?LSTXDATA)
  C:\KEIL_V5\C51\LIB\C51L.LIB (?C?LSTKXDATA)
  C:\KEIL_V5\C51\LIB\C51L.LIB (?C?PLDIXDATA)
  C:\KEIL_V5\C51\LIB\C51L.LIB (?C?PSTXDATA)
  C:\KEIL_V5\C51\LIB\C51L.LIB (?C?CCASE)
  C:\KEIL_V5\C51\LIB\C51L.LIB (STRCAT)
  C:\KEIL_V5\C51\LIB\C51L.LIB (?C?STRCMP)
  C:\KEIL_V5\C51\LIB\C51L.LIB (?C?STRCPY)
  C:\KEIL_V5\C51\LIB\C51L.LIB (STRLEN)
  C:\KEIL_V5\C51\LIB\C51L.LIB (STRTOK)
  C:\KEIL_V5\C51\LIB\C51L.LIB (ATOL)
  C:\KEIL_V5\C51\LIB\C51L.LIB (ATOI)
  C:\KEIL_V5\C51\LIB\C51L.LIB (?C_INIT)
  C:\KEIL_V5\C51\LIB\C51L.LIB (?C?ILDIX)
  C:\KEIL_V5\C51\LIB\C51L.LIB (?C?LMUL)
  C:\KEIL_V5\C51\LIB\C51L.LIB (ISDIGIT)
  C:\KEIL_V5\C51\LIB\C51L.LIB (ISSPACE)
  C:\KEIL_V5\C51\LIB\C51L.LIB (STRSPN)
  C:\KEIL_V5\C51\LIB\C51L.LIB (STRPBRK)


LINK MAP OF MODULE:  .\Objects\expedidor_v_01_raspberry (MAIN)


            TYPE    BASE      LENGTH    RELOCATION   SEGMENT NAME
            -----------------------------------------------------

            * * * * * * *   D A T A   M E M O R Y   * * * * * * *
            REG     0000H     0008H     ABSOLUTE     "REG BANK 0"
            DATA    0008H     0005H     UNIT         _DATA_GROUP_
            DATA    000DH     0004H     UNIT         ?DT?UART
            IDATA   0011H     0009H     UNIT         ?ID?MONITOR
                    001AH     0006H                  *** GAP ***
            BIT     0020H.0   0001H.1   UNIT         _BIT_GROUP_
            BIT     0021H.1   0000H.3   UNIT         ?BI?MAIN
            BIT     0021H.4   0000H.2   UNIT         ?BI?UART
            BIT     0021H.6   0000H.1   UNIT         ?BI?EEPROM
            BIT     0021H.7   0000H.1   UNIT         ?BI?IO_SENSORES
            BIT     0022H.0   0000H.1   UNIT         ?BI?VERIFICADOR
                    0022H.1   0000H.7                *** GAP ***
            IDATA   0023H     0046H     UNIT         ?ID?MAIN
            IDATA   0069H     0001H     UNIT         ?STACK

            * * * * * * *  X D A T A   M E M O R Y  * * * * * * *
            XDATA   0000H     00B7H     UNIT         _XDATA_GROUP_
            XDATA   00B7H     0091H     UNIT         ?XD?VERIFICADOR
            XDATA   0148H     006CH     UNIT         ?XD?MAIN
            XDATA   01B4H     0059H     UNIT         ?XD?PROG
            XDATA   020DH     0003H     UNIT         ?XD?EEPROM
            XDATA   0210H     0003H     UNIT         ?XD?UART
            XDATA   0213H     0003H     UNIT         ?XD?STRTOK
            XDATA   0216H     0002H     UNIT         ?XD?IO_SENSORES
            XDATA   0218H     0001H     UNIT         ?XD?ACCESCAN
            XDATA   0219H     0001H     UNIT         ?XD?CLOCK

            * * * * * * *   C O D E   M E M O R Y   * * * * * * *
            CODE    0000H     0003H     ABSOLUTE     
BL51 BANKED LINKER/LOCATER V6.22.2.0                                                  06/09/2021  12:25:34  PAGE 3


            CODE    0003H     0008H     UNIT         ?PR?P_CK?CLOCK
            CODE    000BH     0003H     ABSOLUTE     
            CODE    000EH     0015H     UNIT         ?PR?_STRLEN?STRLEN
            CODE    0023H     0003H     ABSOLUTE     
            CODE    0026H     1308H     UNIT         ?CO?PROG
            CODE    132EH     0B8BH     UNIT         ?C?LIB_CODE
            CODE    1EB9H     08BDH     UNIT         ?CO?VERIFICADOR
            CODE    2776H     0747H     UNIT         ?PR?_PANTALLALCD?PANTALLAS
            CODE    2EBDH     06EFH     UNIT         ?CO?PANTALLAS
            CODE    35ACH     0516H     UNIT         ?PR?_VALIDA_TRAMA_PTO?ACCESCAN
            CODE    3AC2H     04DAH     UNIT         ?PR?_SECUENCIAEXPEDIDORMF?VERIFICADOR
            CODE    3F9CH     0483H     UNIT         ?PR?PRINTF?PRINTF
            CODE    441FH     035CH     UNIT         ?PR?VER_PROG?PROG
            CODE    477BH     02D0H     UNIT         ?PR?_TWO_BYTEHEX_DECIMAL?CLOCK
            CODE    4A4BH     02B7H     UNIT         ?PR?_PROG_HORARIO_DIAS?PROG
            CODE    4D02H     02A5H     UNIT         ?PR?_PANTALLALCD_LINEA_2?PANTALLAS
            CODE    4FA7H     02A3H     UNIT         ?PR?_ARMAR_TRAMA_MONITOR?VERIFICADOR
            CODE    524AH     0256H     UNIT         ?PR?_ARMAR_TRAMA_PTO_PARALELO_EXPEDIDOR?VERIFICADOR
            CODE    54A0H     022CH     UNIT         ?PR?MENU?PROG
            CODE    56CCH     0208H     UNIT         ?PR?_HASH_ID?PROG
            CODE    58D4H     01FAH     UNIT         ?PR?_PROG_HORARIO_DESDE_HASTA?PROG
            CODE    5ACEH     01F5H     UNIT         ?PR?PROG_FECHA_VENCIMIENTO?PROG
            CODE    5CC3H     01EBH     UNIT         ?PR?_ARMAR_TRAMA_TARJETA_SECTOR1_BLOQUE2?VERIFICADOR
            CODE    5EAEH     01DFH     UNIT         ?PR?_RESPONDE_LECTURA_TARJETA_SECTOR1_BLOQUE1?VERIFICADOR
            CODE    608DH     01D8H     UNIT         ?PR?_BLOCK_READ_CLOCK_ASCII_RASBERRY?CLOCK
            CODE    6265H     01B3H     UNIT         ?PR?COM_ISR?UART
            CODE    6418H     01A4H     UNIT         ?PR?_VALIDA_TIPO_TARJETA?VERIFICADOR
            CODE    65BCH     01A3H     UNIT         ?CO?LINTECH
            CODE    675FH     016EH     UNIT         ?PR?_BLOCK_READ_CLOCK_ASCII?CLOCK
            CODE    68CDH     0166H     UNIT         ?PR?_POW?POW
            CODE    6A33H     0157H     UNIT         ?PR?_RESPONDE_REELECTURA_TARJETA_SECTOR1_BLOQUE2?VERIFICADOR
            CODE    6B8AH     0145H     UNIT         ?PR?PROG_HORARIOS?PROG
            CODE    6CCFH     013EH     UNIT         ?PR?PROG_SIN_COBRO?PROG
            CODE    6E0DH     013EH     UNIT         ?PR?SECUENCIA_INICIO_EXPEDIDOR?VERIFICADOR
            CODE    6F4BH     013CH     UNIT         ?PR?LOAD_AND_SEND_ID_COD?PTO_PARALELO
            CODE    7087H     0137H     UNIT         ?PR?VER_HORARIO?PROG
            CODE    71BEH     012EH     UNIT         ?PR?_ARMAR_TRAMA_PTO_PARALELO_EXPEDIDOR_MENSUAL?VERIFICADOR
            CODE    72ECH     012BH     UNIT         ?PR?_RESPONDE_LECTURA_TARJETA_SECTOR1_BLOQUE2?VERIFICADOR
            CODE    7417H     0129H     UNIT         ?PR?LOG?LOG
            CODE    7540H     0128H     UNIT         ?PR?_VER_HORARIO_DIAS?PROG
            CODE    7668H     011AH     UNIT         ?PR?_PROG_HORARIOS_ON_OFF?PROG
            CODE    7782H     0119H     UNIT         ?PR?_VER_HORARIO_DESDE_HASTA?PROG
            CODE    789BH     0115H     UNIT         ?PR?_VALIDAR_CLK?CLOCK
            CODE    79B0H     010FH     UNIT         ?PR?_HORARIOS?VERIFICADOR
            CODE    7ABFH     010CH     UNIT         ?PR?_ATOL?ATOL
            CODE    7BCBH     0100H     UNIT         ?PR?_WR_MF?LINTECH
            CODE    7CCBH     00FCH     UNIT         ?PR?PROG_DEBUG?PROG
            CODE    7DC7H     00FCH     UNIT         ?PR?PROG_USE_LPR?PROG
            CODE    7EC3H     00FCH     UNIT         ?PR?TIPO_PANTALLA?PROG
            CODE    7FBFH     00FCH     UNIT         ?PR?PROG_ANTIPASSBACK?PROG
            CODE    80BBH     00FCH     UNIT         ?PR?PROG_PLACA?PROG
            CODE    81B7H     00FCH     UNIT         ?PR?PROG_VALIDAR_TIPO_VEHICULO_MENSUAL?PROG
            CODE    82B3H     00FCH     UNIT         ?PR?PROG_APB_MENSUAL?PROG
            CODE    83AFH     00FCH     UNIT         ?PR?_BLOQUE_HORARIO?VERIFICADOR
            CODE    84ABH     00F1H     UNIT         ?PR?_WRITE_EEPROM_TICKET?EEPROM
            CODE    859CH     00F0H     UNIT         ?CO?IO_SENSORES
            CODE    868CH     00EAH     UNIT         ?PR?_MOV_CARD?LINTECH
BL51 BANKED LINKER/LOCATER V6.22.2.0                                                  06/09/2021  12:25:34  PAGE 4


            CODE    8776H     00E4H     UNIT         ?PR?_STRTOK?STRTOK
            CODE    885AH     00DEH     UNIT         ?PR?PROG_ADDRESS_HIGH_BOARD?PROG
            CODE    8938H     00DBH     UNIT         ?PR?_ATOI?ATOI
            CODE    8A13H     00D7H     UNIT         ?PR?_ANALIZA_UID_CARD?VERIFICADOR
            CODE    8AEAH     00D6H     UNIT         ?PR?_CMD_LPR_SALIDA_WIEGAND?ACCESCAN
            CODE    8BC0H     00D3H     UNIT         ?C_INITSEG
            CODE    8C93H     00CCH     UNIT         ?PR?_GRABA_SERIE?EEPROM
            CODE    8D5FH     00CBH     UNIT         ?PR?_RTA_CMD_TRANSPORTE?VERIFICADOR
            CODE    8E2AH     00CAH     UNIT         ?PR?READ_EEPROM_TICKET?EEPROM
            CODE    8EF4H     00C9H     UNIT         ?PR?_CHECK_FECHAOUT?CLOCK
            CODE    8FBDH     00C4H     UNIT         ?PR?_BLOCK_READ_CLOCK?CLOCK
            CODE    9081H     00C4H     UNIT         ?PR?_TARJETA_MENSUAL?VERIFICADOR
            CODE    9145H     00C3H     UNIT         ?PR?_RD_MF?LINTECH
            CODE    9208H     00C2H     UNIT         ?PR?PROG_TARJETA_AUTOMATICA_O_BOTON?PROG
            CODE    92CAH     00C1H     UNIT         ?PR?_RECIBE_CMD_MONITOR?MONITOR
            CODE    938BH     00BEH     UNIT         ?PR?ERROR_RX_PTO?VERIFICADOR
            CODE    9449H     00BDH     UNIT         ?PR?PROG_COD_PARK?PROG
            CODE    9506H     00BDH     UNIT         ?PR?PROG_TIEMPO_GRACIA?PROG
            CODE    95C3H     00BBH     UNIT         ?PR?_VALIDA_TRAMA_MONITOR?MONITOR
            CODE    967EH     00B9H     UNIT         ?CO?TIBBO
            CODE    9737H     00B6H     UNIT         ?PR?PROG_ID_CLIENTE?PROG
            CODE    97EDH     00B5H     UNIT         ?PR?_WAIT_PLACA?VERIFICADOR
            CODE    98A2H     00B4H     UNIT         ?PR?_SEND_PORT?PTO_PARALELO
            CODE    9956H     00AFH     UNIT         ?PR?MSJ_LCD_INFORMATIVO?IO_SENSORES
            CODE    9A05H     00ACH     UNIT         ?PR?_HORA_MAXIMA?VERIFICADOR
            CODE    9AB1H     00AAH     UNIT         ?PR?CLAVE_SEGURIDAD_S2?LINTECH
            CODE    9B5BH     00A9H     UNIT         ?PR?DWLOAD_EEPROM?LINTECH
            CODE    9C04H     00A6H     UNIT         ?PR?_BLOCK_READ_CLOCK_HEX?CLOCK
            CODE    9CAAH     00A5H     UNIT         ?PR?_SEND_PTO_PARALELO?VERIFICADOR
            CODE    9D4FH     00A4H     UNIT         ?PR?_ARMAR_TRAMA_TARJETA_SECTOR1_BLOQUE1_CAMCEL?VERIFICADOR
            CODE    9DF3H     00A1H     UNIT         ?PR?_BLOCK_WRITE_CLOCK_ASCII?CLOCK
            CODE    9E94H     009DH     UNIT         ?PR?_INICIALIZA?LINTECH
            CODE    9F31H     009CH     UNIT         ?PR?_RESPUESTA_PLACA_CANCEL?VERIFICADOR
            CODE    9FCDH     009AH     UNIT         ?PR?_RESPONDE_LECTURA_TARJETA_SECTOR1_BLOQUE0?VERIFICADOR
            CODE    A067H     009AH     UNIT         ?PR?EXP?EXP
            CODE    A101H     0099H     UNIT         ?PR?SHOW?PROG
            CODE    A19AH     0099H     UNIT         ?PR?_RECIBE_PORT?PTO_PARALELO
            CODE    A233H     0098H     UNIT         ?PR?_VALIDA_VEHICULO_CARD_MENSUAL?VERIFICADOR
            CODE    A2CBH     0091H     UNIT         ?PR?_HEX_ASCII?CLOCK
            CODE    A35CH     0091H     UNIT         ?PR?_CARD_INSERCION?LINTECH
            CODE    A3EDH     0090H     UNIT         ?PR?_LEE_CLK?CLOCK
            CODE    A47DH     0090H     UNIT         ?PR?_GETOPTION?PROG
            CODE    A50DH     0090H     UNIT         ?PR?_DISPARO_LOCK_ENTRADA_VEHICULO?VERIFICADOR
            CODE    A59DH     0090H     UNIT         ?PR?ENTREGA_CARD_CAPTURA?VERIFICADOR
            CODE    A62DH     008DH     UNIT         ?PR?LOADVERIFY_EEPROM?LINTECH
            CODE    A6BAH     008CH     UNIT         ?C_C51STARTUP
            CODE    A746H     0088H     UNIT         ?PR?_SEND_PORTERR?PTO_PARALELO
            CODE    A7CEH     0088H     UNIT         ?PR?RX_DATA?TIBBO
            CODE    A856H     0088H     UNIT         ?PR?UNIQUE_IDENTIFIER_UID?LINTECH
            CODE    A8DEH     0086H     UNIT         ?PR?_CHECK_STATUS?LINTECH
            CODE    A964H     0084H     UNIT         ?PR?_DEBUGBUFFERMF?TIBBO
            CODE    A9E8H     0084H     UNIT         ?PR?_STRSPN?STRSPN
            CODE    AA6CH     0083H     UNIT         ?PR?_RASPBERRY_DATA?PANTALLAS
            CODE    AAEFH     0081H     UNIT         ?PR?_STRPBRK?STRPBRK
            CODE    AB70H     0080H     UNIT         ?PR?_INGRESADATO?PROG
            CODE    ABF0H     0080H     UNIT         ?PR?AUT_CARD_CHECK_STATUS?LINTECH
            CODE    AC70H     0080H     UNIT         ?PR?POWER_OFF?LINTECH
BL51 BANKED LINKER/LOCATER V6.22.2.0                                                  06/09/2021  12:25:34  PAGE 5


            CODE    ACF0H     007FH     UNIT         ?PR?MAIN?MAIN
            CODE    AD6FH     007DH     UNIT         ?PR?RELOJ_PANTALLA_LCD?PANTALLAS
            CODE    ADECH     007CH     UNIT         ?PR?RESPONDE_ESTADO_SENSORES_TRANSPORTE?VERIFICADOR
            CODE    AE68H     0077H     UNIT         ?PR?RESPONDE_TIPO_TARJETA?VERIFICADOR
            CODE    AEDFH     0074H     UNIT         ?PR?_HORA_ENTRADA_VEHICULO?CLOCK
            CODE    AF53H     0071H     UNIT         ?PR?_EN_HORARIO?VERIFICADOR
            CODE    AFC4H     006FH     UNIT         ?PR?_ESCRIBIRMEMORIA?EEPROM
            CODE    B033H     006CH     UNIT         ?PR?_RESPONDE_WRITE_TARJETA_SECTOR1_BLOQUE2?VERIFICADOR
            CODE    B09FH     006BH     UNIT         ?PR?INGRESO_VEHICULO?VERIFICADOR
            CODE    B10AH     006BH     UNIT         ?PR?_STRCAT?STRCAT
            CODE    B175H     0066H     UNIT         ?PR?_LEERMEMORIA?EEPROM
            CODE    B1DBH     0062H     UNIT         ?PR?_LISTACOMANDOS?PROG
            CODE    B23DH     005EH     UNIT         ?PR?_BYTEHEX_DECIMAL?CLOCK
            CODE    B29BH     005DH     UNIT         ?PR?_RESPUESTA_SEGUNDA_CLAVE?VERIFICADOR
            CODE    B2F8H     005CH     UNIT         ?PR?_ARMAR_TRAMA_PLACA?VERIFICADOR
            CODE    B354H     005BH     UNIT         ?PR?VALIDA_SENSOR1_AUTO?IO_SENSORES
            CODE    B3AFH     0056H     UNIT         ?PR?_WR_EEPROM?EEPROM
            CODE    B405H     0054H     UNIT         ?PR?_PREGUNTA_LPR?VERIFICADOR
            CODE    B459H     004DH     UNIT         ?PR?L_D_M?EEPROM
            CODE    B4A6H     004CH     UNIT         ?PR?LEE_NO_TICKET?EEPROM
            CODE    B4F2H     004CH     UNIT         ?PR?LOAD_AND_SEND_INFO_RELOJ?PTO_PARALELO
            CODE    B53EH     004BH     UNIT         ?PR?_TX_AUX?TIBBO
            CODE    B589H     0049H     UNIT         ?PR?_DEBUG_TXT_TIBBO?TIBBO
            CODE    B5D2H     0048H     UNIT         ?PR?FIRST_CLAVE?PROG
            CODE    B61AH     0047H     UNIT         ?PR?_DEBUG_CHR_TIBBO?TIBBO
            CODE    B661H     0047H     UNIT         ?PR?_RESPONDE_WRITE_TARJETA_SECTOR2_BLOQUE0?VERIFICADOR
            CODE    B6A8H     0046H     UNIT         ?PR?_ESCRIBIRCADENASOFT_BUFFER?MAIN
            CODE    B6EEH     0046H     UNIT         ?PR?_LCD_TXT_NUM_CHAR?PANTALLAS
            CODE    B734H     0046H     UNIT         ?PR?_DEBUG_HEXDEC?TIBBO
            CODE    B77AH     0045H     UNIT         ?PR?VARIABLE_INICIO?MAIN
            CODE    B7BFH     0044H     UNIT         ?PR?_LCD_TXT?PANTALLAS
            CODE    B803H     0043H     UNIT         ?PR?DIR_BOARD?IO_SENSORES
            CODE    B846H     0042H     UNIT         ?PR?_VALIDARCLAVE?PROG
            CODE    B888H     0041H     UNIT         ?PR?_MONITOR_CHR?ACCESCAN
            CODE    B8C9H     0041H     UNIT         ?PR?_TWO_ONE?CLOCK
            CODE    B90AH     0040H     UNIT         ?PR?_GETCMD?PROG
            CODE    B94AH     0040H     UNIT         ?PR?_DEBUG_PTO_PARALELO?TIBBO
            CODE    B98AH     003FH     UNIT         ?PR?_EB_CLK?CLOCK
            CODE    B9C9H     003EH     UNIT         ?PR?_PUTCHAR?MAIN
            CODE    BA07H     003EH     UNIT         ?PR?TRAMA_VALIDACION_P_N?VERIFICADOR
            CODE    BA45H     003DH     UNIT         ?PR?_HEX_BCD?CLOCK
            CODE    BA82H     003DH     UNIT         ?PR?_RD_EEPROM?EEPROM
            CODE    BABFH     003DH     UNIT         ?PR?_DEBUG_MONITOR?TIBBO
            CODE    BAFCH     003DH     UNIT         ?PR?_LOAD_SECUENCIA_EXPEDIDOR?VERIFICADOR
            CODE    BB39H     003BH     UNIT         ?CO?ACCESCAN
            CODE    BB74H     003BH     UNIT         ?CO?EEPROM
            CODE    BBAFH     003BH     UNIT         ?PR?_COM_PUTCHAR?UART
            CODE    BBEAH     003AH     UNIT         ?PR?_DELAY_10MS?DELAY
            CODE    BC24H     003AH     UNIT         ?PR?ANALIZA_CARD_MOUNT_RF?VERIFICADOR
            CODE    BC5EH     0038H     UNIT         ?PR?VALIDASENSORESPASO?IO_SENSORES
            CODE    BC96H     0036H     UNIT         ?PR?FORMATO_EEPROM?EEPROM
            CODE    BCCCH     0036H     UNIT         ?PR?_RESPONDE_WRITE_TARJETA_SECTOR1_BLOQUE1?VERIFICADOR
            CODE    BD02H     0036H     UNIT         ?PR?_RESPONDE_WRITE_TARJETA_SECTOR1_BLOQUE0?VERIFICADOR
            CODE    BD38H     0034H     UNIT         ?PR?_CALCULO_BCC?ACCESCAN
            CODE    BD6CH     0034H     UNIT         ?PR?INCREMENTE_TICKET?EEPROM
            CODE    BDA0H     0034H     UNIT         ?PR?ADDR_HORARIOS?PROG
            CODE    BDD4H     0031H     UNIT         ?PR?_TARJETA_ROTACION?VERIFICADOR
BL51 BANKED LINKER/LOCATER V6.22.2.0                                                  06/09/2021  12:25:34  PAGE 6


            CODE    BE05H     0030H     UNIT         ?PR?PREGUNTA_PLACA?VERIFICADOR
            CODE    BE35H     002EH     UNIT         ?PR?TIMER0_INT?MAIN
            CODE    BE63H     002AH     UNIT         ?PR?COM_INITIALIZE?UART
            CODE    BE8DH     0028H     UNIT         ?PR?_WR_CLK?CLOCK
            CODE    BEB5H     0028H     UNIT         ?PR?COM_BAUDRATE?UART
            CODE    BEDDH     0028H     UNIT         ?PR?_ARMAR_TRAMA_TARJETA_SECTOR1_BLOQUE0?VERIFICADOR
            CODE    BF05H     0027H     UNIT         ?PR?_TX_CHRLCD?PANTALLAS
            CODE    BF2CH     0026H     UNIT         ?PR?COM_GETCHAR?UART
            CODE    BF52H     0026H     UNIT         ?PR?ANALIZA_PRESENCIA_MENSUAL?VERIFICADOR
            CODE    BF78H     0026H     UNIT         ?PR?RX_MONITOR?MONITOR
            CODE    BF9EH     0023H     UNIT         ?PR?ANALIZA_PRESENCIA_ROTACION?VERIFICADOR
            CODE    BFC1H     0022H     UNIT         ?PR?_E_D_M?EEPROM
            CODE    BFE3H     0022H     UNIT         ?PR?VALIDASENSOR_CERO?IO_SENSORES
            CODE    C005H     0021H     UNIT         ?CO?PTO_PARALELO
            CODE    C026H     0020H     UNIT         ?PR?ACKD?EEPROM
            CODE    C046H     0020H     UNIT         ?PR?ACK_LECT?EEPROM
            CODE    C066H     001FH     UNIT         ?PR?VALIDASENSOR?IO_SENSORES
            CODE    C085H     001FH     UNIT         ?PR?TIME_BIT?TIBBO
            CODE    C0A4H     001EH     UNIT         ?PR?_BCD_HEX?CLOCK
            CODE    C0C2H     001BH     UNIT         ?PR?_DELAY_1MS?DELAY
            CODE    C0DDH     0018H     UNIT         ?PR?CLEAR_PLACA?MONITOR
            CODE    C0F5H     0017H     UNIT         ?PR?DISPLAYCURSOR?PROG
            CODE    C10CH     0017H     UNIT         ?PR?TIME_MBIT?TIBBO
            CODE    C123H     0016H     UNIT         ?PR?DIR_BOARD_MONITOR?IO_SENSORES
            CODE    C139H     0014H     UNIT         ?CO?CLOCK
            CODE    C14DH     0014H     UNIT         ?PR?_ISSPACE?ISSPACE
            CODE    C161H     0012H     UNIT         ?PR?_DELAY_20US?DELAY
            CODE    C173H     0012H     UNIT         ?PR?START?EEPROM
            CODE    C185H     0012H     UNIT         ?PR?BOTTON?IO_SENSORES
            CODE    C197H     0012H     UNIT         ?PR?PULSO_BUS?PTO_PARALELO
            CODE    C1A9H     0012H     UNIT         ?PR?COM_RBUFLEN?UART
            CODE    C1BBH     0012H     UNIT         ?PR?COM_TBUFLEN?UART
            CODE    C1CDH     0010H     UNIT         ?PR?INI_TIMER?MAIN
            CODE    C1DDH     0010H     UNIT         ?PR?INICIA_BOARD?MAIN
            CODE    C1EDH     000FH     UNIT         ?PR?_ISDIGIT?ISDIGIT
            CODE    C1FCH     000CH     UNIT         ?PR?_GETKEY?MAIN
            CODE    C208H     000AH     UNIT         ?PR?STOP?EEPROM
            CODE    C212H     000AH     UNIT         ?PR?COND_INI_PTO?PTO_PARALELO
            CODE    C21CH     0009H     UNIT         ?PR?DEBUG_DIVIDIR_TEXTO?TIBBO
            CODE    C225H     0009H     UNIT         ?PR?CAPTURA_EXPULSA?VERIFICADOR
            CODE    C22EH     0007H     UNIT         ?PR?COND_INI_CLOCK?CLOCK
            CODE    C235H     0007H     UNIT         ?PR?SEL_FUNCION?IO_SENSORES
            CODE    C23CH     0007H     UNIT         ?PR?SEL_AUTO?IO_SENSORES
            CODE    C243H     0007H     UNIT         ?PR?SEL_PULSA?IO_SENSORES
            CODE    C24AH     0007H     UNIT         ?PR?SEL_SENSOR2?IO_SENSORES
            CODE    C251H     0007H     UNIT         ?PR?SEL_SENSOR1?IO_SENSORES
            CODE    C258H     0007H     UNIT         ?PR?SEL_DIR1?IO_SENSORES
            CODE    C25FH     0007H     UNIT         ?PR?SEL_DIR2?IO_SENSORES
            CODE    C266H     0006H     UNIT         ?PR?P_ME?EEPROM
            CODE    C26CH     0005H     UNIT         ?PR?ON_TIMER0_INTERRUP?MAIN
            CODE    C271H     0005H     UNIT         ?PR?COND_INI_TIBBO?TIBBO
            CODE    C276H     0003H     UNIT         ?PR?OFF_TIMER0_INTERRUP?MAIN
            CODE    C279H     0001H     UNIT         ?PR?DELAY?DELAY



OVERLAY MAP OF MODULE:   .\Objects\expedidor_v_01_raspberry (MAIN)
BL51 BANKED LINKER/LOCATER V6.22.2.0                                                  06/09/2021  12:25:34  PAGE 7




SEGMENT                                             BIT_GROUP          DATA_GROUP          XDATA_GROUP
  +--> CALLED SEGMENT                            START    LENGTH     START    LENGTH     START    LENGTH
--------------------------------------------------------------------------------------------------------
?C_C51STARTUP                                    -----    -----      -----    -----      -----    -----
  +--> ?PR?MAIN?MAIN
  +--> ?C_INITSEG

?PR?MAIN?MAIN                                    -----    -----      -----    -----      0000H    0001H
  +--> ?PR?INI_TIMER?MAIN
  +--> ?PR?ON_TIMER0_INTERRUP?MAIN
  +--> ?PR?COM_INITIALIZE?UART
  +--> ?PR?COM_BAUDRATE?UART
  +--> ?PR?INICIA_BOARD?MAIN
  +--> ?PR?TIME_BIT?TIBBO
  +--> ?PR?_DELAY_20US?DELAY
  +--> ?PR?TIME_MBIT?TIBBO
  +--> ?PR?_TX_AUX?TIBBO
  +--> ?PR?SEL_FUNCION?IO_SENSORES
  +--> ?PR?MENU?PROG
  +--> ?PR?VARIABLE_INICIO?MAIN
  +--> ?PR?SECUENCIA_INICIO_EXPEDIDOR?VERIFI...
  +--> ?PR?RX_MONITOR?MONITOR
  +--> ?PR?_SECUENCIAEXPEDIDORMF?VERIFICADOR
  +--> ?PR?_RECIBE_PORT?PTO_PARALELO
  +--> ?PR?_DEBUG_PTO_PARALELO?TIBBO
  +--> ?PR?_VALIDA_TRAMA_PTO?ACCESCAN
  +--> ?PR?MSJ_LCD_INFORMATIVO?IO_SENSORES

?PR?COM_INITIALIZE?UART                          -----    -----      -----    -----      -----    -----
  +--> ?PR?COM_BAUDRATE?UART

?PR?INICIA_BOARD?MAIN                            -----    -----      -----    -----      -----    -----
  +--> ?PR?COND_INI_TIBBO?TIBBO
  +--> ?PR?COND_INI_CLOCK?CLOCK
  +--> ?PR?COND_INI_PTO?PTO_PARALELO

?PR?_TX_AUX?TIBBO                                -----    -----      -----    -----      -----    -----
  +--> ?PR?TIME_BIT?TIBBO

?PR?MENU?PROG                                    -----    -----      -----    -----      0001H    0045H
  +--> ?CO?PROG
  +--> ?PR?PRINTF?PRINTF
  +--> ?PR?_RD_EEPROM?EEPROM
  +--> ?PR?FIRST_CLAVE?PROG
  +--> ?PR?_WR_EEPROM?EEPROM
  +--> ?PR?_LEERMEMORIA?EEPROM
  +--> ?PR?_HASH_ID?PROG
  +--> ?PR?_INGRESADATO?PROG
  +--> ?PR?_GETCMD?PROG
  +--> ?PR?_ESCRIBIRMEMORIA?EEPROM
  +--> ?PR?_VALIDARCLAVE?PROG
  +--> ?PR?DISPLAYCURSOR?PROG
  +--> ?PR?_STRLEN?STRLEN
  +--> ?PR?_GETOPTION?PROG
  +--> ?PR?_STRCAT?STRCAT
BL51 BANKED LINKER/LOCATER V6.22.2.0                                                  06/09/2021  12:25:34  PAGE 8


  +--> ?PR?_LISTACOMANDOS?PROG
  +--> ?PR?PROG_ID_CLIENTE?PROG
  +--> ?PR?PROG_COD_PARK?PROG
  +--> ?PR?PROG_TIEMPO_GRACIA?PROG
  +--> ?PR?PROG_SIN_COBRO?PROG
  +--> ?PR?PROG_DEBUG?PROG
  +--> ?PR?PROG_USE_LPR?PROG
  +--> ?PR?TIPO_PANTALLA?PROG
  +--> ?PR?PROG_TARJETA_AUTOMATICA_O_BOTON?PROG
  +--> ?PR?PROG_ANTIPASSBACK?PROG
  +--> ?PR?PROG_PLACA?PROG
  +--> ?PR?PROG_ADDRESS_HIGH_BOARD?PROG
  +--> ?PR?PROG_HORARIOS?PROG
  +--> ?PR?PROG_VALIDAR_TIPO_VEHICULO_MENSUA...
  +--> ?PR?PROG_APB_MENSUAL?PROG
  +--> ?PR?VER_PROG?PROG
  +--> ?PR?SHOW?PROG
  +--> ?PR?PROG_FECHA_VENCIMIENTO?PROG

?PR?PRINTF?PRINTF                                0020H.0  0001H.1    0008H    0005H      0077H    0030H
  +--> ?PR?_PUTCHAR?MAIN

?PR?_PUTCHAR?MAIN                                -----    -----      -----    -----      00A7H    0003H
  +--> ?PR?_COM_PUTCHAR?UART

?PR?_COM_PUTCHAR?UART                            -----    -----      -----    -----      00AAH    0001H
  +--> ?PR?COM_TBUFLEN?UART

?PR?_RD_EEPROM?EEPROM                            -----    -----      -----    -----      -----    -----
  +--> ?PR?START?EEPROM
  +--> ?PR?ACK_LECT?EEPROM
  +--> ?PR?_E_D_M?EEPROM
  +--> ?PR?ACKD?EEPROM
  +--> ?PR?L_D_M?EEPROM
  +--> ?PR?STOP?EEPROM

?PR?ACK_LECT?EEPROM                              -----    -----      -----    -----      -----    -----
  +--> ?PR?_E_D_M?EEPROM

?PR?_E_D_M?EEPROM                                -----    -----      -----    -----      -----    -----
  +--> ?PR?P_ME?EEPROM

?PR?ACKD?EEPROM                                  -----    -----      -----    -----      -----    -----
  +--> ?PR?_E_D_M?EEPROM

?PR?FIRST_CLAVE?PROG                             -----    -----      -----    -----      0046H    000BH
  +--> ?PR?_BLOCK_READ_CLOCK_ASCII?CLOCK
  +--> ?PR?_HASH_ID?PROG
  +--> ?PR?_ESCRIBIRMEMORIA?EEPROM

?PR?_BLOCK_READ_CLOCK_ASCII?CLOCK                -----    -----      -----    -----      0051H    0003H
  +--> ?PR?_LEE_CLK?CLOCK

?PR?_LEE_CLK?CLOCK                               -----    -----      -----    -----      00B1H    0003H
  +--> ?PR?_DELAY_20US?DELAY
  +--> ?PR?_EB_CLK?CLOCK
  +--> ?PR?P_CK?CLOCK
BL51 BANKED LINKER/LOCATER V6.22.2.0                                                  06/09/2021  12:25:34  PAGE 9



?PR?_EB_CLK?CLOCK                                -----    -----      -----    -----      00B4H    0003H
  +--> ?PR?P_CK?CLOCK

?PR?P_CK?CLOCK                                   -----    -----      -----    -----      -----    -----
  +--> ?PR?DELAY?DELAY

?PR?_HASH_ID?PROG                                -----    -----      -----    -----      005DH    003FH
  +--> ?CO?PROG
  +--> ?PR?_LEERMEMORIA?EEPROM
  +--> ?PR?_CHECK_FECHAOUT?CLOCK
  +--> ?PR?_STRLEN?STRLEN

?PR?_LEERMEMORIA?EEPROM                          -----    -----      -----    -----      009CH    0005H
  +--> ?PR?_RD_EEPROM?EEPROM

?PR?_CHECK_FECHAOUT?CLOCK                        -----    -----      -----    -----      009CH    0012H
  +--> ?PR?_BLOCK_READ_CLOCK_HEX?CLOCK

?PR?_BLOCK_READ_CLOCK_HEX?CLOCK                  -----    -----      -----    -----      00AEH    0003H
  +--> ?PR?_LEE_CLK?CLOCK
  +--> ?PR?_BCD_HEX?CLOCK

?PR?_ESCRIBIRMEMORIA?EEPROM                      -----    -----      -----    -----      005DH    0005H
  +--> ?PR?_WR_EEPROM?EEPROM

?PR?_WR_EEPROM?EEPROM                            -----    -----      -----    -----      -----    -----
  +--> ?PR?START?EEPROM
  +--> ?PR?ACKD?EEPROM
  +--> ?PR?_E_D_M?EEPROM
  +--> ?PR?STOP?EEPROM
  +--> ?PR?_DELAY_1MS?DELAY
  +--> ?PR?_DELAY_20US?DELAY

?PR?_DELAY_1MS?DELAY                             -----    -----      -----    -----      -----    -----
  +--> ?PR?_DELAY_20US?DELAY

?PR?_INGRESADATO?PROG                            -----    -----      -----    -----      0071H    0004H
  +--> ?PR?_GETKEY?MAIN
  +--> ?CO?PROG
  +--> ?PR?PRINTF?PRINTF
  +--> ?PR?_PUTCHAR?MAIN

?PR?_GETKEY?MAIN                                 -----    -----      -----    -----      -----    -----
  +--> ?PR?COM_GETCHAR?UART

?PR?COM_GETCHAR?UART                             -----    -----      -----    -----      -----    -----
  +--> ?PR?COM_RBUFLEN?UART

?PR?_GETCMD?PROG                                 -----    -----      -----    -----      005DH    0007H
  +--> ?CO?PROG
  +--> ?PR?_STRTOK?STRTOK

?PR?_STRTOK?STRTOK                               -----    -----      -----    -----      0064H    0006H
  +--> ?PR?_STRSPN?STRSPN
  +--> ?PR?_STRPBRK?STRPBRK

BL51 BANKED LINKER/LOCATER V6.22.2.0                                                  06/09/2021  12:25:34  PAGE 10


?PR?_STRSPN?STRSPN                               -----    -----      -----    -----      006AH    0008H

?PR?_STRPBRK?STRPBRK                             -----    -----      -----    -----      006AH    0009H

?PR?_VALIDARCLAVE?PROG                           -----    -----      -----    -----      005DH    000EH

?PR?DISPLAYCURSOR?PROG                           -----    -----      -----    -----      -----    -----
  +--> ?CO?PROG
  +--> ?PR?PRINTF?PRINTF

?PR?_GETOPTION?PROG                              -----    -----      -----    -----      0046H    000BH
  +--> ?CO?PROG
  +--> ?PR?_STRTOK?STRTOK

?PR?_STRCAT?STRCAT                               -----    -----      -----    -----      0048H    0009H

?PR?_LISTACOMANDOS?PROG                          -----    -----      -----    -----      0046H    0007H

?PR?PROG_ID_CLIENTE?PROG                         -----    -----      -----    -----      0046H    000CH
  +--> ?PR?_RD_EEPROM?EEPROM
  +--> ?CO?PROG
  +--> ?PR?PRINTF?PRINTF
  +--> ?PR?_INGRESADATO?PROG
  +--> ?PR?_ATOI?ATOI
  +--> ?PR?_WR_EEPROM?EEPROM

?PR?_ATOI?ATOI                                   0020H.0  0000H.1    -----    -----      0071H    0005H
  +--> ?PR?_ISSPACE?ISSPACE
  +--> ?PR?_ISDIGIT?ISDIGIT

?PR?PROG_COD_PARK?PROG                           -----    -----      -----    -----      0046H    000CH
  +--> ?PR?_RD_EEPROM?EEPROM
  +--> ?CO?PROG
  +--> ?PR?PRINTF?PRINTF
  +--> ?PR?_INGRESADATO?PROG
  +--> ?PR?_ATOI?ATOI
  +--> ?PR?_WR_EEPROM?EEPROM

?PR?PROG_TIEMPO_GRACIA?PROG                      -----    -----      -----    -----      0046H    000CH
  +--> ?PR?_RD_EEPROM?EEPROM
  +--> ?CO?PROG
  +--> ?PR?PRINTF?PRINTF
  +--> ?PR?_INGRESADATO?PROG
  +--> ?PR?_ATOI?ATOI
  +--> ?PR?_WR_EEPROM?EEPROM

?PR?PROG_SIN_COBRO?PROG                          -----    -----      -----    -----      0046H    000CH
  +--> ?PR?_RD_EEPROM?EEPROM
  +--> ?CO?PROG
  +--> ?PR?PRINTF?PRINTF
  +--> ?PR?_INGRESADATO?PROG
  +--> ?PR?_ATOI?ATOI
  +--> ?PR?_WR_EEPROM?EEPROM

?PR?PROG_DEBUG?PROG                              -----    -----      -----    -----      0046H    000CH
  +--> ?PR?_RD_EEPROM?EEPROM
  +--> ?CO?PROG
BL51 BANKED LINKER/LOCATER V6.22.2.0                                                  06/09/2021  12:25:34  PAGE 11


  +--> ?PR?PRINTF?PRINTF
  +--> ?PR?_INGRESADATO?PROG
  +--> ?PR?_ATOI?ATOI
  +--> ?PR?_WR_EEPROM?EEPROM

?PR?PROG_USE_LPR?PROG                            -----    -----      -----    -----      0046H    000CH
  +--> ?PR?_RD_EEPROM?EEPROM
  +--> ?CO?PROG
  +--> ?PR?PRINTF?PRINTF
  +--> ?PR?_INGRESADATO?PROG
  +--> ?PR?_ATOI?ATOI
  +--> ?PR?_WR_EEPROM?EEPROM

?PR?TIPO_PANTALLA?PROG                           -----    -----      -----    -----      0046H    000CH
  +--> ?PR?_RD_EEPROM?EEPROM
  +--> ?CO?PROG
  +--> ?PR?PRINTF?PRINTF
  +--> ?PR?_INGRESADATO?PROG
  +--> ?PR?_ATOI?ATOI
  +--> ?PR?_WR_EEPROM?EEPROM

?PR?PROG_TARJETA_AUTOMATICA_O_BOTON?PROG         -----    -----      -----    -----      0046H    000CH
  +--> ?PR?_RD_EEPROM?EEPROM
  +--> ?CO?PROG
  +--> ?PR?PRINTF?PRINTF
  +--> ?PR?_INGRESADATO?PROG
  +--> ?PR?_ATOI?ATOI
  +--> ?PR?_WR_EEPROM?EEPROM

?PR?PROG_ANTIPASSBACK?PROG                       -----    -----      -----    -----      0046H    000CH
  +--> ?PR?_RD_EEPROM?EEPROM
  +--> ?CO?PROG
  +--> ?PR?PRINTF?PRINTF
  +--> ?PR?_INGRESADATO?PROG
  +--> ?PR?_ATOI?ATOI
  +--> ?PR?_WR_EEPROM?EEPROM

?PR?PROG_PLACA?PROG                              -----    -----      -----    -----      0046H    000CH
  +--> ?PR?_RD_EEPROM?EEPROM
  +--> ?CO?PROG
  +--> ?PR?PRINTF?PRINTF
  +--> ?PR?_INGRESADATO?PROG
  +--> ?PR?_ATOI?ATOI
  +--> ?PR?_WR_EEPROM?EEPROM

?PR?PROG_ADDRESS_HIGH_BOARD?PROG                 -----    -----      -----    -----      0046H    000CH
  +--> ?PR?_RD_EEPROM?EEPROM
  +--> ?CO?PROG
  +--> ?PR?PRINTF?PRINTF
  +--> ?PR?_INGRESADATO?PROG
  +--> ?PR?_ATOI?ATOI
  +--> ?PR?_WR_EEPROM?EEPROM

?PR?PROG_HORARIOS?PROG                           -----    -----      -----    -----      0046H    001BH
  +--> ?PR?ADDR_HORARIOS?PROG
  +--> ?CO?PROG
  +--> ?PR?PRINTF?PRINTF
BL51 BANKED LINKER/LOCATER V6.22.2.0                                                  06/09/2021  12:25:34  PAGE 12


  +--> ?PR?_INGRESADATO?PROG
  +--> ?PR?_ATOI?ATOI
  +--> ?PR?_PROG_HORARIOS_ON_OFF?PROG
  +--> ?PR?_WR_EEPROM?EEPROM
  +--> ?PR?_PROG_HORARIO_DIAS?PROG
  +--> ?PR?_PROG_HORARIO_DESDE_HASTA?PROG
  +--> ?PR?_RD_EEPROM?EEPROM

?PR?ADDR_HORARIOS?PROG                           -----    -----      -----    -----      0074H    000BH

?PR?_PROG_HORARIOS_ON_OFF?PROG                   -----    -----      -----    -----      0061H    0010H
  +--> ?PR?_RD_EEPROM?EEPROM
  +--> ?CO?PROG
  +--> ?PR?PRINTF?PRINTF
  +--> ?PR?_INGRESADATO?PROG
  +--> ?PR?_ATOI?ATOI
  +--> ?PR?_WR_EEPROM?EEPROM

?PR?_PROG_HORARIO_DIAS?PROG                      -----    -----      -----    -----      0061H    000FH
  +--> ?CO?PROG
  +--> ?PR?PRINTF?PRINTF
  +--> ?PR?_INGRESADATO?PROG
  +--> ?PR?_WR_EEPROM?EEPROM
  +--> ?PR?_RD_EEPROM?EEPROM

?PR?_PROG_HORARIO_DESDE_HASTA?PROG               -----    -----      -----    -----      0061H    000CH
  +--> ?CO?PROG
  +--> ?PR?PRINTF?PRINTF
  +--> ?PR?_INGRESADATO?PROG
  +--> ?PR?_WR_EEPROM?EEPROM
  +--> ?PR?_RD_EEPROM?EEPROM

?PR?PROG_VALIDAR_TIPO_VEHICULO_MENSUA...         -----    -----      -----    -----      0046H    000CH
  +--> ?PR?_RD_EEPROM?EEPROM
  +--> ?CO?PROG
  +--> ?PR?PRINTF?PRINTF
  +--> ?PR?_INGRESADATO?PROG
  +--> ?PR?_ATOI?ATOI
  +--> ?PR?_WR_EEPROM?EEPROM

?PR?PROG_APB_MENSUAL?PROG                        -----    -----      -----    -----      0046H    000CH
  +--> ?PR?_RD_EEPROM?EEPROM
  +--> ?CO?PROG
  +--> ?PR?PRINTF?PRINTF
  +--> ?PR?_INGRESADATO?PROG
  +--> ?PR?_ATOI?ATOI
  +--> ?PR?_WR_EEPROM?EEPROM

?PR?VER_PROG?PROG                                -----    -----      -----    -----      0046H    0013H
  +--> ?PR?_RD_EEPROM?EEPROM
  +--> ?CO?PROG
  +--> ?PR?PRINTF?PRINTF
  +--> ?PR?VER_HORARIO?PROG
  +--> ?PR?_LEERMEMORIA?EEPROM
  +--> ?PR?_HEX_ASCII?CLOCK

?PR?VER_HORARIO?PROG                             -----    -----      -----    -----      0059H    001BH
BL51 BANKED LINKER/LOCATER V6.22.2.0                                                  06/09/2021  12:25:34  PAGE 13


  +--> ?PR?ADDR_HORARIOS?PROG
  +--> ?CO?PROG
  +--> ?PR?PRINTF?PRINTF
  +--> ?PR?_RD_EEPROM?EEPROM
  +--> ?PR?_VER_HORARIO_DIAS?PROG
  +--> ?PR?_VER_HORARIO_DESDE_HASTA?PROG

?PR?_VER_HORARIO_DIAS?PROG                       -----    -----      -----    -----      0074H    0003H
  +--> ?PR?_RD_EEPROM?EEPROM
  +--> ?CO?PROG
  +--> ?PR?PRINTF?PRINTF

?PR?_VER_HORARIO_DESDE_HASTA?PROG                -----    -----      -----    -----      0074H    0002H
  +--> ?CO?PROG
  +--> ?PR?PRINTF?PRINTF
  +--> ?PR?_RD_EEPROM?EEPROM

?PR?_HEX_ASCII?CLOCK                             -----    -----      -----    -----      005DH    0006H
  +--> ?PR?_HEX_BCD?CLOCK

?PR?SHOW?PROG                                    -----    -----      -----    -----      -----    -----
  +--> ?CO?PROG
  +--> ?PR?PRINTF?PRINTF

?PR?PROG_FECHA_VENCIMIENTO?PROG                  -----    -----      -----    -----      0046H    0017H
  +--> ?PR?_LEERMEMORIA?EEPROM
  +--> ?PR?_HEX_ASCII?CLOCK
  +--> ?CO?PROG
  +--> ?PR?PRINTF?PRINTF
  +--> ?PR?_HASH_ID?PROG
  +--> ?PR?_INGRESADATO?PROG
  +--> ?PR?_GETCMD?PROG
  +--> ?PR?_ESCRIBIRMEMORIA?EEPROM
  +--> ?PR?_VALIDARCLAVE?PROG
  +--> ?PR?_ATOI?ATOI
  +--> ?PR?_WR_EEPROM?EEPROM

?PR?VARIABLE_INICIO?MAIN                         -----    -----      -----    -----      -----    -----
  +--> ?PR?_RD_EEPROM?EEPROM

?PR?SECUENCIA_INICIO_EXPEDIDOR?VERIFI...         -----    -----      -----    -----      0001H    0001H
  +--> ?PR?_INICIALIZA?LINTECH
  +--> ?PR?TRAMA_VALIDACION_P_N?VERIFICADOR
  +--> ?CO?VERIFICADOR
  +--> ?PR?_DEBUG_TXT_TIBBO?TIBBO
  +--> ?PR?_DEBUGBUFFERMF?TIBBO
  +--> ?PR?DWLOAD_EEPROM?LINTECH

?PR?_INICIALIZA?LINTECH                          -----    -----      -----    -----      0002H    000CH
  +--> ?CO?LINTECH
  +--> ?PR?_DEBUG_TXT_TIBBO?TIBBO
  +--> ?PR?_DEBUGBUFFERMF?TIBBO
  +--> ?PR?_ESCRIBIRCADENASOFT_BUFFER?MAIN

?PR?_DEBUG_TXT_TIBBO?TIBBO                       -----    -----      -----    -----      0053H    0004H
  +--> ?PR?_DEBUG_CHR_TIBBO?TIBBO
  +--> ?CO?TIBBO
BL51 BANKED LINKER/LOCATER V6.22.2.0                                                  06/09/2021  12:25:34  PAGE 14


  +--> ?PR?_TX_AUX?TIBBO

?PR?_DEBUG_CHR_TIBBO?TIBBO                       -----    -----      -----    -----      -----    -----
  +--> ?PR?_TX_AUX?TIBBO

?PR?_DEBUGBUFFERMF?TIBBO                         -----    -----      -----    -----      0027H    0006H
  +--> ?CO?TIBBO
  +--> ?PR?_DEBUG_TXT_TIBBO?TIBBO
  +--> ?PR?_DEBUG_CHR_TIBBO?TIBBO
  +--> ?PR?_TX_AUX?TIBBO

?PR?_ESCRIBIRCADENASOFT_BUFFER?MAIN              -----    -----      -----    -----      0027H    0006H
  +--> ?PR?_PUTCHAR?MAIN

?PR?TRAMA_VALIDACION_P_N?VERIFICADOR             -----    -----      -----    -----      -----    -----
  +--> ?CO?VERIFICADOR
  +--> ?PR?_DEBUG_TXT_TIBBO?TIBBO

?PR?DWLOAD_EEPROM?LINTECH                        -----    -----      -----    -----      0002H    0016H
  +--> ?CO?LINTECH
  +--> ?PR?_DEBUG_TXT_TIBBO?TIBBO
  +--> ?PR?_DEBUGBUFFERMF?TIBBO
  +--> ?PR?_ESCRIBIRCADENASOFT_BUFFER?MAIN

?PR?RX_MONITOR?MONITOR                           -----    -----      -----    -----      0009H    000DH
  +--> ?PR?_RECIBE_CMD_MONITOR?MONITOR
  +--> ?PR?_DEBUG_MONITOR?TIBBO
  +--> ?PR?_VALIDA_TRAMA_MONITOR?MONITOR

?PR?_RECIBE_CMD_MONITOR?MONITOR                  -----    -----      -----    -----      0016H    0009H
  +--> ?PR?RX_DATA?TIBBO

?PR?RX_DATA?TIBBO                                -----    -----      -----    -----      -----    -----
  +--> ?PR?TIME_MBIT?TIBBO
  +--> ?PR?TIME_BIT?TIBBO

?PR?_DEBUG_MONITOR?TIBBO                         -----    -----      -----    -----      0016H    0004H
  +--> ?PR?DEBUG_DIVIDIR_TEXTO?TIBBO
  +--> ?CO?TIBBO
  +--> ?PR?_DEBUG_TXT_TIBBO?TIBBO

?PR?DEBUG_DIVIDIR_TEXTO?TIBBO                    -----    -----      -----    -----      -----    -----
  +--> ?CO?TIBBO
  +--> ?PR?_DEBUG_TXT_TIBBO?TIBBO

?PR?_VALIDA_TRAMA_MONITOR?MONITOR                -----    -----      -----    -----      0016H    0006H
  +--> ?PR?_DELAY_10MS?DELAY
  +--> ?PR?_TX_AUX?TIBBO

?PR?_DELAY_10MS?DELAY                            -----    -----      -----    -----      001CH    0004H
  +--> ?PR?_DELAY_1MS?DELAY

?PR?_SECUENCIAEXPEDIDORMF?VERIFICADOR            -----    -----      -----    -----      0001H    0001H
  +--> ?PR?_CHECK_STATUS?LINTECH
  +--> ?PR?_LOAD_SECUENCIA_EXPEDIDOR?VERIFIC...
  +--> ?PR?RX_MONITOR?MONITOR
  +--> ?PR?_RTA_CMD_TRANSPORTE?VERIFICADOR
BL51 BANKED LINKER/LOCATER V6.22.2.0                                                  06/09/2021  12:25:34  PAGE 15


  +--> ?PR?_MOV_CARD?LINTECH
  +--> ?PR?_CARD_INSERCION?LINTECH
  +--> ?PR?AUT_CARD_CHECK_STATUS?LINTECH
  +--> ?PR?LOADVERIFY_EEPROM?LINTECH
  +--> ?PR?_RD_MF?LINTECH
  +--> ?PR?_WR_MF?LINTECH
  +--> ?PR?ANALIZA_CARD_MOUNT_RF?VERIFICADOR
  +--> ?PR?DWLOAD_EEPROM?LINTECH
  +--> ?PR?ENTREGA_CARD_CAPTURA?VERIFICADOR
  +--> ?PR?_SEND_PTO_PARALELO?VERIFICADOR
  +--> ?PR?_WAIT_PLACA?VERIFICADOR
  +--> ?PR?UNIQUE_IDENTIFIER_UID?LINTECH
  +--> ?PR?_PREGUNTA_LPR?VERIFICADOR
  +--> ?PR?PREGUNTA_PLACA?VERIFICADOR
  +--> ?PR?_VALIDA_TIPO_TARJETA?VERIFICADOR
  +--> ?PR?POWER_OFF?LINTECH
  +--> ?PR?CLAVE_SEGURIDAD_S2?LINTECH
  +--> ?PR?_RESPONDE_REELECTURA_TARJETA_SECT...
  +--> ?PR?RESPONDE_ESTADO_SENSORES_TRANSPOR...
  +--> ?PR?RESPONDE_TIPO_TARJETA?VERIFICADOR
  +--> ?PR?_RESPONDE_LECTURA_TARJETA_SECTOR1...
  +--> ?PR?_RESPONDE_LECTURA_TARJETA_SECTOR1...
  +--> ?PR?_RESPONDE_LECTURA_TARJETA_SECTOR1...
  +--> ?PR?_RESPONDE_WRITE_TARJETA_SECTOR1_B...
  +--> ?PR?_RESPONDE_WRITE_TARJETA_SECTOR2_B...
  +--> ?PR?_RESPONDE_WRITE_TARJETA_SECTOR1_B...
  +--> ?PR?_RESPONDE_WRITE_TARJETA_SECTOR1_B...
  +--> ?PR?_DISPARO_LOCK_ENTRADA_VEHICULO?VE...
  +--> ?PR?_RESPUESTA_SEGUNDA_CLAVE?VERIFICADOR
  +--> ?PR?ANALIZA_PRESENCIA_MENSUAL?VERIFIC...
  +--> ?PR?_ANALIZA_UID_CARD?VERIFICADOR
  +--> ?PR?ANALIZA_PRESENCIA_ROTACION?VERIFI...
  +--> ?CO?VERIFICADOR
  +--> ?PR?_DEBUG_TXT_TIBBO?TIBBO

?PR?_CHECK_STATUS?LINTECH                        -----    -----      -----    -----      0002H    000BH
  +--> ?CO?LINTECH
  +--> ?PR?_DEBUG_TXT_TIBBO?TIBBO
  +--> ?PR?_DEBUGBUFFERMF?TIBBO
  +--> ?PR?_ESCRIBIRCADENASOFT_BUFFER?MAIN

?PR?_LOAD_SECUENCIA_EXPEDIDOR?VERIFIC...         -----    -----      -----    -----      0002H    0009H

?PR?_RTA_CMD_TRANSPORTE?VERIFICADOR              -----    -----      -----    -----      0002H    0005H
  +--> ?PR?TRAMA_VALIDACION_P_N?VERIFICADOR
  +--> ?CO?VERIFICADOR
  +--> ?PR?_DEBUG_TXT_TIBBO?TIBBO
  +--> ?PR?_DEBUGBUFFERMF?TIBBO
  +--> ?PR?ERROR_RX_PTO?VERIFICADOR

?PR?ERROR_RX_PTO?VERIFICADOR                     -----    -----      -----    -----      0007H    0001H
  +--> ?CO?VERIFICADOR
  +--> ?PR?_DEBUG_TXT_TIBBO?TIBBO
  +--> ?PR?_DEBUG_CHR_TIBBO?TIBBO
  +--> ?PR?_DELAY_10MS?DELAY

?PR?_MOV_CARD?LINTECH                            -----    -----      -----    -----      0002H    000CH
BL51 BANKED LINKER/LOCATER V6.22.2.0                                                  06/09/2021  12:25:34  PAGE 16


  +--> ?CO?LINTECH
  +--> ?PR?_DEBUG_TXT_TIBBO?TIBBO
  +--> ?PR?_DEBUGBUFFERMF?TIBBO
  +--> ?PR?_ESCRIBIRCADENASOFT_BUFFER?MAIN

?PR?_CARD_INSERCION?LINTECH                      -----    -----      -----    -----      0002H    000AH
  +--> ?CO?LINTECH
  +--> ?PR?_DEBUG_TXT_TIBBO?TIBBO
  +--> ?PR?_DEBUGBUFFERMF?TIBBO
  +--> ?PR?_ESCRIBIRCADENASOFT_BUFFER?MAIN

?PR?AUT_CARD_CHECK_STATUS?LINTECH                -----    -----      -----    -----      0002H    000BH
  +--> ?CO?LINTECH
  +--> ?PR?_DEBUG_TXT_TIBBO?TIBBO
  +--> ?PR?_DEBUGBUFFERMF?TIBBO
  +--> ?PR?_ESCRIBIRCADENASOFT_BUFFER?MAIN

?PR?LOADVERIFY_EEPROM?LINTECH                    -----    -----      -----    -----      0002H    0010H
  +--> ?CO?LINTECH
  +--> ?PR?_DEBUG_TXT_TIBBO?TIBBO
  +--> ?PR?_DEBUGBUFFERMF?TIBBO
  +--> ?PR?_ESCRIBIRCADENASOFT_BUFFER?MAIN

?PR?_RD_MF?LINTECH                               -----    -----      -----    -----      0002H    0012H
  +--> ?CO?LINTECH
  +--> ?PR?_DEBUG_TXT_TIBBO?TIBBO
  +--> ?PR?_DEBUG_CHR_TIBBO?TIBBO
  +--> ?PR?_DEBUGBUFFERMF?TIBBO
  +--> ?PR?_ESCRIBIRCADENASOFT_BUFFER?MAIN

?PR?_WR_MF?LINTECH                               -----    -----      -----    -----      0002H    0025H
  +--> ?CO?LINTECH
  +--> ?PR?_DEBUG_TXT_TIBBO?TIBBO
  +--> ?PR?_DEBUG_CHR_TIBBO?TIBBO
  +--> ?PR?_DEBUGBUFFERMF?TIBBO
  +--> ?PR?_ESCRIBIRCADENASOFT_BUFFER?MAIN

?PR?ANALIZA_CARD_MOUNT_RF?VERIFICADOR            -----    -----      -----    -----      0002H    0001H
  +--> ?CO?VERIFICADOR
  +--> ?PR?_DEBUG_TXT_TIBBO?TIBBO

?PR?ENTREGA_CARD_CAPTURA?VERIFICADOR             -----    -----      -----    -----      0002H    0001H
  +--> ?CO?VERIFICADOR
  +--> ?PR?_DEBUG_TXT_TIBBO?TIBBO
  +--> ?PR?SEL_SENSOR2?IO_SENSORES
  +--> ?PR?VALIDASENSOR?IO_SENSORES
  +--> ?PR?VALIDA_SENSOR1_AUTO?IO_SENSORES

?PR?VALIDA_SENSOR1_AUTO?IO_SENSORES              -----    -----      -----    -----      0016H    0001H
  +--> ?PR?SEL_SENSOR1?IO_SENSORES
  +--> ?PR?SEL_AUTO?IO_SENSORES
  +--> ?CO?IO_SENSORES
  +--> ?PR?_DEBUG_TXT_TIBBO?TIBBO
  +--> ?PR?BOTTON?IO_SENSORES

?PR?BOTTON?IO_SENSORES                           -----    -----      -----    -----      -----    -----
  +--> ?PR?SEL_PULSA?IO_SENSORES
BL51 BANKED LINKER/LOCATER V6.22.2.0                                                  06/09/2021  12:25:34  PAGE 17


  +--> ?CO?IO_SENSORES
  +--> ?PR?_DEBUG_TXT_TIBBO?TIBBO

?PR?_SEND_PTO_PARALELO?VERIFICADOR               -----    -----      -----    -----      0002H    0007H
  +--> ?PR?_ARMAR_TRAMA_PTO_PARALELO_EXPEDID...
  +--> ?PR?_ARMAR_TRAMA_PTO_PARALELO_EXPEDID...
  +--> ?PR?INCREMENTE_TICKET?EEPROM
  +--> ?PR?_SEND_PORT?PTO_PARALELO
  +--> ?CO?VERIFICADOR
  +--> ?PR?_DEBUG_TXT_TIBBO?TIBBO
  +--> ?PR?_DEBUGBUFFERMF?TIBBO
  +--> ?PR?CLEAR_PLACA?MONITOR

?PR?_ARMAR_TRAMA_PTO_PARALELO_EXPEDID...         -----    -----      -----    -----      0009H    0006H
  +--> ?PR?_BCD_HEX?CLOCK
  +--> ?PR?_RD_EEPROM?EEPROM

?PR?_ARMAR_TRAMA_PTO_PARALELO_EXPEDID...         -----    -----      -----    -----      0009H    0012H
  +--> ?PR?LEE_NO_TICKET?EEPROM
  +--> ?PR?_STRCAT?STRCAT
  +--> ?PR?_STRLEN?STRLEN
  +--> ?PR?_BCD_HEX?CLOCK
  +--> ?PR?_RD_EEPROM?EEPROM

?PR?LEE_NO_TICKET?EEPROM                         -----    -----      -----    -----      0048H    000BH
  +--> ?PR?READ_EEPROM_TICKET?EEPROM
  +--> ?CO?EEPROM
  +--> ?PR?PRINTF?PRINTF
  +--> ?PR?_STRLEN?STRLEN
  +--> ?PR?_DEBUG_TXT_TIBBO?TIBBO

?PR?READ_EEPROM_TICKET?EEPROM                    -----    -----      -----    -----      0053H    0007H
  +--> ?PR?_RD_EEPROM?EEPROM

?PR?INCREMENTE_TICKET?EEPROM                     -----    -----      -----    -----      0009H    000BH
  +--> ?PR?READ_EEPROM_TICKET?EEPROM
  +--> ?CO?EEPROM
  +--> ?PR?PRINTF?PRINTF
  +--> ?PR?_WRITE_EEPROM_TICKET?EEPROM

?PR?_WRITE_EEPROM_TICKET?EEPROM                  -----    -----      -----    -----      001AH    000BH
  +--> ?CO?EEPROM
  +--> ?PR?_DEBUG_TXT_TIBBO?TIBBO
  +--> ?PR?_ATOL?ATOL
  +--> ?PR?_DEBUG_CHR_TIBBO?TIBBO
  +--> ?PR?_WR_EEPROM?EEPROM

?PR?_ATOL?ATOL                                   0020H.0  0000H.1    -----    -----      0025H    0007H
  +--> ?PR?_ISSPACE?ISSPACE
  +--> ?PR?_ISDIGIT?ISDIGIT

?PR?_SEND_PORT?PTO_PARALELO                      -----    -----      -----    -----      0016H    000AH
  +--> ?PR?PULSO_BUS?PTO_PARALELO
  +--> ?PR?_DELAY_20US?DELAY

?PR?PULSO_BUS?PTO_PARALELO                       -----    -----      -----    -----      -----    -----
  +--> ?PR?_DELAY_20US?DELAY
BL51 BANKED LINKER/LOCATER V6.22.2.0                                                  06/09/2021  12:25:34  PAGE 18



?PR?_WAIT_PLACA?VERIFICADOR                      -----    -----      -----    -----      0002H    0007H
  +--> ?CO?VERIFICADOR
  +--> ?PR?_DEBUG_TXT_TIBBO?TIBBO
  +--> ?PR?RX_MONITOR?MONITOR
  +--> ?PR?_RESPUESTA_PLACA_CANCEL?VERIFICADOR

?PR?_RESPUESTA_PLACA_CANCEL?VERIFICADOR          -----    -----      -----    -----      0009H    000AH
  +--> ?CO?VERIFICADOR
  +--> ?PR?_DEBUG_TXT_TIBBO?TIBBO
  +--> ?PR?_ARMAR_TRAMA_TARJETA_SECTOR1_BLOQ...

?PR?_ARMAR_TRAMA_TARJETA_SECTOR1_BLOQ...         -----    -----      -----    -----      0013H    0004H
  +--> ?PR?CLEAR_PLACA?MONITOR
  +--> ?PR?_RD_EEPROM?EEPROM

?PR?UNIQUE_IDENTIFIER_UID?LINTECH                -----    -----      -----    -----      0002H    000BH
  +--> ?CO?LINTECH
  +--> ?PR?_DEBUG_TXT_TIBBO?TIBBO
  +--> ?PR?_DEBUGBUFFERMF?TIBBO
  +--> ?PR?_ESCRIBIRCADENASOFT_BUFFER?MAIN

?PR?_PREGUNTA_LPR?VERIFICADOR                    -----    -----      -----    -----      0002H    0003H
  +--> ?CO?VERIFICADOR
  +--> ?PR?_DEBUG_TXT_TIBBO?TIBBO
  +--> ?PR?_HORA_ENTRADA_VEHICULO?CLOCK
  +--> ?PR?_RD_EEPROM?EEPROM
  +--> ?PR?_ARMAR_TRAMA_MONITOR?VERIFICADOR

?PR?_HORA_ENTRADA_VEHICULO?CLOCK                 -----    -----      -----    -----      0005H    0003H
  +--> ?PR?_LEE_CLK?CLOCK

?PR?_ARMAR_TRAMA_MONITOR?VERIFICADOR             -----    -----      -----    -----      0005H    000FH
  +--> ?PR?DIR_BOARD_MONITOR?IO_SENSORES
  +--> ?PR?LEE_NO_TICKET?EEPROM
  +--> ?PR?_STRCAT?STRCAT
  +--> ?PR?_BYTEHEX_DECIMAL?CLOCK
  +--> ?PR?_STRLEN?STRLEN
  +--> ?PR?_TWO_BYTEHEX_DECIMAL?CLOCK

?PR?DIR_BOARD_MONITOR?IO_SENSORES                -----    -----      -----    -----      -----    -----
  +--> ?PR?_RD_EEPROM?EEPROM

?PR?_BYTEHEX_DECIMAL?CLOCK                       -----    -----      -----    -----      0015H    0001H

?PR?_TWO_BYTEHEX_DECIMAL?CLOCK                   -----    -----      -----    -----      0015H    000CH
  +--> ?PR?_POW?POW

?PR?_POW?POW                                     -----    -----      -----    -----      0021H    000AH
  +--> ?PR?LOG?LOG
  +--> ?PR?EXP?EXP

?PR?LOG?LOG                                      0020H.0  0000H.1    -----    -----      002BH    0004H

?PR?PREGUNTA_PLACA?VERIFICADOR                   -----    -----      -----    -----      0002H    0001H
  +--> ?CO?VERIFICADOR
  +--> ?PR?_DEBUG_TXT_TIBBO?TIBBO
BL51 BANKED LINKER/LOCATER V6.22.2.0                                                  06/09/2021  12:25:34  PAGE 19


  +--> ?PR?_RD_EEPROM?EEPROM

?PR?_VALIDA_TIPO_TARJETA?VERIFICADOR             -----    -----      -----    -----      0002H    0007H
  +--> ?CO?VERIFICADOR
  +--> ?PR?_DEBUG_TXT_TIBBO?TIBBO
  +--> ?PR?_RD_EEPROM?EEPROM
  +--> ?PR?_TARJETA_MENSUAL?VERIFICADOR
  +--> ?PR?_SEND_PORTERR?PTO_PARALELO
  +--> ?PR?_PANTALLALCD?PANTALLAS
  +--> ?PR?CAPTURA_EXPULSA?VERIFICADOR
  +--> ?PR?_TARJETA_ROTACION?VERIFICADOR

?PR?_TARJETA_MENSUAL?VERIFICADOR                 -----    -----      -----    -----      0009H    0007H
  +--> ?PR?_HORARIOS?VERIFICADOR
  +--> ?PR?_CHECK_FECHAOUT?CLOCK
  +--> ?PR?_VALIDA_VEHICULO_CARD_MENSUAL?VER...
  +--> ?PR?CAPTURA_EXPULSA?VERIFICADOR
  +--> ?CO?VERIFICADOR
  +--> ?PR?_DEBUG_TXT_TIBBO?TIBBO
  +--> ?PR?_ARMAR_TRAMA_TARJETA_SECTOR1_BLOQ...
  +--> ?PR?_SEND_PORTERR?PTO_PARALELO
  +--> ?PR?_PANTALLALCD?PANTALLAS

?PR?_HORARIOS?VERIFICADOR                        -----    -----      -----    -----      0010H    0013H
  +--> ?PR?ADDR_HORARIOS?PROG
  +--> ?PR?_RD_EEPROM?EEPROM
  +--> ?PR?_LEE_CLK?CLOCK
  +--> ?CO?VERIFICADOR
  +--> ?PR?_DEBUG_TXT_TIBBO?TIBBO
  +--> ?PR?_DEBUG_CHR_TIBBO?TIBBO
  +--> ?PR?_BLOQUE_HORARIO?VERIFICADOR
  +--> ?PR?_PANTALLALCD?PANTALLAS

?PR?_BLOQUE_HORARIO?VERIFICADOR                  -----    -----      -----    -----      0023H    0007H
  +--> ?CO?VERIFICADOR
  +--> ?PR?_DEBUG_TXT_TIBBO?TIBBO
  +--> ?PR?_LEE_CLK?CLOCK
  +--> ?PR?_DEBUG_CHR_TIBBO?TIBBO
  +--> ?PR?_HORA_MAXIMA?VERIFICADOR
  +--> ?PR?_EN_HORARIO?VERIFICADOR
  +--> ?PR?_RD_EEPROM?EEPROM
  +--> ?PR?_SEND_PORTERR?PTO_PARALELO
  +--> ?PR?_PANTALLALCD?PANTALLAS

?PR?_HORA_MAXIMA?VERIFICADOR                     -----    -----      -----    -----      002FH    0008H
  +--> ?PR?_RD_EEPROM?EEPROM
  +--> ?PR?_DEBUG_CHR_TIBBO?TIBBO
  +--> ?CO?VERIFICADOR
  +--> ?PR?_DEBUG_TXT_TIBBO?TIBBO

?PR?_EN_HORARIO?VERIFICADOR                      -----    -----      -----    -----      002AH    0005H
  +--> ?CO?VERIFICADOR
  +--> ?PR?_DEBUG_TXT_TIBBO?TIBBO
  +--> ?PR?_HORA_MAXIMA?VERIFICADOR

?PR?_SEND_PORTERR?PTO_PARALELO                   -----    -----      -----    -----      002AH    0006H
  +--> ?PR?PULSO_BUS?PTO_PARALELO
BL51 BANKED LINKER/LOCATER V6.22.2.0                                                  06/09/2021  12:25:34  PAGE 20


  +--> ?PR?_DELAY_20US?DELAY

?PR?_PANTALLALCD?PANTALLAS                       -----    -----      -----    -----      002AH    000AH
  +--> ?CO?PANTALLAS
  +--> ?PR?_LCD_TXT?PANTALLAS
  +--> ?PR?_STRLEN?STRLEN
  +--> ?PR?_TX_CHRLCD?PANTALLAS
  +--> ?PR?_RASPBERRY_DATA?PANTALLAS

?PR?_LCD_TXT?PANTALLAS                           -----    -----      -----    -----      0048H    0005H
  +--> ?PR?_TX_CHRLCD?PANTALLAS

?PR?_TX_CHRLCD?PANTALLAS                         -----    -----      -----    -----      004DH    0002H
  +--> ?PR?_PUTCHAR?MAIN

?PR?_RASPBERRY_DATA?PANTALLAS                    -----    -----      -----    -----      0048H    0006H
  +--> ?PR?_STRLEN?STRLEN
  +--> ?PR?_PUTCHAR?MAIN

?PR?_VALIDA_VEHICULO_CARD_MENSUAL?VER...         -----    -----      -----    -----      0010H    0004H
  +--> ?CO?VERIFICADOR
  +--> ?PR?_DEBUG_TXT_TIBBO?TIBBO
  +--> ?PR?_RD_EEPROM?EEPROM
  +--> ?PR?_SEND_PORTERR?PTO_PARALELO

?PR?_ARMAR_TRAMA_TARJETA_SECTOR1_BLOQ...         -----    -----      -----    -----      0010H    0006H
  +--> ?PR?_BCD_HEX?CLOCK
  +--> ?PR?DIR_BOARD?IO_SENSORES

?PR?DIR_BOARD?IO_SENSORES                        -----    -----      -----    -----      0037H    0001H
  +--> ?PR?SEL_DIR1?IO_SENSORES
  +--> ?PR?SEL_DIR2?IO_SENSORES
  +--> ?PR?_RD_EEPROM?EEPROM

?PR?_TARJETA_ROTACION?VERIFICADOR                -----    -----      -----    -----      0009H    0006H
  +--> ?PR?_ARMAR_TRAMA_TARJETA_SECTOR1_BLOQ...

?PR?POWER_OFF?LINTECH                            -----    -----      -----    -----      0002H    000BH
  +--> ?CO?LINTECH
  +--> ?PR?_DEBUG_TXT_TIBBO?TIBBO
  +--> ?PR?_DEBUGBUFFERMF?TIBBO
  +--> ?PR?_ESCRIBIRCADENASOFT_BUFFER?MAIN

?PR?CLAVE_SEGURIDAD_S2?LINTECH                   -----    -----      -----    -----      0002H    0016H
  +--> ?CO?LINTECH
  +--> ?PR?_DEBUG_TXT_TIBBO?TIBBO
  +--> ?PR?_DEBUGBUFFERMF?TIBBO
  +--> ?PR?_ESCRIBIRCADENASOFT_BUFFER?MAIN

?PR?_RESPONDE_REELECTURA_TARJETA_SECT...         -----    -----      -----    -----      0002H    000AH
  +--> ?CO?VERIFICADOR
  +--> ?PR?_DEBUG_TXT_TIBBO?TIBBO
  +--> ?PR?_DEBUGBUFFERMF?TIBBO
  +--> ?PR?_ARMAR_TRAMA_TARJETA_SECTOR1_BLOQ...

?PR?_ARMAR_TRAMA_TARJETA_SECTOR1_BLOQ...         -----    -----      -----    -----      000CH    0003H
  +--> ?PR?LEE_NO_TICKET?EEPROM
BL51 BANKED LINKER/LOCATER V6.22.2.0                                                  06/09/2021  12:25:34  PAGE 21



?PR?RESPONDE_ESTADO_SENSORES_TRANSPOR...         -----    -----      -----    -----      0002H    0001H
  +--> ?CO?VERIFICADOR
  +--> ?PR?_DEBUG_TXT_TIBBO?TIBBO
  +--> ?PR?_SEND_PORTERR?PTO_PARALELO
  +--> ?PR?INGRESO_VEHICULO?VERIFICADOR

?PR?INGRESO_VEHICULO?VERIFICADOR                 -----    -----      -----    -----      -----    -----
  +--> ?PR?VALIDASENSORESPASO?IO_SENSORES
  +--> ?PR?_RD_EEPROM?EEPROM
  +--> ?CO?VERIFICADOR
  +--> ?PR?_DEBUG_TXT_TIBBO?TIBBO
  +--> ?PR?_PANTALLALCD?PANTALLAS
  +--> ?PR?BOTTON?IO_SENSORES

?PR?VALIDASENSORESPASO?IO_SENSORES               -----    -----      -----    -----      0015H    0001H
  +--> ?PR?SEL_SENSOR2?IO_SENSORES
  +--> ?PR?VALIDASENSOR?IO_SENSORES
  +--> ?PR?VALIDA_SENSOR1_AUTO?IO_SENSORES
  +--> ?CO?IO_SENSORES
  +--> ?PR?_DEBUG_TXT_TIBBO?TIBBO

?PR?RESPONDE_TIPO_TARJETA?VERIFICADOR            -----    -----      -----    -----      0002H    0001H
  +--> ?CO?VERIFICADOR
  +--> ?PR?_DEBUG_TXT_TIBBO?TIBBO
  +--> ?PR?_SEND_PORTERR?PTO_PARALELO
  +--> ?PR?_PANTALLALCD?PANTALLAS
  +--> ?PR?CAPTURA_EXPULSA?VERIFICADOR

?PR?_RESPONDE_LECTURA_TARJETA_SECTOR1...         -----    -----      -----    -----      0002H    0016H
  +--> ?CO?VERIFICADOR
  +--> ?PR?_DEBUG_TXT_TIBBO?TIBBO
  +--> ?PR?_DEBUGBUFFERMF?TIBBO
  +--> ?PR?_RD_EEPROM?EEPROM
  +--> ?PR?_DEBUG_HEXDEC?TIBBO
  +--> ?PR?_DEBUG_CHR_TIBBO?TIBBO
  +--> ?PR?_SEND_PORTERR?PTO_PARALELO
  +--> ?PR?_PANTALLALCD?PANTALLAS
  +--> ?PR?CAPTURA_EXPULSA?VERIFICADOR

?PR?_DEBUG_HEXDEC?TIBBO                          -----    -----      -----    -----      0018H    0002H
  +--> ?PR?_TX_AUX?TIBBO

?PR?_RESPONDE_LECTURA_TARJETA_SECTOR1...         -----    -----      -----    -----      0002H    0004H
  +--> ?CO?VERIFICADOR
  +--> ?PR?_DEBUG_TXT_TIBBO?TIBBO
  +--> ?PR?CAPTURA_EXPULSA?VERIFICADOR

?PR?_RESPONDE_LECTURA_TARJETA_SECTOR1...         -----    -----      -----    -----      0002H    0015H
  +--> ?CO?VERIFICADOR
  +--> ?PR?_DEBUG_TXT_TIBBO?TIBBO
  +--> ?PR?_DEBUGBUFFERMF?TIBBO
  +--> ?PR?_DEBUG_CHR_TIBBO?TIBBO
  +--> ?PR?CAPTURA_EXPULSA?VERIFICADOR

?PR?_RESPONDE_WRITE_TARJETA_SECTOR1_B...         -----    -----      -----    -----      0002H    0007H
  +--> ?CO?VERIFICADOR
BL51 BANKED LINKER/LOCATER V6.22.2.0                                                  06/09/2021  12:25:34  PAGE 22


  +--> ?PR?_DEBUG_TXT_TIBBO?TIBBO
  +--> ?PR?_DEBUGBUFFERMF?TIBBO

?PR?_RESPONDE_WRITE_TARJETA_SECTOR2_B...         -----    -----      -----    -----      0002H    0003H
  +--> ?CO?VERIFICADOR
  +--> ?PR?_DEBUG_TXT_TIBBO?TIBBO
  +--> ?PR?_DEBUGBUFFERMF?TIBBO

?PR?_RESPONDE_WRITE_TARJETA_SECTOR1_B...         -----    -----      -----    -----      0002H    0003H
  +--> ?CO?VERIFICADOR
  +--> ?PR?_DEBUG_TXT_TIBBO?TIBBO
  +--> ?PR?_DEBUGBUFFERMF?TIBBO

?PR?_RESPONDE_WRITE_TARJETA_SECTOR1_B...         -----    -----      -----    -----      0002H    0003H
  +--> ?CO?VERIFICADOR
  +--> ?PR?_DEBUG_TXT_TIBBO?TIBBO
  +--> ?PR?_DEBUGBUFFERMF?TIBBO

?PR?_DISPARO_LOCK_ENTRADA_VEHICULO?VE...         -----    -----      -----    -----      0002H    0004H
  +--> ?CO?VERIFICADOR
  +--> ?PR?_DEBUG_TXT_TIBBO?TIBBO
  +--> ?PR?_SEND_PORTERR?PTO_PARALELO
  +--> ?PR?_PANTALLALCD_LINEA_2?PANTALLAS
  +--> ?PR?VALIDA_SENSOR1_AUTO?IO_SENSORES
  +--> ?PR?_PANTALLALCD?PANTALLAS

?PR?_PANTALLALCD_LINEA_2?PANTALLAS               -----    -----      -----    -----      0015H    0033H
  +--> ?CO?PANTALLAS
  +--> ?PR?_LCD_TXT?PANTALLAS
  +--> ?PR?_STRLEN?STRLEN
  +--> ?PR?_TX_CHRLCD?PANTALLAS
  +--> ?PR?_RASPBERRY_DATA?PANTALLAS
  +--> ?PR?LEE_NO_TICKET?EEPROM
  +--> ?PR?_STRCAT?STRCAT

?PR?_RESPUESTA_SEGUNDA_CLAVE?VERIFICADOR         -----    -----      -----    -----      0002H    0006H
  +--> ?CO?VERIFICADOR
  +--> ?PR?_DEBUG_TXT_TIBBO?TIBBO
  +--> ?PR?_DEBUGBUFFERMF?TIBBO
  +--> ?PR?_ARMAR_TRAMA_PLACA?VERIFICADOR

?PR?_ARMAR_TRAMA_PLACA?VERIFICADOR               -----    -----      -----    -----      0008H    0003H
  +--> ?PR?_STRLEN?STRLEN

?PR?ANALIZA_PRESENCIA_MENSUAL?VERIFIC...         -----    -----      -----    -----      0002H    0001H
  +--> ?PR?VALIDASENSORESPASO?IO_SENSORES
  +--> ?PR?_SEND_PORTERR?PTO_PARALELO
  +--> ?PR?_PANTALLALCD?PANTALLAS

?PR?_ANALIZA_UID_CARD?VERIFICADOR                -----    -----      -----    -----      0002H    0015H
  +--> ?CO?VERIFICADOR
  +--> ?PR?_DEBUG_TXT_TIBBO?TIBBO
  +--> ?PR?_DEBUGBUFFERMF?TIBBO
  +--> ?PR?_DEBUG_CHR_TIBBO?TIBBO

?PR?ANALIZA_PRESENCIA_ROTACION?VERIFI...         -----    -----      -----    -----      0002H    0001H
  +--> ?PR?VALIDASENSORESPASO?IO_SENSORES
BL51 BANKED LINKER/LOCATER V6.22.2.0                                                  06/09/2021  12:25:34  PAGE 23


  +--> ?PR?_SEND_PORTERR?PTO_PARALELO
  +--> ?PR?_PANTALLALCD?PANTALLAS

?PR?_RECIBE_PORT?PTO_PARALELO                    -----    -----      -----    -----      0001H    0008H
  +--> ?PR?OFF_TIMER0_INTERRUP?MAIN
  +--> ?PR?ON_TIMER0_INTERRUP?MAIN

?PR?_DEBUG_PTO_PARALELO?TIBBO                    -----    -----      -----    -----      0001H    0004H
  +--> ?CO?TIBBO
  +--> ?PR?_DEBUG_TXT_TIBBO?TIBBO
  +--> ?PR?_DEBUGBUFFERMF?TIBBO
  +--> ?PR?DEBUG_DIVIDIR_TEXTO?TIBBO

?PR?_VALIDA_TRAMA_PTO?ACCESCAN                   -----    -----      -----    -----      0001H    0014H
  +--> ?CO?ACCESCAN
  +--> ?PR?_DEBUG_TXT_TIBBO?TIBBO
  +--> ?PR?_DEBUG_CHR_TIBBO?TIBBO
  +--> ?PR?_CALCULO_BCC?ACCESCAN
  +--> ?PR?_VALIDAR_CLK?CLOCK
  +--> ?PR?_BLOCK_WRITE_CLOCK_ASCII?CLOCK
  +--> ?PR?RELOJ_PANTALLA_LCD?PANTALLAS
  +--> ?PR?_SEND_PORT?PTO_PARALELO
  +--> ?PR?_PANTALLALCD?PANTALLAS
  +--> ?PR?FORMATO_EEPROM?EEPROM
  +--> ?PR?_BYTEHEX_DECIMAL?CLOCK
  +--> ?PR?_TWO_BYTEHEX_DECIMAL?CLOCK
  +--> ?PR?VALIDASENSORESPASO?IO_SENSORES
  +--> ?PR?_CMD_LPR_SALIDA_WIEGAND?ACCESCAN
  +--> ?PR?_PANTALLALCD_LINEA_2?PANTALLAS
  +--> ?PR?_GRABA_SERIE?EEPROM

?PR?_CALCULO_BCC?ACCESCAN                        -----    -----      -----    -----      0015H    0004H

?PR?_BLOCK_WRITE_CLOCK_ASCII?CLOCK               -----    -----      -----    -----      0015H    0003H
  +--> ?CO?CLOCK
  +--> ?PR?_DEBUG_TXT_TIBBO?TIBBO
  +--> ?PR?_TWO_ONE?CLOCK
  +--> ?PR?_WR_CLK?CLOCK

?PR?_WR_CLK?CLOCK                                -----    -----      -----    -----      0018H    0002H
  +--> ?PR?_DELAY_20US?DELAY
  +--> ?PR?_EB_CLK?CLOCK

?PR?RELOJ_PANTALLA_LCD?PANTALLAS                 -----    -----      -----    -----      0015H    000DH
  +--> ?CO?PANTALLAS
  +--> ?PR?_BLOCK_READ_CLOCK?CLOCK
  +--> ?PR?_LCD_TXT_NUM_CHAR?PANTALLAS
  +--> ?PR?_BLOCK_READ_CLOCK_ASCII_RASBERRY?...
  +--> ?PR?_STRCAT?STRCAT
  +--> ?PR?_RASPBERRY_DATA?PANTALLAS

?PR?_BLOCK_READ_CLOCK?CLOCK                      -----    -----      -----    -----      0022H    0003H
  +--> ?PR?_LEE_CLK?CLOCK

?PR?_LCD_TXT_NUM_CHAR?PANTALLAS                  -----    -----      -----    -----      0022H    0006H
  +--> ?PR?_TX_CHRLCD?PANTALLAS

BL51 BANKED LINKER/LOCATER V6.22.2.0                                                  06/09/2021  12:25:34  PAGE 24


?PR?_BLOCK_READ_CLOCK_ASCII_RASBERRY?...         -----    -----      -----    -----      0022H    0003H
  +--> ?PR?_LEE_CLK?CLOCK

?PR?FORMATO_EEPROM?EEPROM                        -----    -----      -----    -----      0015H    0003H
  +--> ?PR?_WR_EEPROM?EEPROM

?PR?_CMD_LPR_SALIDA_WIEGAND?ACCESCAN             -----    -----      -----    -----      0015H    0022H
  +--> ?PR?DIR_BOARD?IO_SENSORES
  +--> ?PR?_BLOCK_READ_CLOCK_ASCII?CLOCK
  +--> ?PR?_MONITOR_CHR?ACCESCAN

?PR?_MONITOR_CHR?ACCESCAN                        -----    -----      -----    -----      0037H    0005H
  +--> ?PR?_TX_AUX?TIBBO

?PR?_GRABA_SERIE?EEPROM                          -----    -----      -----    -----      0015H    0005H
  +--> ?CO?EEPROM
  +--> ?PR?_DEBUG_TXT_TIBBO?TIBBO
  +--> ?PR?_WRITE_EEPROM_TICKET?EEPROM
  +--> ?PR?_WR_EEPROM?EEPROM

?PR?MSJ_LCD_INFORMATIVO?IO_SENSORES              -----    -----      -----    -----      0001H    0001H
  +--> ?PR?SEL_FUNCION?IO_SENSORES
  +--> ?PR?VALIDASENSOR_CERO?IO_SENSORES
  +--> ?CO?IO_SENSORES
  +--> ?PR?_DEBUG_TXT_TIBBO?TIBBO
  +--> ?PR?_DEBUG_CHR_TIBBO?TIBBO
  +--> ?PR?LOAD_AND_SEND_INFO_RELOJ?PTO_PARA...
  +--> ?PR?VALIDASENSOR?IO_SENSORES
  +--> ?PR?_DELAY_10MS?DELAY
  +--> ?PR?LOAD_AND_SEND_ID_COD?PTO_PARALELO

?PR?LOAD_AND_SEND_INFO_RELOJ?PTO_PARA...         -----    -----      -----    -----      0002H    000BH
  +--> ?PR?_BLOCK_READ_CLOCK?CLOCK
  +--> ?PR?_LEE_CLK?CLOCK
  +--> ?CO?PTO_PARALELO
  +--> ?PR?_DEBUG_TXT_TIBBO?TIBBO
  +--> ?PR?_DEBUGBUFFERMF?TIBBO
  +--> ?PR?DEBUG_DIVIDIR_TEXTO?TIBBO
  +--> ?PR?_SEND_PORT?PTO_PARALELO

?PR?LOAD_AND_SEND_ID_COD?PTO_PARALELO            -----    -----      -----    -----      0002H    0014H
  +--> ?PR?_RD_EEPROM?EEPROM
  +--> ?CO?PTO_PARALELO
  +--> ?PR?PRINTF?PRINTF
  +--> ?PR?_STRCAT?STRCAT
  +--> ?PR?_STRLEN?STRLEN
  +--> ?PR?_DEBUG_TXT_TIBBO?TIBBO
  +--> ?PR?_DEBUGBUFFERMF?TIBBO
  +--> ?PR?DEBUG_DIVIDIR_TEXTO?TIBBO
  +--> ?PR?_SEND_PORT?PTO_PARALELO



SYMBOL TABLE OF MODULE:  .\Objects\expedidor_v_01_raspberry (MAIN)

  VALUE           TYPE          NAME
  ----------------------------------
BL51 BANKED LINKER/LOCATER V6.22.2.0                                                  06/09/2021  12:25:34  PAGE 25



  -------         MODULE        MAIN
  C:0000H         SYMBOL        _ICE_DUMMY_
  D:0080H         PUBLIC        P0
  D:0090H         PUBLIC        P1
  C:BE35H         PUBLIC        timer0_int
  D:00B0H         PUBLIC        P3
  B:00A8H.7       PUBLIC        EA
  C:C276H         PUBLIC        off_Timer0_Interrup
  X:0171H         PUBLIC        ValTimeOutCom
  X:0172H         PUBLIC        Buffer_Rta_Lintech
  X:01A4H         PUBLIC        Timer_wait
  B:0021H.1       PUBLIC        pto_paraleo
  X:01A5H         PUBLIC        g_cContByteRx
  B:0080H.0       PUBLIC        rx_ip
  C:ACF0H         PUBLIC        main
  X:01A6H         PUBLIC        Timer_tivo
  B:0080H.3       PUBLIC        Atascado_GP0_PIN_3
  C:B77AH         PUBLIC        variable_inicio
  B:0090H.7       PUBLIC        lock
  I:0023H         PUBLIC        rbuf
  C:C26CH         PUBLIC        on_Timer0_Interrup
  I:0055H         PUBLIC        tbuf
  B:0090H.1       PUBLIC        DataIn
  D:0089H         PUBLIC        TMOD
  X:01A8H         PUBLIC        USE_LPR
  X:01A9H         PUBLIC        Debug_Tibbo
  X:01AAH         PUBLIC        Raspberry
  X:01ABH         PUBLIC        SIN_COBRO
  X:01ADH         PUBLIC        Tipo_Vehiculo
  B:00B0H.3       PUBLIC        busy
  C:C1CDH         PUBLIC        ini_timer
  B:00A8H.1       PUBLIC        ET0
  B:0088H.5       PUBLIC        TF0
  D:008CH         PUBLIC        TH0
  X:01AEH         PUBLIC        ACK
  X:01AFH         PUBLIC        g_cEstadoComSoft
  D:008AH         PUBLIC        TL0
  B:0088H.4       PUBLIC        TR0
  C:C1DDH         PUBLIC        inicia_board
  X:01B0H         PUBLIC        T_GRACIA
  B:0080H.7       PUBLIC        sel_com
  X:01B2H         PUBLIC        STX_LINTECH
  C:C1FCH         PUBLIC        _getkey
  X:01B3H         PUBLIC        ETX
  C:B6A8H         PUBLIC        _EscribirCadenaSoft_buffer
  B:0021H.2       PUBLIC        buffer_ready
  C:B9C9H         PUBLIC        _putchar
  B:0021H.3       PUBLIC        placa_ready
  -------         PROC          TIMER0_INT
  C:BE35H         LINE#         16
  C:BE3BH         LINE#         19
  C:BE41H         LINE#         20
  C:BE46H         LINE#         21
  C:BE46H         LINE#         22
  C:BE4CH         LINE#         23
  C:BE4CH         LINE#         25
BL51 BANKED LINKER/LOCATER V6.22.2.0                                                  06/09/2021  12:25:34  PAGE 26


  C:BE5AH         LINE#         26
  C:BE5CH         LINE#         28
  -------         ENDPROC       TIMER0_INT
  -------         PROC          INI_TIMER
  C:C1CDH         LINE#         31
  C:C1CDH         LINE#         32
  C:C1CDH         LINE#         34
  C:C1D5H         LINE#         36
  C:C1D8H         LINE#         37
  C:C1DAH         LINE#         38
  C:C1DCH         LINE#         40
  -------         ENDPROC       INI_TIMER
  -------         PROC          ON_TIMER0_INTERRUP
  C:C26CH         LINE#         43
  C:C26CH         LINE#         44
  C:C26CH         LINE#         45
  C:C26EH         LINE#         46
  C:C270H         LINE#         48
  -------         ENDPROC       ON_TIMER0_INTERRUP
  -------         PROC          OFF_TIMER0_INTERRUP
  C:C276H         LINE#         51
  C:C276H         LINE#         52
  C:C276H         LINE#         53
  C:C278H         LINE#         55
  -------         ENDPROC       OFF_TIMER0_INTERRUP
  -------         PROC          _GETKEY
  -------         DO            
  D:0006H         SYMBOL        k
  -------         ENDDO         
  C:C1FCH         LINE#         63
  C:C1FCH         LINE#         64
  C:C1FCH         LINE#         68
  C:C1FCH         LINE#         69
  C:C1FFH         LINE#         70
  C:C1FFH         LINE#         71
  C:C207H         LINE#         73
  C:C207H         LINE#         74
  -------         ENDPROC       _GETKEY
  -------         PROC          _PUTCHAR
  X:00A7H         SYMBOL        c
  -------         DO            
  X:00A8H         SYMBOL        i
  -------         ENDDO         
  C:B9C9H         LINE#         78
  C:B9CEH         LINE#         79
  C:B9CEH         LINE#         82
  C:B9DDH         LINE#         83
  C:B9DDH         LINE#         84
  C:B9F3H         LINE#         85
  C:B9F3H         LINE#         87
  C:BA01H         LINE#         88
  C:BA01H         LINE#         90
  C:BA06H         LINE#         91
  -------         ENDPROC       _PUTCHAR
  -------         PROC          _ESCRIBIRCADENASOFT_BUFFER
  X:0027H         SYMBOL        buffer
  X:002AH         SYMBOL        tamano_cadena
BL51 BANKED LINKER/LOCATER V6.22.2.0                                                  06/09/2021  12:25:34  PAGE 27


  -------         DO            
  X:002BH         SYMBOL        i
  X:002CH         SYMBOL        d
  -------         ENDDO         
  C:B6A8H         LINE#         95
  C:B6B6H         LINE#         96
  C:B6B6H         LINE#         98
  C:B6C4H         LINE#         99
  C:B6C4H         LINE#         100
  C:B6DBH         LINE#         101
  C:B6E5H         LINE#         102
  C:B6EDH         LINE#         103
  -------         ENDPROC       _ESCRIBIRCADENASOFT_BUFFER
  -------         PROC          INICIA_BOARD
  C:C1DDH         LINE#         108
  C:C1DDH         LINE#         109
  C:C1DDH         LINE#         110
  C:C1E0H         LINE#         111
  C:C1E3H         LINE#         112
  C:C1E6H         LINE#         113
  C:C1E8H         LINE#         114
  C:C1EAH         LINE#         115
  C:C1ECH         LINE#         117
  -------         ENDPROC       INICIA_BOARD
  -------         PROC          VARIABLE_INICIO
  C:B77AH         LINE#         122
  C:B77AH         LINE#         123
  C:B77AH         LINE#         126
  C:B78BH         LINE#         127
  C:B79CH         LINE#         129
  C:B7AAH         LINE#         130
  C:B7B8H         LINE#         131
  C:B7BEH         LINE#         133
  -------         ENDPROC       VARIABLE_INICIO
  -------         PROC          MAIN
  -------         DO            
  X:0148H         SYMBOL        buffer
  X:0170H         SYMBOL        Estado_Comunicacion_Secuencia_MF
  X:0000H         SYMBOL        Length_trama
  -------         ENDDO         
  C:ACF0H         LINE#         141
  C:ACF0H         LINE#         142
  C:ACF0H         LINE#         149
  C:ACF3H         LINE#         150
  C:ACF6H         LINE#         151
  C:ACF9H         LINE#         152
  C:ACFCH         LINE#         153
  C:ACFFH         LINE#         154
  C:AD01H         LINE#         156
  C:AD04H         LINE#         157
  C:AD0BH         LINE#         158
  C:AD0EH         LINE#         160
  C:AD13H         LINE#         162
  C:AD16H         LINE#         164
  C:AD19H         LINE#         165
  C:AD19H         LINE#         166
  C:AD1CH         LINE#         167
BL51 BANKED LINKER/LOCATER V6.22.2.0                                                  06/09/2021  12:25:34  PAGE 28


  C:AD1CH         LINE#         170
  C:AD1FH         LINE#         171
  C:AD25H         LINE#         172
  C:AD2BH         LINE#         174
  C:AD2BH         LINE#         175
  C:AD2BH         LINE#         178
  C:AD2EH         LINE#         179
  C:AD2EH         LINE#         180
  C:AD31H         LINE#         181
  C:AD31H         LINE#         185
  C:AD3EH         LINE#         190
  C:AD44H         LINE#         191
  C:AD44H         LINE#         193
  C:AD53H         LINE#         196
  C:AD5CH         LINE#         197
  C:AD6AH         LINE#         202
  C:AD6AH         LINE#         203
  C:AD6DH         LINE#         206
  -------         ENDPROC       MAIN
  -------         ENDMOD        MAIN

  -------         MODULE        ACCESCAN
  C:0000H         SYMBOL        _ICE_DUMMY_
  D:0080H         PUBLIC        P0
  D:0090H         PUBLIC        P1
  D:00B0H         PUBLIC        P3
  B:0080H.2       PUBLIC        led_err_imp
  C:B888H         PUBLIC        _Monitor_chr
  B:0080H.3       PUBLIC        Atascado_GP0_PIN_3
  B:0090H.7       PUBLIC        lock
  C:35ACH         PUBLIC        _Valida_Trama_Pto
  C:BD38H         PUBLIC        _Calculo_bcc
  C:8AEAH         PUBLIC        _Cmd_LPR_Salida_wiegand
  -------         PROC          _VALIDA_TRAMA_PTO
  X:0001H         SYMBOL        buffer
  X:0004H         SYMBOL        length_trama
  -------         DO            
  X:0218H         SYMBOL        cont
  X:0005H         SYMBOL        bcc
  X:0006H         SYMBOL        buff
  X:0011H         SYMBOL        buffer_port
  -------         ENDDO         
  C:35ACH         LINE#         113
  C:35BAH         LINE#         114
  C:35BAH         LINE#         117
  C:35BDH         LINE#         122
  C:3600H         LINE#         123
  C:3600H         LINE#         124
  C:3609H         LINE#         125
  C:361EH         LINE#         126
  C:3627H         LINE#         127
  C:363EH         LINE#         128
  C:3647H         LINE#         129
  C:364FH         LINE#         130
  C:3658H         LINE#         131
  C:3671H         LINE#         132
  C:3671H         LINE#         134
BL51 BANKED LINKER/LOCATER V6.22.2.0                                                  06/09/2021  12:25:34  PAGE 29


  C:3681H         LINE#         135
  C:3681H         LINE#         136
  C:3694H         LINE#         138
  C:3697H         LINE#         140
  C:3697H         LINE#         143
  C:3697H         LINE#         145
  C:3697H         LINE#         147
  C:369DH         LINE#         148
  C:36A1H         LINE#         149
  C:36A5H         LINE#         150
  C:36A8H         LINE#         151
  C:36B3H         LINE#         153
  C:36BCH         LINE#         154
  C:36C4H         LINE#         155
  C:36CCH         LINE#         156
  C:36D4H         LINE#         157
  C:36DDH         LINE#         158
  C:36DDH         LINE#         161
  C:36DDH         LINE#         164
  C:36EFH         LINE#         165
  C:36EFH         LINE#         166
  C:36F1H         LINE#         167
  C:36F4H         LINE#         169
  C:3706H         LINE#         170
  C:3706H         LINE#         171
  C:3708H         LINE#         172
  C:370BH         LINE#         174
  C:371DH         LINE#         175
  C:371DH         LINE#         176
  C:371FH         LINE#         177
  C:3722H         LINE#         179
  C:373CH         LINE#         180
  C:373CH         LINE#         181
  C:373EH         LINE#         182
  C:3741H         LINE#         184
  C:375BH         LINE#         185
  C:375BH         LINE#         186
  C:375DH         LINE#         187
  C:3760H         LINE#         189
  C:3772H         LINE#         190
  C:3772H         LINE#         191
  C:3778H         LINE#         192
  C:3785H         LINE#         193
  C:3785H         LINE#         194
  C:378AH         LINE#         195
  C:378CH         LINE#         196
  C:3791H         LINE#         197
  C:3793H         LINE#         198
  C:3795H         LINE#         199
  C:3799H         LINE#         200
  C:3799H         LINE#         201
  C:379AH         LINE#         203
  C:37B2H         LINE#         204
  C:37B2H         LINE#         206
  C:37BFH         LINE#         207
  C:37BFH         LINE#         208
  C:37C1H         LINE#         209
BL51 BANKED LINKER/LOCATER V6.22.2.0                                                  06/09/2021  12:25:34  PAGE 30


  C:37C3H         LINE#         210
  C:37C5H         LINE#         211
  C:37C7H         LINE#         212
  C:37C7H         LINE#         214
  C:37EDH         LINE#         215
  C:37EDH         LINE#         216
  C:37F1H         LINE#         217
  C:37F6H         LINE#         218
  C:37FFH         LINE#         219
  C:3804H         LINE#         220
  C:3804H         LINE#         223
  C:3805H         LINE#         225
  C:381FH         LINE#         226
  C:381FH         LINE#         227
  C:3821H         LINE#         228
  C:3824H         LINE#         230
  C:383EH         LINE#         231
  C:383EH         LINE#         232
  C:3841H         LINE#         233
  C:3841H         LINE#         235
  C:385BH         LINE#         236
  C:385BH         LINE#         237
  C:385DH         LINE#         238
  C:3860H         LINE#         240
  C:387AH         LINE#         241
  C:387AH         LINE#         242
  C:387CH         LINE#         243
  C:387EH         LINE#         245
  C:3898H         LINE#         246
  C:3898H         LINE#         247
  C:389AH         LINE#         248
  C:389CH         LINE#         251
  C:38B6H         LINE#         252
  C:38B6H         LINE#         253
  C:38B8H         LINE#         254
  C:38BAH         LINE#         258
  C:38D4H         LINE#         259
  C:38D4H         LINE#         260
  C:38D6H         LINE#         261
  C:38D8H         LINE#         264
  C:38F2H         LINE#         265
  C:38F2H         LINE#         266
  C:38F7H         LINE#         267
  C:38F7H         LINE#         270
  C:3928H         LINE#         271
  C:3928H         LINE#         272
  C:3930H         LINE#         273
  C:3939H         LINE#         274
  C:393CH         LINE#         277
  C:396DH         LINE#         278
  C:396DH         LINE#         280
  C:3975H         LINE#         281
  C:397EH         LINE#         282
  C:3981H         LINE#         285
  C:39C1H         LINE#         286
  C:39C1H         LINE#         288
  C:39D6H         LINE#         289
BL51 BANKED LINKER/LOCATER V6.22.2.0                                                  06/09/2021  12:25:34  PAGE 31


  C:39DCH         LINE#         290
  C:3A06H         LINE#         293
  C:3A0EH         LINE#         294
  C:3A0EH         LINE#         297
  C:3A15H         LINE#         298
  C:3A15H         LINE#         299
  C:3A1AH         LINE#         300
  C:3A1AH         LINE#         301
  C:3A1CH         LINE#         303
  C:3A1CH         LINE#         304
  C:3A25H         LINE#         305
  C:3A2DH         LINE#         306
  C:3A2DH         LINE#         310
  C:3A2FH         LINE#         313
  C:3A2FH         LINE#         321
  C:3A37H         LINE#         325
  C:3A37H         LINE#         326
  C:3A39H         LINE#         328
  C:3A71H         LINE#         329
  C:3A71H         LINE#         330
  C:3A79H         LINE#         331
  C:3A85H         LINE#         332
  C:3A85H         LINE#         334
  C:3AB2H         LINE#         335
  C:3AB2H         LINE#         336
  C:3AC1H         LINE#         338
  C:3AC1H         LINE#         340
  -------         ENDPROC       _VALIDA_TRAMA_PTO
  -------         PROC          _MONITOR_CHR
  X:0037H         SYMBOL        str
  X:003AH         SYMBOL        num_char
  -------         DO            
  X:003BH         SYMBOL        j
  -------         ENDDO         
  C:B888H         LINE#         495
  C:B896H         LINE#         496
  C:B896H         LINE#         498
  C:B8A4H         LINE#         499
  C:B8A4H         LINE#         500
  C:B8B6H         LINE#         501
  C:B8C0H         LINE#         502
  C:B8C8H         LINE#         503
  -------         ENDPROC       _MONITOR_CHR
  -------         PROC          _CMD_LPR_SALIDA_WIEGAND
  X:0015H         SYMBOL        buffer
  -------         DO            
  X:0018H         SYMBOL        Buffer_Lpr
  X:0036H         SYMBOL        j
  -------         ENDDO         
  C:8AEAH         LINE#         508
  C:8AF5H         LINE#         509
  C:8AF5H         LINE#         511
  C:8AFBH         LINE#         512
  C:8B00H         LINE#         513
  C:8B08H         LINE#         514
  C:8B0CH         LINE#         515
  C:8B15H         LINE#         516
BL51 BANKED LINKER/LOCATER V6.22.2.0                                                  06/09/2021  12:25:34  PAGE 32


  C:8B15H         LINE#         517
  C:8B26H         LINE#         518
  C:8B28H         LINE#         520
  C:8B28H         LINE#         521
  C:8B39H         LINE#         522
  C:8B39H         LINE#         526
  C:8B50H         LINE#         527
  C:8B50H         LINE#         528
  C:8B5FH         LINE#         529
  C:8B69H         LINE#         531
  C:8B71H         LINE#         532
  C:8B85H         LINE#         534
  C:8B95H         LINE#         535
  C:8BA6H         LINE#         536
  C:8BB3H         LINE#         540
  -------         ENDPROC       _CMD_LPR_SALIDA_WIEGAND
  -------         PROC          _CALCULO_BCC
  X:0015H         SYMBOL        buffer
  X:0018H         SYMBOL        leng_trama
  -------         DO            
  D:0007H         SYMBOL        bcc
  D:0006H         SYMBOL        j
  -------         ENDDO         
  C:BD38H         LINE#         542
  C:BD46H         LINE#         543
  C:BD46H         LINE#         544
  C:BD48H         LINE#         547
  C:BD53H         LINE#         548
  C:BD53H         LINE#         549
  C:BD68H         LINE#         550
  C:BD6BH         LINE#         551
  C:BD6BH         LINE#         552
  -------         ENDPROC       _CALCULO_BCC
  -------         ENDMOD        ACCESCAN

  -------         MODULE        CLOCK
  C:0000H         SYMBOL        _ICE_DUMMY_
  C:B8FDH         PUBLIC        _two_one
  D:0090H         PUBLIC        P1
  C:789BH         PUBLIC        _validar_clk
  C:BE8DH         PUBLIC        _wr_clk
  C:8EF4H         PUBLIC        _check_fechaOut
  C:608DH         PUBLIC        _Block_read_clock_ascii_rasberry
  B:00D0H.7       PUBLIC        CY
  C:0003H         PUBLIC        p_ck
  C:A2CBH         PUBLIC        _hex_ascii
  C:AEDFH         PUBLIC        _hora_entrada_vehiculo
  X:0219H         PUBLIC        data_clk
  C:C22EH         PUBLIC        cond_ini_clock
  C:8FBDH         PUBLIC        _Block_read_Clock
  B:0090H.4       PUBLIC        sck
  C:9C04H         PUBLIC        _Block_read_Clock_Hex
  C:675FH         PUBLIC        _Block_read_clock_ascii
  C:BA61H         PUBLIC        _hex_bcd
  C:C0A4H         PUBLIC        _bcd_hex
  C:B23DH         PUBLIC        _ByteHex_Decimal
  C:A3F7H         PUBLIC        _lee_clk
BL51 BANKED LINKER/LOCATER V6.22.2.0                                                  06/09/2021  12:25:34  PAGE 33


  B:0090H.5       PUBLIC        io
  C:9DF3H         PUBLIC        _Block_write_clock_ascii
  B:0090H.6       PUBLIC        rst
  C:B98AH         PUBLIC        _eb_clk
  C:477BH         PUBLIC        _Two_ByteHex_Decimal
  -------         PROC          P_CK
  C:0003H         LINE#         69
  C:0003H         LINE#         70
  C:0003H         LINE#         71
  C:0005H         LINE#         72
  C:0008H         LINE#         73
  C:000AH         LINE#         74
  -------         ENDPROC       P_CK
  -------         PROC          _EB_CLK
  X:00B4H         SYMBOL        dir_clk
  -------         DO            
  X:00B5H         SYMBOL        nbits
  -------         ENDDO         
  C:B98AH         LINE#         76
  C:B98FH         LINE#         78
  C:B994H         LINE#         79
  C:B994H         LINE#         80
  C:B99DH         LINE#         81
  C:B9A0H         LINE#         82
  C:B9A0H         LINE#         83
  C:B9A2H         LINE#         84
  C:B9A4H         LINE#         86
  C:B9A4H         LINE#         87
  C:B9A6H         LINE#         88
  C:B9A6H         LINE#         89
  C:B9A9H         LINE#         90
  C:B9C8H         LINE#         91
  -------         ENDPROC       _EB_CLK
  C:A3EDH         SYMBOL        L?0084
  -------         PROC          L?0083
  -------         ENDPROC       L?0083
  C:A3EDH         SYMBOL        L?0084
  -------         PROC          _LEE_CLK
  X:00B1H         SYMBOL        dir_clk
  -------         DO            
  X:00B2H         SYMBOL        nbits
  -------         ENDDO         
  C:A3F7H         LINE#         93
  C:A3FCH         LINE#         95
  C:A3FEH         LINE#         96
  C:A405H         LINE#         97
  C:A40DH         LINE#         98
  C:A426H         LINE#         99
  C:A426H         LINE#         100
  C:A429H         LINE#         101
  C:A429H         LINE#         102
  C:A430H         LINE#         103
  C:A43AH         LINE#         104
  C:A43FH         LINE#         105
  C:A43FH         LINE#         106
  C:A43FH         LINE#         107
  C:A442H         LINE#         108
BL51 BANKED LINKER/LOCATER V6.22.2.0                                                  06/09/2021  12:25:34  PAGE 34


  C:A442H         LINE#         109
  C:A449H         LINE#         110
  C:A45AH         LINE#         111
  C:A45AH         LINE#         112
  C:A462H         LINE#         113
  C:A462H         LINE#         114
  C:A462H         LINE#         115
  C:A465H         LINE#         116
  C:A475H         LINE#         117
  C:A477H         LINE#         118
  C:A47CH         LINE#         119
  -------         ENDPROC       _LEE_CLK
  -------         PROC          _WR_CLK
  X:0018H         SYMBOL        dir_clk
  X:0019H         SYMBOL        byte
  C:BE8DH         LINE#         121
  C:BE95H         LINE#         122
  C:BE97H         LINE#         123
  C:BE9EH         LINE#         124
  C:BEA6H         LINE#         125
  C:BEAFH         LINE#         126
  C:BEB2H         LINE#         127
  C:BEB4H         LINE#         129
  -------         ENDPROC       _WR_CLK
  C:B8C9H         SYMBOL        L?0079
  C:B8E7H         SYMBOL        L?0080
  -------         PROC          L?0078
  -------         ENDPROC       L?0078
  C:B8C9H         SYMBOL        L?0079
  C:B8E7H         SYMBOL        L?0080
  -------         PROC          _TWO_ONE
  D:0007H         SYMBOL        byte_h
  D:0005H         SYMBOL        byte_l
  -------         DO            
  D:0007H         SYMBOL        byte_out
  -------         ENDDO         
  C:B8FDH         LINE#         131
  C:B8FDH         LINE#         132
  C:B8FDH         LINE#         134
  C:B900H         LINE#         135
  C:B904H         LINE#         136
  C:B907H         LINE#         137
  C:B909H         LINE#         138
  C:B909H         LINE#         139
  -------         ENDPROC       _TWO_ONE
  -------         PROC          _VALIDAR_CLK
  D:0001H         SYMBOL        datos_clock
  -------         DO            
  D:0007H         SYMBOL        validador
  -------         ENDDO         
  C:789BH         LINE#         143
  C:789BH         LINE#         144
  C:789BH         LINE#         145
  C:789DH         LINE#         148
  C:78B2H         LINE#         149
  C:78B2H         LINE#         151
  C:78CAH         LINE#         152
BL51 BANKED LINKER/LOCATER V6.22.2.0                                                  06/09/2021  12:25:34  PAGE 35


  C:78CAH         LINE#         154
  C:78E2H         LINE#         155
  C:78E2H         LINE#         156
  C:78FAH         LINE#         157
  C:78FAH         LINE#         158
  C:7912H         LINE#         159
  C:7912H         LINE#         160
  C:7927H         LINE#         161
  C:7927H         LINE#         162
  C:7939H         LINE#         163
  C:7939H         LINE#         164
  C:794BH         LINE#         165
  C:794BH         LINE#         166
  C:795DH         LINE#         167
  C:795DH         LINE#         168
  C:796FH         LINE#         169
  C:796FH         LINE#         170
  C:7981H         LINE#         171
  C:7981H         LINE#         172
  C:7991H         LINE#         173
  C:7991H         LINE#         174
  C:7991H         LINE#         175
  C:7991H         LINE#         176
  C:7992H         LINE#         178
  C:7992H         LINE#         179
  C:7994H         LINE#         180
  C:7994H         LINE#         181
  C:7995H         LINE#         183
  C:7995H         LINE#         184
  C:7997H         LINE#         186
  C:7997H         LINE#         187
  C:7998H         LINE#         189
  C:7998H         LINE#         190
  C:799AH         LINE#         192
  C:799AH         LINE#         194
  C:799BH         LINE#         196
  C:799BH         LINE#         197
  C:799DH         LINE#         199
  C:799DH         LINE#         200
  C:799EH         LINE#         202
  C:799EH         LINE#         203
  C:79A0H         LINE#         205
  C:79A0H         LINE#         206
  C:79A1H         LINE#         208
  C:79A1H         LINE#         209
  C:79A3H         LINE#         211
  C:79A3H         LINE#         212
  C:79A4H         LINE#         214
  C:79A4H         LINE#         215
  C:79A6H         LINE#         217
  C:79A6H         LINE#         218
  C:79A6H         LINE#         220
  C:79A7H         LINE#         222
  C:79A7H         LINE#         223
  C:79A9H         LINE#         225
  C:79A9H         LINE#         227
  C:79AAH         LINE#         230
BL51 BANKED LINKER/LOCATER V6.22.2.0                                                  06/09/2021  12:25:34  PAGE 36


  C:79AAH         LINE#         231
  C:79ACH         LINE#         233
  C:79ACH         LINE#         235
  C:79ADH         LINE#         238
  C:79ADH         LINE#         239
  C:79AFH         LINE#         241
  C:79AFH         LINE#         243
  C:79AFH         LINE#         245
  -------         ENDPROC       _VALIDAR_CLK
  -------         PROC          _BLOCK_WRITE_CLOCK_ASCII
  X:0015H         SYMBOL        datos_clock
  -------         DO            
  D:0007H         SYMBOL        temp
  -------         ENDDO         
  C:9DF3H         LINE#         251
  C:9DFEH         LINE#         253
  C:9DFEH         LINE#         256
  C:9E07H         LINE#         257
  C:9E10H         LINE#         259
  C:9E1AH         LINE#         260
  C:9E1AH         LINE#         261
  C:9E1AH         LINE#         262
  C:9E1AH         LINE#         264
  C:9E24H         LINE#         265
  C:9E2EH         LINE#         266
  C:9E38H         LINE#         267
  C:9E38H         LINE#         268
  C:9E38H         LINE#         269
  C:9E38H         LINE#         271
  C:9E42H         LINE#         272
  C:9E42H         LINE#         273
  C:9E42H         LINE#         274
  C:9E42H         LINE#         276
  C:9E4CH         LINE#         277
  C:9E4CH         LINE#         278
  C:9E4CH         LINE#         279
  C:9E4CH         LINE#         281
  C:9E56H         LINE#         282
  C:9E56H         LINE#         283
  C:9E56H         LINE#         284
  C:9E56H         LINE#         286
  C:9E60H         LINE#         287
  C:9E6AH         LINE#         288
  C:9E74H         LINE#         289
  C:9E7EH         LINE#         291
  C:9E8EH         LINE#         292
  -------         ENDPROC       _BLOCK_WRITE_CLOCK_ASCII
  -------         PROC          _BCD_HEX
  D:0007H         SYMBOL        l_data
  -------         DO            
  D:0006H         SYMBOL        temp
  D:0005H         SYMBOL        j
  -------         ENDDO         
  C:C0A4H         LINE#         298
  C:C0A4H         LINE#         299
  C:C0A4H         LINE#         301
  C:C0A6H         LINE#         302
BL51 BANKED LINKER/LOCATER V6.22.2.0                                                  06/09/2021  12:25:34  PAGE 37


  C:C0AAH         LINE#         303
  C:C0ADH         LINE#         304
  C:C0AFH         LINE#         305
  C:C0AFH         LINE#         306
  C:C0B3H         LINE#         307
  C:C0BAH         LINE#         308
  C:C0BAH         LINE#         309
  C:C0BEH         LINE#         310
  C:C0C1H         LINE#         311
  C:C0C1H         LINE#         312
  C:C0C1H         LINE#         313
  -------         ENDPROC       _BCD_HEX
  C:BA52H         SYMBOL        L?0082
  -------         PROC          L?0081
  -------         ENDPROC       L?0081
  C:BA52H         SYMBOL        L?0082
  -------         PROC          _HEX_BCD
  D:0007H         SYMBOL        byte
  -------         DO            
  D:0006H         SYMBOL        nibble_h
  D:0005H         SYMBOL        nibble_l
  D:0004H         SYMBOL        k
  D:0007H         SYMBOL        byte_out
  -------         ENDDO         
  C:BA61H         LINE#         317
  C:BA61H         LINE#         318
  C:BA61H         LINE#         323
  C:BA63H         LINE#         324
  C:BA64H         LINE#         326
  C:BA6AH         LINE#         327
  C:BA6AH         LINE#         328
  C:BA6BH         LINE#         329
  C:BA70H         LINE#         330
  C:BA70H         LINE#         331
  C:BA71H         LINE#         332
  C:BA72H         LINE#         333
  C:BA72H         LINE#         334
  C:BA75H         LINE#         335
  C:BA79H         LINE#         336
  C:BA7CH         LINE#         337
  C:BA7FH         LINE#         338
  C:BA81H         LINE#         339
  C:BA81H         LINE#         341
  -------         ENDPROC       _HEX_BCD
  -------         PROC          _HEX_ASCII
  X:005DH         SYMBOL        datos
  X:0060H         SYMBOL        fecha_asii
  -------         DO            
  D:0007H         SYMBOL        dato
  -------         ENDDO         
  C:A2CBH         LINE#         342
  C:A2D6H         LINE#         343
  C:A2D6H         LINE#         347
  C:A2D9H         LINE#         348
  C:A2F1H         LINE#         349
  C:A306H         LINE#         350
  C:A306H         LINE#         352
BL51 BANKED LINKER/LOCATER V6.22.2.0                                                  06/09/2021  12:25:34  PAGE 38


  C:A309H         LINE#         353
  C:A324H         LINE#         354
  C:A32CH         LINE#         355
  C:A32CH         LINE#         357
  C:A32FH         LINE#         358
  C:A34AH         LINE#         359
  C:A355H         LINE#         361
  -------         ENDPROC       _HEX_ASCII
  -------         PROC          _BYTEHEX_DECIMAL
  D:0001H         SYMBOL        buffer
  D:0005H         SYMBOL        valorhex
  -------         DO            
  X:0015H         SYMBOL        numero
  D:0007H         SYMBOL        centena
  D:0006H         SYMBOL        decena
  -------         ENDDO         
  C:B23DH         LINE#         369
  C:B23DH         LINE#         370
  C:B23DH         LINE#         373
  C:B23FH         LINE#         374
  C:B240H         LINE#         375
  C:B245H         LINE#         377
  C:B252H         LINE#         378
  C:B252H         LINE#         379
  C:B256H         LINE#         380
  C:B257H         LINE#         381
  C:B259H         LINE#         382
  C:B25FH         LINE#         383
  C:B266H         LINE#         384
  C:B273H         LINE#         385
  C:B273H         LINE#         386
  C:B277H         LINE#         387
  C:B278H         LINE#         388
  C:B27AH         LINE#         389
  C:B280H         LINE#         390
  C:B287H         LINE#         391
  C:B290H         LINE#         392
  C:B297H         LINE#         393
  -------         ENDPROC       _BYTEHEX_DECIMAL
  -------         PROC          _TWO_BYTEHEX_DECIMAL
  X:0015H         SYMBOL        buffer
  X:0018H         SYMBOL        id_h
  X:0019H         SYMBOL        id_l
  -------         DO            
  X:001AH         SYMBOL        valor
  D:0006H         SYMBOL        numero
  X:001CH         SYMBOL        temp
  X:001DH         SYMBOL        dmil
  X:001EH         SYMBOL        mil
  X:001FH         SYMBOL        centena
  X:0020H         SYMBOL        decena
  -------         ENDDO         
  C:477BH         LINE#         400
  C:4789H         LINE#         401
  C:4789H         LINE#         405
  C:4790H         LINE#         406
  C:4794H         LINE#         407
BL51 BANKED LINKER/LOCATER V6.22.2.0                                                  06/09/2021  12:25:34  PAGE 39


  C:4796H         LINE#         408
  C:4798H         LINE#         409
  C:479AH         LINE#         412
  C:479FH         LINE#         413
  C:47A2H         LINE#         414
  C:47A8H         LINE#         416
  C:4803H         LINE#         417
  C:480BH         LINE#         418
  C:480EH         LINE#         419
  C:4869H         LINE#         421
  C:4871H         LINE#         422
  C:4874H         LINE#         423
  C:487AH         LINE#         424
  C:48D5H         LINE#         425
  C:48DDH         LINE#         426
  C:48E0H         LINE#         427
  C:493BH         LINE#         428
  C:493BH         LINE#         430
  C:4944H         LINE#         431
  C:4944H         LINE#         432
  C:494CH         LINE#         433
  C:4952H         LINE#         434
  C:4954H         LINE#         435
  C:496AH         LINE#         436
  C:4974H         LINE#         437
  C:497DH         LINE#         438
  C:497DH         LINE#         439
  C:4985H         LINE#         440
  C:498BH         LINE#         441
  C:498DH         LINE#         442
  C:49A3H         LINE#         443
  C:49ADH         LINE#         444
  C:49B6H         LINE#         445
  C:49B6H         LINE#         446
  C:49BEH         LINE#         447
  C:49C4H         LINE#         448
  C:49C6H         LINE#         449
  C:49DCH         LINE#         450
  C:49E6H         LINE#         451
  C:49EFH         LINE#         452
  C:49EFH         LINE#         453
  C:49F7H         LINE#         454
  C:49FDH         LINE#         455
  C:49FFH         LINE#         456
  C:4A15H         LINE#         457
  C:4A1FH         LINE#         458
  C:4A32H         LINE#         459
  C:4A3CH         LINE#         460
  -------         ENDPROC       _TWO_BYTEHEX_DECIMAL
  -------         PROC          _BLOCK_READ_CLOCK_ASCII
  X:0051H         SYMBOL        datos_clock
  -------         DO            
  D:0007H         SYMBOL        dato
  -------         ENDDO         
  C:675FH         LINE#         466
  C:6762H         LINE#         467
  C:6762H         LINE#         473
BL51 BANKED LINKER/LOCATER V6.22.2.0                                                  06/09/2021  12:25:34  PAGE 40


  C:6765H         LINE#         474
  C:677DH         LINE#         475
  C:6787H         LINE#         476
  C:679CH         LINE#         477
  C:67A6H         LINE#         480
  C:67ABH         LINE#         481
  C:67C3H         LINE#         482
  C:67CDH         LINE#         483
  C:67E2H         LINE#         484
  C:67ECH         LINE#         487
  C:67F1H         LINE#         488
  C:6809H         LINE#         489
  C:6813H         LINE#         490
  C:6828H         LINE#         491
  C:6832H         LINE#         495
  C:6837H         LINE#         496
  C:684FH         LINE#         497
  C:6859H         LINE#         498
  C:686EH         LINE#         499
  C:6878H         LINE#         502
  C:687DH         LINE#         503
  C:6895H         LINE#         504
  C:689FH         LINE#         505
  C:68B4H         LINE#         506
  C:68BEH         LINE#         507
  -------         ENDPROC       _BLOCK_READ_CLOCK_ASCII
  -------         PROC          _BLOCK_READ_CLOCK_ASCII_RASBERRY
  X:0022H         SYMBOL        datos_clock
  -------         DO            
  D:0007H         SYMBOL        dato
  -------         ENDDO         
  C:608DH         LINE#         510
  C:6098H         LINE#         511
  C:6098H         LINE#         516
  C:609DH         LINE#         517
  C:60B5H         LINE#         518
  C:60BFH         LINE#         519
  C:60D4H         LINE#         520
  C:60DEH         LINE#         523
  C:60E3H         LINE#         524
  C:60FBH         LINE#         525
  C:6105H         LINE#         526
  C:611AH         LINE#         527
  C:6124H         LINE#         531
  C:6129H         LINE#         532
  C:6141H         LINE#         533
  C:614BH         LINE#         534
  C:6160H         LINE#         535
  C:616AH         LINE#         540
  C:616FH         LINE#         541
  C:6187H         LINE#         542
  C:6191H         LINE#         543
  C:61A6H         LINE#         544
  C:61B0H         LINE#         547
  C:61B5H         LINE#         548
  C:61CDH         LINE#         549
  C:61D7H         LINE#         550
BL51 BANKED LINKER/LOCATER V6.22.2.0                                                  06/09/2021  12:25:34  PAGE 41


  C:61ECH         LINE#         551
  C:61F6H         LINE#         552
  C:6206H         LINE#         553
  C:6210H         LINE#         556
  C:6215H         LINE#         557
  C:622DH         LINE#         558
  C:6237H         LINE#         559
  C:624CH         LINE#         561
  C:6256H         LINE#         562
  -------         ENDPROC       _BLOCK_READ_CLOCK_ASCII_RASBERRY
  -------         PROC          _BLOCK_READ_CLOCK_HEX
  X:00AEH         SYMBOL        datos_clock
  C:9C04H         LINE#         566
  C:9C07H         LINE#         567
  C:9C07H         LINE#         570
  C:9C1CH         LINE#         571
  C:9C26H         LINE#         573
  C:9C3DH         LINE#         574
  C:9C47H         LINE#         576
  C:9C5EH         LINE#         577
  C:9C68H         LINE#         579
  C:9C7FH         LINE#         580
  C:9C89H         LINE#         582
  C:9CA0H         LINE#         583
  -------         ENDPROC       _BLOCK_READ_CLOCK_HEX
  -------         PROC          _HORA_ENTRADA_VEHICULO
  X:0005H         SYMBOL        Atributos_Expedidor
  C:AEDFH         LINE#         586
  C:AEE2H         LINE#         587
  C:AEE2H         LINE#         589
  C:AEF7H         LINE#         590
  C:AF0EH         LINE#         591
  C:AF25H         LINE#         592
  C:AF3CH         LINE#         593
  -------         ENDPROC       _HORA_ENTRADA_VEHICULO
  -------         PROC          _BLOCK_READ_CLOCK
  X:0022H         SYMBOL        datos_clock
  C:8FBDH         LINE#         599
  C:8FC0H         LINE#         600
  C:8FC0H         LINE#         602
  C:8FD2H         LINE#         603
  C:8FDCH         LINE#         605
  C:8FF0H         LINE#         606
  C:8FFAH         LINE#         608
  C:900EH         LINE#         609
  C:9018H         LINE#         611
  C:902CH         LINE#         612
  C:9036H         LINE#         614
  C:904AH         LINE#         615
  C:9054H         LINE#         617
  C:9068H         LINE#         618
  C:9072H         LINE#         619
  -------         ENDPROC       _BLOCK_READ_CLOCK
  -------         PROC          COND_INI_CLOCK
  C:C22EH         LINE#         622
  C:C22EH         LINE#         623
  C:C22EH         LINE#         624
BL51 BANKED LINKER/LOCATER V6.22.2.0                                                  06/09/2021  12:25:34  PAGE 42


  C:C230H         LINE#         625
  C:C232H         LINE#         626
  C:C234H         LINE#         627
  -------         ENDPROC       COND_INI_CLOCK
  -------         PROC          _CHECK_FECHAOUT
  X:009CH         SYMBOL        buffer
  -------         DO            
  X:009FH         SYMBOL        fecha_inicio
  X:00A3H         SYMBOL        fecha_fin
  X:00A7H         SYMBOL        datos_clk
  X:00ADH         SYMBOL        temp
  -------         ENDDO         
  C:8EF4H         LINE#         637
  C:8EFFH         LINE#         638
  C:8EFFH         LINE#         644
  C:8F08H         LINE#         645
  C:8F37H         LINE#         646
  C:8F8AH         LINE#         649
  C:8FAAH         LINE#         650
  C:8FAAH         LINE#         651
  C:8FB0H         LINE#         652
  C:8FB2H         LINE#         654
  C:8FB2H         LINE#         655
  C:8FB7H         LINE#         656
  C:8FB7H         LINE#         660
  C:8FBCH         LINE#         661
  -------         ENDPROC       _CHECK_FECHAOUT
  -------         ENDMOD        CLOCK

  -------         MODULE        DELAY
  C:0000H         SYMBOL        _ICE_DUMMY_
  C:BBEAH         PUBLIC        _Delay_10ms
  C:C161H         PUBLIC        _Delay_20us
  C:C0C2H         PUBLIC        _Delay_1ms
  C:C279H         PUBLIC        Delay
  -------         PROC          _DELAY_20US
  D:0006H         SYMBOL        cntd_us
  -------         DO            
  D:0004H         SYMBOL        i
  -------         ENDDO         
  C:C161H         LINE#         20
  C:C161H         LINE#         21
  C:C161H         LINE#         24
  C:C16BH         LINE#         26
  C:C172H         LINE#         27
  -------         ENDPROC       _DELAY_20US
  -------         PROC          _DELAY_1MS
  D:0002H         SYMBOL        cntd_ms
  -------         DO            
  D:0082H         SYMBOL        i
  -------         ENDDO         
  C:C0C2H         LINE#         38
  C:C0C6H         LINE#         39
  C:C0C6H         LINE#         41
  C:C0DCH         LINE#         42
  -------         ENDPROC       _DELAY_1MS
  -------         PROC          _DELAY_10MS
BL51 BANKED LINKER/LOCATER V6.22.2.0                                                  06/09/2021  12:25:34  PAGE 43


  X:001CH         SYMBOL        cntd_10ms
  -------         DO            
  X:001EH         SYMBOL        i
  -------         ENDDO         
  C:BBEAH         LINE#         54
  C:BBF2H         LINE#         55
  C:BBF2H         LINE#         57
  C:BC23H         LINE#         58
  -------         ENDPROC       _DELAY_10MS
  -------         PROC          DELAY
  C:C279H         LINE#         60
  C:C279H         LINE#         62
  -------         ENDPROC       DELAY
  -------         ENDMOD        DELAY

  -------         MODULE        EEPROM
  C:0000H         SYMBOL        _ICE_DUMMY_
  D:0090H         PUBLIC        P1
  C:84ABH         PUBLIC        _Write_EEprom_Ticket
  C:AFC4H         PUBLIC        _EscribirMemoria
  X:020DH         PUBLIC        l_chr
  C:C029H         PUBLIC        ackd
  B:0021H.6       PUBLIC        memory_flag
  B:00D0H.7       PUBLIC        CY
  C:C266H         PUBLIC        p_me
  C:C17BH         PUBLIC        start
  B:0090H.2       PUBLIC        sda
  C:C049H         PUBLIC        ack_lect
  B:0090H.3       PUBLIC        scl
  C:BA86H         PUBLIC        _rd_eeprom
  C:C208H         PUBLIC        stop
  C:BC96H         PUBLIC        Formato_eeprom
  X:020EH         PUBLIC        l_data_eeprom
  C:B3C6H         PUBLIC        _wr_eeprom
  C:B175H         PUBLIC        _LeerMemoria
  C:BD6CH         PUBLIC        Incremente_Ticket
  X:020FH         PUBLIC        byte_rd
  C:8E2AH         PUBLIC        Read_EEprom_Ticket
  C:BFC1H         PUBLIC        _e_d_m
  C:8C93H         PUBLIC        _graba_serie
  C:B4A6H         PUBLIC        Lee_No_Ticket
  C:B459H         PUBLIC        l_d_m
  -------         PROC          L?0062
  -------         ENDPROC       L?0062
  -------         PROC          ACKD
  -------         DO            
  D:0006H         SYMBOL        i
  -------         ENDDO         
  C:C029H         LINE#         37
  C:C029H         LINE#         38
  C:C029H         LINE#         40
  C:C02BH         LINE#         41
  C:C02DH         LINE#         42
  C:C02FH         LINE#         43
  C:C032H         LINE#         44
  C:C032H         LINE#         45
  C:C035H         LINE#         46
BL51 BANKED LINKER/LOCATER V6.22.2.0                                                  06/09/2021  12:25:34  PAGE 44


  C:C035H         LINE#         47
  C:C037H         LINE#         48
  C:C039H         LINE#         50
  C:C03AH         LINE#         51
  C:C03AH         LINE#         52
  C:C045H         LINE#         54
  C:C045H         LINE#         55
  C:C045H         LINE#         57
  C:C045H         LINE#         58
  -------         ENDPROC       ACKD
  -------         PROC          L?0066
  -------         ENDPROC       L?0066
  -------         PROC          ACK_LECT
  -------         DO            
  D:0006H         SYMBOL        i
  -------         ENDDO         
  C:C049H         LINE#         61
  C:C049H         LINE#         62
  C:C049H         LINE#         64
  C:C04BH         LINE#         65
  C:C04DH         LINE#         66
  C:C04FH         LINE#         67
  C:C052H         LINE#         68
  C:C052H         LINE#         69
  C:C055H         LINE#         70
  C:C055H         LINE#         71
  C:C057H         LINE#         72
  C:C059H         LINE#         73
  C:C05AH         LINE#         74
  C:C05AH         LINE#         75
  C:C065H         LINE#         76
  -------         ENDPROC       ACK_LECT
  -------         PROC          P_ME
  C:C266H         LINE#         78
  C:C266H         LINE#         79
  C:C266H         LINE#         80
  C:C268H         LINE#         81
  C:C269H         LINE#         82
  C:C26BH         LINE#         83
  -------         ENDPROC       P_ME
  -------         PROC          _E_D_M
  D:0007H         SYMBOL        a_serial_eeprom
  -------         DO            
  D:0006H         SYMBOL        nbits
  -------         ENDDO         
  C:BFC1H         LINE#         85
  C:BFC1H         LINE#         86
  C:BFC1H         LINE#         88
  C:BFCDH         LINE#         89
  C:BFCDH         LINE#         90
  C:BFD1H         LINE#         91
  C:BFD4H         LINE#         92
  C:BFD4H         LINE#         93
  C:BFD6H         LINE#         94
  C:BFD8H         LINE#         96
  C:BFD8H         LINE#         97
  C:BFDAH         LINE#         98
BL51 BANKED LINKER/LOCATER V6.22.2.0                                                  06/09/2021  12:25:34  PAGE 45


  C:BFDAH         LINE#         99
  C:BFDCH         LINE#         100
  C:BFDFH         LINE#         101
  C:BFE2H         LINE#         103
  -------         ENDPROC       _E_D_M
  -------         PROC          L?0063
  -------         ENDPROC       L?0063
  -------         PROC          START
  C:C17BH         LINE#         105
  C:C17BH         LINE#         106
  C:C17BH         LINE#         107
  C:C17DH         LINE#         108
  C:C17FH         LINE#         109
  C:C180H         LINE#         110
  C:C182H         LINE#         111
  C:C184H         LINE#         113
  -------         ENDPROC       START
  -------         PROC          STOP
  C:C208H         LINE#         115
  C:C208H         LINE#         116
  C:C208H         LINE#         117
  C:C20AH         LINE#         118
  C:C20CH         LINE#         119
  C:C20DH         LINE#         120
  C:C20FH         LINE#         121
  C:C211H         LINE#         123
  -------         ENDPROC       STOP
  -------         PROC          L_D_M
  -------         DO            
  D:0003H         SYMBOL        nbits
  -------         ENDDO         
  C:B459H         LINE#         125
  C:B459H         LINE#         126
  C:B459H         LINE#         128
  C:B466H         LINE#         129
  C:B466H         LINE#         130
  C:B468H         LINE#         131
  C:B46BH         LINE#         132
  C:B46BH         LINE#         133
  C:B472H         LINE#         134
  C:B47BH         LINE#         135
  C:B47BH         LINE#         136
  C:B47FH         LINE#         137
  C:B481H         LINE#         138
  C:B481H         LINE#         139
  C:B481H         LINE#         140
  C:B484H         LINE#         141
  C:B484H         LINE#         142
  C:B48BH         LINE#         143
  C:B495H         LINE#         144
  C:B495H         LINE#         145
  C:B499H         LINE#         146
  C:B49BH         LINE#         147
  C:B49BH         LINE#         148
  C:B49BH         LINE#         149
  C:B49EH         LINE#         150
  C:B4A0H         LINE#         151
BL51 BANKED LINKER/LOCATER V6.22.2.0                                                  06/09/2021  12:25:34  PAGE 46


  C:B4A5H         LINE#         152
  -------         ENDPROC       L_D_M
  -------         PROC          L?0061
  -------         ENDPROC       L?0061
  -------         PROC          _WR_EEPROM
  D:0002H         SYMBOL        control
  D:0004H         SYMBOL        Dir
  D:0003H         SYMBOL        data_eeprom
  -------         DO            
  D:0005H         SYMBOL        dir_h
  D:0001H         SYMBOL        dir_l
  -------         ENDDO         
  C:B3C6H         LINE#         158
  C:B3C8H         LINE#         159
  C:B3C8H         LINE#         161
  C:B3CCH         LINE#         162
  C:B3CCH         LINE#         163
  C:B3CCH         LINE#         166
  C:B3CCH         LINE#         167
  C:B3CCH         LINE#         169
  C:B3CFH         LINE#         170
  C:B3D1H         LINE#         171
  C:B3D4H         LINE#         172
  C:B3D6H         LINE#         173
  C:B3D9H         LINE#         174
  C:B3DEH         LINE#         175
  C:B3E1H         LINE#         176
  C:B3E6H         LINE#         177
  C:B3E9H         LINE#         178
  C:B3ECH         LINE#         179
  C:B3F3H         LINE#         181
  C:B3F5H         LINE#         182
  C:B3F7H         LINE#         183
  C:B3FEH         LINE#         184
  -------         ENDPROC       _WR_EEPROM
  C:BA82H         SYMBOL        L?0065
  -------         PROC          L?0064
  -------         ENDPROC       L?0064
  C:BA82H         SYMBOL        L?0065
  -------         PROC          _RD_EEPROM
  D:0003H         SYMBOL        control
  D:0004H         SYMBOL        Dir
  -------         DO            
  D:0005H         SYMBOL        dir_h
  D:0002H         SYMBOL        dir_l
  -------         ENDDO         
  C:BA86H         LINE#         222
  C:BA88H         LINE#         223
  C:BA88H         LINE#         226
  C:BA8CH         LINE#         227
  C:BA8CH         LINE#         228
  C:BA8CH         LINE#         230
  C:BA8CH         LINE#         231
  C:BA8CH         LINE#         233
  C:BA8FH         LINE#         234
  C:BA91H         LINE#         235
  C:BA94H         LINE#         236
BL51 BANKED LINKER/LOCATER V6.22.2.0                                                  06/09/2021  12:25:34  PAGE 47


  C:BA96H         LINE#         237
  C:BA99H         LINE#         238
  C:BA9EH         LINE#         239
  C:BAA1H         LINE#         240
  C:BAA4H         LINE#         241
  C:BAAAH         LINE#         242
  C:BAADH         LINE#         243
  C:BAAFH         LINE#         244
  C:BAB2H         LINE#         245
  C:BAB5H         LINE#         246
  C:BAB7H         LINE#         247
  C:BAB9H         LINE#         248
  C:BABEH         LINE#         249
  -------         ENDPROC       _RD_EEPROM
  -------         PROC          _GRABA_SERIE
  X:0015H         SYMBOL        buffer
  -------         DO            
  X:0018H         SYMBOL        j
  X:0019H         SYMBOL        error
  -------         ENDDO         
  C:8C93H         LINE#         256
  C:8C9EH         LINE#         257
  C:8C9EH         LINE#         260
  C:8CA3H         LINE#         265
  C:8CB5H         LINE#         267
  C:8CC8H         LINE#         268
  C:8CC8H         LINE#         269
  C:8CF1H         LINE#         270
  C:8CF1H         LINE#         271
  C:8CF7H         LINE#         273
  C:8D00H         LINE#         274
  C:8D0EH         LINE#         275
  C:8D17H         LINE#         276
  C:8D17H         LINE#         278
  C:8D1FH         LINE#         282
  C:8D25H         LINE#         283
  C:8D25H         LINE#         284
  C:8D33H         LINE#         286
  C:8D33H         LINE#         288
  C:8D33H         LINE#         289
  C:8D3DH         LINE#         290
  C:8D48H         LINE#         291
  C:8D53H         LINE#         292
  C:8D5EH         LINE#         294
  C:8D5EH         LINE#         295
  -------         ENDPROC       _GRABA_SERIE
  -------         PROC          _WRITE_EEPROM_TICKET
  X:001AH         SYMBOL        buffer
  -------         DO            
  X:001DH         SYMBOL        cod_3
  X:001EH         SYMBOL        cod_2
  X:001FH         SYMBOL        cod_1
  X:0020H         SYMBOL        cod_0
  X:0021H         SYMBOL        Noticket
  D:0004H         SYMBOL        Bnoticket
  -------         ENDDO         
  C:84ABH         LINE#         296
BL51 BANKED LINKER/LOCATER V6.22.2.0                                                  06/09/2021  12:25:34  PAGE 48


  C:84B6H         LINE#         297
  C:84B6H         LINE#         299
  C:84BEH         LINE#         300
  C:84C7H         LINE#         301
  C:84D5H         LINE#         302
  C:84DEH         LINE#         303
  C:84F2H         LINE#         305
  C:84FBH         LINE#         306
  C:850EH         LINE#         307
  C:8513H         LINE#         308
  C:8516H         LINE#         310
  C:8529H         LINE#         311
  C:852EH         LINE#         312
  C:8531H         LINE#         314
  C:8544H         LINE#         315
  C:8549H         LINE#         316
  C:854CH         LINE#         318
  C:8558H         LINE#         319
  C:855BH         LINE#         320
  C:8564H         LINE#         322
  C:8572H         LINE#         323
  C:8580H         LINE#         324
  C:858EH         LINE#         325
  -------         ENDPROC       _WRITE_EEPROM_TICKET
  -------         PROC          LEE_NO_TICKET
  -------         DO            
  D:0004H         SYMBOL        Noticket
  X:0048H         SYMBOL        Lee_No_Ticket
  D:0007H         SYMBOL        num_chr
  -------         ENDDO         
  C:B4A6H         LINE#         330
  C:B4A6H         LINE#         331
  C:B4A6H         LINE#         335
  C:B4A9H         LINE#         336
  C:B4C4H         LINE#         337
  C:B4CDH         LINE#         338
  C:B4D9H         LINE#         339
  C:B4E2H         LINE#         340
  C:B4EBH         LINE#         341
  C:B4F1H         LINE#         342
  -------         ENDPROC       LEE_NO_TICKET
  -------         PROC          READ_EEPROM_TICKET
  -------         DO            
  D:0001H         SYMBOL        cod3
  X:0053H         SYMBOL        cod2
  X:0054H         SYMBOL        cod1
  X:0055H         SYMBOL        cod0
  X:0056H         SYMBOL        Noticket
  -------         ENDDO         
  C:8E2AH         LINE#         346
  C:8E2AH         LINE#         347
  C:8E2AH         LINE#         349
  C:8E34H         LINE#         350
  C:8E3BH         LINE#         351
  C:8E45H         LINE#         352
  C:8E53H         LINE#         353
  C:8E5DH         LINE#         355
BL51 BANKED LINKER/LOCATER V6.22.2.0                                                  06/09/2021  12:25:34  PAGE 49


  C:8E7DH         LINE#         356
  C:8EA2H         LINE#         357
  C:8EC7H         LINE#         358
  C:8EE5H         LINE#         359
  C:8EF3H         LINE#         360
  -------         ENDPROC       READ_EEPROM_TICKET
  -------         PROC          INCREMENTE_TICKET
  -------         DO            
  D:0004H         SYMBOL        Noticket
  X:0009H         SYMBOL        Lee_No_Ticket
  -------         ENDDO         
  C:BD6CH         LINE#         364
  C:BD6CH         LINE#         365
  C:BD6CH         LINE#         369
  C:BD6FH         LINE#         370
  C:BD7CH         LINE#         371
  C:BD97H         LINE#         372
  -------         ENDPROC       INCREMENTE_TICKET
  -------         PROC          _LEERMEMORIA
  X:009CH         SYMBOL        addres
  X:009EH         SYMBOL        res
  -------         DO            
  D:0007H         SYMBOL        i
  -------         ENDDO         
  C:B175H         LINE#         378
  C:B186H         LINE#         379
  C:B186H         LINE#         381
  C:B186H         LINE#         382
  C:B1A2H         LINE#         383
  C:B1B1H         LINE#         384
  C:B1BFH         LINE#         385
  C:B1C9H         LINE#         386
  C:B1CCH         LINE#         387
  -------         ENDPROC       _LEERMEMORIA
  -------         PROC          _ESCRIBIRMEMORIA
  X:005DH         SYMBOL        addres
  X:005FH         SYMBOL        res
  C:AFC4H         LINE#         389
  C:AFD5H         LINE#         390
  C:AFD5H         LINE#         393
  C:AFE5H         LINE#         394
  C:AFECH         LINE#         395
  C:AFEFH         LINE#         397
  C:AFFDH         LINE#         398
  C:B007H         LINE#         399
  C:B009H         LINE#         400
  C:B00CH         LINE#         401
  C:B01AH         LINE#         402
  C:B024H         LINE#         403
  -------         ENDPROC       _ESCRIBIRMEMORIA
  -------         PROC          FORMATO_EEPROM
  -------         DO            
  X:0015H         SYMBOL        dato
  X:0016H         SYMBOL        i
  -------         ENDDO         
  C:BC96H         LINE#         406
  C:BC96H         LINE#         407
BL51 BANKED LINKER/LOCATER V6.22.2.0                                                  06/09/2021  12:25:34  PAGE 50


  C:BC96H         LINE#         408
  C:BC9CH         LINE#         410
  C:BCB1H         LINE#         411
  C:BCB1H         LINE#         412
  C:BCBBH         LINE#         413
  C:BCCBH         LINE#         414
  -------         ENDPROC       FORMATO_EEPROM
  -------         ENDMOD        EEPROM

  -------         MODULE        IO_SENSORES
  C:0000H         SYMBOL        _ICE_DUMMY_
  D:0090H         PUBLIC        P1
  D:00B0H         PUBLIC        P3
  C:B803H         PUBLIC        Dir_board
  B:0021H.7       PUBLIC        PULSADOR_BOTTON
  C:C243H         PUBLIC        sel_Pulsa
  B:0090H.1       PUBLIC        DataIn
  C:C123H         PUBLIC        Dir_Board_Monitor
  C:C23CH         PUBLIC        sel_Auto
  C:BC5EH         PUBLIC        ValidaSensoresPaso
  B:00B0H.3       PUBLIC        busy
  C:C066H         PUBLIC        ValidaSensor
  C:C251H         PUBLIC        sel_Sensor1
  C:C24AH         PUBLIC        sel_Sensor2
  C:BFE3H         PUBLIC        ValidaSensor_cero
  C:B354H         PUBLIC        Valida_Sensor1_Auto
  B:00B0H.5       PUBLIC        sel_A
  B:00B0H.6       PUBLIC        sel_B
  B:00B0H.7       PUBLIC        sel_C
  C:9956H         PUBLIC        msj_lcd_informativo
  C:C258H         PUBLIC        sel_Dir1
  C:C25FH         PUBLIC        sel_Dir2
  C:C185H         PUBLIC        Botton
  C:C235H         PUBLIC        sel_Funcion
  -------         PROC          SEL_FUNCION
  C:C235H         LINE#         34
  C:C235H         LINE#         35
  C:C235H         LINE#         36
  C:C237H         LINE#         37
  C:C239H         LINE#         38
  C:C23BH         LINE#         39
  -------         ENDPROC       SEL_FUNCION
  -------         PROC          SEL_AUTO
  C:C23CH         LINE#         41
  C:C23CH         LINE#         42
  C:C23CH         LINE#         43
  C:C23EH         LINE#         44
  C:C240H         LINE#         45
  C:C242H         LINE#         46
  -------         ENDPROC       SEL_AUTO
  -------         PROC          SEL_PULSA
  C:C243H         LINE#         48
  C:C243H         LINE#         49
  C:C243H         LINE#         50
  C:C245H         LINE#         51
  C:C247H         LINE#         52
  C:C249H         LINE#         53
BL51 BANKED LINKER/LOCATER V6.22.2.0                                                  06/09/2021  12:25:34  PAGE 51


  -------         ENDPROC       SEL_PULSA
  -------         PROC          SEL_SENSOR2
  C:C24AH         LINE#         56
  C:C24AH         LINE#         57
  C:C24AH         LINE#         58
  C:C24CH         LINE#         59
  C:C24EH         LINE#         60
  C:C250H         LINE#         61
  -------         ENDPROC       SEL_SENSOR2
  -------         PROC          SEL_SENSOR1
  C:C251H         LINE#         63
  C:C251H         LINE#         64
  C:C251H         LINE#         65
  C:C253H         LINE#         66
  C:C255H         LINE#         67
  C:C257H         LINE#         68
  -------         ENDPROC       SEL_SENSOR1
  -------         PROC          SEL_DIR1
  C:C258H         LINE#         70
  C:C258H         LINE#         71
  C:C258H         LINE#         72
  C:C25AH         LINE#         73
  C:C25CH         LINE#         74
  C:C25EH         LINE#         75
  -------         ENDPROC       SEL_DIR1
  -------         PROC          SEL_DIR2
  C:C25FH         LINE#         77
  C:C25FH         LINE#         78
  C:C25FH         LINE#         79
  C:C261H         LINE#         80
  C:C263H         LINE#         81
  C:C265H         LINE#         82
  -------         ENDPROC       SEL_DIR2
  -------         PROC          BOTTON
  C:C185H         LINE#         83
  C:C185H         LINE#         84
  C:C185H         LINE#         85
  C:C188H         LINE#         86
  C:C18BH         LINE#         87
  C:C18BH         LINE#         88
  C:C194H         LINE#         89
  C:C196H         LINE#         90
  C:C196H         LINE#         92
  -------         ENDPROC       BOTTON
  -------         PROC          VALIDASENSOR
  -------         DO            
  D:0007H         SYMBOL        Valido
  D:0004H         SYMBOL        Tmin
  -------         ENDDO         
  C:C066H         LINE#         94
  C:C066H         LINE#         95
  C:C066H         LINE#         97
  C:C068H         LINE#         98
  C:C06CH         LINE#         99
  C:C077H         LINE#         100
  C:C077H         LINE#         101
  C:C07CH         LINE#         102
BL51 BANKED LINKER/LOCATER V6.22.2.0                                                  06/09/2021  12:25:34  PAGE 52


  C:C080H         LINE#         103
  C:C080H         LINE#         104
  C:C082H         LINE#         105
  C:C082H         LINE#         106
  C:C084H         LINE#         107
  C:C084H         LINE#         108
  -------         ENDPROC       VALIDASENSOR
  -------         PROC          VALIDASENSOR_CERO
  -------         DO            
  D:0007H         SYMBOL        Valido
  D:0004H         SYMBOL        Tmin
  -------         ENDDO         
  C:BFE3H         LINE#         109
  C:BFE3H         LINE#         110
  C:BFE3H         LINE#         112
  C:BFE5H         LINE#         113
  C:BFE9H         LINE#         114
  C:BFF8H         LINE#         115
  C:BFF8H         LINE#         116
  C:BFFDH         LINE#         117
  C:C001H         LINE#         118
  C:C001H         LINE#         119
  C:C002H         LINE#         120
  C:C002H         LINE#         121
  C:C004H         LINE#         122
  C:C004H         LINE#         123
  -------         ENDPROC       VALIDASENSOR_CERO
  -------         PROC          DIR_BOARD
  -------         DO            
  X:0037H         SYMBOL        Board
  D:0007H         SYMBOL        Board_High
  -------         ENDDO         
  C:B803H         LINE#         127
  C:B803H         LINE#         128
  C:B803H         LINE#         129
  C:B809H         LINE#         131
  C:B80CH         LINE#         132
  C:B80FH         LINE#         133
  C:B80FH         LINE#         134
  C:B812H         LINE#         135
  C:B812H         LINE#         136
  C:B815H         LINE#         137
  C:B818H         LINE#         138
  C:B818H         LINE#         139
  C:B81FH         LINE#         140
  C:B81FH         LINE#         141
  C:B827H         LINE#         142
  C:B827H         LINE#         143
  C:B82FH         LINE#         145
  C:B832H         LINE#         146
  C:B832H         LINE#         147
  C:B838H         LINE#         148
  C:B838H         LINE#         149
  C:B83AH         LINE#         150
  C:B83CH         LINE#         151
  C:B83EH         LINE#         152
  C:B83EH         LINE#         154
BL51 BANKED LINKER/LOCATER V6.22.2.0                                                  06/09/2021  12:25:34  PAGE 53


  C:B83EH         LINE#         155
  C:B845H         LINE#         156
  -------         ENDPROC       DIR_BOARD
  -------         PROC          DIR_BOARD_MONITOR
  -------         DO            
  D:0007H         SYMBOL        Board_High
  -------         ENDDO         
  C:C123H         LINE#         157
  C:C123H         LINE#         158
  C:C123H         LINE#         161
  C:C12CH         LINE#         162
  C:C12FH         LINE#         163
  C:C12FH         LINE#         164
  C:C132H         LINE#         165
  C:C132H         LINE#         166
  C:C134H         LINE#         167
  C:C134H         LINE#         168
  C:C134H         LINE#         169
  C:C138H         LINE#         170
  -------         ENDPROC       DIR_BOARD_MONITOR
  -------         PROC          VALIDA_SENSOR1_AUTO
  -------         DO            
  X:0016H         SYMBOL        sensor
  -------         ENDDO         
  C:B354H         LINE#         174
  C:B354H         LINE#         175
  C:B354H         LINE#         177
  C:B357H         LINE#         178
  C:B35AH         LINE#         179
  C:B35DH         LINE#         180
  C:B362H         LINE#         181
  C:B362H         LINE#         182
  C:B369H         LINE#         183
  C:B36DH         LINE#         184
  C:B36DH         LINE#         185
  C:B36DH         LINE#         186
  C:B36FH         LINE#         188
  C:B36FH         LINE#         189
  C:B376H         LINE#         190
  C:B37BH         LINE#         191
  C:B37BH         LINE#         192
  C:B37BH         LINE#         193
  C:B37BH         LINE#         196
  C:B37DH         LINE#         198
  C:B380H         LINE#         199
  C:B385H         LINE#         200
  C:B385H         LINE#         202
  C:B38CH         LINE#         203
  C:B392H         LINE#         204
  C:B398H         LINE#         205
  C:B39BH         LINE#         206
  C:B39DH         LINE#         208
  C:B39DH         LINE#         209
  C:B3A4H         LINE#         210
  C:B3A9H         LINE#         211
  C:B3A9H         LINE#         214
  C:B3A9H         LINE#         216
BL51 BANKED LINKER/LOCATER V6.22.2.0                                                  06/09/2021  12:25:34  PAGE 54


  C:B3AEH         LINE#         217
  -------         ENDPROC       VALIDA_SENSOR1_AUTO
  -------         PROC          VALIDASENSORESPASO
  -------         DO            
  X:0015H         SYMBOL        sensor
  -------         ENDDO         
  C:BC5EH         LINE#         222
  C:BC5EH         LINE#         223
  C:BC5EH         LINE#         225
  C:BC61H         LINE#         226
  C:BC64H         LINE#         227
  C:BC64H         LINE#         228
  C:BC72H         LINE#         229
  C:BC72H         LINE#         230
  C:BC7AH         LINE#         232
  C:BC7CH         LINE#         234
  C:BC7CH         LINE#         235
  C:BC82H         LINE#         236
  C:BC84H         LINE#         237
  C:BC84H         LINE#         238
  C:BC84H         LINE#         239
  C:BC84H         LINE#         240
  C:BC8DH         LINE#         241
  C:BC90H         LINE#         242
  C:BC90H         LINE#         243
  C:BC95H         LINE#         244
  -------         ENDPROC       VALIDASENSORESPASO
  -------         PROC          MSJ_LCD_INFORMATIVO
  -------         DO            
  X:0216H         SYMBOL        contador
  X:0001H         SYMBOL        info
  X:0217H         SYMBOL        toggle
  -------         ENDDO         
  C:9956H         LINE#         257
  C:9956H         LINE#         258
  C:9956H         LINE#         260
  C:995BH         LINE#         262
  C:9961H         LINE#         263
  C:996EH         LINE#         264
  C:996EH         LINE#         266
  C:9970H         LINE#         267
  C:9973H         LINE#         268
  C:997FH         LINE#         269
  C:997FH         LINE#         270
  C:9989H         LINE#         271
  C:9989H         LINE#         273
  C:9992H         LINE#         274
  C:999AH         LINE#         275
  C:99A2H         LINE#         276
  C:99AEH         LINE#         277
  C:99AEH         LINE#         279
  C:99B1H         LINE#         280
  C:99B1H         LINE#         281
  C:99B3H         LINE#         282
  C:99B6H         LINE#         283
  C:99BCH         LINE#         284
  C:99BCH         LINE#         285
BL51 BANKED LINKER/LOCATER V6.22.2.0                                                  06/09/2021  12:25:34  PAGE 55


  C:99CAH         LINE#         286
  C:99CAH         LINE#         287
  C:99D0H         LINE#         288
  C:99D0H         LINE#         289
  C:99D2H         LINE#         290
  C:99E0H         LINE#         291
  C:99E0H         LINE#         292
  C:99E9H         LINE#         293
  C:99ECH         LINE#         294
  C:99ECH         LINE#         295
  C:99F1H         LINE#         296
  C:99F4H         LINE#         297
  C:99F9H         LINE#         298
  C:99F9H         LINE#         299
  C:99F9H         LINE#         300
  C:99F9H         LINE#         301
  C:99F9H         LINE#         302
  C:99FCH         LINE#         303
  C:99FFH         LINE#         304
  C:99FFH         LINE#         305
  C:9A04H         LINE#         306
  C:9A04H         LINE#         307
  C:9A04H         LINE#         308
  -------         ENDPROC       MSJ_LCD_INFORMATIVO
  -------         ENDMOD        IO_SENSORES

  -------         MODULE        PANTALLAS
  C:0000H         SYMBOL        _ICE_DUMMY_
  D:0080H         PUBLIC        P0
  C:AD6FH         PUBLIC        Reloj_Pantalla_Lcd
  C:2776H         PUBLIC        _PantallaLCD
  C:B7C7H         PUBLIC        _LCD_txt
  C:AA75H         PUBLIC        _Raspberry_data
  C:BF0EH         PUBLIC        _tx_chrlcd
  C:356BH         SYMBOL        _?ix1000
  C:3571H         SYMBOL        _?ix1001
  C:3577H         SYMBOL        _?ix1002
  C:359FH         SYMBOL        _?ix1003
  C:B6EEH         PUBLIC        _LCD_txt_num_char
  C:4D02H         PUBLIC        _PantallaLCD_LINEA_2
  B:0098H.4       PUBLIC        REN
  B:0080H.7       PUBLIC        sel_com
  -------         PROC          _PANTALLALCD
  X:002AH         SYMBOL        cod_msg
  -------         DO            
  X:002BH         SYMBOL        Ini_LCD_Line_one
  X:0031H         SYMBOL        num_chr
  X:0032H         SYMBOL        msjpantalla
  -------         ENDDO         
  C:2776H         LINE#         96
  C:277BH         LINE#         97
  C:277BH         LINE#         99
  C:278EH         LINE#         104
  C:2795H         LINE#         108
  C:2797H         LINE#         110
  C:27A0H         LINE#         111
  C:27A0H         LINE#         112
BL51 BANKED LINKER/LOCATER V6.22.2.0                                                  06/09/2021  12:25:34  PAGE 56


  C:27AAH         LINE#         114
  C:2806H         LINE#         115
  C:2806H         LINE#         117
  C:2806H         LINE#         118
  C:2814H         LINE#         119
  C:281AH         LINE#         120
  C:281DH         LINE#         121
  C:2823H         LINE#         122
  C:2826H         LINE#         124
  C:2826H         LINE#         126
  C:2834H         LINE#         127
  C:283AH         LINE#         128
  C:283DH         LINE#         129
  C:2843H         LINE#         130
  C:2846H         LINE#         132
  C:2846H         LINE#         134
  C:2854H         LINE#         135
  C:285AH         LINE#         136
  C:285DH         LINE#         137
  C:2863H         LINE#         138
  C:2866H         LINE#         139
  C:2866H         LINE#         140
  C:2874H         LINE#         141
  C:287AH         LINE#         142
  C:287DH         LINE#         143
  C:2883H         LINE#         144
  C:2886H         LINE#         145
  C:2886H         LINE#         146
  C:2894H         LINE#         147
  C:289AH         LINE#         148
  C:289DH         LINE#         149
  C:28A3H         LINE#         150
  C:28A6H         LINE#         151
  C:28A6H         LINE#         152
  C:28B4H         LINE#         153
  C:28BAH         LINE#         154
  C:28BDH         LINE#         155
  C:28C3H         LINE#         156
  C:28C6H         LINE#         157
  C:28C6H         LINE#         159
  C:28D4H         LINE#         160
  C:28DAH         LINE#         161
  C:28DDH         LINE#         162
  C:28E3H         LINE#         163
  C:28E6H         LINE#         164
  C:28E6H         LINE#         170
  C:28E6H         LINE#         171
  C:28F4H         LINE#         172
  C:28FAH         LINE#         173
  C:28FDH         LINE#         174
  C:2903H         LINE#         175
  C:2906H         LINE#         176
  C:2906H         LINE#         177
  C:2914H         LINE#         178
  C:291AH         LINE#         179
  C:291DH         LINE#         180
  C:2923H         LINE#         181
BL51 BANKED LINKER/LOCATER V6.22.2.0                                                  06/09/2021  12:25:34  PAGE 57


  C:2926H         LINE#         183
  C:2926H         LINE#         184
  C:2934H         LINE#         185
  C:293AH         LINE#         186
  C:293DH         LINE#         187
  C:2943H         LINE#         188
  C:2946H         LINE#         190
  C:2946H         LINE#         191
  C:2954H         LINE#         192
  C:295AH         LINE#         193
  C:295DH         LINE#         194
  C:2963H         LINE#         195
  C:2966H         LINE#         200
  C:2966H         LINE#         202
  C:2974H         LINE#         203
  C:297AH         LINE#         204
  C:297DH         LINE#         205
  C:2983H         LINE#         206
  C:2986H         LINE#         208
  C:2986H         LINE#         210
  C:2994H         LINE#         211
  C:299AH         LINE#         212
  C:299DH         LINE#         213
  C:29A3H         LINE#         214
  C:29A6H         LINE#         216
  C:29A6H         LINE#         217
  C:29B4H         LINE#         218
  C:29BAH         LINE#         219
  C:29BDH         LINE#         220
  C:29C3H         LINE#         221
  C:29C6H         LINE#         223
  C:29C6H         LINE#         225
  C:29D4H         LINE#         226
  C:29DAH         LINE#         227
  C:29DDH         LINE#         228
  C:29E3H         LINE#         229
  C:29E6H         LINE#         231
  C:29E6H         LINE#         233
  C:29F4H         LINE#         234
  C:29FAH         LINE#         235
  C:29FDH         LINE#         236
  C:2A03H         LINE#         237
  C:2A06H         LINE#         239
  C:2A06H         LINE#         240
  C:2A14H         LINE#         241
  C:2A1AH         LINE#         242
  C:2A1DH         LINE#         243
  C:2A23H         LINE#         244
  C:2A26H         LINE#         246
  C:2A26H         LINE#         247
  C:2A34H         LINE#         248
  C:2A3AH         LINE#         249
  C:2A3DH         LINE#         250
  C:2A43H         LINE#         251
  C:2A46H         LINE#         253
  C:2A46H         LINE#         255
  C:2A54H         LINE#         256
BL51 BANKED LINKER/LOCATER V6.22.2.0                                                  06/09/2021  12:25:34  PAGE 58


  C:2A5AH         LINE#         257
  C:2A5DH         LINE#         258
  C:2A63H         LINE#         259
  C:2A66H         LINE#         261
  C:2A66H         LINE#         262
  C:2A74H         LINE#         263
  C:2A7AH         LINE#         264
  C:2A7DH         LINE#         265
  C:2A83H         LINE#         266
  C:2A86H         LINE#         267
  C:2A86H         LINE#         268
  C:2A94H         LINE#         269
  C:2A9AH         LINE#         270
  C:2A9DH         LINE#         271
  C:2AA3H         LINE#         272
  C:2AA6H         LINE#         273
  C:2AA6H         LINE#         274
  C:2AB4H         LINE#         275
  C:2ABAH         LINE#         276
  C:2ABDH         LINE#         277
  C:2AC3H         LINE#         278
  C:2AC6H         LINE#         279
  C:2AC6H         LINE#         280
  C:2AD4H         LINE#         281
  C:2AD7H         LINE#         282
  C:2ADDH         LINE#         283
  C:2ADFH         LINE#         287
  C:2ADFH         LINE#         288
  C:2AEDH         LINE#         289
  C:2AF3H         LINE#         290
  C:2AF6H         LINE#         291
  C:2AFCH         LINE#         292
  C:2AFEH         LINE#         293
  C:2AFEH         LINE#         294
  C:2B0CH         LINE#         295
  C:2B12H         LINE#         296
  C:2B15H         LINE#         297
  C:2B1BH         LINE#         298
  C:2B1DH         LINE#         299
  C:2B1DH         LINE#         300
  C:2B2BH         LINE#         301
  C:2B31H         LINE#         302
  C:2B34H         LINE#         303
  C:2B3FH         LINE#         304
  C:2B3FH         LINE#         313
  C:2B3FH         LINE#         315
  C:2B3FH         LINE#         316
  C:2B3FH         LINE#         317
  C:2B41H         LINE#         319
  C:2B42H         LINE#         321
  C:2B42H         LINE#         322
  C:2B44H         LINE#         323
  C:2BB2H         LINE#         324
  C:2BB2H         LINE#         327
  C:2BB2H         LINE#         328
  C:2BC6H         LINE#         329
  C:2BC6H         LINE#         331
BL51 BANKED LINKER/LOCATER V6.22.2.0                                                  06/09/2021  12:25:34  PAGE 59


  C:2BC9H         LINE#         332
  C:2BC9H         LINE#         335
  C:2BDDH         LINE#         336
  C:2BDDH         LINE#         337
  C:2BE0H         LINE#         339
  C:2BE0H         LINE#         340
  C:2BF4H         LINE#         341
  C:2BF4H         LINE#         343
  C:2BF7H         LINE#         344
  C:2BF7H         LINE#         345
  C:2C0BH         LINE#         346
  C:2C0BH         LINE#         348
  C:2C0EH         LINE#         349
  C:2C0EH         LINE#         350
  C:2C22H         LINE#         351
  C:2C22H         LINE#         353
  C:2C25H         LINE#         354
  C:2C25H         LINE#         355
  C:2C39H         LINE#         356
  C:2C39H         LINE#         358
  C:2C3CH         LINE#         359
  C:2C3CH         LINE#         360
  C:2C50H         LINE#         361
  C:2C50H         LINE#         363
  C:2C53H         LINE#         364
  C:2C53H         LINE#         365
  C:2C67H         LINE#         366
  C:2C67H         LINE#         368
  C:2C6AH         LINE#         369
  C:2C6AH         LINE#         370
  C:2C7EH         LINE#         371
  C:2C7EH         LINE#         373
  C:2C81H         LINE#         374
  C:2C81H         LINE#         375
  C:2C95H         LINE#         376
  C:2C95H         LINE#         378
  C:2C98H         LINE#         380
  C:2C98H         LINE#         381
  C:2CACH         LINE#         382
  C:2CACH         LINE#         384
  C:2CAFH         LINE#         386
  C:2CAFH         LINE#         387
  C:2CC3H         LINE#         388
  C:2CC3H         LINE#         390
  C:2CC6H         LINE#         392
  C:2CC6H         LINE#         393
  C:2CDAH         LINE#         394
  C:2CDAH         LINE#         396
  C:2CDDH         LINE#         400
  C:2CDDH         LINE#         401
  C:2CF1H         LINE#         402
  C:2CF1H         LINE#         404
  C:2CF4H         LINE#         406
  C:2CF4H         LINE#         407
  C:2D08H         LINE#         408
  C:2D08H         LINE#         410
  C:2D0BH         LINE#         412
BL51 BANKED LINKER/LOCATER V6.22.2.0                                                  06/09/2021  12:25:34  PAGE 60


  C:2D0BH         LINE#         413
  C:2D1FH         LINE#         414
  C:2D1FH         LINE#         417
  C:2D22H         LINE#         418
  C:2D22H         LINE#         419
  C:2D36H         LINE#         420
  C:2D36H         LINE#         422
  C:2D39H         LINE#         423
  C:2D39H         LINE#         424
  C:2D4DH         LINE#         425
  C:2D4DH         LINE#         427
  C:2D50H         LINE#         428
  C:2D50H         LINE#         429
  C:2D64H         LINE#         430
  C:2D64H         LINE#         432
  C:2D67H         LINE#         433
  C:2D67H         LINE#         434
  C:2D7BH         LINE#         435
  C:2D7BH         LINE#         437
  C:2D7EH         LINE#         439
  C:2D7EH         LINE#         440
  C:2D92H         LINE#         441
  C:2D92H         LINE#         443
  C:2D95H         LINE#         445
  C:2D95H         LINE#         446
  C:2DA9H         LINE#         447
  C:2DA9H         LINE#         449
  C:2DACH         LINE#         450
  C:2DACH         LINE#         451
  C:2DC0H         LINE#         452
  C:2DC0H         LINE#         454
  C:2DC3H         LINE#         455
  C:2DC3H         LINE#         456
  C:2DD7H         LINE#         457
  C:2DD7H         LINE#         459
  C:2DDAH         LINE#         460
  C:2DDAH         LINE#         461
  C:2DEEH         LINE#         462
  C:2DEEH         LINE#         464
  C:2DF1H         LINE#         466
  C:2DF1H         LINE#         467
  C:2E05H         LINE#         468
  C:2E05H         LINE#         470
  C:2E08H         LINE#         471
  C:2E08H         LINE#         472
  C:2E1CH         LINE#         473
  C:2E1CH         LINE#         475
  C:2E1FH         LINE#         476
  C:2E1FH         LINE#         477
  C:2E33H         LINE#         478
  C:2E33H         LINE#         480
  C:2E35H         LINE#         482
  C:2E35H         LINE#         483
  C:2E49H         LINE#         484
  C:2E49H         LINE#         486
  C:2E4BH         LINE#         489
  C:2E4BH         LINE#         490
BL51 BANKED LINKER/LOCATER V6.22.2.0                                                  06/09/2021  12:25:34  PAGE 61


  C:2E5FH         LINE#         491
  C:2E5FH         LINE#         493
  C:2E61H         LINE#         494
  C:2E61H         LINE#         495
  C:2E75H         LINE#         496
  C:2E75H         LINE#         498
  C:2E77H         LINE#         499
  C:2E77H         LINE#         500
  C:2E8BH         LINE#         501
  C:2E8BH         LINE#         502
  C:2E8DH         LINE#         504
  C:2E8DH         LINE#         505
  C:2EA4H         LINE#         506
  C:2EB3H         LINE#         507
  C:2EB3H         LINE#         512
  C:2EB3H         LINE#         513
  C:2EB3H         LINE#         514
  C:2EB3H         LINE#         516
  C:2EBAH         LINE#         517
  C:2EBCH         LINE#         518
  C:2EBCH         LINE#         522
  -------         ENDPROC       _PANTALLALCD
  -------         PROC          _PANTALLALCD_LINEA_2
  X:0015H         SYMBOL        cod_msg
  X:0016H         SYMBOL        buffer
  -------         DO            
  X:0019H         SYMBOL        Ini_LCD_Line_one
  X:001FH         SYMBOL        num_chr
  X:0020H         SYMBOL        msjpantalla
  -------         ENDDO         
  C:4D02H         LINE#         523
  C:4D10H         LINE#         524
  C:4D10H         LINE#         526
  C:4D23H         LINE#         528
  C:4D36H         LINE#         535
  C:4D38H         LINE#         537
  C:4D41H         LINE#         538
  C:4D41H         LINE#         541
  C:4D4FH         LINE#         542
  C:4D4FH         LINE#         544
  C:4D4FH         LINE#         545
  C:4D52H         LINE#         546
  C:4D60H         LINE#         547
  C:4D75H         LINE#         548
  C:4D7BH         LINE#         549
  C:4D81H         LINE#         550
  C:4D87H         LINE#         551
  C:4D87H         LINE#         552
  C:4D89H         LINE#         553
  C:4D89H         LINE#         554
  C:4D8CH         LINE#         555
  C:4D9AH         LINE#         556
  C:4DAFH         LINE#         557
  C:4DB5H         LINE#         558
  C:4DBBH         LINE#         559
  C:4DC6H         LINE#         560
  C:4DD6H         LINE#         561
BL51 BANKED LINKER/LOCATER V6.22.2.0                                                  06/09/2021  12:25:34  PAGE 62


  C:4DD6H         LINE#         565
  C:4DD6H         LINE#         567
  C:4DD6H         LINE#         569
  C:4DD6H         LINE#         570
  C:4DD8H         LINE#         571
  C:4DD9H         LINE#         573
  C:4DD9H         LINE#         574
  C:4DDBH         LINE#         576
  C:4E03H         LINE#         577
  C:4E03H         LINE#         578
  C:4E03H         LINE#         581
  C:4E0FH         LINE#         583
  C:4E0FH         LINE#         585
  C:4E0FH         LINE#         588
  C:4E0FH         LINE#         591
  C:4E12H         LINE#         593
  C:4E12H         LINE#         594
  C:4E1EH         LINE#         595
  C:4E1EH         LINE#         596
  C:4E1EH         LINE#         597
  C:4E1EH         LINE#         598
  C:4E1EH         LINE#         599
  C:4E1EH         LINE#         601
  C:4E21H         LINE#         602
  C:4E21H         LINE#         604
  C:4E2DH         LINE#         605
  C:4E30H         LINE#         606
  C:4E33H         LINE#         607
  C:4E33H         LINE#         609
  C:4E3CH         LINE#         611
  C:4E3CH         LINE#         612
  C:4E3EH         LINE#         614
  C:4E3EH         LINE#         616
  C:4E4FH         LINE#         618
  C:4E52H         LINE#         620
  C:4E52H         LINE#         621
  C:4E5DH         LINE#         622
  C:4E5DH         LINE#         623
  C:4E64H         LINE#         625
  C:4E7AH         LINE#         627
  C:4E91H         LINE#         628
  C:4E94H         LINE#         630
  C:4E94H         LINE#         631
  C:4E9BH         LINE#         633
  C:4E9BH         LINE#         634
  C:4E9BH         LINE#         637
  C:4E9EH         LINE#         638
  C:4E9EH         LINE#         639
  C:4EADH         LINE#         640
  C:4ECBH         LINE#         641
  C:4EE2H         LINE#         643
  C:4EE2H         LINE#         645
  C:4EE5H         LINE#         646
  C:4EE5H         LINE#         647
  C:4EF4H         LINE#         648
  C:4F07H         LINE#         649
  C:4F21H         LINE#         650
BL51 BANKED LINKER/LOCATER V6.22.2.0                                                  06/09/2021  12:25:34  PAGE 63


  C:4F3FH         LINE#         651
  C:4F56H         LINE#         652
  C:4F56H         LINE#         654
  C:4F58H         LINE#         655
  C:4F58H         LINE#         656
  C:4F67H         LINE#         657
  C:4F85H         LINE#         658
  C:4F9CH         LINE#         659
  C:4F9FH         LINE#         660
  C:4F9FH         LINE#         661
  C:4F9FH         LINE#         663
  C:4F9FH         LINE#         664
  C:4F9FH         LINE#         666
  C:4FA4H         LINE#         667
  C:4FA6H         LINE#         668
  C:4FA6H         LINE#         669
  -------         ENDPROC       _PANTALLALCD_LINEA_2
  C:BF05H         SYMBOL        L?0176
  C:BF08H         SYMBOL        L?0177
  C:BF09H         SYMBOL        L?0178
  -------         PROC          L?0175
  -------         ENDPROC       L?0175
  C:BF05H         SYMBOL        L?0176
  C:BF08H         SYMBOL        L?0177
  C:BF09H         SYMBOL        L?0178
  -------         PROC          _TX_CHRLCD
  D:0007H         SYMBOL        data_com
  X:004DH         SYMBOL        enable_char_add
  -------         DO            
  X:004EH         SYMBOL        d
  -------         ENDDO         
  C:BF0EH         LINE#         675
  C:BF13H         LINE#         676
  C:BF13H         LINE#         678
  C:BF1BH         LINE#         679
  C:BF2BH         LINE#         681
  -------         ENDPROC       _TX_CHRLCD
  -------         PROC          L?0181
  -------         ENDPROC       L?0181
  -------         PROC          _LCD_TXT
  X:0048H         SYMBOL        msg
  X:004BH         SYMBOL        enable_char_add
  -------         DO            
  X:004CH         SYMBOL        i
  -------         ENDDO         
  C:B7C7H         LINE#         688
  C:B7D5H         LINE#         689
  C:B7D5H         LINE#         692
  C:B7F2H         LINE#         693
  C:B7F2H         LINE#         694
  C:B7FAH         LINE#         695
  C:B802H         LINE#         696
  -------         ENDPROC       _LCD_TXT
  -------         PROC          _LCD_TXT_NUM_CHAR
  X:0022H         SYMBOL        msg
  X:0025H         SYMBOL        length_char
  X:0026H         SYMBOL        enable_char_add
BL51 BANKED LINKER/LOCATER V6.22.2.0                                                  06/09/2021  12:25:34  PAGE 64


  -------         DO            
  X:0027H         SYMBOL        i
  -------         ENDDO         
  C:B6EEH         LINE#         703
  C:B6FCH         LINE#         704
  C:B6FCH         LINE#         707
  C:B70FH         LINE#         708
  C:B70FH         LINE#         709
  C:B72BH         LINE#         710
  C:B733H         LINE#         711
  -------         ENDPROC       _LCD_TXT_NUM_CHAR
  C:AA6FH         SYMBOL        L?0180
  -------         PROC          L?0179
  -------         ENDPROC       L?0179
  C:AA6FH         SYMBOL        L?0180
  -------         PROC          _RASPBERRY_DATA
  X:0048H         SYMBOL        msjpantalla
  -------         DO            
  X:004BH         SYMBOL        i
  X:004CH         SYMBOL        lenth_cadena
  X:004DH         SYMBOL        d
  -------         ENDDO         
  C:AA75H         LINE#         713
  C:AA80H         LINE#         714
  C:AA80H         LINE#         721
  C:AA88H         LINE#         723
  C:AA9AH         LINE#         724
  C:AA9AH         LINE#         726
  C:AAACH         LINE#         727
  C:AAACH         LINE#         728
  C:AAB1H         LINE#         729
  C:AACFH         LINE#         731
  C:AAD7H         LINE#         734
  C:AAE9H         LINE#         735
  C:AAE9H         LINE#         737
  C:AAEEH         LINE#         739
  -------         ENDPROC       _RASPBERRY_DATA
  -------         PROC          RELOJ_PANTALLA_LCD
  -------         DO            
  X:0015H         SYMBOL        Ini_Clock_LCD
  -------         ENDDO         
  C:AD6FH         LINE#         747
  C:AD6FH         LINE#         748
  C:AD6FH         LINE#         750
  C:AD82H         LINE#         752
  C:AD88H         LINE#         753
  C:AD88H         LINE#         754
  C:AD8AH         LINE#         755
  C:AD93H         LINE#         759
  C:AD95H         LINE#         760
  C:ADA5H         LINE#         762
  C:ADA7H         LINE#         763
  C:ADA9H         LINE#         765
  C:ADAAH         LINE#         767
  C:ADAAH         LINE#         768
  C:ADACH         LINE#         769
  C:ADB1H         LINE#         770
BL51 BANKED LINKER/LOCATER V6.22.2.0                                                  06/09/2021  12:25:34  PAGE 65


  C:ADC0H         LINE#         772
  C:ADC9H         LINE#         773
  C:ADE0H         LINE#         774
  C:ADE9H         LINE#         777
  C:ADEBH         LINE#         778
  C:ADEBH         LINE#         779
  -------         ENDPROC       RELOJ_PANTALLA_LCD
  -------         ENDMOD        PANTALLAS

  -------         MODULE        PROG
  C:0000H         SYMBOL        _ICE_DUMMY_
  C:5ACEH         PUBLIC        Prog_fecha_vencimiento
  C:6CCFH         PUBLIC        Prog_Sin_Cobro
  C:7782H         PUBLIC        _Ver_Horario_Desde_Hasta
  C:7CCBH         PUBLIC        Prog_debug
  C:7FBFH         PUBLIC        Prog_AntiPassBack
  C:A490H         PUBLIC        _GetOption
  X:01B8H         PUBLIC        validacion
  C:81B7H         PUBLIC        Prog_Validar_Tipo_Vehiculo_Mensual
  X:01C3H         PUBLIC        cursor
  C:7668H         PUBLIC        _Prog_Horarios_on_off
  C:A101H         PUBLIC        Show
  C:441FH         PUBLIC        Ver_Prog
  C:BDA0H         PUBLIC        Addr_Horarios
  C:9737H         PUBLIC        prog_id_cliente
  C:B84EH         PUBLIC        _ValidarClave
  C:54A0H         PUBLIC        menu
  C:7DC7H         PUBLIC        Prog_Use_Lpr
  C:B1DBH         PUBLIC        _ListaComandos
  C:12F7H         SYMBOL        _?ix1000
  C:1302H         SYMBOL        _?ix1001
  C:1312H         SYMBOL        _?ix1002
  C:1322H         SYMBOL        _?ix1003
  C:1326H         SYMBOL        _?ix1004
  C:6B8AH         PUBLIC        Prog_Horarios
  C:132AH         SYMBOL        _?ix1005
  C:82B3H         PUBLIC        Prog_Apb_Mensual
  C:9208H         PUBLIC        Prog_tarjeta_automatica_o_boton
  C:56CCH         PUBLIC        _hash_id
  C:4A4BH         PUBLIC        _Prog_Horario_dias
  C:9506H         PUBLIC        Prog_tiempo_gracia
  C:AB78H         PUBLIC        _IngresaDato
  X:01D7H         PUBLIC        comandos
  C:B5D2H         PUBLIC        First_Clave
  C:C0F5H         PUBLIC        DisplayCursor
  C:80BBH         PUBLIC        Prog_Placa
  C:9449H         PUBLIC        prog_cod_park
  C:7087H         PUBLIC        Ver_Horario
  C:7540H         PUBLIC        _Ver_Horario_dias
  C:58D4H         PUBLIC        _Prog_Horario_Desde_Hasta
  C:7EC3H         PUBLIC        tipo_pantalla
  C:885AH         PUBLIC        Prog_Address_High_Board
  C:B910H         PUBLIC        _GetCMD
  -------         PROC          _HASH_ID
  X:005DH         SYMBOL        clave
  -------         DO            
  X:0060H         SYMBOL        len_clave
BL51 BANKED LINKER/LOCATER V6.22.2.0                                                  06/09/2021  12:25:34  PAGE 66


  X:0061H         SYMBOL        i
  X:01B4H         SYMBOL        temp
  X:01B6H         SYMBOL        temp1
  X:0062H         SYMBOL        aleatorio
  X:006DH         SYMBOL        suma
  X:007DH         SYMBOL        xxor
  X:008DH         SYMBOL        usuario1
  X:0098H         SYMBOL        vencimiento_password
  -------         ENDDO         
  C:56CCH         LINE#         121
  C:56D7H         LINE#         122
  C:56D7H         LINE#         125
  C:56EAH         LINE#         127
  C:56FDH         LINE#         128
  C:5710H         LINE#         132
  C:571DH         LINE#         133
  C:5739H         LINE#         135
  C:5739H         LINE#         136
  C:573DH         LINE#         137
  C:573FH         LINE#         139
  C:573FH         LINE#         140
  C:5746H         LINE#         141
  C:5746H         LINE#         142
  C:5759H         LINE#         143
  C:576DH         LINE#         144
  C:576DH         LINE#         145
  C:5799H         LINE#         146
  C:57A4H         LINE#         147
  C:57B1H         LINE#         148
  C:57CFH         LINE#         149
  C:57DAH         LINE#         150
  C:57E7H         LINE#         151
  C:580BH         LINE#         152
  C:5813H         LINE#         153
  C:5813H         LINE#         154
  C:5818H         LINE#         155
  C:5818H         LINE#         156
  C:5831H         LINE#         157
  C:5831H         LINE#         158
  C:583DH         LINE#         160
  C:583DH         LINE#         161
  C:584CH         LINE#         162
  C:584CH         LINE#         163
  C:5858H         LINE#         164
  C:5858H         LINE#         165
  C:5871H         LINE#         166
  C:5871H         LINE#         167
  C:587CH         LINE#         168
  C:587CH         LINE#         169
  C:5895H         LINE#         170
  C:5895H         LINE#         171
  C:58A0H         LINE#         172
  C:58A0H         LINE#         173
  C:58B5H         LINE#         175
  C:58BEH         LINE#         176
  C:58CDH         LINE#         178
  C:58D3H         LINE#         179
BL51 BANKED LINKER/LOCATER V6.22.2.0                                                  06/09/2021  12:25:34  PAGE 67


  -------         ENDPROC       _HASH_ID
  -------         PROC          _LISTACOMANDOS
  X:0046H         SYMBOL        cmd
  -------         DO            
  X:0049H         SYMBOL        buf
  X:004CH         SYMBOL        i
  -------         ENDDO         
  C:B1DBH         LINE#         186
  C:B1E6H         LINE#         187
  C:B1E6H         LINE#         191
  C:B1F9H         LINE#         192
  C:B1F9H         LINE#         193
  C:B211H         LINE#         194
  C:B22CH         LINE#         195
  C:B232H         LINE#         196
  C:B23AH         LINE#         198
  C:B23CH         LINE#         199
  -------         ENDPROC       _LISTACOMANDOS
  -------         PROC          L?0274
  -------         ENDPROC       L?0274
  -------         PROC          _VALIDARCLAVE
  X:005DH         SYMBOL        buffer
  -------         DO            
  X:0060H         SYMBOL        buf
  -------         ENDDO         
  C:B84EH         LINE#         205
  C:B859H         LINE#         206
  C:B859H         LINE#         209
  C:B868H         LINE#         210
  C:B883H         LINE#         211
  C:B885H         LINE#         214
  C:B887H         LINE#         215
  -------         ENDPROC       _VALIDARCLAVE
  -------         PROC          L?0275
  -------         ENDPROC       L?0275
  -------         PROC          _GETCMD
  X:005DH         SYMBOL        in
  -------         DO            
  X:0060H         SYMBOL        tokens
  -------         ENDDO         
  C:B910H         LINE#         222
  C:B91BH         LINE#         223
  C:B91BH         LINE#         224
  C:B92EH         LINE#         225
  -------         ENDPROC       _GETCMD
  -------         PROC          L?0273
  -------         ENDPROC       L?0273
  -------         PROC          _GETOPTION
  X:0046H         SYMBOL        in
  -------         DO            
  X:0049H         SYMBOL        tokensSpace
  X:004DH         SYMBOL        tokensQuote
  -------         ENDDO         
  C:A490H         LINE#         231
  C:A49BH         LINE#         232
  C:A49BH         LINE#         233
  C:A4AEH         LINE#         234
BL51 BANKED LINKER/LOCATER V6.22.2.0                                                  06/09/2021  12:25:34  PAGE 68


  C:A4C1H         LINE#         237
  C:A4D3H         LINE#         238
  C:A4DFH         LINE#         241
  C:A4E6H         LINE#         242
  C:A4F3H         LINE#         244
  C:A50CH         LINE#         245
  -------         ENDPROC       _GETOPTION
  -------         PROC          DISPLAYCURSOR
  C:C0F5H         LINE#         250
  C:C0F5H         LINE#         251
  C:C0F5H         LINE#         252
  -------         ENDPROC       DISPLAYCURSOR
  C:AB74H         SYMBOL        L?0272
  -------         PROC          L?0271
  -------         ENDPROC       L?0271
  C:AB74H         SYMBOL        L?0272
  -------         PROC          _INGRESADATO
  X:0071H         SYMBOL        buffer
  X:0074H         SYMBOL        modo
  -------         DO            
  D:0006H         SYMBOL        i
  -------         ENDDO         
  C:AB78H         LINE#         259
  C:AB86H         LINE#         260
  C:AB86H         LINE#         265
  C:AB86H         LINE#         266
  C:AB98H         LINE#         267
  C:AB9EH         LINE#         268
  C:AB9EH         LINE#         269
  C:ABB9H         LINE#         270
  C:ABBBH         LINE#         272
  C:ABBBH         LINE#         273
  C:ABC0H         LINE#         274
  C:ABC0H         LINE#         275
  C:ABD1H         LINE#         276
  C:ABDBH         LINE#         277
  C:ABEAH         LINE#         279
  C:ABEFH         LINE#         283
  -------         ENDPROC       _INGRESADATO
  -------         PROC          PROG_ID_CLIENTE
  -------         DO            
  X:0046H         SYMBOL        buffer
  X:0050H         SYMBOL        dataee
  -------         ENDDO         
  C:9737H         LINE#         300
  C:9737H         LINE#         301
  C:9737H         LINE#         305
  C:9749H         LINE#         306
  C:9766H         LINE#         308
  C:977DH         LINE#         310
  C:9786H         LINE#         311
  C:978DH         LINE#         312
  C:979EH         LINE#         313
  C:97A7H         LINE#         315
  C:97B9H         LINE#         316
  C:97D6H         LINE#         317
  -------         ENDPROC       PROG_ID_CLIENTE
BL51 BANKED LINKER/LOCATER V6.22.2.0                                                  06/09/2021  12:25:34  PAGE 69


  -------         PROC          PROG_COD_PARK
  -------         DO            
  X:0046H         SYMBOL        buffer
  X:0050H         SYMBOL        dataee
  -------         ENDDO         
  C:9449H         LINE#         322
  C:9449H         LINE#         323
  C:9449H         LINE#         327
  C:945CH         LINE#         328
  C:9479H         LINE#         330
  C:9490H         LINE#         332
  C:9499H         LINE#         333
  C:94A4H         LINE#         334
  C:94B5H         LINE#         335
  C:94BFH         LINE#         337
  C:94D2H         LINE#         338
  C:94EFH         LINE#         339
  -------         ENDPROC       PROG_COD_PARK
  -------         PROC          PROG_TIEMPO_GRACIA
  -------         DO            
  X:0046H         SYMBOL        buffer
  X:0050H         SYMBOL        dataee
  -------         ENDDO         
  C:9506H         LINE#         344
  C:9506H         LINE#         345
  C:9506H         LINE#         349
  C:9519H         LINE#         350
  C:9536H         LINE#         352
  C:954DH         LINE#         354
  C:9556H         LINE#         355
  C:9561H         LINE#         356
  C:9572H         LINE#         357
  C:957CH         LINE#         359
  C:958FH         LINE#         360
  C:95ACH         LINE#         361
  -------         ENDPROC       PROG_TIEMPO_GRACIA
  -------         PROC          PROG_SIN_COBRO
  -------         DO            
  X:0046H         SYMBOL        buffer
  X:0050H         SYMBOL        dataee
  -------         ENDDO         
  C:6CCFH         LINE#         367
  C:6CCFH         LINE#         368
  C:6CCFH         LINE#         374
  C:6CE2H         LINE#         375
  C:6CFFH         LINE#         376
  C:6D09H         LINE#         377
  C:6D09H         LINE#         378
  C:6D1CH         LINE#         379
  C:6D1EH         LINE#         380
  C:6D2AH         LINE#         381
  C:6D2AH         LINE#         382
  C:6D3DH         LINE#         383
  C:6D3FH         LINE#         385
  C:6D3FH         LINE#         386
  C:6D56H         LINE#         387
  C:6D56H         LINE#         389
BL51 BANKED LINKER/LOCATER V6.22.2.0                                                  06/09/2021  12:25:34  PAGE 70


  C:6D5FH         LINE#         390
  C:6D6AH         LINE#         391
  C:6D7BH         LINE#         392
  C:6D85H         LINE#         394
  C:6D98H         LINE#         395
  C:6DB5H         LINE#         396
  C:6DBFH         LINE#         397
  C:6DBFH         LINE#         398
  C:6DD2H         LINE#         399
  C:6DD4H         LINE#         400
  C:6DE0H         LINE#         401
  C:6DE0H         LINE#         402
  C:6DF3H         LINE#         403
  C:6DF5H         LINE#         405
  C:6DF5H         LINE#         406
  C:6E0CH         LINE#         407
  C:6E0CH         LINE#         409
  -------         ENDPROC       PROG_SIN_COBRO
  -------         PROC          PROG_DEBUG
  -------         DO            
  X:0046H         SYMBOL        buffer
  X:0050H         SYMBOL        dataee
  -------         ENDDO         
  C:7CCBH         LINE#         415
  C:7CCBH         LINE#         416
  C:7CCBH         LINE#         421
  C:7CDEH         LINE#         422
  C:7CFBH         LINE#         423
  C:7D05H         LINE#         424
  C:7D05H         LINE#         425
  C:7D18H         LINE#         426
  C:7D1AH         LINE#         428
  C:7D1AH         LINE#         429
  C:7D31H         LINE#         430
  C:7D31H         LINE#         432
  C:7D3AH         LINE#         433
  C:7D45H         LINE#         434
  C:7D56H         LINE#         435
  C:7D60H         LINE#         437
  C:7D73H         LINE#         438
  C:7D90H         LINE#         439
  C:7D9AH         LINE#         440
  C:7D9AH         LINE#         441
  C:7DADH         LINE#         442
  C:7DAFH         LINE#         444
  C:7DAFH         LINE#         445
  C:7DC6H         LINE#         446
  C:7DC6H         LINE#         447
  -------         ENDPROC       PROG_DEBUG
  -------         PROC          PROG_USE_LPR
  -------         DO            
  X:0046H         SYMBOL        buffer
  X:0050H         SYMBOL        dataee
  -------         ENDDO         
  C:7DC7H         LINE#         452
  C:7DC7H         LINE#         453
  C:7DC7H         LINE#         458
BL51 BANKED LINKER/LOCATER V6.22.2.0                                                  06/09/2021  12:25:34  PAGE 71


  C:7DDAH         LINE#         459
  C:7DF7H         LINE#         460
  C:7E01H         LINE#         461
  C:7E01H         LINE#         462
  C:7E14H         LINE#         463
  C:7E16H         LINE#         465
  C:7E16H         LINE#         466
  C:7E2DH         LINE#         467
  C:7E2DH         LINE#         469
  C:7E36H         LINE#         470
  C:7E41H         LINE#         471
  C:7E52H         LINE#         472
  C:7E5CH         LINE#         474
  C:7E6FH         LINE#         475
  C:7E8CH         LINE#         476
  C:7E96H         LINE#         477
  C:7E96H         LINE#         478
  C:7EA9H         LINE#         479
  C:7EABH         LINE#         481
  C:7EABH         LINE#         482
  C:7EC2H         LINE#         483
  C:7EC2H         LINE#         484
  -------         ENDPROC       PROG_USE_LPR
  -------         PROC          TIPO_PANTALLA
  -------         DO            
  X:0046H         SYMBOL        buffer
  X:0050H         SYMBOL        dataee
  -------         ENDDO         
  C:7EC3H         LINE#         491
  C:7EC3H         LINE#         492
  C:7EC3H         LINE#         497
  C:7ED6H         LINE#         498
  C:7EF3H         LINE#         499
  C:7EFDH         LINE#         500
  C:7EFDH         LINE#         501
  C:7F10H         LINE#         502
  C:7F12H         LINE#         504
  C:7F12H         LINE#         505
  C:7F29H         LINE#         506
  C:7F29H         LINE#         508
  C:7F32H         LINE#         509
  C:7F3DH         LINE#         510
  C:7F4EH         LINE#         511
  C:7F58H         LINE#         513
  C:7F6BH         LINE#         514
  C:7F88H         LINE#         515
  C:7F92H         LINE#         516
  C:7F92H         LINE#         517
  C:7FA5H         LINE#         518
  C:7FA7H         LINE#         520
  C:7FA7H         LINE#         521
  C:7FBEH         LINE#         522
  C:7FBEH         LINE#         524
  -------         ENDPROC       TIPO_PANTALLA
  -------         PROC          PROG_TARJETA_AUTOMATICA_O_BOTON
  -------         DO            
  X:0046H         SYMBOL        buffer
BL51 BANKED LINKER/LOCATER V6.22.2.0                                                  06/09/2021  12:25:34  PAGE 72


  X:0050H         SYMBOL        dataee
  -------         ENDDO         
  C:9208H         LINE#         525
  C:9208H         LINE#         526
  C:9208H         LINE#         531
  C:921BH         LINE#         532
  C:9238H         LINE#         533
  C:9244H         LINE#         534
  C:9244H         LINE#         535
  C:9248H         LINE#         536
  C:924AH         LINE#         538
  C:924AH         LINE#         539
  C:9251H         LINE#         540
  C:9251H         LINE#         542
  C:925AH         LINE#         543
  C:9265H         LINE#         544
  C:9276H         LINE#         545
  C:9280H         LINE#         547
  C:9293H         LINE#         548
  C:92B0H         LINE#         549
  C:92BCH         LINE#         550
  C:92BCH         LINE#         551
  C:92C0H         LINE#         552
  C:92C2H         LINE#         554
  C:92C2H         LINE#         555
  C:92C9H         LINE#         556
  C:92C9H         LINE#         557
  -------         ENDPROC       PROG_TARJETA_AUTOMATICA_O_BOTON
  -------         PROC          PROG_ANTIPASSBACK
  -------         DO            
  X:0046H         SYMBOL        buffer
  X:0050H         SYMBOL        dataee
  -------         ENDDO         
  C:7FBFH         LINE#         558
  C:7FBFH         LINE#         559
  C:7FBFH         LINE#         564
  C:7FD2H         LINE#         565
  C:7FEFH         LINE#         566
  C:7FF9H         LINE#         567
  C:7FF9H         LINE#         568
  C:800CH         LINE#         569
  C:800EH         LINE#         571
  C:800EH         LINE#         572
  C:8025H         LINE#         573
  C:8025H         LINE#         575
  C:802EH         LINE#         576
  C:8039H         LINE#         577
  C:804AH         LINE#         578
  C:8054H         LINE#         580
  C:8067H         LINE#         581
  C:8084H         LINE#         582
  C:808EH         LINE#         583
  C:808EH         LINE#         584
  C:80A1H         LINE#         585
  C:80A3H         LINE#         587
  C:80A3H         LINE#         588
  C:80BAH         LINE#         589
BL51 BANKED LINKER/LOCATER V6.22.2.0                                                  06/09/2021  12:25:34  PAGE 73


  C:80BAH         LINE#         590
  -------         ENDPROC       PROG_ANTIPASSBACK
  -------         PROC          PROG_PLACA
  -------         DO            
  X:0046H         SYMBOL        buffer
  X:0050H         SYMBOL        dataee
  -------         ENDDO         
  C:80BBH         LINE#         591
  C:80BBH         LINE#         592
  C:80BBH         LINE#         597
  C:80CEH         LINE#         598
  C:80EBH         LINE#         599
  C:80F5H         LINE#         600
  C:80F5H         LINE#         601
  C:8108H         LINE#         602
  C:810AH         LINE#         604
  C:810AH         LINE#         605
  C:8121H         LINE#         606
  C:8121H         LINE#         608
  C:812AH         LINE#         609
  C:8135H         LINE#         610
  C:8146H         LINE#         611
  C:8150H         LINE#         613
  C:8163H         LINE#         614
  C:8180H         LINE#         615
  C:818AH         LINE#         616
  C:818AH         LINE#         617
  C:819DH         LINE#         618
  C:819FH         LINE#         620
  C:819FH         LINE#         621
  C:81B6H         LINE#         622
  C:81B6H         LINE#         623
  -------         ENDPROC       PROG_PLACA
  -------         PROC          PROG_ADDRESS_HIGH_BOARD
  -------         DO            
  X:0046H         SYMBOL        buffer
  X:0050H         SYMBOL        dataee
  -------         ENDDO         
  C:885AH         LINE#         624
  C:885AH         LINE#         625
  C:885AH         LINE#         630
  C:886DH         LINE#         631
  C:888AH         LINE#         632
  C:8894H         LINE#         633
  C:8894H         LINE#         634
  C:8898H         LINE#         635
  C:889AH         LINE#         637
  C:889AH         LINE#         638
  C:88B1H         LINE#         639
  C:88B1H         LINE#         641
  C:88BAH         LINE#         642
  C:88C5H         LINE#         643
  C:88D6H         LINE#         644
  C:88E0H         LINE#         646
  C:88F3H         LINE#         647
  C:8910H         LINE#         648
  C:891AH         LINE#         649
BL51 BANKED LINKER/LOCATER V6.22.2.0                                                  06/09/2021  12:25:34  PAGE 74


  C:891AH         LINE#         650
  C:891EH         LINE#         651
  C:8920H         LINE#         653
  C:8920H         LINE#         654
  C:8937H         LINE#         655
  C:8937H         LINE#         656
  -------         ENDPROC       PROG_ADDRESS_HIGH_BOARD
  -------         PROC          ADDR_HORARIOS
  -------         DO            
  X:0074H         SYMBOL        ee_addr_horario
  -------         ENDDO         
  C:BDA0H         LINE#         658
  C:BDA0H         LINE#         659
  C:BDA0H         LINE#         662
  C:BDA6H         LINE#         663
  C:BDAAH         LINE#         664
  C:BDAEH         LINE#         665
  C:BDB2H         LINE#         666
  C:BDB6H         LINE#         667
  C:BDBAH         LINE#         668
  C:BDBEH         LINE#         669
  C:BDC2H         LINE#         670
  C:BDC6H         LINE#         671
  C:BDCAH         LINE#         672
  C:BDCDH         LINE#         673
  C:BDD3H         LINE#         674
  -------         ENDPROC       ADDR_HORARIOS
  -------         PROC          _PROG_HORARIOS_ON_OFF
  X:0061H         SYMBOL        addr
  -------         DO            
  X:0063H         SYMBOL        buffer
  X:006DH         SYMBOL        dataee
  X:006FH         SYMBOL        habilitado
  -------         ENDDO         
  C:7668H         LINE#         675
  C:7672H         LINE#         676
  C:7672H         LINE#         679
  C:7681H         LINE#         680
  C:769EH         LINE#         681
  C:76A8H         LINE#         682
  C:76A8H         LINE#         683
  C:76BBH         LINE#         684
  C:76BDH         LINE#         686
  C:76BDH         LINE#         687
  C:76D4H         LINE#         688
  C:76D4H         LINE#         689
  C:76DDH         LINE#         690
  C:76E8H         LINE#         691
  C:76F9H         LINE#         692
  C:7708H         LINE#         694
  C:771FH         LINE#         695
  C:773CH         LINE#         696
  C:7749H         LINE#         697
  C:7749H         LINE#         698
  C:774CH         LINE#         699
  C:775FH         LINE#         700
  C:7761H         LINE#         702
BL51 BANKED LINKER/LOCATER V6.22.2.0                                                  06/09/2021  12:25:34  PAGE 75


  C:7761H         LINE#         703
  C:7766H         LINE#         704
  C:777BH         LINE#         705
  C:777BH         LINE#         706
  C:7781H         LINE#         707
  -------         ENDPROC       _PROG_HORARIOS_ON_OFF
  -------         PROC          _PROG_HORARIO_DESDE_HASTA
  X:0061H         SYMBOL        addr
  -------         DO            
  X:0063H         SYMBOL        buffer
  D:0007H         SYMBOL        dataee
  -------         ENDDO         
  C:58D4H         LINE#         708
  C:58DCH         LINE#         709
  C:58DCH         LINE#         714
  C:58E5H         LINE#         715
  C:58E8H         LINE#         716
  C:58F1H         LINE#         717
  C:5909H         LINE#         718
  C:591CH         LINE#         719
  C:592AH         LINE#         720
  C:5942H         LINE#         721
  C:5955H         LINE#         722
  C:5963H         LINE#         723
  C:597BH         LINE#         724
  C:598EH         LINE#         725
  C:599CH         LINE#         726
  C:59B4H         LINE#         727
  C:59C7H         LINE#         728
  C:59D5H         LINE#         732
  C:59DEH         LINE#         733
  C:59E1H         LINE#         735
  C:59EAH         LINE#         737
  C:5A02H         LINE#         738
  C:5A15H         LINE#         739
  C:5A23H         LINE#         740
  C:5A3BH         LINE#         741
  C:5A4EH         LINE#         742
  C:5A5CH         LINE#         743
  C:5A74H         LINE#         744
  C:5A87H         LINE#         745
  C:5A95H         LINE#         746
  C:5AADH         LINE#         747
  C:5AC0H         LINE#         748
  -------         ENDPROC       _PROG_HORARIO_DESDE_HASTA
  -------         PROC          _VER_HORARIO_DESDE_HASTA
  X:0074H         SYMBOL        addr
  -------         DO            
  D:0007H         SYMBOL        dataee
  -------         ENDDO         
  C:7782H         LINE#         750
  C:778AH         LINE#         751
  C:778AH         LINE#         753
  C:7793H         LINE#         754
  C:77A6H         LINE#         755
  C:77B4H         LINE#         756
  C:77C7H         LINE#         757
BL51 BANKED LINKER/LOCATER V6.22.2.0                                                  06/09/2021  12:25:34  PAGE 76


  C:77D5H         LINE#         758
  C:77E8H         LINE#         759
  C:77F6H         LINE#         760
  C:7809H         LINE#         761
  C:7817H         LINE#         763
  C:782AH         LINE#         764
  C:7838H         LINE#         766
  C:784BH         LINE#         767
  C:7859H         LINE#         769
  C:786CH         LINE#         770
  C:787AH         LINE#         772
  C:788DH         LINE#         773
  -------         ENDPROC       _VER_HORARIO_DESDE_HASTA
  -------         PROC          _PROG_HORARIO_DIAS
  X:0061H         SYMBOL        addr
  -------         DO            
  X:0063H         SYMBOL        buffer
  X:006DH         SYMBOL        dataee
  X:006EH         SYMBOL        j
  X:006FH         SYMBOL        temp
  -------         ENDDO         
  C:4A4BH         LINE#         775
  C:4A53H         LINE#         776
  C:4A53H         LINE#         780
  C:4A5CH         LINE#         781
  C:4A65H         LINE#         782
  C:4A6EH         LINE#         783
  C:4A79H         LINE#         786
  C:4A82H         LINE#         788
  C:4A98H         LINE#         789
  C:4A98H         LINE#         791
  C:4AABH         LINE#         792
  C:4AABH         LINE#         793
  C:4AB4H         LINE#         795
  C:4AC9H         LINE#         796
  C:4AE1H         LINE#         797
  C:4AEEH         LINE#         798
  C:4AEEH         LINE#         800
  C:4B04H         LINE#         801
  C:4B04H         LINE#         802
  C:4B0DH         LINE#         803
  C:4B22H         LINE#         804
  C:4B3AH         LINE#         805
  C:4B47H         LINE#         806
  C:4B47H         LINE#         808
  C:4B5DH         LINE#         809
  C:4B5DH         LINE#         810
  C:4B66H         LINE#         811
  C:4B7BH         LINE#         812
  C:4B93H         LINE#         813
  C:4BA0H         LINE#         814
  C:4BA0H         LINE#         816
  C:4BB6H         LINE#         817
  C:4BB6H         LINE#         818
  C:4BBFH         LINE#         819
  C:4BD4H         LINE#         820
  C:4BECH         LINE#         821
BL51 BANKED LINKER/LOCATER V6.22.2.0                                                  06/09/2021  12:25:34  PAGE 77


  C:4BF9H         LINE#         822
  C:4BF9H         LINE#         824
  C:4C0FH         LINE#         825
  C:4C0FH         LINE#         826
  C:4C18H         LINE#         827
  C:4C2DH         LINE#         828
  C:4C45H         LINE#         829
  C:4C52H         LINE#         830
  C:4C52H         LINE#         832
  C:4C68H         LINE#         833
  C:4C68H         LINE#         834
  C:4C71H         LINE#         835
  C:4C86H         LINE#         836
  C:4C9EH         LINE#         837
  C:4CABH         LINE#         838
  C:4CABH         LINE#         840
  C:4CC1H         LINE#         841
  C:4CC1H         LINE#         842
  C:4CCAH         LINE#         843
  C:4CD9H         LINE#         844
  C:4CEBH         LINE#         845
  C:4CF8H         LINE#         846
  C:4CF8H         LINE#         847
  C:4D01H         LINE#         849
  -------         ENDPROC       _PROG_HORARIO_DIAS
  -------         PROC          _VER_HORARIO_DIAS
  X:0074H         SYMBOL        addr
  -------         DO            
  X:0076H         SYMBOL        dataee
  -------         ENDDO         
  C:7540H         LINE#         850
  C:7548H         LINE#         851
  C:7548H         LINE#         854
  C:7558H         LINE#         855
  C:755EH         LINE#         856
  C:755EH         LINE#         857
  C:7562H         LINE#         858
  C:7564H         LINE#         860
  C:7564H         LINE#         861
  C:756BH         LINE#         862
  C:756BH         LINE#         865
  C:7583H         LINE#         866
  C:7589H         LINE#         867
  C:7589H         LINE#         868
  C:758DH         LINE#         869
  C:758FH         LINE#         871
  C:758FH         LINE#         872
  C:7596H         LINE#         873
  C:7596H         LINE#         876
  C:75AEH         LINE#         877
  C:75B4H         LINE#         878
  C:75B4H         LINE#         879
  C:75B8H         LINE#         880
  C:75BAH         LINE#         882
  C:75BAH         LINE#         883
  C:75C1H         LINE#         884
  C:75C1H         LINE#         886
BL51 BANKED LINKER/LOCATER V6.22.2.0                                                  06/09/2021  12:25:34  PAGE 78


  C:75D9H         LINE#         887
  C:75DFH         LINE#         888
  C:75DFH         LINE#         889
  C:75E3H         LINE#         890
  C:75E5H         LINE#         892
  C:75E5H         LINE#         893
  C:75ECH         LINE#         894
  C:75ECH         LINE#         896
  C:7604H         LINE#         897
  C:760AH         LINE#         898
  C:760AH         LINE#         899
  C:760EH         LINE#         900
  C:7610H         LINE#         902
  C:7610H         LINE#         903
  C:7617H         LINE#         904
  C:7617H         LINE#         907
  C:762FH         LINE#         908
  C:7635H         LINE#         909
  C:7635H         LINE#         910
  C:7639H         LINE#         911
  C:763BH         LINE#         913
  C:763BH         LINE#         914
  C:7642H         LINE#         915
  C:7642H         LINE#         917
  C:7654H         LINE#         918
  C:765AH         LINE#         919
  C:765AH         LINE#         920
  C:765EH         LINE#         921
  C:7660H         LINE#         923
  C:7660H         LINE#         924
  C:7667H         LINE#         925
  C:7667H         LINE#         926
  -------         ENDPROC       _VER_HORARIO_DIAS
  -------         PROC          PROG_HORARIOS
  -------         DO            
  X:0046H         SYMBOL        buffer
  X:0050H         SYMBOL        ee_addr_horario
  X:005BH         SYMBOL        addr
  X:005DH         SYMBOL        temp
  X:005FH         SYMBOL        dataee
  X:0060H         SYMBOL        j
  -------         ENDDO         
  C:6B8AH         LINE#         927
  C:6B8AH         LINE#         928
  C:6B8AH         LINE#         937
  C:6B96H         LINE#         941
  C:6B9FH         LINE#         942
  C:6BAAH         LINE#         944
  C:6BB9H         LINE#         948
  C:6BCFH         LINE#         949
  C:6BD5H         LINE#         953
  C:6BE3H         LINE#         954
  C:6BEBH         LINE#         955
  C:6BEBH         LINE#         957
  C:6BFAH         LINE#         958
  C:6C0EH         LINE#         959
  C:6C0EH         LINE#         960
BL51 BANKED LINKER/LOCATER V6.22.2.0                                                  06/09/2021  12:25:34  PAGE 79


  C:6C22H         LINE#         961
  C:6C2AH         LINE#         963
  C:6C3AH         LINE#         966
  C:6C3DH         LINE#         970
  C:6C48H         LINE#         973
  C:6C51H         LINE#         974
  C:6C5CH         LINE#         975
  C:6C6BH         LINE#         976
  C:6C7EH         LINE#         978
  C:6C96H         LINE#         979
  C:6CB0H         LINE#         980
  C:6CB8H         LINE#         981
  C:6CB8H         LINE#         983
  C:6CC6H         LINE#         984
  C:6CCEH         LINE#         985
  C:6CCEH         LINE#         986
  C:6CCEH         LINE#         988
  -------         ENDPROC       PROG_HORARIOS
  -------         PROC          PROG_VALIDAR_TIPO_VEHICULO_MENSUAL
  -------         DO            
  X:0046H         SYMBOL        buffer
  X:0050H         SYMBOL        dataee
  -------         ENDDO         
  C:81B7H         LINE#         989
  C:81B7H         LINE#         990
  C:81B7H         LINE#         995
  C:81CAH         LINE#         996
  C:81E7H         LINE#         997
  C:81F1H         LINE#         998
  C:81F1H         LINE#         999
  C:8204H         LINE#         1000
  C:8206H         LINE#         1002
  C:8206H         LINE#         1003
  C:821DH         LINE#         1004
  C:821DH         LINE#         1006
  C:8226H         LINE#         1007
  C:8231H         LINE#         1008
  C:8242H         LINE#         1009
  C:824CH         LINE#         1011
  C:825FH         LINE#         1012
  C:827CH         LINE#         1013
  C:8286H         LINE#         1014
  C:8286H         LINE#         1015
  C:8299H         LINE#         1016
  C:829BH         LINE#         1018
  C:829BH         LINE#         1019
  C:82B2H         LINE#         1020
  C:82B2H         LINE#         1021
  -------         ENDPROC       PROG_VALIDAR_TIPO_VEHICULO_MENSUAL
  -------         PROC          PROG_APB_MENSUAL
  -------         DO            
  X:0046H         SYMBOL        buffer
  X:0050H         SYMBOL        dataee
  -------         ENDDO         
  C:82B3H         LINE#         1022
  C:82B3H         LINE#         1023
  C:82B3H         LINE#         1028
BL51 BANKED LINKER/LOCATER V6.22.2.0                                                  06/09/2021  12:25:34  PAGE 80


  C:82C6H         LINE#         1029
  C:82E3H         LINE#         1030
  C:82EDH         LINE#         1031
  C:82EDH         LINE#         1032
  C:8300H         LINE#         1033
  C:8302H         LINE#         1035
  C:8302H         LINE#         1036
  C:8319H         LINE#         1037
  C:8319H         LINE#         1039
  C:8322H         LINE#         1040
  C:832DH         LINE#         1041
  C:833EH         LINE#         1042
  C:8348H         LINE#         1044
  C:835BH         LINE#         1045
  C:8378H         LINE#         1046
  C:8382H         LINE#         1047
  C:8382H         LINE#         1048
  C:8395H         LINE#         1049
  C:8397H         LINE#         1051
  C:8397H         LINE#         1052
  C:83AEH         LINE#         1053
  C:83AEH         LINE#         1054
  -------         ENDPROC       PROG_APB_MENSUAL
  -------         PROC          PROG_FECHA_VENCIMIENTO
  -------         DO            
  X:0046H         SYMBOL        buffer
  X:0051H         SYMBOL        cmd
  X:0054H         SYMBOL        fecha
  X:005BH         SYMBOL        dataee
  -------         ENDDO         
  C:5ACEH         LINE#         1056
  C:5ACEH         LINE#         1057
  C:5ACEH         LINE#         1064
  C:5ADBH         LINE#         1065
  C:5AF2H         LINE#         1068
  C:5B09H         LINE#         1070
  C:5B09H         LINE#         1071
  C:5B12H         LINE#         1072
  C:5B1FH         LINE#         1073
  C:5B36H         LINE#         1074
  C:5B48H         LINE#         1075
  C:5B51H         LINE#         1080
  C:5B5CH         LINE#         1081
  C:5B70H         LINE#         1082
  C:5B7DH         LINE#         1084
  C:5B86H         LINE#         1087
  C:5B8FH         LINE#         1088
  C:5B9AH         LINE#         1089
  C:5BB1H         LINE#         1091
  C:5BB9H         LINE#         1092
  C:5BC1H         LINE#         1093
  C:5BC4H         LINE#         1095
  C:5BD5H         LINE#         1096
  C:5BE6H         LINE#         1098
  C:5BF5H         LINE#         1099
  C:5BFDH         LINE#         1100
  C:5C05H         LINE#         1101
BL51 BANKED LINKER/LOCATER V6.22.2.0                                                  06/09/2021  12:25:34  PAGE 81


  C:5C08H         LINE#         1102
  C:5C19H         LINE#         1103
  C:5C2AH         LINE#         1104
  C:5C39H         LINE#         1105
  C:5C41H         LINE#         1106
  C:5C49H         LINE#         1107
  C:5C4CH         LINE#         1108
  C:5C5DH         LINE#         1109
  C:5C6EH         LINE#         1110
  C:5C7DH         LINE#         1111
  C:5C88H         LINE#         1113
  C:5C95H         LINE#         1115
  C:5CACH         LINE#         1116
  -------         ENDPROC       PROG_FECHA_VENCIMIENTO
  -------         PROC          VER_HORARIO
  -------         DO            
  X:0059H         SYMBOL        buffer
  X:0063H         SYMBOL        ee_addr_horario
  X:006EH         SYMBOL        conta
  X:006FH         SYMBOL        addr
  X:0071H         SYMBOL        temp
  X:0073H         SYMBOL        dataee
  -------         ENDDO         
  C:7087H         LINE#         1119
  C:7087H         LINE#         1120
  C:7087H         LINE#         1129
  C:7093H         LINE#         1130
  C:70A9H         LINE#         1131
  C:70A9H         LINE#         1133
  C:70B9H         LINE#         1136
  C:70D2H         LINE#         1137
  C:70D8H         LINE#         1140
  C:70E6H         LINE#         1141
  C:70F5H         LINE#         1142
  C:710FH         LINE#         1143
  C:711AH         LINE#         1144
  C:711AH         LINE#         1145
  C:7123H         LINE#         1147
  C:712CH         LINE#         1148
  C:713CH         LINE#         1149
  C:713FH         LINE#         1151
  C:714AH         LINE#         1152
  C:7162H         LINE#         1153
  C:717CH         LINE#         1154
  C:7186H         LINE#         1155
  C:7186H         LINE#         1156
  C:718DH         LINE#         1158
  C:719BH         LINE#         1159
  C:71A3H         LINE#         1160
  C:71A5H         LINE#         1162
  C:71A5H         LINE#         1163
  C:71A9H         LINE#         1164
  C:71A9H         LINE#         1165
  C:71ABH         LINE#         1167
  C:71ABH         LINE#         1168
  C:71B4H         LINE#         1169
  C:71B4H         LINE#         1171
BL51 BANKED LINKER/LOCATER V6.22.2.0                                                  06/09/2021  12:25:34  PAGE 82


  C:71BDH         LINE#         1174
  -------         ENDPROC       VER_HORARIO
  -------         PROC          VER_PROG
  -------         DO            
  X:0046H         SYMBOL        buffer
  X:0050H         SYMBOL        dataee
  X:0052H         SYMBOL        fecha
  -------         ENDDO         
  C:441FH         LINE#         1175
  C:441FH         LINE#         1176
  C:441FH         LINE#         1182
  C:4431H         LINE#         1183
  C:444EH         LINE#         1185
  C:4465H         LINE#         1187
  C:4478H         LINE#         1188
  C:4495H         LINE#         1190
  C:44ACH         LINE#         1192
  C:44BFH         LINE#         1193
  C:44DCH         LINE#         1194
  C:44EAH         LINE#         1195
  C:44EAH         LINE#         1196
  C:44EEH         LINE#         1197
  C:44F0H         LINE#         1199
  C:44F0H         LINE#         1200
  C:44F7H         LINE#         1201
  C:44F7H         LINE#         1203
  C:450AH         LINE#         1204
  C:4527H         LINE#         1205
  C:4533H         LINE#         1206
  C:4533H         LINE#         1207
  C:4537H         LINE#         1208
  C:4539H         LINE#         1210
  C:4539H         LINE#         1211
  C:4540H         LINE#         1212
  C:4540H         LINE#         1214
  C:4553H         LINE#         1215
  C:4570H         LINE#         1216
  C:457CH         LINE#         1217
  C:457CH         LINE#         1218
  C:4580H         LINE#         1219
  C:4582H         LINE#         1221
  C:4582H         LINE#         1222
  C:4589H         LINE#         1223
  C:4589H         LINE#         1225
  C:459CH         LINE#         1226
  C:45B9H         LINE#         1227
  C:45C5H         LINE#         1228
  C:45C5H         LINE#         1229
  C:45C9H         LINE#         1230
  C:45CBH         LINE#         1232
  C:45CBH         LINE#         1233
  C:45D2H         LINE#         1234
  C:45D2H         LINE#         1236
  C:45E5H         LINE#         1237
  C:4602H         LINE#         1238
  C:460EH         LINE#         1239
  C:460EH         LINE#         1240
BL51 BANKED LINKER/LOCATER V6.22.2.0                                                  06/09/2021  12:25:34  PAGE 83


  C:4612H         LINE#         1241
  C:4614H         LINE#         1243
  C:4614H         LINE#         1244
  C:461BH         LINE#         1245
  C:461BH         LINE#         1247
  C:462EH         LINE#         1248
  C:464BH         LINE#         1249
  C:4657H         LINE#         1250
  C:4657H         LINE#         1251
  C:465BH         LINE#         1252
  C:465DH         LINE#         1254
  C:465DH         LINE#         1255
  C:4664H         LINE#         1256
  C:4664H         LINE#         1259
  C:4677H         LINE#         1260
  C:4694H         LINE#         1262
  C:46ABH         LINE#         1264
  C:46AEH         LINE#         1268
  C:46C1H         LINE#         1269
  C:46DEH         LINE#         1270
  C:46EAH         LINE#         1271
  C:46EAH         LINE#         1272
  C:46EEH         LINE#         1273
  C:46F0H         LINE#         1275
  C:46F0H         LINE#         1276
  C:46F7H         LINE#         1277
  C:46F7H         LINE#         1279
  C:470AH         LINE#         1280
  C:4727H         LINE#         1281
  C:4733H         LINE#         1282
  C:4733H         LINE#         1283
  C:4737H         LINE#         1284
  C:4739H         LINE#         1286
  C:4739H         LINE#         1287
  C:4740H         LINE#         1288
  C:4740H         LINE#         1290
  C:474DH         LINE#         1292
  C:4764H         LINE#         1293
  -------         ENDPROC       VER_PROG
  -------         PROC          SHOW
  C:A101H         LINE#         1299
  C:A101H         LINE#         1300
  C:A101H         LINE#         1301
  C:A10AH         LINE#         1302
  C:A113H         LINE#         1303
  C:A11CH         LINE#         1304
  C:A125H         LINE#         1305
  C:A12EH         LINE#         1306
  C:A137H         LINE#         1307
  C:A140H         LINE#         1308
  C:A149H         LINE#         1309
  C:A152H         LINE#         1310
  C:A15BH         LINE#         1311
  C:A164H         LINE#         1312
  C:A16DH         LINE#         1313
  C:A176H         LINE#         1314
  C:A17FH         LINE#         1315
BL51 BANKED LINKER/LOCATER V6.22.2.0                                                  06/09/2021  12:25:34  PAGE 84


  C:A188H         LINE#         1316
  C:A191H         LINE#         1317
  -------         ENDPROC       SHOW
  -------         PROC          FIRST_CLAVE
  -------         DO            
  X:0046H         SYMBOL        clave
  -------         ENDDO         
  C:B5D2H         LINE#         1324
  C:B5D2H         LINE#         1325
  C:B5D2H         LINE#         1329
  C:B5DBH         LINE#         1330
  C:B5E0H         LINE#         1331
  C:B5F2H         LINE#         1332
  C:B5FFH         LINE#         1333
  C:B605H         LINE#         1334
  C:B608H         LINE#         1335
  C:B60BH         LINE#         1336
  C:B60DH         LINE#         1338
  -------         ENDPROC       FIRST_CLAVE
  -------         PROC          MENU
  -------         DO            
  X:0001H         SYMBOL        cmd
  X:0004H         SYMBOL        option1
  X:0007H         SYMBOL        option2
  X:000AH         SYMBOL        opt_buffer
  X:0032H         SYMBOL        buffer
  -------         ENDDO         
  C:54A0H         LINE#         1342
  C:54A0H         LINE#         1343
  C:54A0H         LINE#         1352
  C:54A9H         LINE#         1357
  C:54B5H         LINE#         1358
  C:54B5H         LINE#         1359
  C:54B8H         LINE#         1360
  C:54C2H         LINE#         1363
  C:54C2H         LINE#         1365
  C:54C2H         LINE#         1366
  C:54CBH         LINE#         1367
  C:54D8H         LINE#         1368
  C:54DDH         LINE#         1369
  C:54F3H         LINE#         1370
  C:5505H         LINE#         1371
  C:550EH         LINE#         1376
  C:5519H         LINE#         1377
  C:5527H         LINE#         1378
  C:5534H         LINE#         1380
  C:553DH         LINE#         1384
  C:5540H         LINE#         1385
  C:5540H         LINE#         1386
  C:5540H         LINE#         1387
  C:5543H         LINE#         1390
  C:554EH         LINE#         1391
  C:555CH         LINE#         1392
  C:5570H         LINE#         1393
  C:5584H         LINE#         1398
  C:559AH         LINE#         1399
  C:559AH         LINE#         1401
BL51 BANKED LINKER/LOCATER V6.22.2.0                                                  06/09/2021  12:25:34  PAGE 85


  C:55A9H         LINE#         1402
  C:55ABH         LINE#         1403
  C:55BBH         LINE#         1404
  C:55BBH         LINE#         1406
  C:55CAH         LINE#         1407
  C:55E8H         LINE#         1408
  C:55E8H         LINE#         1414
  C:55FBH         LINE#         1415
  C:55FBH         LINE#         1416
  C:5644H         LINE#         1417
  C:5644H         LINE#         1418
  C:5644H         LINE#         1419
  C:5647H         LINE#         1421
  C:564AH         LINE#         1423
  C:564AH         LINE#         1424
  C:564DH         LINE#         1425
  C:5650H         LINE#         1426
  C:5650H         LINE#         1427
  C:5653H         LINE#         1428
  C:5656H         LINE#         1429
  C:5656H         LINE#         1430
  C:5659H         LINE#         1431
  C:565CH         LINE#         1432
  C:565CH         LINE#         1433
  C:565FH         LINE#         1434
  C:5662H         LINE#         1435
  C:5662H         LINE#         1436
  C:5665H         LINE#         1437
  C:5668H         LINE#         1438
  C:5668H         LINE#         1439
  C:566BH         LINE#         1440
  C:566EH         LINE#         1441
  C:566EH         LINE#         1442
  C:5671H         LINE#         1443
  C:5674H         LINE#         1444
  C:5674H         LINE#         1445
  C:5677H         LINE#         1446
  C:567AH         LINE#         1447
  C:567AH         LINE#         1448
  C:567DH         LINE#         1449
  C:5680H         LINE#         1450
  C:5680H         LINE#         1451
  C:5683H         LINE#         1452
  C:5686H         LINE#         1453
  C:5686H         LINE#         1454
  C:5689H         LINE#         1455
  C:568CH         LINE#         1456
  C:568CH         LINE#         1457
  C:568FH         LINE#         1458
  C:5692H         LINE#         1459
  C:5692H         LINE#         1460
  C:5695H         LINE#         1461
  C:5698H         LINE#         1462
  C:5698H         LINE#         1463
  C:569BH         LINE#         1464
  C:569EH         LINE#         1465
  C:569EH         LINE#         1466
BL51 BANKED LINKER/LOCATER V6.22.2.0                                                  06/09/2021  12:25:34  PAGE 86


  C:56A1H         LINE#         1467
  C:56A4H         LINE#         1468
  C:56A4H         LINE#         1470
  C:56A4H         LINE#         1471
  C:56A4H         LINE#         1472
  C:56A7H         LINE#         1473
  C:56AAH         LINE#         1476
  C:56AAH         LINE#         1477
  C:56C8H         LINE#         1478
  C:56CBH         LINE#         1479
  C:56CBH         LINE#         1480
  C:56CBH         LINE#         1481
  C:56CBH         LINE#         1482
  -------         ENDPROC       MENU
  -------         ENDMOD        PROG

  -------         MODULE        PTO_PARALELO
  C:0000H         SYMBOL        _ICE_DUMMY_
  D:0080H         PUBLIC        P0
  D:00A0H         PUBLIC        P2
  D:00B0H         PUBLIC        P3
  B:0080H.2       PUBLIC        led_err_imp
  C:6F4BH         PUBLIC        load_and_send_id_cod
  C:A19AH         PUBLIC        _recibe_port
  B:00B0H.2       PUBLIC        ready
  B:0080H.6       PUBLIC        rx_in_data
  C:C197H         PUBLIC        Pulso_Bus
  C:A746H         PUBLIC        _send_portERR
  B:00B0H.3       PUBLIC        busy
  C:B4F2H         PUBLIC        load_and_send_info_reloj
  C:98A2H         PUBLIC        _send_port
  B:00B0H.4       PUBLIC        port_clk
  C:C212H         PUBLIC        cond_ini_pto
  -------         PROC          _RECIBE_PORT
  X:0001H         SYMBOL        buffer_port
  -------         DO            
  D:0006H         SYMBOL        count
  X:0004H         SYMBOL        time_out
  X:0005H         SYMBOL        num_data
  X:0006H         SYMBOL        T_ANCHO
  X:0008H         SYMBOL        data_temp
  -------         ENDDO         
  C:A19AH         LINE#         60
  C:A1A5H         LINE#         61
  C:A1A5H         LINE#         65
  C:A1AEH         LINE#         66
  C:A1B1H         LINE#         69
  C:A1B4H         LINE#         70
  C:A1B4H         LINE#         72
  C:A1B7H         LINE#         73
  C:A1BCH         LINE#         74
  C:A1BEH         LINE#         75
  C:A1C2H         LINE#         76
  C:A1C4H         LINE#         79
  C:A1C9H         LINE#         80
  C:A1D2H         LINE#         81
  C:A1D2H         LINE#         82
BL51 BANKED LINKER/LOCATER V6.22.2.0                                                  06/09/2021  12:25:34  PAGE 87


  C:A1D5H         LINE#         83
  C:A1D5H         LINE#         85
  C:A1DAH         LINE#         86
  C:A1DEH         LINE#         87
  C:A1DEH         LINE#         88
  C:A1E0H         LINE#         89
  C:A1E2H         LINE#         90
  C:A1E2H         LINE#         91
  C:A1E2H         LINE#         93
  C:A1E2H         LINE#         94
  C:A1EFH         LINE#         95
  C:A1EFH         LINE#         97
  C:A1F2H         LINE#         98
  C:A1F2H         LINE#         100
  C:A1F8H         LINE#         102
  C:A1FAH         LINE#         103
  C:A20EH         LINE#         104
  C:A218H         LINE#         105
  C:A21EH         LINE#         106
  C:A224H         LINE#         107
  C:A226H         LINE#         108
  C:A226H         LINE#         109
  C:A226H         LINE#         110
  C:A226H         LINE#         113
  C:A228H         LINE#         114
  C:A22AH         LINE#         115
  C:A22AH         LINE#         116
  C:A22DH         LINE#         118
  C:A232H         LINE#         119
  -------         ENDPROC       _RECIBE_PORT
  -------         PROC          _SEND_PORT
  X:0016H         SYMBOL        buffer_port
  X:0019H         SYMBOL        length_char
  -------         DO            
  X:001AH         SYMBOL        cont
  X:001EH         SYMBOL        timeOut
  X:001FH         SYMBOL        length
  -------         ENDDO         
  C:98A2H         LINE#         126
  C:98B0H         LINE#         127
  C:98B0H         LINE#         132
  C:98B4H         LINE#         134
  C:98B6H         LINE#         135
  C:98B8H         LINE#         136
  C:98BAH         LINE#         137
  C:98BFH         LINE#         138
  C:98C1H         LINE#         139
  C:98CBH         LINE#         141
  C:98D4H         LINE#         142
  C:98D4H         LINE#         143
  C:98D6H         LINE#         144
  C:98D8H         LINE#         145
  C:98FCH         LINE#         146
  C:9910H         LINE#         147
  C:9910H         LINE#         148
  C:9913H         LINE#         149
  C:9915H         LINE#         150
BL51 BANKED LINKER/LOCATER V6.22.2.0                                                  06/09/2021  12:25:34  PAGE 88


  C:9915H         LINE#         151
  C:9917H         LINE#         152
  C:9920H         LINE#         153
  C:9920H         LINE#         157
  C:9920H         LINE#         159
  C:9930H         LINE#         160
  C:9933H         LINE#         161
  C:993DH         LINE#         163
  C:9943H         LINE#         164
  C:9946H         LINE#         166
  C:9946H         LINE#         168
  C:9949H         LINE#         169
  C:994BH         LINE#         170
  C:994DH         LINE#         171
  C:994FH         LINE#         172
  -------         ENDPROC       _SEND_PORT
  -------         PROC          PULSO_BUS
  C:C197H         LINE#         180
  C:C197H         LINE#         181
  C:C197H         LINE#         182
  C:C199H         LINE#         183
  C:C1A0H         LINE#         184
  C:C1A2H         LINE#         185
  -------         ENDPROC       PULSO_BUS
  -------         PROC          _SEND_PORTERR
  X:002AH         SYMBOL        cod_err
  -------         DO            
  X:002BH         SYMBOL        timeOut
  X:002CH         SYMBOL        cont
  -------         ENDDO         
  C:A746H         LINE#         190
  C:A74CH         LINE#         191
  C:A74CH         LINE#         195
  C:A74EH         LINE#         196
  C:A750H         LINE#         197
  C:A753H         LINE#         198
  C:A75BH         LINE#         200
  C:A75DH         LINE#         201
  C:A75FH         LINE#         202
  C:A768H         LINE#         203
  C:A768H         LINE#         204
  C:A78AH         LINE#         205
  C:A79EH         LINE#         206
  C:A79EH         LINE#         207
  C:A7A3H         LINE#         208
  C:A7A3H         LINE#         209
  C:A7A5H         LINE#         210
  C:A7AEH         LINE#         211
  C:A7AEH         LINE#         212
  C:A7B4H         LINE#         213
  C:A7B7H         LINE#         214
  C:A7B7H         LINE#         215
  C:A7B9H         LINE#         216
  C:A7BBH         LINE#         217
  C:A7BDH         LINE#         219
  C:A7C0H         LINE#         221
  C:A7C7H         LINE#         222
BL51 BANKED LINKER/LOCATER V6.22.2.0                                                  06/09/2021  12:25:34  PAGE 89


  -------         ENDPROC       _SEND_PORTERR
  -------         PROC          COND_INI_PTO
  C:C212H         LINE#         228
  C:C212H         LINE#         229
  C:C212H         LINE#         231
  C:C214H         LINE#         232
  C:C216H         LINE#         233
  C:C218H         LINE#         234
  C:C21BH         LINE#         235
  -------         ENDPROC       COND_INI_PTO
  -------         PROC          LOAD_AND_SEND_INFO_RELOJ
  -------         DO            
  X:0002H         SYMBOL        buffer_info
  -------         ENDDO         
  C:B4F2H         LINE#         240
  C:B4F2H         LINE#         241
  C:B4F2H         LINE#         244
  C:B4F8H         LINE#         246
  C:B4FCH         LINE#         252
  C:B505H         LINE#         255
  C:B50FH         LINE#         256
  C:B513H         LINE#         257
  C:B516H         LINE#         258
  C:B51FH         LINE#         259
  C:B530H         LINE#         260
  C:B533H         LINE#         261
  -------         ENDPROC       LOAD_AND_SEND_INFO_RELOJ
  -------         PROC          LOAD_AND_SEND_ID_COD
  -------         DO            
  X:0002H         SYMBOL        buffer_info
  X:000DH         SYMBOL        buf
  X:0011H         SYMBOL        i
  X:0012H         SYMBOL        ID_CLIENTE
  X:0014H         SYMBOL        COD_PARK
  -------         ENDDO         
  C:6F4BH         LINE#         268
  C:6F4BH         LINE#         269
  C:6F4BH         LINE#         277
  C:6F5BH         LINE#         279
  C:6F6CH         LINE#         281
  C:6F72H         LINE#         282
  C:6F76H         LINE#         283
  C:6F79H         LINE#         285
  C:6F9FH         LINE#         286
  C:6FB6H         LINE#         289
  C:6FCDH         LINE#         292
  C:6FF3H         LINE#         293
  C:700AH         LINE#         295
  C:7021H         LINE#         296
  C:702FH         LINE#         297
  C:7040H         LINE#         298
  C:7053H         LINE#         299
  C:7059H         LINE#         300
  C:7062H         LINE#         301
  C:7076H         LINE#         302
  C:7079H         LINE#         303
  -------         ENDPROC       LOAD_AND_SEND_ID_COD
BL51 BANKED LINKER/LOCATER V6.22.2.0                                                  06/09/2021  12:25:34  PAGE 90


  -------         ENDMOD        PTO_PARALELO

  -------         MODULE        TIBBO
  C:0000H         SYMBOL        _ICE_DUMMY_
  C:B734H         PUBLIC        _Debug_HexDec
  C:B594H         PUBLIC        _Debug_txt_Tibbo
  D:0080H         PUBLIC        P0
  D:0090H         PUBLIC        P1
  B:0090H.0       PUBLIC        txd2
  B:00A8H.7       PUBLIC        EA
  C:B541H         PUBLIC        _tx_aux
  B:0080H.0       PUBLIC        rx_ip
  C:C21CH         PUBLIC        Debug_Dividir_texto
  C:C271H         PUBLIC        cond_ini_tibbo
  C:C10CH         PUBLIC        time_mbit
  C:A7CEH         PUBLIC        rx_Data
  C:C08BH         PUBLIC        time_bit
  C:B94AH         PUBLIC        _Debug_pto_paralelo
  C:BABFH         PUBLIC        _Debug_monitor
  C:A964H         PUBLIC        _DebugBufferMF
  C:B61AH         PUBLIC        _Debug_chr_Tibbo
  C:C085H         SYMBOL        L?0067
  -------         PROC          L?0066
  -------         ENDPROC       L?0066
  C:C085H         SYMBOL        L?0067
  -------         PROC          TIME_BIT
  -------         DO            
  D:0007H         SYMBOL        j
  -------         ENDDO         
  C:C08BH         LINE#         20
  C:C08BH         LINE#         21
  C:C08BH         LINE#         24
  C:C097H         LINE#         25
  C:C097H         LINE#         26
  C:C098H         LINE#         27
  C:C099H         LINE#         28
  C:C09AH         LINE#         29
  C:C09BH         LINE#         30
  C:C09CH         LINE#         31
  C:C09DH         LINE#         32
  C:C09EH         LINE#         33
  C:C09FH         LINE#         34
  C:C0A0H         LINE#         39
  C:C0A3H         LINE#         40
  -------         ENDPROC       TIME_BIT
  -------         PROC          TIME_MBIT
  -------         DO            
  D:0007H         SYMBOL        j
  -------         ENDDO         
  C:C10CH         LINE#         43
  C:C10CH         LINE#         44
  C:C10CH         LINE#         46
  C:C118H         LINE#         47
  C:C118H         LINE#         48
  C:C119H         LINE#         49
  C:C11AH         LINE#         50
  C:C11BH         LINE#         51
BL51 BANKED LINKER/LOCATER V6.22.2.0                                                  06/09/2021  12:25:34  PAGE 91


  C:C11CH         LINE#         52
  C:C11DH         LINE#         53
  C:C11EH         LINE#         54
  C:C11FH         LINE#         55
  C:C122H         LINE#         57
  -------         ENDPROC       TIME_MBIT
  -------         PROC          L?0070
  -------         ENDPROC       L?0070
  -------         PROC          _TX_AUX
  D:0006H         SYMBOL        caracter
  -------         DO            
  D:0004H         SYMBOL        j
  D:0005H         SYMBOL        temporal
  D:0006H         SYMBOL        bitTX
  -------         ENDDO         
  C:B541H         LINE#         62
  C:B543H         LINE#         63
  C:B543H         LINE#         66
  C:B545H         LINE#         67
  C:B547H         LINE#         68
  C:B54AH         LINE#         69
  C:B54BH         LINE#         70
  C:B54CH         LINE#         71
  C:B54EH         LINE#         72
  C:B552H         LINE#         73
  C:B554H         LINE#         74
  C:B554H         LINE#         75
  C:B556H         LINE#         76
  C:B558H         LINE#         78
  C:B558H         LINE#         79
  C:B55AH         LINE#         80
  C:B55AH         LINE#         81
  C:B55DH         LINE#         82
  C:B569H         LINE#         83
  C:B569H         LINE#         84
  C:B56DH         LINE#         85
  C:B570H         LINE#         86
  C:B572H         LINE#         87
  C:B572H         LINE#         88
  C:B574H         LINE#         89
  C:B576H         LINE#         91
  C:B576H         LINE#         92
  C:B578H         LINE#         93
  C:B578H         LINE#         94
  C:B57BH         LINE#         95
  C:B57EH         LINE#         96
  C:B580H         LINE#         97
  C:B583H         LINE#         98
  C:B586H         LINE#         100
  C:B588H         LINE#         101
  -------         ENDPROC       _TX_AUX
  -------         PROC          _DEBUG_HEXDEC
  D:0007H         SYMBOL        xfc
  -------         DO            
  X:0018H         SYMBOL        valor
  D:0006H         SYMBOL        centena
  D:0003H         SYMBOL        decena
BL51 BANKED LINKER/LOCATER V6.22.2.0                                                  06/09/2021  12:25:34  PAGE 92


  D:0002H         SYMBOL        unidad
  -------         ENDDO         
  C:B734H         LINE#         104
  C:B734H         LINE#         105
  C:B734H         LINE#         108
  C:B73BH         LINE#         110
  C:B73CH         LINE#         111
  C:B73DH         LINE#         112
  C:B73EH         LINE#         113
  C:B746H         LINE#         114
  C:B746H         LINE#         115
  C:B750H         LINE#         116
  C:B750H         LINE#         117
  C:B754H         LINE#         118
  C:B755H         LINE#         119
  C:B757H         LINE#         120
  C:B761H         LINE#         121
  C:B761H         LINE#         122
  C:B765H         LINE#         123
  C:B766H         LINE#         124
  C:B768H         LINE#         125
  C:B76AH         LINE#         126
  C:B76EH         LINE#         127
  C:B772H         LINE#         128
  C:B779H         LINE#         130
  C:B779H         LINE#         131
  -------         ENDPROC       _DEBUG_HEXDEC
  -------         PROC          _DEBUG_CHR_TIBBO
  D:0003H         SYMBOL        Dat
  -------         DO            
  D:0007H         SYMBOL        temp
  -------         ENDDO         
  C:B61AH         LINE#         136
  C:B61CH         LINE#         137
  C:B61CH         LINE#         139
  C:B624H         LINE#         140
  C:B624H         LINE#         141
  C:B62BH         LINE#         142
  C:B63EH         LINE#         144
  C:B641H         LINE#         146
  C:B645H         LINE#         147
  C:B658H         LINE#         148
  C:B65BH         LINE#         149
  C:B660H         LINE#         151
  C:B660H         LINE#         152
  -------         ENDPROC       _DEBUG_CHR_TIBBO
  -------         PROC          _DEBUGBUFFERMF
  X:0027H         SYMBOL        str
  X:002AH         SYMBOL        num_char
  X:002BH         SYMBOL        io
  -------         DO            
  X:002CH         SYMBOL        j
  -------         ENDDO         
  C:A964H         LINE#         160
  C:A972H         LINE#         161
  C:A972H         LINE#         165
  C:A97AH         LINE#         166
BL51 BANKED LINKER/LOCATER V6.22.2.0                                                  06/09/2021  12:25:34  PAGE 93


  C:A97AH         LINE#         167
  C:A989H         LINE#         168
  C:A989H         LINE#         169
  C:A98FH         LINE#         170
  C:A991H         LINE#         171
  C:A99EH         LINE#         172
  C:A99EH         LINE#         173
  C:A9A7H         LINE#         174
  C:A9A7H         LINE#         176
  C:A9B9H         LINE#         177
  C:A9B9H         LINE#         178
  C:A9CBH         LINE#         179
  C:A9D5H         LINE#         180
  C:A9DDH         LINE#         181
  C:A9E2H         LINE#         182
  C:A9E7H         LINE#         183
  C:A9E7H         LINE#         185
  -------         ENDPROC       _DEBUGBUFFERMF
  C:B58EH         SYMBOL        L?0069
  -------         PROC          L?0068
  -------         ENDPROC       L?0068
  C:B58EH         SYMBOL        L?0069
  -------         PROC          _DEBUG_TXT_TIBBO
  X:0053H         SYMBOL        str
  -------         DO            
  X:0056H         SYMBOL        i
  -------         ENDDO         
  C:B594H         LINE#         190
  C:B59FH         LINE#         191
  C:B59FH         LINE#         193
  C:B5A2H         LINE#         195
  C:B5AAH         LINE#         196
  C:B5AAH         LINE#         197
  C:B5C6H         LINE#         198
  C:B5C6H         LINE#         199
  C:B5C9H         LINE#         200
  C:B5D1H         LINE#         202
  C:B5D1H         LINE#         203
  -------         ENDPROC       _DEBUG_TXT_TIBBO
  -------         PROC          DEBUG_DIVIDIR_TEXTO
  C:C21CH         LINE#         205
  C:C21CH         LINE#         206
  C:C21CH         LINE#         207
  -------         ENDPROC       DEBUG_DIVIDIR_TEXTO
  -------         PROC          RX_DATA
  -------         DO            
  D:0006H         SYMBOL        temporal
  -------         ENDDO         
  C:A7CEH         LINE#         213
  C:A7CEH         LINE#         214
  C:A7CEH         LINE#         217
  C:A7D0H         LINE#         218
  C:A7D3H         LINE#         220
  C:A7D6H         LINE#         222
  C:A7E2H         LINE#         223
  C:A7E2H         LINE#         225
  C:A7E5H         LINE#         227
BL51 BANKED LINKER/LOCATER V6.22.2.0                                                  06/09/2021  12:25:34  PAGE 94


  C:A7F1H         LINE#         228
  C:A7F1H         LINE#         230
  C:A7F4H         LINE#         232
  C:A800H         LINE#         233
  C:A800H         LINE#         235
  C:A803H         LINE#         237
  C:A80FH         LINE#         238
  C:A80FH         LINE#         240
  C:A812H         LINE#         242
  C:A81EH         LINE#         243
  C:A81EH         LINE#         245
  C:A821H         LINE#         247
  C:A82DH         LINE#         248
  C:A82DH         LINE#         250
  C:A830H         LINE#         252
  C:A83CH         LINE#         253
  C:A83CH         LINE#         255
  C:A83FH         LINE#         256
  C:A84DH         LINE#         258
  C:A850H         LINE#         259
  C:A853H         LINE#         260
  C:A853H         LINE#         261
  C:A853H         LINE#         264
  C:A855H         LINE#         266
  -------         ENDPROC       RX_DATA
  -------         PROC          COND_INI_TIBBO
  C:C271H         LINE#         284
  C:C271H         LINE#         285
  C:C271H         LINE#         287
  C:C273H         LINE#         288
  C:C275H         LINE#         289
  -------         ENDPROC       COND_INI_TIBBO
  -------         PROC          _DEBUG_PTO_PARALELO
  X:0001H         SYMBOL        buffer
  X:0004H         SYMBOL        Length_trama
  C:B94AH         LINE#         290
  C:B958H         LINE#         291
  C:B958H         LINE#         293
  C:B961H         LINE#         294
  C:B978H         LINE#         295
  C:B981H         LINE#         296
  C:B984H         LINE#         297
  C:B987H         LINE#         298
  -------         ENDPROC       _DEBUG_PTO_PARALELO
  -------         PROC          _DEBUG_MONITOR
  X:0016H         SYMBOL        buffer
  X:0019H         SYMBOL        Length_trama
  C:BABFH         LINE#         301
  C:BACDH         LINE#         302
  C:BACDH         LINE#         303
  C:BAD0H         LINE#         304
  C:BAD9H         LINE#         305
  C:BAE7H         LINE#         306
  C:BAEAH         LINE#         307
  C:BAF3H         LINE#         308
  C:BAF6H         LINE#         309
  C:BAF9H         LINE#         310
BL51 BANKED LINKER/LOCATER V6.22.2.0                                                  06/09/2021  12:25:34  PAGE 95


  -------         ENDPROC       _DEBUG_MONITOR
  -------         ENDMOD        TIBBO

  -------         MODULE        UART
  C:0000H         SYMBOL        _ICE_DUMMY_
  C:BF2CH         PUBLIC        com_getchar
  C:C1A9H         PUBLIC        com_rbuflen
  C:C1BBH         PUBLIC        com_tbuflen
  B:00A8H.4       PUBLIC        ES
  B:0098H.0       PUBLIC        RI
  C:BBAFH         PUBLIC        _com_putchar
  B:0098H.1       PUBLIC        TI
  B:0021H.4       PUBLIC        aSk
  B:00B8H.4       PUBLIC        PS
  D:000DH         SYMBOL        r_in
  D:000EH         SYMBOL        r_out
  D:000FH         SYMBOL        t_in
  D:0010H         SYMBOL        t_out
  D:0099H         PUBLIC        SBUF
  D:0087H         PUBLIC        PCON
  D:0089H         PUBLIC        TMOD
  B:0021H.5       SYMBOL        ti_restart
  B:00A8H.3       PUBLIC        ET1
  D:008DH         PUBLIC        TH1
  B:0098H.7       PUBLIC        SM0
  B:0098H.6       PUBLIC        SM1
  D:008BH         PUBLIC        TL1
  B:0098H.5       PUBLIC        SM2
  B:0088H.6       PUBLIC        TR1
  C:BE63H         PUBLIC        com_initialize
  X:0212H         PUBLIC        cnt__ask_off
  B:0098H.4       PUBLIC        REN
  C:BEB5H         PUBLIC        com_baudrate
  C:6265H         SYMBOL        com_isr
  -------         PROC          COM_ISR
  -------         DO            
  X:0210H         SYMBOL        cDatoRx
  D:0006H         SYMBOL        k
  D:0007H         SYMBOL        bcc
  X:0211H         SYMBOL        num_datos
  -------         ENDDO         
  C:6265H         LINE#         95
  C:627AH         LINE#         103
  C:6280H         LINE#         104
  C:6280H         LINE#         106
  C:6282H         LINE#         107
  C:6288H         LINE#         108
  C:6298H         LINE#         109
  C:6298H         LINE#         110
  C:62A3H         LINE#         111
  C:62A5H         LINE#         113
  C:62A5H         LINE#         114
  C:62B5H         LINE#         115
  C:62B5H         LINE#         116
  C:62BAH         LINE#         117
  C:62BAH         LINE#         118
  C:62D1H         LINE#         119
BL51 BANKED LINKER/LOCATER V6.22.2.0                                                  06/09/2021  12:25:34  PAGE 96


  C:62D1H         LINE#         123
  C:62D1H         LINE#         126
  C:62E0H         LINE#         127
  C:62E0H         LINE#         128
  C:62E2H         LINE#         129
  C:62EAH         LINE#         130
  C:62EFH         LINE#         132
  C:62EFH         LINE#         133
  C:62F2H         LINE#         137
  C:62F2H         LINE#         138
  C:62F2H         LINE#         139
  C:630AH         LINE#         140
  C:6319H         LINE#         141
  C:6319H         LINE#         142
  C:6319H         LINE#         143
  C:631BH         LINE#         145
  C:631BH         LINE#         146
  C:631DH         LINE#         147
  C:631DH         LINE#         148
  C:631DH         LINE#         149
  C:6320H         LINE#         153
  C:6320H         LINE#         155
  C:6329H         LINE#         156
  C:6329H         LINE#         158
  C:632FH         LINE#         159
  C:6342H         LINE#         160
  C:6342H         LINE#         161
  C:6345H         LINE#         163
  C:6345H         LINE#         164
  C:635AH         LINE#         165
  C:6360H         LINE#         166
  C:6360H         LINE#         168
  C:6363H         LINE#         172
  C:6363H         LINE#         174
  C:637BH         LINE#         175
  C:6381H         LINE#         176
  C:6384H         LINE#         177
  C:6384H         LINE#         178
  C:639CH         LINE#         179
  C:639CH         LINE#         180
  C:639DH         LINE#         181
  C:63AAH         LINE#         182
  C:63AAH         LINE#         183
  C:63B7H         LINE#         184
  C:63BAH         LINE#         185
  C:63C8H         LINE#         186
  C:63C8H         LINE#         187
  C:63CAH         LINE#         188
  C:63CFH         LINE#         189
  C:63D1H         LINE#         190
  C:63D5H         LINE#         192
  C:63D7H         LINE#         194
  C:63D7H         LINE#         195
  C:63D7H         LINE#         196
  C:63D7H         LINE#         197
  C:63D9H         LINE#         199
  C:63D9H         LINE#         200
BL51 BANKED LINKER/LOCATER V6.22.2.0                                                  06/09/2021  12:25:34  PAGE 97


  C:63D9H         LINE#         201
  C:63D9H         LINE#         203
  C:63DBH         LINE#         205
  C:63DBH         LINE#         206
  C:63E1H         LINE#         207
  C:63E1H         LINE#         209
  C:63E3H         LINE#         214
  C:63E3H         LINE#         215
  C:63E8H         LINE#         216
  C:63E8H         LINE#         217
  C:63E8H         LINE#         218
  C:63E8H         LINE#         223
  C:63EBH         LINE#         224
  C:63EBH         LINE#         225
  C:63EDH         LINE#         227
  C:63F3H         LINE#         228
  C:63F3H         LINE#         229
  C:63FDH         LINE#         231
  C:63FFH         LINE#         232
  C:6401H         LINE#         233
  C:6403H         LINE#         235
  C:6403H         LINE#         236
  C:6405H         LINE#         237
  C:6405H         LINE#         238
  C:6405H         LINE#         240
  -------         ENDPROC       COM_ISR
  -------         PROC          COM_INITIALIZE
  C:BE63H         LINE#         256
  C:BE6AH         LINE#         257
  C:BE6AH         LINE#         261
  C:BE6DH         LINE#         266
  C:BE70H         LINE#         267
  C:BE72H         LINE#         269
  C:BE74H         LINE#         270
  C:BE76H         LINE#         275
  C:BE7AH         LINE#         276
  C:BE7CH         LINE#         277
  C:BE7EH         LINE#         279
  C:BE80H         LINE#         280
  C:BE82H         LINE#         281
  C:BE84H         LINE#         283
  C:BE86H         LINE#         284
  C:BE88H         LINE#         285
  -------         ENDPROC       COM_INITIALIZE
  -------         PROC          COM_BAUDRATE
  C:BEB5H         LINE#         291
  C:BEBCH         LINE#         293
  C:BEBCH         LINE#         297
  C:BEBEH         LINE#         298
  C:BEC1H         LINE#         299
  C:BEC3H         LINE#         304
  C:BEC5H         LINE#         305
  C:BEC7H         LINE#         307
  C:BECAH         LINE#         309
  C:BECDH         LINE#         310
  C:BED0H         LINE#         312
  C:BED3H         LINE#         313
BL51 BANKED LINKER/LOCATER V6.22.2.0                                                  06/09/2021  12:25:34  PAGE 98


  C:BED6H         LINE#         314
  C:BED8H         LINE#         315
  -------         ENDPROC       COM_BAUDRATE
  -------         PROC          _COM_PUTCHAR
  X:00AAH         SYMBOL        c
  C:BBAFH         LINE#         321
  C:BBBBH         LINE#         322
  C:BBBBH         LINE#         326
  C:BBC8H         LINE#         327
  C:BBCCH         LINE#         333
  C:BBDAH         LINE#         335
  C:BBDCH         LINE#         337
  C:BBDFH         LINE#         338
  C:BBDFH         LINE#         339
  C:BBE1H         LINE#         340
  C:BBE3H         LINE#         341
  C:BBE3H         LINE#         343
  C:BBE5H         LINE#         344
  -------         ENDPROC       _COM_PUTCHAR
  -------         PROC          COM_GETCHAR
  C:BF2CH         LINE#         350
  C:BF33H         LINE#         351
  C:BF33H         LINE#         352
  C:BF39H         LINE#         353
  C:BF3FH         LINE#         355
  C:BF4DH         LINE#         356
  -------         ENDPROC       COM_GETCHAR
  -------         PROC          COM_RBUFLEN
  C:C1A9H         LINE#         362
  C:C1B0H         LINE#         363
  C:C1B0H         LINE#         364
  C:C1B6H         LINE#         365
  -------         ENDPROC       COM_RBUFLEN
  -------         PROC          COM_TBUFLEN
  C:C1BBH         LINE#         371
  C:C1C2H         LINE#         372
  C:C1C2H         LINE#         373
  C:C1C8H         LINE#         374
  -------         ENDPROC       COM_TBUFLEN
  -------         ENDMOD        UART

  -------         MODULE        LINTECH
  C:0000H         SYMBOL        _ICE_DUMMY_
  C:9E94H         PUBLIC        _Inicializa
  C:9145H         PUBLIC        _RD_MF
  C:9B5BH         PUBLIC        Dwload_EEprom
  C:A35CH         PUBLIC        _Card_Insercion
  C:868CH         PUBLIC        _Mov_Card
  C:7BCBH         PUBLIC        _WR_MF
  C:A62DH         PUBLIC        LoadVerify_EEprom
  C:A856H         PUBLIC        Unique_Identifier_UID
  C:AC70H         PUBLIC        Power_off
  C:A8DEH         PUBLIC        _Check_Status
  C:9AB1H         PUBLIC        Clave_Seguridad_S2
  C:ABF0H         PUBLIC        Aut_Card_check_Status
  -------         PROC          _INICIALIZA
  X:0002H         SYMBOL        TipoMovimiento
BL51 BANKED LINKER/LOCATER V6.22.2.0                                                  06/09/2021  12:25:34  PAGE 99


  -------         DO            
  D:0003H         SYMBOL        j
  X:0003H         SYMBOL        bcc
  X:0004H         SYMBOL        g_scArrTxComSoft
  -------         ENDDO         
  C:9E94H         LINE#         68
  C:9E99H         LINE#         69
  C:9E99H         LINE#         72
  C:9E9CH         LINE#         73
  C:9EB2H         LINE#         74
  C:9EB2H         LINE#         76
  C:9EBBH         LINE#         78
  C:9EC1H         LINE#         79
  C:9EC4H         LINE#         80
  C:9EC6H         LINE#         81
  C:9ECAH         LINE#         82
  C:9ECEH         LINE#         83
  C:9ED2H         LINE#         84
  C:9EDAH         LINE#         85
  C:9EDEH         LINE#         86
  C:9EEAH         LINE#         87
  C:9EEAH         LINE#         88
  C:9EFEH         LINE#         89
  C:9F01H         LINE#         90
  C:9F09H         LINE#         91
  C:9F0BH         LINE#         92
  C:9F10H         LINE#         93
  C:9F1FH         LINE#         94
  C:9F2AH         LINE#         95
  C:9F30H         LINE#         96
  C:9F30H         LINE#         97
  -------         ENDPROC       _INICIALIZA
  -------         PROC          _CHECK_STATUS
  X:0002H         SYMBOL        Detalle
  -------         DO            
  D:0006H         SYMBOL        j
  D:0007H         SYMBOL        bcc
  X:0003H         SYMBOL        g_scArrTxComSoft
  -------         ENDDO         
  C:A8DEH         LINE#         109
  C:A8E3H         LINE#         110
  C:A8E3H         LINE#         114
  C:A8E9H         LINE#         115
  C:A8E9H         LINE#         116
  C:A8EDH         LINE#         117
  C:A8EFH         LINE#         119
  C:A8EFH         LINE#         120
  C:A8F6H         LINE#         121
  C:A8F6H         LINE#         122
  C:A8F8H         LINE#         124
  C:A8FEH         LINE#         125
  C:A901H         LINE#         126
  C:A903H         LINE#         127
  C:A907H         LINE#         128
  C:A90BH         LINE#         129
  C:A90FH         LINE#         130
  C:A917H         LINE#         131
BL51 BANKED LINKER/LOCATER V6.22.2.0                                                  06/09/2021  12:25:34  PAGE 100


  C:A91BH         LINE#         132
  C:A927H         LINE#         133
  C:A927H         LINE#         134
  C:A934H         LINE#         135
  C:A937H         LINE#         136
  C:A93CH         LINE#         137
  C:A93EH         LINE#         138
  C:A943H         LINE#         139
  C:A952H         LINE#         140
  C:A95DH         LINE#         141
  C:A963H         LINE#         142
  -------         ENDPROC       _CHECK_STATUS
  -------         PROC          _CARD_INSERCION
  D:0007H         SYMBOL        Tipo
  -------         DO            
  D:0006H         SYMBOL        j
  D:0007H         SYMBOL        bcc
  X:0002H         SYMBOL        g_scArrTxComSoft
  -------         ENDDO         
  C:A35CH         LINE#         152
  C:A35CH         LINE#         153
  C:A35CH         LINE#         156
  C:A369H         LINE#         157
  C:A369H         LINE#         158
  C:A370H         LINE#         159
  C:A376H         LINE#         160
  C:A378H         LINE#         162
  C:A378H         LINE#         164
  C:A37FH         LINE#         165
  C:A385H         LINE#         167
  C:A385H         LINE#         169
  C:A387H         LINE#         171
  C:A38DH         LINE#         172
  C:A390H         LINE#         173
  C:A392H         LINE#         174
  C:A396H         LINE#         175
  C:A39AH         LINE#         176
  C:A39EH         LINE#         178
  C:A3A4H         LINE#         179
  C:A3B0H         LINE#         180
  C:A3B0H         LINE#         181
  C:A3BDH         LINE#         182
  C:A3C0H         LINE#         184
  C:A3C5H         LINE#         186
  C:A3C7H         LINE#         187
  C:A3CCH         LINE#         188
  C:A3DBH         LINE#         189
  C:A3E6H         LINE#         190
  C:A3ECH         LINE#         191
  -------         ENDPROC       _CARD_INSERCION
  -------         PROC          _MOV_CARD
  X:0002H         SYMBOL        Posicion
  -------         DO            
  D:0003H         SYMBOL        j
  X:0003H         SYMBOL        bcc
  X:0004H         SYMBOL        g_scArrTxComSoft
  -------         ENDDO         
BL51 BANKED LINKER/LOCATER V6.22.2.0                                                  06/09/2021  12:25:34  PAGE 101


  C:868CH         LINE#         202
  C:8691H         LINE#         203
  C:8691H         LINE#         206
  C:8694H         LINE#         208
  C:86B4H         LINE#         209
  C:86B4H         LINE#         210
  C:86BBH         LINE#         211
  C:86BBH         LINE#         212
  C:86C1H         LINE#         213
  C:86C3H         LINE#         214
  C:86CAH         LINE#         215
  C:86CAH         LINE#         216
  C:86D0H         LINE#         217
  C:86D2H         LINE#         218
  C:86D9H         LINE#         219
  C:86D9H         LINE#         220
  C:86DFH         LINE#         221
  C:86E1H         LINE#         222
  C:86E8H         LINE#         223
  C:86E8H         LINE#         224
  C:86EEH         LINE#         225
  C:86F0H         LINE#         226
  C:86F7H         LINE#         227
  C:86F7H         LINE#         228
  C:8700H         LINE#         229
  C:8700H         LINE#         231
  C:8706H         LINE#         232
  C:8709H         LINE#         233
  C:870BH         LINE#         234
  C:870FH         LINE#         235
  C:8713H         LINE#         236
  C:8717H         LINE#         237
  C:871FH         LINE#         238
  C:8723H         LINE#         239
  C:872FH         LINE#         240
  C:872FH         LINE#         241
  C:8743H         LINE#         242
  C:8746H         LINE#         243
  C:874EH         LINE#         244
  C:8750H         LINE#         245
  C:8755H         LINE#         246
  C:8764H         LINE#         247
  C:876FH         LINE#         248
  C:8775H         LINE#         249
  C:8775H         LINE#         251
  -------         ENDPROC       _MOV_CARD
  -------         PROC          AUT_CARD_CHECK_STATUS
  -------         DO            
  D:0003H         SYMBOL        j
  X:0002H         SYMBOL        bcc
  X:0003H         SYMBOL        g_scArrTxComSoft
  -------         ENDDO         
  C:ABF0H         LINE#         257
  C:ABF0H         LINE#         258
  C:ABF0H         LINE#         261
  C:ABF5H         LINE#         263
  C:ABFEH         LINE#         265
BL51 BANKED LINKER/LOCATER V6.22.2.0                                                  06/09/2021  12:25:34  PAGE 102


  C:AC04H         LINE#         266
  C:AC07H         LINE#         267
  C:AC09H         LINE#         268
  C:AC0DH         LINE#         269
  C:AC11H         LINE#         270
  C:AC15H         LINE#         271
  C:AC19H         LINE#         272
  C:AC1DH         LINE#         273
  C:AC29H         LINE#         274
  C:AC29H         LINE#         275
  C:AC3DH         LINE#         276
  C:AC40H         LINE#         277
  C:AC48H         LINE#         278
  C:AC4AH         LINE#         279
  C:AC4FH         LINE#         280
  C:AC5EH         LINE#         281
  C:AC69H         LINE#         282
  C:AC6FH         LINE#         283
  -------         ENDPROC       AUT_CARD_CHECK_STATUS
  -------         PROC          CLAVE_SEGURIDAD_S2
  -------         DO            
  D:0003H         SYMBOL        j
  X:0002H         SYMBOL        bcc
  X:0003H         SYMBOL        g_scArrTxComSoft
  -------         ENDDO         
  C:9AB1H         LINE#         286
  C:9AB1H         LINE#         287
  C:9AB1H         LINE#         290
  C:9AB6H         LINE#         291
  C:9ABFH         LINE#         294
  C:9AC5H         LINE#         295
  C:9AC8H         LINE#         296
  C:9ACAH         LINE#         297
  C:9ACEH         LINE#         298
  C:9AD2H         LINE#         299
  C:9AD6H         LINE#         300
  C:9ADAH         LINE#         301
  C:9ADDH         LINE#         302
  C:9AE1H         LINE#         303
  C:9AE4H         LINE#         304
  C:9AE8H         LINE#         306
  C:9AECH         LINE#         308
  C:9AF0H         LINE#         309
  C:9AF4H         LINE#         310
  C:9AF8H         LINE#         311
  C:9AFCH         LINE#         312
  C:9B00H         LINE#         313
  C:9B04H         LINE#         316
  C:9B08H         LINE#         318
  C:9B14H         LINE#         319
  C:9B14H         LINE#         320
  C:9B28H         LINE#         321
  C:9B2BH         LINE#         322
  C:9B33H         LINE#         323
  C:9B35H         LINE#         324
  C:9B3AH         LINE#         325
  C:9B49H         LINE#         326
BL51 BANKED LINKER/LOCATER V6.22.2.0                                                  06/09/2021  12:25:34  PAGE 103


  C:9B54H         LINE#         327
  C:9B5AH         LINE#         330
  -------         ENDPROC       CLAVE_SEGURIDAD_S2
  -------         PROC          DWLOAD_EEPROM
  -------         DO            
  D:0003H         SYMBOL        j
  X:0002H         SYMBOL        bcc
  X:0003H         SYMBOL        g_scArrTxComSoft
  -------         ENDDO         
  C:9B5BH         LINE#         335
  C:9B5BH         LINE#         336
  C:9B5BH         LINE#         339
  C:9B60H         LINE#         340
  C:9B69H         LINE#         342
  C:9B6FH         LINE#         343
  C:9B72H         LINE#         344
  C:9B74H         LINE#         345
  C:9B78H         LINE#         346
  C:9B7CH         LINE#         347
  C:9B80H         LINE#         348
  C:9B84H         LINE#         349
  C:9B87H         LINE#         350
  C:9B8BH         LINE#         351
  C:9B8EH         LINE#         352
  C:9B91H         LINE#         353
  C:9B95H         LINE#         354
  C:9B99H         LINE#         355
  C:9B9DH         LINE#         356
  C:9BA1H         LINE#         357
  C:9BA5H         LINE#         358
  C:9BA9H         LINE#         359
  C:9BADH         LINE#         360
  C:9BB1H         LINE#         362
  C:9BBDH         LINE#         363
  C:9BBDH         LINE#         364
  C:9BD1H         LINE#         365
  C:9BD4H         LINE#         366
  C:9BDCH         LINE#         367
  C:9BDEH         LINE#         368
  C:9BE3H         LINE#         369
  C:9BF2H         LINE#         370
  C:9BFDH         LINE#         371
  C:9C03H         LINE#         372
  -------         ENDPROC       DWLOAD_EEPROM
  -------         PROC          LOADVERIFY_EEPROM
  -------         DO            
  D:0003H         SYMBOL        j
  X:0002H         SYMBOL        bcc
  X:0003H         SYMBOL        g_scArrTxComSoft
  -------         ENDDO         
  C:A62DH         LINE#         378
  C:A62DH         LINE#         379
  C:A62DH         LINE#         382
  C:A632H         LINE#         383
  C:A63BH         LINE#         386
  C:A641H         LINE#         387
  C:A644H         LINE#         388
BL51 BANKED LINKER/LOCATER V6.22.2.0                                                  06/09/2021  12:25:34  PAGE 104


  C:A646H         LINE#         389
  C:A64AH         LINE#         390
  C:A64EH         LINE#         391
  C:A652H         LINE#         392
  C:A656H         LINE#         393
  C:A659H         LINE#         394
  C:A65DH         LINE#         395
  C:A660H         LINE#         396
  C:A663H         LINE#         397
  C:A667H         LINE#         402
  C:A673H         LINE#         403
  C:A673H         LINE#         404
  C:A687H         LINE#         405
  C:A68AH         LINE#         406
  C:A692H         LINE#         407
  C:A694H         LINE#         408
  C:A699H         LINE#         409
  C:A6A8H         LINE#         410
  C:A6B3H         LINE#         411
  C:A6B9H         LINE#         413
  -------         ENDPROC       LOADVERIFY_EEPROM
  -------         PROC          _RD_MF
  X:0002H         SYMBOL        Sector
  X:0003H         SYMBOL        Bloque
  -------         DO            
  D:0003H         SYMBOL        j
  X:0004H         SYMBOL        bcc
  X:0005H         SYMBOL        g_scArrTxComSoft
  -------         ENDDO         
  C:9145H         LINE#         419
  C:914DH         LINE#         420
  C:914DH         LINE#         424
  C:9150H         LINE#         426
  C:9159H         LINE#         427
  C:9161H         LINE#         429
  C:916AH         LINE#         430
  C:9172H         LINE#         431
  C:917BH         LINE#         434
  C:9181H         LINE#         435
  C:9184H         LINE#         436
  C:9186H         LINE#         437
  C:918AH         LINE#         438
  C:918EH         LINE#         439
  C:9192H         LINE#         440
  C:9196H         LINE#         441
  C:9199H         LINE#         442
  C:919DH         LINE#         443
  C:91A5H         LINE#         444
  C:91ADH         LINE#         445
  C:91B1H         LINE#         446
  C:91B5H         LINE#         448
  C:91C1H         LINE#         449
  C:91C1H         LINE#         450
  C:91D5H         LINE#         451
  C:91D8H         LINE#         452
  C:91E0H         LINE#         455
  C:91E2H         LINE#         456
BL51 BANKED LINKER/LOCATER V6.22.2.0                                                  06/09/2021  12:25:34  PAGE 105


  C:91E7H         LINE#         457
  C:91F6H         LINE#         458
  C:9201H         LINE#         459
  C:9207H         LINE#         461
  -------         ENDPROC       _RD_MF
  -------         PROC          _WR_MF
  X:0002H         SYMBOL        Sector
  X:0003H         SYMBOL        Bloque
  X:0004H         SYMBOL        buffer
  -------         DO            
  D:0005H         SYMBOL        j
  X:0007H         SYMBOL        bcc
  X:0008H         SYMBOL        g_scArrTxComSoft
  -------         ENDDO         
  C:7BCBH         LINE#         468
  C:7BDCH         LINE#         470
  C:7BDCH         LINE#         473
  C:7BDFH         LINE#         475
  C:7BE8H         LINE#         476
  C:7BF0H         LINE#         478
  C:7BF9H         LINE#         479
  C:7C01H         LINE#         480
  C:7C0AH         LINE#         482
  C:7C10H         LINE#         483
  C:7C13H         LINE#         484
  C:7C15H         LINE#         485
  C:7C19H         LINE#         487
  C:7C1DH         LINE#         488
  C:7C21H         LINE#         489
  C:7C25H         LINE#         490
  C:7C28H         LINE#         491
  C:7C2CH         LINE#         492
  C:7C34H         LINE#         493
  C:7C3CH         LINE#         494
  C:7C40H         LINE#         496
  C:7C4CH         LINE#         497
  C:7C4CH         LINE#         498
  C:7C6CH         LINE#         499
  C:7C6FH         LINE#         501
  C:7C75H         LINE#         503
  C:7C81H         LINE#         504
  C:7C81H         LINE#         505
  C:7C98H         LINE#         506
  C:7C9BH         LINE#         507
  C:7CA3H         LINE#         510
  C:7CA5H         LINE#         511
  C:7CAAH         LINE#         512
  C:7CB9H         LINE#         513
  C:7CC4H         LINE#         514
  C:7CCAH         LINE#         516
  -------         ENDPROC       _WR_MF
  -------         PROC          UNIQUE_IDENTIFIER_UID
  -------         DO            
  D:0003H         SYMBOL        j
  X:0002H         SYMBOL        bcc
  X:0003H         SYMBOL        g_scArrTxComSoft
  -------         ENDDO         
BL51 BANKED LINKER/LOCATER V6.22.2.0                                                  06/09/2021  12:25:34  PAGE 106


  C:A856H         LINE#         521
  C:A856H         LINE#         522
  C:A856H         LINE#         525
  C:A85BH         LINE#         527
  C:A864H         LINE#         529
  C:A86AH         LINE#         530
  C:A86DH         LINE#         531
  C:A86FH         LINE#         532
  C:A873H         LINE#         533
  C:A877H         LINE#         534
  C:A87BH         LINE#         535
  C:A87FH         LINE#         536
  C:A883H         LINE#         537
  C:A887H         LINE#         538
  C:A88BH         LINE#         539
  C:A897H         LINE#         540
  C:A897H         LINE#         541
  C:A8ABH         LINE#         542
  C:A8AEH         LINE#         543
  C:A8B6H         LINE#         544
  C:A8B8H         LINE#         545
  C:A8BDH         LINE#         546
  C:A8CCH         LINE#         547
  C:A8D7H         LINE#         548
  C:A8DDH         LINE#         549
  -------         ENDPROC       UNIQUE_IDENTIFIER_UID
  -------         PROC          POWER_OFF
  -------         DO            
  D:0003H         SYMBOL        j
  X:0002H         SYMBOL        bcc
  X:0003H         SYMBOL        g_scArrTxComSoft
  -------         ENDDO         
  C:AC70H         LINE#         550
  C:AC70H         LINE#         551
  C:AC70H         LINE#         554
  C:AC75H         LINE#         556
  C:AC7EH         LINE#         558
  C:AC84H         LINE#         559
  C:AC87H         LINE#         560
  C:AC89H         LINE#         561
  C:AC8DH         LINE#         562
  C:AC91H         LINE#         563
  C:AC95H         LINE#         564
  C:AC99H         LINE#         565
  C:AC9DH         LINE#         566
  C:ACA9H         LINE#         567
  C:ACA9H         LINE#         568
  C:ACBDH         LINE#         569
  C:ACC0H         LINE#         570
  C:ACC8H         LINE#         571
  C:ACCAH         LINE#         572
  C:ACCFH         LINE#         573
  C:ACDEH         LINE#         574
  C:ACE9H         LINE#         575
  C:ACEFH         LINE#         578
  -------         ENDPROC       POWER_OFF
  -------         ENDMOD        LINTECH
BL51 BANKED LINKER/LOCATER V6.22.2.0                                                  06/09/2021  12:25:34  PAGE 107



  -------         MODULE        VERIFICADOR
  C:0000H         SYMBOL        _ICE_DUMMY_
  D:0080H         PUBLIC        P0
  C:BF52H         PUBLIC        Analiza_Presencia_Mensual
  C:B09FH         PUBLIC        Ingreso_Vehiculo
  D:0090H         PUBLIC        P1
  C:BEDDH         PUBLIC        _Armar_Trama_Tarjeta_Sector1_Bloque0
  D:00B0H         PUBLIC        P3
  C:6418H         PUBLIC        _Valida_Tipo_Tarjeta
  C:BB18H         PUBLIC        _Load_Secuencia_Expedidor
  C:5CC3H         PUBLIC        _Armar_Trama_Tarjeta_Sector1_Bloque2
  C:524AH         PUBLIC        _Armar_Trama_Pto_Paralelo_Expedidor
  C:9081H         PUBLIC        _Tarjeta_Mensual
  C:BF9EH         PUBLIC        Analiza_Presencia_rotacion
  C:A50DH         PUBLIC        _Disparo_Lock_Entrada_Vehiculo
  C:BE05H         PUBLIC        Pregunta_Placa
  C:A233H         PUBLIC        _Valida_Vehiculo_Card_Mensual
  C:BC24H         PUBLIC        Analiza_card_mount_rf
  C:B2F8H         PUBLIC        _Armar_Trama_Placa
  C:8D5FH         PUBLIC        _rta_cmd_transporte
  C:C225H         PUBLIC        Captura_Expulsa
  C:4FA7H         PUBLIC        _Armar_Trama_Monitor
  C:6E0DH         PUBLIC        Secuencia_inicio_expedidor
  C:8A13H         PUBLIC        _Analiza_Uid_Card
  B:0080H.0       PUBLIC        rx_ip
  C:83AFH         PUBLIC        _Bloque_Horario
  B:0080H.3       PUBLIC        Atascado_GP0_PIN_3
  B:0090H.7       PUBLIC        lock
  C:9D4FH         PUBLIC        _Armar_Trama_Tarjeta_Sector1_Bloque1_Camcel
  C:9FCDH         PUBLIC        _Responde_Lectura_Tarjeta_Sector1_Bloque0
  C:938BH         PUBLIC        error_rx_pto
  C:5EAEH         PUBLIC        _Responde_Lectura_Tarjeta_Sector1_Bloque1
  C:72ECH         PUBLIC        _Responde_Lectura_Tarjeta_Sector1_Bloque2
  C:9F31H         PUBLIC        _Respuesta_Placa_Cancel
  B:0090H.1       PUBLIC        DataIn
  C:9CAAH         PUBLIC        _Send_Pto_Paralelo
  C:BA07H         PUBLIC        Trama_Validacion_P_N
  B:0022H.0       PUBLIC        MenSual
  C:71BEH         PUBLIC        _Armar_Trama_Pto_Paralelo_Expedidor_Mensual
  C:79B0H         PUBLIC        _Horarios
  C:9A05H         PUBLIC        _Hora_Maxima
  C:6A33H         PUBLIC        _Responde_ReeLectura_Tarjeta_Sector1_Bloque2
  C:3AC2H         PUBLIC        _SecuenciaExpedidorMF
  C:B405H         PUBLIC        _Pregunta_Lpr
  C:97EDH         PUBLIC        _Wait_Placa
  C:ADECH         PUBLIC        Responde_Estado_Sensores_Transporte
  C:A59DH         PUBLIC        Entrega_Card_Captura
  C:B29BH         PUBLIC        _Respuesta_Segunda_clave
  X:0147H         SYMBOL        Estado
  C:BD02H         PUBLIC        _Responde_Write_Tarjeta_Sector1_Bloque0
  C:BCCCH         PUBLIC        _Responde_Write_Tarjeta_Sector1_Bloque1
  C:B661H         PUBLIC        _Responde_Write_Tarjeta_Sector2_Bloque0
  C:B033H         PUBLIC        _Responde_Write_Tarjeta_Sector1_Bloque2
  C:AF53H         PUBLIC        _En_Horario
  C:AE68H         PUBLIC        Responde_Tipo_Tarjeta
  C:BDD4H         PUBLIC        _Tarjeta_Rotacion
BL51 BANKED LINKER/LOCATER V6.22.2.0                                                  06/09/2021  12:25:34  PAGE 108


  -------         PROC          CAPTURA_EXPULSA
  -------         DO            
  D:0007H         SYMBOL        Estado_expedidor
  -------         ENDDO         
  C:C225H         LINE#         541
  C:C225H         LINE#         542
  C:C225H         LINE#         546
  C:C228H         LINE#         547
  C:C228H         LINE#         548
  C:C22AH         LINE#         549
  C:C22BH         LINE#         551
  C:C22BH         LINE#         553
  C:C22DH         LINE#         554
  C:C22DH         LINE#         557
  C:C22DH         LINE#         558
  -------         ENDPROC       CAPTURA_EXPULSA
  -------         PROC          TRAMA_VALIDACION_P_N
  -------         DO            
  D:0007H         SYMBOL        Trama_Validacion_P_N
  -------         ENDDO         
  C:BA07H         LINE#         569
  C:BA07H         LINE#         570
  C:BA07H         LINE#         571
  C:BA09H         LINE#         573
  C:BA1FH         LINE#         574
  C:BA1FH         LINE#         575
  C:BA22H         LINE#         576
  C:BA22H         LINE#         577
  C:BA24H         LINE#         580
  C:BA2CH         LINE#         581
  C:BA2CH         LINE#         583
  C:BA2EH         LINE#         585
  C:BA2FH         LINE#         586
  C:BA33H         LINE#         587
  C:BA33H         LINE#         589
  C:BA35H         LINE#         591
  C:BA36H         LINE#         593
  C:BA36H         LINE#         594
  C:BA3FH         LINE#         595
  C:BA41H         LINE#         597
  C:BA41H         LINE#         598
  C:BA42H         LINE#         600
  C:BA42H         LINE#         602
  C:BA44H         LINE#         604
  C:BA44H         LINE#         606
  C:BA44H         LINE#         608
  C:BA44H         LINE#         609
  -------         ENDPROC       TRAMA_VALIDACION_P_N
  -------         PROC          ERROR_RX_PTO
  -------         DO            
  X:00B7H         SYMBOL        cnt_espera_ask_on
  X:0007H         SYMBOL        error_rx_pto
  -------         ENDDO         
  C:938BH         LINE#         633
  C:938BH         LINE#         634
  C:938BH         LINE#         637
  C:9391H         LINE#         641
BL51 BANKED LINKER/LOCATER V6.22.2.0                                                  06/09/2021  12:25:34  PAGE 109


  C:939AH         LINE#         642
  C:93A2H         LINE#         643
  C:93ABH         LINE#         644
  C:93B3H         LINE#         645
  C:93BCH         LINE#         646
  C:93BFH         LINE#         648
  C:93BFH         LINE#         649
  C:93C5H         LINE#         650
  C:93CFH         LINE#         651
  C:93CFH         LINE#         652
  C:93D8H         LINE#         653
  C:93DAH         LINE#         654
  C:93E1H         LINE#         655
  C:93E6H         LINE#         656
  C:93ECH         LINE#         657
  C:93F1H         LINE#         658
  C:93F3H         LINE#         659
  C:93FAH         LINE#         660
  C:9400H         LINE#         661
  C:9400H         LINE#         663
  C:9400H         LINE#         664
  C:9405H         LINE#         665
  C:9405H         LINE#         666
  C:9405H         LINE#         667
  C:9407H         LINE#         669
  C:9407H         LINE#         670
  C:9415H         LINE#         671
  C:9428H         LINE#         672
  C:9428H         LINE#         673
  C:9429H         LINE#         675
  C:942FH         LINE#         676
  C:9433H         LINE#         677
  C:9435H         LINE#         678
  C:9435H         LINE#         679
  C:9437H         LINE#         681
  C:9437H         LINE#         682
  C:9438H         LINE#         683
  C:943DH         LINE#         684
  C:9443H         LINE#         685
  C:9443H         LINE#         686
  C:9443H         LINE#         687
  C:9448H         LINE#         688
  -------         ENDPROC       ERROR_RX_PTO
  -------         PROC          _RTA_CMD_TRANSPORTE
  X:0002H         SYMBOL        secuencia_Expedidor
  -------         DO            
  X:0005H         SYMBOL        temp
  X:0006H         SYMBOL        EstadoComSeqMF
  -------         ENDDO         
  C:8D5FH         LINE#         704
  C:8D6AH         LINE#         705
  C:8D6AH         LINE#         711
  C:8D77H         LINE#         712
  C:8D77H         LINE#         713
  C:8D7FH         LINE#         714
  C:8D7FH         LINE#         715
  C:8D8DH         LINE#         716
BL51 BANKED LINKER/LOCATER V6.22.2.0                                                  06/09/2021  12:25:34  PAGE 110


  C:8D90H         LINE#         717
  C:8D96H         LINE#         718
  C:8D96H         LINE#         719
  C:8D9FH         LINE#         720
  C:8DB3H         LINE#         721
  C:8DC4H         LINE#         723
  C:8DC6H         LINE#         725
  C:8DC6H         LINE#         728
  C:8DDEH         LINE#         729
  C:8DDEH         LINE#         730
  C:8DE9H         LINE#         731
  C:8DEBH         LINE#         733
  C:8DEBH         LINE#         734
  C:8DF9H         LINE#         735
  C:8DF9H         LINE#         736
  C:8DF9H         LINE#         737
  C:8DFBH         LINE#         739
  C:8DFBH         LINE#         741
  C:8E0FH         LINE#         742
  C:8E24H         LINE#         743
  C:8E24H         LINE#         744
  C:8E29H         LINE#         745
  -------         ENDPROC       _RTA_CMD_TRANSPORTE
  -------         PROC          ANALIZA_PRESENCIA_MENSUAL
  -------         DO            
  X:0002H         SYMBOL        Estado_expedidor
  -------         ENDDO         
  C:BF52H         LINE#         749
  C:BF52H         LINE#         750
  C:BF52H         LINE#         754
  C:BF58H         LINE#         755
  C:BF58H         LINE#         756
  C:BF5AH         LINE#         757
  C:BF60H         LINE#         758
  C:BF62H         LINE#         760
  C:BF62H         LINE#         762
  C:BF67H         LINE#         763
  C:BF6CH         LINE#         764
  C:BF72H         LINE#         765
  C:BF72H         LINE#         766
  C:BF77H         LINE#         767
  -------         ENDPROC       ANALIZA_PRESENCIA_MENSUAL
  -------         PROC          ANALIZA_CARD_MOUNT_RF
  -------         DO            
  X:0002H         SYMBOL        Estado_expedidor
  -------         ENDDO         
  C:BC24H         LINE#         771
  C:BC24H         LINE#         772
  C:BC24H         LINE#         774
  C:BC2AH         LINE#         775
  C:BC31H         LINE#         776
  C:BC31H         LINE#         778
  C:BC3AH         LINE#         780
  C:BC40H         LINE#         781
  C:BC42H         LINE#         782
  C:BC49H         LINE#         784
  C:BC49H         LINE#         785
BL51 BANKED LINKER/LOCATER V6.22.2.0                                                  06/09/2021  12:25:34  PAGE 111


  C:BC52H         LINE#         786
  C:BC58H         LINE#         787
  C:BC58H         LINE#         790
  C:BC5DH         LINE#         791
  -------         ENDPROC       ANALIZA_CARD_MOUNT_RF
  -------         PROC          ANALIZA_PRESENCIA_ROTACION
  -------         DO            
  X:0002H         SYMBOL        Estado_expedidor
  -------         ENDDO         
  C:BF9EH         LINE#         795
  C:BF9EH         LINE#         796
  C:BF9EH         LINE#         798
  C:BFA4H         LINE#         799
  C:BFA4H         LINE#         801
  C:BFAAH         LINE#         802
  C:BFACH         LINE#         804
  C:BFACH         LINE#         806
  C:BFB1H         LINE#         807
  C:BFB6H         LINE#         808
  C:BFBBH         LINE#         810
  C:BFBBH         LINE#         811
  C:BFC0H         LINE#         812
  -------         ENDPROC       ANALIZA_PRESENCIA_ROTACION
  -------         PROC          _ANALIZA_UID_CARD
  X:0002H         SYMBOL        Atributos_Expedidor
  -------         DO            
  X:0005H         SYMBOL        Estado_expedidor
  D:0007H         SYMBOL        temp
  X:0006H         SYMBOL        buffer_UID
  -------         ENDDO         
  C:8A13H         LINE#         816
  C:8A1EH         LINE#         817
  C:8A1EH         LINE#         821
  C:8A2EH         LINE#         822
  C:8A2EH         LINE#         824
  C:8A3AH         LINE#         825
  C:8A3AH         LINE#         826
  C:8A52H         LINE#         828
  C:8A55H         LINE#         830
  C:8A5EH         LINE#         831
  C:8A6FH         LINE#         834
  C:8A78H         LINE#         835
  C:8A80H         LINE#         836
  C:8A88H         LINE#         837
  C:8A90H         LINE#         838
  C:8A98H         LINE#         839
  C:8AA1H         LINE#         841
  C:8AB8H         LINE#         842
  C:8AC2H         LINE#         843
  C:8ACCH         LINE#         844
  C:8AD6H         LINE#         845
  C:8ADCH         LINE#         846
  C:8ADEH         LINE#         848
  C:8ADEH         LINE#         849
  C:8AE4H         LINE#         850
  C:8AE4H         LINE#         851
  C:8AE9H         LINE#         852
BL51 BANKED LINKER/LOCATER V6.22.2.0                                                  06/09/2021  12:25:34  PAGE 112


  -------         ENDPROC       _ANALIZA_UID_CARD
  -------         PROC          INGRESO_VEHICULO
  -------         DO            
  D:0007H         SYMBOL        CardAutomatic
  X:00B9H         SYMBOL        pulseboton
  -------         ENDDO         
  C:B09FH         LINE#         856
  C:B09FH         LINE#         857
  C:B09FH         LINE#         862
  C:B0A5H         LINE#         863
  C:B0A5H         LINE#         864
  C:B0AEH         LINE#         866
  C:B0B3H         LINE#         867
  C:B0B3H         LINE#         868
  C:B0BCH         LINE#         870
  C:B0BCH         LINE#         871
  C:B0BEH         LINE#         873
  C:B0BEH         LINE#         875
  C:B0CBH         LINE#         876
  C:B0D0H         LINE#         877
  C:B0D5H         LINE#         878
  C:B0D7H         LINE#         880
  C:B0D7H         LINE#         881
  C:B0DDH         LINE#         884
  C:B0DDH         LINE#         885
  C:B0E0H         LINE#         886
  C:B0E3H         LINE#         887
  C:B0E3H         LINE#         888
  C:B0E5H         LINE#         889
  C:B0EAH         LINE#         890
  C:B0F0H         LINE#         891
  C:B0F2H         LINE#         893
  C:B0F2H         LINE#         894
  C:B0F7H         LINE#         895
  C:B0FDH         LINE#         896
  C:B0FDH         LINE#         899
  C:B0FDH         LINE#         900
  C:B0FFH         LINE#         902
  C:B0FFH         LINE#         904
  C:B104H         LINE#         905
  C:B104H         LINE#         906
  C:B109H         LINE#         907
  -------         ENDPROC       INGRESO_VEHICULO
  -------         PROC          RESPONDE_ESTADO_SENSORES_TRANSPORTE
  -------         DO            
  X:0002H         SYMBOL        Estado_expedidor
  -------         ENDDO         
  C:ADECH         LINE#         914
  C:ADECH         LINE#         915
  C:ADECH         LINE#         918
  C:ADF5H         LINE#         920
  C:ADFDH         LINE#         921
  C:ADFDH         LINE#         923
  C:AE08H         LINE#         924
  C:AE08H         LINE#         925
  C:AE0CH         LINE#         926
  C:AE0CH         LINE#         927
BL51 BANKED LINKER/LOCATER V6.22.2.0                                                  06/09/2021  12:25:34  PAGE 113


  C:AE15H         LINE#         928
  C:AE1AH         LINE#         930
  C:AE1AH         LINE#         931
  C:AE1CH         LINE#         933
  C:AE1CH         LINE#         935
  C:AE24H         LINE#         937
  C:AE24H         LINE#         938
  C:AE26H         LINE#         940
  C:AE26H         LINE#         942
  C:AE2FH         LINE#         944
  C:AE34H         LINE#         947
  C:AE34H         LINE#         948
  C:AE34H         LINE#         949
  C:AE36H         LINE#         950
  C:AE3DH         LINE#         951
  C:AE3DH         LINE#         953
  C:AE43H         LINE#         955
  C:AE43H         LINE#         956
  C:AE45H         LINE#         957
  C:AE4CH         LINE#         959
  C:AE4CH         LINE#         960
  C:AE55H         LINE#         961
  C:AE5BH         LINE#         962
  C:AE5DH         LINE#         964
  C:AE5DH         LINE#         965
  C:AE62H         LINE#         966
  C:AE62H         LINE#         967
  C:AE67H         LINE#         968
  -------         ENDPROC       RESPONDE_ESTADO_SENSORES_TRANSPORTE
  -------         PROC          RESPONDE_TIPO_TARJETA
  -------         DO            
  X:0002H         SYMBOL        Estado_expedidor
  -------         ENDDO         
  C:AE68H         LINE#         984
  C:AE68H         LINE#         985
  C:AE68H         LINE#         988
  C:AE71H         LINE#         990
  C:AE79H         LINE#         991
  C:AE79H         LINE#         992
  C:AE84H         LINE#         993
  C:AE84H         LINE#         994
  C:AE8DH         LINE#         995
  C:AE93H         LINE#         996
  C:AE93H         LINE#         997
  C:AE96H         LINE#         998
  C:AE98H         LINE#         1000
  C:AE98H         LINE#         1001
  C:AE9BH         LINE#         1002
  C:AE9BH         LINE#         1003
  C:AE9DH         LINE#         1005
  C:AE9DH         LINE#         1006
  C:AEA4H         LINE#         1007
  C:AEA4H         LINE#         1009
  C:AEAAH         LINE#         1011
  C:AEAAH         LINE#         1012
  C:AEAAH         LINE#         1014
  C:AEAAH         LINE#         1016
BL51 BANKED LINKER/LOCATER V6.22.2.0                                                  06/09/2021  12:25:34  PAGE 114


  C:AEACH         LINE#         1018
  C:AEACH         LINE#         1019
  C:AEACH         LINE#         1020
  C:AEACH         LINE#         1021
  C:AEACH         LINE#         1022
  C:AEACH         LINE#         1023
  C:AEAEH         LINE#         1025
  C:AEAEH         LINE#         1026
  C:AEB5H         LINE#         1027
  C:AEB5H         LINE#         1030
  C:AEBEH         LINE#         1032
  C:AEC3H         LINE#         1033
  C:AEC8H         LINE#         1035
  C:AED0H         LINE#         1038
  C:AED2H         LINE#         1040
  C:AED2H         LINE#         1041
  C:AED4H         LINE#         1042
  C:AED9H         LINE#         1043
  C:AED9H         LINE#         1044
  C:AED9H         LINE#         1046
  C:AEDEH         LINE#         1047
  -------         ENDPROC       RESPONDE_TIPO_TARJETA
  -------         PROC          _RESPONDE_LECTURA_TARJETA_SECTOR1_BLOQUE1
  X:0002H         SYMBOL        Atributos_Expedidor
  -------         DO            
  D:0007H         SYMBOL        temp
  X:0005H         SYMBOL        Estado_expedidor
  X:0006H         SYMBOL        buffer_S1_B1
  X:0017H         SYMBOL        ID_CLIENTE
  D:0007H         SYMBOL        COD_PARK
  X:00BAH         SYMBOL        falla
  -------         ENDDO         
  C:5EAEH         LINE#         1059
  C:5EB9H         LINE#         1060
  C:5EB9H         LINE#         1067
  C:5EC2H         LINE#         1071
  C:5ED2H         LINE#         1072
  C:5ED2H         LINE#         1074
  C:5EDEH         LINE#         1075
  C:5EDEH         LINE#         1076
  C:5EF6H         LINE#         1078
  C:5EF9H         LINE#         1081
  C:5F02H         LINE#         1082
  C:5F13H         LINE#         1083
  C:5F20H         LINE#         1084
  C:5F29H         LINE#         1087
  C:5F48H         LINE#         1088
  C:5F48H         LINE#         1090
  C:5F51H         LINE#         1091
  C:5F59H         LINE#         1092
  C:5F62H         LINE#         1094
  C:5F6BH         LINE#         1095
  C:5F73H         LINE#         1096
  C:5F7CH         LINE#         1098
  C:5F85H         LINE#         1099
  C:5F8DH         LINE#         1100
  C:5F96H         LINE#         1102
BL51 BANKED LINKER/LOCATER V6.22.2.0                                                  06/09/2021  12:25:34  PAGE 115


  C:5F9FH         LINE#         1103
  C:5FA7H         LINE#         1104
  C:5FB0H         LINE#         1106
  C:5FB9H         LINE#         1107
  C:5FC1H         LINE#         1108
  C:5FCAH         LINE#         1110
  C:5FE1H         LINE#         1112
  C:5FEBH         LINE#         1113
  C:5FF5H         LINE#         1114
  C:5FFFH         LINE#         1116
  C:6004H         LINE#         1117
  C:6017H         LINE#         1118
  C:601CH         LINE#         1119
  C:6022H         LINE#         1121
  C:6024H         LINE#         1123
  C:6024H         LINE#         1124
  C:6029H         LINE#         1125
  C:6032H         LINE#         1126
  C:6037H         LINE#         1127
  C:6039H         LINE#         1128
  C:6039H         LINE#         1129
  C:6039H         LINE#         1130
  C:603BH         LINE#         1132
  C:603BH         LINE#         1134
  C:6043H         LINE#         1135
  C:6043H         LINE#         1136
  C:6049H         LINE#         1137
  C:6049H         LINE#         1138
  C:6056H         LINE#         1140
  C:6056H         LINE#         1141
  C:605FH         LINE#         1142
  C:6065H         LINE#         1144
  C:6067H         LINE#         1146
  C:6067H         LINE#         1147
  C:606CH         LINE#         1148
  C:6075H         LINE#         1149
  C:607AH         LINE#         1150
  C:607FH         LINE#         1151
  C:6087H         LINE#         1152
  C:6087H         LINE#         1153
  C:6087H         LINE#         1155
  C:608CH         LINE#         1156
  -------         ENDPROC       _RESPONDE_LECTURA_TARJETA_SECTOR1_BLOQUE1
  -------         PROC          _RESPONDE_LECTURA_TARJETA_SECTOR1_BLOQUE2
  X:0002H         SYMBOL        Atributos_Expedidor
  -------         DO            
  D:0007H         SYMBOL        temp
  X:0005H         SYMBOL        Estado_expedidor
  X:0006H         SYMBOL        buffer_S1_B2
  -------         ENDDO         
  C:72ECH         LINE#         1161
  C:72F7H         LINE#         1162
  C:72F7H         LINE#         1168
  C:7300H         LINE#         1172
  C:7310H         LINE#         1173
  C:7310H         LINE#         1175
  C:731CH         LINE#         1176
BL51 BANKED LINKER/LOCATER V6.22.2.0                                                  06/09/2021  12:25:34  PAGE 116


  C:731CH         LINE#         1177
  C:7334H         LINE#         1178
  C:7337H         LINE#         1179
  C:7340H         LINE#         1180
  C:7351H         LINE#         1184
  C:735AH         LINE#         1185
  C:7367H         LINE#         1186
  C:7383H         LINE#         1187
  C:738CH         LINE#         1189
  C:7395H         LINE#         1191
  C:73B1H         LINE#         1192
  C:73BBH         LINE#         1193
  C:73C4H         LINE#         1196
  C:73CDH         LINE#         1197
  C:73D5H         LINE#         1198
  C:73DEH         LINE#         1202
  C:73F5H         LINE#         1205
  C:7401H         LINE#         1206
  C:7407H         LINE#         1209
  C:7409H         LINE#         1211
  C:7409H         LINE#         1212
  C:7411H         LINE#         1213
  C:7411H         LINE#         1214
  C:7416H         LINE#         1215
  -------         ENDPROC       _RESPONDE_LECTURA_TARJETA_SECTOR1_BLOQUE2
  -------         PROC          _RESPONDE_LECTURA_TARJETA_SECTOR1_BLOQUE0
  X:0002H         SYMBOL        Nombre_Mensual
  -------         DO            
  D:0007H         SYMBOL        temp
  X:0005H         SYMBOL        Estado_expedidor
  -------         ENDDO         
  C:9FCDH         LINE#         1217
  C:9FD8H         LINE#         1218
  C:9FD8H         LINE#         1224
  C:9FE1H         LINE#         1228
  C:9FEEH         LINE#         1229
  C:9FEEH         LINE#         1231
  C:9FFAH         LINE#         1232
  C:9FFAH         LINE#         1233
  C:A01AH         LINE#         1234
  C:A01DH         LINE#         1235
  C:A031H         LINE#         1236
  C:A03AH         LINE#         1237
  C:A048H         LINE#         1238
  C:A051H         LINE#         1239
  C:A057H         LINE#         1242
  C:A059H         LINE#         1244
  C:A059H         LINE#         1245
  C:A061H         LINE#         1246
  C:A061H         LINE#         1247
  C:A066H         LINE#         1248
  -------         ENDPROC       _RESPONDE_LECTURA_TARJETA_SECTOR1_BLOQUE0
  -------         PROC          _RESPONDE_REELECTURA_TARJETA_SECTOR1_BLOQUE2
  X:0002H         SYMBOL        lectura_anterior
  X:0005H         SYMBOL        Atributos_Expedidor
  -------         DO            
  D:0007H         SYMBOL        temp
BL51 BANKED LINKER/LOCATER V6.22.2.0                                                  06/09/2021  12:25:34  PAGE 117


  X:0008H         SYMBOL        Estado_expedidor
  X:0009H         SYMBOL        reelectura
  X:00BBH         SYMBOL        error_lectura
  -------         ENDDO         
  C:6A33H         LINE#         1249
  C:6A3EH         LINE#         1250
  C:6A3EH         LINE#         1256
  C:6A47H         LINE#         1259
  C:6A57H         LINE#         1260
  C:6A57H         LINE#         1262
  C:6A63H         LINE#         1263
  C:6A63H         LINE#         1264
  C:6A83H         LINE#         1265
  C:6A86H         LINE#         1266
  C:6A9AH         LINE#         1267
  C:6AA3H         LINE#         1268
  C:6AB9H         LINE#         1269
  C:6AC2H         LINE#         1271
  C:6AE6H         LINE#         1272
  C:6AE6H         LINE#         1273
  C:6AEAH         LINE#         1274
  C:6AF3H         LINE#         1275
  C:6AFCH         LINE#         1276
  C:6B0CH         LINE#         1277
  C:6B1EH         LINE#         1278
  C:6B2CH         LINE#         1279
  C:6B2CH         LINE#         1280
  C:6B2EH         LINE#         1282
  C:6B2EH         LINE#         1283
  C:6B34H         LINE#         1284
  C:6B44H         LINE#         1285
  C:6B44H         LINE#         1286
  C:6B47H         LINE#         1287
  C:6B4DH         LINE#         1289
  C:6B4FH         LINE#         1291
  C:6B4FH         LINE#         1292
  C:6B52H         LINE#         1293
  C:6B5BH         LINE#         1294
  C:6B6BH         LINE#         1295
  C:6B7EH         LINE#         1296
  C:6B84H         LINE#         1298
  C:6B84H         LINE#         1299
  C:6B84H         LINE#         1301
  C:6B84H         LINE#         1302
  C:6B89H         LINE#         1303
  -------         ENDPROC       _RESPONDE_REELECTURA_TARJETA_SECTOR1_BLOQUE2
  -------         PROC          _RESPONDE_WRITE_TARJETA_SECTOR1_BLOQUE1
  X:0002H         SYMBOL        Buffer_Write_MF
  -------         DO            
  D:0007H         SYMBOL        Estado_expedidor
  -------         ENDDO         
  C:BCCCH         LINE#         1304
  C:BCD7H         LINE#         1305
  C:BCD7H         LINE#         1307
  C:BCE0H         LINE#         1308
  C:BCE9H         LINE#         1309
  C:BCFFH         LINE#         1310
BL51 BANKED LINKER/LOCATER V6.22.2.0                                                  06/09/2021  12:25:34  PAGE 118


  C:BD01H         LINE#         1311
  C:BD01H         LINE#         1312
  -------         ENDPROC       _RESPONDE_WRITE_TARJETA_SECTOR1_BLOQUE1
  -------         PROC          _RESPONDE_WRITE_TARJETA_SECTOR1_BLOQUE2
  X:0002H         SYMBOL        Atributos_Expedidor
  X:0005H         SYMBOL        Buffer_Write_MF
  -------         DO            
  X:0008H         SYMBOL        Estado_expedidor
  -------         ENDDO         
  C:B033H         LINE#         1313
  C:B03EH         LINE#         1314
  C:B03EH         LINE#         1316
  C:B047H         LINE#         1317
  C:B050H         LINE#         1318
  C:B066H         LINE#         1319
  C:B069H         LINE#         1320
  C:B069H         LINE#         1321
  C:B06FH         LINE#         1327
  C:B071H         LINE#         1329
  C:B071H         LINE#         1330
  C:B081H         LINE#         1331
  C:B093H         LINE#         1332
  C:B099H         LINE#         1334
  C:B099H         LINE#         1335
  C:B09EH         LINE#         1336
  -------         ENDPROC       _RESPONDE_WRITE_TARJETA_SECTOR1_BLOQUE2
  -------         PROC          _RESPONDE_WRITE_TARJETA_SECTOR1_BLOQUE0
  X:0002H         SYMBOL        Buffer_Write_MF
  C:BD02H         LINE#         1339
  C:BD0DH         LINE#         1340
  C:BD0DH         LINE#         1342
  C:BD16H         LINE#         1343
  C:BD1FH         LINE#         1344
  C:BD35H         LINE#         1346
  C:BD37H         LINE#         1347
  -------         ENDPROC       _RESPONDE_WRITE_TARJETA_SECTOR1_BLOQUE0
  -------         PROC          _RESPONDE_WRITE_TARJETA_SECTOR2_BLOQUE0
  X:0002H         SYMBOL        Buffer_Write_MF
  C:B661H         LINE#         1350
  C:B66CH         LINE#         1351
  C:B66CH         LINE#         1353
  C:B675H         LINE#         1354
  C:B67EH         LINE#         1355
  C:B687H         LINE#         1356
  C:B690H         LINE#         1357
  C:B6A5H         LINE#         1358
  C:B6A7H         LINE#         1359
  -------         ENDPROC       _RESPONDE_WRITE_TARJETA_SECTOR2_BLOQUE0
  -------         PROC          _PREGUNTA_LPR
  X:0002H         SYMBOL        Atributos_Expedidor
  -------         DO            
  D:0007H         SYMBOL        Estado_expedidor
  -------         ENDDO         
  C:B405H         LINE#         1363
  C:B410H         LINE#         1364
  C:B410H         LINE#         1366
  C:B419H         LINE#         1367
BL51 BANKED LINKER/LOCATER V6.22.2.0                                                  06/09/2021  12:25:34  PAGE 119


  C:B427H         LINE#         1368
  C:B435H         LINE#         1369
  C:B435H         LINE#         1371
  C:B446H         LINE#         1372
  C:B452H         LINE#         1373
  C:B452H         LINE#         1374
  C:B456H         LINE#         1375
  C:B456H         LINE#         1376
  C:B456H         LINE#         1379
  C:B458H         LINE#         1381
  C:B458H         LINE#         1382
  -------         ENDPROC       _PREGUNTA_LPR
  -------         PROC          PREGUNTA_PLACA
  -------         DO            
  X:0002H         SYMBOL        Estado_expedidor
  -------         ENDDO         
  C:BE05H         LINE#         1384
  C:BE05H         LINE#         1385
  C:BE05H         LINE#         1387
  C:BE0EH         LINE#         1388
  C:BE1DH         LINE#         1389
  C:BE1DH         LINE#         1391
  C:BE20H         LINE#         1392
  C:BE25H         LINE#         1393
  C:BE2AH         LINE#         1394
  C:BE2CH         LINE#         1396
  C:BE2CH         LINE#         1397
  C:BE2FH         LINE#         1398
  C:BE2FH         LINE#         1399
  C:BE34H         LINE#         1400
  -------         ENDPROC       PREGUNTA_PLACA
  -------         PROC          _RESPUESTA_SEGUNDA_CLAVE
  X:0002H         SYMBOL        Atributos_Expedidor
  X:0005H         SYMBOL        Buffer_Write_MF
  C:B29BH         LINE#         1401
  C:B2A6H         LINE#         1402
  C:B2A6H         LINE#         1404
  C:B2AFH         LINE#         1405
  C:B2C5H         LINE#         1408
  C:B2D5H         LINE#         1409
  C:B2E7H         LINE#         1410
  C:B2F5H         LINE#         1412
  C:B2F7H         LINE#         1413
  -------         ENDPROC       _RESPUESTA_SEGUNDA_CLAVE
  -------         PROC          _RESPUESTA_PLACA_CANCEL
  X:0009H         SYMBOL        Atributos_Expedidor
  X:000CH         SYMBOL        Buffer_Write_MF
  -------         DO            
  X:000FH         SYMBOL        Estado_expedidor
  X:0010H         SYMBOL        Cancel
  -------         ENDDO         
  C:9F31H         LINE#         1414
  C:9F3CH         LINE#         1415
  C:9F3CH         LINE#         1417
  C:9F4AH         LINE#         1418
  C:9F53H         LINE#         1419
  C:9F5CH         LINE#         1420
BL51 BANKED LINKER/LOCATER V6.22.2.0                                                  06/09/2021  12:25:34  PAGE 120


  C:9F65H         LINE#         1422
  C:9F80H         LINE#         1423
  C:9F80H         LINE#         1424
  C:9F90H         LINE#         1425
  C:9FA3H         LINE#         1426
  C:9FB1H         LINE#         1427
  C:9FB7H         LINE#         1428
  C:9FB9H         LINE#         1430
  C:9FB9H         LINE#         1431
  C:9FBFH         LINE#         1432
  C:9FBFH         LINE#         1433
  C:9FC2H         LINE#         1434
  C:9FC4H         LINE#         1436
  C:9FC4H         LINE#         1438
  C:9FC7H         LINE#         1439
  C:9FC7H         LINE#         1440
  C:9FC7H         LINE#         1441
  C:9FCCH         LINE#         1442
  -------         ENDPROC       _RESPUESTA_PLACA_CANCEL
  -------         PROC          _ARMAR_TRAMA_TARJETA_SECTOR1_BLOQUE1_CAMCEL
  X:0013H         SYMBOL        Buffer_Write_MF
  -------         DO            
  X:0016H         SYMBOL        ID_CLIENTE
  D:0007H         SYMBOL        COD_PARK
  -------         ENDDO         
  C:9D4FH         LINE#         1445
  C:9D5AH         LINE#         1446
  C:9D5AH         LINE#         1450
  C:9D5DH         LINE#         1451
  C:9D6AH         LINE#         1452
  C:9D73H         LINE#         1454
  C:9D83H         LINE#         1455
  C:9D95H         LINE#         1456
  C:9D9CH         LINE#         1457
  C:9DA6H         LINE#         1458
  C:9DADH         LINE#         1459
  C:9DB4H         LINE#         1460
  C:9DBBH         LINE#         1461
  C:9DC2H         LINE#         1462
  C:9DC9H         LINE#         1463
  C:9DD0H         LINE#         1464
  C:9DD7H         LINE#         1465
  C:9DDEH         LINE#         1466
  C:9DE5H         LINE#         1467
  C:9DECH         LINE#         1468
  -------         ENDPROC       _ARMAR_TRAMA_TARJETA_SECTOR1_BLOQUE1_CAMCEL
  -------         PROC          _ARMAR_TRAMA_TARJETA_SECTOR1_BLOQUE2
  X:0010H         SYMBOL        Atributos_Expedidor
  X:0013H         SYMBOL        Buffer_Write_MF
  C:5CC3H         LINE#         1474
  C:5CCEH         LINE#         1475
  C:5CCEH         LINE#         1480
  C:5CF2H         LINE#         1481
  C:5D19H         LINE#         1482
  C:5D40H         LINE#         1483
  C:5D67H         LINE#         1484
  C:5D8EH         LINE#         1487
BL51 BANKED LINKER/LOCATER V6.22.2.0                                                  06/09/2021  12:25:34  PAGE 121


  C:5D95H         LINE#         1488
  C:5D9CH         LINE#         1489
  C:5DA3H         LINE#         1491
  C:5DB8H         LINE#         1492
  C:5DB8H         LINE#         1493
  C:5DCFH         LINE#         1494
  C:5DE8H         LINE#         1495
  C:5DE8H         LINE#         1496
  C:5DEBH         LINE#         1500
  C:5DEBH         LINE#         1502
  C:5E1AH         LINE#         1503
  C:5E49H         LINE#         1505
  C:5E61H         LINE#         1506
  C:5E61H         LINE#         1507
  C:5E6EH         LINE#         1508
  C:5E70H         LINE#         1510
  C:5E70H         LINE#         1511
  C:5E80H         LINE#         1512
  C:5E80H         LINE#         1513
  C:5E80H         LINE#         1515
  C:5E92H         LINE#         1516
  C:5E99H         LINE#         1517
  C:5EA0H         LINE#         1518
  C:5EA7H         LINE#         1519
  -------         ENDPROC       _ARMAR_TRAMA_TARJETA_SECTOR1_BLOQUE2
  -------         PROC          _ARMAR_TRAMA_TARJETA_SECTOR1_BLOQUE0
  X:000CH         SYMBOL        Buffer_Write_MF
  C:BEDDH         LINE#         1521
  C:BEE8H         LINE#         1522
  C:BEE8H         LINE#         1524
  -------         ENDPROC       _ARMAR_TRAMA_TARJETA_SECTOR1_BLOQUE0
  -------         PROC          _ARMAR_TRAMA_PTO_PARALELO_EXPEDIDOR
  X:0009H         SYMBOL        Atributos_Expedidor
  X:000CH         SYMBOL        longitud_trama_pto_paralelo
  -------         DO            
  X:00BCH         SYMBOL        buffer
  X:000FH         SYMBOL        ticket
  X:001AH         SYMBOL        j
  -------         ENDDO         
  C:524AH         LINE#         1526
  C:5255H         LINE#         1527
  C:5255H         LINE#         1534
  C:525BH         LINE#         1535
  C:525FH         LINE#         1536
  C:5262H         LINE#         1537
  C:526EH         LINE#         1538
  C:5285H         LINE#         1539
  C:5293H         LINE#         1541
  C:52A4H         LINE#         1543
  C:52D0H         LINE#         1544
  C:52FCH         LINE#         1545
  C:5328H         LINE#         1546
  C:5354H         LINE#         1547
  C:5380H         LINE#         1548
  C:5394H         LINE#         1558
  C:53A3H         LINE#         1559
  C:53A3H         LINE#         1560
BL51 BANKED LINKER/LOCATER V6.22.2.0                                                  06/09/2021  12:25:34  PAGE 122


  C:53A9H         LINE#         1561
  C:53A9H         LINE#         1562
  C:53C0H         LINE#         1563
  C:53D6H         LINE#         1564
  C:53ECH         LINE#         1565
  C:5402H         LINE#         1566
  C:5418H         LINE#         1567
  C:542DH         LINE#         1568
  C:542DH         LINE#         1569
  C:542FH         LINE#         1571
  C:542FH         LINE#         1572
  C:5442H         LINE#         1573
  C:5442H         LINE#         1574
  C:5442H         LINE#         1575
  C:5444H         LINE#         1577
  C:5444H         LINE#         1578
  C:5458H         LINE#         1579
  C:546BH         LINE#         1580
  C:546BH         LINE#         1581
  C:5479H         LINE#         1582
  C:5487H         LINE#         1583
  C:5499H         LINE#         1585
  C:549FH         LINE#         1586
  -------         ENDPROC       _ARMAR_TRAMA_PTO_PARALELO_EXPEDIDOR
  -------         PROC          _ARMAR_TRAMA_PTO_PARALELO_EXPEDIDOR_MENSUAL
  X:0009H         SYMBOL        Atributos_Expedidor
  X:000CH         SYMBOL        longitud_trama_pto_paralelo
  -------         DO            
  X:00D8H         SYMBOL        buffer
  -------         ENDDO         
  C:71BEH         LINE#         1587
  C:71C9H         LINE#         1588
  C:71C9H         LINE#         1594
  C:71CFH         LINE#         1595
  C:71D3H         LINE#         1596
  C:71E8H         LINE#         1597
  C:71F2H         LINE#         1598
  C:71FCH         LINE#         1599
  C:7206H         LINE#         1603
  C:7217H         LINE#         1604
  C:7233H         LINE#         1605
  C:724FH         LINE#         1606
  C:726BH         LINE#         1607
  C:7287H         LINE#         1617
  C:7293H         LINE#         1618
  C:7293H         LINE#         1620
  C:729AH         LINE#         1621
  C:729EH         LINE#         1622
  C:72A2H         LINE#         1623
  C:72A6H         LINE#         1624
  C:72AAH         LINE#         1625
  C:72AEH         LINE#         1627
  C:72AEH         LINE#         1629
  C:72C4H         LINE#         1630
  C:72C4H         LINE#         1631
  C:72C7H         LINE#         1632
  C:72C9H         LINE#         1634
BL51 BANKED LINKER/LOCATER V6.22.2.0                                                  06/09/2021  12:25:34  PAGE 123


  C:72C9H         LINE#         1635
  C:72CCH         LINE#         1636
  C:72CCH         LINE#         1638
  C:72D2H         LINE#         1639
  C:72D5H         LINE#         1640
  C:72E5H         LINE#         1641
  C:72EBH         LINE#         1642
  -------         ENDPROC       _ARMAR_TRAMA_PTO_PARALELO_EXPEDIDOR_MENSUAL
  -------         PROC          _ARMAR_TRAMA_MONITOR
  X:0005H         SYMBOL        Atributos_Expedidor
  -------         DO            
  X:00F4H         SYMBOL        buffer
  X:0008H         SYMBOL        ticket
  X:0013H         SYMBOL        j
  -------         ENDDO         
  C:4FA7H         LINE#         1643
  C:4FB2H         LINE#         1644
  C:4FB2H         LINE#         1650
  C:4FB7H         LINE#         1651
  C:4FBDH         LINE#         1652
  C:4FC5H         LINE#         1653
  C:4FC9H         LINE#         1654
  C:4FD2H         LINE#         1655
  C:4FD2H         LINE#         1656
  C:4FD5H         LINE#         1657
  C:4FD7H         LINE#         1659
  C:4FD7H         LINE#         1660
  C:4FDAH         LINE#         1661
  C:4FDAH         LINE#         1664
  C:4FDDH         LINE#         1665
  C:4FDDH         LINE#         1666
  C:4FE2H         LINE#         1667
  C:4FEEH         LINE#         1668
  C:5005H         LINE#         1669
  C:5008H         LINE#         1671
  C:5008H         LINE#         1672
  C:5023H         LINE#         1673
  C:5031H         LINE#         1674
  C:503FH         LINE#         1675
  C:504BH         LINE#         1676
  C:5059H         LINE#         1677
  C:5092H         LINE#         1679
  C:5092H         LINE#         1680
  C:50A0H         LINE#         1681
  C:50B1H         LINE#         1684
  C:50DDH         LINE#         1685
  C:50FBH         LINE#         1688
  C:511CH         LINE#         1689
  C:513AH         LINE#         1692
  C:515BH         LINE#         1693
  C:5179H         LINE#         1696
  C:519AH         LINE#         1697
  C:51B8H         LINE#         1700
  C:51D9H         LINE#         1701
  C:51F7H         LINE#         1702
  C:520AH         LINE#         1705
  C:5218H         LINE#         1707
BL51 BANKED LINKER/LOCATER V6.22.2.0                                                  06/09/2021  12:25:34  PAGE 124


  C:5226H         LINE#         1708
  C:5233H         LINE#         1709
  C:523FH         LINE#         1710
  C:5244H         LINE#         1711
  C:5249H         LINE#         1712
  -------         ENDPROC       _ARMAR_TRAMA_MONITOR
  -------         PROC          _ARMAR_TRAMA_PLACA
  X:0008H         SYMBOL        Buffer_Write_MF
  -------         DO            
  D:0006H         SYMBOL        j
  D:0007H         SYMBOL        len_placa
  -------         ENDDO         
  C:B2F8H         LINE#         1713
  C:B303H         LINE#         1714
  C:B303H         LINE#         1717
  C:B30CH         LINE#         1718
  C:B313H         LINE#         1719
  C:B313H         LINE#         1720
  C:B32DH         LINE#         1721
  C:B330H         LINE#         1722
  C:B33CH         LINE#         1723
  C:B33CH         LINE#         1724
  C:B350H         LINE#         1725
  C:B353H         LINE#         1726
  -------         ENDPROC       _ARMAR_TRAMA_PLACA
  C:BAFCH         SYMBOL        L?0402
  -------         PROC          L?0401
  -------         ENDPROC       L?0401
  C:BAFCH         SYMBOL        L?0402
  -------         PROC          _LOAD_SECUENCIA_EXPEDIDOR
  D:0001H         SYMBOL        Secuencia_Expedidor
  D:0004H         SYMBOL        estadoactivo
  X:0007H         SYMBOL        estadoactual
  X:0009H         SYMBOL        estadofuturo
  C:BB18H         LINE#         1727
  C:BB18H         LINE#         1728
  C:BB18H         LINE#         1729
  C:BB1FH         LINE#         1730
  C:BB27H         LINE#         1731
  C:BB32H         LINE#         1732
  C:BB38H         LINE#         1733
  -------         ENDPROC       _LOAD_SECUENCIA_EXPEDIDOR
  -------         PROC          _DISPARO_LOCK_ENTRADA_VEHICULO
  X:0002H         SYMBOL        Nombre_Mensual
  -------         DO            
  X:0005H         SYMBOL        Estado_expedidor
  X:010CH         SYMBOL        take_card
  -------         ENDDO         
  C:A50DH         LINE#         1734
  C:A518H         LINE#         1735
  C:A518H         LINE#         1740
  C:A521H         LINE#         1744
  C:A528H         LINE#         1745
  C:A528H         LINE#         1747
  C:A531H         LINE#         1749
  C:A537H         LINE#         1750
  C:A539H         LINE#         1751
BL51 BANKED LINKER/LOCATER V6.22.2.0                                                  06/09/2021  12:25:34  PAGE 125


  C:A53EH         LINE#         1752
  C:A54EH         LINE#         1753
  C:A554H         LINE#         1756
  C:A556H         LINE#         1757
  C:A55EH         LINE#         1758
  C:A55EH         LINE#         1759
  C:A564H         LINE#         1760
  C:A564H         LINE#         1761
  C:A571H         LINE#         1762
  C:A576H         LINE#         1763
  C:A57BH         LINE#         1764
  C:A57DH         LINE#         1766
  C:A57DH         LINE#         1767
  C:A583H         LINE#         1769
  C:A583H         LINE#         1771
  C:A589H         LINE#         1772
  C:A58FH         LINE#         1774
  C:A591H         LINE#         1776
  C:A591H         LINE#         1777
  C:A597H         LINE#         1778
  C:A597H         LINE#         1780
  C:A597H         LINE#         1785
  C:A59CH         LINE#         1786
  -------         ENDPROC       _DISPARO_LOCK_ENTRADA_VEHICULO
  -------         PROC          _SEND_PTO_PARALELO
  X:0002H         SYMBOL        Atributos_Expedidor
  -------         DO            
  X:0005H         SYMBOL        Trama_Expedidor
  X:0008H         SYMBOL        leng_trama_pto
  -------         ENDDO         
  C:9CAAH         LINE#         1787
  C:9CB5H         LINE#         1788
  C:9CB5H         LINE#         1791
  C:9CB8H         LINE#         1792
  C:9CB8H         LINE#         1793
  C:9CDFH         LINE#         1794
  C:9CE1H         LINE#         1796
  C:9CE1H         LINE#         1797
  C:9D08H         LINE#         1798
  C:9D0BH         LINE#         1799
  C:9D0BH         LINE#         1801
  C:9D1CH         LINE#         1802
  C:9D25H         LINE#         1803
  C:9D3CH         LINE#         1807
  C:9D3FH         LINE#         1808
  C:9D45H         LINE#         1809
  C:9D4AH         LINE#         1810
  C:9D4CH         LINE#         1811
  C:9D4EH         LINE#         1812
  -------         ENDPROC       _SEND_PTO_PARALELO
  -------         PROC          ENTREGA_CARD_CAPTURA
  -------         DO            
  X:0002H         SYMBOL        Estado_expedidor
  -------         ENDDO         
  C:A59DH         LINE#         1816
  C:A59DH         LINE#         1817
  C:A59DH         LINE#         1821
BL51 BANKED LINKER/LOCATER V6.22.2.0                                                  06/09/2021  12:25:34  PAGE 126


  C:A5A6H         LINE#         1822
  C:A5A9H         LINE#         1823
  C:A5ACH         LINE#         1824
  C:A5ACH         LINE#         1825
  C:A5B6H         LINE#         1826
  C:A5B6H         LINE#         1827
  C:A5B8H         LINE#         1828
  C:A5BAH         LINE#         1829
  C:A5C3H         LINE#         1830
  C:A5C3H         LINE#         1831
  C:A5C3H         LINE#         1833
  C:A5C5H         LINE#         1835
  C:A5C5H         LINE#         1836
  C:A5CBH         LINE#         1837
  C:A5CBH         LINE#         1839
  C:A5D1H         LINE#         1841
  C:A5E4H         LINE#         1842
  C:A5E4H         LINE#         1843
  C:A5F1H         LINE#         1844
  C:A5F1H         LINE#         1845
  C:A5F3H         LINE#         1846
  C:A5FCH         LINE#         1848
  C:A5FEH         LINE#         1849
  C:A5FEH         LINE#         1850
  C:A600H         LINE#         1851
  C:A60DH         LINE#         1852
  C:A60DH         LINE#         1853
  C:A613H         LINE#         1854
  C:A613H         LINE#         1855
  C:A613H         LINE#         1857
  C:A615H         LINE#         1859
  C:A615H         LINE#         1860
  C:A617H         LINE#         1861
  C:A620H         LINE#         1862
  C:A622H         LINE#         1863
  C:A627H         LINE#         1864
  C:A627H         LINE#         1865
  C:A627H         LINE#         1867
  C:A62CH         LINE#         1868
  -------         ENDPROC       ENTREGA_CARD_CAPTURA
  -------         PROC          _WAIT_PLACA
  X:0002H         SYMBOL        Atributos_Expedidor
  X:0005H         SYMBOL        Buffer_Write_MF
  -------         DO            
  X:0008H         SYMBOL        Estado_expedidor
  -------         ENDDO         
  C:97EDH         LINE#         1869
  C:97F8H         LINE#         1870
  C:97F8H         LINE#         1873
  C:9801H         LINE#         1875
  C:9817H         LINE#         1876
  C:9817H         LINE#         1877
  C:981AH         LINE#         1878
  C:981AH         LINE#         1880
  C:981DH         LINE#         1881
  C:981DH         LINE#         1882
  C:981FH         LINE#         1884
BL51 BANKED LINKER/LOCATER V6.22.2.0                                                  06/09/2021  12:25:34  PAGE 127


  C:9822H         LINE#         1885
  C:9822H         LINE#         1886
  C:984AH         LINE#         1887
  C:984CH         LINE#         1890
  C:984CH         LINE#         1891
  C:9852H         LINE#         1892
  C:9865H         LINE#         1893
  C:9865H         LINE#         1894
  C:9872H         LINE#         1895
  C:9872H         LINE#         1896
  C:9881H         LINE#         1897
  C:9887H         LINE#         1898
  C:9889H         LINE#         1899
  C:9896H         LINE#         1900
  C:9896H         LINE#         1901
  C:989CH         LINE#         1902
  C:989CH         LINE#         1903
  C:989CH         LINE#         1904
  C:989CH         LINE#         1905
  C:98A1H         LINE#         1906
  -------         ENDPROC       _WAIT_PLACA
  -------         PROC          _VALIDA_VEHICULO_CARD_MENSUAL
  X:0010H         SYMBOL        Atributos_Expedidor
  -------         DO            
  X:0013H         SYMBOL        Estado_expedidor
  -------         ENDDO         
  C:A233H         LINE#         1907
  C:A23EH         LINE#         1908
  C:A23EH         LINE#         1911
  C:A247H         LINE#         1912
  C:A25CH         LINE#         1913
  C:A25CH         LINE#         1914
  C:A260H         LINE#         1915
  C:A262H         LINE#         1917
  C:A262H         LINE#         1918
  C:A269H         LINE#         1919
  C:A269H         LINE#         1921
  C:A272H         LINE#         1922
  C:A280H         LINE#         1923
  C:A280H         LINE#         1924
  C:A299H         LINE#         1925
  C:A299H         LINE#         1926
  C:A29FH         LINE#         1927
  C:A29FH         LINE#         1928
  C:A2A1H         LINE#         1931
  C:A2A1H         LINE#         1932
  C:A2A6H         LINE#         1933
  C:A2AFH         LINE#         1934
  C:A2B4H         LINE#         1935
  C:A2B4H         LINE#         1936
  C:A2B6H         LINE#         1938
  C:A2B6H         LINE#         1939
  C:A2BFH         LINE#         1940
  C:A2C5H         LINE#         1941
  C:A2C5H         LINE#         1942
  C:A2CAH         LINE#         1943
  -------         ENDPROC       _VALIDA_VEHICULO_CARD_MENSUAL
BL51 BANKED LINKER/LOCATER V6.22.2.0                                                  06/09/2021  12:25:34  PAGE 128


  -------         PROC          _TARJETA_MENSUAL
  X:0009H         SYMBOL        Atributos_Expedidor
  X:000CH         SYMBOL        Buffer_Write_MF
  -------         DO            
  X:000FH         SYMBOL        Estado_expedidor
  -------         ENDDO         
  C:9081H         LINE#         1944
  C:908CH         LINE#         1945
  C:908CH         LINE#         1950
  C:9097H         LINE#         1951
  C:9097H         LINE#         1952
  C:90B5H         LINE#         1953
  C:90B5H         LINE#         1955
  C:90C6H         LINE#         1956
  C:90C6H         LINE#         1957
  C:90CEH         LINE#         1958
  C:90D0H         LINE#         1960
  C:90D0H         LINE#         1961
  C:90D9H         LINE#         1962
  C:90E9H         LINE#         1963
  C:90FCH         LINE#         1964
  C:911CH         LINE#         1965
  C:9122H         LINE#         1966
  C:9122H         LINE#         1967
  C:9124H         LINE#         1969
  C:9124H         LINE#         1970
  C:9129H         LINE#         1972
  C:912EH         LINE#         1973
  C:9137H         LINE#         1974
  C:9137H         LINE#         1975
  C:9137H         LINE#         1976
  C:9139H         LINE#         1978
  C:9139H         LINE#         1980
  C:913FH         LINE#         1981
  C:913FH         LINE#         1982
  C:9144H         LINE#         1983
  -------         ENDPROC       _TARJETA_MENSUAL
  -------         PROC          _TARJETA_ROTACION
  D:0001H         SYMBOL        Atributos_Expedidor
  X:000CH         SYMBOL        Buffer_Write_MF
  C:BDD4H         LINE#         1984
  C:BDD4H         LINE#         1985
  C:BDD4H         LINE#         1986
  C:BDD9H         LINE#         1987
  C:BDE2H         LINE#         1988
  C:BE02H         LINE#         1989
  C:BE04H         LINE#         1992
  -------         ENDPROC       _TARJETA_ROTACION
  -------         PROC          _VALIDA_TIPO_TARJETA
  X:0002H         SYMBOL        Atributos_Expedidor
  X:0005H         SYMBOL        Buffer_Write_MF
  -------         DO            
  X:0008H         SYMBOL        Estado_expedidor
  -------         ENDDO         
  C:6418H         LINE#         1993
  C:6423H         LINE#         1994
  C:6423H         LINE#         1996
BL51 BANKED LINKER/LOCATER V6.22.2.0                                                  06/09/2021  12:25:34  PAGE 129


  C:6430H         LINE#         1997
  C:6430H         LINE#         1998
  C:6439H         LINE#         1999
  C:643FH         LINE#         2000
  C:643FH         LINE#         2004
  C:644DH         LINE#         2005
  C:644DH         LINE#         2008
  C:646AH         LINE#         2009
  C:646AH         LINE#         2010
  C:6487H         LINE#         2012
  C:6489H         LINE#         2014
  C:6489H         LINE#         2015
  C:6492H         LINE#         2016
  C:6494H         LINE#         2017
  C:6494H         LINE#         2018
  C:6494H         LINE#         2019
  C:6497H         LINE#         2022
  C:6497H         LINE#         2023
  C:64A0H         LINE#         2025
  C:64C3H         LINE#         2026
  C:64C3H         LINE#         2027
  C:64C6H         LINE#         2029
  C:64C6H         LINE#         2030
  C:64CBH         LINE#         2031
  C:64D0H         LINE#         2032
  C:64D3H         LINE#         2033
  C:64D3H         LINE#         2034
  C:64D6H         LINE#         2035
  C:64EEH         LINE#         2036
  C:64EEH         LINE#         2038
  C:64F7H         LINE#         2039
  C:64FDH         LINE#         2040
  C:64FDH         LINE#         2041
  C:6509H         LINE#         2042
  C:6509H         LINE#         2043
  C:6526H         LINE#         2045
  C:6526H         LINE#         2046
  C:6546H         LINE#         2047
  C:6548H         LINE#         2049
  C:6548H         LINE#         2050
  C:6551H         LINE#         2051
  C:6556H         LINE#         2052
  C:655BH         LINE#         2053
  C:655EH         LINE#         2054
  C:655EH         LINE#         2055
  C:6560H         LINE#         2057
  C:6560H         LINE#         2058
  C:6569H         LINE#         2059
  C:658CH         LINE#         2060
  C:658CH         LINE#         2061
  C:658EH         LINE#         2063
  C:658EH         LINE#         2065
  C:6593H         LINE#         2066
  C:6598H         LINE#         2067
  C:659EH         LINE#         2068
  C:659EH         LINE#         2069
  C:65A0H         LINE#         2071
BL51 BANKED LINKER/LOCATER V6.22.2.0                                                  06/09/2021  12:25:34  PAGE 130


  C:65A0H         LINE#         2072
  C:65A9H         LINE#         2073
  C:65AEH         LINE#         2075
  C:65B6H         LINE#         2076
  C:65B6H         LINE#         2078
  C:65BBH         LINE#         2079
  -------         ENDPROC       _VALIDA_TIPO_TARJETA
  -------         PROC          _HORARIOS
  X:0010H         SYMBOL        Atributos_Expedidor
  -------         DO            
  X:0013H         SYMBOL        Estado_Horario
  X:0014H         SYMBOL        Addr_horarios
  X:001FH         SYMBOL        dia_semana
  X:0020H         SYMBOL        EE_dia_semana
  X:0021H         SYMBOL        addr
  -------         ENDDO         
  C:79B0H         LINE#         2173
  C:79BBH         LINE#         2174
  C:79BBH         LINE#         2180
  C:79C6H         LINE#         2181
  C:79C6H         LINE#         2183
  C:79D2H         LINE#         2185
  C:79F8H         LINE#         2189
  C:7A0BH         LINE#         2190
  C:7A0BH         LINE#         2192
  C:7A15H         LINE#         2193
  C:7A1EH         LINE#         2194
  C:7A26H         LINE#         2195
  C:7A2FH         LINE#         2198
  C:7A54H         LINE#         2199
  C:7A5DH         LINE#         2200
  C:7A65H         LINE#         2201
  C:7A6EH         LINE#         2203
  C:7A78H         LINE#         2204
  C:7A78H         LINE#         2206
  C:7A86H         LINE#         2207
  C:7A88H         LINE#         2209
  C:7A88H         LINE#         2211
  C:7A91H         LINE#         2212
  C:7A96H         LINE#         2213
  C:7A96H         LINE#         2214
  C:7A98H         LINE#         2216
  C:7A98H         LINE#         2218
  C:7A9DH         LINE#         2219
  C:7AA2H         LINE#         2220
  C:7AA8H         LINE#         2222
  C:7AA8H         LINE#         2224
  C:7AAAH         LINE#         2226
  C:7AAAH         LINE#         2227
  C:7AB0H         LINE#         2229
  C:7AB9H         LINE#         2230
  C:7AB9H         LINE#         2231
  C:7ABEH         LINE#         2232
  -------         ENDPROC       _HORARIOS
  -------         PROC          _HORA_MAXIMA
  X:002FH         SYMBOL        addr
  -------         DO            
BL51 BANKED LINKER/LOCATER V6.22.2.0                                                  06/09/2021  12:25:34  PAGE 131


  X:0031H         SYMBOL        Hora_High
  X:0032H         SYMBOL        Minuto_High
  X:0033H         SYMBOL        HoraIni
  X:0034H         SYMBOL        MinutoIni
  X:0035H         SYMBOL        Hora_Prog
  -------         ENDDO         
  C:9A05H         LINE#         2233
  C:9A0DH         LINE#         2234
  C:9A0DH         LINE#         2239
  C:9A22H         LINE#         2240
  C:9A42H         LINE#         2241
  C:9A5FH         LINE#         2242
  C:9A7FH         LINE#         2243
  C:9A87H         LINE#         2244
  C:9A8FH         LINE#         2245
  C:9A98H         LINE#         2247
  C:9AB0H         LINE#         2248
  -------         ENDPROC       _HORA_MAXIMA
  -------         PROC          _EN_HORARIO
  X:002AH         SYMBOL        HoraNow
  D:0004H         SYMBOL        Hora_Prog
  X:002CH         SYMBOL        addr
  -------         DO            
  X:002EH         SYMBOL        Estado_Horario
  -------         ENDDO         
  C:AF53H         LINE#         2249
  C:AF61H         LINE#         2250
  C:AF61H         LINE#         2253
  C:AF6EH         LINE#         2254
  C:AF6EH         LINE#         2257
  C:AF77H         LINE#         2258
  C:AF8CH         LINE#         2261
  C:AF9BH         LINE#         2262
  C:AF9BH         LINE#         2264
  C:AFA2H         LINE#         2265
  C:AFA8H         LINE#         2266
  C:AFAAH         LINE#         2268
  C:AFAAH         LINE#         2271
  C:AFAEH         LINE#         2272
  C:AFAEH         LINE#         2273
  C:AFAEH         LINE#         2275
  C:AFB0H         LINE#         2277
  C:AFB0H         LINE#         2280
  C:AFB9H         LINE#         2281
  C:AFBEH         LINE#         2283
  C:AFBEH         LINE#         2284
  C:AFC3H         LINE#         2285
  -------         ENDPROC       _EN_HORARIO
  -------         PROC          _BLOQUE_HORARIO
  X:0023H         SYMBOL        addr
  -------         DO            
  X:0025H         SYMBOL        Estado_Horario
  X:0026H         SYMBOL        HoraNow
  X:0028H         SYMBOL        Hora_Prog
  -------         ENDDO         
  C:83AFH         LINE#         2287
  C:83B7H         LINE#         2288
BL51 BANKED LINKER/LOCATER V6.22.2.0                                                  06/09/2021  12:25:34  PAGE 132


  C:83B7H         LINE#         2294
  C:83C0H         LINE#         2295
  C:83C8H         LINE#         2296
  C:83D0H         LINE#         2297
  C:83D9H         LINE#         2298
  C:8400H         LINE#         2303
  C:8409H         LINE#         2304
  C:841EH         LINE#         2305
  C:8436H         LINE#         2306
  C:8438H         LINE#         2307
  C:8438H         LINE#         2310
  C:8450H         LINE#         2311
  C:8450H         LINE#         2312
  C:8459H         LINE#         2313
  C:8474H         LINE#         2314
  C:8492H         LINE#         2315
  C:8494H         LINE#         2317
  C:8494H         LINE#         2318
  C:8499H         LINE#         2319
  C:849EH         LINE#         2320
  C:84A3H         LINE#         2321
  C:84A3H         LINE#         2322
  C:84A3H         LINE#         2324
  C:84AAH         LINE#         2325
  -------         ENDPROC       _BLOQUE_HORARIO
  -------         PROC          SECUENCIA_INICIO_EXPEDIDOR
  -------         DO            
  X:0001H         SYMBOL        temp
  -------         ENDDO         
  C:6E0DH         LINE#         2334
  C:6E0DH         LINE#         2335
  C:6E0DH         LINE#         2337
  C:6E2DH         LINE#         2338
  C:6E2DH         LINE#         2339
  C:6E2DH         LINE#         2342
  C:6E32H         LINE#         2343
  C:6E38H         LINE#         2346
  C:6E3AH         LINE#         2347
  C:6E3AH         LINE#         2358
  C:6E3AH         LINE#         2360
  C:6E48H         LINE#         2361
  C:6E48H         LINE#         2362
  C:6E54H         LINE#         2363
  C:6E54H         LINE#         2364
  C:6E5AH         LINE#         2365
  C:6E5DH         LINE#         2366
  C:6E65H         LINE#         2367
  C:6E65H         LINE#         2368
  C:6E6CH         LINE#         2369
  C:6E80H         LINE#         2370
  C:6E80H         LINE#         2371
  C:6E82H         LINE#         2373
  C:6E82H         LINE#         2374
  C:6E89H         LINE#         2375
  C:6E8FH         LINE#         2376
  C:6E8FH         LINE#         2377
  C:6E92H         LINE#         2379
BL51 BANKED LINKER/LOCATER V6.22.2.0                                                  06/09/2021  12:25:34  PAGE 133


  C:6E92H         LINE#         2380
  C:6E9BH         LINE#         2381
  C:6EAFH         LINE#         2382
  C:6EB5H         LINE#         2383
  C:6EB5H         LINE#         2384
  C:6EB8H         LINE#         2385
  C:6EB8H         LINE#         2391
  C:6EB8H         LINE#         2393
  C:6EBBH         LINE#         2394
  C:6EC1H         LINE#         2398
  C:6EC3H         LINE#         2399
  C:6EC3H         LINE#         2409
  C:6EC3H         LINE#         2411
  C:6ED1H         LINE#         2412
  C:6ED1H         LINE#         2413
  C:6EDDH         LINE#         2414
  C:6EDDH         LINE#         2415
  C:6EE3H         LINE#         2416
  C:6EE5H         LINE#         2417
  C:6EEDH         LINE#         2418
  C:6EEDH         LINE#         2419
  C:6EF4H         LINE#         2420
  C:6F08H         LINE#         2421
  C:6F08H         LINE#         2422
  C:6F0AH         LINE#         2424
  C:6F0AH         LINE#         2425
  C:6F11H         LINE#         2426
  C:6F17H         LINE#         2427
  C:6F17H         LINE#         2428
  C:6F19H         LINE#         2430
  C:6F19H         LINE#         2431
  C:6F22H         LINE#         2432
  C:6F36H         LINE#         2433
  C:6F3BH         LINE#         2434
  C:6F3BH         LINE#         2436
  C:6F3DH         LINE#         2437
  C:6F3DH         LINE#         2443
  C:6F3DH         LINE#         2445
  C:6F43H         LINE#         2446
  C:6F43H         LINE#         2449
  C:6F43H         LINE#         2450
  C:6F4AH         LINE#         2451
  C:6F4AH         LINE#         2452
  C:6F4AH         LINE#         2453
  -------         ENDPROC       SECUENCIA_INICIO_EXPEDIDOR
  -------         PROC          _SECUENCIAEXPEDIDORMF
  X:0001H         SYMBOL        EstadoActivo
  -------         DO            
  X:010DH         SYMBOL        Buffer_Write_MF
  X:011EH         SYMBOL        Atributos_Expedidor
  X:0132H         SYMBOL        Secuencia_Expedidor
  X:0136H         SYMBOL        Nombre_Mensual
  -------         ENDDO         
  C:3AC2H         LINE#         2463
  C:3AC7H         LINE#         2464
  C:3AC7H         LINE#         2470
  C:3B2AH         LINE#         2471
BL51 BANKED LINKER/LOCATER V6.22.2.0                                                  06/09/2021  12:25:34  PAGE 134


  C:3B2AH         LINE#         2474
  C:3B2AH         LINE#         2476
  C:3B3AH         LINE#         2477
  C:3B3AH         LINE#         2480
  C:3B3CH         LINE#         2481
  C:3B3EH         LINE#         2482
  C:3B43H         LINE#         2483
  C:3B4BH         LINE#         2484
  C:3B50H         LINE#         2485
  C:3B53H         LINE#         2486
  C:3B53H         LINE#         2487
  C:3B59H         LINE#         2488
  C:3B59H         LINE#         2489
  C:3B5CH         LINE#         2490
  C:3B5CH         LINE#         2491
  C:3B5CH         LINE#         2493
  C:3B5FH         LINE#         2494
  C:3B5FH         LINE#         2496
  C:3B68H         LINE#         2497
  C:3B6BH         LINE#         2498
  C:3B6BH         LINE#         2499
  C:3B70H         LINE#         2500
  C:3B90H         LINE#         2501
  C:3B93H         LINE#         2502
  C:3B93H         LINE#         2503
  C:3B98H         LINE#         2504
  C:3BA0H         LINE#         2505
  C:3BA6H         LINE#         2506
  C:3BA9H         LINE#         2507
  C:3BA9H         LINE#         2508
  C:3BACH         LINE#         2509
  C:3BB4H         LINE#         2510
  C:3BBAH         LINE#         2511
  C:3BBDH         LINE#         2512
  C:3BBDH         LINE#         2513
  C:3BC0H         LINE#         2514
  C:3BE5H         LINE#         2515
  C:3BEBH         LINE#         2516
  C:3BEDH         LINE#         2517
  C:3BF0H         LINE#         2518
  C:3BF0H         LINE#         2519
  C:3BFBH         LINE#         2520
  C:3C03H         LINE#         2521
  C:3C09H         LINE#         2522
  C:3C0CH         LINE#         2523
  C:3C0CH         LINE#         2524
  C:3C1DH         LINE#         2525
  C:3C25H         LINE#         2526
  C:3C2BH         LINE#         2527
  C:3C2EH         LINE#         2528
  C:3C2EH         LINE#         2529
  C:3C33H         LINE#         2530
  C:3C51H         LINE#         2531
  C:3C54H         LINE#         2532
  C:3C54H         LINE#         2533
  C:3C59H         LINE#         2534
  C:3C79H         LINE#         2535
BL51 BANKED LINKER/LOCATER V6.22.2.0                                                  06/09/2021  12:25:34  PAGE 135


  C:3C7CH         LINE#         2536
  C:3C7CH         LINE#         2537
  C:3C81H         LINE#         2538
  C:3C83H         LINE#         2539
  C:3CA1H         LINE#         2540
  C:3CA4H         LINE#         2541
  C:3CA4H         LINE#         2542
  C:3CA9H         LINE#         2543
  C:3CC9H         LINE#         2544
  C:3CCCH         LINE#         2545
  C:3CCCH         LINE#         2546
  C:3CDFH         LINE#         2547
  C:3CDFH         LINE#         2548
  C:3CE4H         LINE#         2549
  C:3CECH         LINE#         2550
  C:3CF2H         LINE#         2551
  C:3CF2H         LINE#         2552
  C:3CF5H         LINE#         2553
  C:3CF5H         LINE#         2554
  C:3D08H         LINE#         2555
  C:3D08H         LINE#         2556
  C:3D0DH         LINE#         2557
  C:3D10H         LINE#         2558
  C:3D10H         LINE#         2559
  C:3D13H         LINE#         2560
  C:3D13H         LINE#         2561
  C:3D16H         LINE#         2562
  C:3D36H         LINE#         2563
  C:3D39H         LINE#         2564
  C:3D39H         LINE#         2565
  C:3D3BH         LINE#         2566
  C:3D3EH         LINE#         2567
  C:3D41H         LINE#         2568
  C:3D41H         LINE#         2569
  C:3D4AH         LINE#         2570
  C:3D4DH         LINE#         2571
  C:3D4DH         LINE#         2572
  C:3D64H         LINE#         2573
  C:3D67H         LINE#         2574
  C:3D67H         LINE#         2575
  C:3D6AH         LINE#         2576
  C:3D72H         LINE#         2577
  C:3D78H         LINE#         2578
  C:3D7BH         LINE#         2579
  C:3D7BH         LINE#         2580
  C:3D84H         LINE#         2581
  C:3D87H         LINE#         2582
  C:3D87H         LINE#         2583
  C:3D89H         LINE#         2584
  C:3D8CH         LINE#         2585
  C:3D8FH         LINE#         2586
  C:3D8FH         LINE#         2587
  C:3DA6H         LINE#         2588
  C:3DA9H         LINE#         2589
  C:3DA9H         LINE#         2590
  C:3DAEH         LINE#         2591
  C:3DB6H         LINE#         2592
BL51 BANKED LINKER/LOCATER V6.22.2.0                                                  06/09/2021  12:25:34  PAGE 136


  C:3DBCH         LINE#         2593
  C:3DBFH         LINE#         2594
  C:3DBFH         LINE#         2595
  C:3DC2H         LINE#         2596
  C:3DE2H         LINE#         2597
  C:3DE5H         LINE#         2598
  C:3DE5H         LINE#         2599
  C:3DE8H         LINE#         2600
  C:3E08H         LINE#         2601
  C:3E0BH         LINE#         2602
  C:3E0BH         LINE#         2603
  C:3E0EH         LINE#         2604
  C:3E16H         LINE#         2605
  C:3E19H         LINE#         2606
  C:3E1BH         LINE#         2607
  C:3E1BH         LINE#         2609
  C:3E26H         LINE#         2610
  C:3E2EH         LINE#         2611
  C:3E42H         LINE#         2612
  C:3E45H         LINE#         2616
  C:3E45H         LINE#         2617
  C:3E4BH         LINE#         2618
  C:3E51H         LINE#         2619
  C:3E51H         LINE#         2620
  C:3E59H         LINE#         2621
  C:3E5FH         LINE#         2623
  C:3E62H         LINE#         2624
  C:3E6AH         LINE#         2625
  C:3E6AH         LINE#         2627
  C:3E6DH         LINE#         2628
  C:3E70H         LINE#         2629
  C:3E78H         LINE#         2630
  C:3E78H         LINE#         2631
  C:3E86H         LINE#         2632
  C:3E86H         LINE#         2633
  C:3E8FH         LINE#         2634
  C:3E92H         LINE#         2635
  C:3E9EH         LINE#         2636
  C:3E9EH         LINE#         2637
  C:3EA7H         LINE#         2638
  C:3EAAH         LINE#         2640
  C:3EAAH         LINE#         2641
  C:3EB3H         LINE#         2642
  C:3EB3H         LINE#         2643
  C:3EB6H         LINE#         2644
  C:3EBEH         LINE#         2645
  C:3EBEH         LINE#         2646
  C:3ECCH         LINE#         2647
  C:3ECCH         LINE#         2648
  C:3EE2H         LINE#         2649
  C:3EE5H         LINE#         2650
  C:3EF1H         LINE#         2651
  C:3EF1H         LINE#         2652
  C:3EFAH         LINE#         2653
  C:3EFDH         LINE#         2654
  C:3F0BH         LINE#         2655
  C:3F0BH         LINE#         2656
BL51 BANKED LINKER/LOCATER V6.22.2.0                                                  06/09/2021  12:25:34  PAGE 137


  C:3F14H         LINE#         2657
  C:3F16H         LINE#         2659
  C:3F16H         LINE#         2660
  C:3F1FH         LINE#         2661
  C:3F1FH         LINE#         2662
  C:3F21H         LINE#         2663
  C:3F29H         LINE#         2664
  C:3F29H         LINE#         2665
  C:3F32H         LINE#         2666
  C:3F34H         LINE#         2667
  C:3F3CH         LINE#         2668
  C:3F3CH         LINE#         2669
  C:3F52H         LINE#         2670
  C:3F54H         LINE#         2671
  C:3F5CH         LINE#         2672
  C:3F5CH         LINE#         2673
  C:3F5FH         LINE#         2674
  C:3F61H         LINE#         2676
  C:3F69H         LINE#         2677
  C:3F69H         LINE#         2678
  C:3F72H         LINE#         2679
  C:3F74H         LINE#         2682
  C:3F7CH         LINE#         2683
  C:3F7CH         LINE#         2684
  C:3F84H         LINE#         2685
  C:3F86H         LINE#         2687
  C:3F86H         LINE#         2688
  C:3F8FH         LINE#         2689
  C:3F8FH         LINE#         2690
  C:3F91H         LINE#         2691
  C:3F91H         LINE#         2692
  C:3F96H         LINE#         2693
  C:3F96H         LINE#         2695
  C:3F96H         LINE#         2696
  C:3F9BH         LINE#         2697
  -------         ENDPROC       _SECUENCIAEXPEDIDORMF
  -------         ENDMOD        VERIFICADOR

  -------         MODULE        MONITOR
  C:0000H         SYMBOL        _ICE_DUMMY_
  D:0080H         PUBLIC        P0
  D:0090H         PUBLIC        P1
  I:0011H         PUBLIC        placa
  C:BF78H         PUBLIC        Rx_Monitor
  B:0080H.0       PUBLIC        rx_ip
  B:0090H.7       PUBLIC        lock
  C:92CAH         PUBLIC        _recibe_cmd_Monitor
  C:C0DDH         PUBLIC        clear_placa
  C:95C3H         PUBLIC        _Valida_Trama_Monitor
  -------         PROC          _RECIBE_CMD_MONITOR
  X:0016H         SYMBOL        buffer_cmd
  -------         DO            
  X:0019H         SYMBOL        j
  X:001AH         SYMBOL        NumDatos
  X:001BH         SYMBOL        time_out
  X:001CH         SYMBOL        MaxChrRx
  X:001DH         SYMBOL        contador
BL51 BANKED LINKER/LOCATER V6.22.2.0                                                  06/09/2021  12:25:34  PAGE 138


  -------         ENDDO         
  C:92CAH         LINE#         50
  C:92D5H         LINE#         51
  C:92D5H         LINE#         55
  C:92DAH         LINE#         56
  C:92E0H         LINE#         58
  C:92EBH         LINE#         59
  C:92EBH         LINE#         60
  C:92FCH         LINE#         61
  C:92FCH         LINE#         62
  C:9303H         LINE#         63
  C:9307H         LINE#         64
  C:9310H         LINE#         65
  C:9310H         LINE#         66
  C:931EH         LINE#         67
  C:9335H         LINE#         68
  C:9335H         LINE#         69
  C:933BH         LINE#         70
  C:9341H         LINE#         71
  C:9341H         LINE#         72
  C:9343H         LINE#         73
  C:934BH         LINE#         74
  C:9351H         LINE#         75
  C:9363H         LINE#         76
  C:936DH         LINE#         77
  C:9376H         LINE#         79
  C:9385H         LINE#         82
  C:9385H         LINE#         83
  C:938AH         LINE#         84
  -------         ENDPROC       _RECIBE_CMD_MONITOR
  -------         PROC          _VALIDA_TRAMA_MONITOR
  X:0016H         SYMBOL        buffer
  D:0005H         SYMBOL        length_trama
  -------         DO            
  X:0019H         SYMBOL        j
  X:001AH         SYMBOL        p
  X:001BH         SYMBOL        cont
  -------         ENDDO         
  C:95C3H         LINE#         89
  C:95CEH         LINE#         90
  C:95CEH         LINE#         91
  C:95D1H         LINE#         92
  C:95D5H         LINE#         93
  C:95D8H         LINE#         94
  C:95DAH         LINE#         97
  C:95EEH         LINE#         98
  C:95EEH         LINE#         100
  C:95F0H         LINE#         102
  C:95F7H         LINE#         103
  C:95FCH         LINE#         106
  C:95FCH         LINE#         108
  C:9617H         LINE#         109
  C:9617H         LINE#         112
  C:9617H         LINE#         113
  C:9638H         LINE#         114
  C:963CH         LINE#         115
  C:9642H         LINE#         116
BL51 BANKED LINKER/LOCATER V6.22.2.0                                                  06/09/2021  12:25:34  PAGE 139


  C:9654H         LINE#         117
  C:966CH         LINE#         118
  C:9675H         LINE#         119
  C:9677H         LINE#         120
  C:967DH         LINE#         123
  C:967DH         LINE#         126
  -------         ENDPROC       _VALIDA_TRAMA_MONITOR
  -------         PROC          CLEAR_PLACA
  -------         DO            
  D:0007H         SYMBOL        i
  -------         ENDDO         
  C:C0DDH         LINE#         127
  C:C0DDH         LINE#         128
  C:C0DDH         LINE#         130
  C:C0E9H         LINE#         131
  C:C0E9H         LINE#         132
  C:C0EFH         LINE#         133
  C:C0F2H         LINE#         134
  C:C0F4H         LINE#         135
  -------         ENDPROC       CLEAR_PLACA
  -------         PROC          RX_MONITOR
  -------         DO            
  X:0009H         SYMBOL        Length_trama
  X:000AH         SYMBOL        buffer1
  -------         ENDDO         
  C:BF78H         LINE#         136
  C:BF78H         LINE#         137
  C:BF78H         LINE#         140
  C:BF87H         LINE#         141
  C:BF90H         LINE#         142
  -------         ENDPROC       RX_MONITOR
  -------         ENDMOD        MONITOR

  -------         MODULE        ?C?FPADD
  C:1335H         PUBLIC        ?C?FPADD
  C:1331H         PUBLIC        ?C?FPSUB
  -------         ENDMOD        ?C?FPADD

  -------         MODULE        ?C?FPMUL
  C:1426H         PUBLIC        ?C?FPMUL
  -------         ENDMOD        ?C?FPMUL

  -------         MODULE        ?C?FCAST
  C:1536H         PUBLIC        ?C?FCASTC
  C:1531H         PUBLIC        ?C?FCASTI
  C:152CH         PUBLIC        ?C?FCASTL
  -------         ENDMOD        ?C?FCAST

  -------         MODULE        ?C?CASTF
  C:156AH         PUBLIC        ?C?CASTF
  -------         ENDMOD        ?C?CASTF

  -------         MODULE        PRINTF
  X:0077H         PUBLIC        ?_PRINTF?BYTE
  X:0077H         PUBLIC        ?_SPRINTF?BYTE
  C:4007H         PUBLIC        _PRINTF
  C:4001H         PUBLIC        _SPRINTF
BL51 BANKED LINKER/LOCATER V6.22.2.0                                                  06/09/2021  12:25:34  PAGE 140


  -------         ENDMOD        PRINTF

  -------         MODULE        POW
  X:0021H         PUBLIC        ?_pow?BYTE
  C:68CDH         PUBLIC        _pow
  -------         ENDMOD        POW

  -------         MODULE        ?C?CHKFLOAT
  C:15EBH         PUBLIC        ?C?CHKFLOAT
  -------         ENDMOD        ?C?CHKFLOAT

  -------         MODULE        ?C?FPCMP
  C:1607H         PUBLIC        ?C?FPCMP
  C:1605H         PUBLIC        ?C?FPCMP3
  -------         ENDMOD        ?C?FPCMP

  -------         MODULE        ?C?FPNEG
  C:167EH         PUBLIC        ?C?FPNEG
  -------         ENDMOD        ?C?FPNEG

  -------         MODULE        ?C?FPROUND
  C:168FH         PUBLIC        ?C?FPROUND
  -------         ENDMOD        ?C?FPROUND

  -------         MODULE        ?C?FPCONVERT
  C:16CCH         PUBLIC        ?C?FPCONVERT
  -------         ENDMOD        ?C?FPCONVERT

  -------         MODULE        EXP
  C:A09FH         PUBLIC        _EXP
  -------         ENDMOD        EXP

  -------         MODULE        LOG
  C:744BH         PUBLIC        _LOG
  C:7447H         PUBLIC        _LOG10
  -------         ENDMOD        LOG

  -------         MODULE        ?C?FPDIV
  C:17D4H         PUBLIC        ?C?FPDIV
  -------         ENDMOD        ?C?FPDIV

  -------         MODULE        ?C?FTNPWR
  C:18A1H         PUBLIC        ?C?FTNPWR
  -------         ENDMOD        ?C?FTNPWR

  -------         MODULE        ?C?COPY
  C:19FEH         PUBLIC        ?C?COPY
  -------         ENDMOD        ?C?COPY

  -------         MODULE        ?C?CLDPTR
  C:1A24H         PUBLIC        ?C?CLDPTR
  -------         ENDMOD        ?C?CLDPTR

  -------         MODULE        ?C?CLDOPTR
  C:1A3DH         PUBLIC        ?C?CLDOPTR
  -------         ENDMOD        ?C?CLDOPTR

BL51 BANKED LINKER/LOCATER V6.22.2.0                                                  06/09/2021  12:25:34  PAGE 141


  -------         MODULE        ?C?CSTPTR
  C:1A6AH         PUBLIC        ?C?CSTPTR
  -------         ENDMOD        ?C?CSTPTR

  -------         MODULE        ?C?CSTOPTR
  C:1A7CH         PUBLIC        ?C?CSTOPTR
  -------         ENDMOD        ?C?CSTOPTR

  -------         MODULE        ?C?IMUL
  C:1A9EH         PUBLIC        ?C?IMUL
  -------         ENDMOD        ?C?IMUL

  -------         MODULE        ?C?IILDX
  C:1AB0H         PUBLIC        ?C?IILDX
  -------         ENDMOD        ?C?IILDX

  -------         MODULE        ?C?LNEG
  C:1AC6H         PUBLIC        ?C?LNEG
  -------         ENDMOD        ?C?LNEG

  -------         MODULE        ?C?SLCMP
  C:1AD4H         PUBLIC        ?C?SLCMP
  -------         ENDMOD        ?C?SLCMP

  -------         MODULE        ?C?ULCMP
  C:1AEAH         PUBLIC        ?C?ULCMP
  -------         ENDMOD        ?C?ULCMP

  -------         MODULE        ?C?ULSHR
  C:1AFBH         PUBLIC        ?C?ULSHR
  -------         ENDMOD        ?C?ULSHR

  -------         MODULE        ?C?LSHL
  C:1B0EH         PUBLIC        ?C?LSHL
  -------         ENDMOD        ?C?LSHL

  -------         MODULE        ?C?LLDCODE
  C:1B21H         PUBLIC        ?C?LLDCODE
  -------         ENDMOD        ?C?LLDCODE

  -------         MODULE        ?C?LLDXDATA0
  C:1B31H         PUBLIC        ?C?LLDXDATA0
  -------         ENDMOD        ?C?LLDXDATA0

  -------         MODULE        ?C?LLDCODE0
  C:1B3DH         PUBLIC        ?C?LLDCODE0
  -------         ENDMOD        ?C?LLDCODE0

  -------         MODULE        ?C?LSTXDATA
  C:1B4DH         PUBLIC        ?C?LSTXDATA
  -------         ENDMOD        ?C?LSTXDATA

  -------         MODULE        ?C?LSTKXDATA
  C:1B59H         PUBLIC        ?C?LSTKXDATA
  -------         ENDMOD        ?C?LSTKXDATA

  -------         MODULE        ?C?PLDIXDATA
BL51 BANKED LINKER/LOCATER V6.22.2.0                                                  06/09/2021  12:25:34  PAGE 142


  C:1B8AH         PUBLIC        ?C?PLDIXDATA
  -------         ENDMOD        ?C?PLDIXDATA

  -------         MODULE        ?C?PSTXDATA
  C:1BA1H         PUBLIC        ?C?PSTXDATA
  -------         ENDMOD        ?C?PSTXDATA

  -------         MODULE        ?C?CCASE
  C:1BAAH         PUBLIC        ?C?CCASE
  -------         ENDMOD        ?C?CCASE

  -------         MODULE        STRCAT
  X:0048H         PUBLIC        ?_strcat?BYTE
  C:B10AH         PUBLIC        _strcat
  -------         ENDMOD        STRCAT

  -------         MODULE        ?C?STRCMP
  C:1D4EH         PUBLIC        ?C?STRCMP
  -------         ENDMOD        ?C?STRCMP

  -------         MODULE        ?C?STRCPY
  C:1E37H         PUBLIC        ?C?STRCPY
  -------         ENDMOD        ?C?STRCPY

  -------         MODULE        STRLEN
  C:000EH         PUBLIC        _STRLEN
  -------         ENDMOD        STRLEN

  -------         MODULE        STRTOK
  X:0064H         PUBLIC        ?_strtok?BYTE
  C:8776H         PUBLIC        _strtok
  -------         ENDMOD        STRTOK

  -------         MODULE        ATOL
  C:7ABFH         PUBLIC        _atol
  -------         ENDMOD        ATOL

  -------         MODULE        ATOI
  C:8938H         PUBLIC        _atoi
  -------         ENDMOD        ATOI

  -------         MODULE        ?C?ILDIX
  C:1E54H         PUBLIC        ?C?ILDIX
  -------         ENDMOD        ?C?ILDIX

  -------         MODULE        ?C?LMUL
  C:1E6AH         PUBLIC        ?C?LMUL
  -------         ENDMOD        ?C?LMUL

  -------         MODULE        ISDIGIT
  C:C1EDH         PUBLIC        _isdigit
  -------         ENDMOD        ISDIGIT

  -------         MODULE        ISSPACE
  C:C14DH         PUBLIC        _isspace
  -------         ENDMOD        ISSPACE

BL51 BANKED LINKER/LOCATER V6.22.2.0                                                  06/09/2021  12:25:34  PAGE 143


  -------         MODULE        STRSPN
  X:006AH         PUBLIC        ?_strspn?BYTE
  C:A9E8H         PUBLIC        _strspn
  -------         ENDMOD        STRSPN

  -------         MODULE        STRPBRK
  X:006AH         PUBLIC        ?_strpbrk?BYTE
  C:AAEFH         PUBLIC        _strpbrk
  -------         ENDMOD        STRPBRK

Program Size: data=99.1 xdata=538 code=49786
LINK/LOCATE RUN COMPLETE.  0 WARNING(S),  0 ERROR(S)
