BL51 BANKED LINKER/LOCATER V6.22.2.0                                                    06/11/2021  11:57:45  PAGE 1


BL51 BANKED LINKER/LOCATER V6.22.2.0, INVOKED BY:
C:\KEIL_V5\C51\BIN\BL51.EXE .\Objects\main.obj, .\Objects\Accescan.obj, .\Objects\Clock.obj, .\Objects\delay.obj, .\Obje
>> cts\eeprom.obj, .\Objects\io_sensores.obj, .\Objects\pantallas.obj, .\Objects\prog.obj, .\Objects\pto_paralelo.obj, .
>> \Objects\tibbo.obj, .\Objects\uart.obj, .\Objects\lintech.obj, .\Objects\verificador.obj, .\Objects\Monitor.obj TO .\
>> Objects\expedidor_v_01_raspberry PRINT (.\Listings\expedidor_v_01_raspberry.m51) RAMSIZE (256)


MEMORY MODEL: LARGE WITH FLOATING POINT ARITHMETIC


INPUT MODULES INCLUDED:
  .\Objects\main.obj (MAIN)
  .\Objects\Accescan.obj (ACCESCAN)
  .\Objects\Clock.obj (CLOCK)
  .\Objects\delay.obj (DELAY)
  .\Objects\eeprom.obj (EEPROM)
  .\Objects\io_sensores.obj (IO_SENSORES)
  .\Objects\pantallas.obj (PANTALLAS)
  .\Objects\prog.obj (PROG)
  .\Objects\pto_paralelo.obj (PTO_PARALELO)
  .\Objects\tibbo.obj (TIBBO)
  .\Objects\uart.obj (UART)
  .\Objects\lintech.obj (LINTECH)
  .\Objects\verificador.obj (VERIFICADOR)
  .\Objects\Monitor.obj (MONITOR)
  C:\KEIL_V5\C51\LIB\C51FPL.LIB (?C?FPADD)
  C:\KEIL_V5\C51\LIB\C51FPL.LIB (?C?FPMUL)
  C:\KEIL_V5\C51\LIB\C51FPL.LIB (?C?FCAST)
  C:\KEIL_V5\C51\LIB\C51FPL.LIB (?C?CASTF)
  C:\KEIL_V5\C51\LIB\C51FPL.LIB (PRINTF)
  C:\KEIL_V5\C51\LIB\C51FPL.LIB (POW)
  C:\KEIL_V5\C51\LIB\C51FPL.LIB (?C?FPGETOPN)
  C:\KEIL_V5\C51\LIB\C51FPL.LIB (?C?CHKFLOAT)
  C:\KEIL_V5\C51\LIB\C51FPL.LIB (?C?FPCMP)
  C:\KEIL_V5\C51\LIB\C51FPL.LIB (?C?FPNEG)
  C:\KEIL_V5\C51\LIB\C51FPL.LIB (?C?FPROUND)
  C:\KEIL_V5\C51\LIB\C51FPL.LIB (?C?FPCONVERT)
  C:\KEIL_V5\C51\LIB\C51FPL.LIB (EXP)
  C:\KEIL_V5\C51\LIB\C51FPL.LIB (LOG)
  C:\KEIL_V5\C51\LIB\C51FPL.LIB (?C?FPDIV)
  C:\KEIL_V5\C51\LIB\C51FPL.LIB (?C?FTNPWR)
  C:\KEIL_V5\C51\LIB\C51FPL.LIB (?C?FPSERIES)
  C:\KEIL_V5\C51\LIB\C51L.LIB (?C_STARTUP)
  C:\KEIL_V5\C51\LIB\C51L.LIB (?C?COPY)
  C:\KEIL_V5\C51\LIB\C51L.LIB (?C?CLDPTR)
  C:\KEIL_V5\C51\LIB\C51L.LIB (?C?CLDOPTR)
  C:\KEIL_V5\C51\LIB\C51L.LIB (?C?CSTPTR)
  C:\KEIL_V5\C51\LIB\C51L.LIB (?C?CSTOPTR)
  C:\KEIL_V5\C51\LIB\C51L.LIB (?C?IMUL)
  C:\KEIL_V5\C51\LIB\C51L.LIB (?C?IILDX)
  C:\KEIL_V5\C51\LIB\C51L.LIB (?C?LNEG)
  C:\KEIL_V5\C51\LIB\C51L.LIB (?C?SLCMP)
  C:\KEIL_V5\C51\LIB\C51L.LIB (?C?ULCMP)
  C:\KEIL_V5\C51\LIB\C51L.LIB (?C?ULSHR)
  C:\KEIL_V5\C51\LIB\C51L.LIB (?C?LSHL)
  C:\KEIL_V5\C51\LIB\C51L.LIB (?C?LLDCODE)
  C:\KEIL_V5\C51\LIB\C51L.LIB (?C?LLDXDATA0)
  C:\KEIL_V5\C51\LIB\C51L.LIB (?C?LLDCODE0)
BL51 BANKED LINKER/LOCATER V6.22.2.0                                                  06/11/2021  11:57:45  PAGE 2


  C:\KEIL_V5\C51\LIB\C51L.LIB (?C?LSTXDATA)
  C:\KEIL_V5\C51\LIB\C51L.LIB (?C?LSTKXDATA)
  C:\KEIL_V5\C51\LIB\C51L.LIB (?C?PLDIXDATA)
  C:\KEIL_V5\C51\LIB\C51L.LIB (?C?PSTXDATA)
  C:\KEIL_V5\C51\LIB\C51L.LIB (?C?CCASE)
  C:\KEIL_V5\C51\LIB\C51L.LIB (STRCAT)
  C:\KEIL_V5\C51\LIB\C51L.LIB (?C?STRCMP)
  C:\KEIL_V5\C51\LIB\C51L.LIB (?C?STRCPY)
  C:\KEIL_V5\C51\LIB\C51L.LIB (STRLEN)
  C:\KEIL_V5\C51\LIB\C51L.LIB (STRTOK)
  C:\KEIL_V5\C51\LIB\C51L.LIB (ATOL)
  C:\KEIL_V5\C51\LIB\C51L.LIB (ATOI)
  C:\KEIL_V5\C51\LIB\C51L.LIB (?C_INIT)
  C:\KEIL_V5\C51\LIB\C51L.LIB (?C?ILDIX)
  C:\KEIL_V5\C51\LIB\C51L.LIB (?C?LMUL)
  C:\KEIL_V5\C51\LIB\C51L.LIB (ISDIGIT)
  C:\KEIL_V5\C51\LIB\C51L.LIB (ISSPACE)
  C:\KEIL_V5\C51\LIB\C51L.LIB (STRSPN)
  C:\KEIL_V5\C51\LIB\C51L.LIB (STRPBRK)


LINK MAP OF MODULE:  .\Objects\expedidor_v_01_raspberry (MAIN)


            TYPE    BASE      LENGTH    RELOCATION   SEGMENT NAME
            -----------------------------------------------------

            * * * * * * *   D A T A   M E M O R Y   * * * * * * *
            REG     0000H     0008H     ABSOLUTE     "REG BANK 0"
            DATA    0008H     0005H     UNIT         _DATA_GROUP_
            DATA    000DH     0004H     UNIT         ?DT?UART
            IDATA   0011H     0009H     UNIT         ?ID?MONITOR
                    001AH     0006H                  *** GAP ***
            BIT     0020H.0   0001H.1   UNIT         _BIT_GROUP_
            BIT     0021H.1   0000H.3   UNIT         ?BI?MAIN
            BIT     0021H.4   0000H.2   UNIT         ?BI?UART
            BIT     0021H.6   0000H.1   UNIT         ?BI?EEPROM
            BIT     0021H.7   0000H.1   UNIT         ?BI?IO_SENSORES
            BIT     0022H.0   0000H.1   UNIT         ?BI?VERIFICADOR
                    0022H.1   0000H.7                *** GAP ***
            IDATA   0023H     0046H     UNIT         ?ID?MAIN
            IDATA   0069H     0001H     UNIT         ?STACK

            * * * * * * *  X D A T A   M E M O R Y  * * * * * * *
            XDATA   0000H     00B7H     UNIT         _XDATA_GROUP_
            XDATA   00B7H     0091H     UNIT         ?XD?VERIFICADOR
            XDATA   0148H     006CH     UNIT         ?XD?MAIN
            XDATA   01B4H     0059H     UNIT         ?XD?PROG
            XDATA   020DH     0003H     UNIT         ?XD?EEPROM
            XDATA   0210H     0003H     UNIT         ?XD?UART
            XDATA   0213H     0003H     UNIT         ?XD?STRTOK
            XDATA   0216H     0002H     UNIT         ?XD?IO_SENSORES
            XDATA   0218H     0001H     UNIT         ?XD?ACCESCAN
            XDATA   0219H     0001H     UNIT         ?XD?CLOCK

            * * * * * * *   C O D E   M E M O R Y   * * * * * * *
            CODE    0000H     0003H     ABSOLUTE     
BL51 BANKED LINKER/LOCATER V6.22.2.0                                                  06/11/2021  11:57:45  PAGE 3


            CODE    0003H     0008H     UNIT         ?PR?P_CK?CLOCK
            CODE    000BH     0003H     ABSOLUTE     
            CODE    000EH     0015H     UNIT         ?PR?_STRLEN?STRLEN
            CODE    0023H     0003H     ABSOLUTE     
            CODE    0026H     1322H     UNIT         ?CO?PROG
            CODE    1348H     0B8BH     UNIT         ?C?LIB_CODE
            CODE    1ED3H     08BDH     UNIT         ?CO?VERIFICADOR
            CODE    2790H     0747H     UNIT         ?PR?_PANTALLALCD?PANTALLAS
            CODE    2ED7H     06EFH     UNIT         ?CO?PANTALLAS
            CODE    35C6H     0516H     UNIT         ?PR?_VALIDA_TRAMA_PTO?ACCESCAN
            CODE    3ADCH     04DAH     UNIT         ?PR?_SECUENCIAEXPEDIDORMF?VERIFICADOR
            CODE    3FB6H     0483H     UNIT         ?PR?PRINTF?PRINTF
            CODE    4439H     037FH     UNIT         ?PR?VER_PROG?PROG
            CODE    47B8H     02D0H     UNIT         ?PR?_TWO_BYTEHEX_DECIMAL?CLOCK
            CODE    4A88H     02B7H     UNIT         ?PR?_PROG_HORARIO_DIAS?PROG
            CODE    4D3FH     02A5H     UNIT         ?PR?_PANTALLALCD_LINEA_2?PANTALLAS
            CODE    4FE4H     02A3H     UNIT         ?PR?_ARMAR_TRAMA_MONITOR?VERIFICADOR
            CODE    5287H     0256H     UNIT         ?PR?_ARMAR_TRAMA_PTO_PARALELO_EXPEDIDOR?VERIFICADOR
            CODE    54DDH     022CH     UNIT         ?PR?MENU?PROG
            CODE    5709H     0208H     UNIT         ?PR?_HASH_ID?PROG
            CODE    5911H     01FAH     UNIT         ?PR?_PROG_HORARIO_DESDE_HASTA?PROG
            CODE    5B0BH     01F5H     UNIT         ?PR?PROG_FECHA_VENCIMIENTO?PROG
            CODE    5D00H     01EBH     UNIT         ?PR?_ARMAR_TRAMA_TARJETA_SECTOR1_BLOQUE2?VERIFICADOR
            CODE    5EEBH     01DFH     UNIT         ?PR?_RESPONDE_LECTURA_TARJETA_SECTOR1_BLOQUE1?VERIFICADOR
            CODE    60CAH     01D8H     UNIT         ?PR?_BLOCK_READ_CLOCK_ASCII_RASBERRY?CLOCK
            CODE    62A2H     01B3H     UNIT         ?PR?COM_ISR?UART
            CODE    6455H     01A4H     UNIT         ?PR?_VALIDA_TIPO_TARJETA?VERIFICADOR
            CODE    65F9H     01A3H     UNIT         ?CO?LINTECH
            CODE    679CH     016EH     UNIT         ?PR?_BLOCK_READ_CLOCK_ASCII?CLOCK
            CODE    690AH     0166H     UNIT         ?PR?_POW?POW
            CODE    6A70H     0157H     UNIT         ?PR?_RESPONDE_REELECTURA_TARJETA_SECTOR1_BLOQUE2?VERIFICADOR
            CODE    6BC7H     0145H     UNIT         ?PR?PROG_HORARIOS?PROG
            CODE    6D0CH     013EH     UNIT         ?PR?PROG_SIN_COBRO?PROG
            CODE    6E4AH     013EH     UNIT         ?PR?SECUENCIA_INICIO_EXPEDIDOR?VERIFICADOR
            CODE    6F88H     013CH     UNIT         ?PR?LOAD_AND_SEND_ID_COD?PTO_PARALELO
            CODE    70C4H     0137H     UNIT         ?PR?VER_HORARIO?PROG
            CODE    71FBH     012EH     UNIT         ?PR?_ARMAR_TRAMA_PTO_PARALELO_EXPEDIDOR_MENSUAL?VERIFICADOR
            CODE    7329H     012BH     UNIT         ?PR?_RESPONDE_LECTURA_TARJETA_SECTOR1_BLOQUE2?VERIFICADOR
            CODE    7454H     0129H     UNIT         ?PR?LOG?LOG
            CODE    757DH     0128H     UNIT         ?PR?_VER_HORARIO_DIAS?PROG
            CODE    76A5H     011AH     UNIT         ?PR?_PROG_HORARIOS_ON_OFF?PROG
            CODE    77BFH     0119H     UNIT         ?PR?_VER_HORARIO_DESDE_HASTA?PROG
            CODE    78D8H     0115H     UNIT         ?PR?_VALIDAR_CLK?CLOCK
            CODE    79EDH     010FH     UNIT         ?PR?_HORARIOS?VERIFICADOR
            CODE    7AFCH     010CH     UNIT         ?PR?_ATOL?ATOL
            CODE    7C08H     0100H     UNIT         ?PR?_WR_MF?LINTECH
            CODE    7D08H     00FCH     UNIT         ?PR?PROG_DEBUG?PROG
            CODE    7E04H     00FCH     UNIT         ?PR?PROG_USE_LPR?PROG
            CODE    7F00H     00FCH     UNIT         ?PR?TIPO_PANTALLA?PROG
            CODE    7FFCH     00FCH     UNIT         ?PR?PROG_ANTIPASSBACK?PROG
            CODE    80F8H     00FCH     UNIT         ?PR?PROG_PLACA?PROG
            CODE    81F4H     00FCH     UNIT         ?PR?PROG_VALIDAR_TIPO_VEHICULO_MENSUAL?PROG
            CODE    82F0H     00FCH     UNIT         ?PR?PROG_APB_MENSUAL?PROG
            CODE    83ECH     00FCH     UNIT         ?PR?_BLOQUE_HORARIO?VERIFICADOR
            CODE    84E8H     00F1H     UNIT         ?PR?_WRITE_EEPROM_TICKET?EEPROM
            CODE    85D9H     00F0H     UNIT         ?CO?IO_SENSORES
            CODE    86C9H     00EAH     UNIT         ?PR?_MOV_CARD?LINTECH
BL51 BANKED LINKER/LOCATER V6.22.2.0                                                  06/11/2021  11:57:45  PAGE 4


            CODE    87B3H     00E4H     UNIT         ?PR?_STRTOK?STRTOK
            CODE    8897H     00DEH     UNIT         ?PR?PROG_ADDRESS_HIGH_BOARD?PROG
            CODE    8975H     00DBH     UNIT         ?PR?_ATOI?ATOI
            CODE    8A50H     00D7H     UNIT         ?PR?_ANALIZA_UID_CARD?VERIFICADOR
            CODE    8B27H     00D6H     UNIT         ?PR?_CMD_LPR_SALIDA_WIEGAND?ACCESCAN
            CODE    8BFDH     00D3H     UNIT         ?C_INITSEG
            CODE    8CD0H     00CCH     UNIT         ?PR?_GRABA_SERIE?EEPROM
            CODE    8D9CH     00CBH     UNIT         ?PR?_RTA_CMD_TRANSPORTE?VERIFICADOR
            CODE    8E67H     00CAH     UNIT         ?PR?READ_EEPROM_TICKET?EEPROM
            CODE    8F31H     00C9H     UNIT         ?PR?_CHECK_FECHAOUT?CLOCK
            CODE    8FFAH     00C4H     UNIT         ?PR?_BLOCK_READ_CLOCK?CLOCK
            CODE    90BEH     00C4H     UNIT         ?PR?_TARJETA_MENSUAL?VERIFICADOR
            CODE    9182H     00C3H     UNIT         ?PR?_RD_MF?LINTECH
            CODE    9245H     00C2H     UNIT         ?PR?PROG_TARJETA_AUTOMATICA_O_BOTON?PROG
            CODE    9307H     00C1H     UNIT         ?PR?_RECIBE_CMD_MONITOR?MONITOR
            CODE    93C8H     00BEH     UNIT         ?PR?ERROR_RX_PTO?VERIFICADOR
            CODE    9486H     00BDH     UNIT         ?PR?PROG_COD_PARK?PROG
            CODE    9543H     00BDH     UNIT         ?PR?PROG_TIEMPO_GRACIA?PROG
            CODE    9600H     00BBH     UNIT         ?PR?_VALIDA_TRAMA_MONITOR?MONITOR
            CODE    96BBH     00B9H     UNIT         ?CO?TIBBO
            CODE    9774H     00B6H     UNIT         ?PR?PROG_ID_CLIENTE?PROG
            CODE    982AH     00B5H     UNIT         ?PR?_WAIT_PLACA?VERIFICADOR
            CODE    98DFH     00B4H     UNIT         ?PR?_SEND_PORT?PTO_PARALELO
            CODE    9993H     00AFH     UNIT         ?PR?MSJ_LCD_INFORMATIVO?IO_SENSORES
            CODE    9A42H     00ACH     UNIT         ?PR?_HORA_MAXIMA?VERIFICADOR
            CODE    9AEEH     00AAH     UNIT         ?PR?CLAVE_SEGURIDAD_S2?LINTECH
            CODE    9B98H     00A9H     UNIT         ?PR?DWLOAD_EEPROM?LINTECH
            CODE    9C41H     00A6H     UNIT         ?PR?_BLOCK_READ_CLOCK_HEX?CLOCK
            CODE    9CE7H     00A5H     UNIT         ?PR?_SEND_PTO_PARALELO?VERIFICADOR
            CODE    9D8CH     00A4H     UNIT         ?PR?_ARMAR_TRAMA_TARJETA_SECTOR1_BLOQUE1_CAMCEL?VERIFICADOR
            CODE    9E30H     00A1H     UNIT         ?PR?_BLOCK_WRITE_CLOCK_ASCII?CLOCK
            CODE    9ED1H     009DH     UNIT         ?PR?_INICIALIZA?LINTECH
            CODE    9F6EH     009CH     UNIT         ?PR?_RESPUESTA_PLACA_CANCEL?VERIFICADOR
            CODE    A00AH     009AH     UNIT         ?PR?_RESPONDE_LECTURA_TARJETA_SECTOR1_BLOQUE0?VERIFICADOR
            CODE    A0A4H     009AH     UNIT         ?PR?EXP?EXP
            CODE    A13EH     0099H     UNIT         ?PR?SHOW?PROG
            CODE    A1D7H     0099H     UNIT         ?PR?_RECIBE_PORT?PTO_PARALELO
            CODE    A270H     0098H     UNIT         ?PR?_VALIDA_VEHICULO_CARD_MENSUAL?VERIFICADOR
            CODE    A308H     0091H     UNIT         ?PR?_HEX_ASCII?CLOCK
            CODE    A399H     0091H     UNIT         ?PR?_CARD_INSERCION?LINTECH
            CODE    A42AH     0090H     UNIT         ?PR?_LEE_CLK?CLOCK
            CODE    A4BAH     0090H     UNIT         ?PR?_GETOPTION?PROG
            CODE    A54AH     0090H     UNIT         ?PR?_DISPARO_LOCK_ENTRADA_VEHICULO?VERIFICADOR
            CODE    A5DAH     0090H     UNIT         ?PR?ENTREGA_CARD_CAPTURA?VERIFICADOR
            CODE    A66AH     008DH     UNIT         ?PR?LOADVERIFY_EEPROM?LINTECH
            CODE    A6F7H     008CH     UNIT         ?C_C51STARTUP
            CODE    A783H     0088H     UNIT         ?PR?_SEND_PORTERR?PTO_PARALELO
            CODE    A80BH     0088H     UNIT         ?PR?RX_DATA?TIBBO
            CODE    A893H     0088H     UNIT         ?PR?UNIQUE_IDENTIFIER_UID?LINTECH
            CODE    A91BH     0086H     UNIT         ?PR?_CHECK_STATUS?LINTECH
            CODE    A9A1H     0084H     UNIT         ?PR?_DEBUGBUFFERMF?TIBBO
            CODE    AA25H     0084H     UNIT         ?PR?_STRSPN?STRSPN
            CODE    AAA9H     0083H     UNIT         ?PR?_RASPBERRY_DATA?PANTALLAS
            CODE    AB2CH     0081H     UNIT         ?PR?_STRPBRK?STRPBRK
            CODE    ABADH     0080H     UNIT         ?PR?_INGRESADATO?PROG
            CODE    AC2DH     0080H     UNIT         ?PR?AUT_CARD_CHECK_STATUS?LINTECH
            CODE    ACADH     0080H     UNIT         ?PR?POWER_OFF?LINTECH
BL51 BANKED LINKER/LOCATER V6.22.2.0                                                  06/11/2021  11:57:45  PAGE 5


            CODE    AD2DH     007FH     UNIT         ?PR?MAIN?MAIN
            CODE    ADACH     007DH     UNIT         ?PR?RELOJ_PANTALLA_LCD?PANTALLAS
            CODE    AE29H     007CH     UNIT         ?PR?RESPONDE_ESTADO_SENSORES_TRANSPORTE?VERIFICADOR
            CODE    AEA5H     0077H     UNIT         ?PR?RESPONDE_TIPO_TARJETA?VERIFICADOR
            CODE    AF1CH     0074H     UNIT         ?PR?_HORA_ENTRADA_VEHICULO?CLOCK
            CODE    AF90H     0071H     UNIT         ?PR?_EN_HORARIO?VERIFICADOR
            CODE    B001H     006FH     UNIT         ?PR?_ESCRIBIRMEMORIA?EEPROM
            CODE    B070H     006CH     UNIT         ?PR?_RESPONDE_WRITE_TARJETA_SECTOR1_BLOQUE2?VERIFICADOR
            CODE    B0DCH     006BH     UNIT         ?PR?INGRESO_VEHICULO?VERIFICADOR
            CODE    B147H     006BH     UNIT         ?PR?_STRCAT?STRCAT
            CODE    B1B2H     0066H     UNIT         ?PR?_LEERMEMORIA?EEPROM
            CODE    B218H     0062H     UNIT         ?PR?_LISTACOMANDOS?PROG
            CODE    B27AH     005EH     UNIT         ?PR?_BYTEHEX_DECIMAL?CLOCK
            CODE    B2D8H     005DH     UNIT         ?PR?_RESPUESTA_SEGUNDA_CLAVE?VERIFICADOR
            CODE    B335H     005CH     UNIT         ?PR?_ARMAR_TRAMA_PLACA?VERIFICADOR
            CODE    B391H     005BH     UNIT         ?PR?VALIDA_SENSOR1_AUTO?IO_SENSORES
            CODE    B3ECH     0056H     UNIT         ?PR?_WR_EEPROM?EEPROM
            CODE    B442H     0054H     UNIT         ?PR?_PREGUNTA_LPR?VERIFICADOR
            CODE    B496H     004DH     UNIT         ?PR?VARIABLE_INICIO?MAIN
            CODE    B4E3H     004DH     UNIT         ?PR?L_D_M?EEPROM
            CODE    B530H     004CH     UNIT         ?PR?LEE_NO_TICKET?EEPROM
            CODE    B57CH     004CH     UNIT         ?PR?LOAD_AND_SEND_INFO_RELOJ?PTO_PARALELO
            CODE    B5C8H     004BH     UNIT         ?PR?_TX_AUX?TIBBO
            CODE    B613H     0049H     UNIT         ?PR?_DEBUG_TXT_TIBBO?TIBBO
            CODE    B65CH     0048H     UNIT         ?PR?FIRST_CLAVE?PROG
            CODE    B6A4H     0047H     UNIT         ?PR?_DEBUG_CHR_TIBBO?TIBBO
            CODE    B6EBH     0047H     UNIT         ?PR?_RESPONDE_WRITE_TARJETA_SECTOR2_BLOQUE0?VERIFICADOR
            CODE    B732H     0046H     UNIT         ?PR?_ESCRIBIRCADENASOFT_BUFFER?MAIN
            CODE    B778H     0046H     UNIT         ?PR?_LCD_TXT_NUM_CHAR?PANTALLAS
            CODE    B7BEH     0046H     UNIT         ?PR?_DEBUG_HEXDEC?TIBBO
            CODE    B804H     0044H     UNIT         ?PR?_LCD_TXT?PANTALLAS
            CODE    B848H     0043H     UNIT         ?PR?DIR_BOARD?IO_SENSORES
            CODE    B88BH     0042H     UNIT         ?PR?_VALIDARCLAVE?PROG
            CODE    B8CDH     0041H     UNIT         ?PR?_MONITOR_CHR?ACCESCAN
            CODE    B90EH     0041H     UNIT         ?PR?_TWO_ONE?CLOCK
            CODE    B94FH     0040H     UNIT         ?PR?_GETCMD?PROG
            CODE    B98FH     0040H     UNIT         ?PR?_DEBUG_PTO_PARALELO?TIBBO
            CODE    B9CFH     003FH     UNIT         ?PR?_EB_CLK?CLOCK
            CODE    BA0EH     003EH     UNIT         ?PR?_PUTCHAR?MAIN
            CODE    BA4CH     003EH     UNIT         ?PR?TRAMA_VALIDACION_P_N?VERIFICADOR
            CODE    BA8AH     003DH     UNIT         ?PR?_HEX_BCD?CLOCK
            CODE    BAC7H     003DH     UNIT         ?PR?_RD_EEPROM?EEPROM
            CODE    BB04H     003DH     UNIT         ?PR?_DEBUG_MONITOR?TIBBO
            CODE    BB41H     003DH     UNIT         ?PR?_LOAD_SECUENCIA_EXPEDIDOR?VERIFICADOR
            CODE    BB7EH     003BH     UNIT         ?CO?ACCESCAN
            CODE    BBB9H     003BH     UNIT         ?CO?EEPROM
            CODE    BBF4H     003BH     UNIT         ?PR?_COM_PUTCHAR?UART
            CODE    BC2FH     003AH     UNIT         ?PR?_DELAY_10MS?DELAY
            CODE    BC69H     003AH     UNIT         ?PR?ANALIZA_CARD_MOUNT_RF?VERIFICADOR
            CODE    BCA3H     0038H     UNIT         ?PR?VALIDASENSORESPASO?IO_SENSORES
            CODE    BCDBH     0036H     UNIT         ?PR?FORMATO_EEPROM?EEPROM
            CODE    BD11H     0036H     UNIT         ?PR?_RESPONDE_WRITE_TARJETA_SECTOR1_BLOQUE1?VERIFICADOR
            CODE    BD47H     0036H     UNIT         ?PR?_RESPONDE_WRITE_TARJETA_SECTOR1_BLOQUE0?VERIFICADOR
            CODE    BD7DH     0034H     UNIT         ?PR?_CALCULO_BCC?ACCESCAN
            CODE    BDB1H     0034H     UNIT         ?PR?INCREMENTE_TICKET?EEPROM
            CODE    BDE5H     0034H     UNIT         ?PR?ADDR_HORARIOS?PROG
            CODE    BE19H     0031H     UNIT         ?PR?_TARJETA_ROTACION?VERIFICADOR
BL51 BANKED LINKER/LOCATER V6.22.2.0                                                  06/11/2021  11:57:45  PAGE 6


            CODE    BE4AH     0030H     UNIT         ?PR?PREGUNTA_PLACA?VERIFICADOR
            CODE    BE7AH     002EH     UNIT         ?PR?TIMER0_INT?MAIN
            CODE    BEA8H     002AH     UNIT         ?PR?COM_INITIALIZE?UART
            CODE    BED2H     0028H     UNIT         ?PR?_WR_CLK?CLOCK
            CODE    BEFAH     0028H     UNIT         ?PR?COM_BAUDRATE?UART
            CODE    BF22H     0028H     UNIT         ?PR?_ARMAR_TRAMA_TARJETA_SECTOR1_BLOQUE0?VERIFICADOR
            CODE    BF4AH     0027H     UNIT         ?PR?_TX_CHRLCD?PANTALLAS
            CODE    BF71H     0026H     UNIT         ?PR?COM_GETCHAR?UART
            CODE    BF97H     0026H     UNIT         ?PR?ANALIZA_PRESENCIA_MENSUAL?VERIFICADOR
            CODE    BFBDH     0026H     UNIT         ?PR?RX_MONITOR?MONITOR
            CODE    BFE3H     0023H     UNIT         ?PR?ANALIZA_PRESENCIA_ROTACION?VERIFICADOR
            CODE    C006H     0022H     UNIT         ?PR?_E_D_M?EEPROM
            CODE    C028H     0022H     UNIT         ?PR?VALIDASENSOR_CERO?IO_SENSORES
            CODE    C04AH     0021H     UNIT         ?CO?PTO_PARALELO
            CODE    C06BH     0020H     UNIT         ?PR?ACKD?EEPROM
            CODE    C08BH     0020H     UNIT         ?PR?ACK_LECT?EEPROM
            CODE    C0ABH     001FH     UNIT         ?PR?VALIDASENSOR?IO_SENSORES
            CODE    C0CAH     001FH     UNIT         ?PR?TIME_BIT?TIBBO
            CODE    C0E9H     001EH     UNIT         ?PR?_BCD_HEX?CLOCK
            CODE    C107H     001BH     UNIT         ?PR?_DELAY_1MS?DELAY
            CODE    C122H     0018H     UNIT         ?PR?CLEAR_PLACA?MONITOR
            CODE    C13AH     0017H     UNIT         ?PR?DISPLAYCURSOR?PROG
            CODE    C151H     0017H     UNIT         ?PR?TIME_MBIT?TIBBO
            CODE    C168H     0016H     UNIT         ?PR?DIR_BOARD_MONITOR?IO_SENSORES
            CODE    C17EH     0014H     UNIT         ?CO?CLOCK
            CODE    C192H     0014H     UNIT         ?PR?_ISSPACE?ISSPACE
            CODE    C1A6H     0012H     UNIT         ?PR?_DELAY_20US?DELAY
            CODE    C1B8H     0012H     UNIT         ?PR?START?EEPROM
            CODE    C1CAH     0012H     UNIT         ?PR?BOTTON?IO_SENSORES
            CODE    C1DCH     0012H     UNIT         ?PR?PULSO_BUS?PTO_PARALELO
            CODE    C1EEH     0012H     UNIT         ?PR?COM_RBUFLEN?UART
            CODE    C200H     0012H     UNIT         ?PR?COM_TBUFLEN?UART
            CODE    C212H     0010H     UNIT         ?PR?INI_TIMER?MAIN
            CODE    C222H     0010H     UNIT         ?PR?INICIA_BOARD?MAIN
            CODE    C232H     000FH     UNIT         ?PR?_ISDIGIT?ISDIGIT
            CODE    C241H     000CH     UNIT         ?PR?_GETKEY?MAIN
            CODE    C24DH     000AH     UNIT         ?PR?STOP?EEPROM
            CODE    C257H     000AH     UNIT         ?PR?COND_INI_PTO?PTO_PARALELO
            CODE    C261H     0009H     UNIT         ?PR?DEBUG_DIVIDIR_TEXTO?TIBBO
            CODE    C26AH     0009H     UNIT         ?PR?CAPTURA_EXPULSA?VERIFICADOR
            CODE    C273H     0007H     UNIT         ?PR?COND_INI_CLOCK?CLOCK
            CODE    C27AH     0007H     UNIT         ?PR?SEL_FUNCION?IO_SENSORES
            CODE    C281H     0007H     UNIT         ?PR?SEL_AUTO?IO_SENSORES
            CODE    C288H     0007H     UNIT         ?PR?SEL_PULSA?IO_SENSORES
            CODE    C28FH     0007H     UNIT         ?PR?SEL_SENSOR2?IO_SENSORES
            CODE    C296H     0007H     UNIT         ?PR?SEL_SENSOR1?IO_SENSORES
            CODE    C29DH     0007H     UNIT         ?PR?SEL_DIR1?IO_SENSORES
            CODE    C2A4H     0007H     UNIT         ?PR?SEL_DIR2?IO_SENSORES
            CODE    C2ABH     0006H     UNIT         ?PR?P_ME?EEPROM
            CODE    C2B1H     0005H     UNIT         ?PR?ON_TIMER0_INTERRUP?MAIN
            CODE    C2B6H     0005H     UNIT         ?PR?COND_INI_TIBBO?TIBBO
            CODE    C2BBH     0003H     UNIT         ?PR?OFF_TIMER0_INTERRUP?MAIN
            CODE    C2BEH     0001H     UNIT         ?PR?DELAY?DELAY



OVERLAY MAP OF MODULE:   .\Objects\expedidor_v_01_raspberry (MAIN)
BL51 BANKED LINKER/LOCATER V6.22.2.0                                                  06/11/2021  11:57:45  PAGE 7




SEGMENT                                             BIT_GROUP          DATA_GROUP          XDATA_GROUP
  +--> CALLED SEGMENT                            START    LENGTH     START    LENGTH     START    LENGTH
--------------------------------------------------------------------------------------------------------
?C_C51STARTUP                                    -----    -----      -----    -----      -----    -----
  +--> ?PR?MAIN?MAIN
  +--> ?C_INITSEG

?PR?MAIN?MAIN                                    -----    -----      -----    -----      0000H    0001H
  +--> ?PR?INI_TIMER?MAIN
  +--> ?PR?ON_TIMER0_INTERRUP?MAIN
  +--> ?PR?COM_INITIALIZE?UART
  +--> ?PR?COM_BAUDRATE?UART
  +--> ?PR?INICIA_BOARD?MAIN
  +--> ?PR?TIME_BIT?TIBBO
  +--> ?PR?_DELAY_20US?DELAY
  +--> ?PR?TIME_MBIT?TIBBO
  +--> ?PR?_TX_AUX?TIBBO
  +--> ?PR?SEL_FUNCION?IO_SENSORES
  +--> ?PR?MENU?PROG
  +--> ?PR?VARIABLE_INICIO?MAIN
  +--> ?PR?SECUENCIA_INICIO_EXPEDIDOR?VERIFI...
  +--> ?PR?RX_MONITOR?MONITOR
  +--> ?PR?_SECUENCIAEXPEDIDORMF?VERIFICADOR
  +--> ?PR?_RECIBE_PORT?PTO_PARALELO
  +--> ?PR?_DEBUG_PTO_PARALELO?TIBBO
  +--> ?PR?_VALIDA_TRAMA_PTO?ACCESCAN
  +--> ?PR?MSJ_LCD_INFORMATIVO?IO_SENSORES

?PR?COM_INITIALIZE?UART                          -----    -----      -----    -----      -----    -----
  +--> ?PR?COM_BAUDRATE?UART

?PR?INICIA_BOARD?MAIN                            -----    -----      -----    -----      -----    -----
  +--> ?PR?COND_INI_TIBBO?TIBBO
  +--> ?PR?COND_INI_CLOCK?CLOCK
  +--> ?PR?COND_INI_PTO?PTO_PARALELO

?PR?_TX_AUX?TIBBO                                -----    -----      -----    -----      -----    -----
  +--> ?PR?TIME_BIT?TIBBO

?PR?MENU?PROG                                    -----    -----      -----    -----      0001H    0045H
  +--> ?CO?PROG
  +--> ?PR?PRINTF?PRINTF
  +--> ?PR?_RD_EEPROM?EEPROM
  +--> ?PR?FIRST_CLAVE?PROG
  +--> ?PR?_WR_EEPROM?EEPROM
  +--> ?PR?_LEERMEMORIA?EEPROM
  +--> ?PR?_HASH_ID?PROG
  +--> ?PR?_INGRESADATO?PROG
  +--> ?PR?_GETCMD?PROG
  +--> ?PR?_ESCRIBIRMEMORIA?EEPROM
  +--> ?PR?_VALIDARCLAVE?PROG
  +--> ?PR?DISPLAYCURSOR?PROG
  +--> ?PR?_STRLEN?STRLEN
  +--> ?PR?_GETOPTION?PROG
  +--> ?PR?_STRCAT?STRCAT
BL51 BANKED LINKER/LOCATER V6.22.2.0                                                  06/11/2021  11:57:45  PAGE 8


  +--> ?PR?_LISTACOMANDOS?PROG
  +--> ?PR?PROG_ID_CLIENTE?PROG
  +--> ?PR?PROG_COD_PARK?PROG
  +--> ?PR?PROG_TIEMPO_GRACIA?PROG
  +--> ?PR?PROG_SIN_COBRO?PROG
  +--> ?PR?PROG_DEBUG?PROG
  +--> ?PR?PROG_USE_LPR?PROG
  +--> ?PR?TIPO_PANTALLA?PROG
  +--> ?PR?PROG_TARJETA_AUTOMATICA_O_BOTON?PROG
  +--> ?PR?PROG_ANTIPASSBACK?PROG
  +--> ?PR?PROG_PLACA?PROG
  +--> ?PR?PROG_ADDRESS_HIGH_BOARD?PROG
  +--> ?PR?PROG_HORARIOS?PROG
  +--> ?PR?PROG_VALIDAR_TIPO_VEHICULO_MENSUA...
  +--> ?PR?PROG_APB_MENSUAL?PROG
  +--> ?PR?VER_PROG?PROG
  +--> ?PR?SHOW?PROG
  +--> ?PR?PROG_FECHA_VENCIMIENTO?PROG

?PR?PRINTF?PRINTF                                0020H.0  0001H.1    0008H    0005H      0077H    0030H
  +--> ?PR?_PUTCHAR?MAIN

?PR?_PUTCHAR?MAIN                                -----    -----      -----    -----      00A7H    0003H
  +--> ?PR?_COM_PUTCHAR?UART

?PR?_COM_PUTCHAR?UART                            -----    -----      -----    -----      00AAH    0001H
  +--> ?PR?COM_TBUFLEN?UART

?PR?_RD_EEPROM?EEPROM                            -----    -----      -----    -----      -----    -----
  +--> ?PR?START?EEPROM
  +--> ?PR?ACK_LECT?EEPROM
  +--> ?PR?_E_D_M?EEPROM
  +--> ?PR?ACKD?EEPROM
  +--> ?PR?L_D_M?EEPROM
  +--> ?PR?STOP?EEPROM

?PR?ACK_LECT?EEPROM                              -----    -----      -----    -----      -----    -----
  +--> ?PR?_E_D_M?EEPROM

?PR?_E_D_M?EEPROM                                -----    -----      -----    -----      -----    -----
  +--> ?PR?P_ME?EEPROM

?PR?ACKD?EEPROM                                  -----    -----      -----    -----      -----    -----
  +--> ?PR?_E_D_M?EEPROM

?PR?FIRST_CLAVE?PROG                             -----    -----      -----    -----      0046H    000BH
  +--> ?PR?_BLOCK_READ_CLOCK_ASCII?CLOCK
  +--> ?PR?_HASH_ID?PROG
  +--> ?PR?_ESCRIBIRMEMORIA?EEPROM

?PR?_BLOCK_READ_CLOCK_ASCII?CLOCK                -----    -----      -----    -----      0051H    0003H
  +--> ?PR?_LEE_CLK?CLOCK

?PR?_LEE_CLK?CLOCK                               -----    -----      -----    -----      00B1H    0003H
  +--> ?PR?_DELAY_20US?DELAY
  +--> ?PR?_EB_CLK?CLOCK
  +--> ?PR?P_CK?CLOCK
BL51 BANKED LINKER/LOCATER V6.22.2.0                                                  06/11/2021  11:57:45  PAGE 9



?PR?_EB_CLK?CLOCK                                -----    -----      -----    -----      00B4H    0003H
  +--> ?PR?P_CK?CLOCK

?PR?P_CK?CLOCK                                   -----    -----      -----    -----      -----    -----
  +--> ?PR?DELAY?DELAY

?PR?_HASH_ID?PROG                                -----    -----      -----    -----      005DH    003FH
  +--> ?CO?PROG
  +--> ?PR?_LEERMEMORIA?EEPROM
  +--> ?PR?_CHECK_FECHAOUT?CLOCK
  +--> ?PR?_STRLEN?STRLEN

?PR?_LEERMEMORIA?EEPROM                          -----    -----      -----    -----      009CH    0005H
  +--> ?PR?_RD_EEPROM?EEPROM

?PR?_CHECK_FECHAOUT?CLOCK                        -----    -----      -----    -----      009CH    0012H
  +--> ?PR?_BLOCK_READ_CLOCK_HEX?CLOCK

?PR?_BLOCK_READ_CLOCK_HEX?CLOCK                  -----    -----      -----    -----      00AEH    0003H
  +--> ?PR?_LEE_CLK?CLOCK
  +--> ?PR?_BCD_HEX?CLOCK

?PR?_ESCRIBIRMEMORIA?EEPROM                      -----    -----      -----    -----      005DH    0005H
  +--> ?PR?_WR_EEPROM?EEPROM

?PR?_WR_EEPROM?EEPROM                            -----    -----      -----    -----      -----    -----
  +--> ?PR?START?EEPROM
  +--> ?PR?ACKD?EEPROM
  +--> ?PR?_E_D_M?EEPROM
  +--> ?PR?STOP?EEPROM
  +--> ?PR?_DELAY_1MS?DELAY
  +--> ?PR?_DELAY_20US?DELAY

?PR?_DELAY_1MS?DELAY                             -----    -----      -----    -----      -----    -----
  +--> ?PR?_DELAY_20US?DELAY

?PR?_INGRESADATO?PROG                            -----    -----      -----    -----      0071H    0004H
  +--> ?PR?_GETKEY?MAIN
  +--> ?CO?PROG
  +--> ?PR?PRINTF?PRINTF
  +--> ?PR?_PUTCHAR?MAIN

?PR?_GETKEY?MAIN                                 -----    -----      -----    -----      -----    -----
  +--> ?PR?COM_GETCHAR?UART

?PR?COM_GETCHAR?UART                             -----    -----      -----    -----      -----    -----
  +--> ?PR?COM_RBUFLEN?UART

?PR?_GETCMD?PROG                                 -----    -----      -----    -----      005DH    0007H
  +--> ?CO?PROG
  +--> ?PR?_STRTOK?STRTOK

?PR?_STRTOK?STRTOK                               -----    -----      -----    -----      0064H    0006H
  +--> ?PR?_STRSPN?STRSPN
  +--> ?PR?_STRPBRK?STRPBRK

BL51 BANKED LINKER/LOCATER V6.22.2.0                                                  06/11/2021  11:57:45  PAGE 10


?PR?_STRSPN?STRSPN                               -----    -----      -----    -----      006AH    0008H

?PR?_STRPBRK?STRPBRK                             -----    -----      -----    -----      006AH    0009H

?PR?_VALIDARCLAVE?PROG                           -----    -----      -----    -----      005DH    000EH

?PR?DISPLAYCURSOR?PROG                           -----    -----      -----    -----      -----    -----
  +--> ?CO?PROG
  +--> ?PR?PRINTF?PRINTF

?PR?_GETOPTION?PROG                              -----    -----      -----    -----      0046H    000BH
  +--> ?CO?PROG
  +--> ?PR?_STRTOK?STRTOK

?PR?_STRCAT?STRCAT                               -----    -----      -----    -----      0048H    0009H

?PR?_LISTACOMANDOS?PROG                          -----    -----      -----    -----      0046H    0007H

?PR?PROG_ID_CLIENTE?PROG                         -----    -----      -----    -----      0046H    000CH
  +--> ?PR?_RD_EEPROM?EEPROM
  +--> ?CO?PROG
  +--> ?PR?PRINTF?PRINTF
  +--> ?PR?_INGRESADATO?PROG
  +--> ?PR?_ATOI?ATOI
  +--> ?PR?_WR_EEPROM?EEPROM

?PR?_ATOI?ATOI                                   0020H.0  0000H.1    -----    -----      0071H    0005H
  +--> ?PR?_ISSPACE?ISSPACE
  +--> ?PR?_ISDIGIT?ISDIGIT

?PR?PROG_COD_PARK?PROG                           -----    -----      -----    -----      0046H    000CH
  +--> ?PR?_RD_EEPROM?EEPROM
  +--> ?CO?PROG
  +--> ?PR?PRINTF?PRINTF
  +--> ?PR?_INGRESADATO?PROG
  +--> ?PR?_ATOI?ATOI
  +--> ?PR?_WR_EEPROM?EEPROM

?PR?PROG_TIEMPO_GRACIA?PROG                      -----    -----      -----    -----      0046H    000CH
  +--> ?PR?_RD_EEPROM?EEPROM
  +--> ?CO?PROG
  +--> ?PR?PRINTF?PRINTF
  +--> ?PR?_INGRESADATO?PROG
  +--> ?PR?_ATOI?ATOI
  +--> ?PR?_WR_EEPROM?EEPROM

?PR?PROG_SIN_COBRO?PROG                          -----    -----      -----    -----      0046H    000CH
  +--> ?PR?_RD_EEPROM?EEPROM
  +--> ?CO?PROG
  +--> ?PR?PRINTF?PRINTF
  +--> ?PR?_INGRESADATO?PROG
  +--> ?PR?_ATOI?ATOI
  +--> ?PR?_WR_EEPROM?EEPROM

?PR?PROG_DEBUG?PROG                              -----    -----      -----    -----      0046H    000CH
  +--> ?PR?_RD_EEPROM?EEPROM
  +--> ?CO?PROG
BL51 BANKED LINKER/LOCATER V6.22.2.0                                                  06/11/2021  11:57:45  PAGE 11


  +--> ?PR?PRINTF?PRINTF
  +--> ?PR?_INGRESADATO?PROG
  +--> ?PR?_ATOI?ATOI
  +--> ?PR?_WR_EEPROM?EEPROM

?PR?PROG_USE_LPR?PROG                            -----    -----      -----    -----      0046H    000CH
  +--> ?PR?_RD_EEPROM?EEPROM
  +--> ?CO?PROG
  +--> ?PR?PRINTF?PRINTF
  +--> ?PR?_INGRESADATO?PROG
  +--> ?PR?_ATOI?ATOI
  +--> ?PR?_WR_EEPROM?EEPROM

?PR?TIPO_PANTALLA?PROG                           -----    -----      -----    -----      0046H    000CH
  +--> ?PR?_RD_EEPROM?EEPROM
  +--> ?CO?PROG
  +--> ?PR?PRINTF?PRINTF
  +--> ?PR?_INGRESADATO?PROG
  +--> ?PR?_ATOI?ATOI
  +--> ?PR?_WR_EEPROM?EEPROM

?PR?PROG_TARJETA_AUTOMATICA_O_BOTON?PROG         -----    -----      -----    -----      0046H    000CH
  +--> ?PR?_RD_EEPROM?EEPROM
  +--> ?CO?PROG
  +--> ?PR?PRINTF?PRINTF
  +--> ?PR?_INGRESADATO?PROG
  +--> ?PR?_ATOI?ATOI
  +--> ?PR?_WR_EEPROM?EEPROM

?PR?PROG_ANTIPASSBACK?PROG                       -----    -----      -----    -----      0046H    000CH
  +--> ?PR?_RD_EEPROM?EEPROM
  +--> ?CO?PROG
  +--> ?PR?PRINTF?PRINTF
  +--> ?PR?_INGRESADATO?PROG
  +--> ?PR?_ATOI?ATOI
  +--> ?PR?_WR_EEPROM?EEPROM

?PR?PROG_PLACA?PROG                              -----    -----      -----    -----      0046H    000CH
  +--> ?PR?_RD_EEPROM?EEPROM
  +--> ?CO?PROG
  +--> ?PR?PRINTF?PRINTF
  +--> ?PR?_INGRESADATO?PROG
  +--> ?PR?_ATOI?ATOI
  +--> ?PR?_WR_EEPROM?EEPROM

?PR?PROG_ADDRESS_HIGH_BOARD?PROG                 -----    -----      -----    -----      0046H    000CH
  +--> ?PR?_RD_EEPROM?EEPROM
  +--> ?CO?PROG
  +--> ?PR?PRINTF?PRINTF
  +--> ?PR?_INGRESADATO?PROG
  +--> ?PR?_ATOI?ATOI
  +--> ?PR?_WR_EEPROM?EEPROM

?PR?PROG_HORARIOS?PROG                           -----    -----      -----    -----      0046H    001BH
  +--> ?PR?ADDR_HORARIOS?PROG
  +--> ?CO?PROG
  +--> ?PR?PRINTF?PRINTF
BL51 BANKED LINKER/LOCATER V6.22.2.0                                                  06/11/2021  11:57:45  PAGE 12


  +--> ?PR?_INGRESADATO?PROG
  +--> ?PR?_ATOI?ATOI
  +--> ?PR?_PROG_HORARIOS_ON_OFF?PROG
  +--> ?PR?_WR_EEPROM?EEPROM
  +--> ?PR?_PROG_HORARIO_DIAS?PROG
  +--> ?PR?_PROG_HORARIO_DESDE_HASTA?PROG
  +--> ?PR?_RD_EEPROM?EEPROM

?PR?ADDR_HORARIOS?PROG                           -----    -----      -----    -----      0074H    000BH

?PR?_PROG_HORARIOS_ON_OFF?PROG                   -----    -----      -----    -----      0061H    0010H
  +--> ?PR?_RD_EEPROM?EEPROM
  +--> ?CO?PROG
  +--> ?PR?PRINTF?PRINTF
  +--> ?PR?_INGRESADATO?PROG
  +--> ?PR?_ATOI?ATOI
  +--> ?PR?_WR_EEPROM?EEPROM

?PR?_PROG_HORARIO_DIAS?PROG                      -----    -----      -----    -----      0061H    000FH
  +--> ?CO?PROG
  +--> ?PR?PRINTF?PRINTF
  +--> ?PR?_INGRESADATO?PROG
  +--> ?PR?_WR_EEPROM?EEPROM
  +--> ?PR?_RD_EEPROM?EEPROM

?PR?_PROG_HORARIO_DESDE_HASTA?PROG               -----    -----      -----    -----      0061H    000CH
  +--> ?CO?PROG
  +--> ?PR?PRINTF?PRINTF
  +--> ?PR?_INGRESADATO?PROG
  +--> ?PR?_WR_EEPROM?EEPROM
  +--> ?PR?_RD_EEPROM?EEPROM

?PR?PROG_VALIDAR_TIPO_VEHICULO_MENSUA...         -----    -----      -----    -----      0046H    000CH
  +--> ?PR?_RD_EEPROM?EEPROM
  +--> ?CO?PROG
  +--> ?PR?PRINTF?PRINTF
  +--> ?PR?_INGRESADATO?PROG
  +--> ?PR?_ATOI?ATOI
  +--> ?PR?_WR_EEPROM?EEPROM

?PR?PROG_APB_MENSUAL?PROG                        -----    -----      -----    -----      0046H    000CH
  +--> ?PR?_RD_EEPROM?EEPROM
  +--> ?CO?PROG
  +--> ?PR?PRINTF?PRINTF
  +--> ?PR?_INGRESADATO?PROG
  +--> ?PR?_ATOI?ATOI
  +--> ?PR?_WR_EEPROM?EEPROM

?PR?VER_PROG?PROG                                -----    -----      -----    -----      0046H    0013H
  +--> ?PR?_RD_EEPROM?EEPROM
  +--> ?CO?PROG
  +--> ?PR?PRINTF?PRINTF
  +--> ?PR?VER_HORARIO?PROG
  +--> ?PR?_LEERMEMORIA?EEPROM
  +--> ?PR?_HEX_ASCII?CLOCK
  +--> ?PR?LEE_NO_TICKET?EEPROM

BL51 BANKED LINKER/LOCATER V6.22.2.0                                                  06/11/2021  11:57:45  PAGE 13


?PR?VER_HORARIO?PROG                             -----    -----      -----    -----      0059H    001BH
  +--> ?PR?ADDR_HORARIOS?PROG
  +--> ?CO?PROG
  +--> ?PR?PRINTF?PRINTF
  +--> ?PR?_RD_EEPROM?EEPROM
  +--> ?PR?_VER_HORARIO_DIAS?PROG
  +--> ?PR?_VER_HORARIO_DESDE_HASTA?PROG

?PR?_VER_HORARIO_DIAS?PROG                       -----    -----      -----    -----      0074H    0003H
  +--> ?PR?_RD_EEPROM?EEPROM
  +--> ?CO?PROG
  +--> ?PR?PRINTF?PRINTF

?PR?_VER_HORARIO_DESDE_HASTA?PROG                -----    -----      -----    -----      0074H    0002H
  +--> ?CO?PROG
  +--> ?PR?PRINTF?PRINTF
  +--> ?PR?_RD_EEPROM?EEPROM

?PR?_HEX_ASCII?CLOCK                             -----    -----      -----    -----      005DH    0006H
  +--> ?PR?_HEX_BCD?CLOCK

?PR?LEE_NO_TICKET?EEPROM                         -----    -----      -----    -----      0059H    000BH
  +--> ?PR?READ_EEPROM_TICKET?EEPROM
  +--> ?CO?EEPROM
  +--> ?PR?PRINTF?PRINTF
  +--> ?PR?_STRLEN?STRLEN
  +--> ?PR?_DEBUG_TXT_TIBBO?TIBBO

?PR?READ_EEPROM_TICKET?EEPROM                    -----    -----      -----    -----      0064H    0007H
  +--> ?PR?_RD_EEPROM?EEPROM

?PR?_DEBUG_TXT_TIBBO?TIBBO                       -----    -----      -----    -----      0064H    0004H
  +--> ?PR?_DEBUG_CHR_TIBBO?TIBBO
  +--> ?CO?TIBBO
  +--> ?PR?_TX_AUX?TIBBO

?PR?_DEBUG_CHR_TIBBO?TIBBO                       -----    -----      -----    -----      -----    -----
  +--> ?PR?_TX_AUX?TIBBO

?PR?SHOW?PROG                                    -----    -----      -----    -----      -----    -----
  +--> ?CO?PROG
  +--> ?PR?PRINTF?PRINTF

?PR?PROG_FECHA_VENCIMIENTO?PROG                  -----    -----      -----    -----      0046H    0017H
  +--> ?PR?_LEERMEMORIA?EEPROM
  +--> ?PR?_HEX_ASCII?CLOCK
  +--> ?CO?PROG
  +--> ?PR?PRINTF?PRINTF
  +--> ?PR?_HASH_ID?PROG
  +--> ?PR?_INGRESADATO?PROG
  +--> ?PR?_GETCMD?PROG
  +--> ?PR?_ESCRIBIRMEMORIA?EEPROM
  +--> ?PR?_VALIDARCLAVE?PROG
  +--> ?PR?_ATOI?ATOI
  +--> ?PR?_WR_EEPROM?EEPROM

?PR?VARIABLE_INICIO?MAIN                         -----    -----      -----    -----      -----    -----
BL51 BANKED LINKER/LOCATER V6.22.2.0                                                  06/11/2021  11:57:45  PAGE 14


  +--> ?PR?_RD_EEPROM?EEPROM

?PR?SECUENCIA_INICIO_EXPEDIDOR?VERIFI...         -----    -----      -----    -----      0001H    0001H
  +--> ?PR?_INICIALIZA?LINTECH
  +--> ?PR?TRAMA_VALIDACION_P_N?VERIFICADOR
  +--> ?CO?VERIFICADOR
  +--> ?PR?_DEBUG_TXT_TIBBO?TIBBO
  +--> ?PR?_DEBUGBUFFERMF?TIBBO
  +--> ?PR?DWLOAD_EEPROM?LINTECH

?PR?_INICIALIZA?LINTECH                          -----    -----      -----    -----      0002H    000CH
  +--> ?CO?LINTECH
  +--> ?PR?_DEBUG_TXT_TIBBO?TIBBO
  +--> ?PR?_DEBUGBUFFERMF?TIBBO
  +--> ?PR?_ESCRIBIRCADENASOFT_BUFFER?MAIN

?PR?_DEBUGBUFFERMF?TIBBO                         -----    -----      -----    -----      0027H    0006H
  +--> ?CO?TIBBO
  +--> ?PR?_DEBUG_TXT_TIBBO?TIBBO
  +--> ?PR?_DEBUG_CHR_TIBBO?TIBBO
  +--> ?PR?_TX_AUX?TIBBO

?PR?_ESCRIBIRCADENASOFT_BUFFER?MAIN              -----    -----      -----    -----      0027H    0006H
  +--> ?PR?_PUTCHAR?MAIN

?PR?TRAMA_VALIDACION_P_N?VERIFICADOR             -----    -----      -----    -----      -----    -----
  +--> ?CO?VERIFICADOR
  +--> ?PR?_DEBUG_TXT_TIBBO?TIBBO

?PR?DWLOAD_EEPROM?LINTECH                        -----    -----      -----    -----      0002H    0016H
  +--> ?CO?LINTECH
  +--> ?PR?_DEBUG_TXT_TIBBO?TIBBO
  +--> ?PR?_DEBUGBUFFERMF?TIBBO
  +--> ?PR?_ESCRIBIRCADENASOFT_BUFFER?MAIN

?PR?RX_MONITOR?MONITOR                           -----    -----      -----    -----      0009H    000DH
  +--> ?PR?_RECIBE_CMD_MONITOR?MONITOR
  +--> ?PR?_DEBUG_MONITOR?TIBBO
  +--> ?PR?_VALIDA_TRAMA_MONITOR?MONITOR

?PR?_RECIBE_CMD_MONITOR?MONITOR                  -----    -----      -----    -----      0016H    0009H
  +--> ?PR?RX_DATA?TIBBO

?PR?RX_DATA?TIBBO                                -----    -----      -----    -----      -----    -----
  +--> ?PR?TIME_MBIT?TIBBO
  +--> ?PR?TIME_BIT?TIBBO

?PR?_DEBUG_MONITOR?TIBBO                         -----    -----      -----    -----      0016H    0004H
  +--> ?PR?DEBUG_DIVIDIR_TEXTO?TIBBO
  +--> ?CO?TIBBO
  +--> ?PR?_DEBUG_TXT_TIBBO?TIBBO

?PR?DEBUG_DIVIDIR_TEXTO?TIBBO                    -----    -----      -----    -----      -----    -----
  +--> ?CO?TIBBO
  +--> ?PR?_DEBUG_TXT_TIBBO?TIBBO

?PR?_VALIDA_TRAMA_MONITOR?MONITOR                -----    -----      -----    -----      0016H    0006H
BL51 BANKED LINKER/LOCATER V6.22.2.0                                                  06/11/2021  11:57:45  PAGE 15


  +--> ?PR?_DELAY_10MS?DELAY
  +--> ?PR?_TX_AUX?TIBBO

?PR?_DELAY_10MS?DELAY                            -----    -----      -----    -----      001CH    0004H
  +--> ?PR?_DELAY_1MS?DELAY

?PR?_SECUENCIAEXPEDIDORMF?VERIFICADOR            -----    -----      -----    -----      0001H    0001H
  +--> ?PR?_CHECK_STATUS?LINTECH
  +--> ?PR?_LOAD_SECUENCIA_EXPEDIDOR?VERIFIC...
  +--> ?PR?RX_MONITOR?MONITOR
  +--> ?PR?_RTA_CMD_TRANSPORTE?VERIFICADOR
  +--> ?PR?_MOV_CARD?LINTECH
  +--> ?PR?_CARD_INSERCION?LINTECH
  +--> ?PR?AUT_CARD_CHECK_STATUS?LINTECH
  +--> ?PR?LOADVERIFY_EEPROM?LINTECH
  +--> ?PR?_RD_MF?LINTECH
  +--> ?PR?_WR_MF?LINTECH
  +--> ?PR?ANALIZA_CARD_MOUNT_RF?VERIFICADOR
  +--> ?PR?DWLOAD_EEPROM?LINTECH
  +--> ?PR?ENTREGA_CARD_CAPTURA?VERIFICADOR
  +--> ?PR?_SEND_PTO_PARALELO?VERIFICADOR
  +--> ?PR?_WAIT_PLACA?VERIFICADOR
  +--> ?PR?UNIQUE_IDENTIFIER_UID?LINTECH
  +--> ?PR?_PREGUNTA_LPR?VERIFICADOR
  +--> ?PR?PREGUNTA_PLACA?VERIFICADOR
  +--> ?PR?_VALIDA_TIPO_TARJETA?VERIFICADOR
  +--> ?PR?POWER_OFF?LINTECH
  +--> ?PR?CLAVE_SEGURIDAD_S2?LINTECH
  +--> ?PR?_RESPONDE_REELECTURA_TARJETA_SECT...
  +--> ?PR?RESPONDE_ESTADO_SENSORES_TRANSPOR...
  +--> ?PR?RESPONDE_TIPO_TARJETA?VERIFICADOR
  +--> ?PR?_RESPONDE_LECTURA_TARJETA_SECTOR1...
  +--> ?PR?_RESPONDE_LECTURA_TARJETA_SECTOR1...
  +--> ?PR?_RESPONDE_LECTURA_TARJETA_SECTOR1...
  +--> ?PR?_RESPONDE_WRITE_TARJETA_SECTOR1_B...
  +--> ?PR?_RESPONDE_WRITE_TARJETA_SECTOR2_B...
  +--> ?PR?_RESPONDE_WRITE_TARJETA_SECTOR1_B...
  +--> ?PR?_RESPONDE_WRITE_TARJETA_SECTOR1_B...
  +--> ?PR?_DISPARO_LOCK_ENTRADA_VEHICULO?VE...
  +--> ?PR?_RESPUESTA_SEGUNDA_CLAVE?VERIFICADOR
  +--> ?PR?ANALIZA_PRESENCIA_MENSUAL?VERIFIC...
  +--> ?PR?_ANALIZA_UID_CARD?VERIFICADOR
  +--> ?PR?ANALIZA_PRESENCIA_ROTACION?VERIFI...
  +--> ?CO?VERIFICADOR
  +--> ?PR?_DEBUG_TXT_TIBBO?TIBBO

?PR?_CHECK_STATUS?LINTECH                        -----    -----      -----    -----      0002H    000BH
  +--> ?CO?LINTECH
  +--> ?PR?_DEBUG_TXT_TIBBO?TIBBO
  +--> ?PR?_DEBUGBUFFERMF?TIBBO
  +--> ?PR?_ESCRIBIRCADENASOFT_BUFFER?MAIN

?PR?_LOAD_SECUENCIA_EXPEDIDOR?VERIFIC...         -----    -----      -----    -----      0002H    0009H

?PR?_RTA_CMD_TRANSPORTE?VERIFICADOR              -----    -----      -----    -----      0002H    0005H
  +--> ?PR?TRAMA_VALIDACION_P_N?VERIFICADOR
  +--> ?CO?VERIFICADOR
BL51 BANKED LINKER/LOCATER V6.22.2.0                                                  06/11/2021  11:57:45  PAGE 16


  +--> ?PR?_DEBUG_TXT_TIBBO?TIBBO
  +--> ?PR?_DEBUGBUFFERMF?TIBBO
  +--> ?PR?ERROR_RX_PTO?VERIFICADOR

?PR?ERROR_RX_PTO?VERIFICADOR                     -----    -----      -----    -----      0007H    0001H
  +--> ?CO?VERIFICADOR
  +--> ?PR?_DEBUG_TXT_TIBBO?TIBBO
  +--> ?PR?_DEBUG_CHR_TIBBO?TIBBO
  +--> ?PR?_DELAY_10MS?DELAY

?PR?_MOV_CARD?LINTECH                            -----    -----      -----    -----      0002H    000CH
  +--> ?CO?LINTECH
  +--> ?PR?_DEBUG_TXT_TIBBO?TIBBO
  +--> ?PR?_DEBUGBUFFERMF?TIBBO
  +--> ?PR?_ESCRIBIRCADENASOFT_BUFFER?MAIN

?PR?_CARD_INSERCION?LINTECH                      -----    -----      -----    -----      0002H    000AH
  +--> ?CO?LINTECH
  +--> ?PR?_DEBUG_TXT_TIBBO?TIBBO
  +--> ?PR?_DEBUGBUFFERMF?TIBBO
  +--> ?PR?_ESCRIBIRCADENASOFT_BUFFER?MAIN

?PR?AUT_CARD_CHECK_STATUS?LINTECH                -----    -----      -----    -----      0002H    000BH
  +--> ?CO?LINTECH
  +--> ?PR?_DEBUG_TXT_TIBBO?TIBBO
  +--> ?PR?_DEBUGBUFFERMF?TIBBO
  +--> ?PR?_ESCRIBIRCADENASOFT_BUFFER?MAIN

?PR?LOADVERIFY_EEPROM?LINTECH                    -----    -----      -----    -----      0002H    0010H
  +--> ?CO?LINTECH
  +--> ?PR?_DEBUG_TXT_TIBBO?TIBBO
  +--> ?PR?_DEBUGBUFFERMF?TIBBO
  +--> ?PR?_ESCRIBIRCADENASOFT_BUFFER?MAIN

?PR?_RD_MF?LINTECH                               -----    -----      -----    -----      0002H    0012H
  +--> ?CO?LINTECH
  +--> ?PR?_DEBUG_TXT_TIBBO?TIBBO
  +--> ?PR?_DEBUG_CHR_TIBBO?TIBBO
  +--> ?PR?_DEBUGBUFFERMF?TIBBO
  +--> ?PR?_ESCRIBIRCADENASOFT_BUFFER?MAIN

?PR?_WR_MF?LINTECH                               -----    -----      -----    -----      0002H    0025H
  +--> ?CO?LINTECH
  +--> ?PR?_DEBUG_TXT_TIBBO?TIBBO
  +--> ?PR?_DEBUG_CHR_TIBBO?TIBBO
  +--> ?PR?_DEBUGBUFFERMF?TIBBO
  +--> ?PR?_ESCRIBIRCADENASOFT_BUFFER?MAIN

?PR?ANALIZA_CARD_MOUNT_RF?VERIFICADOR            -----    -----      -----    -----      0002H    0001H
  +--> ?CO?VERIFICADOR
  +--> ?PR?_DEBUG_TXT_TIBBO?TIBBO

?PR?ENTREGA_CARD_CAPTURA?VERIFICADOR             -----    -----      -----    -----      0002H    0001H
  +--> ?CO?VERIFICADOR
  +--> ?PR?_DEBUG_TXT_TIBBO?TIBBO
  +--> ?PR?SEL_SENSOR2?IO_SENSORES
  +--> ?PR?VALIDASENSOR?IO_SENSORES
BL51 BANKED LINKER/LOCATER V6.22.2.0                                                  06/11/2021  11:57:45  PAGE 17


  +--> ?PR?VALIDA_SENSOR1_AUTO?IO_SENSORES

?PR?VALIDA_SENSOR1_AUTO?IO_SENSORES              -----    -----      -----    -----      0016H    0001H
  +--> ?PR?SEL_SENSOR1?IO_SENSORES
  +--> ?PR?SEL_AUTO?IO_SENSORES
  +--> ?CO?IO_SENSORES
  +--> ?PR?_DEBUG_TXT_TIBBO?TIBBO
  +--> ?PR?BOTTON?IO_SENSORES

?PR?BOTTON?IO_SENSORES                           -----    -----      -----    -----      -----    -----
  +--> ?PR?SEL_PULSA?IO_SENSORES
  +--> ?CO?IO_SENSORES
  +--> ?PR?_DEBUG_TXT_TIBBO?TIBBO

?PR?_SEND_PTO_PARALELO?VERIFICADOR               -----    -----      -----    -----      0002H    0007H
  +--> ?PR?_ARMAR_TRAMA_PTO_PARALELO_EXPEDID...
  +--> ?PR?_ARMAR_TRAMA_PTO_PARALELO_EXPEDID...
  +--> ?PR?INCREMENTE_TICKET?EEPROM
  +--> ?PR?_SEND_PORT?PTO_PARALELO
  +--> ?CO?VERIFICADOR
  +--> ?PR?_DEBUG_TXT_TIBBO?TIBBO
  +--> ?PR?_DEBUGBUFFERMF?TIBBO
  +--> ?PR?CLEAR_PLACA?MONITOR

?PR?_ARMAR_TRAMA_PTO_PARALELO_EXPEDID...         -----    -----      -----    -----      0009H    0006H
  +--> ?PR?_BCD_HEX?CLOCK
  +--> ?PR?_RD_EEPROM?EEPROM

?PR?_ARMAR_TRAMA_PTO_PARALELO_EXPEDID...         -----    -----      -----    -----      0009H    0012H
  +--> ?PR?LEE_NO_TICKET?EEPROM
  +--> ?PR?_STRCAT?STRCAT
  +--> ?PR?_STRLEN?STRLEN
  +--> ?PR?_BCD_HEX?CLOCK
  +--> ?PR?_RD_EEPROM?EEPROM

?PR?INCREMENTE_TICKET?EEPROM                     -----    -----      -----    -----      0009H    000BH
  +--> ?PR?READ_EEPROM_TICKET?EEPROM
  +--> ?CO?EEPROM
  +--> ?PR?PRINTF?PRINTF
  +--> ?PR?_WRITE_EEPROM_TICKET?EEPROM

?PR?_WRITE_EEPROM_TICKET?EEPROM                  -----    -----      -----    -----      001AH    000BH
  +--> ?CO?EEPROM
  +--> ?PR?_DEBUG_TXT_TIBBO?TIBBO
  +--> ?PR?_ATOL?ATOL
  +--> ?PR?_DEBUG_CHR_TIBBO?TIBBO
  +--> ?PR?_WR_EEPROM?EEPROM

?PR?_ATOL?ATOL                                   0020H.0  0000H.1    -----    -----      0025H    0007H
  +--> ?PR?_ISSPACE?ISSPACE
  +--> ?PR?_ISDIGIT?ISDIGIT

?PR?_SEND_PORT?PTO_PARALELO                      -----    -----      -----    -----      0016H    000AH
  +--> ?PR?PULSO_BUS?PTO_PARALELO
  +--> ?PR?_DELAY_20US?DELAY

?PR?PULSO_BUS?PTO_PARALELO                       -----    -----      -----    -----      -----    -----
BL51 BANKED LINKER/LOCATER V6.22.2.0                                                  06/11/2021  11:57:45  PAGE 18


  +--> ?PR?_DELAY_20US?DELAY

?PR?_WAIT_PLACA?VERIFICADOR                      -----    -----      -----    -----      0002H    0007H
  +--> ?CO?VERIFICADOR
  +--> ?PR?_DEBUG_TXT_TIBBO?TIBBO
  +--> ?PR?RX_MONITOR?MONITOR
  +--> ?PR?_RESPUESTA_PLACA_CANCEL?VERIFICADOR

?PR?_RESPUESTA_PLACA_CANCEL?VERIFICADOR          -----    -----      -----    -----      0009H    000AH
  +--> ?CO?VERIFICADOR
  +--> ?PR?_DEBUG_TXT_TIBBO?TIBBO
  +--> ?PR?_ARMAR_TRAMA_TARJETA_SECTOR1_BLOQ...

?PR?_ARMAR_TRAMA_TARJETA_SECTOR1_BLOQ...         -----    -----      -----    -----      0013H    0004H
  +--> ?PR?CLEAR_PLACA?MONITOR
  +--> ?PR?_RD_EEPROM?EEPROM

?PR?UNIQUE_IDENTIFIER_UID?LINTECH                -----    -----      -----    -----      0002H    000BH
  +--> ?CO?LINTECH
  +--> ?PR?_DEBUG_TXT_TIBBO?TIBBO
  +--> ?PR?_DEBUGBUFFERMF?TIBBO
  +--> ?PR?_ESCRIBIRCADENASOFT_BUFFER?MAIN

?PR?_PREGUNTA_LPR?VERIFICADOR                    -----    -----      -----    -----      0002H    0003H
  +--> ?CO?VERIFICADOR
  +--> ?PR?_DEBUG_TXT_TIBBO?TIBBO
  +--> ?PR?_HORA_ENTRADA_VEHICULO?CLOCK
  +--> ?PR?_RD_EEPROM?EEPROM
  +--> ?PR?_ARMAR_TRAMA_MONITOR?VERIFICADOR

?PR?_HORA_ENTRADA_VEHICULO?CLOCK                 -----    -----      -----    -----      0005H    0003H
  +--> ?PR?_LEE_CLK?CLOCK

?PR?_ARMAR_TRAMA_MONITOR?VERIFICADOR             -----    -----      -----    -----      0005H    000FH
  +--> ?PR?DIR_BOARD_MONITOR?IO_SENSORES
  +--> ?PR?LEE_NO_TICKET?EEPROM
  +--> ?PR?_STRCAT?STRCAT
  +--> ?PR?_BYTEHEX_DECIMAL?CLOCK
  +--> ?PR?_STRLEN?STRLEN
  +--> ?PR?_TWO_BYTEHEX_DECIMAL?CLOCK

?PR?DIR_BOARD_MONITOR?IO_SENSORES                -----    -----      -----    -----      -----    -----
  +--> ?PR?_RD_EEPROM?EEPROM

?PR?_BYTEHEX_DECIMAL?CLOCK                       -----    -----      -----    -----      0015H    0001H

?PR?_TWO_BYTEHEX_DECIMAL?CLOCK                   -----    -----      -----    -----      0015H    000CH
  +--> ?PR?_POW?POW

?PR?_POW?POW                                     -----    -----      -----    -----      0021H    000AH
  +--> ?PR?LOG?LOG
  +--> ?PR?EXP?EXP

?PR?LOG?LOG                                      0020H.0  0000H.1    -----    -----      002BH    0004H

?PR?PREGUNTA_PLACA?VERIFICADOR                   -----    -----      -----    -----      0002H    0001H
  +--> ?CO?VERIFICADOR
BL51 BANKED LINKER/LOCATER V6.22.2.0                                                  06/11/2021  11:57:45  PAGE 19


  +--> ?PR?_DEBUG_TXT_TIBBO?TIBBO
  +--> ?PR?_RD_EEPROM?EEPROM

?PR?_VALIDA_TIPO_TARJETA?VERIFICADOR             -----    -----      -----    -----      0002H    0007H
  +--> ?CO?VERIFICADOR
  +--> ?PR?_DEBUG_TXT_TIBBO?TIBBO
  +--> ?PR?_RD_EEPROM?EEPROM
  +--> ?PR?_TARJETA_MENSUAL?VERIFICADOR
  +--> ?PR?_SEND_PORTERR?PTO_PARALELO
  +--> ?PR?_PANTALLALCD?PANTALLAS
  +--> ?PR?CAPTURA_EXPULSA?VERIFICADOR
  +--> ?PR?_TARJETA_ROTACION?VERIFICADOR

?PR?_TARJETA_MENSUAL?VERIFICADOR                 -----    -----      -----    -----      0009H    0007H
  +--> ?PR?_HORARIOS?VERIFICADOR
  +--> ?PR?_CHECK_FECHAOUT?CLOCK
  +--> ?PR?_VALIDA_VEHICULO_CARD_MENSUAL?VER...
  +--> ?PR?CAPTURA_EXPULSA?VERIFICADOR
  +--> ?CO?VERIFICADOR
  +--> ?PR?_DEBUG_TXT_TIBBO?TIBBO
  +--> ?PR?_ARMAR_TRAMA_TARJETA_SECTOR1_BLOQ...
  +--> ?PR?_SEND_PORTERR?PTO_PARALELO
  +--> ?PR?_PANTALLALCD?PANTALLAS

?PR?_HORARIOS?VERIFICADOR                        -----    -----      -----    -----      0010H    0013H
  +--> ?PR?ADDR_HORARIOS?PROG
  +--> ?PR?_RD_EEPROM?EEPROM
  +--> ?PR?_LEE_CLK?CLOCK
  +--> ?CO?VERIFICADOR
  +--> ?PR?_DEBUG_TXT_TIBBO?TIBBO
  +--> ?PR?_DEBUG_CHR_TIBBO?TIBBO
  +--> ?PR?_BLOQUE_HORARIO?VERIFICADOR
  +--> ?PR?_PANTALLALCD?PANTALLAS

?PR?_BLOQUE_HORARIO?VERIFICADOR                  -----    -----      -----    -----      0023H    0007H
  +--> ?CO?VERIFICADOR
  +--> ?PR?_DEBUG_TXT_TIBBO?TIBBO
  +--> ?PR?_LEE_CLK?CLOCK
  +--> ?PR?_DEBUG_CHR_TIBBO?TIBBO
  +--> ?PR?_HORA_MAXIMA?VERIFICADOR
  +--> ?PR?_EN_HORARIO?VERIFICADOR
  +--> ?PR?_RD_EEPROM?EEPROM
  +--> ?PR?_SEND_PORTERR?PTO_PARALELO
  +--> ?PR?_PANTALLALCD?PANTALLAS

?PR?_HORA_MAXIMA?VERIFICADOR                     -----    -----      -----    -----      002FH    0008H
  +--> ?PR?_RD_EEPROM?EEPROM
  +--> ?PR?_DEBUG_CHR_TIBBO?TIBBO
  +--> ?CO?VERIFICADOR
  +--> ?PR?_DEBUG_TXT_TIBBO?TIBBO

?PR?_EN_HORARIO?VERIFICADOR                      -----    -----      -----    -----      002AH    0005H
  +--> ?CO?VERIFICADOR
  +--> ?PR?_DEBUG_TXT_TIBBO?TIBBO
  +--> ?PR?_HORA_MAXIMA?VERIFICADOR

?PR?_SEND_PORTERR?PTO_PARALELO                   -----    -----      -----    -----      002AH    0006H
BL51 BANKED LINKER/LOCATER V6.22.2.0                                                  06/11/2021  11:57:45  PAGE 20


  +--> ?PR?PULSO_BUS?PTO_PARALELO
  +--> ?PR?_DELAY_20US?DELAY

?PR?_PANTALLALCD?PANTALLAS                       -----    -----      -----    -----      002AH    000AH
  +--> ?CO?PANTALLAS
  +--> ?PR?_LCD_TXT?PANTALLAS
  +--> ?PR?_STRLEN?STRLEN
  +--> ?PR?_TX_CHRLCD?PANTALLAS
  +--> ?PR?_RASPBERRY_DATA?PANTALLAS

?PR?_LCD_TXT?PANTALLAS                           -----    -----      -----    -----      0048H    0005H
  +--> ?PR?_TX_CHRLCD?PANTALLAS

?PR?_TX_CHRLCD?PANTALLAS                         -----    -----      -----    -----      004DH    0002H
  +--> ?PR?_PUTCHAR?MAIN

?PR?_RASPBERRY_DATA?PANTALLAS                    -----    -----      -----    -----      0048H    0006H
  +--> ?PR?_STRLEN?STRLEN
  +--> ?PR?_PUTCHAR?MAIN

?PR?_VALIDA_VEHICULO_CARD_MENSUAL?VER...         -----    -----      -----    -----      0010H    0004H
  +--> ?CO?VERIFICADOR
  +--> ?PR?_DEBUG_TXT_TIBBO?TIBBO
  +--> ?PR?_RD_EEPROM?EEPROM
  +--> ?PR?_SEND_PORTERR?PTO_PARALELO

?PR?_ARMAR_TRAMA_TARJETA_SECTOR1_BLOQ...         -----    -----      -----    -----      0010H    0006H
  +--> ?PR?_BCD_HEX?CLOCK
  +--> ?PR?DIR_BOARD?IO_SENSORES

?PR?DIR_BOARD?IO_SENSORES                        -----    -----      -----    -----      0037H    0001H
  +--> ?PR?SEL_DIR1?IO_SENSORES
  +--> ?PR?SEL_DIR2?IO_SENSORES
  +--> ?PR?_RD_EEPROM?EEPROM

?PR?_TARJETA_ROTACION?VERIFICADOR                -----    -----      -----    -----      0009H    0006H
  +--> ?PR?_ARMAR_TRAMA_TARJETA_SECTOR1_BLOQ...

?PR?POWER_OFF?LINTECH                            -----    -----      -----    -----      0002H    000BH
  +--> ?CO?LINTECH
  +--> ?PR?_DEBUG_TXT_TIBBO?TIBBO
  +--> ?PR?_DEBUGBUFFERMF?TIBBO
  +--> ?PR?_ESCRIBIRCADENASOFT_BUFFER?MAIN

?PR?CLAVE_SEGURIDAD_S2?LINTECH                   -----    -----      -----    -----      0002H    0016H
  +--> ?CO?LINTECH
  +--> ?PR?_DEBUG_TXT_TIBBO?TIBBO
  +--> ?PR?_DEBUGBUFFERMF?TIBBO
  +--> ?PR?_ESCRIBIRCADENASOFT_BUFFER?MAIN

?PR?_RESPONDE_REELECTURA_TARJETA_SECT...         -----    -----      -----    -----      0002H    000AH
  +--> ?CO?VERIFICADOR
  +--> ?PR?_DEBUG_TXT_TIBBO?TIBBO
  +--> ?PR?_DEBUGBUFFERMF?TIBBO
  +--> ?PR?_ARMAR_TRAMA_TARJETA_SECTOR1_BLOQ...

?PR?_ARMAR_TRAMA_TARJETA_SECTOR1_BLOQ...         -----    -----      -----    -----      000CH    0003H
BL51 BANKED LINKER/LOCATER V6.22.2.0                                                  06/11/2021  11:57:45  PAGE 21


  +--> ?PR?LEE_NO_TICKET?EEPROM

?PR?RESPONDE_ESTADO_SENSORES_TRANSPOR...         -----    -----      -----    -----      0002H    0001H
  +--> ?CO?VERIFICADOR
  +--> ?PR?_DEBUG_TXT_TIBBO?TIBBO
  +--> ?PR?_SEND_PORTERR?PTO_PARALELO
  +--> ?PR?INGRESO_VEHICULO?VERIFICADOR

?PR?INGRESO_VEHICULO?VERIFICADOR                 -----    -----      -----    -----      -----    -----
  +--> ?PR?VALIDASENSORESPASO?IO_SENSORES
  +--> ?PR?_RD_EEPROM?EEPROM
  +--> ?CO?VERIFICADOR
  +--> ?PR?_DEBUG_TXT_TIBBO?TIBBO
  +--> ?PR?_PANTALLALCD?PANTALLAS
  +--> ?PR?BOTTON?IO_SENSORES

?PR?VALIDASENSORESPASO?IO_SENSORES               -----    -----      -----    -----      0015H    0001H
  +--> ?PR?SEL_SENSOR2?IO_SENSORES
  +--> ?PR?VALIDASENSOR?IO_SENSORES
  +--> ?PR?VALIDA_SENSOR1_AUTO?IO_SENSORES
  +--> ?CO?IO_SENSORES
  +--> ?PR?_DEBUG_TXT_TIBBO?TIBBO

?PR?RESPONDE_TIPO_TARJETA?VERIFICADOR            -----    -----      -----    -----      0002H    0001H
  +--> ?CO?VERIFICADOR
  +--> ?PR?_DEBUG_TXT_TIBBO?TIBBO
  +--> ?PR?_SEND_PORTERR?PTO_PARALELO
  +--> ?PR?_PANTALLALCD?PANTALLAS
  +--> ?PR?CAPTURA_EXPULSA?VERIFICADOR

?PR?_RESPONDE_LECTURA_TARJETA_SECTOR1...         -----    -----      -----    -----      0002H    0016H
  +--> ?CO?VERIFICADOR
  +--> ?PR?_DEBUG_TXT_TIBBO?TIBBO
  +--> ?PR?_DEBUGBUFFERMF?TIBBO
  +--> ?PR?_RD_EEPROM?EEPROM
  +--> ?PR?_DEBUG_HEXDEC?TIBBO
  +--> ?PR?_DEBUG_CHR_TIBBO?TIBBO
  +--> ?PR?_SEND_PORTERR?PTO_PARALELO
  +--> ?PR?_PANTALLALCD?PANTALLAS
  +--> ?PR?CAPTURA_EXPULSA?VERIFICADOR

?PR?_DEBUG_HEXDEC?TIBBO                          -----    -----      -----    -----      0018H    0002H
  +--> ?PR?_TX_AUX?TIBBO

?PR?_RESPONDE_LECTURA_TARJETA_SECTOR1...         -----    -----      -----    -----      0002H    0004H
  +--> ?CO?VERIFICADOR
  +--> ?PR?_DEBUG_TXT_TIBBO?TIBBO
  +--> ?PR?CAPTURA_EXPULSA?VERIFICADOR

?PR?_RESPONDE_LECTURA_TARJETA_SECTOR1...         -----    -----      -----    -----      0002H    0015H
  +--> ?CO?VERIFICADOR
  +--> ?PR?_DEBUG_TXT_TIBBO?TIBBO
  +--> ?PR?_DEBUGBUFFERMF?TIBBO
  +--> ?PR?_DEBUG_CHR_TIBBO?TIBBO
  +--> ?PR?CAPTURA_EXPULSA?VERIFICADOR

?PR?_RESPONDE_WRITE_TARJETA_SECTOR1_B...         -----    -----      -----    -----      0002H    0007H
BL51 BANKED LINKER/LOCATER V6.22.2.0                                                  06/11/2021  11:57:45  PAGE 22


  +--> ?CO?VERIFICADOR
  +--> ?PR?_DEBUG_TXT_TIBBO?TIBBO
  +--> ?PR?_DEBUGBUFFERMF?TIBBO

?PR?_RESPONDE_WRITE_TARJETA_SECTOR2_B...         -----    -----      -----    -----      0002H    0003H
  +--> ?CO?VERIFICADOR
  +--> ?PR?_DEBUG_TXT_TIBBO?TIBBO
  +--> ?PR?_DEBUGBUFFERMF?TIBBO

?PR?_RESPONDE_WRITE_TARJETA_SECTOR1_B...         -----    -----      -----    -----      0002H    0003H
  +--> ?CO?VERIFICADOR
  +--> ?PR?_DEBUG_TXT_TIBBO?TIBBO
  +--> ?PR?_DEBUGBUFFERMF?TIBBO

?PR?_RESPONDE_WRITE_TARJETA_SECTOR1_B...         -----    -----      -----    -----      0002H    0003H
  +--> ?CO?VERIFICADOR
  +--> ?PR?_DEBUG_TXT_TIBBO?TIBBO
  +--> ?PR?_DEBUGBUFFERMF?TIBBO

?PR?_DISPARO_LOCK_ENTRADA_VEHICULO?VE...         -----    -----      -----    -----      0002H    0004H
  +--> ?CO?VERIFICADOR
  +--> ?PR?_DEBUG_TXT_TIBBO?TIBBO
  +--> ?PR?_SEND_PORTERR?PTO_PARALELO
  +--> ?PR?_PANTALLALCD_LINEA_2?PANTALLAS
  +--> ?PR?VALIDA_SENSOR1_AUTO?IO_SENSORES
  +--> ?PR?_PANTALLALCD?PANTALLAS

?PR?_PANTALLALCD_LINEA_2?PANTALLAS               -----    -----      -----    -----      0015H    0033H
  +--> ?CO?PANTALLAS
  +--> ?PR?_LCD_TXT?PANTALLAS
  +--> ?PR?_STRLEN?STRLEN
  +--> ?PR?_TX_CHRLCD?PANTALLAS
  +--> ?PR?_RASPBERRY_DATA?PANTALLAS
  +--> ?PR?LEE_NO_TICKET?EEPROM
  +--> ?PR?_STRCAT?STRCAT

?PR?_RESPUESTA_SEGUNDA_CLAVE?VERIFICADOR         -----    -----      -----    -----      0002H    0006H
  +--> ?CO?VERIFICADOR
  +--> ?PR?_DEBUG_TXT_TIBBO?TIBBO
  +--> ?PR?_DEBUGBUFFERMF?TIBBO
  +--> ?PR?_ARMAR_TRAMA_PLACA?VERIFICADOR

?PR?_ARMAR_TRAMA_PLACA?VERIFICADOR               -----    -----      -----    -----      0008H    0003H
  +--> ?PR?_STRLEN?STRLEN

?PR?ANALIZA_PRESENCIA_MENSUAL?VERIFIC...         -----    -----      -----    -----      0002H    0001H
  +--> ?PR?VALIDASENSORESPASO?IO_SENSORES
  +--> ?PR?_SEND_PORTERR?PTO_PARALELO
  +--> ?PR?_PANTALLALCD?PANTALLAS

?PR?_ANALIZA_UID_CARD?VERIFICADOR                -----    -----      -----    -----      0002H    0015H
  +--> ?CO?VERIFICADOR
  +--> ?PR?_DEBUG_TXT_TIBBO?TIBBO
  +--> ?PR?_DEBUGBUFFERMF?TIBBO
  +--> ?PR?_DEBUG_CHR_TIBBO?TIBBO

?PR?ANALIZA_PRESENCIA_ROTACION?VERIFI...         -----    -----      -----    -----      0002H    0001H
BL51 BANKED LINKER/LOCATER V6.22.2.0                                                  06/11/2021  11:57:45  PAGE 23


  +--> ?PR?VALIDASENSORESPASO?IO_SENSORES
  +--> ?PR?_SEND_PORTERR?PTO_PARALELO
  +--> ?PR?_PANTALLALCD?PANTALLAS

?PR?_RECIBE_PORT?PTO_PARALELO                    -----    -----      -----    -----      0001H    0008H
  +--> ?PR?OFF_TIMER0_INTERRUP?MAIN
  +--> ?PR?ON_TIMER0_INTERRUP?MAIN

?PR?_DEBUG_PTO_PARALELO?TIBBO                    -----    -----      -----    -----      0001H    0004H
  +--> ?CO?TIBBO
  +--> ?PR?_DEBUG_TXT_TIBBO?TIBBO
  +--> ?PR?_DEBUGBUFFERMF?TIBBO
  +--> ?PR?DEBUG_DIVIDIR_TEXTO?TIBBO

?PR?_VALIDA_TRAMA_PTO?ACCESCAN                   -----    -----      -----    -----      0001H    0014H
  +--> ?CO?ACCESCAN
  +--> ?PR?_DEBUG_TXT_TIBBO?TIBBO
  +--> ?PR?_DEBUG_CHR_TIBBO?TIBBO
  +--> ?PR?_CALCULO_BCC?ACCESCAN
  +--> ?PR?_VALIDAR_CLK?CLOCK
  +--> ?PR?_BLOCK_WRITE_CLOCK_ASCII?CLOCK
  +--> ?PR?RELOJ_PANTALLA_LCD?PANTALLAS
  +--> ?PR?_SEND_PORT?PTO_PARALELO
  +--> ?PR?_PANTALLALCD?PANTALLAS
  +--> ?PR?FORMATO_EEPROM?EEPROM
  +--> ?PR?_BYTEHEX_DECIMAL?CLOCK
  +--> ?PR?_TWO_BYTEHEX_DECIMAL?CLOCK
  +--> ?PR?VALIDASENSORESPASO?IO_SENSORES
  +--> ?PR?_CMD_LPR_SALIDA_WIEGAND?ACCESCAN
  +--> ?PR?_PANTALLALCD_LINEA_2?PANTALLAS
  +--> ?PR?_GRABA_SERIE?EEPROM

?PR?_CALCULO_BCC?ACCESCAN                        -----    -----      -----    -----      0015H    0004H

?PR?_BLOCK_WRITE_CLOCK_ASCII?CLOCK               -----    -----      -----    -----      0015H    0003H
  +--> ?CO?CLOCK
  +--> ?PR?_DEBUG_TXT_TIBBO?TIBBO
  +--> ?PR?_TWO_ONE?CLOCK
  +--> ?PR?_WR_CLK?CLOCK

?PR?_WR_CLK?CLOCK                                -----    -----      -----    -----      0018H    0002H
  +--> ?PR?_DELAY_20US?DELAY
  +--> ?PR?_EB_CLK?CLOCK

?PR?RELOJ_PANTALLA_LCD?PANTALLAS                 -----    -----      -----    -----      0015H    000DH
  +--> ?CO?PANTALLAS
  +--> ?PR?_BLOCK_READ_CLOCK?CLOCK
  +--> ?PR?_LCD_TXT_NUM_CHAR?PANTALLAS
  +--> ?PR?_BLOCK_READ_CLOCK_ASCII_RASBERRY?...
  +--> ?PR?_STRCAT?STRCAT
  +--> ?PR?_RASPBERRY_DATA?PANTALLAS

?PR?_BLOCK_READ_CLOCK?CLOCK                      -----    -----      -----    -----      0022H    0003H
  +--> ?PR?_LEE_CLK?CLOCK

?PR?_LCD_TXT_NUM_CHAR?PANTALLAS                  -----    -----      -----    -----      0022H    0006H
  +--> ?PR?_TX_CHRLCD?PANTALLAS
BL51 BANKED LINKER/LOCATER V6.22.2.0                                                  06/11/2021  11:57:45  PAGE 24



?PR?_BLOCK_READ_CLOCK_ASCII_RASBERRY?...         -----    -----      -----    -----      0022H    0003H
  +--> ?PR?_LEE_CLK?CLOCK

?PR?FORMATO_EEPROM?EEPROM                        -----    -----      -----    -----      0015H    0003H
  +--> ?PR?_WR_EEPROM?EEPROM

?PR?_CMD_LPR_SALIDA_WIEGAND?ACCESCAN             -----    -----      -----    -----      0015H    0022H
  +--> ?PR?DIR_BOARD?IO_SENSORES
  +--> ?PR?_BLOCK_READ_CLOCK_ASCII?CLOCK
  +--> ?PR?_MONITOR_CHR?ACCESCAN

?PR?_MONITOR_CHR?ACCESCAN                        -----    -----      -----    -----      0037H    0005H
  +--> ?PR?_TX_AUX?TIBBO

?PR?_GRABA_SERIE?EEPROM                          -----    -----      -----    -----      0015H    0005H
  +--> ?CO?EEPROM
  +--> ?PR?_DEBUG_TXT_TIBBO?TIBBO
  +--> ?PR?_WRITE_EEPROM_TICKET?EEPROM
  +--> ?PR?_WR_EEPROM?EEPROM

?PR?MSJ_LCD_INFORMATIVO?IO_SENSORES              -----    -----      -----    -----      0001H    0001H
  +--> ?PR?SEL_FUNCION?IO_SENSORES
  +--> ?PR?VALIDASENSOR_CERO?IO_SENSORES
  +--> ?CO?IO_SENSORES
  +--> ?PR?_DEBUG_TXT_TIBBO?TIBBO
  +--> ?PR?_DEBUG_CHR_TIBBO?TIBBO
  +--> ?PR?LOAD_AND_SEND_INFO_RELOJ?PTO_PARA...
  +--> ?PR?VALIDASENSOR?IO_SENSORES
  +--> ?PR?_DELAY_10MS?DELAY
  +--> ?PR?LOAD_AND_SEND_ID_COD?PTO_PARALELO

?PR?LOAD_AND_SEND_INFO_RELOJ?PTO_PARA...         -----    -----      -----    -----      0002H    000BH
  +--> ?PR?_BLOCK_READ_CLOCK?CLOCK
  +--> ?PR?_LEE_CLK?CLOCK
  +--> ?CO?PTO_PARALELO
  +--> ?PR?_DEBUG_TXT_TIBBO?TIBBO
  +--> ?PR?_DEBUGBUFFERMF?TIBBO
  +--> ?PR?DEBUG_DIVIDIR_TEXTO?TIBBO
  +--> ?PR?_SEND_PORT?PTO_PARALELO

?PR?LOAD_AND_SEND_ID_COD?PTO_PARALELO            -----    -----      -----    -----      0002H    0014H
  +--> ?PR?_RD_EEPROM?EEPROM
  +--> ?CO?PTO_PARALELO
  +--> ?PR?PRINTF?PRINTF
  +--> ?PR?_STRCAT?STRCAT
  +--> ?PR?_STRLEN?STRLEN
  +--> ?PR?_DEBUG_TXT_TIBBO?TIBBO
  +--> ?PR?_DEBUGBUFFERMF?TIBBO
  +--> ?PR?DEBUG_DIVIDIR_TEXTO?TIBBO
  +--> ?PR?_SEND_PORT?PTO_PARALELO



SYMBOL TABLE OF MODULE:  .\Objects\expedidor_v_01_raspberry (MAIN)

  VALUE           TYPE          NAME
BL51 BANKED LINKER/LOCATER V6.22.2.0                                                  06/11/2021  11:57:45  PAGE 25


  ----------------------------------

  -------         MODULE        MAIN
  C:0000H         SYMBOL        _ICE_DUMMY_
  D:0080H         PUBLIC        P0
  D:0090H         PUBLIC        P1
  C:BE7AH         PUBLIC        timer0_int
  D:00B0H         PUBLIC        P3
  B:00A8H.7       PUBLIC        EA
  C:C2BBH         PUBLIC        off_Timer0_Interrup
  X:0171H         PUBLIC        ValTimeOutCom
  X:0172H         PUBLIC        Buffer_Rta_Lintech
  X:01A4H         PUBLIC        Timer_wait
  B:0021H.1       PUBLIC        pto_paraleo
  X:01A5H         PUBLIC        g_cContByteRx
  B:0080H.0       PUBLIC        rx_ip
  C:AD2DH         PUBLIC        main
  X:01A6H         PUBLIC        Timer_tivo
  B:0080H.3       PUBLIC        Atascado_GP0_PIN_3
  C:B496H         PUBLIC        variable_inicio
  B:0090H.7       PUBLIC        lock
  I:0023H         PUBLIC        rbuf
  C:C2B1H         PUBLIC        on_Timer0_Interrup
  I:0055H         PUBLIC        tbuf
  B:0090H.1       PUBLIC        DataIn
  D:0089H         PUBLIC        TMOD
  X:01A8H         PUBLIC        USE_LPR
  X:01A9H         PUBLIC        Debug_Tibbo
  X:01AAH         PUBLIC        Raspberry
  X:01ABH         PUBLIC        SIN_COBRO
  X:01ADH         PUBLIC        Tipo_Vehiculo
  B:00B0H.3       PUBLIC        busy
  C:C212H         PUBLIC        ini_timer
  B:00A8H.1       PUBLIC        ET0
  B:0088H.5       PUBLIC        TF0
  D:008CH         PUBLIC        TH0
  X:01AEH         PUBLIC        ACK
  X:01AFH         PUBLIC        g_cEstadoComSoft
  D:008AH         PUBLIC        TL0
  B:0088H.4       PUBLIC        TR0
  C:C222H         PUBLIC        inicia_board
  X:01B0H         PUBLIC        T_GRACIA
  B:0080H.7       PUBLIC        sel_com
  X:01B2H         PUBLIC        STX_LINTECH
  C:C241H         PUBLIC        _getkey
  X:01B3H         PUBLIC        ETX
  C:B732H         PUBLIC        _EscribirCadenaSoft_buffer
  B:0021H.2       PUBLIC        buffer_ready
  C:BA0EH         PUBLIC        _putchar
  B:0021H.3       PUBLIC        placa_ready
  -------         PROC          TIMER0_INT
  C:BE7AH         LINE#         16
  C:BE80H         LINE#         19
  C:BE86H         LINE#         20
  C:BE8BH         LINE#         21
  C:BE8BH         LINE#         22
  C:BE91H         LINE#         23
BL51 BANKED LINKER/LOCATER V6.22.2.0                                                  06/11/2021  11:57:45  PAGE 26


  C:BE91H         LINE#         25
  C:BE9FH         LINE#         26
  C:BEA1H         LINE#         28
  -------         ENDPROC       TIMER0_INT
  -------         PROC          INI_TIMER
  C:C212H         LINE#         31
  C:C212H         LINE#         32
  C:C212H         LINE#         34
  C:C21AH         LINE#         36
  C:C21DH         LINE#         37
  C:C21FH         LINE#         38
  C:C221H         LINE#         40
  -------         ENDPROC       INI_TIMER
  -------         PROC          ON_TIMER0_INTERRUP
  C:C2B1H         LINE#         43
  C:C2B1H         LINE#         44
  C:C2B1H         LINE#         45
  C:C2B3H         LINE#         46
  C:C2B5H         LINE#         48
  -------         ENDPROC       ON_TIMER0_INTERRUP
  -------         PROC          OFF_TIMER0_INTERRUP
  C:C2BBH         LINE#         51
  C:C2BBH         LINE#         52
  C:C2BBH         LINE#         53
  C:C2BDH         LINE#         55
  -------         ENDPROC       OFF_TIMER0_INTERRUP
  -------         PROC          _GETKEY
  -------         DO            
  D:0006H         SYMBOL        k
  -------         ENDDO         
  C:C241H         LINE#         63
  C:C241H         LINE#         64
  C:C241H         LINE#         68
  C:C241H         LINE#         69
  C:C244H         LINE#         70
  C:C244H         LINE#         71
  C:C24CH         LINE#         73
  C:C24CH         LINE#         74
  -------         ENDPROC       _GETKEY
  -------         PROC          _PUTCHAR
  X:00A7H         SYMBOL        c
  -------         DO            
  X:00A8H         SYMBOL        i
  -------         ENDDO         
  C:BA0EH         LINE#         78
  C:BA13H         LINE#         79
  C:BA13H         LINE#         82
  C:BA22H         LINE#         83
  C:BA22H         LINE#         84
  C:BA38H         LINE#         85
  C:BA38H         LINE#         87
  C:BA46H         LINE#         88
  C:BA46H         LINE#         90
  C:BA4BH         LINE#         91
  -------         ENDPROC       _PUTCHAR
  -------         PROC          _ESCRIBIRCADENASOFT_BUFFER
  X:0027H         SYMBOL        buffer
BL51 BANKED LINKER/LOCATER V6.22.2.0                                                  06/11/2021  11:57:45  PAGE 27


  X:002AH         SYMBOL        tamano_cadena
  -------         DO            
  X:002BH         SYMBOL        i
  X:002CH         SYMBOL        d
  -------         ENDDO         
  C:B732H         LINE#         95
  C:B740H         LINE#         96
  C:B740H         LINE#         98
  C:B74EH         LINE#         99
  C:B74EH         LINE#         100
  C:B765H         LINE#         101
  C:B76FH         LINE#         102
  C:B777H         LINE#         103
  -------         ENDPROC       _ESCRIBIRCADENASOFT_BUFFER
  -------         PROC          INICIA_BOARD
  C:C222H         LINE#         108
  C:C222H         LINE#         109
  C:C222H         LINE#         110
  C:C225H         LINE#         111
  C:C228H         LINE#         112
  C:C22BH         LINE#         113
  C:C22DH         LINE#         114
  C:C22FH         LINE#         115
  C:C231H         LINE#         117
  -------         ENDPROC       INICIA_BOARD
  -------         PROC          VARIABLE_INICIO
  C:B496H         LINE#         122
  C:B496H         LINE#         123
  C:B496H         LINE#         126
  C:B4A7H         LINE#         127
  C:B4B8H         LINE#         128
  C:B4C6H         LINE#         129
  C:B4D4H         LINE#         130
  C:B4E2H         LINE#         133
  -------         ENDPROC       VARIABLE_INICIO
  -------         PROC          MAIN
  -------         DO            
  X:0148H         SYMBOL        buffer
  X:0170H         SYMBOL        Estado_Comunicacion_Secuencia_MF
  X:0000H         SYMBOL        Length_trama
  -------         ENDDO         
  C:AD2DH         LINE#         141
  C:AD2DH         LINE#         142
  C:AD2DH         LINE#         149
  C:AD30H         LINE#         150
  C:AD33H         LINE#         151
  C:AD36H         LINE#         152
  C:AD39H         LINE#         153
  C:AD3CH         LINE#         154
  C:AD3EH         LINE#         156
  C:AD41H         LINE#         157
  C:AD48H         LINE#         158
  C:AD4BH         LINE#         160
  C:AD50H         LINE#         162
  C:AD53H         LINE#         164
  C:AD56H         LINE#         165
  C:AD56H         LINE#         166
BL51 BANKED LINKER/LOCATER V6.22.2.0                                                  06/11/2021  11:57:45  PAGE 28


  C:AD59H         LINE#         167
  C:AD59H         LINE#         170
  C:AD5CH         LINE#         171
  C:AD62H         LINE#         172
  C:AD68H         LINE#         174
  C:AD68H         LINE#         175
  C:AD68H         LINE#         178
  C:AD6BH         LINE#         179
  C:AD6BH         LINE#         180
  C:AD6EH         LINE#         181
  C:AD6EH         LINE#         185
  C:AD7BH         LINE#         190
  C:AD81H         LINE#         191
  C:AD81H         LINE#         193
  C:AD90H         LINE#         196
  C:AD99H         LINE#         197
  C:ADA7H         LINE#         202
  C:ADA7H         LINE#         203
  C:ADAAH         LINE#         206
  -------         ENDPROC       MAIN
  -------         ENDMOD        MAIN

  -------         MODULE        ACCESCAN
  C:0000H         SYMBOL        _ICE_DUMMY_
  D:0080H         PUBLIC        P0
  D:0090H         PUBLIC        P1
  D:00B0H         PUBLIC        P3
  B:0080H.2       PUBLIC        led_err_imp
  C:B8CDH         PUBLIC        _Monitor_chr
  B:0080H.3       PUBLIC        Atascado_GP0_PIN_3
  B:0090H.7       PUBLIC        lock
  C:35C6H         PUBLIC        _Valida_Trama_Pto
  C:BD7DH         PUBLIC        _Calculo_bcc
  C:8B27H         PUBLIC        _Cmd_LPR_Salida_wiegand
  -------         PROC          _VALIDA_TRAMA_PTO
  X:0001H         SYMBOL        buffer
  X:0004H         SYMBOL        length_trama
  -------         DO            
  X:0218H         SYMBOL        cont
  X:0005H         SYMBOL        bcc
  X:0006H         SYMBOL        buff
  X:0011H         SYMBOL        buffer_port
  -------         ENDDO         
  C:35C6H         LINE#         113
  C:35D4H         LINE#         114
  C:35D4H         LINE#         117
  C:35D7H         LINE#         122
  C:361AH         LINE#         123
  C:361AH         LINE#         124
  C:3623H         LINE#         125
  C:3638H         LINE#         126
  C:3641H         LINE#         127
  C:3658H         LINE#         128
  C:3661H         LINE#         129
  C:3669H         LINE#         130
  C:3672H         LINE#         131
  C:368BH         LINE#         132
BL51 BANKED LINKER/LOCATER V6.22.2.0                                                  06/11/2021  11:57:45  PAGE 29


  C:368BH         LINE#         134
  C:369BH         LINE#         135
  C:369BH         LINE#         136
  C:36AEH         LINE#         138
  C:36B1H         LINE#         140
  C:36B1H         LINE#         143
  C:36B1H         LINE#         145
  C:36B1H         LINE#         147
  C:36B7H         LINE#         148
  C:36BBH         LINE#         149
  C:36BFH         LINE#         150
  C:36C2H         LINE#         151
  C:36CDH         LINE#         153
  C:36D6H         LINE#         154
  C:36DEH         LINE#         155
  C:36E6H         LINE#         156
  C:36EEH         LINE#         157
  C:36F7H         LINE#         158
  C:36F7H         LINE#         161
  C:36F7H         LINE#         164
  C:3709H         LINE#         165
  C:3709H         LINE#         166
  C:370BH         LINE#         167
  C:370EH         LINE#         169
  C:3720H         LINE#         170
  C:3720H         LINE#         171
  C:3722H         LINE#         172
  C:3725H         LINE#         174
  C:3737H         LINE#         175
  C:3737H         LINE#         176
  C:3739H         LINE#         177
  C:373CH         LINE#         179
  C:3756H         LINE#         180
  C:3756H         LINE#         181
  C:3758H         LINE#         182
  C:375BH         LINE#         184
  C:3775H         LINE#         185
  C:3775H         LINE#         186
  C:3777H         LINE#         187
  C:377AH         LINE#         189
  C:378CH         LINE#         190
  C:378CH         LINE#         191
  C:3792H         LINE#         192
  C:379FH         LINE#         193
  C:379FH         LINE#         194
  C:37A4H         LINE#         195
  C:37A6H         LINE#         196
  C:37ABH         LINE#         197
  C:37ADH         LINE#         198
  C:37AFH         LINE#         199
  C:37B3H         LINE#         200
  C:37B3H         LINE#         201
  C:37B4H         LINE#         203
  C:37CCH         LINE#         204
  C:37CCH         LINE#         206
  C:37D9H         LINE#         207
  C:37D9H         LINE#         208
BL51 BANKED LINKER/LOCATER V6.22.2.0                                                  06/11/2021  11:57:45  PAGE 30


  C:37DBH         LINE#         209
  C:37DDH         LINE#         210
  C:37DFH         LINE#         211
  C:37E1H         LINE#         212
  C:37E1H         LINE#         214
  C:3807H         LINE#         215
  C:3807H         LINE#         216
  C:380BH         LINE#         217
  C:3810H         LINE#         218
  C:3819H         LINE#         219
  C:381EH         LINE#         220
  C:381EH         LINE#         223
  C:381FH         LINE#         225
  C:3839H         LINE#         226
  C:3839H         LINE#         227
  C:383BH         LINE#         228
  C:383EH         LINE#         230
  C:3858H         LINE#         231
  C:3858H         LINE#         232
  C:385BH         LINE#         233
  C:385BH         LINE#         235
  C:3875H         LINE#         236
  C:3875H         LINE#         237
  C:3877H         LINE#         238
  C:387AH         LINE#         240
  C:3894H         LINE#         241
  C:3894H         LINE#         242
  C:3896H         LINE#         243
  C:3898H         LINE#         245
  C:38B2H         LINE#         246
  C:38B2H         LINE#         247
  C:38B4H         LINE#         248
  C:38B6H         LINE#         251
  C:38D0H         LINE#         252
  C:38D0H         LINE#         253
  C:38D2H         LINE#         254
  C:38D4H         LINE#         258
  C:38EEH         LINE#         259
  C:38EEH         LINE#         260
  C:38F0H         LINE#         261
  C:38F2H         LINE#         264
  C:390CH         LINE#         265
  C:390CH         LINE#         266
  C:3911H         LINE#         267
  C:3911H         LINE#         270
  C:3942H         LINE#         271
  C:3942H         LINE#         272
  C:394AH         LINE#         273
  C:3953H         LINE#         274
  C:3956H         LINE#         277
  C:3987H         LINE#         278
  C:3987H         LINE#         280
  C:398FH         LINE#         281
  C:3998H         LINE#         282
  C:399BH         LINE#         285
  C:39DBH         LINE#         286
  C:39DBH         LINE#         288
BL51 BANKED LINKER/LOCATER V6.22.2.0                                                  06/11/2021  11:57:45  PAGE 31


  C:39F0H         LINE#         289
  C:39F6H         LINE#         290
  C:3A20H         LINE#         293
  C:3A28H         LINE#         294
  C:3A28H         LINE#         297
  C:3A2FH         LINE#         298
  C:3A2FH         LINE#         299
  C:3A34H         LINE#         300
  C:3A34H         LINE#         301
  C:3A36H         LINE#         303
  C:3A36H         LINE#         304
  C:3A3FH         LINE#         305
  C:3A47H         LINE#         306
  C:3A47H         LINE#         310
  C:3A49H         LINE#         313
  C:3A49H         LINE#         321
  C:3A51H         LINE#         325
  C:3A51H         LINE#         326
  C:3A53H         LINE#         328
  C:3A8BH         LINE#         329
  C:3A8BH         LINE#         330
  C:3A93H         LINE#         331
  C:3A9FH         LINE#         332
  C:3A9FH         LINE#         334
  C:3ACCH         LINE#         335
  C:3ACCH         LINE#         336
  C:3ADBH         LINE#         338
  C:3ADBH         LINE#         340
  -------         ENDPROC       _VALIDA_TRAMA_PTO
  -------         PROC          _MONITOR_CHR
  X:0037H         SYMBOL        str
  X:003AH         SYMBOL        num_char
  -------         DO            
  X:003BH         SYMBOL        j
  -------         ENDDO         
  C:B8CDH         LINE#         495
  C:B8DBH         LINE#         496
  C:B8DBH         LINE#         498
  C:B8E9H         LINE#         499
  C:B8E9H         LINE#         500
  C:B8FBH         LINE#         501
  C:B905H         LINE#         502
  C:B90DH         LINE#         503
  -------         ENDPROC       _MONITOR_CHR
  -------         PROC          _CMD_LPR_SALIDA_WIEGAND
  X:0015H         SYMBOL        buffer
  -------         DO            
  X:0018H         SYMBOL        Buffer_Lpr
  X:0036H         SYMBOL        j
  -------         ENDDO         
  C:8B27H         LINE#         508
  C:8B32H         LINE#         509
  C:8B32H         LINE#         511
  C:8B38H         LINE#         512
  C:8B3DH         LINE#         513
  C:8B45H         LINE#         514
  C:8B49H         LINE#         515
BL51 BANKED LINKER/LOCATER V6.22.2.0                                                  06/11/2021  11:57:45  PAGE 32


  C:8B52H         LINE#         516
  C:8B52H         LINE#         517
  C:8B63H         LINE#         518
  C:8B65H         LINE#         520
  C:8B65H         LINE#         521
  C:8B76H         LINE#         522
  C:8B76H         LINE#         526
  C:8B8DH         LINE#         527
  C:8B8DH         LINE#         528
  C:8B9CH         LINE#         529
  C:8BA6H         LINE#         531
  C:8BAEH         LINE#         532
  C:8BC2H         LINE#         534
  C:8BD2H         LINE#         535
  C:8BE3H         LINE#         536
  C:8BF0H         LINE#         540
  -------         ENDPROC       _CMD_LPR_SALIDA_WIEGAND
  -------         PROC          _CALCULO_BCC
  X:0015H         SYMBOL        buffer
  X:0018H         SYMBOL        leng_trama
  -------         DO            
  D:0007H         SYMBOL        bcc
  D:0006H         SYMBOL        j
  -------         ENDDO         
  C:BD7DH         LINE#         542
  C:BD8BH         LINE#         543
  C:BD8BH         LINE#         544
  C:BD8DH         LINE#         547
  C:BD98H         LINE#         548
  C:BD98H         LINE#         549
  C:BDADH         LINE#         550
  C:BDB0H         LINE#         551
  C:BDB0H         LINE#         552
  -------         ENDPROC       _CALCULO_BCC
  -------         ENDMOD        ACCESCAN

  -------         MODULE        CLOCK
  C:0000H         SYMBOL        _ICE_DUMMY_
  C:B942H         PUBLIC        _two_one
  D:0090H         PUBLIC        P1
  C:78D8H         PUBLIC        _validar_clk
  C:BED2H         PUBLIC        _wr_clk
  C:8F31H         PUBLIC        _check_fechaOut
  C:60CAH         PUBLIC        _Block_read_clock_ascii_rasberry
  B:00D0H.7       PUBLIC        CY
  C:0003H         PUBLIC        p_ck
  C:A308H         PUBLIC        _hex_ascii
  C:AF1CH         PUBLIC        _hora_entrada_vehiculo
  X:0219H         PUBLIC        data_clk
  C:C273H         PUBLIC        cond_ini_clock
  C:8FFAH         PUBLIC        _Block_read_Clock
  B:0090H.4       PUBLIC        sck
  C:9C41H         PUBLIC        _Block_read_Clock_Hex
  C:679CH         PUBLIC        _Block_read_clock_ascii
  C:BAA6H         PUBLIC        _hex_bcd
  C:C0E9H         PUBLIC        _bcd_hex
  C:B27AH         PUBLIC        _ByteHex_Decimal
BL51 BANKED LINKER/LOCATER V6.22.2.0                                                  06/11/2021  11:57:45  PAGE 33


  C:A434H         PUBLIC        _lee_clk
  B:0090H.5       PUBLIC        io
  C:9E30H         PUBLIC        _Block_write_clock_ascii
  B:0090H.6       PUBLIC        rst
  C:B9CFH         PUBLIC        _eb_clk
  C:47B8H         PUBLIC        _Two_ByteHex_Decimal
  -------         PROC          P_CK
  C:0003H         LINE#         69
  C:0003H         LINE#         70
  C:0003H         LINE#         71
  C:0005H         LINE#         72
  C:0008H         LINE#         73
  C:000AH         LINE#         74
  -------         ENDPROC       P_CK
  -------         PROC          _EB_CLK
  X:00B4H         SYMBOL        dir_clk
  -------         DO            
  X:00B5H         SYMBOL        nbits
  -------         ENDDO         
  C:B9CFH         LINE#         76
  C:B9D4H         LINE#         78
  C:B9D9H         LINE#         79
  C:B9D9H         LINE#         80
  C:B9E2H         LINE#         81
  C:B9E5H         LINE#         82
  C:B9E5H         LINE#         83
  C:B9E7H         LINE#         84
  C:B9E9H         LINE#         86
  C:B9E9H         LINE#         87
  C:B9EBH         LINE#         88
  C:B9EBH         LINE#         89
  C:B9EEH         LINE#         90
  C:BA0DH         LINE#         91
  -------         ENDPROC       _EB_CLK
  C:A42AH         SYMBOL        L?0084
  -------         PROC          L?0083
  -------         ENDPROC       L?0083
  C:A42AH         SYMBOL        L?0084
  -------         PROC          _LEE_CLK
  X:00B1H         SYMBOL        dir_clk
  -------         DO            
  X:00B2H         SYMBOL        nbits
  -------         ENDDO         
  C:A434H         LINE#         93
  C:A439H         LINE#         95
  C:A43BH         LINE#         96
  C:A442H         LINE#         97
  C:A44AH         LINE#         98
  C:A463H         LINE#         99
  C:A463H         LINE#         100
  C:A466H         LINE#         101
  C:A466H         LINE#         102
  C:A46DH         LINE#         103
  C:A477H         LINE#         104
  C:A47CH         LINE#         105
  C:A47CH         LINE#         106
  C:A47CH         LINE#         107
BL51 BANKED LINKER/LOCATER V6.22.2.0                                                  06/11/2021  11:57:45  PAGE 34


  C:A47FH         LINE#         108
  C:A47FH         LINE#         109
  C:A486H         LINE#         110
  C:A497H         LINE#         111
  C:A497H         LINE#         112
  C:A49FH         LINE#         113
  C:A49FH         LINE#         114
  C:A49FH         LINE#         115
  C:A4A2H         LINE#         116
  C:A4B2H         LINE#         117
  C:A4B4H         LINE#         118
  C:A4B9H         LINE#         119
  -------         ENDPROC       _LEE_CLK
  -------         PROC          _WR_CLK
  X:0018H         SYMBOL        dir_clk
  X:0019H         SYMBOL        byte
  C:BED2H         LINE#         121
  C:BEDAH         LINE#         122
  C:BEDCH         LINE#         123
  C:BEE3H         LINE#         124
  C:BEEBH         LINE#         125
  C:BEF4H         LINE#         126
  C:BEF7H         LINE#         127
  C:BEF9H         LINE#         129
  -------         ENDPROC       _WR_CLK
  C:B90EH         SYMBOL        L?0079
  C:B92CH         SYMBOL        L?0080
  -------         PROC          L?0078
  -------         ENDPROC       L?0078
  C:B90EH         SYMBOL        L?0079
  C:B92CH         SYMBOL        L?0080
  -------         PROC          _TWO_ONE
  D:0007H         SYMBOL        byte_h
  D:0005H         SYMBOL        byte_l
  -------         DO            
  D:0007H         SYMBOL        byte_out
  -------         ENDDO         
  C:B942H         LINE#         131
  C:B942H         LINE#         132
  C:B942H         LINE#         134
  C:B945H         LINE#         135
  C:B949H         LINE#         136
  C:B94CH         LINE#         137
  C:B94EH         LINE#         138
  C:B94EH         LINE#         139
  -------         ENDPROC       _TWO_ONE
  -------         PROC          _VALIDAR_CLK
  D:0001H         SYMBOL        datos_clock
  -------         DO            
  D:0007H         SYMBOL        validador
  -------         ENDDO         
  C:78D8H         LINE#         143
  C:78D8H         LINE#         144
  C:78D8H         LINE#         145
  C:78DAH         LINE#         148
  C:78EFH         LINE#         149
  C:78EFH         LINE#         151
BL51 BANKED LINKER/LOCATER V6.22.2.0                                                  06/11/2021  11:57:45  PAGE 35


  C:7907H         LINE#         152
  C:7907H         LINE#         154
  C:791FH         LINE#         155
  C:791FH         LINE#         156
  C:7937H         LINE#         157
  C:7937H         LINE#         158
  C:794FH         LINE#         159
  C:794FH         LINE#         160
  C:7964H         LINE#         161
  C:7964H         LINE#         162
  C:7976H         LINE#         163
  C:7976H         LINE#         164
  C:7988H         LINE#         165
  C:7988H         LINE#         166
  C:799AH         LINE#         167
  C:799AH         LINE#         168
  C:79ACH         LINE#         169
  C:79ACH         LINE#         170
  C:79BEH         LINE#         171
  C:79BEH         LINE#         172
  C:79CEH         LINE#         173
  C:79CEH         LINE#         174
  C:79CEH         LINE#         175
  C:79CEH         LINE#         176
  C:79CFH         LINE#         178
  C:79CFH         LINE#         179
  C:79D1H         LINE#         180
  C:79D1H         LINE#         181
  C:79D2H         LINE#         183
  C:79D2H         LINE#         184
  C:79D4H         LINE#         186
  C:79D4H         LINE#         187
  C:79D5H         LINE#         189
  C:79D5H         LINE#         190
  C:79D7H         LINE#         192
  C:79D7H         LINE#         194
  C:79D8H         LINE#         196
  C:79D8H         LINE#         197
  C:79DAH         LINE#         199
  C:79DAH         LINE#         200
  C:79DBH         LINE#         202
  C:79DBH         LINE#         203
  C:79DDH         LINE#         205
  C:79DDH         LINE#         206
  C:79DEH         LINE#         208
  C:79DEH         LINE#         209
  C:79E0H         LINE#         211
  C:79E0H         LINE#         212
  C:79E1H         LINE#         214
  C:79E1H         LINE#         215
  C:79E3H         LINE#         217
  C:79E3H         LINE#         218
  C:79E3H         LINE#         220
  C:79E4H         LINE#         222
  C:79E4H         LINE#         223
  C:79E6H         LINE#         225
  C:79E6H         LINE#         227
BL51 BANKED LINKER/LOCATER V6.22.2.0                                                  06/11/2021  11:57:45  PAGE 36


  C:79E7H         LINE#         230
  C:79E7H         LINE#         231
  C:79E9H         LINE#         233
  C:79E9H         LINE#         235
  C:79EAH         LINE#         238
  C:79EAH         LINE#         239
  C:79ECH         LINE#         241
  C:79ECH         LINE#         243
  C:79ECH         LINE#         245
  -------         ENDPROC       _VALIDAR_CLK
  -------         PROC          _BLOCK_WRITE_CLOCK_ASCII
  X:0015H         SYMBOL        datos_clock
  -------         DO            
  D:0007H         SYMBOL        temp
  -------         ENDDO         
  C:9E30H         LINE#         251
  C:9E3BH         LINE#         253
  C:9E3BH         LINE#         256
  C:9E44H         LINE#         257
  C:9E4DH         LINE#         259
  C:9E57H         LINE#         260
  C:9E57H         LINE#         261
  C:9E57H         LINE#         262
  C:9E57H         LINE#         264
  C:9E61H         LINE#         265
  C:9E6BH         LINE#         266
  C:9E75H         LINE#         267
  C:9E75H         LINE#         268
  C:9E75H         LINE#         269
  C:9E75H         LINE#         271
  C:9E7FH         LINE#         272
  C:9E7FH         LINE#         273
  C:9E7FH         LINE#         274
  C:9E7FH         LINE#         276
  C:9E89H         LINE#         277
  C:9E89H         LINE#         278
  C:9E89H         LINE#         279
  C:9E89H         LINE#         281
  C:9E93H         LINE#         282
  C:9E93H         LINE#         283
  C:9E93H         LINE#         284
  C:9E93H         LINE#         286
  C:9E9DH         LINE#         287
  C:9EA7H         LINE#         288
  C:9EB1H         LINE#         289
  C:9EBBH         LINE#         291
  C:9ECBH         LINE#         292
  -------         ENDPROC       _BLOCK_WRITE_CLOCK_ASCII
  -------         PROC          _BCD_HEX
  D:0007H         SYMBOL        l_data
  -------         DO            
  D:0006H         SYMBOL        temp
  D:0005H         SYMBOL        j
  -------         ENDDO         
  C:C0E9H         LINE#         298
  C:C0E9H         LINE#         299
  C:C0E9H         LINE#         301
BL51 BANKED LINKER/LOCATER V6.22.2.0                                                  06/11/2021  11:57:45  PAGE 37


  C:C0EBH         LINE#         302
  C:C0EFH         LINE#         303
  C:C0F2H         LINE#         304
  C:C0F4H         LINE#         305
  C:C0F4H         LINE#         306
  C:C0F8H         LINE#         307
  C:C0FFH         LINE#         308
  C:C0FFH         LINE#         309
  C:C103H         LINE#         310
  C:C106H         LINE#         311
  C:C106H         LINE#         312
  C:C106H         LINE#         313
  -------         ENDPROC       _BCD_HEX
  C:BA97H         SYMBOL        L?0082
  -------         PROC          L?0081
  -------         ENDPROC       L?0081
  C:BA97H         SYMBOL        L?0082
  -------         PROC          _HEX_BCD
  D:0007H         SYMBOL        byte
  -------         DO            
  D:0006H         SYMBOL        nibble_h
  D:0005H         SYMBOL        nibble_l
  D:0004H         SYMBOL        k
  D:0007H         SYMBOL        byte_out
  -------         ENDDO         
  C:BAA6H         LINE#         317
  C:BAA6H         LINE#         318
  C:BAA6H         LINE#         323
  C:BAA8H         LINE#         324
  C:BAA9H         LINE#         326
  C:BAAFH         LINE#         327
  C:BAAFH         LINE#         328
  C:BAB0H         LINE#         329
  C:BAB5H         LINE#         330
  C:BAB5H         LINE#         331
  C:BAB6H         LINE#         332
  C:BAB7H         LINE#         333
  C:BAB7H         LINE#         334
  C:BABAH         LINE#         335
  C:BABEH         LINE#         336
  C:BAC1H         LINE#         337
  C:BAC4H         LINE#         338
  C:BAC6H         LINE#         339
  C:BAC6H         LINE#         341
  -------         ENDPROC       _HEX_BCD
  -------         PROC          _HEX_ASCII
  X:005DH         SYMBOL        datos
  X:0060H         SYMBOL        fecha_asii
  -------         DO            
  D:0007H         SYMBOL        dato
  -------         ENDDO         
  C:A308H         LINE#         342
  C:A313H         LINE#         343
  C:A313H         LINE#         347
  C:A316H         LINE#         348
  C:A32EH         LINE#         349
  C:A343H         LINE#         350
BL51 BANKED LINKER/LOCATER V6.22.2.0                                                  06/11/2021  11:57:45  PAGE 38


  C:A343H         LINE#         352
  C:A346H         LINE#         353
  C:A361H         LINE#         354
  C:A369H         LINE#         355
  C:A369H         LINE#         357
  C:A36CH         LINE#         358
  C:A387H         LINE#         359
  C:A392H         LINE#         361
  -------         ENDPROC       _HEX_ASCII
  -------         PROC          _BYTEHEX_DECIMAL
  D:0001H         SYMBOL        buffer
  D:0005H         SYMBOL        valorhex
  -------         DO            
  X:0015H         SYMBOL        numero
  D:0007H         SYMBOL        centena
  D:0006H         SYMBOL        decena
  -------         ENDDO         
  C:B27AH         LINE#         369
  C:B27AH         LINE#         370
  C:B27AH         LINE#         373
  C:B27CH         LINE#         374
  C:B27DH         LINE#         375
  C:B282H         LINE#         377
  C:B28FH         LINE#         378
  C:B28FH         LINE#         379
  C:B293H         LINE#         380
  C:B294H         LINE#         381
  C:B296H         LINE#         382
  C:B29CH         LINE#         383
  C:B2A3H         LINE#         384
  C:B2B0H         LINE#         385
  C:B2B0H         LINE#         386
  C:B2B4H         LINE#         387
  C:B2B5H         LINE#         388
  C:B2B7H         LINE#         389
  C:B2BDH         LINE#         390
  C:B2C4H         LINE#         391
  C:B2CDH         LINE#         392
  C:B2D4H         LINE#         393
  -------         ENDPROC       _BYTEHEX_DECIMAL
  -------         PROC          _TWO_BYTEHEX_DECIMAL
  X:0015H         SYMBOL        buffer
  X:0018H         SYMBOL        id_h
  X:0019H         SYMBOL        id_l
  -------         DO            
  X:001AH         SYMBOL        valor
  D:0006H         SYMBOL        numero
  X:001CH         SYMBOL        temp
  X:001DH         SYMBOL        dmil
  X:001EH         SYMBOL        mil
  X:001FH         SYMBOL        centena
  X:0020H         SYMBOL        decena
  -------         ENDDO         
  C:47B8H         LINE#         400
  C:47C6H         LINE#         401
  C:47C6H         LINE#         405
  C:47CDH         LINE#         406
BL51 BANKED LINKER/LOCATER V6.22.2.0                                                  06/11/2021  11:57:45  PAGE 39


  C:47D1H         LINE#         407
  C:47D3H         LINE#         408
  C:47D5H         LINE#         409
  C:47D7H         LINE#         412
  C:47DCH         LINE#         413
  C:47DFH         LINE#         414
  C:47E5H         LINE#         416
  C:4840H         LINE#         417
  C:4848H         LINE#         418
  C:484BH         LINE#         419
  C:48A6H         LINE#         421
  C:48AEH         LINE#         422
  C:48B1H         LINE#         423
  C:48B7H         LINE#         424
  C:4912H         LINE#         425
  C:491AH         LINE#         426
  C:491DH         LINE#         427
  C:4978H         LINE#         428
  C:4978H         LINE#         430
  C:4981H         LINE#         431
  C:4981H         LINE#         432
  C:4989H         LINE#         433
  C:498FH         LINE#         434
  C:4991H         LINE#         435
  C:49A7H         LINE#         436
  C:49B1H         LINE#         437
  C:49BAH         LINE#         438
  C:49BAH         LINE#         439
  C:49C2H         LINE#         440
  C:49C8H         LINE#         441
  C:49CAH         LINE#         442
  C:49E0H         LINE#         443
  C:49EAH         LINE#         444
  C:49F3H         LINE#         445
  C:49F3H         LINE#         446
  C:49FBH         LINE#         447
  C:4A01H         LINE#         448
  C:4A03H         LINE#         449
  C:4A19H         LINE#         450
  C:4A23H         LINE#         451
  C:4A2CH         LINE#         452
  C:4A2CH         LINE#         453
  C:4A34H         LINE#         454
  C:4A3AH         LINE#         455
  C:4A3CH         LINE#         456
  C:4A52H         LINE#         457
  C:4A5CH         LINE#         458
  C:4A6FH         LINE#         459
  C:4A79H         LINE#         460
  -------         ENDPROC       _TWO_BYTEHEX_DECIMAL
  -------         PROC          _BLOCK_READ_CLOCK_ASCII
  X:0051H         SYMBOL        datos_clock
  -------         DO            
  D:0007H         SYMBOL        dato
  -------         ENDDO         
  C:679CH         LINE#         466
  C:679FH         LINE#         467
BL51 BANKED LINKER/LOCATER V6.22.2.0                                                  06/11/2021  11:57:45  PAGE 40


  C:679FH         LINE#         473
  C:67A2H         LINE#         474
  C:67BAH         LINE#         475
  C:67C4H         LINE#         476
  C:67D9H         LINE#         477
  C:67E3H         LINE#         480
  C:67E8H         LINE#         481
  C:6800H         LINE#         482
  C:680AH         LINE#         483
  C:681FH         LINE#         484
  C:6829H         LINE#         487
  C:682EH         LINE#         488
  C:6846H         LINE#         489
  C:6850H         LINE#         490
  C:6865H         LINE#         491
  C:686FH         LINE#         495
  C:6874H         LINE#         496
  C:688CH         LINE#         497
  C:6896H         LINE#         498
  C:68ABH         LINE#         499
  C:68B5H         LINE#         502
  C:68BAH         LINE#         503
  C:68D2H         LINE#         504
  C:68DCH         LINE#         505
  C:68F1H         LINE#         506
  C:68FBH         LINE#         507
  -------         ENDPROC       _BLOCK_READ_CLOCK_ASCII
  -------         PROC          _BLOCK_READ_CLOCK_ASCII_RASBERRY
  X:0022H         SYMBOL        datos_clock
  -------         DO            
  D:0007H         SYMBOL        dato
  -------         ENDDO         
  C:60CAH         LINE#         510
  C:60D5H         LINE#         511
  C:60D5H         LINE#         516
  C:60DAH         LINE#         517
  C:60F2H         LINE#         518
  C:60FCH         LINE#         519
  C:6111H         LINE#         520
  C:611BH         LINE#         523
  C:6120H         LINE#         524
  C:6138H         LINE#         525
  C:6142H         LINE#         526
  C:6157H         LINE#         527
  C:6161H         LINE#         531
  C:6166H         LINE#         532
  C:617EH         LINE#         533
  C:6188H         LINE#         534
  C:619DH         LINE#         535
  C:61A7H         LINE#         540
  C:61ACH         LINE#         541
  C:61C4H         LINE#         542
  C:61CEH         LINE#         543
  C:61E3H         LINE#         544
  C:61EDH         LINE#         547
  C:61F2H         LINE#         548
  C:620AH         LINE#         549
BL51 BANKED LINKER/LOCATER V6.22.2.0                                                  06/11/2021  11:57:45  PAGE 41


  C:6214H         LINE#         550
  C:6229H         LINE#         551
  C:6233H         LINE#         552
  C:6243H         LINE#         553
  C:624DH         LINE#         556
  C:6252H         LINE#         557
  C:626AH         LINE#         558
  C:6274H         LINE#         559
  C:6289H         LINE#         561
  C:6293H         LINE#         562
  -------         ENDPROC       _BLOCK_READ_CLOCK_ASCII_RASBERRY
  -------         PROC          _BLOCK_READ_CLOCK_HEX
  X:00AEH         SYMBOL        datos_clock
  C:9C41H         LINE#         566
  C:9C44H         LINE#         567
  C:9C44H         LINE#         570
  C:9C59H         LINE#         571
  C:9C63H         LINE#         573
  C:9C7AH         LINE#         574
  C:9C84H         LINE#         576
  C:9C9BH         LINE#         577
  C:9CA5H         LINE#         579
  C:9CBCH         LINE#         580
  C:9CC6H         LINE#         582
  C:9CDDH         LINE#         583
  -------         ENDPROC       _BLOCK_READ_CLOCK_HEX
  -------         PROC          _HORA_ENTRADA_VEHICULO
  X:0005H         SYMBOL        Atributos_Expedidor
  C:AF1CH         LINE#         586
  C:AF1FH         LINE#         587
  C:AF1FH         LINE#         589
  C:AF34H         LINE#         590
  C:AF4BH         LINE#         591
  C:AF62H         LINE#         592
  C:AF79H         LINE#         593
  -------         ENDPROC       _HORA_ENTRADA_VEHICULO
  -------         PROC          _BLOCK_READ_CLOCK
  X:0022H         SYMBOL        datos_clock
  C:8FFAH         LINE#         599
  C:8FFDH         LINE#         600
  C:8FFDH         LINE#         602
  C:900FH         LINE#         603
  C:9019H         LINE#         605
  C:902DH         LINE#         606
  C:9037H         LINE#         608
  C:904BH         LINE#         609
  C:9055H         LINE#         611
  C:9069H         LINE#         612
  C:9073H         LINE#         614
  C:9087H         LINE#         615
  C:9091H         LINE#         617
  C:90A5H         LINE#         618
  C:90AFH         LINE#         619
  -------         ENDPROC       _BLOCK_READ_CLOCK
  -------         PROC          COND_INI_CLOCK
  C:C273H         LINE#         622
  C:C273H         LINE#         623
BL51 BANKED LINKER/LOCATER V6.22.2.0                                                  06/11/2021  11:57:45  PAGE 42


  C:C273H         LINE#         624
  C:C275H         LINE#         625
  C:C277H         LINE#         626
  C:C279H         LINE#         627
  -------         ENDPROC       COND_INI_CLOCK
  -------         PROC          _CHECK_FECHAOUT
  X:009CH         SYMBOL        buffer
  -------         DO            
  X:009FH         SYMBOL        fecha_inicio
  X:00A3H         SYMBOL        fecha_fin
  X:00A7H         SYMBOL        datos_clk
  X:00ADH         SYMBOL        temp
  -------         ENDDO         
  C:8F31H         LINE#         637
  C:8F3CH         LINE#         638
  C:8F3CH         LINE#         644
  C:8F45H         LINE#         645
  C:8F74H         LINE#         646
  C:8FC7H         LINE#         649
  C:8FE7H         LINE#         650
  C:8FE7H         LINE#         651
  C:8FEDH         LINE#         652
  C:8FEFH         LINE#         654
  C:8FEFH         LINE#         655
  C:8FF4H         LINE#         656
  C:8FF4H         LINE#         660
  C:8FF9H         LINE#         661
  -------         ENDPROC       _CHECK_FECHAOUT
  -------         ENDMOD        CLOCK

  -------         MODULE        DELAY
  C:0000H         SYMBOL        _ICE_DUMMY_
  C:BC2FH         PUBLIC        _Delay_10ms
  C:C1A6H         PUBLIC        _Delay_20us
  C:C107H         PUBLIC        _Delay_1ms
  C:C2BEH         PUBLIC        Delay
  -------         PROC          _DELAY_20US
  D:0006H         SYMBOL        cntd_us
  -------         DO            
  D:0004H         SYMBOL        i
  -------         ENDDO         
  C:C1A6H         LINE#         20
  C:C1A6H         LINE#         21
  C:C1A6H         LINE#         24
  C:C1B0H         LINE#         26
  C:C1B7H         LINE#         27
  -------         ENDPROC       _DELAY_20US
  -------         PROC          _DELAY_1MS
  D:0002H         SYMBOL        cntd_ms
  -------         DO            
  D:0082H         SYMBOL        i
  -------         ENDDO         
  C:C107H         LINE#         38
  C:C10BH         LINE#         39
  C:C10BH         LINE#         41
  C:C121H         LINE#         42
  -------         ENDPROC       _DELAY_1MS
BL51 BANKED LINKER/LOCATER V6.22.2.0                                                  06/11/2021  11:57:45  PAGE 43


  -------         PROC          _DELAY_10MS
  X:001CH         SYMBOL        cntd_10ms
  -------         DO            
  X:001EH         SYMBOL        i
  -------         ENDDO         
  C:BC2FH         LINE#         54
  C:BC37H         LINE#         55
  C:BC37H         LINE#         57
  C:BC68H         LINE#         58
  -------         ENDPROC       _DELAY_10MS
  -------         PROC          DELAY
  C:C2BEH         LINE#         60
  C:C2BEH         LINE#         62
  -------         ENDPROC       DELAY
  -------         ENDMOD        DELAY

  -------         MODULE        EEPROM
  C:0000H         SYMBOL        _ICE_DUMMY_
  D:0090H         PUBLIC        P1
  C:84E8H         PUBLIC        _Write_EEprom_Ticket
  C:B001H         PUBLIC        _EscribirMemoria
  X:020DH         PUBLIC        l_chr
  C:C06EH         PUBLIC        ackd
  B:0021H.6       PUBLIC        memory_flag
  B:00D0H.7       PUBLIC        CY
  C:C2ABH         PUBLIC        p_me
  C:C1C0H         PUBLIC        start
  B:0090H.2       PUBLIC        sda
  C:C08EH         PUBLIC        ack_lect
  B:0090H.3       PUBLIC        scl
  C:BACBH         PUBLIC        _rd_eeprom
  C:C24DH         PUBLIC        stop
  C:BCDBH         PUBLIC        Formato_eeprom
  X:020EH         PUBLIC        l_data_eeprom
  C:B403H         PUBLIC        _wr_eeprom
  C:B1B2H         PUBLIC        _LeerMemoria
  C:BDB1H         PUBLIC        Incremente_Ticket
  X:020FH         PUBLIC        byte_rd
  C:8E67H         PUBLIC        Read_EEprom_Ticket
  C:C006H         PUBLIC        _e_d_m
  C:8CD0H         PUBLIC        _graba_serie
  C:B530H         PUBLIC        Lee_No_Ticket
  C:B4E3H         PUBLIC        l_d_m
  -------         PROC          L?0062
  -------         ENDPROC       L?0062
  -------         PROC          ACKD
  -------         DO            
  D:0006H         SYMBOL        i
  -------         ENDDO         
  C:C06EH         LINE#         37
  C:C06EH         LINE#         38
  C:C06EH         LINE#         40
  C:C070H         LINE#         41
  C:C072H         LINE#         42
  C:C074H         LINE#         43
  C:C077H         LINE#         44
  C:C077H         LINE#         45
BL51 BANKED LINKER/LOCATER V6.22.2.0                                                  06/11/2021  11:57:45  PAGE 44


  C:C07AH         LINE#         46
  C:C07AH         LINE#         47
  C:C07CH         LINE#         48
  C:C07EH         LINE#         50
  C:C07FH         LINE#         51
  C:C07FH         LINE#         52
  C:C08AH         LINE#         54
  C:C08AH         LINE#         55
  C:C08AH         LINE#         57
  C:C08AH         LINE#         58
  -------         ENDPROC       ACKD
  -------         PROC          L?0066
  -------         ENDPROC       L?0066
  -------         PROC          ACK_LECT
  -------         DO            
  D:0006H         SYMBOL        i
  -------         ENDDO         
  C:C08EH         LINE#         61
  C:C08EH         LINE#         62
  C:C08EH         LINE#         64
  C:C090H         LINE#         65
  C:C092H         LINE#         66
  C:C094H         LINE#         67
  C:C097H         LINE#         68
  C:C097H         LINE#         69
  C:C09AH         LINE#         70
  C:C09AH         LINE#         71
  C:C09CH         LINE#         72
  C:C09EH         LINE#         73
  C:C09FH         LINE#         74
  C:C09FH         LINE#         75
  C:C0AAH         LINE#         76
  -------         ENDPROC       ACK_LECT
  -------         PROC          P_ME
  C:C2ABH         LINE#         78
  C:C2ABH         LINE#         79
  C:C2ABH         LINE#         80
  C:C2ADH         LINE#         81
  C:C2AEH         LINE#         82
  C:C2B0H         LINE#         83
  -------         ENDPROC       P_ME
  -------         PROC          _E_D_M
  D:0007H         SYMBOL        a_serial_eeprom
  -------         DO            
  D:0006H         SYMBOL        nbits
  -------         ENDDO         
  C:C006H         LINE#         85
  C:C006H         LINE#         86
  C:C006H         LINE#         88
  C:C012H         LINE#         89
  C:C012H         LINE#         90
  C:C016H         LINE#         91
  C:C019H         LINE#         92
  C:C019H         LINE#         93
  C:C01BH         LINE#         94
  C:C01DH         LINE#         96
  C:C01DH         LINE#         97
BL51 BANKED LINKER/LOCATER V6.22.2.0                                                  06/11/2021  11:57:45  PAGE 45


  C:C01FH         LINE#         98
  C:C01FH         LINE#         99
  C:C021H         LINE#         100
  C:C024H         LINE#         101
  C:C027H         LINE#         103
  -------         ENDPROC       _E_D_M
  -------         PROC          L?0063
  -------         ENDPROC       L?0063
  -------         PROC          START
  C:C1C0H         LINE#         105
  C:C1C0H         LINE#         106
  C:C1C0H         LINE#         107
  C:C1C2H         LINE#         108
  C:C1C4H         LINE#         109
  C:C1C5H         LINE#         110
  C:C1C7H         LINE#         111
  C:C1C9H         LINE#         113
  -------         ENDPROC       START
  -------         PROC          STOP
  C:C24DH         LINE#         115
  C:C24DH         LINE#         116
  C:C24DH         LINE#         117
  C:C24FH         LINE#         118
  C:C251H         LINE#         119
  C:C252H         LINE#         120
  C:C254H         LINE#         121
  C:C256H         LINE#         123
  -------         ENDPROC       STOP
  -------         PROC          L_D_M
  -------         DO            
  D:0003H         SYMBOL        nbits
  -------         ENDDO         
  C:B4E3H         LINE#         125
  C:B4E3H         LINE#         126
  C:B4E3H         LINE#         128
  C:B4F0H         LINE#         129
  C:B4F0H         LINE#         130
  C:B4F2H         LINE#         131
  C:B4F5H         LINE#         132
  C:B4F5H         LINE#         133
  C:B4FCH         LINE#         134
  C:B505H         LINE#         135
  C:B505H         LINE#         136
  C:B509H         LINE#         137
  C:B50BH         LINE#         138
  C:B50BH         LINE#         139
  C:B50BH         LINE#         140
  C:B50EH         LINE#         141
  C:B50EH         LINE#         142
  C:B515H         LINE#         143
  C:B51FH         LINE#         144
  C:B51FH         LINE#         145
  C:B523H         LINE#         146
  C:B525H         LINE#         147
  C:B525H         LINE#         148
  C:B525H         LINE#         149
  C:B528H         LINE#         150
BL51 BANKED LINKER/LOCATER V6.22.2.0                                                  06/11/2021  11:57:45  PAGE 46


  C:B52AH         LINE#         151
  C:B52FH         LINE#         152
  -------         ENDPROC       L_D_M
  -------         PROC          L?0061
  -------         ENDPROC       L?0061
  -------         PROC          _WR_EEPROM
  D:0002H         SYMBOL        control
  D:0004H         SYMBOL        Dir
  D:0003H         SYMBOL        data_eeprom
  -------         DO            
  D:0005H         SYMBOL        dir_h
  D:0001H         SYMBOL        dir_l
  -------         ENDDO         
  C:B403H         LINE#         158
  C:B405H         LINE#         159
  C:B405H         LINE#         161
  C:B409H         LINE#         162
  C:B409H         LINE#         163
  C:B409H         LINE#         166
  C:B409H         LINE#         167
  C:B409H         LINE#         169
  C:B40CH         LINE#         170
  C:B40EH         LINE#         171
  C:B411H         LINE#         172
  C:B413H         LINE#         173
  C:B416H         LINE#         174
  C:B41BH         LINE#         175
  C:B41EH         LINE#         176
  C:B423H         LINE#         177
  C:B426H         LINE#         178
  C:B429H         LINE#         179
  C:B430H         LINE#         181
  C:B432H         LINE#         182
  C:B434H         LINE#         183
  C:B43BH         LINE#         184
  -------         ENDPROC       _WR_EEPROM
  C:BAC7H         SYMBOL        L?0065
  -------         PROC          L?0064
  -------         ENDPROC       L?0064
  C:BAC7H         SYMBOL        L?0065
  -------         PROC          _RD_EEPROM
  D:0003H         SYMBOL        control
  D:0004H         SYMBOL        Dir
  -------         DO            
  D:0005H         SYMBOL        dir_h
  D:0002H         SYMBOL        dir_l
  -------         ENDDO         
  C:BACBH         LINE#         222
  C:BACDH         LINE#         223
  C:BACDH         LINE#         226
  C:BAD1H         LINE#         227
  C:BAD1H         LINE#         228
  C:BAD1H         LINE#         230
  C:BAD1H         LINE#         231
  C:BAD1H         LINE#         233
  C:BAD4H         LINE#         234
  C:BAD6H         LINE#         235
BL51 BANKED LINKER/LOCATER V6.22.2.0                                                  06/11/2021  11:57:45  PAGE 47


  C:BAD9H         LINE#         236
  C:BADBH         LINE#         237
  C:BADEH         LINE#         238
  C:BAE3H         LINE#         239
  C:BAE6H         LINE#         240
  C:BAE9H         LINE#         241
  C:BAEFH         LINE#         242
  C:BAF2H         LINE#         243
  C:BAF4H         LINE#         244
  C:BAF7H         LINE#         245
  C:BAFAH         LINE#         246
  C:BAFCH         LINE#         247
  C:BAFEH         LINE#         248
  C:BB03H         LINE#         249
  -------         ENDPROC       _RD_EEPROM
  -------         PROC          _GRABA_SERIE
  X:0015H         SYMBOL        buffer
  -------         DO            
  X:0018H         SYMBOL        j
  X:0019H         SYMBOL        error
  -------         ENDDO         
  C:8CD0H         LINE#         256
  C:8CDBH         LINE#         257
  C:8CDBH         LINE#         260
  C:8CE0H         LINE#         265
  C:8CF2H         LINE#         267
  C:8D05H         LINE#         268
  C:8D05H         LINE#         269
  C:8D2EH         LINE#         270
  C:8D2EH         LINE#         271
  C:8D34H         LINE#         273
  C:8D3DH         LINE#         274
  C:8D4BH         LINE#         275
  C:8D54H         LINE#         276
  C:8D54H         LINE#         278
  C:8D5CH         LINE#         282
  C:8D62H         LINE#         283
  C:8D62H         LINE#         284
  C:8D70H         LINE#         286
  C:8D70H         LINE#         288
  C:8D70H         LINE#         289
  C:8D7AH         LINE#         290
  C:8D85H         LINE#         291
  C:8D90H         LINE#         292
  C:8D9BH         LINE#         294
  C:8D9BH         LINE#         295
  -------         ENDPROC       _GRABA_SERIE
  -------         PROC          _WRITE_EEPROM_TICKET
  X:001AH         SYMBOL        buffer
  -------         DO            
  X:001DH         SYMBOL        cod_3
  X:001EH         SYMBOL        cod_2
  X:001FH         SYMBOL        cod_1
  X:0020H         SYMBOL        cod_0
  X:0021H         SYMBOL        Noticket
  D:0004H         SYMBOL        Bnoticket
  -------         ENDDO         
BL51 BANKED LINKER/LOCATER V6.22.2.0                                                  06/11/2021  11:57:45  PAGE 48


  C:84E8H         LINE#         296
  C:84F3H         LINE#         297
  C:84F3H         LINE#         299
  C:84FBH         LINE#         300
  C:8504H         LINE#         301
  C:8512H         LINE#         302
  C:851BH         LINE#         303
  C:852FH         LINE#         305
  C:8538H         LINE#         306
  C:854BH         LINE#         307
  C:8550H         LINE#         308
  C:8553H         LINE#         310
  C:8566H         LINE#         311
  C:856BH         LINE#         312
  C:856EH         LINE#         314
  C:8581H         LINE#         315
  C:8586H         LINE#         316
  C:8589H         LINE#         318
  C:8595H         LINE#         319
  C:8598H         LINE#         320
  C:85A1H         LINE#         322
  C:85AFH         LINE#         323
  C:85BDH         LINE#         324
  C:85CBH         LINE#         325
  -------         ENDPROC       _WRITE_EEPROM_TICKET
  -------         PROC          LEE_NO_TICKET
  -------         DO            
  D:0004H         SYMBOL        Noticket
  X:0059H         SYMBOL        Lee_No_Ticket
  D:0007H         SYMBOL        num_chr
  -------         ENDDO         
  C:B530H         LINE#         330
  C:B530H         LINE#         331
  C:B530H         LINE#         335
  C:B533H         LINE#         336
  C:B54EH         LINE#         337
  C:B557H         LINE#         338
  C:B563H         LINE#         339
  C:B56CH         LINE#         340
  C:B575H         LINE#         341
  C:B57BH         LINE#         342
  -------         ENDPROC       LEE_NO_TICKET
  -------         PROC          READ_EEPROM_TICKET
  -------         DO            
  D:0001H         SYMBOL        cod3
  X:0064H         SYMBOL        cod2
  X:0065H         SYMBOL        cod1
  X:0066H         SYMBOL        cod0
  X:0067H         SYMBOL        Noticket
  -------         ENDDO         
  C:8E67H         LINE#         346
  C:8E67H         LINE#         347
  C:8E67H         LINE#         349
  C:8E71H         LINE#         350
  C:8E78H         LINE#         351
  C:8E82H         LINE#         352
  C:8E90H         LINE#         353
BL51 BANKED LINKER/LOCATER V6.22.2.0                                                  06/11/2021  11:57:45  PAGE 49


  C:8E9AH         LINE#         355
  C:8EBAH         LINE#         356
  C:8EDFH         LINE#         357
  C:8F04H         LINE#         358
  C:8F22H         LINE#         359
  C:8F30H         LINE#         360
  -------         ENDPROC       READ_EEPROM_TICKET
  -------         PROC          INCREMENTE_TICKET
  -------         DO            
  D:0004H         SYMBOL        Noticket
  X:0009H         SYMBOL        Lee_No_Ticket
  -------         ENDDO         
  C:BDB1H         LINE#         364
  C:BDB1H         LINE#         365
  C:BDB1H         LINE#         369
  C:BDB4H         LINE#         370
  C:BDC1H         LINE#         371
  C:BDDCH         LINE#         372
  -------         ENDPROC       INCREMENTE_TICKET
  -------         PROC          _LEERMEMORIA
  X:009CH         SYMBOL        addres
  X:009EH         SYMBOL        res
  -------         DO            
  D:0007H         SYMBOL        i
  -------         ENDDO         
  C:B1B2H         LINE#         378
  C:B1C3H         LINE#         379
  C:B1C3H         LINE#         381
  C:B1C3H         LINE#         382
  C:B1DFH         LINE#         383
  C:B1EEH         LINE#         384
  C:B1FCH         LINE#         385
  C:B206H         LINE#         386
  C:B209H         LINE#         387
  -------         ENDPROC       _LEERMEMORIA
  -------         PROC          _ESCRIBIRMEMORIA
  X:005DH         SYMBOL        addres
  X:005FH         SYMBOL        res
  C:B001H         LINE#         389
  C:B012H         LINE#         390
  C:B012H         LINE#         393
  C:B022H         LINE#         394
  C:B029H         LINE#         395
  C:B02CH         LINE#         397
  C:B03AH         LINE#         398
  C:B044H         LINE#         399
  C:B046H         LINE#         400
  C:B049H         LINE#         401
  C:B057H         LINE#         402
  C:B061H         LINE#         403
  -------         ENDPROC       _ESCRIBIRMEMORIA
  -------         PROC          FORMATO_EEPROM
  -------         DO            
  X:0015H         SYMBOL        dato
  X:0016H         SYMBOL        i
  -------         ENDDO         
  C:BCDBH         LINE#         406
BL51 BANKED LINKER/LOCATER V6.22.2.0                                                  06/11/2021  11:57:45  PAGE 50


  C:BCDBH         LINE#         407
  C:BCDBH         LINE#         408
  C:BCE1H         LINE#         410
  C:BCF6H         LINE#         411
  C:BCF6H         LINE#         412
  C:BD00H         LINE#         413
  C:BD10H         LINE#         414
  -------         ENDPROC       FORMATO_EEPROM
  -------         ENDMOD        EEPROM

  -------         MODULE        IO_SENSORES
  C:0000H         SYMBOL        _ICE_DUMMY_
  D:0090H         PUBLIC        P1
  D:00B0H         PUBLIC        P3
  C:B848H         PUBLIC        Dir_board
  B:0021H.7       PUBLIC        PULSADOR_BOTTON
  C:C288H         PUBLIC        sel_Pulsa
  B:0090H.1       PUBLIC        DataIn
  C:C168H         PUBLIC        Dir_Board_Monitor
  C:C281H         PUBLIC        sel_Auto
  C:BCA3H         PUBLIC        ValidaSensoresPaso
  B:00B0H.3       PUBLIC        busy
  C:C0ABH         PUBLIC        ValidaSensor
  C:C296H         PUBLIC        sel_Sensor1
  C:C28FH         PUBLIC        sel_Sensor2
  C:C028H         PUBLIC        ValidaSensor_cero
  C:B391H         PUBLIC        Valida_Sensor1_Auto
  B:00B0H.5       PUBLIC        sel_A
  B:00B0H.6       PUBLIC        sel_B
  B:00B0H.7       PUBLIC        sel_C
  C:9993H         PUBLIC        msj_lcd_informativo
  C:C29DH         PUBLIC        sel_Dir1
  C:C2A4H         PUBLIC        sel_Dir2
  C:C1CAH         PUBLIC        Botton
  C:C27AH         PUBLIC        sel_Funcion
  -------         PROC          SEL_FUNCION
  C:C27AH         LINE#         34
  C:C27AH         LINE#         35
  C:C27AH         LINE#         36
  C:C27CH         LINE#         37
  C:C27EH         LINE#         38
  C:C280H         LINE#         39
  -------         ENDPROC       SEL_FUNCION
  -------         PROC          SEL_AUTO
  C:C281H         LINE#         41
  C:C281H         LINE#         42
  C:C281H         LINE#         43
  C:C283H         LINE#         44
  C:C285H         LINE#         45
  C:C287H         LINE#         46
  -------         ENDPROC       SEL_AUTO
  -------         PROC          SEL_PULSA
  C:C288H         LINE#         48
  C:C288H         LINE#         49
  C:C288H         LINE#         50
  C:C28AH         LINE#         51
  C:C28CH         LINE#         52
BL51 BANKED LINKER/LOCATER V6.22.2.0                                                  06/11/2021  11:57:45  PAGE 51


  C:C28EH         LINE#         53
  -------         ENDPROC       SEL_PULSA
  -------         PROC          SEL_SENSOR2
  C:C28FH         LINE#         56
  C:C28FH         LINE#         57
  C:C28FH         LINE#         58
  C:C291H         LINE#         59
  C:C293H         LINE#         60
  C:C295H         LINE#         61
  -------         ENDPROC       SEL_SENSOR2
  -------         PROC          SEL_SENSOR1
  C:C296H         LINE#         63
  C:C296H         LINE#         64
  C:C296H         LINE#         65
  C:C298H         LINE#         66
  C:C29AH         LINE#         67
  C:C29CH         LINE#         68
  -------         ENDPROC       SEL_SENSOR1
  -------         PROC          SEL_DIR1
  C:C29DH         LINE#         70
  C:C29DH         LINE#         71
  C:C29DH         LINE#         72
  C:C29FH         LINE#         73
  C:C2A1H         LINE#         74
  C:C2A3H         LINE#         75
  -------         ENDPROC       SEL_DIR1
  -------         PROC          SEL_DIR2
  C:C2A4H         LINE#         77
  C:C2A4H         LINE#         78
  C:C2A4H         LINE#         79
  C:C2A6H         LINE#         80
  C:C2A8H         LINE#         81
  C:C2AAH         LINE#         82
  -------         ENDPROC       SEL_DIR2
  -------         PROC          BOTTON
  C:C1CAH         LINE#         83
  C:C1CAH         LINE#         84
  C:C1CAH         LINE#         85
  C:C1CDH         LINE#         86
  C:C1D0H         LINE#         87
  C:C1D0H         LINE#         88
  C:C1D9H         LINE#         89
  C:C1DBH         LINE#         90
  C:C1DBH         LINE#         92
  -------         ENDPROC       BOTTON
  -------         PROC          VALIDASENSOR
  -------         DO            
  D:0007H         SYMBOL        Valido
  D:0004H         SYMBOL        Tmin
  -------         ENDDO         
  C:C0ABH         LINE#         94
  C:C0ABH         LINE#         95
  C:C0ABH         LINE#         97
  C:C0ADH         LINE#         98
  C:C0B1H         LINE#         99
  C:C0BCH         LINE#         100
  C:C0BCH         LINE#         101
BL51 BANKED LINKER/LOCATER V6.22.2.0                                                  06/11/2021  11:57:45  PAGE 52


  C:C0C1H         LINE#         102
  C:C0C5H         LINE#         103
  C:C0C5H         LINE#         104
  C:C0C7H         LINE#         105
  C:C0C7H         LINE#         106
  C:C0C9H         LINE#         107
  C:C0C9H         LINE#         108
  -------         ENDPROC       VALIDASENSOR
  -------         PROC          VALIDASENSOR_CERO
  -------         DO            
  D:0007H         SYMBOL        Valido
  D:0004H         SYMBOL        Tmin
  -------         ENDDO         
  C:C028H         LINE#         109
  C:C028H         LINE#         110
  C:C028H         LINE#         112
  C:C02AH         LINE#         113
  C:C02EH         LINE#         114
  C:C03DH         LINE#         115
  C:C03DH         LINE#         116
  C:C042H         LINE#         117
  C:C046H         LINE#         118
  C:C046H         LINE#         119
  C:C047H         LINE#         120
  C:C047H         LINE#         121
  C:C049H         LINE#         122
  C:C049H         LINE#         123
  -------         ENDPROC       VALIDASENSOR_CERO
  -------         PROC          DIR_BOARD
  -------         DO            
  X:0037H         SYMBOL        Board
  D:0007H         SYMBOL        Board_High
  -------         ENDDO         
  C:B848H         LINE#         127
  C:B848H         LINE#         128
  C:B848H         LINE#         129
  C:B84EH         LINE#         131
  C:B851H         LINE#         132
  C:B854H         LINE#         133
  C:B854H         LINE#         134
  C:B857H         LINE#         135
  C:B857H         LINE#         136
  C:B85AH         LINE#         137
  C:B85DH         LINE#         138
  C:B85DH         LINE#         139
  C:B864H         LINE#         140
  C:B864H         LINE#         141
  C:B86CH         LINE#         142
  C:B86CH         LINE#         143
  C:B874H         LINE#         145
  C:B877H         LINE#         146
  C:B877H         LINE#         147
  C:B87DH         LINE#         148
  C:B87DH         LINE#         149
  C:B87FH         LINE#         150
  C:B881H         LINE#         151
  C:B883H         LINE#         152
BL51 BANKED LINKER/LOCATER V6.22.2.0                                                  06/11/2021  11:57:45  PAGE 53


  C:B883H         LINE#         154
  C:B883H         LINE#         155
  C:B88AH         LINE#         156
  -------         ENDPROC       DIR_BOARD
  -------         PROC          DIR_BOARD_MONITOR
  -------         DO            
  D:0007H         SYMBOL        Board_High
  -------         ENDDO         
  C:C168H         LINE#         157
  C:C168H         LINE#         158
  C:C168H         LINE#         161
  C:C171H         LINE#         162
  C:C174H         LINE#         163
  C:C174H         LINE#         164
  C:C177H         LINE#         165
  C:C177H         LINE#         166
  C:C179H         LINE#         167
  C:C179H         LINE#         168
  C:C179H         LINE#         169
  C:C17DH         LINE#         170
  -------         ENDPROC       DIR_BOARD_MONITOR
  -------         PROC          VALIDA_SENSOR1_AUTO
  -------         DO            
  X:0016H         SYMBOL        sensor
  -------         ENDDO         
  C:B391H         LINE#         174
  C:B391H         LINE#         175
  C:B391H         LINE#         177
  C:B394H         LINE#         178
  C:B397H         LINE#         179
  C:B39AH         LINE#         180
  C:B39FH         LINE#         181
  C:B39FH         LINE#         182
  C:B3A6H         LINE#         183
  C:B3AAH         LINE#         184
  C:B3AAH         LINE#         185
  C:B3AAH         LINE#         186
  C:B3ACH         LINE#         188
  C:B3ACH         LINE#         189
  C:B3B3H         LINE#         190
  C:B3B8H         LINE#         191
  C:B3B8H         LINE#         192
  C:B3B8H         LINE#         193
  C:B3B8H         LINE#         196
  C:B3BAH         LINE#         198
  C:B3BDH         LINE#         199
  C:B3C2H         LINE#         200
  C:B3C2H         LINE#         202
  C:B3C9H         LINE#         203
  C:B3CFH         LINE#         204
  C:B3D5H         LINE#         205
  C:B3D8H         LINE#         206
  C:B3DAH         LINE#         208
  C:B3DAH         LINE#         209
  C:B3E1H         LINE#         210
  C:B3E6H         LINE#         211
  C:B3E6H         LINE#         214
BL51 BANKED LINKER/LOCATER V6.22.2.0                                                  06/11/2021  11:57:45  PAGE 54


  C:B3E6H         LINE#         216
  C:B3EBH         LINE#         217
  -------         ENDPROC       VALIDA_SENSOR1_AUTO
  -------         PROC          VALIDASENSORESPASO
  -------         DO            
  X:0015H         SYMBOL        sensor
  -------         ENDDO         
  C:BCA3H         LINE#         222
  C:BCA3H         LINE#         223
  C:BCA3H         LINE#         225
  C:BCA6H         LINE#         226
  C:BCA9H         LINE#         227
  C:BCA9H         LINE#         228
  C:BCB7H         LINE#         229
  C:BCB7H         LINE#         230
  C:BCBFH         LINE#         232
  C:BCC1H         LINE#         234
  C:BCC1H         LINE#         235
  C:BCC7H         LINE#         236
  C:BCC9H         LINE#         237
  C:BCC9H         LINE#         238
  C:BCC9H         LINE#         239
  C:BCC9H         LINE#         240
  C:BCD2H         LINE#         241
  C:BCD5H         LINE#         242
  C:BCD5H         LINE#         243
  C:BCDAH         LINE#         244
  -------         ENDPROC       VALIDASENSORESPASO
  -------         PROC          MSJ_LCD_INFORMATIVO
  -------         DO            
  X:0216H         SYMBOL        contador
  X:0001H         SYMBOL        info
  X:0217H         SYMBOL        toggle
  -------         ENDDO         
  C:9993H         LINE#         257
  C:9993H         LINE#         258
  C:9993H         LINE#         260
  C:9998H         LINE#         262
  C:999EH         LINE#         263
  C:99ABH         LINE#         264
  C:99ABH         LINE#         266
  C:99ADH         LINE#         267
  C:99B0H         LINE#         268
  C:99BCH         LINE#         269
  C:99BCH         LINE#         270
  C:99C6H         LINE#         271
  C:99C6H         LINE#         273
  C:99CFH         LINE#         274
  C:99D7H         LINE#         275
  C:99DFH         LINE#         276
  C:99EBH         LINE#         277
  C:99EBH         LINE#         279
  C:99EEH         LINE#         280
  C:99EEH         LINE#         281
  C:99F0H         LINE#         282
  C:99F3H         LINE#         283
  C:99F9H         LINE#         284
BL51 BANKED LINKER/LOCATER V6.22.2.0                                                  06/11/2021  11:57:45  PAGE 55


  C:99F9H         LINE#         285
  C:9A07H         LINE#         286
  C:9A07H         LINE#         287
  C:9A0DH         LINE#         288
  C:9A0DH         LINE#         289
  C:9A0FH         LINE#         290
  C:9A1DH         LINE#         291
  C:9A1DH         LINE#         292
  C:9A26H         LINE#         293
  C:9A29H         LINE#         294
  C:9A29H         LINE#         295
  C:9A2EH         LINE#         296
  C:9A31H         LINE#         297
  C:9A36H         LINE#         298
  C:9A36H         LINE#         299
  C:9A36H         LINE#         300
  C:9A36H         LINE#         301
  C:9A36H         LINE#         302
  C:9A39H         LINE#         303
  C:9A3CH         LINE#         304
  C:9A3CH         LINE#         305
  C:9A41H         LINE#         306
  C:9A41H         LINE#         307
  C:9A41H         LINE#         308
  -------         ENDPROC       MSJ_LCD_INFORMATIVO
  -------         ENDMOD        IO_SENSORES

  -------         MODULE        PANTALLAS
  C:0000H         SYMBOL        _ICE_DUMMY_
  D:0080H         PUBLIC        P0
  C:ADACH         PUBLIC        Reloj_Pantalla_Lcd
  C:2790H         PUBLIC        _PantallaLCD
  C:B80CH         PUBLIC        _LCD_txt
  C:AAB2H         PUBLIC        _Raspberry_data
  C:BF53H         PUBLIC        _tx_chrlcd
  C:3585H         SYMBOL        _?ix1000
  C:358BH         SYMBOL        _?ix1001
  C:3591H         SYMBOL        _?ix1002
  C:35B9H         SYMBOL        _?ix1003
  C:B778H         PUBLIC        _LCD_txt_num_char
  C:4D3FH         PUBLIC        _PantallaLCD_LINEA_2
  B:0098H.4       PUBLIC        REN
  B:0080H.7       PUBLIC        sel_com
  -------         PROC          _PANTALLALCD
  X:002AH         SYMBOL        cod_msg
  -------         DO            
  X:002BH         SYMBOL        Ini_LCD_Line_one
  X:0031H         SYMBOL        num_chr
  X:0032H         SYMBOL        msjpantalla
  -------         ENDDO         
  C:2790H         LINE#         96
  C:2795H         LINE#         97
  C:2795H         LINE#         99
  C:27A8H         LINE#         104
  C:27AFH         LINE#         108
  C:27B1H         LINE#         110
  C:27BAH         LINE#         111
BL51 BANKED LINKER/LOCATER V6.22.2.0                                                  06/11/2021  11:57:45  PAGE 56


  C:27BAH         LINE#         112
  C:27C4H         LINE#         114
  C:2820H         LINE#         115
  C:2820H         LINE#         117
  C:2820H         LINE#         118
  C:282EH         LINE#         119
  C:2834H         LINE#         120
  C:2837H         LINE#         121
  C:283DH         LINE#         122
  C:2840H         LINE#         124
  C:2840H         LINE#         126
  C:284EH         LINE#         127
  C:2854H         LINE#         128
  C:2857H         LINE#         129
  C:285DH         LINE#         130
  C:2860H         LINE#         132
  C:2860H         LINE#         134
  C:286EH         LINE#         135
  C:2874H         LINE#         136
  C:2877H         LINE#         137
  C:287DH         LINE#         138
  C:2880H         LINE#         139
  C:2880H         LINE#         140
  C:288EH         LINE#         141
  C:2894H         LINE#         142
  C:2897H         LINE#         143
  C:289DH         LINE#         144
  C:28A0H         LINE#         145
  C:28A0H         LINE#         146
  C:28AEH         LINE#         147
  C:28B4H         LINE#         148
  C:28B7H         LINE#         149
  C:28BDH         LINE#         150
  C:28C0H         LINE#         151
  C:28C0H         LINE#         152
  C:28CEH         LINE#         153
  C:28D4H         LINE#         154
  C:28D7H         LINE#         155
  C:28DDH         LINE#         156
  C:28E0H         LINE#         157
  C:28E0H         LINE#         159
  C:28EEH         LINE#         160
  C:28F4H         LINE#         161
  C:28F7H         LINE#         162
  C:28FDH         LINE#         163
  C:2900H         LINE#         164
  C:2900H         LINE#         170
  C:2900H         LINE#         171
  C:290EH         LINE#         172
  C:2914H         LINE#         173
  C:2917H         LINE#         174
  C:291DH         LINE#         175
  C:2920H         LINE#         176
  C:2920H         LINE#         177
  C:292EH         LINE#         178
  C:2934H         LINE#         179
  C:2937H         LINE#         180
BL51 BANKED LINKER/LOCATER V6.22.2.0                                                  06/11/2021  11:57:45  PAGE 57


  C:293DH         LINE#         181
  C:2940H         LINE#         183
  C:2940H         LINE#         184
  C:294EH         LINE#         185
  C:2954H         LINE#         186
  C:2957H         LINE#         187
  C:295DH         LINE#         188
  C:2960H         LINE#         190
  C:2960H         LINE#         191
  C:296EH         LINE#         192
  C:2974H         LINE#         193
  C:2977H         LINE#         194
  C:297DH         LINE#         195
  C:2980H         LINE#         200
  C:2980H         LINE#         202
  C:298EH         LINE#         203
  C:2994H         LINE#         204
  C:2997H         LINE#         205
  C:299DH         LINE#         206
  C:29A0H         LINE#         208
  C:29A0H         LINE#         210
  C:29AEH         LINE#         211
  C:29B4H         LINE#         212
  C:29B7H         LINE#         213
  C:29BDH         LINE#         214
  C:29C0H         LINE#         216
  C:29C0H         LINE#         217
  C:29CEH         LINE#         218
  C:29D4H         LINE#         219
  C:29D7H         LINE#         220
  C:29DDH         LINE#         221
  C:29E0H         LINE#         223
  C:29E0H         LINE#         225
  C:29EEH         LINE#         226
  C:29F4H         LINE#         227
  C:29F7H         LINE#         228
  C:29FDH         LINE#         229
  C:2A00H         LINE#         231
  C:2A00H         LINE#         233
  C:2A0EH         LINE#         234
  C:2A14H         LINE#         235
  C:2A17H         LINE#         236
  C:2A1DH         LINE#         237
  C:2A20H         LINE#         239
  C:2A20H         LINE#         240
  C:2A2EH         LINE#         241
  C:2A34H         LINE#         242
  C:2A37H         LINE#         243
  C:2A3DH         LINE#         244
  C:2A40H         LINE#         246
  C:2A40H         LINE#         247
  C:2A4EH         LINE#         248
  C:2A54H         LINE#         249
  C:2A57H         LINE#         250
  C:2A5DH         LINE#         251
  C:2A60H         LINE#         253
  C:2A60H         LINE#         255
BL51 BANKED LINKER/LOCATER V6.22.2.0                                                  06/11/2021  11:57:45  PAGE 58


  C:2A6EH         LINE#         256
  C:2A74H         LINE#         257
  C:2A77H         LINE#         258
  C:2A7DH         LINE#         259
  C:2A80H         LINE#         261
  C:2A80H         LINE#         262
  C:2A8EH         LINE#         263
  C:2A94H         LINE#         264
  C:2A97H         LINE#         265
  C:2A9DH         LINE#         266
  C:2AA0H         LINE#         267
  C:2AA0H         LINE#         268
  C:2AAEH         LINE#         269
  C:2AB4H         LINE#         270
  C:2AB7H         LINE#         271
  C:2ABDH         LINE#         272
  C:2AC0H         LINE#         273
  C:2AC0H         LINE#         274
  C:2ACEH         LINE#         275
  C:2AD4H         LINE#         276
  C:2AD7H         LINE#         277
  C:2ADDH         LINE#         278
  C:2AE0H         LINE#         279
  C:2AE0H         LINE#         280
  C:2AEEH         LINE#         281
  C:2AF1H         LINE#         282
  C:2AF7H         LINE#         283
  C:2AF9H         LINE#         287
  C:2AF9H         LINE#         288
  C:2B07H         LINE#         289
  C:2B0DH         LINE#         290
  C:2B10H         LINE#         291
  C:2B16H         LINE#         292
  C:2B18H         LINE#         293
  C:2B18H         LINE#         294
  C:2B26H         LINE#         295
  C:2B2CH         LINE#         296
  C:2B2FH         LINE#         297
  C:2B35H         LINE#         298
  C:2B37H         LINE#         299
  C:2B37H         LINE#         300
  C:2B45H         LINE#         301
  C:2B4BH         LINE#         302
  C:2B4EH         LINE#         303
  C:2B59H         LINE#         304
  C:2B59H         LINE#         313
  C:2B59H         LINE#         315
  C:2B59H         LINE#         316
  C:2B59H         LINE#         317
  C:2B5BH         LINE#         319
  C:2B5CH         LINE#         321
  C:2B5CH         LINE#         322
  C:2B5EH         LINE#         323
  C:2BCCH         LINE#         324
  C:2BCCH         LINE#         327
  C:2BCCH         LINE#         328
  C:2BE0H         LINE#         329
BL51 BANKED LINKER/LOCATER V6.22.2.0                                                  06/11/2021  11:57:45  PAGE 59


  C:2BE0H         LINE#         331
  C:2BE3H         LINE#         332
  C:2BE3H         LINE#         335
  C:2BF7H         LINE#         336
  C:2BF7H         LINE#         337
  C:2BFAH         LINE#         339
  C:2BFAH         LINE#         340
  C:2C0EH         LINE#         341
  C:2C0EH         LINE#         343
  C:2C11H         LINE#         344
  C:2C11H         LINE#         345
  C:2C25H         LINE#         346
  C:2C25H         LINE#         348
  C:2C28H         LINE#         349
  C:2C28H         LINE#         350
  C:2C3CH         LINE#         351
  C:2C3CH         LINE#         353
  C:2C3FH         LINE#         354
  C:2C3FH         LINE#         355
  C:2C53H         LINE#         356
  C:2C53H         LINE#         358
  C:2C56H         LINE#         359
  C:2C56H         LINE#         360
  C:2C6AH         LINE#         361
  C:2C6AH         LINE#         363
  C:2C6DH         LINE#         364
  C:2C6DH         LINE#         365
  C:2C81H         LINE#         366
  C:2C81H         LINE#         368
  C:2C84H         LINE#         369
  C:2C84H         LINE#         370
  C:2C98H         LINE#         371
  C:2C98H         LINE#         373
  C:2C9BH         LINE#         374
  C:2C9BH         LINE#         375
  C:2CAFH         LINE#         376
  C:2CAFH         LINE#         378
  C:2CB2H         LINE#         380
  C:2CB2H         LINE#         381
  C:2CC6H         LINE#         382
  C:2CC6H         LINE#         384
  C:2CC9H         LINE#         386
  C:2CC9H         LINE#         387
  C:2CDDH         LINE#         388
  C:2CDDH         LINE#         390
  C:2CE0H         LINE#         392
  C:2CE0H         LINE#         393
  C:2CF4H         LINE#         394
  C:2CF4H         LINE#         396
  C:2CF7H         LINE#         400
  C:2CF7H         LINE#         401
  C:2D0BH         LINE#         402
  C:2D0BH         LINE#         404
  C:2D0EH         LINE#         406
  C:2D0EH         LINE#         407
  C:2D22H         LINE#         408
  C:2D22H         LINE#         410
BL51 BANKED LINKER/LOCATER V6.22.2.0                                                  06/11/2021  11:57:45  PAGE 60


  C:2D25H         LINE#         412
  C:2D25H         LINE#         413
  C:2D39H         LINE#         414
  C:2D39H         LINE#         417
  C:2D3CH         LINE#         418
  C:2D3CH         LINE#         419
  C:2D50H         LINE#         420
  C:2D50H         LINE#         422
  C:2D53H         LINE#         423
  C:2D53H         LINE#         424
  C:2D67H         LINE#         425
  C:2D67H         LINE#         427
  C:2D6AH         LINE#         428
  C:2D6AH         LINE#         429
  C:2D7EH         LINE#         430
  C:2D7EH         LINE#         432
  C:2D81H         LINE#         433
  C:2D81H         LINE#         434
  C:2D95H         LINE#         435
  C:2D95H         LINE#         437
  C:2D98H         LINE#         439
  C:2D98H         LINE#         440
  C:2DACH         LINE#         441
  C:2DACH         LINE#         443
  C:2DAFH         LINE#         445
  C:2DAFH         LINE#         446
  C:2DC3H         LINE#         447
  C:2DC3H         LINE#         449
  C:2DC6H         LINE#         450
  C:2DC6H         LINE#         451
  C:2DDAH         LINE#         452
  C:2DDAH         LINE#         454
  C:2DDDH         LINE#         455
  C:2DDDH         LINE#         456
  C:2DF1H         LINE#         457
  C:2DF1H         LINE#         459
  C:2DF4H         LINE#         460
  C:2DF4H         LINE#         461
  C:2E08H         LINE#         462
  C:2E08H         LINE#         464
  C:2E0BH         LINE#         466
  C:2E0BH         LINE#         467
  C:2E1FH         LINE#         468
  C:2E1FH         LINE#         470
  C:2E22H         LINE#         471
  C:2E22H         LINE#         472
  C:2E36H         LINE#         473
  C:2E36H         LINE#         475
  C:2E39H         LINE#         476
  C:2E39H         LINE#         477
  C:2E4DH         LINE#         478
  C:2E4DH         LINE#         480
  C:2E4FH         LINE#         482
  C:2E4FH         LINE#         483
  C:2E63H         LINE#         484
  C:2E63H         LINE#         486
  C:2E65H         LINE#         489
BL51 BANKED LINKER/LOCATER V6.22.2.0                                                  06/11/2021  11:57:45  PAGE 61


  C:2E65H         LINE#         490
  C:2E79H         LINE#         491
  C:2E79H         LINE#         493
  C:2E7BH         LINE#         494
  C:2E7BH         LINE#         495
  C:2E8FH         LINE#         496
  C:2E8FH         LINE#         498
  C:2E91H         LINE#         499
  C:2E91H         LINE#         500
  C:2EA5H         LINE#         501
  C:2EA5H         LINE#         502
  C:2EA7H         LINE#         504
  C:2EA7H         LINE#         505
  C:2EBEH         LINE#         506
  C:2ECDH         LINE#         507
  C:2ECDH         LINE#         512
  C:2ECDH         LINE#         513
  C:2ECDH         LINE#         514
  C:2ECDH         LINE#         516
  C:2ED4H         LINE#         517
  C:2ED6H         LINE#         518
  C:2ED6H         LINE#         522
  -------         ENDPROC       _PANTALLALCD
  -------         PROC          _PANTALLALCD_LINEA_2
  X:0015H         SYMBOL        cod_msg
  X:0016H         SYMBOL        buffer
  -------         DO            
  X:0019H         SYMBOL        Ini_LCD_Line_one
  X:001FH         SYMBOL        num_chr
  X:0020H         SYMBOL        msjpantalla
  -------         ENDDO         
  C:4D3FH         LINE#         523
  C:4D4DH         LINE#         524
  C:4D4DH         LINE#         526
  C:4D60H         LINE#         528
  C:4D73H         LINE#         535
  C:4D75H         LINE#         537
  C:4D7EH         LINE#         538
  C:4D7EH         LINE#         541
  C:4D8CH         LINE#         542
  C:4D8CH         LINE#         544
  C:4D8CH         LINE#         545
  C:4D8FH         LINE#         546
  C:4D9DH         LINE#         547
  C:4DB2H         LINE#         548
  C:4DB8H         LINE#         549
  C:4DBEH         LINE#         550
  C:4DC4H         LINE#         551
  C:4DC4H         LINE#         552
  C:4DC6H         LINE#         553
  C:4DC6H         LINE#         554
  C:4DC9H         LINE#         555
  C:4DD7H         LINE#         556
  C:4DECH         LINE#         557
  C:4DF2H         LINE#         558
  C:4DF8H         LINE#         559
  C:4E03H         LINE#         560
BL51 BANKED LINKER/LOCATER V6.22.2.0                                                  06/11/2021  11:57:45  PAGE 62


  C:4E13H         LINE#         561
  C:4E13H         LINE#         565
  C:4E13H         LINE#         567
  C:4E13H         LINE#         569
  C:4E13H         LINE#         570
  C:4E15H         LINE#         571
  C:4E16H         LINE#         573
  C:4E16H         LINE#         574
  C:4E18H         LINE#         576
  C:4E40H         LINE#         577
  C:4E40H         LINE#         578
  C:4E40H         LINE#         581
  C:4E4CH         LINE#         583
  C:4E4CH         LINE#         585
  C:4E4CH         LINE#         588
  C:4E4CH         LINE#         591
  C:4E4FH         LINE#         593
  C:4E4FH         LINE#         594
  C:4E5BH         LINE#         595
  C:4E5BH         LINE#         596
  C:4E5BH         LINE#         597
  C:4E5BH         LINE#         598
  C:4E5BH         LINE#         599
  C:4E5BH         LINE#         601
  C:4E5EH         LINE#         602
  C:4E5EH         LINE#         604
  C:4E6AH         LINE#         605
  C:4E6DH         LINE#         606
  C:4E70H         LINE#         607
  C:4E70H         LINE#         609
  C:4E79H         LINE#         611
  C:4E79H         LINE#         612
  C:4E7BH         LINE#         614
  C:4E7BH         LINE#         616
  C:4E8CH         LINE#         618
  C:4E8FH         LINE#         620
  C:4E8FH         LINE#         621
  C:4E9AH         LINE#         622
  C:4E9AH         LINE#         623
  C:4EA1H         LINE#         625
  C:4EB7H         LINE#         627
  C:4ECEH         LINE#         628
  C:4ED1H         LINE#         630
  C:4ED1H         LINE#         631
  C:4ED8H         LINE#         633
  C:4ED8H         LINE#         634
  C:4ED8H         LINE#         637
  C:4EDBH         LINE#         638
  C:4EDBH         LINE#         639
  C:4EEAH         LINE#         640
  C:4F08H         LINE#         641
  C:4F1FH         LINE#         643
  C:4F1FH         LINE#         645
  C:4F22H         LINE#         646
  C:4F22H         LINE#         647
  C:4F31H         LINE#         648
  C:4F44H         LINE#         649
BL51 BANKED LINKER/LOCATER V6.22.2.0                                                  06/11/2021  11:57:45  PAGE 63


  C:4F5EH         LINE#         650
  C:4F7CH         LINE#         651
  C:4F93H         LINE#         652
  C:4F93H         LINE#         654
  C:4F95H         LINE#         655
  C:4F95H         LINE#         656
  C:4FA4H         LINE#         657
  C:4FC2H         LINE#         658
  C:4FD9H         LINE#         659
  C:4FDCH         LINE#         660
  C:4FDCH         LINE#         661
  C:4FDCH         LINE#         663
  C:4FDCH         LINE#         664
  C:4FDCH         LINE#         666
  C:4FE1H         LINE#         667
  C:4FE3H         LINE#         668
  C:4FE3H         LINE#         669
  -------         ENDPROC       _PANTALLALCD_LINEA_2
  C:BF4AH         SYMBOL        L?0176
  C:BF4DH         SYMBOL        L?0177
  C:BF4EH         SYMBOL        L?0178
  -------         PROC          L?0175
  -------         ENDPROC       L?0175
  C:BF4AH         SYMBOL        L?0176
  C:BF4DH         SYMBOL        L?0177
  C:BF4EH         SYMBOL        L?0178
  -------         PROC          _TX_CHRLCD
  D:0007H         SYMBOL        data_com
  X:004DH         SYMBOL        enable_char_add
  -------         DO            
  X:004EH         SYMBOL        d
  -------         ENDDO         
  C:BF53H         LINE#         675
  C:BF58H         LINE#         676
  C:BF58H         LINE#         678
  C:BF60H         LINE#         679
  C:BF70H         LINE#         681
  -------         ENDPROC       _TX_CHRLCD
  -------         PROC          L?0181
  -------         ENDPROC       L?0181
  -------         PROC          _LCD_TXT
  X:0048H         SYMBOL        msg
  X:004BH         SYMBOL        enable_char_add
  -------         DO            
  X:004CH         SYMBOL        i
  -------         ENDDO         
  C:B80CH         LINE#         688
  C:B81AH         LINE#         689
  C:B81AH         LINE#         692
  C:B837H         LINE#         693
  C:B837H         LINE#         694
  C:B83FH         LINE#         695
  C:B847H         LINE#         696
  -------         ENDPROC       _LCD_TXT
  -------         PROC          _LCD_TXT_NUM_CHAR
  X:0022H         SYMBOL        msg
  X:0025H         SYMBOL        length_char
BL51 BANKED LINKER/LOCATER V6.22.2.0                                                  06/11/2021  11:57:45  PAGE 64


  X:0026H         SYMBOL        enable_char_add
  -------         DO            
  X:0027H         SYMBOL        i
  -------         ENDDO         
  C:B778H         LINE#         703
  C:B786H         LINE#         704
  C:B786H         LINE#         707
  C:B799H         LINE#         708
  C:B799H         LINE#         709
  C:B7B5H         LINE#         710
  C:B7BDH         LINE#         711
  -------         ENDPROC       _LCD_TXT_NUM_CHAR
  C:AAACH         SYMBOL        L?0180
  -------         PROC          L?0179
  -------         ENDPROC       L?0179
  C:AAACH         SYMBOL        L?0180
  -------         PROC          _RASPBERRY_DATA
  X:0048H         SYMBOL        msjpantalla
  -------         DO            
  X:004BH         SYMBOL        i
  X:004CH         SYMBOL        lenth_cadena
  X:004DH         SYMBOL        d
  -------         ENDDO         
  C:AAB2H         LINE#         713
  C:AABDH         LINE#         714
  C:AABDH         LINE#         721
  C:AAC5H         LINE#         723
  C:AAD7H         LINE#         724
  C:AAD7H         LINE#         726
  C:AAE9H         LINE#         727
  C:AAE9H         LINE#         728
  C:AAEEH         LINE#         729
  C:AB0CH         LINE#         731
  C:AB14H         LINE#         734
  C:AB26H         LINE#         735
  C:AB26H         LINE#         737
  C:AB2BH         LINE#         739
  -------         ENDPROC       _RASPBERRY_DATA
  -------         PROC          RELOJ_PANTALLA_LCD
  -------         DO            
  X:0015H         SYMBOL        Ini_Clock_LCD
  -------         ENDDO         
  C:ADACH         LINE#         747
  C:ADACH         LINE#         748
  C:ADACH         LINE#         750
  C:ADBFH         LINE#         752
  C:ADC5H         LINE#         753
  C:ADC5H         LINE#         754
  C:ADC7H         LINE#         755
  C:ADD0H         LINE#         759
  C:ADD2H         LINE#         760
  C:ADE2H         LINE#         762
  C:ADE4H         LINE#         763
  C:ADE6H         LINE#         765
  C:ADE7H         LINE#         767
  C:ADE7H         LINE#         768
  C:ADE9H         LINE#         769
BL51 BANKED LINKER/LOCATER V6.22.2.0                                                  06/11/2021  11:57:45  PAGE 65


  C:ADEEH         LINE#         770
  C:ADFDH         LINE#         772
  C:AE06H         LINE#         773
  C:AE1DH         LINE#         774
  C:AE26H         LINE#         777
  C:AE28H         LINE#         778
  C:AE28H         LINE#         779
  -------         ENDPROC       RELOJ_PANTALLA_LCD
  -------         ENDMOD        PANTALLAS

  -------         MODULE        PROG
  C:0000H         SYMBOL        _ICE_DUMMY_
  C:5B0BH         PUBLIC        Prog_fecha_vencimiento
  C:6D0CH         PUBLIC        Prog_Sin_Cobro
  C:77BFH         PUBLIC        _Ver_Horario_Desde_Hasta
  C:7D08H         PUBLIC        Prog_debug
  C:7FFCH         PUBLIC        Prog_AntiPassBack
  C:A4CDH         PUBLIC        _GetOption
  X:01B8H         PUBLIC        validacion
  C:81F4H         PUBLIC        Prog_Validar_Tipo_Vehiculo_Mensual
  X:01C3H         PUBLIC        cursor
  C:76A5H         PUBLIC        _Prog_Horarios_on_off
  C:A13EH         PUBLIC        Show
  C:4439H         PUBLIC        Ver_Prog
  C:BDE5H         PUBLIC        Addr_Horarios
  C:9774H         PUBLIC        prog_id_cliente
  C:B893H         PUBLIC        _ValidarClave
  C:54DDH         PUBLIC        menu
  C:7E04H         PUBLIC        Prog_Use_Lpr
  C:B218H         PUBLIC        _ListaComandos
  C:1311H         SYMBOL        _?ix1000
  C:131CH         SYMBOL        _?ix1001
  C:132CH         SYMBOL        _?ix1002
  C:133CH         SYMBOL        _?ix1003
  C:1340H         SYMBOL        _?ix1004
  C:6BC7H         PUBLIC        Prog_Horarios
  C:1344H         SYMBOL        _?ix1005
  C:82F0H         PUBLIC        Prog_Apb_Mensual
  C:9245H         PUBLIC        Prog_tarjeta_automatica_o_boton
  C:5709H         PUBLIC        _hash_id
  C:4A88H         PUBLIC        _Prog_Horario_dias
  C:9543H         PUBLIC        Prog_tiempo_gracia
  C:ABB5H         PUBLIC        _IngresaDato
  X:01D7H         PUBLIC        comandos
  C:B65CH         PUBLIC        First_Clave
  C:C13AH         PUBLIC        DisplayCursor
  C:80F8H         PUBLIC        Prog_Placa
  C:9486H         PUBLIC        prog_cod_park
  C:70C4H         PUBLIC        Ver_Horario
  C:757DH         PUBLIC        _Ver_Horario_dias
  C:5911H         PUBLIC        _Prog_Horario_Desde_Hasta
  C:7F00H         PUBLIC        tipo_pantalla
  C:8897H         PUBLIC        Prog_Address_High_Board
  C:B955H         PUBLIC        _GetCMD
  -------         PROC          _HASH_ID
  X:005DH         SYMBOL        clave
  -------         DO            
BL51 BANKED LINKER/LOCATER V6.22.2.0                                                  06/11/2021  11:57:45  PAGE 66


  X:0060H         SYMBOL        len_clave
  X:0061H         SYMBOL        i
  X:01B4H         SYMBOL        temp
  X:01B6H         SYMBOL        temp1
  X:0062H         SYMBOL        aleatorio
  X:006DH         SYMBOL        suma
  X:007DH         SYMBOL        xxor
  X:008DH         SYMBOL        usuario1
  X:0098H         SYMBOL        vencimiento_password
  -------         ENDDO         
  C:5709H         LINE#         122
  C:5714H         LINE#         123
  C:5714H         LINE#         126
  C:5727H         LINE#         128
  C:573AH         LINE#         129
  C:574DH         LINE#         133
  C:575AH         LINE#         134
  C:5776H         LINE#         136
  C:5776H         LINE#         137
  C:577AH         LINE#         138
  C:577CH         LINE#         140
  C:577CH         LINE#         141
  C:5783H         LINE#         142
  C:5783H         LINE#         143
  C:5796H         LINE#         144
  C:57AAH         LINE#         145
  C:57AAH         LINE#         146
  C:57D6H         LINE#         147
  C:57E1H         LINE#         148
  C:57EEH         LINE#         149
  C:580CH         LINE#         150
  C:5817H         LINE#         151
  C:5824H         LINE#         152
  C:5848H         LINE#         153
  C:5850H         LINE#         154
  C:5850H         LINE#         155
  C:5855H         LINE#         156
  C:5855H         LINE#         157
  C:586EH         LINE#         158
  C:586EH         LINE#         159
  C:587AH         LINE#         161
  C:587AH         LINE#         162
  C:5889H         LINE#         163
  C:5889H         LINE#         164
  C:5895H         LINE#         165
  C:5895H         LINE#         166
  C:58AEH         LINE#         167
  C:58AEH         LINE#         168
  C:58B9H         LINE#         169
  C:58B9H         LINE#         170
  C:58D2H         LINE#         171
  C:58D2H         LINE#         172
  C:58DDH         LINE#         173
  C:58DDH         LINE#         174
  C:58F2H         LINE#         176
  C:58FBH         LINE#         177
  C:590AH         LINE#         179
BL51 BANKED LINKER/LOCATER V6.22.2.0                                                  06/11/2021  11:57:45  PAGE 67


  C:5910H         LINE#         180
  -------         ENDPROC       _HASH_ID
  -------         PROC          _LISTACOMANDOS
  X:0046H         SYMBOL        cmd
  -------         DO            
  X:0049H         SYMBOL        buf
  X:004CH         SYMBOL        i
  -------         ENDDO         
  C:B218H         LINE#         187
  C:B223H         LINE#         188
  C:B223H         LINE#         192
  C:B236H         LINE#         193
  C:B236H         LINE#         194
  C:B24EH         LINE#         195
  C:B269H         LINE#         196
  C:B26FH         LINE#         197
  C:B277H         LINE#         199
  C:B279H         LINE#         200
  -------         ENDPROC       _LISTACOMANDOS
  -------         PROC          L?0274
  -------         ENDPROC       L?0274
  -------         PROC          _VALIDARCLAVE
  X:005DH         SYMBOL        buffer
  -------         DO            
  X:0060H         SYMBOL        buf
  -------         ENDDO         
  C:B893H         LINE#         206
  C:B89EH         LINE#         207
  C:B89EH         LINE#         210
  C:B8ADH         LINE#         211
  C:B8C8H         LINE#         212
  C:B8CAH         LINE#         215
  C:B8CCH         LINE#         216
  -------         ENDPROC       _VALIDARCLAVE
  -------         PROC          L?0275
  -------         ENDPROC       L?0275
  -------         PROC          _GETCMD
  X:005DH         SYMBOL        in
  -------         DO            
  X:0060H         SYMBOL        tokens
  -------         ENDDO         
  C:B955H         LINE#         223
  C:B960H         LINE#         224
  C:B960H         LINE#         225
  C:B973H         LINE#         226
  -------         ENDPROC       _GETCMD
  -------         PROC          L?0273
  -------         ENDPROC       L?0273
  -------         PROC          _GETOPTION
  X:0046H         SYMBOL        in
  -------         DO            
  X:0049H         SYMBOL        tokensSpace
  X:004DH         SYMBOL        tokensQuote
  -------         ENDDO         
  C:A4CDH         LINE#         232
  C:A4D8H         LINE#         233
  C:A4D8H         LINE#         234
BL51 BANKED LINKER/LOCATER V6.22.2.0                                                  06/11/2021  11:57:45  PAGE 68


  C:A4EBH         LINE#         235
  C:A4FEH         LINE#         238
  C:A510H         LINE#         239
  C:A51CH         LINE#         242
  C:A523H         LINE#         243
  C:A530H         LINE#         245
  C:A549H         LINE#         246
  -------         ENDPROC       _GETOPTION
  -------         PROC          DISPLAYCURSOR
  C:C13AH         LINE#         251
  C:C13AH         LINE#         252
  C:C13AH         LINE#         253
  -------         ENDPROC       DISPLAYCURSOR
  C:ABB1H         SYMBOL        L?0272
  -------         PROC          L?0271
  -------         ENDPROC       L?0271
  C:ABB1H         SYMBOL        L?0272
  -------         PROC          _INGRESADATO
  X:0071H         SYMBOL        buffer
  X:0074H         SYMBOL        modo
  -------         DO            
  D:0006H         SYMBOL        i
  -------         ENDDO         
  C:ABB5H         LINE#         260
  C:ABC3H         LINE#         261
  C:ABC3H         LINE#         266
  C:ABC3H         LINE#         267
  C:ABD5H         LINE#         268
  C:ABDBH         LINE#         269
  C:ABDBH         LINE#         270
  C:ABF6H         LINE#         271
  C:ABF8H         LINE#         273
  C:ABF8H         LINE#         274
  C:ABFDH         LINE#         275
  C:ABFDH         LINE#         276
  C:AC0EH         LINE#         277
  C:AC18H         LINE#         278
  C:AC27H         LINE#         280
  C:AC2CH         LINE#         284
  -------         ENDPROC       _INGRESADATO
  -------         PROC          PROG_ID_CLIENTE
  -------         DO            
  X:0046H         SYMBOL        buffer
  X:0050H         SYMBOL        dataee
  -------         ENDDO         
  C:9774H         LINE#         301
  C:9774H         LINE#         302
  C:9774H         LINE#         306
  C:9786H         LINE#         307
  C:97A3H         LINE#         309
  C:97BAH         LINE#         311
  C:97C3H         LINE#         312
  C:97CAH         LINE#         313
  C:97DBH         LINE#         314
  C:97E4H         LINE#         316
  C:97F6H         LINE#         317
  C:9813H         LINE#         318
BL51 BANKED LINKER/LOCATER V6.22.2.0                                                  06/11/2021  11:57:45  PAGE 69


  -------         ENDPROC       PROG_ID_CLIENTE
  -------         PROC          PROG_COD_PARK
  -------         DO            
  X:0046H         SYMBOL        buffer
  X:0050H         SYMBOL        dataee
  -------         ENDDO         
  C:9486H         LINE#         323
  C:9486H         LINE#         324
  C:9486H         LINE#         328
  C:9499H         LINE#         329
  C:94B6H         LINE#         331
  C:94CDH         LINE#         333
  C:94D6H         LINE#         334
  C:94E1H         LINE#         335
  C:94F2H         LINE#         336
  C:94FCH         LINE#         338
  C:950FH         LINE#         339
  C:952CH         LINE#         340
  -------         ENDPROC       PROG_COD_PARK
  -------         PROC          PROG_TIEMPO_GRACIA
  -------         DO            
  X:0046H         SYMBOL        buffer
  X:0050H         SYMBOL        dataee
  -------         ENDDO         
  C:9543H         LINE#         345
  C:9543H         LINE#         346
  C:9543H         LINE#         350
  C:9556H         LINE#         351
  C:9573H         LINE#         353
  C:958AH         LINE#         355
  C:9593H         LINE#         356
  C:959EH         LINE#         357
  C:95AFH         LINE#         358
  C:95B9H         LINE#         360
  C:95CCH         LINE#         361
  C:95E9H         LINE#         362
  -------         ENDPROC       PROG_TIEMPO_GRACIA
  -------         PROC          PROG_SIN_COBRO
  -------         DO            
  X:0046H         SYMBOL        buffer
  X:0050H         SYMBOL        dataee
  -------         ENDDO         
  C:6D0CH         LINE#         368
  C:6D0CH         LINE#         369
  C:6D0CH         LINE#         375
  C:6D1FH         LINE#         376
  C:6D3CH         LINE#         377
  C:6D46H         LINE#         378
  C:6D46H         LINE#         379
  C:6D59H         LINE#         380
  C:6D5BH         LINE#         381
  C:6D67H         LINE#         382
  C:6D67H         LINE#         383
  C:6D7AH         LINE#         384
  C:6D7CH         LINE#         386
  C:6D7CH         LINE#         387
  C:6D93H         LINE#         388
BL51 BANKED LINKER/LOCATER V6.22.2.0                                                  06/11/2021  11:57:45  PAGE 70


  C:6D93H         LINE#         390
  C:6D9CH         LINE#         391
  C:6DA7H         LINE#         392
  C:6DB8H         LINE#         393
  C:6DC2H         LINE#         395
  C:6DD5H         LINE#         396
  C:6DF2H         LINE#         397
  C:6DFCH         LINE#         398
  C:6DFCH         LINE#         399
  C:6E0FH         LINE#         400
  C:6E11H         LINE#         401
  C:6E1DH         LINE#         402
  C:6E1DH         LINE#         403
  C:6E30H         LINE#         404
  C:6E32H         LINE#         406
  C:6E32H         LINE#         407
  C:6E49H         LINE#         408
  C:6E49H         LINE#         410
  -------         ENDPROC       PROG_SIN_COBRO
  -------         PROC          PROG_DEBUG
  -------         DO            
  X:0046H         SYMBOL        buffer
  X:0050H         SYMBOL        dataee
  -------         ENDDO         
  C:7D08H         LINE#         416
  C:7D08H         LINE#         417
  C:7D08H         LINE#         422
  C:7D1BH         LINE#         423
  C:7D38H         LINE#         424
  C:7D42H         LINE#         425
  C:7D42H         LINE#         426
  C:7D55H         LINE#         427
  C:7D57H         LINE#         429
  C:7D57H         LINE#         430
  C:7D6EH         LINE#         431
  C:7D6EH         LINE#         433
  C:7D77H         LINE#         434
  C:7D82H         LINE#         435
  C:7D93H         LINE#         436
  C:7D9DH         LINE#         438
  C:7DB0H         LINE#         439
  C:7DCDH         LINE#         440
  C:7DD7H         LINE#         441
  C:7DD7H         LINE#         442
  C:7DEAH         LINE#         443
  C:7DECH         LINE#         445
  C:7DECH         LINE#         446
  C:7E03H         LINE#         447
  C:7E03H         LINE#         448
  -------         ENDPROC       PROG_DEBUG
  -------         PROC          PROG_USE_LPR
  -------         DO            
  X:0046H         SYMBOL        buffer
  X:0050H         SYMBOL        dataee
  -------         ENDDO         
  C:7E04H         LINE#         453
  C:7E04H         LINE#         454
BL51 BANKED LINKER/LOCATER V6.22.2.0                                                  06/11/2021  11:57:45  PAGE 71


  C:7E04H         LINE#         459
  C:7E17H         LINE#         460
  C:7E34H         LINE#         461
  C:7E3EH         LINE#         462
  C:7E3EH         LINE#         463
  C:7E51H         LINE#         464
  C:7E53H         LINE#         466
  C:7E53H         LINE#         467
  C:7E6AH         LINE#         468
  C:7E6AH         LINE#         470
  C:7E73H         LINE#         471
  C:7E7EH         LINE#         472
  C:7E8FH         LINE#         473
  C:7E99H         LINE#         475
  C:7EACH         LINE#         476
  C:7EC9H         LINE#         477
  C:7ED3H         LINE#         478
  C:7ED3H         LINE#         479
  C:7EE6H         LINE#         480
  C:7EE8H         LINE#         482
  C:7EE8H         LINE#         483
  C:7EFFH         LINE#         484
  C:7EFFH         LINE#         485
  -------         ENDPROC       PROG_USE_LPR
  -------         PROC          TIPO_PANTALLA
  -------         DO            
  X:0046H         SYMBOL        buffer
  X:0050H         SYMBOL        dataee
  -------         ENDDO         
  C:7F00H         LINE#         492
  C:7F00H         LINE#         493
  C:7F00H         LINE#         498
  C:7F13H         LINE#         499
  C:7F30H         LINE#         500
  C:7F3AH         LINE#         501
  C:7F3AH         LINE#         502
  C:7F4DH         LINE#         503
  C:7F4FH         LINE#         505
  C:7F4FH         LINE#         506
  C:7F66H         LINE#         507
  C:7F66H         LINE#         509
  C:7F6FH         LINE#         510
  C:7F7AH         LINE#         511
  C:7F8BH         LINE#         512
  C:7F95H         LINE#         514
  C:7FA8H         LINE#         515
  C:7FC5H         LINE#         516
  C:7FCFH         LINE#         517
  C:7FCFH         LINE#         518
  C:7FE2H         LINE#         519
  C:7FE4H         LINE#         521
  C:7FE4H         LINE#         522
  C:7FFBH         LINE#         523
  C:7FFBH         LINE#         525
  -------         ENDPROC       TIPO_PANTALLA
  -------         PROC          PROG_TARJETA_AUTOMATICA_O_BOTON
  -------         DO            
BL51 BANKED LINKER/LOCATER V6.22.2.0                                                  06/11/2021  11:57:45  PAGE 72


  X:0046H         SYMBOL        buffer
  X:0050H         SYMBOL        dataee
  -------         ENDDO         
  C:9245H         LINE#         526
  C:9245H         LINE#         527
  C:9245H         LINE#         532
  C:9258H         LINE#         533
  C:9275H         LINE#         534
  C:9281H         LINE#         535
  C:9281H         LINE#         536
  C:9285H         LINE#         537
  C:9287H         LINE#         539
  C:9287H         LINE#         540
  C:928EH         LINE#         541
  C:928EH         LINE#         543
  C:9297H         LINE#         544
  C:92A2H         LINE#         545
  C:92B3H         LINE#         546
  C:92BDH         LINE#         548
  C:92D0H         LINE#         549
  C:92EDH         LINE#         550
  C:92F9H         LINE#         551
  C:92F9H         LINE#         552
  C:92FDH         LINE#         553
  C:92FFH         LINE#         555
  C:92FFH         LINE#         556
  C:9306H         LINE#         557
  C:9306H         LINE#         558
  -------         ENDPROC       PROG_TARJETA_AUTOMATICA_O_BOTON
  -------         PROC          PROG_ANTIPASSBACK
  -------         DO            
  X:0046H         SYMBOL        buffer
  X:0050H         SYMBOL        dataee
  -------         ENDDO         
  C:7FFCH         LINE#         559
  C:7FFCH         LINE#         560
  C:7FFCH         LINE#         565
  C:800FH         LINE#         566
  C:802CH         LINE#         567
  C:8036H         LINE#         568
  C:8036H         LINE#         569
  C:8049H         LINE#         570
  C:804BH         LINE#         572
  C:804BH         LINE#         573
  C:8062H         LINE#         574
  C:8062H         LINE#         576
  C:806BH         LINE#         577
  C:8076H         LINE#         578
  C:8087H         LINE#         579
  C:8091H         LINE#         581
  C:80A4H         LINE#         582
  C:80C1H         LINE#         583
  C:80CBH         LINE#         584
  C:80CBH         LINE#         585
  C:80DEH         LINE#         586
  C:80E0H         LINE#         588
  C:80E0H         LINE#         589
BL51 BANKED LINKER/LOCATER V6.22.2.0                                                  06/11/2021  11:57:45  PAGE 73


  C:80F7H         LINE#         590
  C:80F7H         LINE#         591
  -------         ENDPROC       PROG_ANTIPASSBACK
  -------         PROC          PROG_PLACA
  -------         DO            
  X:0046H         SYMBOL        buffer
  X:0050H         SYMBOL        dataee
  -------         ENDDO         
  C:80F8H         LINE#         592
  C:80F8H         LINE#         593
  C:80F8H         LINE#         598
  C:810BH         LINE#         599
  C:8128H         LINE#         600
  C:8132H         LINE#         601
  C:8132H         LINE#         602
  C:8145H         LINE#         603
  C:8147H         LINE#         605
  C:8147H         LINE#         606
  C:815EH         LINE#         607
  C:815EH         LINE#         609
  C:8167H         LINE#         610
  C:8172H         LINE#         611
  C:8183H         LINE#         612
  C:818DH         LINE#         614
  C:81A0H         LINE#         615
  C:81BDH         LINE#         616
  C:81C7H         LINE#         617
  C:81C7H         LINE#         618
  C:81DAH         LINE#         619
  C:81DCH         LINE#         621
  C:81DCH         LINE#         622
  C:81F3H         LINE#         623
  C:81F3H         LINE#         624
  -------         ENDPROC       PROG_PLACA
  -------         PROC          PROG_ADDRESS_HIGH_BOARD
  -------         DO            
  X:0046H         SYMBOL        buffer
  X:0050H         SYMBOL        dataee
  -------         ENDDO         
  C:8897H         LINE#         625
  C:8897H         LINE#         626
  C:8897H         LINE#         631
  C:88AAH         LINE#         632
  C:88C7H         LINE#         633
  C:88D1H         LINE#         634
  C:88D1H         LINE#         635
  C:88D5H         LINE#         636
  C:88D7H         LINE#         638
  C:88D7H         LINE#         639
  C:88EEH         LINE#         640
  C:88EEH         LINE#         642
  C:88F7H         LINE#         643
  C:8902H         LINE#         644
  C:8913H         LINE#         645
  C:891DH         LINE#         647
  C:8930H         LINE#         648
  C:894DH         LINE#         649
BL51 BANKED LINKER/LOCATER V6.22.2.0                                                  06/11/2021  11:57:45  PAGE 74


  C:8957H         LINE#         650
  C:8957H         LINE#         651
  C:895BH         LINE#         652
  C:895DH         LINE#         654
  C:895DH         LINE#         655
  C:8974H         LINE#         656
  C:8974H         LINE#         657
  -------         ENDPROC       PROG_ADDRESS_HIGH_BOARD
  -------         PROC          ADDR_HORARIOS
  -------         DO            
  X:0074H         SYMBOL        ee_addr_horario
  -------         ENDDO         
  C:BDE5H         LINE#         659
  C:BDE5H         LINE#         660
  C:BDE5H         LINE#         663
  C:BDEBH         LINE#         664
  C:BDEFH         LINE#         665
  C:BDF3H         LINE#         666
  C:BDF7H         LINE#         667
  C:BDFBH         LINE#         668
  C:BDFFH         LINE#         669
  C:BE03H         LINE#         670
  C:BE07H         LINE#         671
  C:BE0BH         LINE#         672
  C:BE0FH         LINE#         673
  C:BE12H         LINE#         674
  C:BE18H         LINE#         675
  -------         ENDPROC       ADDR_HORARIOS
  -------         PROC          _PROG_HORARIOS_ON_OFF
  X:0061H         SYMBOL        addr
  -------         DO            
  X:0063H         SYMBOL        buffer
  X:006DH         SYMBOL        dataee
  X:006FH         SYMBOL        habilitado
  -------         ENDDO         
  C:76A5H         LINE#         676
  C:76AFH         LINE#         677
  C:76AFH         LINE#         680
  C:76BEH         LINE#         681
  C:76DBH         LINE#         682
  C:76E5H         LINE#         683
  C:76E5H         LINE#         684
  C:76F8H         LINE#         685
  C:76FAH         LINE#         687
  C:76FAH         LINE#         688
  C:7711H         LINE#         689
  C:7711H         LINE#         690
  C:771AH         LINE#         691
  C:7725H         LINE#         692
  C:7736H         LINE#         693
  C:7745H         LINE#         695
  C:775CH         LINE#         696
  C:7779H         LINE#         697
  C:7786H         LINE#         698
  C:7786H         LINE#         699
  C:7789H         LINE#         700
  C:779CH         LINE#         701
BL51 BANKED LINKER/LOCATER V6.22.2.0                                                  06/11/2021  11:57:45  PAGE 75


  C:779EH         LINE#         703
  C:779EH         LINE#         704
  C:77A3H         LINE#         705
  C:77B8H         LINE#         706
  C:77B8H         LINE#         707
  C:77BEH         LINE#         708
  -------         ENDPROC       _PROG_HORARIOS_ON_OFF
  -------         PROC          _PROG_HORARIO_DESDE_HASTA
  X:0061H         SYMBOL        addr
  -------         DO            
  X:0063H         SYMBOL        buffer
  D:0007H         SYMBOL        dataee
  -------         ENDDO         
  C:5911H         LINE#         709
  C:5919H         LINE#         710
  C:5919H         LINE#         715
  C:5922H         LINE#         716
  C:5925H         LINE#         717
  C:592EH         LINE#         718
  C:5946H         LINE#         719
  C:5959H         LINE#         720
  C:5967H         LINE#         721
  C:597FH         LINE#         722
  C:5992H         LINE#         723
  C:59A0H         LINE#         724
  C:59B8H         LINE#         725
  C:59CBH         LINE#         726
  C:59D9H         LINE#         727
  C:59F1H         LINE#         728
  C:5A04H         LINE#         729
  C:5A12H         LINE#         733
  C:5A1BH         LINE#         734
  C:5A1EH         LINE#         736
  C:5A27H         LINE#         738
  C:5A3FH         LINE#         739
  C:5A52H         LINE#         740
  C:5A60H         LINE#         741
  C:5A78H         LINE#         742
  C:5A8BH         LINE#         743
  C:5A99H         LINE#         744
  C:5AB1H         LINE#         745
  C:5AC4H         LINE#         746
  C:5AD2H         LINE#         747
  C:5AEAH         LINE#         748
  C:5AFDH         LINE#         749
  -------         ENDPROC       _PROG_HORARIO_DESDE_HASTA
  -------         PROC          _VER_HORARIO_DESDE_HASTA
  X:0074H         SYMBOL        addr
  -------         DO            
  D:0007H         SYMBOL        dataee
  -------         ENDDO         
  C:77BFH         LINE#         751
  C:77C7H         LINE#         752
  C:77C7H         LINE#         754
  C:77D0H         LINE#         755
  C:77E3H         LINE#         756
  C:77F1H         LINE#         757
BL51 BANKED LINKER/LOCATER V6.22.2.0                                                  06/11/2021  11:57:45  PAGE 76


  C:7804H         LINE#         758
  C:7812H         LINE#         759
  C:7825H         LINE#         760
  C:7833H         LINE#         761
  C:7846H         LINE#         762
  C:7854H         LINE#         764
  C:7867H         LINE#         765
  C:7875H         LINE#         767
  C:7888H         LINE#         768
  C:7896H         LINE#         770
  C:78A9H         LINE#         771
  C:78B7H         LINE#         773
  C:78CAH         LINE#         774
  -------         ENDPROC       _VER_HORARIO_DESDE_HASTA
  -------         PROC          _PROG_HORARIO_DIAS
  X:0061H         SYMBOL        addr
  -------         DO            
  X:0063H         SYMBOL        buffer
  X:006DH         SYMBOL        dataee
  X:006EH         SYMBOL        j
  X:006FH         SYMBOL        temp
  -------         ENDDO         
  C:4A88H         LINE#         776
  C:4A90H         LINE#         777
  C:4A90H         LINE#         781
  C:4A99H         LINE#         782
  C:4AA2H         LINE#         783
  C:4AABH         LINE#         784
  C:4AB6H         LINE#         787
  C:4ABFH         LINE#         789
  C:4AD5H         LINE#         790
  C:4AD5H         LINE#         792
  C:4AE8H         LINE#         793
  C:4AE8H         LINE#         794
  C:4AF1H         LINE#         796
  C:4B06H         LINE#         797
  C:4B1EH         LINE#         798
  C:4B2BH         LINE#         799
  C:4B2BH         LINE#         801
  C:4B41H         LINE#         802
  C:4B41H         LINE#         803
  C:4B4AH         LINE#         804
  C:4B5FH         LINE#         805
  C:4B77H         LINE#         806
  C:4B84H         LINE#         807
  C:4B84H         LINE#         809
  C:4B9AH         LINE#         810
  C:4B9AH         LINE#         811
  C:4BA3H         LINE#         812
  C:4BB8H         LINE#         813
  C:4BD0H         LINE#         814
  C:4BDDH         LINE#         815
  C:4BDDH         LINE#         817
  C:4BF3H         LINE#         818
  C:4BF3H         LINE#         819
  C:4BFCH         LINE#         820
  C:4C11H         LINE#         821
BL51 BANKED LINKER/LOCATER V6.22.2.0                                                  06/11/2021  11:57:45  PAGE 77


  C:4C29H         LINE#         822
  C:4C36H         LINE#         823
  C:4C36H         LINE#         825
  C:4C4CH         LINE#         826
  C:4C4CH         LINE#         827
  C:4C55H         LINE#         828
  C:4C6AH         LINE#         829
  C:4C82H         LINE#         830
  C:4C8FH         LINE#         831
  C:4C8FH         LINE#         833
  C:4CA5H         LINE#         834
  C:4CA5H         LINE#         835
  C:4CAEH         LINE#         836
  C:4CC3H         LINE#         837
  C:4CDBH         LINE#         838
  C:4CE8H         LINE#         839
  C:4CE8H         LINE#         841
  C:4CFEH         LINE#         842
  C:4CFEH         LINE#         843
  C:4D07H         LINE#         844
  C:4D16H         LINE#         845
  C:4D28H         LINE#         846
  C:4D35H         LINE#         847
  C:4D35H         LINE#         848
  C:4D3EH         LINE#         850
  -------         ENDPROC       _PROG_HORARIO_DIAS
  -------         PROC          _VER_HORARIO_DIAS
  X:0074H         SYMBOL        addr
  -------         DO            
  X:0076H         SYMBOL        dataee
  -------         ENDDO         
  C:757DH         LINE#         851
  C:7585H         LINE#         852
  C:7585H         LINE#         855
  C:7595H         LINE#         856
  C:759BH         LINE#         857
  C:759BH         LINE#         858
  C:759FH         LINE#         859
  C:75A1H         LINE#         861
  C:75A1H         LINE#         862
  C:75A8H         LINE#         863
  C:75A8H         LINE#         866
  C:75C0H         LINE#         867
  C:75C6H         LINE#         868
  C:75C6H         LINE#         869
  C:75CAH         LINE#         870
  C:75CCH         LINE#         872
  C:75CCH         LINE#         873
  C:75D3H         LINE#         874
  C:75D3H         LINE#         877
  C:75EBH         LINE#         878
  C:75F1H         LINE#         879
  C:75F1H         LINE#         880
  C:75F5H         LINE#         881
  C:75F7H         LINE#         883
  C:75F7H         LINE#         884
  C:75FEH         LINE#         885
BL51 BANKED LINKER/LOCATER V6.22.2.0                                                  06/11/2021  11:57:45  PAGE 78


  C:75FEH         LINE#         887
  C:7616H         LINE#         888
  C:761CH         LINE#         889
  C:761CH         LINE#         890
  C:7620H         LINE#         891
  C:7622H         LINE#         893
  C:7622H         LINE#         894
  C:7629H         LINE#         895
  C:7629H         LINE#         897
  C:7641H         LINE#         898
  C:7647H         LINE#         899
  C:7647H         LINE#         900
  C:764BH         LINE#         901
  C:764DH         LINE#         903
  C:764DH         LINE#         904
  C:7654H         LINE#         905
  C:7654H         LINE#         908
  C:766CH         LINE#         909
  C:7672H         LINE#         910
  C:7672H         LINE#         911
  C:7676H         LINE#         912
  C:7678H         LINE#         914
  C:7678H         LINE#         915
  C:767FH         LINE#         916
  C:767FH         LINE#         918
  C:7691H         LINE#         919
  C:7697H         LINE#         920
  C:7697H         LINE#         921
  C:769BH         LINE#         922
  C:769DH         LINE#         924
  C:769DH         LINE#         925
  C:76A4H         LINE#         926
  C:76A4H         LINE#         927
  -------         ENDPROC       _VER_HORARIO_DIAS
  -------         PROC          PROG_HORARIOS
  -------         DO            
  X:0046H         SYMBOL        buffer
  X:0050H         SYMBOL        ee_addr_horario
  X:005BH         SYMBOL        addr
  X:005DH         SYMBOL        temp
  X:005FH         SYMBOL        dataee
  X:0060H         SYMBOL        j
  -------         ENDDO         
  C:6BC7H         LINE#         928
  C:6BC7H         LINE#         929
  C:6BC7H         LINE#         938
  C:6BD3H         LINE#         942
  C:6BDCH         LINE#         943
  C:6BE7H         LINE#         945
  C:6BF6H         LINE#         949
  C:6C0CH         LINE#         950
  C:6C12H         LINE#         954
  C:6C20H         LINE#         955
  C:6C28H         LINE#         956
  C:6C28H         LINE#         958
  C:6C37H         LINE#         959
  C:6C4BH         LINE#         960
BL51 BANKED LINKER/LOCATER V6.22.2.0                                                  06/11/2021  11:57:45  PAGE 79


  C:6C4BH         LINE#         961
  C:6C5FH         LINE#         962
  C:6C67H         LINE#         964
  C:6C77H         LINE#         967
  C:6C7AH         LINE#         971
  C:6C85H         LINE#         974
  C:6C8EH         LINE#         975
  C:6C99H         LINE#         976
  C:6CA8H         LINE#         977
  C:6CBBH         LINE#         979
  C:6CD3H         LINE#         980
  C:6CEDH         LINE#         981
  C:6CF5H         LINE#         982
  C:6CF5H         LINE#         984
  C:6D03H         LINE#         985
  C:6D0BH         LINE#         986
  C:6D0BH         LINE#         987
  C:6D0BH         LINE#         989
  -------         ENDPROC       PROG_HORARIOS
  -------         PROC          PROG_VALIDAR_TIPO_VEHICULO_MENSUAL
  -------         DO            
  X:0046H         SYMBOL        buffer
  X:0050H         SYMBOL        dataee
  -------         ENDDO         
  C:81F4H         LINE#         990
  C:81F4H         LINE#         991
  C:81F4H         LINE#         996
  C:8207H         LINE#         997
  C:8224H         LINE#         998
  C:822EH         LINE#         999
  C:822EH         LINE#         1000
  C:8241H         LINE#         1001
  C:8243H         LINE#         1003
  C:8243H         LINE#         1004
  C:825AH         LINE#         1005
  C:825AH         LINE#         1007
  C:8263H         LINE#         1008
  C:826EH         LINE#         1009
  C:827FH         LINE#         1010
  C:8289H         LINE#         1012
  C:829CH         LINE#         1013
  C:82B9H         LINE#         1014
  C:82C3H         LINE#         1015
  C:82C3H         LINE#         1016
  C:82D6H         LINE#         1017
  C:82D8H         LINE#         1019
  C:82D8H         LINE#         1020
  C:82EFH         LINE#         1021
  C:82EFH         LINE#         1022
  -------         ENDPROC       PROG_VALIDAR_TIPO_VEHICULO_MENSUAL
  -------         PROC          PROG_APB_MENSUAL
  -------         DO            
  X:0046H         SYMBOL        buffer
  X:0050H         SYMBOL        dataee
  -------         ENDDO         
  C:82F0H         LINE#         1023
  C:82F0H         LINE#         1024
BL51 BANKED LINKER/LOCATER V6.22.2.0                                                  06/11/2021  11:57:45  PAGE 80


  C:82F0H         LINE#         1029
  C:8303H         LINE#         1030
  C:8320H         LINE#         1031
  C:832AH         LINE#         1032
  C:832AH         LINE#         1033
  C:833DH         LINE#         1034
  C:833FH         LINE#         1036
  C:833FH         LINE#         1037
  C:8356H         LINE#         1038
  C:8356H         LINE#         1040
  C:835FH         LINE#         1041
  C:836AH         LINE#         1042
  C:837BH         LINE#         1043
  C:8385H         LINE#         1045
  C:8398H         LINE#         1046
  C:83B5H         LINE#         1047
  C:83BFH         LINE#         1048
  C:83BFH         LINE#         1049
  C:83D2H         LINE#         1050
  C:83D4H         LINE#         1052
  C:83D4H         LINE#         1053
  C:83EBH         LINE#         1054
  C:83EBH         LINE#         1055
  -------         ENDPROC       PROG_APB_MENSUAL
  -------         PROC          PROG_FECHA_VENCIMIENTO
  -------         DO            
  X:0046H         SYMBOL        buffer
  X:0051H         SYMBOL        cmd
  X:0054H         SYMBOL        fecha
  X:005BH         SYMBOL        dataee
  -------         ENDDO         
  C:5B0BH         LINE#         1057
  C:5B0BH         LINE#         1058
  C:5B0BH         LINE#         1065
  C:5B18H         LINE#         1066
  C:5B2FH         LINE#         1069
  C:5B46H         LINE#         1071
  C:5B46H         LINE#         1072
  C:5B4FH         LINE#         1073
  C:5B5CH         LINE#         1074
  C:5B73H         LINE#         1075
  C:5B85H         LINE#         1076
  C:5B8EH         LINE#         1081
  C:5B99H         LINE#         1082
  C:5BADH         LINE#         1083
  C:5BBAH         LINE#         1085
  C:5BC3H         LINE#         1088
  C:5BCCH         LINE#         1089
  C:5BD7H         LINE#         1090
  C:5BEEH         LINE#         1092
  C:5BF6H         LINE#         1093
  C:5BFEH         LINE#         1094
  C:5C01H         LINE#         1096
  C:5C12H         LINE#         1097
  C:5C23H         LINE#         1099
  C:5C32H         LINE#         1100
  C:5C3AH         LINE#         1101
BL51 BANKED LINKER/LOCATER V6.22.2.0                                                  06/11/2021  11:57:45  PAGE 81


  C:5C42H         LINE#         1102
  C:5C45H         LINE#         1103
  C:5C56H         LINE#         1104
  C:5C67H         LINE#         1105
  C:5C76H         LINE#         1106
  C:5C7EH         LINE#         1107
  C:5C86H         LINE#         1108
  C:5C89H         LINE#         1109
  C:5C9AH         LINE#         1110
  C:5CABH         LINE#         1111
  C:5CBAH         LINE#         1112
  C:5CC5H         LINE#         1114
  C:5CD2H         LINE#         1116
  C:5CE9H         LINE#         1117
  -------         ENDPROC       PROG_FECHA_VENCIMIENTO
  -------         PROC          VER_HORARIO
  -------         DO            
  X:0059H         SYMBOL        buffer
  X:0063H         SYMBOL        ee_addr_horario
  X:006EH         SYMBOL        conta
  X:006FH         SYMBOL        addr
  X:0071H         SYMBOL        temp
  X:0073H         SYMBOL        dataee
  -------         ENDDO         
  C:70C4H         LINE#         1120
  C:70C4H         LINE#         1121
  C:70C4H         LINE#         1130
  C:70D0H         LINE#         1131
  C:70E6H         LINE#         1132
  C:70E6H         LINE#         1134
  C:70F6H         LINE#         1137
  C:710FH         LINE#         1138
  C:7115H         LINE#         1141
  C:7123H         LINE#         1142
  C:7132H         LINE#         1143
  C:714CH         LINE#         1144
  C:7157H         LINE#         1145
  C:7157H         LINE#         1146
  C:7160H         LINE#         1148
  C:7169H         LINE#         1149
  C:7179H         LINE#         1150
  C:717CH         LINE#         1152
  C:7187H         LINE#         1153
  C:719FH         LINE#         1154
  C:71B9H         LINE#         1155
  C:71C3H         LINE#         1156
  C:71C3H         LINE#         1157
  C:71CAH         LINE#         1159
  C:71D8H         LINE#         1160
  C:71E0H         LINE#         1161
  C:71E2H         LINE#         1163
  C:71E2H         LINE#         1164
  C:71E6H         LINE#         1165
  C:71E6H         LINE#         1166
  C:71E8H         LINE#         1168
  C:71E8H         LINE#         1169
  C:71F1H         LINE#         1170
BL51 BANKED LINKER/LOCATER V6.22.2.0                                                  06/11/2021  11:57:45  PAGE 82


  C:71F1H         LINE#         1172
  C:71FAH         LINE#         1175
  -------         ENDPROC       VER_HORARIO
  -------         PROC          VER_PROG
  -------         DO            
  X:0046H         SYMBOL        buffer
  X:0050H         SYMBOL        dataee
  X:0052H         SYMBOL        fecha
  -------         ENDDO         
  C:4439H         LINE#         1176
  C:4439H         LINE#         1177
  C:4439H         LINE#         1183
  C:444BH         LINE#         1184
  C:4468H         LINE#         1186
  C:447FH         LINE#         1188
  C:4492H         LINE#         1189
  C:44AFH         LINE#         1191
  C:44C6H         LINE#         1193
  C:44D9H         LINE#         1194
  C:44F6H         LINE#         1195
  C:4504H         LINE#         1196
  C:4504H         LINE#         1197
  C:4508H         LINE#         1198
  C:450AH         LINE#         1200
  C:450AH         LINE#         1201
  C:4511H         LINE#         1202
  C:4511H         LINE#         1204
  C:4524H         LINE#         1205
  C:4541H         LINE#         1206
  C:454DH         LINE#         1207
  C:454DH         LINE#         1208
  C:4551H         LINE#         1209
  C:4553H         LINE#         1211
  C:4553H         LINE#         1212
  C:455AH         LINE#         1213
  C:455AH         LINE#         1215
  C:456DH         LINE#         1216
  C:458AH         LINE#         1217
  C:4596H         LINE#         1218
  C:4596H         LINE#         1219
  C:459AH         LINE#         1220
  C:459CH         LINE#         1222
  C:459CH         LINE#         1223
  C:45A3H         LINE#         1224
  C:45A3H         LINE#         1226
  C:45B6H         LINE#         1227
  C:45D3H         LINE#         1228
  C:45DFH         LINE#         1229
  C:45DFH         LINE#         1230
  C:45E3H         LINE#         1231
  C:45E5H         LINE#         1233
  C:45E5H         LINE#         1234
  C:45ECH         LINE#         1235
  C:45ECH         LINE#         1237
  C:45FFH         LINE#         1238
  C:461CH         LINE#         1239
  C:4628H         LINE#         1240
BL51 BANKED LINKER/LOCATER V6.22.2.0                                                  06/11/2021  11:57:45  PAGE 83


  C:4628H         LINE#         1241
  C:462CH         LINE#         1242
  C:462EH         LINE#         1244
  C:462EH         LINE#         1245
  C:4635H         LINE#         1246
  C:4635H         LINE#         1248
  C:4648H         LINE#         1249
  C:4665H         LINE#         1250
  C:4671H         LINE#         1251
  C:4671H         LINE#         1252
  C:4675H         LINE#         1253
  C:4677H         LINE#         1255
  C:4677H         LINE#         1256
  C:467EH         LINE#         1257
  C:467EH         LINE#         1260
  C:4691H         LINE#         1261
  C:46AEH         LINE#         1263
  C:46C5H         LINE#         1265
  C:46C8H         LINE#         1269
  C:46DBH         LINE#         1270
  C:46F8H         LINE#         1271
  C:4704H         LINE#         1272
  C:4704H         LINE#         1273
  C:4708H         LINE#         1274
  C:470AH         LINE#         1276
  C:470AH         LINE#         1277
  C:4711H         LINE#         1278
  C:4711H         LINE#         1280
  C:4724H         LINE#         1281
  C:4741H         LINE#         1282
  C:474DH         LINE#         1283
  C:474DH         LINE#         1284
  C:4751H         LINE#         1285
  C:4753H         LINE#         1287
  C:4753H         LINE#         1288
  C:475AH         LINE#         1289
  C:475AH         LINE#         1291
  C:4767H         LINE#         1293
  C:477EH         LINE#         1294
  C:4795H         LINE#         1297
  C:47A1H         LINE#         1298
  -------         ENDPROC       VER_PROG
  -------         PROC          SHOW
  C:A13EH         LINE#         1305
  C:A13EH         LINE#         1306
  C:A13EH         LINE#         1307
  C:A147H         LINE#         1308
  C:A150H         LINE#         1309
  C:A159H         LINE#         1310
  C:A162H         LINE#         1311
  C:A16BH         LINE#         1312
  C:A174H         LINE#         1313
  C:A17DH         LINE#         1314
  C:A186H         LINE#         1315
  C:A18FH         LINE#         1316
  C:A198H         LINE#         1317
  C:A1A1H         LINE#         1318
BL51 BANKED LINKER/LOCATER V6.22.2.0                                                  06/11/2021  11:57:45  PAGE 84


  C:A1AAH         LINE#         1319
  C:A1B3H         LINE#         1320
  C:A1BCH         LINE#         1321
  C:A1C5H         LINE#         1322
  C:A1CEH         LINE#         1323
  -------         ENDPROC       SHOW
  -------         PROC          FIRST_CLAVE
  -------         DO            
  X:0046H         SYMBOL        clave
  -------         ENDDO         
  C:B65CH         LINE#         1330
  C:B65CH         LINE#         1331
  C:B65CH         LINE#         1335
  C:B665H         LINE#         1336
  C:B66AH         LINE#         1337
  C:B67CH         LINE#         1338
  C:B689H         LINE#         1339
  C:B68FH         LINE#         1340
  C:B692H         LINE#         1341
  C:B695H         LINE#         1342
  C:B697H         LINE#         1344
  -------         ENDPROC       FIRST_CLAVE
  -------         PROC          MENU
  -------         DO            
  X:0001H         SYMBOL        cmd
  X:0004H         SYMBOL        option1
  X:0007H         SYMBOL        option2
  X:000AH         SYMBOL        opt_buffer
  X:0032H         SYMBOL        buffer
  -------         ENDDO         
  C:54DDH         LINE#         1348
  C:54DDH         LINE#         1349
  C:54DDH         LINE#         1358
  C:54E6H         LINE#         1363
  C:54F2H         LINE#         1364
  C:54F2H         LINE#         1365
  C:54F5H         LINE#         1366
  C:54FFH         LINE#         1369
  C:54FFH         LINE#         1371
  C:54FFH         LINE#         1372
  C:5508H         LINE#         1373
  C:5515H         LINE#         1374
  C:551AH         LINE#         1375
  C:5530H         LINE#         1376
  C:5542H         LINE#         1377
  C:554BH         LINE#         1382
  C:5556H         LINE#         1383
  C:5564H         LINE#         1384
  C:5571H         LINE#         1386
  C:557AH         LINE#         1390
  C:557DH         LINE#         1391
  C:557DH         LINE#         1392
  C:557DH         LINE#         1393
  C:5580H         LINE#         1396
  C:558BH         LINE#         1397
  C:5599H         LINE#         1398
  C:55ADH         LINE#         1399
BL51 BANKED LINKER/LOCATER V6.22.2.0                                                  06/11/2021  11:57:45  PAGE 85


  C:55C1H         LINE#         1404
  C:55D7H         LINE#         1405
  C:55D7H         LINE#         1407
  C:55E6H         LINE#         1408
  C:55E8H         LINE#         1409
  C:55F8H         LINE#         1410
  C:55F8H         LINE#         1412
  C:5607H         LINE#         1413
  C:5625H         LINE#         1414
  C:5625H         LINE#         1420
  C:5638H         LINE#         1421
  C:5638H         LINE#         1422
  C:5681H         LINE#         1423
  C:5681H         LINE#         1424
  C:5681H         LINE#         1425
  C:5684H         LINE#         1427
  C:5687H         LINE#         1429
  C:5687H         LINE#         1430
  C:568AH         LINE#         1431
  C:568DH         LINE#         1432
  C:568DH         LINE#         1433
  C:5690H         LINE#         1434
  C:5693H         LINE#         1435
  C:5693H         LINE#         1436
  C:5696H         LINE#         1437
  C:5699H         LINE#         1438
  C:5699H         LINE#         1439
  C:569CH         LINE#         1440
  C:569FH         LINE#         1441
  C:569FH         LINE#         1442
  C:56A2H         LINE#         1443
  C:56A5H         LINE#         1444
  C:56A5H         LINE#         1445
  C:56A8H         LINE#         1446
  C:56ABH         LINE#         1447
  C:56ABH         LINE#         1448
  C:56AEH         LINE#         1449
  C:56B1H         LINE#         1450
  C:56B1H         LINE#         1451
  C:56B4H         LINE#         1452
  C:56B7H         LINE#         1453
  C:56B7H         LINE#         1454
  C:56BAH         LINE#         1455
  C:56BDH         LINE#         1456
  C:56BDH         LINE#         1457
  C:56C0H         LINE#         1458
  C:56C3H         LINE#         1459
  C:56C3H         LINE#         1460
  C:56C6H         LINE#         1461
  C:56C9H         LINE#         1462
  C:56C9H         LINE#         1463
  C:56CCH         LINE#         1464
  C:56CFH         LINE#         1465
  C:56CFH         LINE#         1466
  C:56D2H         LINE#         1467
  C:56D5H         LINE#         1468
  C:56D5H         LINE#         1469
BL51 BANKED LINKER/LOCATER V6.22.2.0                                                  06/11/2021  11:57:45  PAGE 86


  C:56D8H         LINE#         1470
  C:56DBH         LINE#         1471
  C:56DBH         LINE#         1472
  C:56DEH         LINE#         1473
  C:56E1H         LINE#         1474
  C:56E1H         LINE#         1476
  C:56E1H         LINE#         1477
  C:56E1H         LINE#         1478
  C:56E4H         LINE#         1479
  C:56E7H         LINE#         1482
  C:56E7H         LINE#         1483
  C:5705H         LINE#         1484
  C:5708H         LINE#         1485
  C:5708H         LINE#         1486
  C:5708H         LINE#         1487
  C:5708H         LINE#         1488
  -------         ENDPROC       MENU
  -------         ENDMOD        PROG

  -------         MODULE        PTO_PARALELO
  C:0000H         SYMBOL        _ICE_DUMMY_
  D:0080H         PUBLIC        P0
  D:00A0H         PUBLIC        P2
  D:00B0H         PUBLIC        P3
  B:0080H.2       PUBLIC        led_err_imp
  C:6F88H         PUBLIC        load_and_send_id_cod
  C:A1D7H         PUBLIC        _recibe_port
  B:00B0H.2       PUBLIC        ready
  B:0080H.6       PUBLIC        rx_in_data
  C:C1DCH         PUBLIC        Pulso_Bus
  C:A783H         PUBLIC        _send_portERR
  B:00B0H.3       PUBLIC        busy
  C:B57CH         PUBLIC        load_and_send_info_reloj
  C:98DFH         PUBLIC        _send_port
  B:00B0H.4       PUBLIC        port_clk
  C:C257H         PUBLIC        cond_ini_pto
  -------         PROC          _RECIBE_PORT
  X:0001H         SYMBOL        buffer_port
  -------         DO            
  D:0006H         SYMBOL        count
  X:0004H         SYMBOL        time_out
  X:0005H         SYMBOL        num_data
  X:0006H         SYMBOL        T_ANCHO
  X:0008H         SYMBOL        data_temp
  -------         ENDDO         
  C:A1D7H         LINE#         60
  C:A1E2H         LINE#         61
  C:A1E2H         LINE#         65
  C:A1EBH         LINE#         66
  C:A1EEH         LINE#         69
  C:A1F1H         LINE#         70
  C:A1F1H         LINE#         72
  C:A1F4H         LINE#         73
  C:A1F9H         LINE#         74
  C:A1FBH         LINE#         75
  C:A1FFH         LINE#         76
  C:A201H         LINE#         79
BL51 BANKED LINKER/LOCATER V6.22.2.0                                                  06/11/2021  11:57:45  PAGE 87


  C:A206H         LINE#         80
  C:A20FH         LINE#         81
  C:A20FH         LINE#         82
  C:A212H         LINE#         83
  C:A212H         LINE#         85
  C:A217H         LINE#         86
  C:A21BH         LINE#         87
  C:A21BH         LINE#         88
  C:A21DH         LINE#         89
  C:A21FH         LINE#         90
  C:A21FH         LINE#         91
  C:A21FH         LINE#         93
  C:A21FH         LINE#         94
  C:A22CH         LINE#         95
  C:A22CH         LINE#         97
  C:A22FH         LINE#         98
  C:A22FH         LINE#         100
  C:A235H         LINE#         102
  C:A237H         LINE#         103
  C:A24BH         LINE#         104
  C:A255H         LINE#         105
  C:A25BH         LINE#         106
  C:A261H         LINE#         107
  C:A263H         LINE#         108
  C:A263H         LINE#         109
  C:A263H         LINE#         110
  C:A263H         LINE#         113
  C:A265H         LINE#         114
  C:A267H         LINE#         115
  C:A267H         LINE#         116
  C:A26AH         LINE#         118
  C:A26FH         LINE#         119
  -------         ENDPROC       _RECIBE_PORT
  -------         PROC          _SEND_PORT
  X:0016H         SYMBOL        buffer_port
  X:0019H         SYMBOL        length_char
  -------         DO            
  X:001AH         SYMBOL        cont
  X:001EH         SYMBOL        timeOut
  X:001FH         SYMBOL        length
  -------         ENDDO         
  C:98DFH         LINE#         126
  C:98EDH         LINE#         127
  C:98EDH         LINE#         132
  C:98F1H         LINE#         134
  C:98F3H         LINE#         135
  C:98F5H         LINE#         136
  C:98F7H         LINE#         137
  C:98FCH         LINE#         138
  C:98FEH         LINE#         139
  C:9908H         LINE#         141
  C:9911H         LINE#         142
  C:9911H         LINE#         143
  C:9913H         LINE#         144
  C:9915H         LINE#         145
  C:9939H         LINE#         146
  C:994DH         LINE#         147
BL51 BANKED LINKER/LOCATER V6.22.2.0                                                  06/11/2021  11:57:45  PAGE 88


  C:994DH         LINE#         148
  C:9950H         LINE#         149
  C:9952H         LINE#         150
  C:9952H         LINE#         151
  C:9954H         LINE#         152
  C:995DH         LINE#         153
  C:995DH         LINE#         157
  C:995DH         LINE#         159
  C:996DH         LINE#         160
  C:9970H         LINE#         161
  C:997AH         LINE#         163
  C:9980H         LINE#         164
  C:9983H         LINE#         166
  C:9983H         LINE#         168
  C:9986H         LINE#         169
  C:9988H         LINE#         170
  C:998AH         LINE#         171
  C:998CH         LINE#         172
  -------         ENDPROC       _SEND_PORT
  -------         PROC          PULSO_BUS
  C:C1DCH         LINE#         180
  C:C1DCH         LINE#         181
  C:C1DCH         LINE#         182
  C:C1DEH         LINE#         183
  C:C1E5H         LINE#         184
  C:C1E7H         LINE#         185
  -------         ENDPROC       PULSO_BUS
  -------         PROC          _SEND_PORTERR
  X:002AH         SYMBOL        cod_err
  -------         DO            
  X:002BH         SYMBOL        timeOut
  X:002CH         SYMBOL        cont
  -------         ENDDO         
  C:A783H         LINE#         190
  C:A789H         LINE#         191
  C:A789H         LINE#         195
  C:A78BH         LINE#         196
  C:A78DH         LINE#         197
  C:A790H         LINE#         198
  C:A798H         LINE#         200
  C:A79AH         LINE#         201
  C:A79CH         LINE#         202
  C:A7A5H         LINE#         203
  C:A7A5H         LINE#         204
  C:A7C7H         LINE#         205
  C:A7DBH         LINE#         206
  C:A7DBH         LINE#         207
  C:A7E0H         LINE#         208
  C:A7E0H         LINE#         209
  C:A7E2H         LINE#         210
  C:A7EBH         LINE#         211
  C:A7EBH         LINE#         212
  C:A7F1H         LINE#         213
  C:A7F4H         LINE#         214
  C:A7F4H         LINE#         215
  C:A7F6H         LINE#         216
  C:A7F8H         LINE#         217
BL51 BANKED LINKER/LOCATER V6.22.2.0                                                  06/11/2021  11:57:45  PAGE 89


  C:A7FAH         LINE#         219
  C:A7FDH         LINE#         221
  C:A804H         LINE#         222
  -------         ENDPROC       _SEND_PORTERR
  -------         PROC          COND_INI_PTO
  C:C257H         LINE#         228
  C:C257H         LINE#         229
  C:C257H         LINE#         231
  C:C259H         LINE#         232
  C:C25BH         LINE#         233
  C:C25DH         LINE#         234
  C:C260H         LINE#         235
  -------         ENDPROC       COND_INI_PTO
  -------         PROC          LOAD_AND_SEND_INFO_RELOJ
  -------         DO            
  X:0002H         SYMBOL        buffer_info
  -------         ENDDO         
  C:B57CH         LINE#         240
  C:B57CH         LINE#         241
  C:B57CH         LINE#         244
  C:B582H         LINE#         246
  C:B586H         LINE#         252
  C:B58FH         LINE#         255
  C:B599H         LINE#         256
  C:B59DH         LINE#         257
  C:B5A0H         LINE#         258
  C:B5A9H         LINE#         259
  C:B5BAH         LINE#         260
  C:B5BDH         LINE#         261
  -------         ENDPROC       LOAD_AND_SEND_INFO_RELOJ
  -------         PROC          LOAD_AND_SEND_ID_COD
  -------         DO            
  X:0002H         SYMBOL        buffer_info
  X:000DH         SYMBOL        buf
  X:0011H         SYMBOL        i
  X:0012H         SYMBOL        ID_CLIENTE
  X:0014H         SYMBOL        COD_PARK
  -------         ENDDO         
  C:6F88H         LINE#         268
  C:6F88H         LINE#         269
  C:6F88H         LINE#         277
  C:6F98H         LINE#         279
  C:6FA9H         LINE#         281
  C:6FAFH         LINE#         282
  C:6FB3H         LINE#         283
  C:6FB6H         LINE#         285
  C:6FDCH         LINE#         286
  C:6FF3H         LINE#         289
  C:700AH         LINE#         292
  C:7030H         LINE#         293
  C:7047H         LINE#         295
  C:705EH         LINE#         296
  C:706CH         LINE#         297
  C:707DH         LINE#         298
  C:7090H         LINE#         299
  C:7096H         LINE#         300
  C:709FH         LINE#         301
BL51 BANKED LINKER/LOCATER V6.22.2.0                                                  06/11/2021  11:57:45  PAGE 90


  C:70B3H         LINE#         302
  C:70B6H         LINE#         303
  -------         ENDPROC       LOAD_AND_SEND_ID_COD
  -------         ENDMOD        PTO_PARALELO

  -------         MODULE        TIBBO
  C:0000H         SYMBOL        _ICE_DUMMY_
  C:B7BEH         PUBLIC        _Debug_HexDec
  C:B61EH         PUBLIC        _Debug_txt_Tibbo
  D:0080H         PUBLIC        P0
  D:0090H         PUBLIC        P1
  B:0090H.0       PUBLIC        txd2
  B:00A8H.7       PUBLIC        EA
  C:B5CBH         PUBLIC        _tx_aux
  B:0080H.0       PUBLIC        rx_ip
  C:C261H         PUBLIC        Debug_Dividir_texto
  C:C2B6H         PUBLIC        cond_ini_tibbo
  C:C151H         PUBLIC        time_mbit
  C:A80BH         PUBLIC        rx_Data
  C:C0D0H         PUBLIC        time_bit
  C:B98FH         PUBLIC        _Debug_pto_paralelo
  C:BB04H         PUBLIC        _Debug_monitor
  C:A9A1H         PUBLIC        _DebugBufferMF
  C:B6A4H         PUBLIC        _Debug_chr_Tibbo
  C:C0CAH         SYMBOL        L?0067
  -------         PROC          L?0066
  -------         ENDPROC       L?0066
  C:C0CAH         SYMBOL        L?0067
  -------         PROC          TIME_BIT
  -------         DO            
  D:0007H         SYMBOL        j
  -------         ENDDO         
  C:C0D0H         LINE#         20
  C:C0D0H         LINE#         21
  C:C0D0H         LINE#         24
  C:C0DCH         LINE#         25
  C:C0DCH         LINE#         26
  C:C0DDH         LINE#         27
  C:C0DEH         LINE#         28
  C:C0DFH         LINE#         29
  C:C0E0H         LINE#         30
  C:C0E1H         LINE#         31
  C:C0E2H         LINE#         32
  C:C0E3H         LINE#         33
  C:C0E4H         LINE#         34
  C:C0E5H         LINE#         39
  C:C0E8H         LINE#         40
  -------         ENDPROC       TIME_BIT
  -------         PROC          TIME_MBIT
  -------         DO            
  D:0007H         SYMBOL        j
  -------         ENDDO         
  C:C151H         LINE#         43
  C:C151H         LINE#         44
  C:C151H         LINE#         46
  C:C15DH         LINE#         47
  C:C15DH         LINE#         48
BL51 BANKED LINKER/LOCATER V6.22.2.0                                                  06/11/2021  11:57:45  PAGE 91


  C:C15EH         LINE#         49
  C:C15FH         LINE#         50
  C:C160H         LINE#         51
  C:C161H         LINE#         52
  C:C162H         LINE#         53
  C:C163H         LINE#         54
  C:C164H         LINE#         55
  C:C167H         LINE#         57
  -------         ENDPROC       TIME_MBIT
  -------         PROC          L?0070
  -------         ENDPROC       L?0070
  -------         PROC          _TX_AUX
  D:0006H         SYMBOL        caracter
  -------         DO            
  D:0004H         SYMBOL        j
  D:0005H         SYMBOL        temporal
  D:0006H         SYMBOL        bitTX
  -------         ENDDO         
  C:B5CBH         LINE#         62
  C:B5CDH         LINE#         63
  C:B5CDH         LINE#         66
  C:B5CFH         LINE#         67
  C:B5D1H         LINE#         68
  C:B5D4H         LINE#         69
  C:B5D5H         LINE#         70
  C:B5D6H         LINE#         71
  C:B5D8H         LINE#         72
  C:B5DCH         LINE#         73
  C:B5DEH         LINE#         74
  C:B5DEH         LINE#         75
  C:B5E0H         LINE#         76
  C:B5E2H         LINE#         78
  C:B5E2H         LINE#         79
  C:B5E4H         LINE#         80
  C:B5E4H         LINE#         81
  C:B5E7H         LINE#         82
  C:B5F3H         LINE#         83
  C:B5F3H         LINE#         84
  C:B5F7H         LINE#         85
  C:B5FAH         LINE#         86
  C:B5FCH         LINE#         87
  C:B5FCH         LINE#         88
  C:B5FEH         LINE#         89
  C:B600H         LINE#         91
  C:B600H         LINE#         92
  C:B602H         LINE#         93
  C:B602H         LINE#         94
  C:B605H         LINE#         95
  C:B608H         LINE#         96
  C:B60AH         LINE#         97
  C:B60DH         LINE#         98
  C:B610H         LINE#         100
  C:B612H         LINE#         101
  -------         ENDPROC       _TX_AUX
  -------         PROC          _DEBUG_HEXDEC
  D:0007H         SYMBOL        xfc
  -------         DO            
BL51 BANKED LINKER/LOCATER V6.22.2.0                                                  06/11/2021  11:57:45  PAGE 92


  X:0018H         SYMBOL        valor
  D:0006H         SYMBOL        centena
  D:0003H         SYMBOL        decena
  D:0002H         SYMBOL        unidad
  -------         ENDDO         
  C:B7BEH         LINE#         104
  C:B7BEH         LINE#         105
  C:B7BEH         LINE#         108
  C:B7C5H         LINE#         110
  C:B7C6H         LINE#         111
  C:B7C7H         LINE#         112
  C:B7C8H         LINE#         113
  C:B7D0H         LINE#         114
  C:B7D0H         LINE#         115
  C:B7DAH         LINE#         116
  C:B7DAH         LINE#         117
  C:B7DEH         LINE#         118
  C:B7DFH         LINE#         119
  C:B7E1H         LINE#         120
  C:B7EBH         LINE#         121
  C:B7EBH         LINE#         122
  C:B7EFH         LINE#         123
  C:B7F0H         LINE#         124
  C:B7F2H         LINE#         125
  C:B7F4H         LINE#         126
  C:B7F8H         LINE#         127
  C:B7FCH         LINE#         128
  C:B803H         LINE#         130
  C:B803H         LINE#         131
  -------         ENDPROC       _DEBUG_HEXDEC
  -------         PROC          _DEBUG_CHR_TIBBO
  D:0003H         SYMBOL        Dat
  -------         DO            
  D:0007H         SYMBOL        temp
  -------         ENDDO         
  C:B6A4H         LINE#         136
  C:B6A6H         LINE#         137
  C:B6A6H         LINE#         139
  C:B6AEH         LINE#         140
  C:B6AEH         LINE#         141
  C:B6B5H         LINE#         142
  C:B6C8H         LINE#         144
  C:B6CBH         LINE#         146
  C:B6CFH         LINE#         147
  C:B6E2H         LINE#         148
  C:B6E5H         LINE#         149
  C:B6EAH         LINE#         151
  C:B6EAH         LINE#         152
  -------         ENDPROC       _DEBUG_CHR_TIBBO
  -------         PROC          _DEBUGBUFFERMF
  X:0027H         SYMBOL        str
  X:002AH         SYMBOL        num_char
  X:002BH         SYMBOL        io
  -------         DO            
  X:002CH         SYMBOL        j
  -------         ENDDO         
  C:A9A1H         LINE#         160
BL51 BANKED LINKER/LOCATER V6.22.2.0                                                  06/11/2021  11:57:45  PAGE 93


  C:A9AFH         LINE#         161
  C:A9AFH         LINE#         165
  C:A9B7H         LINE#         166
  C:A9B7H         LINE#         167
  C:A9C6H         LINE#         168
  C:A9C6H         LINE#         169
  C:A9CCH         LINE#         170
  C:A9CEH         LINE#         171
  C:A9DBH         LINE#         172
  C:A9DBH         LINE#         173
  C:A9E4H         LINE#         174
  C:A9E4H         LINE#         176
  C:A9F6H         LINE#         177
  C:A9F6H         LINE#         178
  C:AA08H         LINE#         179
  C:AA12H         LINE#         180
  C:AA1AH         LINE#         181
  C:AA1FH         LINE#         182
  C:AA24H         LINE#         183
  C:AA24H         LINE#         185
  -------         ENDPROC       _DEBUGBUFFERMF
  C:B618H         SYMBOL        L?0069
  -------         PROC          L?0068
  -------         ENDPROC       L?0068
  C:B618H         SYMBOL        L?0069
  -------         PROC          _DEBUG_TXT_TIBBO
  X:0064H         SYMBOL        str
  -------         DO            
  X:0067H         SYMBOL        i
  -------         ENDDO         
  C:B61EH         LINE#         190
  C:B629H         LINE#         191
  C:B629H         LINE#         193
  C:B62CH         LINE#         195
  C:B634H         LINE#         196
  C:B634H         LINE#         197
  C:B650H         LINE#         198
  C:B650H         LINE#         199
  C:B653H         LINE#         200
  C:B65BH         LINE#         202
  C:B65BH         LINE#         203
  -------         ENDPROC       _DEBUG_TXT_TIBBO
  -------         PROC          DEBUG_DIVIDIR_TEXTO
  C:C261H         LINE#         205
  C:C261H         LINE#         206
  C:C261H         LINE#         207
  -------         ENDPROC       DEBUG_DIVIDIR_TEXTO
  -------         PROC          RX_DATA
  -------         DO            
  D:0006H         SYMBOL        temporal
  -------         ENDDO         
  C:A80BH         LINE#         213
  C:A80BH         LINE#         214
  C:A80BH         LINE#         217
  C:A80DH         LINE#         218
  C:A810H         LINE#         220
  C:A813H         LINE#         222
BL51 BANKED LINKER/LOCATER V6.22.2.0                                                  06/11/2021  11:57:45  PAGE 94


  C:A81FH         LINE#         223
  C:A81FH         LINE#         225
  C:A822H         LINE#         227
  C:A82EH         LINE#         228
  C:A82EH         LINE#         230
  C:A831H         LINE#         232
  C:A83DH         LINE#         233
  C:A83DH         LINE#         235
  C:A840H         LINE#         237
  C:A84CH         LINE#         238
  C:A84CH         LINE#         240
  C:A84FH         LINE#         242
  C:A85BH         LINE#         243
  C:A85BH         LINE#         245
  C:A85EH         LINE#         247
  C:A86AH         LINE#         248
  C:A86AH         LINE#         250
  C:A86DH         LINE#         252
  C:A879H         LINE#         253
  C:A879H         LINE#         255
  C:A87CH         LINE#         256
  C:A88AH         LINE#         258
  C:A88DH         LINE#         259
  C:A890H         LINE#         260
  C:A890H         LINE#         261
  C:A890H         LINE#         264
  C:A892H         LINE#         266
  -------         ENDPROC       RX_DATA
  -------         PROC          COND_INI_TIBBO
  C:C2B6H         LINE#         284
  C:C2B6H         LINE#         285
  C:C2B6H         LINE#         287
  C:C2B8H         LINE#         288
  C:C2BAH         LINE#         289
  -------         ENDPROC       COND_INI_TIBBO
  -------         PROC          _DEBUG_PTO_PARALELO
  X:0001H         SYMBOL        buffer
  X:0004H         SYMBOL        Length_trama
  C:B98FH         LINE#         290
  C:B99DH         LINE#         291
  C:B99DH         LINE#         293
  C:B9A6H         LINE#         294
  C:B9BDH         LINE#         295
  C:B9C6H         LINE#         296
  C:B9C9H         LINE#         297
  C:B9CCH         LINE#         298
  -------         ENDPROC       _DEBUG_PTO_PARALELO
  -------         PROC          _DEBUG_MONITOR
  X:0016H         SYMBOL        buffer
  X:0019H         SYMBOL        Length_trama
  C:BB04H         LINE#         301
  C:BB12H         LINE#         302
  C:BB12H         LINE#         303
  C:BB15H         LINE#         304
  C:BB1EH         LINE#         305
  C:BB2CH         LINE#         306
  C:BB2FH         LINE#         307
BL51 BANKED LINKER/LOCATER V6.22.2.0                                                  06/11/2021  11:57:45  PAGE 95


  C:BB38H         LINE#         308
  C:BB3BH         LINE#         309
  C:BB3EH         LINE#         310
  -------         ENDPROC       _DEBUG_MONITOR
  -------         ENDMOD        TIBBO

  -------         MODULE        UART
  C:0000H         SYMBOL        _ICE_DUMMY_
  C:BF71H         PUBLIC        com_getchar
  C:C1EEH         PUBLIC        com_rbuflen
  C:C200H         PUBLIC        com_tbuflen
  B:00A8H.4       PUBLIC        ES
  B:0098H.0       PUBLIC        RI
  C:BBF4H         PUBLIC        _com_putchar
  B:0098H.1       PUBLIC        TI
  B:0021H.4       PUBLIC        aSk
  B:00B8H.4       PUBLIC        PS
  D:000DH         SYMBOL        r_in
  D:000EH         SYMBOL        r_out
  D:000FH         SYMBOL        t_in
  D:0010H         SYMBOL        t_out
  D:0099H         PUBLIC        SBUF
  D:0087H         PUBLIC        PCON
  D:0089H         PUBLIC        TMOD
  B:0021H.5       SYMBOL        ti_restart
  B:00A8H.3       PUBLIC        ET1
  D:008DH         PUBLIC        TH1
  B:0098H.7       PUBLIC        SM0
  B:0098H.6       PUBLIC        SM1
  D:008BH         PUBLIC        TL1
  B:0098H.5       PUBLIC        SM2
  B:0088H.6       PUBLIC        TR1
  C:BEA8H         PUBLIC        com_initialize
  X:0212H         PUBLIC        cnt__ask_off
  B:0098H.4       PUBLIC        REN
  C:BEFAH         PUBLIC        com_baudrate
  C:62A2H         SYMBOL        com_isr
  -------         PROC          COM_ISR
  -------         DO            
  X:0210H         SYMBOL        cDatoRx
  D:0006H         SYMBOL        k
  D:0007H         SYMBOL        bcc
  X:0211H         SYMBOL        num_datos
  -------         ENDDO         
  C:62A2H         LINE#         95
  C:62B7H         LINE#         103
  C:62BDH         LINE#         104
  C:62BDH         LINE#         106
  C:62BFH         LINE#         107
  C:62C5H         LINE#         108
  C:62D5H         LINE#         109
  C:62D5H         LINE#         110
  C:62E0H         LINE#         111
  C:62E2H         LINE#         113
  C:62E2H         LINE#         114
  C:62F2H         LINE#         115
  C:62F2H         LINE#         116
BL51 BANKED LINKER/LOCATER V6.22.2.0                                                  06/11/2021  11:57:45  PAGE 96


  C:62F7H         LINE#         117
  C:62F7H         LINE#         118
  C:630EH         LINE#         119
  C:630EH         LINE#         123
  C:630EH         LINE#         126
  C:631DH         LINE#         127
  C:631DH         LINE#         128
  C:631FH         LINE#         129
  C:6327H         LINE#         130
  C:632CH         LINE#         132
  C:632CH         LINE#         133
  C:632FH         LINE#         137
  C:632FH         LINE#         138
  C:632FH         LINE#         139
  C:6347H         LINE#         140
  C:6356H         LINE#         141
  C:6356H         LINE#         142
  C:6356H         LINE#         143
  C:6358H         LINE#         145
  C:6358H         LINE#         146
  C:635AH         LINE#         147
  C:635AH         LINE#         148
  C:635AH         LINE#         149
  C:635DH         LINE#         153
  C:635DH         LINE#         155
  C:6366H         LINE#         156
  C:6366H         LINE#         158
  C:636CH         LINE#         159
  C:637FH         LINE#         160
  C:637FH         LINE#         161
  C:6382H         LINE#         163
  C:6382H         LINE#         164
  C:6397H         LINE#         165
  C:639DH         LINE#         166
  C:639DH         LINE#         168
  C:63A0H         LINE#         172
  C:63A0H         LINE#         174
  C:63B8H         LINE#         175
  C:63BEH         LINE#         176
  C:63C1H         LINE#         177
  C:63C1H         LINE#         178
  C:63D9H         LINE#         179
  C:63D9H         LINE#         180
  C:63DAH         LINE#         181
  C:63E7H         LINE#         182
  C:63E7H         LINE#         183
  C:63F4H         LINE#         184
  C:63F7H         LINE#         185
  C:6405H         LINE#         186
  C:6405H         LINE#         187
  C:6407H         LINE#         188
  C:640CH         LINE#         189
  C:640EH         LINE#         190
  C:6412H         LINE#         192
  C:6414H         LINE#         194
  C:6414H         LINE#         195
  C:6414H         LINE#         196
BL51 BANKED LINKER/LOCATER V6.22.2.0                                                  06/11/2021  11:57:45  PAGE 97


  C:6414H         LINE#         197
  C:6416H         LINE#         199
  C:6416H         LINE#         200
  C:6416H         LINE#         201
  C:6416H         LINE#         203
  C:6418H         LINE#         205
  C:6418H         LINE#         206
  C:641EH         LINE#         207
  C:641EH         LINE#         209
  C:6420H         LINE#         214
  C:6420H         LINE#         215
  C:6425H         LINE#         216
  C:6425H         LINE#         217
  C:6425H         LINE#         218
  C:6425H         LINE#         223
  C:6428H         LINE#         224
  C:6428H         LINE#         225
  C:642AH         LINE#         227
  C:6430H         LINE#         228
  C:6430H         LINE#         229
  C:643AH         LINE#         231
  C:643CH         LINE#         232
  C:643EH         LINE#         233
  C:6440H         LINE#         235
  C:6440H         LINE#         236
  C:6442H         LINE#         237
  C:6442H         LINE#         238
  C:6442H         LINE#         240
  -------         ENDPROC       COM_ISR
  -------         PROC          COM_INITIALIZE
  C:BEA8H         LINE#         256
  C:BEAFH         LINE#         257
  C:BEAFH         LINE#         261
  C:BEB2H         LINE#         266
  C:BEB5H         LINE#         267
  C:BEB7H         LINE#         269
  C:BEB9H         LINE#         270
  C:BEBBH         LINE#         275
  C:BEBFH         LINE#         276
  C:BEC1H         LINE#         277
  C:BEC3H         LINE#         279
  C:BEC5H         LINE#         280
  C:BEC7H         LINE#         281
  C:BEC9H         LINE#         283
  C:BECBH         LINE#         284
  C:BECDH         LINE#         285
  -------         ENDPROC       COM_INITIALIZE
  -------         PROC          COM_BAUDRATE
  C:BEFAH         LINE#         291
  C:BF01H         LINE#         293
  C:BF01H         LINE#         297
  C:BF03H         LINE#         298
  C:BF06H         LINE#         299
  C:BF08H         LINE#         304
  C:BF0AH         LINE#         305
  C:BF0CH         LINE#         307
  C:BF0FH         LINE#         309
BL51 BANKED LINKER/LOCATER V6.22.2.0                                                  06/11/2021  11:57:45  PAGE 98


  C:BF12H         LINE#         310
  C:BF15H         LINE#         312
  C:BF18H         LINE#         313
  C:BF1BH         LINE#         314
  C:BF1DH         LINE#         315
  -------         ENDPROC       COM_BAUDRATE
  -------         PROC          _COM_PUTCHAR
  X:00AAH         SYMBOL        c
  C:BBF4H         LINE#         321
  C:BC00H         LINE#         322
  C:BC00H         LINE#         326
  C:BC0DH         LINE#         327
  C:BC11H         LINE#         333
  C:BC1FH         LINE#         335
  C:BC21H         LINE#         337
  C:BC24H         LINE#         338
  C:BC24H         LINE#         339
  C:BC26H         LINE#         340
  C:BC28H         LINE#         341
  C:BC28H         LINE#         343
  C:BC2AH         LINE#         344
  -------         ENDPROC       _COM_PUTCHAR
  -------         PROC          COM_GETCHAR
  C:BF71H         LINE#         350
  C:BF78H         LINE#         351
  C:BF78H         LINE#         352
  C:BF7EH         LINE#         353
  C:BF84H         LINE#         355
  C:BF92H         LINE#         356
  -------         ENDPROC       COM_GETCHAR
  -------         PROC          COM_RBUFLEN
  C:C1EEH         LINE#         362
  C:C1F5H         LINE#         363
  C:C1F5H         LINE#         364
  C:C1FBH         LINE#         365
  -------         ENDPROC       COM_RBUFLEN
  -------         PROC          COM_TBUFLEN
  C:C200H         LINE#         371
  C:C207H         LINE#         372
  C:C207H         LINE#         373
  C:C20DH         LINE#         374
  -------         ENDPROC       COM_TBUFLEN
  -------         ENDMOD        UART

  -------         MODULE        LINTECH
  C:0000H         SYMBOL        _ICE_DUMMY_
  C:9ED1H         PUBLIC        _Inicializa
  C:9182H         PUBLIC        _RD_MF
  C:9B98H         PUBLIC        Dwload_EEprom
  C:A399H         PUBLIC        _Card_Insercion
  C:86C9H         PUBLIC        _Mov_Card
  C:7C08H         PUBLIC        _WR_MF
  C:A66AH         PUBLIC        LoadVerify_EEprom
  C:A893H         PUBLIC        Unique_Identifier_UID
  C:ACADH         PUBLIC        Power_off
  C:A91BH         PUBLIC        _Check_Status
  C:9AEEH         PUBLIC        Clave_Seguridad_S2
BL51 BANKED LINKER/LOCATER V6.22.2.0                                                  06/11/2021  11:57:45  PAGE 99


  C:AC2DH         PUBLIC        Aut_Card_check_Status
  -------         PROC          _INICIALIZA
  X:0002H         SYMBOL        TipoMovimiento
  -------         DO            
  D:0003H         SYMBOL        j
  X:0003H         SYMBOL        bcc
  X:0004H         SYMBOL        g_scArrTxComSoft
  -------         ENDDO         
  C:9ED1H         LINE#         68
  C:9ED6H         LINE#         69
  C:9ED6H         LINE#         72
  C:9ED9H         LINE#         73
  C:9EEFH         LINE#         74
  C:9EEFH         LINE#         76
  C:9EF8H         LINE#         78
  C:9EFEH         LINE#         79
  C:9F01H         LINE#         80
  C:9F03H         LINE#         81
  C:9F07H         LINE#         82
  C:9F0BH         LINE#         83
  C:9F0FH         LINE#         84
  C:9F17H         LINE#         85
  C:9F1BH         LINE#         86
  C:9F27H         LINE#         87
  C:9F27H         LINE#         88
  C:9F3BH         LINE#         89
  C:9F3EH         LINE#         90
  C:9F46H         LINE#         91
  C:9F48H         LINE#         92
  C:9F4DH         LINE#         93
  C:9F5CH         LINE#         94
  C:9F67H         LINE#         95
  C:9F6DH         LINE#         96
  C:9F6DH         LINE#         97
  -------         ENDPROC       _INICIALIZA
  -------         PROC          _CHECK_STATUS
  X:0002H         SYMBOL        Detalle
  -------         DO            
  D:0006H         SYMBOL        j
  D:0007H         SYMBOL        bcc
  X:0003H         SYMBOL        g_scArrTxComSoft
  -------         ENDDO         
  C:A91BH         LINE#         109
  C:A920H         LINE#         110
  C:A920H         LINE#         114
  C:A926H         LINE#         115
  C:A926H         LINE#         116
  C:A92AH         LINE#         117
  C:A92CH         LINE#         119
  C:A92CH         LINE#         120
  C:A933H         LINE#         121
  C:A933H         LINE#         122
  C:A935H         LINE#         124
  C:A93BH         LINE#         125
  C:A93EH         LINE#         126
  C:A940H         LINE#         127
  C:A944H         LINE#         128
BL51 BANKED LINKER/LOCATER V6.22.2.0                                                  06/11/2021  11:57:45  PAGE 100


  C:A948H         LINE#         129
  C:A94CH         LINE#         130
  C:A954H         LINE#         131
  C:A958H         LINE#         132
  C:A964H         LINE#         133
  C:A964H         LINE#         134
  C:A971H         LINE#         135
  C:A974H         LINE#         136
  C:A979H         LINE#         137
  C:A97BH         LINE#         138
  C:A980H         LINE#         139
  C:A98FH         LINE#         140
  C:A99AH         LINE#         141
  C:A9A0H         LINE#         142
  -------         ENDPROC       _CHECK_STATUS
  -------         PROC          _CARD_INSERCION
  D:0007H         SYMBOL        Tipo
  -------         DO            
  D:0006H         SYMBOL        j
  D:0007H         SYMBOL        bcc
  X:0002H         SYMBOL        g_scArrTxComSoft
  -------         ENDDO         
  C:A399H         LINE#         152
  C:A399H         LINE#         153
  C:A399H         LINE#         156
  C:A3A6H         LINE#         157
  C:A3A6H         LINE#         158
  C:A3ADH         LINE#         159
  C:A3B3H         LINE#         160
  C:A3B5H         LINE#         162
  C:A3B5H         LINE#         164
  C:A3BCH         LINE#         165
  C:A3C2H         LINE#         167
  C:A3C2H         LINE#         169
  C:A3C4H         LINE#         171
  C:A3CAH         LINE#         172
  C:A3CDH         LINE#         173
  C:A3CFH         LINE#         174
  C:A3D3H         LINE#         175
  C:A3D7H         LINE#         176
  C:A3DBH         LINE#         178
  C:A3E1H         LINE#         179
  C:A3EDH         LINE#         180
  C:A3EDH         LINE#         181
  C:A3FAH         LINE#         182
  C:A3FDH         LINE#         184
  C:A402H         LINE#         186
  C:A404H         LINE#         187
  C:A409H         LINE#         188
  C:A418H         LINE#         189
  C:A423H         LINE#         190
  C:A429H         LINE#         191
  -------         ENDPROC       _CARD_INSERCION
  -------         PROC          _MOV_CARD
  X:0002H         SYMBOL        Posicion
  -------         DO            
  D:0003H         SYMBOL        j
BL51 BANKED LINKER/LOCATER V6.22.2.0                                                  06/11/2021  11:57:45  PAGE 101


  X:0003H         SYMBOL        bcc
  X:0004H         SYMBOL        g_scArrTxComSoft
  -------         ENDDO         
  C:86C9H         LINE#         202
  C:86CEH         LINE#         203
  C:86CEH         LINE#         206
  C:86D1H         LINE#         208
  C:86F1H         LINE#         209
  C:86F1H         LINE#         210
  C:86F8H         LINE#         211
  C:86F8H         LINE#         212
  C:86FEH         LINE#         213
  C:8700H         LINE#         214
  C:8707H         LINE#         215
  C:8707H         LINE#         216
  C:870DH         LINE#         217
  C:870FH         LINE#         218
  C:8716H         LINE#         219
  C:8716H         LINE#         220
  C:871CH         LINE#         221
  C:871EH         LINE#         222
  C:8725H         LINE#         223
  C:8725H         LINE#         224
  C:872BH         LINE#         225
  C:872DH         LINE#         226
  C:8734H         LINE#         227
  C:8734H         LINE#         228
  C:873DH         LINE#         229
  C:873DH         LINE#         231
  C:8743H         LINE#         232
  C:8746H         LINE#         233
  C:8748H         LINE#         234
  C:874CH         LINE#         235
  C:8750H         LINE#         236
  C:8754H         LINE#         237
  C:875CH         LINE#         238
  C:8760H         LINE#         239
  C:876CH         LINE#         240
  C:876CH         LINE#         241
  C:8780H         LINE#         242
  C:8783H         LINE#         243
  C:878BH         LINE#         244
  C:878DH         LINE#         245
  C:8792H         LINE#         246
  C:87A1H         LINE#         247
  C:87ACH         LINE#         248
  C:87B2H         LINE#         249
  C:87B2H         LINE#         251
  -------         ENDPROC       _MOV_CARD
  -------         PROC          AUT_CARD_CHECK_STATUS
  -------         DO            
  D:0003H         SYMBOL        j
  X:0002H         SYMBOL        bcc
  X:0003H         SYMBOL        g_scArrTxComSoft
  -------         ENDDO         
  C:AC2DH         LINE#         257
  C:AC2DH         LINE#         258
BL51 BANKED LINKER/LOCATER V6.22.2.0                                                  06/11/2021  11:57:45  PAGE 102


  C:AC2DH         LINE#         261
  C:AC32H         LINE#         263
  C:AC3BH         LINE#         265
  C:AC41H         LINE#         266
  C:AC44H         LINE#         267
  C:AC46H         LINE#         268
  C:AC4AH         LINE#         269
  C:AC4EH         LINE#         270
  C:AC52H         LINE#         271
  C:AC56H         LINE#         272
  C:AC5AH         LINE#         273
  C:AC66H         LINE#         274
  C:AC66H         LINE#         275
  C:AC7AH         LINE#         276
  C:AC7DH         LINE#         277
  C:AC85H         LINE#         278
  C:AC87H         LINE#         279
  C:AC8CH         LINE#         280
  C:AC9BH         LINE#         281
  C:ACA6H         LINE#         282
  C:ACACH         LINE#         283
  -------         ENDPROC       AUT_CARD_CHECK_STATUS
  -------         PROC          CLAVE_SEGURIDAD_S2
  -------         DO            
  D:0003H         SYMBOL        j
  X:0002H         SYMBOL        bcc
  X:0003H         SYMBOL        g_scArrTxComSoft
  -------         ENDDO         
  C:9AEEH         LINE#         286
  C:9AEEH         LINE#         287
  C:9AEEH         LINE#         290
  C:9AF3H         LINE#         291
  C:9AFCH         LINE#         294
  C:9B02H         LINE#         295
  C:9B05H         LINE#         296
  C:9B07H         LINE#         297
  C:9B0BH         LINE#         298
  C:9B0FH         LINE#         299
  C:9B13H         LINE#         300
  C:9B17H         LINE#         301
  C:9B1AH         LINE#         302
  C:9B1EH         LINE#         303
  C:9B21H         LINE#         304
  C:9B25H         LINE#         306
  C:9B29H         LINE#         308
  C:9B2DH         LINE#         309
  C:9B31H         LINE#         310
  C:9B35H         LINE#         311
  C:9B39H         LINE#         312
  C:9B3DH         LINE#         313
  C:9B41H         LINE#         316
  C:9B45H         LINE#         318
  C:9B51H         LINE#         319
  C:9B51H         LINE#         320
  C:9B65H         LINE#         321
  C:9B68H         LINE#         322
  C:9B70H         LINE#         323
BL51 BANKED LINKER/LOCATER V6.22.2.0                                                  06/11/2021  11:57:45  PAGE 103


  C:9B72H         LINE#         324
  C:9B77H         LINE#         325
  C:9B86H         LINE#         326
  C:9B91H         LINE#         327
  C:9B97H         LINE#         330
  -------         ENDPROC       CLAVE_SEGURIDAD_S2
  -------         PROC          DWLOAD_EEPROM
  -------         DO            
  D:0003H         SYMBOL        j
  X:0002H         SYMBOL        bcc
  X:0003H         SYMBOL        g_scArrTxComSoft
  -------         ENDDO         
  C:9B98H         LINE#         335
  C:9B98H         LINE#         336
  C:9B98H         LINE#         339
  C:9B9DH         LINE#         340
  C:9BA6H         LINE#         342
  C:9BACH         LINE#         343
  C:9BAFH         LINE#         344
  C:9BB1H         LINE#         345
  C:9BB5H         LINE#         346
  C:9BB9H         LINE#         347
  C:9BBDH         LINE#         348
  C:9BC1H         LINE#         349
  C:9BC4H         LINE#         350
  C:9BC8H         LINE#         351
  C:9BCBH         LINE#         352
  C:9BCEH         LINE#         353
  C:9BD2H         LINE#         354
  C:9BD6H         LINE#         355
  C:9BDAH         LINE#         356
  C:9BDEH         LINE#         357
  C:9BE2H         LINE#         358
  C:9BE6H         LINE#         359
  C:9BEAH         LINE#         360
  C:9BEEH         LINE#         362
  C:9BFAH         LINE#         363
  C:9BFAH         LINE#         364
  C:9C0EH         LINE#         365
  C:9C11H         LINE#         366
  C:9C19H         LINE#         367
  C:9C1BH         LINE#         368
  C:9C20H         LINE#         369
  C:9C2FH         LINE#         370
  C:9C3AH         LINE#         371
  C:9C40H         LINE#         372
  -------         ENDPROC       DWLOAD_EEPROM
  -------         PROC          LOADVERIFY_EEPROM
  -------         DO            
  D:0003H         SYMBOL        j
  X:0002H         SYMBOL        bcc
  X:0003H         SYMBOL        g_scArrTxComSoft
  -------         ENDDO         
  C:A66AH         LINE#         378
  C:A66AH         LINE#         379
  C:A66AH         LINE#         382
  C:A66FH         LINE#         383
BL51 BANKED LINKER/LOCATER V6.22.2.0                                                  06/11/2021  11:57:45  PAGE 104


  C:A678H         LINE#         386
  C:A67EH         LINE#         387
  C:A681H         LINE#         388
  C:A683H         LINE#         389
  C:A687H         LINE#         390
  C:A68BH         LINE#         391
  C:A68FH         LINE#         392
  C:A693H         LINE#         393
  C:A696H         LINE#         394
  C:A69AH         LINE#         395
  C:A69DH         LINE#         396
  C:A6A0H         LINE#         397
  C:A6A4H         LINE#         402
  C:A6B0H         LINE#         403
  C:A6B0H         LINE#         404
  C:A6C4H         LINE#         405
  C:A6C7H         LINE#         406
  C:A6CFH         LINE#         407
  C:A6D1H         LINE#         408
  C:A6D6H         LINE#         409
  C:A6E5H         LINE#         410
  C:A6F0H         LINE#         411
  C:A6F6H         LINE#         413
  -------         ENDPROC       LOADVERIFY_EEPROM
  -------         PROC          _RD_MF
  X:0002H         SYMBOL        Sector
  X:0003H         SYMBOL        Bloque
  -------         DO            
  D:0003H         SYMBOL        j
  X:0004H         SYMBOL        bcc
  X:0005H         SYMBOL        g_scArrTxComSoft
  -------         ENDDO         
  C:9182H         LINE#         419
  C:918AH         LINE#         420
  C:918AH         LINE#         424
  C:918DH         LINE#         426
  C:9196H         LINE#         427
  C:919EH         LINE#         429
  C:91A7H         LINE#         430
  C:91AFH         LINE#         431
  C:91B8H         LINE#         434
  C:91BEH         LINE#         435
  C:91C1H         LINE#         436
  C:91C3H         LINE#         437
  C:91C7H         LINE#         438
  C:91CBH         LINE#         439
  C:91CFH         LINE#         440
  C:91D3H         LINE#         441
  C:91D6H         LINE#         442
  C:91DAH         LINE#         443
  C:91E2H         LINE#         444
  C:91EAH         LINE#         445
  C:91EEH         LINE#         446
  C:91F2H         LINE#         448
  C:91FEH         LINE#         449
  C:91FEH         LINE#         450
  C:9212H         LINE#         451
BL51 BANKED LINKER/LOCATER V6.22.2.0                                                  06/11/2021  11:57:45  PAGE 105


  C:9215H         LINE#         452
  C:921DH         LINE#         455
  C:921FH         LINE#         456
  C:9224H         LINE#         457
  C:9233H         LINE#         458
  C:923EH         LINE#         459
  C:9244H         LINE#         461
  -------         ENDPROC       _RD_MF
  -------         PROC          _WR_MF
  X:0002H         SYMBOL        Sector
  X:0003H         SYMBOL        Bloque
  X:0004H         SYMBOL        buffer
  -------         DO            
  D:0005H         SYMBOL        j
  X:0007H         SYMBOL        bcc
  X:0008H         SYMBOL        g_scArrTxComSoft
  -------         ENDDO         
  C:7C08H         LINE#         468
  C:7C19H         LINE#         470
  C:7C19H         LINE#         473
  C:7C1CH         LINE#         475
  C:7C25H         LINE#         476
  C:7C2DH         LINE#         478
  C:7C36H         LINE#         479
  C:7C3EH         LINE#         480
  C:7C47H         LINE#         482
  C:7C4DH         LINE#         483
  C:7C50H         LINE#         484
  C:7C52H         LINE#         485
  C:7C56H         LINE#         487
  C:7C5AH         LINE#         488
  C:7C5EH         LINE#         489
  C:7C62H         LINE#         490
  C:7C65H         LINE#         491
  C:7C69H         LINE#         492
  C:7C71H         LINE#         493
  C:7C79H         LINE#         494
  C:7C7DH         LINE#         496
  C:7C89H         LINE#         497
  C:7C89H         LINE#         498
  C:7CA9H         LINE#         499
  C:7CACH         LINE#         501
  C:7CB2H         LINE#         503
  C:7CBEH         LINE#         504
  C:7CBEH         LINE#         505
  C:7CD5H         LINE#         506
  C:7CD8H         LINE#         507
  C:7CE0H         LINE#         510
  C:7CE2H         LINE#         511
  C:7CE7H         LINE#         512
  C:7CF6H         LINE#         513
  C:7D01H         LINE#         514
  C:7D07H         LINE#         516
  -------         ENDPROC       _WR_MF
  -------         PROC          UNIQUE_IDENTIFIER_UID
  -------         DO            
  D:0003H         SYMBOL        j
BL51 BANKED LINKER/LOCATER V6.22.2.0                                                  06/11/2021  11:57:45  PAGE 106


  X:0002H         SYMBOL        bcc
  X:0003H         SYMBOL        g_scArrTxComSoft
  -------         ENDDO         
  C:A893H         LINE#         521
  C:A893H         LINE#         522
  C:A893H         LINE#         525
  C:A898H         LINE#         527
  C:A8A1H         LINE#         529
  C:A8A7H         LINE#         530
  C:A8AAH         LINE#         531
  C:A8ACH         LINE#         532
  C:A8B0H         LINE#         533
  C:A8B4H         LINE#         534
  C:A8B8H         LINE#         535
  C:A8BCH         LINE#         536
  C:A8C0H         LINE#         537
  C:A8C4H         LINE#         538
  C:A8C8H         LINE#         539
  C:A8D4H         LINE#         540
  C:A8D4H         LINE#         541
  C:A8E8H         LINE#         542
  C:A8EBH         LINE#         543
  C:A8F3H         LINE#         544
  C:A8F5H         LINE#         545
  C:A8FAH         LINE#         546
  C:A909H         LINE#         547
  C:A914H         LINE#         548
  C:A91AH         LINE#         549
  -------         ENDPROC       UNIQUE_IDENTIFIER_UID
  -------         PROC          POWER_OFF
  -------         DO            
  D:0003H         SYMBOL        j
  X:0002H         SYMBOL        bcc
  X:0003H         SYMBOL        g_scArrTxComSoft
  -------         ENDDO         
  C:ACADH         LINE#         550
  C:ACADH         LINE#         551
  C:ACADH         LINE#         554
  C:ACB2H         LINE#         556
  C:ACBBH         LINE#         558
  C:ACC1H         LINE#         559
  C:ACC4H         LINE#         560
  C:ACC6H         LINE#         561
  C:ACCAH         LINE#         562
  C:ACCEH         LINE#         563
  C:ACD2H         LINE#         564
  C:ACD6H         LINE#         565
  C:ACDAH         LINE#         566
  C:ACE6H         LINE#         567
  C:ACE6H         LINE#         568
  C:ACFAH         LINE#         569
  C:ACFDH         LINE#         570
  C:AD05H         LINE#         571
  C:AD07H         LINE#         572
  C:AD0CH         LINE#         573
  C:AD1BH         LINE#         574
  C:AD26H         LINE#         575
BL51 BANKED LINKER/LOCATER V6.22.2.0                                                  06/11/2021  11:57:45  PAGE 107


  C:AD2CH         LINE#         578
  -------         ENDPROC       POWER_OFF
  -------         ENDMOD        LINTECH

  -------         MODULE        VERIFICADOR
  C:0000H         SYMBOL        _ICE_DUMMY_
  D:0080H         PUBLIC        P0
  C:BF97H         PUBLIC        Analiza_Presencia_Mensual
  C:B0DCH         PUBLIC        Ingreso_Vehiculo
  D:0090H         PUBLIC        P1
  C:BF22H         PUBLIC        _Armar_Trama_Tarjeta_Sector1_Bloque0
  D:00B0H         PUBLIC        P3
  C:6455H         PUBLIC        _Valida_Tipo_Tarjeta
  C:BB5DH         PUBLIC        _Load_Secuencia_Expedidor
  C:5D00H         PUBLIC        _Armar_Trama_Tarjeta_Sector1_Bloque2
  C:5287H         PUBLIC        _Armar_Trama_Pto_Paralelo_Expedidor
  C:90BEH         PUBLIC        _Tarjeta_Mensual
  C:BFE3H         PUBLIC        Analiza_Presencia_rotacion
  C:A54AH         PUBLIC        _Disparo_Lock_Entrada_Vehiculo
  C:BE4AH         PUBLIC        Pregunta_Placa
  C:A270H         PUBLIC        _Valida_Vehiculo_Card_Mensual
  C:BC69H         PUBLIC        Analiza_card_mount_rf
  C:B335H         PUBLIC        _Armar_Trama_Placa
  C:8D9CH         PUBLIC        _rta_cmd_transporte
  C:C26AH         PUBLIC        Captura_Expulsa
  C:4FE4H         PUBLIC        _Armar_Trama_Monitor
  C:6E4AH         PUBLIC        Secuencia_inicio_expedidor
  C:8A50H         PUBLIC        _Analiza_Uid_Card
  B:0080H.0       PUBLIC        rx_ip
  C:83ECH         PUBLIC        _Bloque_Horario
  B:0080H.3       PUBLIC        Atascado_GP0_PIN_3
  B:0090H.7       PUBLIC        lock
  C:9D8CH         PUBLIC        _Armar_Trama_Tarjeta_Sector1_Bloque1_Camcel
  C:A00AH         PUBLIC        _Responde_Lectura_Tarjeta_Sector1_Bloque0
  C:93C8H         PUBLIC        error_rx_pto
  C:5EEBH         PUBLIC        _Responde_Lectura_Tarjeta_Sector1_Bloque1
  C:7329H         PUBLIC        _Responde_Lectura_Tarjeta_Sector1_Bloque2
  C:9F6EH         PUBLIC        _Respuesta_Placa_Cancel
  B:0090H.1       PUBLIC        DataIn
  C:9CE7H         PUBLIC        _Send_Pto_Paralelo
  C:BA4CH         PUBLIC        Trama_Validacion_P_N
  B:0022H.0       PUBLIC        MenSual
  C:71FBH         PUBLIC        _Armar_Trama_Pto_Paralelo_Expedidor_Mensual
  C:79EDH         PUBLIC        _Horarios
  C:9A42H         PUBLIC        _Hora_Maxima
  C:6A70H         PUBLIC        _Responde_ReeLectura_Tarjeta_Sector1_Bloque2
  C:3ADCH         PUBLIC        _SecuenciaExpedidorMF
  C:B442H         PUBLIC        _Pregunta_Lpr
  C:982AH         PUBLIC        _Wait_Placa
  C:AE29H         PUBLIC        Responde_Estado_Sensores_Transporte
  C:A5DAH         PUBLIC        Entrega_Card_Captura
  C:B2D8H         PUBLIC        _Respuesta_Segunda_clave
  X:0147H         SYMBOL        Estado
  C:BD47H         PUBLIC        _Responde_Write_Tarjeta_Sector1_Bloque0
  C:BD11H         PUBLIC        _Responde_Write_Tarjeta_Sector1_Bloque1
  C:B6EBH         PUBLIC        _Responde_Write_Tarjeta_Sector2_Bloque0
  C:B070H         PUBLIC        _Responde_Write_Tarjeta_Sector1_Bloque2
BL51 BANKED LINKER/LOCATER V6.22.2.0                                                  06/11/2021  11:57:45  PAGE 108


  C:AF90H         PUBLIC        _En_Horario
  C:AEA5H         PUBLIC        Responde_Tipo_Tarjeta
  C:BE19H         PUBLIC        _Tarjeta_Rotacion
  -------         PROC          CAPTURA_EXPULSA
  -------         DO            
  D:0007H         SYMBOL        Estado_expedidor
  -------         ENDDO         
  C:C26AH         LINE#         541
  C:C26AH         LINE#         542
  C:C26AH         LINE#         546
  C:C26DH         LINE#         547
  C:C26DH         LINE#         548
  C:C26FH         LINE#         549
  C:C270H         LINE#         551
  C:C270H         LINE#         553
  C:C272H         LINE#         554
  C:C272H         LINE#         557
  C:C272H         LINE#         558
  -------         ENDPROC       CAPTURA_EXPULSA
  -------         PROC          TRAMA_VALIDACION_P_N
  -------         DO            
  D:0007H         SYMBOL        Trama_Validacion_P_N
  -------         ENDDO         
  C:BA4CH         LINE#         569
  C:BA4CH         LINE#         570
  C:BA4CH         LINE#         571
  C:BA4EH         LINE#         573
  C:BA64H         LINE#         574
  C:BA64H         LINE#         575
  C:BA67H         LINE#         576
  C:BA67H         LINE#         577
  C:BA69H         LINE#         580
  C:BA71H         LINE#         581
  C:BA71H         LINE#         583
  C:BA73H         LINE#         585
  C:BA74H         LINE#         586
  C:BA78H         LINE#         587
  C:BA78H         LINE#         589
  C:BA7AH         LINE#         591
  C:BA7BH         LINE#         593
  C:BA7BH         LINE#         594
  C:BA84H         LINE#         595
  C:BA86H         LINE#         597
  C:BA86H         LINE#         598
  C:BA87H         LINE#         600
  C:BA87H         LINE#         602
  C:BA89H         LINE#         604
  C:BA89H         LINE#         606
  C:BA89H         LINE#         608
  C:BA89H         LINE#         609
  -------         ENDPROC       TRAMA_VALIDACION_P_N
  -------         PROC          ERROR_RX_PTO
  -------         DO            
  X:00B7H         SYMBOL        cnt_espera_ask_on
  X:0007H         SYMBOL        error_rx_pto
  -------         ENDDO         
  C:93C8H         LINE#         633
BL51 BANKED LINKER/LOCATER V6.22.2.0                                                  06/11/2021  11:57:45  PAGE 109


  C:93C8H         LINE#         634
  C:93C8H         LINE#         637
  C:93CEH         LINE#         641
  C:93D7H         LINE#         642
  C:93DFH         LINE#         643
  C:93E8H         LINE#         644
  C:93F0H         LINE#         645
  C:93F9H         LINE#         646
  C:93FCH         LINE#         648
  C:93FCH         LINE#         649
  C:9402H         LINE#         650
  C:940CH         LINE#         651
  C:940CH         LINE#         652
  C:9415H         LINE#         653
  C:9417H         LINE#         654
  C:941EH         LINE#         655
  C:9423H         LINE#         656
  C:9429H         LINE#         657
  C:942EH         LINE#         658
  C:9430H         LINE#         659
  C:9437H         LINE#         660
  C:943DH         LINE#         661
  C:943DH         LINE#         663
  C:943DH         LINE#         664
  C:9442H         LINE#         665
  C:9442H         LINE#         666
  C:9442H         LINE#         667
  C:9444H         LINE#         669
  C:9444H         LINE#         670
  C:9452H         LINE#         671
  C:9465H         LINE#         672
  C:9465H         LINE#         673
  C:9466H         LINE#         675
  C:946CH         LINE#         676
  C:9470H         LINE#         677
  C:9472H         LINE#         678
  C:9472H         LINE#         679
  C:9474H         LINE#         681
  C:9474H         LINE#         682
  C:9475H         LINE#         683
  C:947AH         LINE#         684
  C:9480H         LINE#         685
  C:9480H         LINE#         686
  C:9480H         LINE#         687
  C:9485H         LINE#         688
  -------         ENDPROC       ERROR_RX_PTO
  -------         PROC          _RTA_CMD_TRANSPORTE
  X:0002H         SYMBOL        secuencia_Expedidor
  -------         DO            
  X:0005H         SYMBOL        temp
  X:0006H         SYMBOL        EstadoComSeqMF
  -------         ENDDO         
  C:8D9CH         LINE#         704
  C:8DA7H         LINE#         705
  C:8DA7H         LINE#         711
  C:8DB4H         LINE#         712
  C:8DB4H         LINE#         713
BL51 BANKED LINKER/LOCATER V6.22.2.0                                                  06/11/2021  11:57:45  PAGE 110


  C:8DBCH         LINE#         714
  C:8DBCH         LINE#         715
  C:8DCAH         LINE#         716
  C:8DCDH         LINE#         717
  C:8DD3H         LINE#         718
  C:8DD3H         LINE#         719
  C:8DDCH         LINE#         720
  C:8DF0H         LINE#         721
  C:8E01H         LINE#         723
  C:8E03H         LINE#         725
  C:8E03H         LINE#         728
  C:8E1BH         LINE#         729
  C:8E1BH         LINE#         730
  C:8E26H         LINE#         731
  C:8E28H         LINE#         733
  C:8E28H         LINE#         734
  C:8E36H         LINE#         735
  C:8E36H         LINE#         736
  C:8E36H         LINE#         737
  C:8E38H         LINE#         739
  C:8E38H         LINE#         741
  C:8E4CH         LINE#         742
  C:8E61H         LINE#         743
  C:8E61H         LINE#         744
  C:8E66H         LINE#         745
  -------         ENDPROC       _RTA_CMD_TRANSPORTE
  -------         PROC          ANALIZA_PRESENCIA_MENSUAL
  -------         DO            
  X:0002H         SYMBOL        Estado_expedidor
  -------         ENDDO         
  C:BF97H         LINE#         749
  C:BF97H         LINE#         750
  C:BF97H         LINE#         754
  C:BF9DH         LINE#         755
  C:BF9DH         LINE#         756
  C:BF9FH         LINE#         757
  C:BFA5H         LINE#         758
  C:BFA7H         LINE#         760
  C:BFA7H         LINE#         762
  C:BFACH         LINE#         763
  C:BFB1H         LINE#         764
  C:BFB7H         LINE#         765
  C:BFB7H         LINE#         766
  C:BFBCH         LINE#         767
  -------         ENDPROC       ANALIZA_PRESENCIA_MENSUAL
  -------         PROC          ANALIZA_CARD_MOUNT_RF
  -------         DO            
  X:0002H         SYMBOL        Estado_expedidor
  -------         ENDDO         
  C:BC69H         LINE#         771
  C:BC69H         LINE#         772
  C:BC69H         LINE#         774
  C:BC6FH         LINE#         775
  C:BC76H         LINE#         776
  C:BC76H         LINE#         778
  C:BC7FH         LINE#         780
  C:BC85H         LINE#         781
BL51 BANKED LINKER/LOCATER V6.22.2.0                                                  06/11/2021  11:57:45  PAGE 111


  C:BC87H         LINE#         782
  C:BC8EH         LINE#         784
  C:BC8EH         LINE#         785
  C:BC97H         LINE#         786
  C:BC9DH         LINE#         787
  C:BC9DH         LINE#         790
  C:BCA2H         LINE#         791
  -------         ENDPROC       ANALIZA_CARD_MOUNT_RF
  -------         PROC          ANALIZA_PRESENCIA_ROTACION
  -------         DO            
  X:0002H         SYMBOL        Estado_expedidor
  -------         ENDDO         
  C:BFE3H         LINE#         795
  C:BFE3H         LINE#         796
  C:BFE3H         LINE#         798
  C:BFE9H         LINE#         799
  C:BFE9H         LINE#         801
  C:BFEFH         LINE#         802
  C:BFF1H         LINE#         804
  C:BFF1H         LINE#         806
  C:BFF6H         LINE#         807
  C:BFFBH         LINE#         808
  C:C000H         LINE#         810
  C:C000H         LINE#         811
  C:C005H         LINE#         812
  -------         ENDPROC       ANALIZA_PRESENCIA_ROTACION
  -------         PROC          _ANALIZA_UID_CARD
  X:0002H         SYMBOL        Atributos_Expedidor
  -------         DO            
  X:0005H         SYMBOL        Estado_expedidor
  D:0007H         SYMBOL        temp
  X:0006H         SYMBOL        buffer_UID
  -------         ENDDO         
  C:8A50H         LINE#         816
  C:8A5BH         LINE#         817
  C:8A5BH         LINE#         821
  C:8A6BH         LINE#         822
  C:8A6BH         LINE#         824
  C:8A77H         LINE#         825
  C:8A77H         LINE#         826
  C:8A8FH         LINE#         828
  C:8A92H         LINE#         830
  C:8A9BH         LINE#         831
  C:8AACH         LINE#         834
  C:8AB5H         LINE#         835
  C:8ABDH         LINE#         836
  C:8AC5H         LINE#         837
  C:8ACDH         LINE#         838
  C:8AD5H         LINE#         839
  C:8ADEH         LINE#         841
  C:8AF5H         LINE#         842
  C:8AFFH         LINE#         843
  C:8B09H         LINE#         844
  C:8B13H         LINE#         845
  C:8B19H         LINE#         846
  C:8B1BH         LINE#         848
  C:8B1BH         LINE#         849
BL51 BANKED LINKER/LOCATER V6.22.2.0                                                  06/11/2021  11:57:45  PAGE 112


  C:8B21H         LINE#         850
  C:8B21H         LINE#         851
  C:8B26H         LINE#         852
  -------         ENDPROC       _ANALIZA_UID_CARD
  -------         PROC          INGRESO_VEHICULO
  -------         DO            
  D:0007H         SYMBOL        CardAutomatic
  X:00B9H         SYMBOL        pulseboton
  -------         ENDDO         
  C:B0DCH         LINE#         856
  C:B0DCH         LINE#         857
  C:B0DCH         LINE#         862
  C:B0E2H         LINE#         863
  C:B0E2H         LINE#         864
  C:B0EBH         LINE#         866
  C:B0F0H         LINE#         867
  C:B0F0H         LINE#         868
  C:B0F9H         LINE#         870
  C:B0F9H         LINE#         871
  C:B0FBH         LINE#         873
  C:B0FBH         LINE#         875
  C:B108H         LINE#         876
  C:B10DH         LINE#         877
  C:B112H         LINE#         878
  C:B114H         LINE#         880
  C:B114H         LINE#         881
  C:B11AH         LINE#         884
  C:B11AH         LINE#         885
  C:B11DH         LINE#         886
  C:B120H         LINE#         887
  C:B120H         LINE#         888
  C:B122H         LINE#         889
  C:B127H         LINE#         890
  C:B12DH         LINE#         891
  C:B12FH         LINE#         893
  C:B12FH         LINE#         894
  C:B134H         LINE#         895
  C:B13AH         LINE#         896
  C:B13AH         LINE#         899
  C:B13AH         LINE#         900
  C:B13CH         LINE#         902
  C:B13CH         LINE#         904
  C:B141H         LINE#         905
  C:B141H         LINE#         906
  C:B146H         LINE#         907
  -------         ENDPROC       INGRESO_VEHICULO
  -------         PROC          RESPONDE_ESTADO_SENSORES_TRANSPORTE
  -------         DO            
  X:0002H         SYMBOL        Estado_expedidor
  -------         ENDDO         
  C:AE29H         LINE#         914
  C:AE29H         LINE#         915
  C:AE29H         LINE#         918
  C:AE32H         LINE#         920
  C:AE3AH         LINE#         921
  C:AE3AH         LINE#         923
  C:AE45H         LINE#         924
BL51 BANKED LINKER/LOCATER V6.22.2.0                                                  06/11/2021  11:57:45  PAGE 113


  C:AE45H         LINE#         925
  C:AE49H         LINE#         926
  C:AE49H         LINE#         927
  C:AE52H         LINE#         928
  C:AE57H         LINE#         930
  C:AE57H         LINE#         931
  C:AE59H         LINE#         933
  C:AE59H         LINE#         935
  C:AE61H         LINE#         937
  C:AE61H         LINE#         938
  C:AE63H         LINE#         940
  C:AE63H         LINE#         942
  C:AE6CH         LINE#         944
  C:AE71H         LINE#         947
  C:AE71H         LINE#         948
  C:AE71H         LINE#         949
  C:AE73H         LINE#         950
  C:AE7AH         LINE#         951
  C:AE7AH         LINE#         953
  C:AE80H         LINE#         955
  C:AE80H         LINE#         956
  C:AE82H         LINE#         957
  C:AE89H         LINE#         959
  C:AE89H         LINE#         960
  C:AE92H         LINE#         961
  C:AE98H         LINE#         962
  C:AE9AH         LINE#         964
  C:AE9AH         LINE#         965
  C:AE9FH         LINE#         966
  C:AE9FH         LINE#         967
  C:AEA4H         LINE#         968
  -------         ENDPROC       RESPONDE_ESTADO_SENSORES_TRANSPORTE
  -------         PROC          RESPONDE_TIPO_TARJETA
  -------         DO            
  X:0002H         SYMBOL        Estado_expedidor
  -------         ENDDO         
  C:AEA5H         LINE#         984
  C:AEA5H         LINE#         985
  C:AEA5H         LINE#         988
  C:AEAEH         LINE#         990
  C:AEB6H         LINE#         991
  C:AEB6H         LINE#         992
  C:AEC1H         LINE#         993
  C:AEC1H         LINE#         994
  C:AECAH         LINE#         995
  C:AED0H         LINE#         996
  C:AED0H         LINE#         997
  C:AED3H         LINE#         998
  C:AED5H         LINE#         1000
  C:AED5H         LINE#         1001
  C:AED8H         LINE#         1002
  C:AED8H         LINE#         1003
  C:AEDAH         LINE#         1005
  C:AEDAH         LINE#         1006
  C:AEE1H         LINE#         1007
  C:AEE1H         LINE#         1009
  C:AEE7H         LINE#         1011
BL51 BANKED LINKER/LOCATER V6.22.2.0                                                  06/11/2021  11:57:45  PAGE 114


  C:AEE7H         LINE#         1012
  C:AEE7H         LINE#         1014
  C:AEE7H         LINE#         1016
  C:AEE9H         LINE#         1018
  C:AEE9H         LINE#         1019
  C:AEE9H         LINE#         1020
  C:AEE9H         LINE#         1021
  C:AEE9H         LINE#         1022
  C:AEE9H         LINE#         1023
  C:AEEBH         LINE#         1025
  C:AEEBH         LINE#         1026
  C:AEF2H         LINE#         1027
  C:AEF2H         LINE#         1030
  C:AEFBH         LINE#         1032
  C:AF00H         LINE#         1033
  C:AF05H         LINE#         1035
  C:AF0DH         LINE#         1038
  C:AF0FH         LINE#         1040
  C:AF0FH         LINE#         1041
  C:AF11H         LINE#         1042
  C:AF16H         LINE#         1043
  C:AF16H         LINE#         1044
  C:AF16H         LINE#         1046
  C:AF1BH         LINE#         1047
  -------         ENDPROC       RESPONDE_TIPO_TARJETA
  -------         PROC          _RESPONDE_LECTURA_TARJETA_SECTOR1_BLOQUE1
  X:0002H         SYMBOL        Atributos_Expedidor
  -------         DO            
  D:0007H         SYMBOL        temp
  X:0005H         SYMBOL        Estado_expedidor
  X:0006H         SYMBOL        buffer_S1_B1
  X:0017H         SYMBOL        ID_CLIENTE
  D:0007H         SYMBOL        COD_PARK
  X:00BAH         SYMBOL        falla
  -------         ENDDO         
  C:5EEBH         LINE#         1059
  C:5EF6H         LINE#         1060
  C:5EF6H         LINE#         1067
  C:5EFFH         LINE#         1071
  C:5F0FH         LINE#         1072
  C:5F0FH         LINE#         1074
  C:5F1BH         LINE#         1075
  C:5F1BH         LINE#         1076
  C:5F33H         LINE#         1078
  C:5F36H         LINE#         1081
  C:5F3FH         LINE#         1082
  C:5F50H         LINE#         1083
  C:5F5DH         LINE#         1084
  C:5F66H         LINE#         1087
  C:5F85H         LINE#         1088
  C:5F85H         LINE#         1090
  C:5F8EH         LINE#         1091
  C:5F96H         LINE#         1092
  C:5F9FH         LINE#         1094
  C:5FA8H         LINE#         1095
  C:5FB0H         LINE#         1096
  C:5FB9H         LINE#         1098
BL51 BANKED LINKER/LOCATER V6.22.2.0                                                  06/11/2021  11:57:45  PAGE 115


  C:5FC2H         LINE#         1099
  C:5FCAH         LINE#         1100
  C:5FD3H         LINE#         1102
  C:5FDCH         LINE#         1103
  C:5FE4H         LINE#         1104
  C:5FEDH         LINE#         1106
  C:5FF6H         LINE#         1107
  C:5FFEH         LINE#         1108
  C:6007H         LINE#         1110
  C:601EH         LINE#         1112
  C:6028H         LINE#         1113
  C:6032H         LINE#         1114
  C:603CH         LINE#         1116
  C:6041H         LINE#         1117
  C:6054H         LINE#         1118
  C:6059H         LINE#         1119
  C:605FH         LINE#         1121
  C:6061H         LINE#         1123
  C:6061H         LINE#         1124
  C:6066H         LINE#         1125
  C:606FH         LINE#         1126
  C:6074H         LINE#         1127
  C:6076H         LINE#         1128
  C:6076H         LINE#         1129
  C:6076H         LINE#         1130
  C:6078H         LINE#         1132
  C:6078H         LINE#         1134
  C:6080H         LINE#         1135
  C:6080H         LINE#         1136
  C:6086H         LINE#         1137
  C:6086H         LINE#         1138
  C:6093H         LINE#         1140
  C:6093H         LINE#         1141
  C:609CH         LINE#         1142
  C:60A2H         LINE#         1144
  C:60A4H         LINE#         1146
  C:60A4H         LINE#         1147
  C:60A9H         LINE#         1148
  C:60B2H         LINE#         1149
  C:60B7H         LINE#         1150
  C:60BCH         LINE#         1151
  C:60C4H         LINE#         1152
  C:60C4H         LINE#         1153
  C:60C4H         LINE#         1155
  C:60C9H         LINE#         1156
  -------         ENDPROC       _RESPONDE_LECTURA_TARJETA_SECTOR1_BLOQUE1
  -------         PROC          _RESPONDE_LECTURA_TARJETA_SECTOR1_BLOQUE2
  X:0002H         SYMBOL        Atributos_Expedidor
  -------         DO            
  D:0007H         SYMBOL        temp
  X:0005H         SYMBOL        Estado_expedidor
  X:0006H         SYMBOL        buffer_S1_B2
  -------         ENDDO         
  C:7329H         LINE#         1161
  C:7334H         LINE#         1162
  C:7334H         LINE#         1168
  C:733DH         LINE#         1172
BL51 BANKED LINKER/LOCATER V6.22.2.0                                                  06/11/2021  11:57:45  PAGE 116


  C:734DH         LINE#         1173
  C:734DH         LINE#         1175
  C:7359H         LINE#         1176
  C:7359H         LINE#         1177
  C:7371H         LINE#         1178
  C:7374H         LINE#         1179
  C:737DH         LINE#         1180
  C:738EH         LINE#         1184
  C:7397H         LINE#         1185
  C:73A4H         LINE#         1186
  C:73C0H         LINE#         1187
  C:73C9H         LINE#         1189
  C:73D2H         LINE#         1191
  C:73EEH         LINE#         1192
  C:73F8H         LINE#         1193
  C:7401H         LINE#         1196
  C:740AH         LINE#         1197
  C:7412H         LINE#         1198
  C:741BH         LINE#         1202
  C:7432H         LINE#         1205
  C:743EH         LINE#         1206
  C:7444H         LINE#         1209
  C:7446H         LINE#         1211
  C:7446H         LINE#         1212
  C:744EH         LINE#         1213
  C:744EH         LINE#         1214
  C:7453H         LINE#         1215
  -------         ENDPROC       _RESPONDE_LECTURA_TARJETA_SECTOR1_BLOQUE2
  -------         PROC          _RESPONDE_LECTURA_TARJETA_SECTOR1_BLOQUE0
  X:0002H         SYMBOL        Nombre_Mensual
  -------         DO            
  D:0007H         SYMBOL        temp
  X:0005H         SYMBOL        Estado_expedidor
  -------         ENDDO         
  C:A00AH         LINE#         1217
  C:A015H         LINE#         1218
  C:A015H         LINE#         1224
  C:A01EH         LINE#         1228
  C:A02BH         LINE#         1229
  C:A02BH         LINE#         1231
  C:A037H         LINE#         1232
  C:A037H         LINE#         1233
  C:A057H         LINE#         1234
  C:A05AH         LINE#         1235
  C:A06EH         LINE#         1236
  C:A077H         LINE#         1237
  C:A085H         LINE#         1238
  C:A08EH         LINE#         1239
  C:A094H         LINE#         1242
  C:A096H         LINE#         1244
  C:A096H         LINE#         1245
  C:A09EH         LINE#         1246
  C:A09EH         LINE#         1247
  C:A0A3H         LINE#         1248
  -------         ENDPROC       _RESPONDE_LECTURA_TARJETA_SECTOR1_BLOQUE0
  -------         PROC          _RESPONDE_REELECTURA_TARJETA_SECTOR1_BLOQUE2
  X:0002H         SYMBOL        lectura_anterior
BL51 BANKED LINKER/LOCATER V6.22.2.0                                                  06/11/2021  11:57:45  PAGE 117


  X:0005H         SYMBOL        Atributos_Expedidor
  -------         DO            
  D:0007H         SYMBOL        temp
  X:0008H         SYMBOL        Estado_expedidor
  X:0009H         SYMBOL        reelectura
  X:00BBH         SYMBOL        error_lectura
  -------         ENDDO         
  C:6A70H         LINE#         1249
  C:6A7BH         LINE#         1250
  C:6A7BH         LINE#         1256
  C:6A84H         LINE#         1259
  C:6A94H         LINE#         1260
  C:6A94H         LINE#         1262
  C:6AA0H         LINE#         1263
  C:6AA0H         LINE#         1264
  C:6AC0H         LINE#         1265
  C:6AC3H         LINE#         1266
  C:6AD7H         LINE#         1267
  C:6AE0H         LINE#         1268
  C:6AF6H         LINE#         1269
  C:6AFFH         LINE#         1271
  C:6B23H         LINE#         1272
  C:6B23H         LINE#         1273
  C:6B27H         LINE#         1274
  C:6B30H         LINE#         1275
  C:6B39H         LINE#         1276
  C:6B49H         LINE#         1277
  C:6B5BH         LINE#         1278
  C:6B69H         LINE#         1279
  C:6B69H         LINE#         1280
  C:6B6BH         LINE#         1282
  C:6B6BH         LINE#         1283
  C:6B71H         LINE#         1284
  C:6B81H         LINE#         1285
  C:6B81H         LINE#         1286
  C:6B84H         LINE#         1287
  C:6B8AH         LINE#         1289
  C:6B8CH         LINE#         1291
  C:6B8CH         LINE#         1292
  C:6B8FH         LINE#         1293
  C:6B98H         LINE#         1294
  C:6BA8H         LINE#         1295
  C:6BBBH         LINE#         1296
  C:6BC1H         LINE#         1298
  C:6BC1H         LINE#         1299
  C:6BC1H         LINE#         1301
  C:6BC1H         LINE#         1302
  C:6BC6H         LINE#         1303
  -------         ENDPROC       _RESPONDE_REELECTURA_TARJETA_SECTOR1_BLOQUE2
  -------         PROC          _RESPONDE_WRITE_TARJETA_SECTOR1_BLOQUE1
  X:0002H         SYMBOL        Buffer_Write_MF
  -------         DO            
  D:0007H         SYMBOL        Estado_expedidor
  -------         ENDDO         
  C:BD11H         LINE#         1304
  C:BD1CH         LINE#         1305
  C:BD1CH         LINE#         1307
BL51 BANKED LINKER/LOCATER V6.22.2.0                                                  06/11/2021  11:57:45  PAGE 118


  C:BD25H         LINE#         1308
  C:BD2EH         LINE#         1309
  C:BD44H         LINE#         1310
  C:BD46H         LINE#         1311
  C:BD46H         LINE#         1312
  -------         ENDPROC       _RESPONDE_WRITE_TARJETA_SECTOR1_BLOQUE1
  -------         PROC          _RESPONDE_WRITE_TARJETA_SECTOR1_BLOQUE2
  X:0002H         SYMBOL        Atributos_Expedidor
  X:0005H         SYMBOL        Buffer_Write_MF
  -------         DO            
  X:0008H         SYMBOL        Estado_expedidor
  -------         ENDDO         
  C:B070H         LINE#         1313
  C:B07BH         LINE#         1314
  C:B07BH         LINE#         1316
  C:B084H         LINE#         1317
  C:B08DH         LINE#         1318
  C:B0A3H         LINE#         1319
  C:B0A6H         LINE#         1320
  C:B0A6H         LINE#         1321
  C:B0ACH         LINE#         1327
  C:B0AEH         LINE#         1329
  C:B0AEH         LINE#         1330
  C:B0BEH         LINE#         1331
  C:B0D0H         LINE#         1332
  C:B0D6H         LINE#         1334
  C:B0D6H         LINE#         1335
  C:B0DBH         LINE#         1336
  -------         ENDPROC       _RESPONDE_WRITE_TARJETA_SECTOR1_BLOQUE2
  -------         PROC          _RESPONDE_WRITE_TARJETA_SECTOR1_BLOQUE0
  X:0002H         SYMBOL        Buffer_Write_MF
  C:BD47H         LINE#         1339
  C:BD52H         LINE#         1340
  C:BD52H         LINE#         1342
  C:BD5BH         LINE#         1343
  C:BD64H         LINE#         1344
  C:BD7AH         LINE#         1346
  C:BD7CH         LINE#         1347
  -------         ENDPROC       _RESPONDE_WRITE_TARJETA_SECTOR1_BLOQUE0
  -------         PROC          _RESPONDE_WRITE_TARJETA_SECTOR2_BLOQUE0
  X:0002H         SYMBOL        Buffer_Write_MF
  C:B6EBH         LINE#         1350
  C:B6F6H         LINE#         1351
  C:B6F6H         LINE#         1353
  C:B6FFH         LINE#         1354
  C:B708H         LINE#         1355
  C:B711H         LINE#         1356
  C:B71AH         LINE#         1357
  C:B72FH         LINE#         1358
  C:B731H         LINE#         1359
  -------         ENDPROC       _RESPONDE_WRITE_TARJETA_SECTOR2_BLOQUE0
  -------         PROC          _PREGUNTA_LPR
  X:0002H         SYMBOL        Atributos_Expedidor
  -------         DO            
  D:0007H         SYMBOL        Estado_expedidor
  -------         ENDDO         
  C:B442H         LINE#         1363
BL51 BANKED LINKER/LOCATER V6.22.2.0                                                  06/11/2021  11:57:45  PAGE 119


  C:B44DH         LINE#         1364
  C:B44DH         LINE#         1366
  C:B456H         LINE#         1367
  C:B464H         LINE#         1368
  C:B472H         LINE#         1369
  C:B472H         LINE#         1371
  C:B483H         LINE#         1372
  C:B48FH         LINE#         1373
  C:B48FH         LINE#         1374
  C:B493H         LINE#         1375
  C:B493H         LINE#         1376
  C:B493H         LINE#         1379
  C:B495H         LINE#         1381
  C:B495H         LINE#         1382
  -------         ENDPROC       _PREGUNTA_LPR
  -------         PROC          PREGUNTA_PLACA
  -------         DO            
  X:0002H         SYMBOL        Estado_expedidor
  -------         ENDDO         
  C:BE4AH         LINE#         1384
  C:BE4AH         LINE#         1385
  C:BE4AH         LINE#         1387
  C:BE53H         LINE#         1388
  C:BE62H         LINE#         1389
  C:BE62H         LINE#         1391
  C:BE65H         LINE#         1392
  C:BE6AH         LINE#         1393
  C:BE6FH         LINE#         1394
  C:BE71H         LINE#         1396
  C:BE71H         LINE#         1397
  C:BE74H         LINE#         1398
  C:BE74H         LINE#         1399
  C:BE79H         LINE#         1400
  -------         ENDPROC       PREGUNTA_PLACA
  -------         PROC          _RESPUESTA_SEGUNDA_CLAVE
  X:0002H         SYMBOL        Atributos_Expedidor
  X:0005H         SYMBOL        Buffer_Write_MF
  C:B2D8H         LINE#         1401
  C:B2E3H         LINE#         1402
  C:B2E3H         LINE#         1404
  C:B2ECH         LINE#         1405
  C:B302H         LINE#         1408
  C:B312H         LINE#         1409
  C:B324H         LINE#         1410
  C:B332H         LINE#         1412
  C:B334H         LINE#         1413
  -------         ENDPROC       _RESPUESTA_SEGUNDA_CLAVE
  -------         PROC          _RESPUESTA_PLACA_CANCEL
  X:0009H         SYMBOL        Atributos_Expedidor
  X:000CH         SYMBOL        Buffer_Write_MF
  -------         DO            
  X:000FH         SYMBOL        Estado_expedidor
  X:0010H         SYMBOL        Cancel
  -------         ENDDO         
  C:9F6EH         LINE#         1414
  C:9F79H         LINE#         1415
  C:9F79H         LINE#         1417
BL51 BANKED LINKER/LOCATER V6.22.2.0                                                  06/11/2021  11:57:45  PAGE 120


  C:9F87H         LINE#         1418
  C:9F90H         LINE#         1419
  C:9F99H         LINE#         1420
  C:9FA2H         LINE#         1422
  C:9FBDH         LINE#         1423
  C:9FBDH         LINE#         1424
  C:9FCDH         LINE#         1425
  C:9FE0H         LINE#         1426
  C:9FEEH         LINE#         1427
  C:9FF4H         LINE#         1428
  C:9FF6H         LINE#         1430
  C:9FF6H         LINE#         1431
  C:9FFCH         LINE#         1432
  C:9FFCH         LINE#         1433
  C:9FFFH         LINE#         1434
  C:A001H         LINE#         1436
  C:A001H         LINE#         1438
  C:A004H         LINE#         1439
  C:A004H         LINE#         1440
  C:A004H         LINE#         1441
  C:A009H         LINE#         1442
  -------         ENDPROC       _RESPUESTA_PLACA_CANCEL
  -------         PROC          _ARMAR_TRAMA_TARJETA_SECTOR1_BLOQUE1_CAMCEL
  X:0013H         SYMBOL        Buffer_Write_MF
  -------         DO            
  X:0016H         SYMBOL        ID_CLIENTE
  D:0007H         SYMBOL        COD_PARK
  -------         ENDDO         
  C:9D8CH         LINE#         1445
  C:9D97H         LINE#         1446
  C:9D97H         LINE#         1450
  C:9D9AH         LINE#         1451
  C:9DA7H         LINE#         1452
  C:9DB0H         LINE#         1454
  C:9DC0H         LINE#         1455
  C:9DD2H         LINE#         1456
  C:9DD9H         LINE#         1457
  C:9DE3H         LINE#         1458
  C:9DEAH         LINE#         1459
  C:9DF1H         LINE#         1460
  C:9DF8H         LINE#         1461
  C:9DFFH         LINE#         1462
  C:9E06H         LINE#         1463
  C:9E0DH         LINE#         1464
  C:9E14H         LINE#         1465
  C:9E1BH         LINE#         1466
  C:9E22H         LINE#         1467
  C:9E29H         LINE#         1468
  -------         ENDPROC       _ARMAR_TRAMA_TARJETA_SECTOR1_BLOQUE1_CAMCEL
  -------         PROC          _ARMAR_TRAMA_TARJETA_SECTOR1_BLOQUE2
  X:0010H         SYMBOL        Atributos_Expedidor
  X:0013H         SYMBOL        Buffer_Write_MF
  C:5D00H         LINE#         1474
  C:5D0BH         LINE#         1475
  C:5D0BH         LINE#         1480
  C:5D2FH         LINE#         1481
  C:5D56H         LINE#         1482
BL51 BANKED LINKER/LOCATER V6.22.2.0                                                  06/11/2021  11:57:45  PAGE 121


  C:5D7DH         LINE#         1483
  C:5DA4H         LINE#         1484
  C:5DCBH         LINE#         1487
  C:5DD2H         LINE#         1488
  C:5DD9H         LINE#         1489
  C:5DE0H         LINE#         1491
  C:5DF5H         LINE#         1492
  C:5DF5H         LINE#         1493
  C:5E0CH         LINE#         1494
  C:5E25H         LINE#         1495
  C:5E25H         LINE#         1496
  C:5E28H         LINE#         1500
  C:5E28H         LINE#         1502
  C:5E57H         LINE#         1503
  C:5E86H         LINE#         1505
  C:5E9EH         LINE#         1506
  C:5E9EH         LINE#         1507
  C:5EABH         LINE#         1508
  C:5EADH         LINE#         1510
  C:5EADH         LINE#         1511
  C:5EBDH         LINE#         1512
  C:5EBDH         LINE#         1513
  C:5EBDH         LINE#         1515
  C:5ECFH         LINE#         1516
  C:5ED6H         LINE#         1517
  C:5EDDH         LINE#         1518
  C:5EE4H         LINE#         1519
  -------         ENDPROC       _ARMAR_TRAMA_TARJETA_SECTOR1_BLOQUE2
  -------         PROC          _ARMAR_TRAMA_TARJETA_SECTOR1_BLOQUE0
  X:000CH         SYMBOL        Buffer_Write_MF
  C:BF22H         LINE#         1521
  C:BF2DH         LINE#         1522
  C:BF2DH         LINE#         1524
  -------         ENDPROC       _ARMAR_TRAMA_TARJETA_SECTOR1_BLOQUE0
  -------         PROC          _ARMAR_TRAMA_PTO_PARALELO_EXPEDIDOR
  X:0009H         SYMBOL        Atributos_Expedidor
  X:000CH         SYMBOL        longitud_trama_pto_paralelo
  -------         DO            
  X:00BCH         SYMBOL        buffer
  X:000FH         SYMBOL        ticket
  X:001AH         SYMBOL        j
  -------         ENDDO         
  C:5287H         LINE#         1526
  C:5292H         LINE#         1527
  C:5292H         LINE#         1534
  C:5298H         LINE#         1535
  C:529CH         LINE#         1536
  C:529FH         LINE#         1537
  C:52ABH         LINE#         1538
  C:52C2H         LINE#         1539
  C:52D0H         LINE#         1541
  C:52E1H         LINE#         1543
  C:530DH         LINE#         1544
  C:5339H         LINE#         1545
  C:5365H         LINE#         1546
  C:5391H         LINE#         1547
  C:53BDH         LINE#         1548
BL51 BANKED LINKER/LOCATER V6.22.2.0                                                  06/11/2021  11:57:45  PAGE 122


  C:53D1H         LINE#         1558
  C:53E0H         LINE#         1559
  C:53E0H         LINE#         1560
  C:53E6H         LINE#         1561
  C:53E6H         LINE#         1562
  C:53FDH         LINE#         1563
  C:5413H         LINE#         1564
  C:5429H         LINE#         1565
  C:543FH         LINE#         1566
  C:5455H         LINE#         1567
  C:546AH         LINE#         1568
  C:546AH         LINE#         1569
  C:546CH         LINE#         1571
  C:546CH         LINE#         1572
  C:547FH         LINE#         1573
  C:547FH         LINE#         1574
  C:547FH         LINE#         1575
  C:5481H         LINE#         1577
  C:5481H         LINE#         1578
  C:5495H         LINE#         1579
  C:54A8H         LINE#         1580
  C:54A8H         LINE#         1581
  C:54B6H         LINE#         1582
  C:54C4H         LINE#         1583
  C:54D6H         LINE#         1585
  C:54DCH         LINE#         1586
  -------         ENDPROC       _ARMAR_TRAMA_PTO_PARALELO_EXPEDIDOR
  -------         PROC          _ARMAR_TRAMA_PTO_PARALELO_EXPEDIDOR_MENSUAL
  X:0009H         SYMBOL        Atributos_Expedidor
  X:000CH         SYMBOL        longitud_trama_pto_paralelo
  -------         DO            
  X:00D8H         SYMBOL        buffer
  -------         ENDDO         
  C:71FBH         LINE#         1587
  C:7206H         LINE#         1588
  C:7206H         LINE#         1594
  C:720CH         LINE#         1595
  C:7210H         LINE#         1596
  C:7225H         LINE#         1597
  C:722FH         LINE#         1598
  C:7239H         LINE#         1599
  C:7243H         LINE#         1603
  C:7254H         LINE#         1604
  C:7270H         LINE#         1605
  C:728CH         LINE#         1606
  C:72A8H         LINE#         1607
  C:72C4H         LINE#         1617
  C:72D0H         LINE#         1618
  C:72D0H         LINE#         1620
  C:72D7H         LINE#         1621
  C:72DBH         LINE#         1622
  C:72DFH         LINE#         1623
  C:72E3H         LINE#         1624
  C:72E7H         LINE#         1625
  C:72EBH         LINE#         1627
  C:72EBH         LINE#         1629
  C:7301H         LINE#         1630
BL51 BANKED LINKER/LOCATER V6.22.2.0                                                  06/11/2021  11:57:45  PAGE 123


  C:7301H         LINE#         1631
  C:7304H         LINE#         1632
  C:7306H         LINE#         1634
  C:7306H         LINE#         1635
  C:7309H         LINE#         1636
  C:7309H         LINE#         1638
  C:730FH         LINE#         1639
  C:7312H         LINE#         1640
  C:7322H         LINE#         1641
  C:7328H         LINE#         1642
  -------         ENDPROC       _ARMAR_TRAMA_PTO_PARALELO_EXPEDIDOR_MENSUAL
  -------         PROC          _ARMAR_TRAMA_MONITOR
  X:0005H         SYMBOL        Atributos_Expedidor
  -------         DO            
  X:00F4H         SYMBOL        buffer
  X:0008H         SYMBOL        ticket
  X:0013H         SYMBOL        j
  -------         ENDDO         
  C:4FE4H         LINE#         1643
  C:4FEFH         LINE#         1644
  C:4FEFH         LINE#         1650
  C:4FF4H         LINE#         1651
  C:4FFAH         LINE#         1652
  C:5002H         LINE#         1653
  C:5006H         LINE#         1654
  C:500FH         LINE#         1655
  C:500FH         LINE#         1656
  C:5012H         LINE#         1657
  C:5014H         LINE#         1659
  C:5014H         LINE#         1660
  C:5017H         LINE#         1661
  C:5017H         LINE#         1664
  C:501AH         LINE#         1665
  C:501AH         LINE#         1666
  C:501FH         LINE#         1667
  C:502BH         LINE#         1668
  C:5042H         LINE#         1669
  C:5045H         LINE#         1671
  C:5045H         LINE#         1672
  C:5060H         LINE#         1673
  C:506EH         LINE#         1674
  C:507CH         LINE#         1675
  C:5088H         LINE#         1676
  C:5096H         LINE#         1677
  C:50CFH         LINE#         1679
  C:50CFH         LINE#         1680
  C:50DDH         LINE#         1681
  C:50EEH         LINE#         1684
  C:511AH         LINE#         1685
  C:5138H         LINE#         1688
  C:5159H         LINE#         1689
  C:5177H         LINE#         1692
  C:5198H         LINE#         1693
  C:51B6H         LINE#         1696
  C:51D7H         LINE#         1697
  C:51F5H         LINE#         1700
  C:5216H         LINE#         1701
BL51 BANKED LINKER/LOCATER V6.22.2.0                                                  06/11/2021  11:57:45  PAGE 124


  C:5234H         LINE#         1702
  C:5247H         LINE#         1705
  C:5255H         LINE#         1707
  C:5263H         LINE#         1708
  C:5270H         LINE#         1709
  C:527CH         LINE#         1710
  C:5281H         LINE#         1711
  C:5286H         LINE#         1712
  -------         ENDPROC       _ARMAR_TRAMA_MONITOR
  -------         PROC          _ARMAR_TRAMA_PLACA
  X:0008H         SYMBOL        Buffer_Write_MF
  -------         DO            
  D:0006H         SYMBOL        j
  D:0007H         SYMBOL        len_placa
  -------         ENDDO         
  C:B335H         LINE#         1713
  C:B340H         LINE#         1714
  C:B340H         LINE#         1717
  C:B349H         LINE#         1718
  C:B350H         LINE#         1719
  C:B350H         LINE#         1720
  C:B36AH         LINE#         1721
  C:B36DH         LINE#         1722
  C:B379H         LINE#         1723
  C:B379H         LINE#         1724
  C:B38DH         LINE#         1725
  C:B390H         LINE#         1726
  -------         ENDPROC       _ARMAR_TRAMA_PLACA
  C:BB41H         SYMBOL        L?0402
  -------         PROC          L?0401
  -------         ENDPROC       L?0401
  C:BB41H         SYMBOL        L?0402
  -------         PROC          _LOAD_SECUENCIA_EXPEDIDOR
  D:0001H         SYMBOL        Secuencia_Expedidor
  D:0004H         SYMBOL        estadoactivo
  X:0007H         SYMBOL        estadoactual
  X:0009H         SYMBOL        estadofuturo
  C:BB5DH         LINE#         1727
  C:BB5DH         LINE#         1728
  C:BB5DH         LINE#         1729
  C:BB64H         LINE#         1730
  C:BB6CH         LINE#         1731
  C:BB77H         LINE#         1732
  C:BB7DH         LINE#         1733
  -------         ENDPROC       _LOAD_SECUENCIA_EXPEDIDOR
  -------         PROC          _DISPARO_LOCK_ENTRADA_VEHICULO
  X:0002H         SYMBOL        Nombre_Mensual
  -------         DO            
  X:0005H         SYMBOL        Estado_expedidor
  X:010CH         SYMBOL        take_card
  -------         ENDDO         
  C:A54AH         LINE#         1734
  C:A555H         LINE#         1735
  C:A555H         LINE#         1740
  C:A55EH         LINE#         1744
  C:A565H         LINE#         1745
  C:A565H         LINE#         1747
BL51 BANKED LINKER/LOCATER V6.22.2.0                                                  06/11/2021  11:57:45  PAGE 125


  C:A56EH         LINE#         1749
  C:A574H         LINE#         1750
  C:A576H         LINE#         1751
  C:A57BH         LINE#         1752
  C:A58BH         LINE#         1753
  C:A591H         LINE#         1756
  C:A593H         LINE#         1757
  C:A59BH         LINE#         1758
  C:A59BH         LINE#         1759
  C:A5A1H         LINE#         1760
  C:A5A1H         LINE#         1761
  C:A5AEH         LINE#         1762
  C:A5B3H         LINE#         1763
  C:A5B8H         LINE#         1764
  C:A5BAH         LINE#         1766
  C:A5BAH         LINE#         1767
  C:A5C0H         LINE#         1769
  C:A5C0H         LINE#         1771
  C:A5C6H         LINE#         1772
  C:A5CCH         LINE#         1774
  C:A5CEH         LINE#         1776
  C:A5CEH         LINE#         1777
  C:A5D4H         LINE#         1778
  C:A5D4H         LINE#         1780
  C:A5D4H         LINE#         1785
  C:A5D9H         LINE#         1786
  -------         ENDPROC       _DISPARO_LOCK_ENTRADA_VEHICULO
  -------         PROC          _SEND_PTO_PARALELO
  X:0002H         SYMBOL        Atributos_Expedidor
  -------         DO            
  X:0005H         SYMBOL        Trama_Expedidor
  X:0008H         SYMBOL        leng_trama_pto
  -------         ENDDO         
  C:9CE7H         LINE#         1787
  C:9CF2H         LINE#         1788
  C:9CF2H         LINE#         1791
  C:9CF5H         LINE#         1792
  C:9CF5H         LINE#         1793
  C:9D1CH         LINE#         1794
  C:9D1EH         LINE#         1796
  C:9D1EH         LINE#         1797
  C:9D45H         LINE#         1798
  C:9D48H         LINE#         1799
  C:9D48H         LINE#         1801
  C:9D59H         LINE#         1802
  C:9D62H         LINE#         1803
  C:9D79H         LINE#         1807
  C:9D7CH         LINE#         1808
  C:9D82H         LINE#         1809
  C:9D87H         LINE#         1810
  C:9D89H         LINE#         1811
  C:9D8BH         LINE#         1812
  -------         ENDPROC       _SEND_PTO_PARALELO
  -------         PROC          ENTREGA_CARD_CAPTURA
  -------         DO            
  X:0002H         SYMBOL        Estado_expedidor
  -------         ENDDO         
BL51 BANKED LINKER/LOCATER V6.22.2.0                                                  06/11/2021  11:57:45  PAGE 126


  C:A5DAH         LINE#         1816
  C:A5DAH         LINE#         1817
  C:A5DAH         LINE#         1821
  C:A5E3H         LINE#         1822
  C:A5E6H         LINE#         1823
  C:A5E9H         LINE#         1824
  C:A5E9H         LINE#         1825
  C:A5F3H         LINE#         1826
  C:A5F3H         LINE#         1827
  C:A5F5H         LINE#         1828
  C:A5F7H         LINE#         1829
  C:A600H         LINE#         1830
  C:A600H         LINE#         1831
  C:A600H         LINE#         1833
  C:A602H         LINE#         1835
  C:A602H         LINE#         1836
  C:A608H         LINE#         1837
  C:A608H         LINE#         1839
  C:A60EH         LINE#         1841
  C:A621H         LINE#         1842
  C:A621H         LINE#         1843
  C:A62EH         LINE#         1844
  C:A62EH         LINE#         1845
  C:A630H         LINE#         1846
  C:A639H         LINE#         1848
  C:A63BH         LINE#         1849
  C:A63BH         LINE#         1850
  C:A63DH         LINE#         1851
  C:A64AH         LINE#         1852
  C:A64AH         LINE#         1853
  C:A650H         LINE#         1854
  C:A650H         LINE#         1855
  C:A650H         LINE#         1857
  C:A652H         LINE#         1859
  C:A652H         LINE#         1860
  C:A654H         LINE#         1861
  C:A65DH         LINE#         1862
  C:A65FH         LINE#         1863
  C:A664H         LINE#         1864
  C:A664H         LINE#         1865
  C:A664H         LINE#         1867
  C:A669H         LINE#         1868
  -------         ENDPROC       ENTREGA_CARD_CAPTURA
  -------         PROC          _WAIT_PLACA
  X:0002H         SYMBOL        Atributos_Expedidor
  X:0005H         SYMBOL        Buffer_Write_MF
  -------         DO            
  X:0008H         SYMBOL        Estado_expedidor
  -------         ENDDO         
  C:982AH         LINE#         1869
  C:9835H         LINE#         1870
  C:9835H         LINE#         1873
  C:983EH         LINE#         1875
  C:9854H         LINE#         1876
  C:9854H         LINE#         1877
  C:9857H         LINE#         1878
  C:9857H         LINE#         1880
BL51 BANKED LINKER/LOCATER V6.22.2.0                                                  06/11/2021  11:57:45  PAGE 127


  C:985AH         LINE#         1881
  C:985AH         LINE#         1882
  C:985CH         LINE#         1884
  C:985FH         LINE#         1885
  C:985FH         LINE#         1886
  C:9887H         LINE#         1887
  C:9889H         LINE#         1890
  C:9889H         LINE#         1891
  C:988FH         LINE#         1892
  C:98A2H         LINE#         1893
  C:98A2H         LINE#         1894
  C:98AFH         LINE#         1895
  C:98AFH         LINE#         1896
  C:98BEH         LINE#         1897
  C:98C4H         LINE#         1898
  C:98C6H         LINE#         1899
  C:98D3H         LINE#         1900
  C:98D3H         LINE#         1901
  C:98D9H         LINE#         1902
  C:98D9H         LINE#         1903
  C:98D9H         LINE#         1904
  C:98D9H         LINE#         1905
  C:98DEH         LINE#         1906
  -------         ENDPROC       _WAIT_PLACA
  -------         PROC          _VALIDA_VEHICULO_CARD_MENSUAL
  X:0010H         SYMBOL        Atributos_Expedidor
  -------         DO            
  X:0013H         SYMBOL        Estado_expedidor
  -------         ENDDO         
  C:A270H         LINE#         1907
  C:A27BH         LINE#         1908
  C:A27BH         LINE#         1911
  C:A284H         LINE#         1912
  C:A299H         LINE#         1913
  C:A299H         LINE#         1914
  C:A29DH         LINE#         1915
  C:A29FH         LINE#         1917
  C:A29FH         LINE#         1918
  C:A2A6H         LINE#         1919
  C:A2A6H         LINE#         1921
  C:A2AFH         LINE#         1922
  C:A2BDH         LINE#         1923
  C:A2BDH         LINE#         1924
  C:A2D6H         LINE#         1925
  C:A2D6H         LINE#         1926
  C:A2DCH         LINE#         1927
  C:A2DCH         LINE#         1928
  C:A2DEH         LINE#         1931
  C:A2DEH         LINE#         1932
  C:A2E3H         LINE#         1933
  C:A2ECH         LINE#         1934
  C:A2F1H         LINE#         1935
  C:A2F1H         LINE#         1936
  C:A2F3H         LINE#         1938
  C:A2F3H         LINE#         1939
  C:A2FCH         LINE#         1940
  C:A302H         LINE#         1941
BL51 BANKED LINKER/LOCATER V6.22.2.0                                                  06/11/2021  11:57:45  PAGE 128


  C:A302H         LINE#         1942
  C:A307H         LINE#         1943
  -------         ENDPROC       _VALIDA_VEHICULO_CARD_MENSUAL
  -------         PROC          _TARJETA_MENSUAL
  X:0009H         SYMBOL        Atributos_Expedidor
  X:000CH         SYMBOL        Buffer_Write_MF
  -------         DO            
  X:000FH         SYMBOL        Estado_expedidor
  -------         ENDDO         
  C:90BEH         LINE#         1944
  C:90C9H         LINE#         1945
  C:90C9H         LINE#         1950
  C:90D4H         LINE#         1951
  C:90D4H         LINE#         1952
  C:90F2H         LINE#         1953
  C:90F2H         LINE#         1955
  C:9103H         LINE#         1956
  C:9103H         LINE#         1957
  C:910BH         LINE#         1958
  C:910DH         LINE#         1960
  C:910DH         LINE#         1961
  C:9116H         LINE#         1962
  C:9126H         LINE#         1963
  C:9139H         LINE#         1964
  C:9159H         LINE#         1965
  C:915FH         LINE#         1966
  C:915FH         LINE#         1967
  C:9161H         LINE#         1969
  C:9161H         LINE#         1970
  C:9166H         LINE#         1972
  C:916BH         LINE#         1973
  C:9174H         LINE#         1974
  C:9174H         LINE#         1975
  C:9174H         LINE#         1976
  C:9176H         LINE#         1978
  C:9176H         LINE#         1980
  C:917CH         LINE#         1981
  C:917CH         LINE#         1982
  C:9181H         LINE#         1983
  -------         ENDPROC       _TARJETA_MENSUAL
  -------         PROC          _TARJETA_ROTACION
  D:0001H         SYMBOL        Atributos_Expedidor
  X:000CH         SYMBOL        Buffer_Write_MF
  C:BE19H         LINE#         1984
  C:BE19H         LINE#         1985
  C:BE19H         LINE#         1986
  C:BE1EH         LINE#         1987
  C:BE27H         LINE#         1988
  C:BE47H         LINE#         1989
  C:BE49H         LINE#         1992
  -------         ENDPROC       _TARJETA_ROTACION
  -------         PROC          _VALIDA_TIPO_TARJETA
  X:0002H         SYMBOL        Atributos_Expedidor
  X:0005H         SYMBOL        Buffer_Write_MF
  -------         DO            
  X:0008H         SYMBOL        Estado_expedidor
  -------         ENDDO         
BL51 BANKED LINKER/LOCATER V6.22.2.0                                                  06/11/2021  11:57:45  PAGE 129


  C:6455H         LINE#         1993
  C:6460H         LINE#         1994
  C:6460H         LINE#         1996
  C:646DH         LINE#         1997
  C:646DH         LINE#         1998
  C:6476H         LINE#         1999
  C:647CH         LINE#         2000
  C:647CH         LINE#         2004
  C:648AH         LINE#         2005
  C:648AH         LINE#         2008
  C:64A7H         LINE#         2009
  C:64A7H         LINE#         2010
  C:64C4H         LINE#         2012
  C:64C6H         LINE#         2014
  C:64C6H         LINE#         2015
  C:64CFH         LINE#         2016
  C:64D1H         LINE#         2017
  C:64D1H         LINE#         2018
  C:64D1H         LINE#         2019
  C:64D4H         LINE#         2022
  C:64D4H         LINE#         2023
  C:64DDH         LINE#         2025
  C:6500H         LINE#         2026
  C:6500H         LINE#         2027
  C:6503H         LINE#         2029
  C:6503H         LINE#         2030
  C:6508H         LINE#         2031
  C:650DH         LINE#         2032
  C:6510H         LINE#         2033
  C:6510H         LINE#         2034
  C:6513H         LINE#         2035
  C:652BH         LINE#         2036
  C:652BH         LINE#         2038
  C:6534H         LINE#         2039
  C:653AH         LINE#         2040
  C:653AH         LINE#         2041
  C:6546H         LINE#         2042
  C:6546H         LINE#         2043
  C:6563H         LINE#         2045
  C:6563H         LINE#         2046
  C:6583H         LINE#         2047
  C:6585H         LINE#         2049
  C:6585H         LINE#         2050
  C:658EH         LINE#         2051
  C:6593H         LINE#         2052
  C:6598H         LINE#         2053
  C:659BH         LINE#         2054
  C:659BH         LINE#         2055
  C:659DH         LINE#         2057
  C:659DH         LINE#         2058
  C:65A6H         LINE#         2059
  C:65C9H         LINE#         2060
  C:65C9H         LINE#         2061
  C:65CBH         LINE#         2063
  C:65CBH         LINE#         2065
  C:65D0H         LINE#         2066
  C:65D5H         LINE#         2067
BL51 BANKED LINKER/LOCATER V6.22.2.0                                                  06/11/2021  11:57:45  PAGE 130


  C:65DBH         LINE#         2068
  C:65DBH         LINE#         2069
  C:65DDH         LINE#         2071
  C:65DDH         LINE#         2072
  C:65E6H         LINE#         2073
  C:65EBH         LINE#         2075
  C:65F3H         LINE#         2076
  C:65F3H         LINE#         2078
  C:65F8H         LINE#         2079
  -------         ENDPROC       _VALIDA_TIPO_TARJETA
  -------         PROC          _HORARIOS
  X:0010H         SYMBOL        Atributos_Expedidor
  -------         DO            
  X:0013H         SYMBOL        Estado_Horario
  X:0014H         SYMBOL        Addr_horarios
  X:001FH         SYMBOL        dia_semana
  X:0020H         SYMBOL        EE_dia_semana
  X:0021H         SYMBOL        addr
  -------         ENDDO         
  C:79EDH         LINE#         2173
  C:79F8H         LINE#         2174
  C:79F8H         LINE#         2180
  C:7A03H         LINE#         2181
  C:7A03H         LINE#         2183
  C:7A0FH         LINE#         2185
  C:7A35H         LINE#         2189
  C:7A48H         LINE#         2190
  C:7A48H         LINE#         2192
  C:7A52H         LINE#         2193
  C:7A5BH         LINE#         2194
  C:7A63H         LINE#         2195
  C:7A6CH         LINE#         2198
  C:7A91H         LINE#         2199
  C:7A9AH         LINE#         2200
  C:7AA2H         LINE#         2201
  C:7AABH         LINE#         2203
  C:7AB5H         LINE#         2204
  C:7AB5H         LINE#         2206
  C:7AC3H         LINE#         2207
  C:7AC5H         LINE#         2209
  C:7AC5H         LINE#         2211
  C:7ACEH         LINE#         2212
  C:7AD3H         LINE#         2213
  C:7AD3H         LINE#         2214
  C:7AD5H         LINE#         2216
  C:7AD5H         LINE#         2218
  C:7ADAH         LINE#         2219
  C:7ADFH         LINE#         2220
  C:7AE5H         LINE#         2222
  C:7AE5H         LINE#         2224
  C:7AE7H         LINE#         2226
  C:7AE7H         LINE#         2227
  C:7AEDH         LINE#         2229
  C:7AF6H         LINE#         2230
  C:7AF6H         LINE#         2231
  C:7AFBH         LINE#         2232
  -------         ENDPROC       _HORARIOS
BL51 BANKED LINKER/LOCATER V6.22.2.0                                                  06/11/2021  11:57:45  PAGE 131


  -------         PROC          _HORA_MAXIMA
  X:002FH         SYMBOL        addr
  -------         DO            
  X:0031H         SYMBOL        Hora_High
  X:0032H         SYMBOL        Minuto_High
  X:0033H         SYMBOL        HoraIni
  X:0034H         SYMBOL        MinutoIni
  X:0035H         SYMBOL        Hora_Prog
  -------         ENDDO         
  C:9A42H         LINE#         2233
  C:9A4AH         LINE#         2234
  C:9A4AH         LINE#         2239
  C:9A5FH         LINE#         2240
  C:9A7FH         LINE#         2241
  C:9A9CH         LINE#         2242
  C:9ABCH         LINE#         2243
  C:9AC4H         LINE#         2244
  C:9ACCH         LINE#         2245
  C:9AD5H         LINE#         2247
  C:9AEDH         LINE#         2248
  -------         ENDPROC       _HORA_MAXIMA
  -------         PROC          _EN_HORARIO
  X:002AH         SYMBOL        HoraNow
  D:0004H         SYMBOL        Hora_Prog
  X:002CH         SYMBOL        addr
  -------         DO            
  X:002EH         SYMBOL        Estado_Horario
  -------         ENDDO         
  C:AF90H         LINE#         2249
  C:AF9EH         LINE#         2250
  C:AF9EH         LINE#         2253
  C:AFABH         LINE#         2254
  C:AFABH         LINE#         2257
  C:AFB4H         LINE#         2258
  C:AFC9H         LINE#         2261
  C:AFD8H         LINE#         2262
  C:AFD8H         LINE#         2264
  C:AFDFH         LINE#         2265
  C:AFE5H         LINE#         2266
  C:AFE7H         LINE#         2268
  C:AFE7H         LINE#         2271
  C:AFEBH         LINE#         2272
  C:AFEBH         LINE#         2273
  C:AFEBH         LINE#         2275
  C:AFEDH         LINE#         2277
  C:AFEDH         LINE#         2280
  C:AFF6H         LINE#         2281
  C:AFFBH         LINE#         2283
  C:AFFBH         LINE#         2284
  C:B000H         LINE#         2285
  -------         ENDPROC       _EN_HORARIO
  -------         PROC          _BLOQUE_HORARIO
  X:0023H         SYMBOL        addr
  -------         DO            
  X:0025H         SYMBOL        Estado_Horario
  X:0026H         SYMBOL        HoraNow
  X:0028H         SYMBOL        Hora_Prog
BL51 BANKED LINKER/LOCATER V6.22.2.0                                                  06/11/2021  11:57:45  PAGE 132


  -------         ENDDO         
  C:83ECH         LINE#         2287
  C:83F4H         LINE#         2288
  C:83F4H         LINE#         2294
  C:83FDH         LINE#         2295
  C:8405H         LINE#         2296
  C:840DH         LINE#         2297
  C:8416H         LINE#         2298
  C:843DH         LINE#         2303
  C:8446H         LINE#         2304
  C:845BH         LINE#         2305
  C:8473H         LINE#         2306
  C:8475H         LINE#         2307
  C:8475H         LINE#         2310
  C:848DH         LINE#         2311
  C:848DH         LINE#         2312
  C:8496H         LINE#         2313
  C:84B1H         LINE#         2314
  C:84CFH         LINE#         2315
  C:84D1H         LINE#         2317
  C:84D1H         LINE#         2318
  C:84D6H         LINE#         2319
  C:84DBH         LINE#         2320
  C:84E0H         LINE#         2321
  C:84E0H         LINE#         2322
  C:84E0H         LINE#         2324
  C:84E7H         LINE#         2325
  -------         ENDPROC       _BLOQUE_HORARIO
  -------         PROC          SECUENCIA_INICIO_EXPEDIDOR
  -------         DO            
  X:0001H         SYMBOL        temp
  -------         ENDDO         
  C:6E4AH         LINE#         2334
  C:6E4AH         LINE#         2335
  C:6E4AH         LINE#         2337
  C:6E6AH         LINE#         2338
  C:6E6AH         LINE#         2339
  C:6E6AH         LINE#         2342
  C:6E6FH         LINE#         2343
  C:6E75H         LINE#         2346
  C:6E77H         LINE#         2347
  C:6E77H         LINE#         2358
  C:6E77H         LINE#         2360
  C:6E85H         LINE#         2361
  C:6E85H         LINE#         2362
  C:6E91H         LINE#         2363
  C:6E91H         LINE#         2364
  C:6E97H         LINE#         2365
  C:6E9AH         LINE#         2366
  C:6EA2H         LINE#         2367
  C:6EA2H         LINE#         2368
  C:6EA9H         LINE#         2369
  C:6EBDH         LINE#         2370
  C:6EBDH         LINE#         2371
  C:6EBFH         LINE#         2373
  C:6EBFH         LINE#         2374
  C:6EC6H         LINE#         2375
BL51 BANKED LINKER/LOCATER V6.22.2.0                                                  06/11/2021  11:57:45  PAGE 133


  C:6ECCH         LINE#         2376
  C:6ECCH         LINE#         2377
  C:6ECFH         LINE#         2379
  C:6ECFH         LINE#         2380
  C:6ED8H         LINE#         2381
  C:6EECH         LINE#         2382
  C:6EF2H         LINE#         2383
  C:6EF2H         LINE#         2384
  C:6EF5H         LINE#         2385
  C:6EF5H         LINE#         2391
  C:6EF5H         LINE#         2393
  C:6EF8H         LINE#         2394
  C:6EFEH         LINE#         2398
  C:6F00H         LINE#         2399
  C:6F00H         LINE#         2409
  C:6F00H         LINE#         2411
  C:6F0EH         LINE#         2412
  C:6F0EH         LINE#         2413
  C:6F1AH         LINE#         2414
  C:6F1AH         LINE#         2415
  C:6F20H         LINE#         2416
  C:6F22H         LINE#         2417
  C:6F2AH         LINE#         2418
  C:6F2AH         LINE#         2419
  C:6F31H         LINE#         2420
  C:6F45H         LINE#         2421
  C:6F45H         LINE#         2422
  C:6F47H         LINE#         2424
  C:6F47H         LINE#         2425
  C:6F4EH         LINE#         2426
  C:6F54H         LINE#         2427
  C:6F54H         LINE#         2428
  C:6F56H         LINE#         2430
  C:6F56H         LINE#         2431
  C:6F5FH         LINE#         2432
  C:6F73H         LINE#         2433
  C:6F78H         LINE#         2434
  C:6F78H         LINE#         2436
  C:6F7AH         LINE#         2437
  C:6F7AH         LINE#         2443
  C:6F7AH         LINE#         2445
  C:6F80H         LINE#         2446
  C:6F80H         LINE#         2449
  C:6F80H         LINE#         2450
  C:6F87H         LINE#         2451
  C:6F87H         LINE#         2452
  C:6F87H         LINE#         2453
  -------         ENDPROC       SECUENCIA_INICIO_EXPEDIDOR
  -------         PROC          _SECUENCIAEXPEDIDORMF
  X:0001H         SYMBOL        EstadoActivo
  -------         DO            
  X:010DH         SYMBOL        Buffer_Write_MF
  X:011EH         SYMBOL        Atributos_Expedidor
  X:0132H         SYMBOL        Secuencia_Expedidor
  X:0136H         SYMBOL        Nombre_Mensual
  -------         ENDDO         
  C:3ADCH         LINE#         2463
BL51 BANKED LINKER/LOCATER V6.22.2.0                                                  06/11/2021  11:57:45  PAGE 134


  C:3AE1H         LINE#         2464
  C:3AE1H         LINE#         2470
  C:3B44H         LINE#         2471
  C:3B44H         LINE#         2474
  C:3B44H         LINE#         2476
  C:3B54H         LINE#         2477
  C:3B54H         LINE#         2480
  C:3B56H         LINE#         2481
  C:3B58H         LINE#         2482
  C:3B5DH         LINE#         2483
  C:3B65H         LINE#         2484
  C:3B6AH         LINE#         2485
  C:3B6DH         LINE#         2486
  C:3B6DH         LINE#         2487
  C:3B73H         LINE#         2488
  C:3B73H         LINE#         2489
  C:3B76H         LINE#         2490
  C:3B76H         LINE#         2491
  C:3B76H         LINE#         2493
  C:3B79H         LINE#         2494
  C:3B79H         LINE#         2496
  C:3B82H         LINE#         2497
  C:3B85H         LINE#         2498
  C:3B85H         LINE#         2499
  C:3B8AH         LINE#         2500
  C:3BAAH         LINE#         2501
  C:3BADH         LINE#         2502
  C:3BADH         LINE#         2503
  C:3BB2H         LINE#         2504
  C:3BBAH         LINE#         2505
  C:3BC0H         LINE#         2506
  C:3BC3H         LINE#         2507
  C:3BC3H         LINE#         2508
  C:3BC6H         LINE#         2509
  C:3BCEH         LINE#         2510
  C:3BD4H         LINE#         2511
  C:3BD7H         LINE#         2512
  C:3BD7H         LINE#         2513
  C:3BDAH         LINE#         2514
  C:3BFFH         LINE#         2515
  C:3C05H         LINE#         2516
  C:3C07H         LINE#         2517
  C:3C0AH         LINE#         2518
  C:3C0AH         LINE#         2519
  C:3C15H         LINE#         2520
  C:3C1DH         LINE#         2521
  C:3C23H         LINE#         2522
  C:3C26H         LINE#         2523
  C:3C26H         LINE#         2524
  C:3C37H         LINE#         2525
  C:3C3FH         LINE#         2526
  C:3C45H         LINE#         2527
  C:3C48H         LINE#         2528
  C:3C48H         LINE#         2529
  C:3C4DH         LINE#         2530
  C:3C6BH         LINE#         2531
  C:3C6EH         LINE#         2532
BL51 BANKED LINKER/LOCATER V6.22.2.0                                                  06/11/2021  11:57:45  PAGE 135


  C:3C6EH         LINE#         2533
  C:3C73H         LINE#         2534
  C:3C93H         LINE#         2535
  C:3C96H         LINE#         2536
  C:3C96H         LINE#         2537
  C:3C9BH         LINE#         2538
  C:3C9DH         LINE#         2539
  C:3CBBH         LINE#         2540
  C:3CBEH         LINE#         2541
  C:3CBEH         LINE#         2542
  C:3CC3H         LINE#         2543
  C:3CE3H         LINE#         2544
  C:3CE6H         LINE#         2545
  C:3CE6H         LINE#         2546
  C:3CF9H         LINE#         2547
  C:3CF9H         LINE#         2548
  C:3CFEH         LINE#         2549
  C:3D06H         LINE#         2550
  C:3D0CH         LINE#         2551
  C:3D0CH         LINE#         2552
  C:3D0FH         LINE#         2553
  C:3D0FH         LINE#         2554
  C:3D22H         LINE#         2555
  C:3D22H         LINE#         2556
  C:3D27H         LINE#         2557
  C:3D2AH         LINE#         2558
  C:3D2AH         LINE#         2559
  C:3D2DH         LINE#         2560
  C:3D2DH         LINE#         2561
  C:3D30H         LINE#         2562
  C:3D50H         LINE#         2563
  C:3D53H         LINE#         2564
  C:3D53H         LINE#         2565
  C:3D55H         LINE#         2566
  C:3D58H         LINE#         2567
  C:3D5BH         LINE#         2568
  C:3D5BH         LINE#         2569
  C:3D64H         LINE#         2570
  C:3D67H         LINE#         2571
  C:3D67H         LINE#         2572
  C:3D7EH         LINE#         2573
  C:3D81H         LINE#         2574
  C:3D81H         LINE#         2575
  C:3D84H         LINE#         2576
  C:3D8CH         LINE#         2577
  C:3D92H         LINE#         2578
  C:3D95H         LINE#         2579
  C:3D95H         LINE#         2580
  C:3D9EH         LINE#         2581
  C:3DA1H         LINE#         2582
  C:3DA1H         LINE#         2583
  C:3DA3H         LINE#         2584
  C:3DA6H         LINE#         2585
  C:3DA9H         LINE#         2586
  C:3DA9H         LINE#         2587
  C:3DC0H         LINE#         2588
  C:3DC3H         LINE#         2589
BL51 BANKED LINKER/LOCATER V6.22.2.0                                                  06/11/2021  11:57:45  PAGE 136


  C:3DC3H         LINE#         2590
  C:3DC8H         LINE#         2591
  C:3DD0H         LINE#         2592
  C:3DD6H         LINE#         2593
  C:3DD9H         LINE#         2594
  C:3DD9H         LINE#         2595
  C:3DDCH         LINE#         2596
  C:3DFCH         LINE#         2597
  C:3DFFH         LINE#         2598
  C:3DFFH         LINE#         2599
  C:3E02H         LINE#         2600
  C:3E22H         LINE#         2601
  C:3E25H         LINE#         2602
  C:3E25H         LINE#         2603
  C:3E28H         LINE#         2604
  C:3E30H         LINE#         2605
  C:3E33H         LINE#         2606
  C:3E35H         LINE#         2607
  C:3E35H         LINE#         2609
  C:3E40H         LINE#         2610
  C:3E48H         LINE#         2611
  C:3E5CH         LINE#         2612
  C:3E5FH         LINE#         2616
  C:3E5FH         LINE#         2617
  C:3E65H         LINE#         2618
  C:3E6BH         LINE#         2619
  C:3E6BH         LINE#         2620
  C:3E73H         LINE#         2621
  C:3E79H         LINE#         2623
  C:3E7CH         LINE#         2624
  C:3E84H         LINE#         2625
  C:3E84H         LINE#         2627
  C:3E87H         LINE#         2628
  C:3E8AH         LINE#         2629
  C:3E92H         LINE#         2630
  C:3E92H         LINE#         2631
  C:3EA0H         LINE#         2632
  C:3EA0H         LINE#         2633
  C:3EA9H         LINE#         2634
  C:3EACH         LINE#         2635
  C:3EB8H         LINE#         2636
  C:3EB8H         LINE#         2637
  C:3EC1H         LINE#         2638
  C:3EC4H         LINE#         2640
  C:3EC4H         LINE#         2641
  C:3ECDH         LINE#         2642
  C:3ECDH         LINE#         2643
  C:3ED0H         LINE#         2644
  C:3ED8H         LINE#         2645
  C:3ED8H         LINE#         2646
  C:3EE6H         LINE#         2647
  C:3EE6H         LINE#         2648
  C:3EFCH         LINE#         2649
  C:3EFFH         LINE#         2650
  C:3F0BH         LINE#         2651
  C:3F0BH         LINE#         2652
  C:3F14H         LINE#         2653
BL51 BANKED LINKER/LOCATER V6.22.2.0                                                  06/11/2021  11:57:45  PAGE 137


  C:3F17H         LINE#         2654
  C:3F25H         LINE#         2655
  C:3F25H         LINE#         2656
  C:3F2EH         LINE#         2657
  C:3F30H         LINE#         2659
  C:3F30H         LINE#         2660
  C:3F39H         LINE#         2661
  C:3F39H         LINE#         2662
  C:3F3BH         LINE#         2663
  C:3F43H         LINE#         2664
  C:3F43H         LINE#         2665
  C:3F4CH         LINE#         2666
  C:3F4EH         LINE#         2667
  C:3F56H         LINE#         2668
  C:3F56H         LINE#         2669
  C:3F6CH         LINE#         2670
  C:3F6EH         LINE#         2671
  C:3F76H         LINE#         2672
  C:3F76H         LINE#         2673
  C:3F79H         LINE#         2674
  C:3F7BH         LINE#         2676
  C:3F83H         LINE#         2677
  C:3F83H         LINE#         2678
  C:3F8CH         LINE#         2679
  C:3F8EH         LINE#         2682
  C:3F96H         LINE#         2683
  C:3F96H         LINE#         2684
  C:3F9EH         LINE#         2685
  C:3FA0H         LINE#         2687
  C:3FA0H         LINE#         2688
  C:3FA9H         LINE#         2689
  C:3FA9H         LINE#         2690
  C:3FABH         LINE#         2691
  C:3FABH         LINE#         2692
  C:3FB0H         LINE#         2693
  C:3FB0H         LINE#         2695
  C:3FB0H         LINE#         2696
  C:3FB5H         LINE#         2697
  -------         ENDPROC       _SECUENCIAEXPEDIDORMF
  -------         ENDMOD        VERIFICADOR

  -------         MODULE        MONITOR
  C:0000H         SYMBOL        _ICE_DUMMY_
  D:0080H         PUBLIC        P0
  D:0090H         PUBLIC        P1
  I:0011H         PUBLIC        placa
  C:BFBDH         PUBLIC        Rx_Monitor
  B:0080H.0       PUBLIC        rx_ip
  B:0090H.7       PUBLIC        lock
  C:9307H         PUBLIC        _recibe_cmd_Monitor
  C:C122H         PUBLIC        clear_placa
  C:9600H         PUBLIC        _Valida_Trama_Monitor
  -------         PROC          _RECIBE_CMD_MONITOR
  X:0016H         SYMBOL        buffer_cmd
  -------         DO            
  X:0019H         SYMBOL        j
  X:001AH         SYMBOL        NumDatos
BL51 BANKED LINKER/LOCATER V6.22.2.0                                                  06/11/2021  11:57:45  PAGE 138


  X:001BH         SYMBOL        time_out
  X:001CH         SYMBOL        MaxChrRx
  X:001DH         SYMBOL        contador
  -------         ENDDO         
  C:9307H         LINE#         50
  C:9312H         LINE#         51
  C:9312H         LINE#         55
  C:9317H         LINE#         56
  C:931DH         LINE#         58
  C:9328H         LINE#         59
  C:9328H         LINE#         60
  C:9339H         LINE#         61
  C:9339H         LINE#         62
  C:9340H         LINE#         63
  C:9344H         LINE#         64
  C:934DH         LINE#         65
  C:934DH         LINE#         66
  C:935BH         LINE#         67
  C:9372H         LINE#         68
  C:9372H         LINE#         69
  C:9378H         LINE#         70
  C:937EH         LINE#         71
  C:937EH         LINE#         72
  C:9380H         LINE#         73
  C:9388H         LINE#         74
  C:938EH         LINE#         75
  C:93A0H         LINE#         76
  C:93AAH         LINE#         77
  C:93B3H         LINE#         79
  C:93C2H         LINE#         82
  C:93C2H         LINE#         83
  C:93C7H         LINE#         84
  -------         ENDPROC       _RECIBE_CMD_MONITOR
  -------         PROC          _VALIDA_TRAMA_MONITOR
  X:0016H         SYMBOL        buffer
  D:0005H         SYMBOL        length_trama
  -------         DO            
  X:0019H         SYMBOL        j
  X:001AH         SYMBOL        p
  X:001BH         SYMBOL        cont
  -------         ENDDO         
  C:9600H         LINE#         89
  C:960BH         LINE#         90
  C:960BH         LINE#         91
  C:960EH         LINE#         92
  C:9612H         LINE#         93
  C:9615H         LINE#         94
  C:9617H         LINE#         97
  C:962BH         LINE#         98
  C:962BH         LINE#         100
  C:962DH         LINE#         102
  C:9634H         LINE#         103
  C:9639H         LINE#         106
  C:9639H         LINE#         108
  C:9654H         LINE#         109
  C:9654H         LINE#         112
  C:9654H         LINE#         113
BL51 BANKED LINKER/LOCATER V6.22.2.0                                                  06/11/2021  11:57:45  PAGE 139


  C:9675H         LINE#         114
  C:9679H         LINE#         115
  C:967FH         LINE#         116
  C:9691H         LINE#         117
  C:96A9H         LINE#         118
  C:96B2H         LINE#         119
  C:96B4H         LINE#         120
  C:96BAH         LINE#         123
  C:96BAH         LINE#         126
  -------         ENDPROC       _VALIDA_TRAMA_MONITOR
  -------         PROC          CLEAR_PLACA
  -------         DO            
  D:0007H         SYMBOL        i
  -------         ENDDO         
  C:C122H         LINE#         127
  C:C122H         LINE#         128
  C:C122H         LINE#         130
  C:C12EH         LINE#         131
  C:C12EH         LINE#         132
  C:C134H         LINE#         133
  C:C137H         LINE#         134
  C:C139H         LINE#         135
  -------         ENDPROC       CLEAR_PLACA
  -------         PROC          RX_MONITOR
  -------         DO            
  X:0009H         SYMBOL        Length_trama
  X:000AH         SYMBOL        buffer1
  -------         ENDDO         
  C:BFBDH         LINE#         136
  C:BFBDH         LINE#         137
  C:BFBDH         LINE#         140
  C:BFCCH         LINE#         141
  C:BFD5H         LINE#         142
  -------         ENDPROC       RX_MONITOR
  -------         ENDMOD        MONITOR

  -------         MODULE        ?C?FPADD
  C:134FH         PUBLIC        ?C?FPADD
  C:134BH         PUBLIC        ?C?FPSUB
  -------         ENDMOD        ?C?FPADD

  -------         MODULE        ?C?FPMUL
  C:1440H         PUBLIC        ?C?FPMUL
  -------         ENDMOD        ?C?FPMUL

  -------         MODULE        ?C?FCAST
  C:1550H         PUBLIC        ?C?FCASTC
  C:154BH         PUBLIC        ?C?FCASTI
  C:1546H         PUBLIC        ?C?FCASTL
  -------         ENDMOD        ?C?FCAST

  -------         MODULE        ?C?CASTF
  C:1584H         PUBLIC        ?C?CASTF
  -------         ENDMOD        ?C?CASTF

  -------         MODULE        PRINTF
  X:0077H         PUBLIC        ?_PRINTF?BYTE
BL51 BANKED LINKER/LOCATER V6.22.2.0                                                  06/11/2021  11:57:45  PAGE 140


  X:0077H         PUBLIC        ?_SPRINTF?BYTE
  C:4021H         PUBLIC        _PRINTF
  C:401BH         PUBLIC        _SPRINTF
  -------         ENDMOD        PRINTF

  -------         MODULE        POW
  X:0021H         PUBLIC        ?_pow?BYTE
  C:690AH         PUBLIC        _pow
  -------         ENDMOD        POW

  -------         MODULE        ?C?CHKFLOAT
  C:1605H         PUBLIC        ?C?CHKFLOAT
  -------         ENDMOD        ?C?CHKFLOAT

  -------         MODULE        ?C?FPCMP
  C:1621H         PUBLIC        ?C?FPCMP
  C:161FH         PUBLIC        ?C?FPCMP3
  -------         ENDMOD        ?C?FPCMP

  -------         MODULE        ?C?FPNEG
  C:1698H         PUBLIC        ?C?FPNEG
  -------         ENDMOD        ?C?FPNEG

  -------         MODULE        ?C?FPROUND
  C:16A9H         PUBLIC        ?C?FPROUND
  -------         ENDMOD        ?C?FPROUND

  -------         MODULE        ?C?FPCONVERT
  C:16E6H         PUBLIC        ?C?FPCONVERT
  -------         ENDMOD        ?C?FPCONVERT

  -------         MODULE        EXP
  C:A0DCH         PUBLIC        _EXP
  -------         ENDMOD        EXP

  -------         MODULE        LOG
  C:7488H         PUBLIC        _LOG
  C:7484H         PUBLIC        _LOG10
  -------         ENDMOD        LOG

  -------         MODULE        ?C?FPDIV
  C:17EEH         PUBLIC        ?C?FPDIV
  -------         ENDMOD        ?C?FPDIV

  -------         MODULE        ?C?FTNPWR
  C:18BBH         PUBLIC        ?C?FTNPWR
  -------         ENDMOD        ?C?FTNPWR

  -------         MODULE        ?C?COPY
  C:1A18H         PUBLIC        ?C?COPY
  -------         ENDMOD        ?C?COPY

  -------         MODULE        ?C?CLDPTR
  C:1A3EH         PUBLIC        ?C?CLDPTR
  -------         ENDMOD        ?C?CLDPTR

  -------         MODULE        ?C?CLDOPTR
BL51 BANKED LINKER/LOCATER V6.22.2.0                                                  06/11/2021  11:57:45  PAGE 141


  C:1A57H         PUBLIC        ?C?CLDOPTR
  -------         ENDMOD        ?C?CLDOPTR

  -------         MODULE        ?C?CSTPTR
  C:1A84H         PUBLIC        ?C?CSTPTR
  -------         ENDMOD        ?C?CSTPTR

  -------         MODULE        ?C?CSTOPTR
  C:1A96H         PUBLIC        ?C?CSTOPTR
  -------         ENDMOD        ?C?CSTOPTR

  -------         MODULE        ?C?IMUL
  C:1AB8H         PUBLIC        ?C?IMUL
  -------         ENDMOD        ?C?IMUL

  -------         MODULE        ?C?IILDX
  C:1ACAH         PUBLIC        ?C?IILDX
  -------         ENDMOD        ?C?IILDX

  -------         MODULE        ?C?LNEG
  C:1AE0H         PUBLIC        ?C?LNEG
  -------         ENDMOD        ?C?LNEG

  -------         MODULE        ?C?SLCMP
  C:1AEEH         PUBLIC        ?C?SLCMP
  -------         ENDMOD        ?C?SLCMP

  -------         MODULE        ?C?ULCMP
  C:1B04H         PUBLIC        ?C?ULCMP
  -------         ENDMOD        ?C?ULCMP

  -------         MODULE        ?C?ULSHR
  C:1B15H         PUBLIC        ?C?ULSHR
  -------         ENDMOD        ?C?ULSHR

  -------         MODULE        ?C?LSHL
  C:1B28H         PUBLIC        ?C?LSHL
  -------         ENDMOD        ?C?LSHL

  -------         MODULE        ?C?LLDCODE
  C:1B3BH         PUBLIC        ?C?LLDCODE
  -------         ENDMOD        ?C?LLDCODE

  -------         MODULE        ?C?LLDXDATA0
  C:1B4BH         PUBLIC        ?C?LLDXDATA0
  -------         ENDMOD        ?C?LLDXDATA0

  -------         MODULE        ?C?LLDCODE0
  C:1B57H         PUBLIC        ?C?LLDCODE0
  -------         ENDMOD        ?C?LLDCODE0

  -------         MODULE        ?C?LSTXDATA
  C:1B67H         PUBLIC        ?C?LSTXDATA
  -------         ENDMOD        ?C?LSTXDATA

  -------         MODULE        ?C?LSTKXDATA
  C:1B73H         PUBLIC        ?C?LSTKXDATA
BL51 BANKED LINKER/LOCATER V6.22.2.0                                                  06/11/2021  11:57:45  PAGE 142


  -------         ENDMOD        ?C?LSTKXDATA

  -------         MODULE        ?C?PLDIXDATA
  C:1BA4H         PUBLIC        ?C?PLDIXDATA
  -------         ENDMOD        ?C?PLDIXDATA

  -------         MODULE        ?C?PSTXDATA
  C:1BBBH         PUBLIC        ?C?PSTXDATA
  -------         ENDMOD        ?C?PSTXDATA

  -------         MODULE        ?C?CCASE
  C:1BC4H         PUBLIC        ?C?CCASE
  -------         ENDMOD        ?C?CCASE

  -------         MODULE        STRCAT
  X:0048H         PUBLIC        ?_strcat?BYTE
  C:B147H         PUBLIC        _strcat
  -------         ENDMOD        STRCAT

  -------         MODULE        ?C?STRCMP
  C:1D68H         PUBLIC        ?C?STRCMP
  -------         ENDMOD        ?C?STRCMP

  -------         MODULE        ?C?STRCPY
  C:1E51H         PUBLIC        ?C?STRCPY
  -------         ENDMOD        ?C?STRCPY

  -------         MODULE        STRLEN
  C:000EH         PUBLIC        _STRLEN
  -------         ENDMOD        STRLEN

  -------         MODULE        STRTOK
  X:0064H         PUBLIC        ?_strtok?BYTE
  C:87B3H         PUBLIC        _strtok
  -------         ENDMOD        STRTOK

  -------         MODULE        ATOL
  C:7AFCH         PUBLIC        _atol
  -------         ENDMOD        ATOL

  -------         MODULE        ATOI
  C:8975H         PUBLIC        _atoi
  -------         ENDMOD        ATOI

  -------         MODULE        ?C?ILDIX
  C:1E6EH         PUBLIC        ?C?ILDIX
  -------         ENDMOD        ?C?ILDIX

  -------         MODULE        ?C?LMUL
  C:1E84H         PUBLIC        ?C?LMUL
  -------         ENDMOD        ?C?LMUL

  -------         MODULE        ISDIGIT
  C:C232H         PUBLIC        _isdigit
  -------         ENDMOD        ISDIGIT

  -------         MODULE        ISSPACE
BL51 BANKED LINKER/LOCATER V6.22.2.0                                                  06/11/2021  11:57:45  PAGE 143


  C:C192H         PUBLIC        _isspace
  -------         ENDMOD        ISSPACE

  -------         MODULE        STRSPN
  X:006AH         PUBLIC        ?_strspn?BYTE
  C:AA25H         PUBLIC        _strspn
  -------         ENDMOD        STRSPN

  -------         MODULE        STRPBRK
  X:006AH         PUBLIC        ?_strpbrk?BYTE
  C:AB2CH         PUBLIC        _strpbrk
  -------         ENDMOD        STRPBRK

Program Size: data=99.1 xdata=538 code=49855
LINK/LOCATE RUN COMPLETE.  0 WARNING(S),  0 ERROR(S)
