BL51 BANKED LINKER/LOCATER V6.22.2.0                                                    11/13/2020  15:29:26  PAGE 1


BL51 BANKED LINKER/LOCATER V6.22.2.0, INVOKED BY:
C:\KEIL_V5\C51\BIN\BL51.EXE .\Objects\main.obj, .\Objects\Accescan.obj, .\Objects\Clock.obj, .\Objects\delay.obj, .\Obje
>> cts\eeprom.obj, .\Objects\io_sensores.obj, .\Objects\pantallas.obj, .\Objects\prog.obj, .\Objects\pto_paralelo.obj, .
>> \Objects\tibbo.obj, .\Objects\uart.obj, .\Objects\lintech.obj, .\Objects\verificador.obj, .\Objects\Monitor.obj TO .\
>> Objects\expedidor_v_01_raspberry PRINT (.\Listings\expedidor_v_01_raspberry.m51) RAMSIZE (256)


MEMORY MODEL: LARGE WITH FLOATING POINT ARITHMETIC


INPUT MODULES INCLUDED:
  .\Objects\main.obj (MAIN)
  .\Objects\Accescan.obj (ACCESCAN)
  .\Objects\Clock.obj (CLOCK)
  .\Objects\delay.obj (DELAY)
  .\Objects\eeprom.obj (EEPROM)
  .\Objects\io_sensores.obj (IO_SENSORES)
  .\Objects\pantallas.obj (PANTALLAS)
  .\Objects\prog.obj (PROG)
  .\Objects\pto_paralelo.obj (PTO_PARALELO)
  .\Objects\tibbo.obj (TIBBO)
  .\Objects\uart.obj (UART)
  .\Objects\lintech.obj (LINTECH)
  .\Objects\verificador.obj (VERIFICADOR)
  .\Objects\Monitor.obj (MONITOR)
  C:\KEIL_V5\C51\LIB\C51FPL.LIB (?C?FPADD)
  C:\KEIL_V5\C51\LIB\C51FPL.LIB (?C?FPMUL)
  C:\KEIL_V5\C51\LIB\C51FPL.LIB (?C?FCAST)
  C:\KEIL_V5\C51\LIB\C51FPL.LIB (?C?CASTF)
  C:\KEIL_V5\C51\LIB\C51FPL.LIB (PRINTF)
  C:\KEIL_V5\C51\LIB\C51FPL.LIB (POW)
  C:\KEIL_V5\C51\LIB\C51FPL.LIB (?C?FPGETOPN)
  C:\KEIL_V5\C51\LIB\C51FPL.LIB (?C?CHKFLOAT)
  C:\KEIL_V5\C51\LIB\C51FPL.LIB (?C?FPCMP)
  C:\KEIL_V5\C51\LIB\C51FPL.LIB (?C?FPNEG)
  C:\KEIL_V5\C51\LIB\C51FPL.LIB (?C?FPROUND)
  C:\KEIL_V5\C51\LIB\C51FPL.LIB (?C?FPCONVERT)
  C:\KEIL_V5\C51\LIB\C51FPL.LIB (EXP)
  C:\KEIL_V5\C51\LIB\C51FPL.LIB (LOG)
  C:\KEIL_V5\C51\LIB\C51FPL.LIB (?C?FPDIV)
  C:\KEIL_V5\C51\LIB\C51FPL.LIB (?C?FTNPWR)
  C:\KEIL_V5\C51\LIB\C51FPL.LIB (?C?FPSERIES)
  C:\KEIL_V5\C51\LIB\C51L.LIB (?C_STARTUP)
  C:\KEIL_V5\C51\LIB\C51L.LIB (?C?COPY)
  C:\KEIL_V5\C51\LIB\C51L.LIB (?C?CLDPTR)
  C:\KEIL_V5\C51\LIB\C51L.LIB (?C?CLDOPTR)
  C:\KEIL_V5\C51\LIB\C51L.LIB (?C?CSTPTR)
  C:\KEIL_V5\C51\LIB\C51L.LIB (?C?CSTOPTR)
  C:\KEIL_V5\C51\LIB\C51L.LIB (?C?IMUL)
  C:\KEIL_V5\C51\LIB\C51L.LIB (?C?IILDX)
  C:\KEIL_V5\C51\LIB\C51L.LIB (?C?LNEG)
  C:\KEIL_V5\C51\LIB\C51L.LIB (?C?SLCMP)
  C:\KEIL_V5\C51\LIB\C51L.LIB (?C?ULCMP)
  C:\KEIL_V5\C51\LIB\C51L.LIB (?C?ULSHR)
  C:\KEIL_V5\C51\LIB\C51L.LIB (?C?LSHL)
  C:\KEIL_V5\C51\LIB\C51L.LIB (?C?LLDCODE)
  C:\KEIL_V5\C51\LIB\C51L.LIB (?C?LLDXDATA0)
  C:\KEIL_V5\C51\LIB\C51L.LIB (?C?LLDCODE0)
BL51 BANKED LINKER/LOCATER V6.22.2.0                                                  11/13/2020  15:29:26  PAGE 2


  C:\KEIL_V5\C51\LIB\C51L.LIB (?C?LSTXDATA)
  C:\KEIL_V5\C51\LIB\C51L.LIB (?C?LSTKXDATA)
  C:\KEIL_V5\C51\LIB\C51L.LIB (?C?PLDIXDATA)
  C:\KEIL_V5\C51\LIB\C51L.LIB (?C?PSTXDATA)
  C:\KEIL_V5\C51\LIB\C51L.LIB (?C?CCASE)
  C:\KEIL_V5\C51\LIB\C51L.LIB (STRCAT)
  C:\KEIL_V5\C51\LIB\C51L.LIB (?C?STRCMP)
  C:\KEIL_V5\C51\LIB\C51L.LIB (?C?STRCPY)
  C:\KEIL_V5\C51\LIB\C51L.LIB (STRLEN)
  C:\KEIL_V5\C51\LIB\C51L.LIB (STRTOK)
  C:\KEIL_V5\C51\LIB\C51L.LIB (ATOL)
  C:\KEIL_V5\C51\LIB\C51L.LIB (ATOI)
  C:\KEIL_V5\C51\LIB\C51L.LIB (MALLOC)
  C:\KEIL_V5\C51\LIB\C51L.LIB (INIT_MEM)
  C:\KEIL_V5\C51\LIB\C51L.LIB (FREE)
  C:\KEIL_V5\C51\LIB\C51L.LIB (?C_INIT)
  C:\KEIL_V5\C51\LIB\C51L.LIB (?C?ILDIX)
  C:\KEIL_V5\C51\LIB\C51L.LIB (?C?LMUL)
  C:\KEIL_V5\C51\LIB\C51L.LIB (ISDIGIT)
  C:\KEIL_V5\C51\LIB\C51L.LIB (ISSPACE)
  C:\KEIL_V5\C51\LIB\C51L.LIB (STRSPN)
  C:\KEIL_V5\C51\LIB\C51L.LIB (STRPBRK)


LINK MAP OF MODULE:  .\Objects\expedidor_v_01_raspberry (MAIN)


            TYPE    BASE      LENGTH    RELOCATION   SEGMENT NAME
            -----------------------------------------------------

            * * * * * * *   D A T A   M E M O R Y   * * * * * * *
            REG     0000H     0008H     ABSOLUTE     "REG BANK 0"
            DATA    0008H     0005H     UNIT         _DATA_GROUP_
            DATA    000DH     0004H     UNIT         ?DT?UART
            IDATA   0011H     0009H     UNIT         ?ID?MONITOR
                    001AH     0006H                  *** GAP ***
            BIT     0020H.0   0001H.1   UNIT         _BIT_GROUP_
            BIT     0021H.1   0000H.3   UNIT         ?BI?MAIN
            BIT     0021H.4   0000H.2   UNIT         ?BI?UART
            BIT     0021H.6   0000H.1   UNIT         ?BI?EEPROM
            BIT     0021H.7   0000H.1   UNIT         ?BI?IO_SENSORES
            BIT     0022H.0   0000H.1   UNIT         ?BI?VERIFICADOR
                    0022H.1   0000H.7                *** GAP ***
            IDATA   0023H     0046H     UNIT         ?ID?MAIN
            IDATA   0069H     0001H     UNIT         ?STACK

            * * * * * * *  X D A T A   M E M O R Y  * * * * * * *
            XDATA   0000H     00B7H     UNIT         _XDATA_GROUP_
            XDATA   00B7H     008AH     UNIT         ?XD?VERIFICADOR
            XDATA   0141H     006CH     UNIT         ?XD?MAIN
            XDATA   01ADH     0059H     UNIT         ?XD?PROG
            XDATA   0206H     0050H     UNIT         ?XD?PANTALLAS
            XDATA   0256H     0008H     UNIT         ?XD?INIT_MEM
            XDATA   025EH     0003H     UNIT         ?XD?EEPROM
            XDATA   0261H     0003H     UNIT         ?XD?UART
            XDATA   0264H     0003H     UNIT         ?XD?STRTOK
            XDATA   0267H     0001H     UNIT         ?XD?ACCESCAN
BL51 BANKED LINKER/LOCATER V6.22.2.0                                                  11/13/2020  15:29:26  PAGE 3


            XDATA   0268H     0001H     UNIT         ?XD?CLOCK
            XDATA   0269H     0001H     UNIT         ?XD?IO_SENSORES

            * * * * * * *   C O D E   M E M O R Y   * * * * * * *
            CODE    0000H     0003H     ABSOLUTE     
            CODE    0003H     0008H     UNIT         ?PR?P_CK?CLOCK
            CODE    000BH     0003H     ABSOLUTE     
            CODE    000EH     0015H     UNIT         ?PR?_STRLEN?STRLEN
            CODE    0023H     0003H     ABSOLUTE     
            CODE    0026H     1308H     UNIT         ?CO?PROG
            CODE    132EH     0B8BH     UNIT         ?C?LIB_CODE
            CODE    1EB9H     07EEH     UNIT         ?CO?VERIFICADOR
            CODE    26A7H     06F4H     UNIT         ?PR?_PANTALLALCD?PANTALLAS
            CODE    2D9BH     0656H     UNIT         ?CO?PANTALLAS
            CODE    33F1H     0489H     UNIT         ?PR?_SECUENCIAEXPEDIDORMF?VERIFICADOR
            CODE    387AH     0483H     UNIT         ?PR?PRINTF?PRINTF
            CODE    3CFDH     035CH     UNIT         ?PR?VER_PROG?PROG
            CODE    4059H     033EH     UNIT         ?PR?_VALIDA_TRAMA_PTO?ACCESCAN
            CODE    4397H     02D0H     UNIT         ?PR?_TWO_BYTEHEX_DECIMAL?CLOCK
            CODE    4667H     02B7H     UNIT         ?PR?_PROG_HORARIO_DIAS?PROG
            CODE    491EH     02B2H     UNIT         ?PR?_PANTALLALCD_LINEA_2?PANTALLAS
            CODE    4BD0H     022CH     UNIT         ?PR?MENU?PROG
            CODE    4DFCH     0208H     UNIT         ?PR?_HASH_ID?PROG
            CODE    5004H     01FAH     UNIT         ?PR?_PROG_HORARIO_DESDE_HASTA?PROG
            CODE    51FEH     01F5H     UNIT         ?PR?PROG_FECHA_VENCIMIENTO?PROG
            CODE    53F3H     01DFH     UNIT         ?PR?_RESPONDE_LECTURA_TARJETA_SECTOR1_BLOQUE1?VERIFICADOR
            CODE    55D2H     01B3H     UNIT         ?PR?COM_ISR?UART
            CODE    5785H     01A9H     UNIT         ?PR?_ARMAR_TRAMA_PTO_PARALELO_EXPEDIDOR?VERIFICADOR
            CODE    592EH     01A5H     UNIT         ?CO?LINTECH
            CODE    5AD3H     01A4H     UNIT         ?PR?_VALIDA_TIPO_TARJETA?VERIFICADOR
            CODE    5C77H     016EH     UNIT         ?PR?_BLOCK_READ_CLOCK_ASCII?CLOCK
            CODE    5DE5H     0166H     UNIT         ?PR?_POW?POW
            CODE    5F4BH     0154H     UNIT         ?PR?_ARMAR_TRAMA_MONITOR?VERIFICADOR
            CODE    609FH     0145H     UNIT         ?PR?PROG_HORARIOS?PROG
            CODE    61E4H     0142H     UNIT         ?PR?_ARMAR_TRAMA_TARJETA_SECTOR1_BLOQUE2?VERIFICADOR
            CODE    6326H     013FH     UNIT         ?PR?_FREE?FREE
            CODE    6465H     013EH     UNIT         ?PR?PROG_SIN_COBRO?PROG
            CODE    65A3H     013EH     UNIT         ?PR?SECUENCIA_INICIO_EXPEDIDOR?VERIFICADOR
            CODE    66E1H     0137H     UNIT         ?PR?VER_HORARIO?PROG
            CODE    6818H     012BH     UNIT         ?PR?_RESPONDE_LECTURA_TARJETA_SECTOR1_BLOQUE2?VERIFICADOR
            CODE    6943H     0129H     UNIT         ?PR?LOG?LOG
            CODE    6A6CH     0128H     UNIT         ?PR?_VER_HORARIO_DIAS?PROG
            CODE    6B94H     011CH     UNIT         ?PR?LOAD_AND_SEND_ID_COD?PTO_PARALELO
            CODE    6CB0H     011AH     UNIT         ?PR?_PROG_HORARIOS_ON_OFF?PROG
            CODE    6DCAH     0119H     UNIT         ?PR?_VER_HORARIO_DESDE_HASTA?PROG
            CODE    6EE3H     0115H     UNIT         ?PR?_VALIDAR_CLK?CLOCK
            CODE    6FF8H     010FH     UNIT         ?PR?_HORARIOS?VERIFICADOR
            CODE    7107H     010CH     UNIT         ?PR?_ATOL?ATOL
            CODE    7213H     0103H     UNIT         ?PR?_BLOQUE_HORARIO?VERIFICADOR
            CODE    7316H     0100H     UNIT         ?PR?_WR_MF?LINTECH
            CODE    7416H     00FCH     UNIT         ?PR?PROG_DEBUG?PROG
            CODE    7512H     00FCH     UNIT         ?PR?PROG_USE_LPR?PROG
            CODE    760EH     00FCH     UNIT         ?PR?TIPO_PANTALLA?PROG
            CODE    770AH     00FCH     UNIT         ?PR?PROG_ANTIPASSBACK?PROG
            CODE    7806H     00FCH     UNIT         ?PR?PROG_PLACA?PROG
            CODE    7902H     00FCH     UNIT         ?PR?PROG_VALIDAR_TIPO_VEHICULO_MENSUAL?PROG
            CODE    79FEH     00FCH     UNIT         ?PR?PROG_APB_MENSUAL?PROG
BL51 BANKED LINKER/LOCATER V6.22.2.0                                                  11/13/2020  15:29:26  PAGE 4


            CODE    7AFAH     00F1H     UNIT         ?PR?_WRITE_EEPROM_TICKET?EEPROM
            CODE    7BEBH     00EAH     UNIT         ?PR?_MOV_CARD?LINTECH
            CODE    7CD5H     00E4H     UNIT         ?PR?_STRTOK?STRTOK
            CODE    7DB9H     00DEH     UNIT         ?PR?PROG_ADDRESS_HIGH_BOARD?PROG
            CODE    7E97H     00DBH     UNIT         ?PR?_ATOI?ATOI
            CODE    7F72H     00D7H     UNIT         ?PR?_ANALIZA_UID_CARD?VERIFICADOR
            CODE    8049H     00D6H     UNIT         ?PR?_CMD_LPR_SALIDA_WIEGAND?ACCESCAN
            CODE    811FH     00D2H     UNIT         ?C_INITSEG
            CODE    81F1H     00D1H     UNIT         ?PR?_ARMAR_TRAMA_PTO_PARALELO_EXPEDIDOR_MENSUAL?VERIFICADOR
            CODE    82C2H     00D1H     UNIT         ?PR?_MALLOC?MALLOC
            CODE    8393H     00CCH     UNIT         ?PR?_GRABA_SERIE?EEPROM
            CODE    845FH     00CBH     UNIT         ?PR?_RTA_CMD_TRANSPORTE?VERIFICADOR
            CODE    852AH     00CAH     UNIT         ?PR?READ_EEPROM_TICKET?EEPROM
            CODE    85F4H     00C9H     UNIT         ?PR?_CHECK_FECHAOUT?CLOCK
            CODE    86BDH     00C4H     UNIT         ?PR?_BLOCK_READ_CLOCK?CLOCK
            CODE    8781H     00C4H     UNIT         ?PR?_TARJETA_MENSUAL?VERIFICADOR
            CODE    8845H     00C3H     UNIT         ?PR?_RD_MF?LINTECH
            CODE    8908H     00C2H     UNIT         ?PR?PROG_TARJETA_AUTOMATICA_O_BOTON?PROG
            CODE    89CAH     00C1H     UNIT         ?PR?_RECIBE_CMD_MONITOR?MONITOR
            CODE    8A8BH     00BFH     UNIT         ?CO?IO_SENSORES
            CODE    8B4AH     00BEH     UNIT         ?PR?ERROR_RX_PTO?VERIFICADOR
            CODE    8C08H     00BDH     UNIT         ?PR?PROG_COD_PARK?PROG
            CODE    8CC5H     00BDH     UNIT         ?PR?PROG_TIEMPO_GRACIA?PROG
            CODE    8D82H     00BAH     UNIT         ?CO?TIBBO
            CODE    8E3CH     00B6H     UNIT         ?PR?PROG_ID_CLIENTE?PROG
            CODE    8EF2H     00B5H     UNIT         ?PR?_WAIT_PLACA?VERIFICADOR
            CODE    8FA7H     00B4H     UNIT         ?PR?_SEND_PORT?PTO_PARALELO
            CODE    905BH     00ACH     UNIT         ?PR?_HORA_MAXIMA?VERIFICADOR
            CODE    9107H     00AAH     UNIT         ?PR?CLAVE_SEGURIDAD_S2?LINTECH
            CODE    91B1H     00A9H     UNIT         ?PR?DWLOAD_EEPROM?LINTECH
            CODE    925AH     00A6H     UNIT         ?PR?_BLOCK_READ_CLOCK_HEX?CLOCK
            CODE    9300H     00A5H     UNIT         ?PR?_VALIDA_TRAMA_MONITOR?MONITOR
            CODE    93A5H     00A4H     UNIT         ?PR?_ARMAR_TRAMA_TARJETA_SECTOR1_BLOQUE1_CAMCEL?VERIFICADOR
            CODE    9449H     009DH     UNIT         ?PR?_INICIALIZA?LINTECH
            CODE    94E6H     009CH     UNIT         ?PR?_RESPUESTA_PLACA_CANCEL?VERIFICADOR
            CODE    9582H     009AH     UNIT         ?PR?_RESPONDE_LECTURA_TARJETA_SECTOR1_BLOQUE0?VERIFICADOR
            CODE    961CH     009AH     UNIT         ?PR?EXP?EXP
            CODE    96B6H     0099H     UNIT         ?PR?SHOW?PROG
            CODE    974FH     0099H     UNIT         ?PR?_RECIBE_PORT?PTO_PARALELO
            CODE    97E8H     0098H     UNIT         ?PR?_VALIDA_VEHICULO_CARD_MENSUAL?VERIFICADOR
            CODE    9880H     0091H     UNIT         ?PR?_HEX_ASCII?CLOCK
            CODE    9911H     0091H     UNIT         ?PR?_CARD_INSERCION?LINTECH
            CODE    99A2H     0090H     UNIT         ?PR?_LEE_CLK?CLOCK
            CODE    9A32H     0090H     UNIT         ?PR?_GETOPTION?PROG
            CODE    9AC2H     0090H     UNIT         ?PR?ENTREGA_CARD_CAPTURA?VERIFICADOR
            CODE    9B52H     008FH     UNIT         ?PR?_BLOCK_WRITE_CLOCK_ASCII?CLOCK
            CODE    9BE1H     008FH     UNIT         ?PR?_RESPONDE_WRITE_TARJETA_SECTOR1_BLOQUE2?VERIFICADOR
            CODE    9C70H     008DH     UNIT         ?PR?LOADVERIFY_EEPROM?LINTECH
            CODE    9CFDH     008CH     UNIT         ?C_C51STARTUP
            CODE    9D89H     0089H     UNIT         ?PR?_RASPBERRY_DATA?PANTALLAS
            CODE    9E12H     0088H     UNIT         ?PR?_SEND_PORTERR?PTO_PARALELO
            CODE    9E9AH     0088H     UNIT         ?PR?RX_DATA?TIBBO
            CODE    9F22H     0088H     UNIT         ?PR?UNIQUE_IDENTIFIER_UID?LINTECH
            CODE    9FAAH     0086H     UNIT         ?PR?_CHECK_STATUS?LINTECH
            CODE    A030H     0084H     UNIT         ?PR?_STRSPN?STRSPN
            CODE    A0B4H     0082H     UNIT         ?PR?_SEND_PTO_PARALELO?VERIFICADOR
            CODE    A136H     0081H     UNIT         ?PR?_STRPBRK?STRPBRK
BL51 BANKED LINKER/LOCATER V6.22.2.0                                                  11/13/2020  15:29:26  PAGE 5


            CODE    A1B7H     0080H     UNIT         ?PR?MSJ_LCD_INFORMATIVO?IO_SENSORES
            CODE    A237H     0080H     UNIT         ?PR?_INGRESADATO?PROG
            CODE    A2B7H     0080H     UNIT         ?PR?AUT_CARD_CHECK_STATUS?LINTECH
            CODE    A337H     0080H     UNIT         ?PR?POWER_OFF?LINTECH
            CODE    A3B7H     007FH     UNIT         ?PR?MAIN?MAIN
            CODE    A436H     007CH     UNIT         ?PR?RESPONDE_ESTADO_SENSORES_TRANSPORTE?VERIFICADOR
            CODE    A4B2H     0077H     UNIT         ?PR?RESPONDE_TIPO_TARJETA?VERIFICADOR
            CODE    A529H     0073H     UNIT         ?PR?_DEBUGBUFFERMF?TIBBO
            CODE    A59CH     0071H     UNIT         ?PR?_EN_HORARIO?VERIFICADOR
            CODE    A60DH     006FH     UNIT         ?PR?_ESCRIBIRMEMORIA?EEPROM
            CODE    A67CH     006FH     UNIT         ?PR?_DISPARO_LOCK_ENTRADA_VEHICULO?VERIFICADOR
            CODE    A6EBH     006BH     UNIT         ?PR?_STRCAT?STRCAT
            CODE    A756H     0066H     UNIT         ?PR?_LEERMEMORIA?EEPROM
            CODE    A7BCH     0062H     UNIT         ?PR?_LISTACOMANDOS?PROG
            CODE    A81EH     005EH     UNIT         ?PR?_BYTEHEX_DECIMAL?CLOCK
            CODE    A87CH     005DH     UNIT         ?PR?_RESPUESTA_SEGUNDA_CLAVE?VERIFICADOR
            CODE    A8D9H     005CH     UNIT         ?PR?_ARMAR_TRAMA_PLACA?VERIFICADOR
            CODE    A935H     005BH     UNIT         ?PR?VALIDA_SENSOR1_AUTO?IO_SENSORES
            CODE    A990H     0056H     UNIT         ?PR?_WR_EEPROM?EEPROM
            CODE    A9E6H     0052H     UNIT         ?PR?INGRESO_VEHICULO?VERIFICADOR
            CODE    AA38H     004EH     UNIT         ?PR?RELOJ_PANTALLA_LCD?PANTALLAS
            CODE    AA86H     004DH     UNIT         ?PR?VARIABLE_INICIO?MAIN
            CODE    AAD3H     004DH     UNIT         ?PR?L_D_M?EEPROM
            CODE    AB20H     004CH     UNIT         ?PR?LEE_NO_TICKET?EEPROM
            CODE    AB6CH     004BH     UNIT         ?PR?_TX_AUX?TIBBO
            CODE    ABB7H     0049H     UNIT         ?PR?_DEBUG_TXT_TIBBO?TIBBO
            CODE    AC00H     0048H     UNIT         ?PR?FIRST_CLAVE?PROG
            CODE    AC48H     0047H     UNIT         ?PR?_DEBUG_CHR_TIBBO?TIBBO
            CODE    AC8FH     0047H     UNIT         ?PR?_RESPONDE_WRITE_TARJETA_SECTOR2_BLOQUE0?VERIFICADOR
            CODE    ACD6H     0046H     UNIT         ?PR?_ESCRIBIRCADENASOFT_BUFFER?MAIN
            CODE    AD1CH     0046H     UNIT         ?PR?_LCD_TXT_NUM_CHAR?PANTALLAS
            CODE    AD62H     0046H     UNIT         ?PR?_DEBUG_HEXDEC?TIBBO
            CODE    ADA8H     0046H     UNIT         ?PR?_PREGUNTA_LPR?VERIFICADOR
            CODE    ADEEH     0044H     UNIT         ?PR?_LCD_TXT?PANTALLAS
            CODE    AE32H     0043H     UNIT         ?PR?DIR_BOARD?IO_SENSORES
            CODE    AE75H     0042H     UNIT         ?PR?_VALIDARCLAVE?PROG
            CODE    AEB7H     0041H     UNIT         ?PR?_MONITOR_CHR?ACCESCAN
            CODE    AEF8H     0041H     UNIT         ?PR?_TWO_ONE?CLOCK
            CODE    AF39H     0040H     UNIT         ?PR?_GETCMD?PROG
            CODE    AF79H     003FH     UNIT         ?PR?_EB_CLK?CLOCK
            CODE    AFB8H     003EH     UNIT         ?PR?_PUTCHAR?MAIN
            CODE    AFF6H     003EH     UNIT         ?PR?TRAMA_VALIDACION_P_N?VERIFICADOR
            CODE    B034H     003DH     UNIT         ?PR?_HEX_BCD?CLOCK
            CODE    B071H     003DH     UNIT         ?PR?_RD_EEPROM?EEPROM
            CODE    B0AEH     003DH     UNIT         ?PR?_LOAD_SECUENCIA_EXPEDIDOR?VERIFICADOR
            CODE    B0EBH     003CH     UNIT         ?PR?_INIT_MEMPOOL?INIT_MEM
            CODE    B127H     003BH     UNIT         ?CO?EEPROM
            CODE    B162H     003BH     UNIT         ?PR?_DEBUG_PTO_PARALELO?TIBBO
            CODE    B19DH     003BH     UNIT         ?PR?_COM_PUTCHAR?UART
            CODE    B1D8H     003AH     UNIT         ?PR?_DELAY_10MS?DELAY
            CODE    B212H     0038H     UNIT         ?PR?VALIDASENSORESPASO?IO_SENSORES
            CODE    B24AH     0036H     UNIT         ?PR?_RESPONDE_WRITE_TARJETA_SECTOR1_BLOQUE1?VERIFICADOR
            CODE    B280H     0036H     UNIT         ?PR?_RESPONDE_WRITE_TARJETA_SECTOR1_BLOQUE0?VERIFICADOR
            CODE    B2B6H     0034H     UNIT         ?PR?INCREMENTE_TICKET?EEPROM
            CODE    B2EAH     0034H     UNIT         ?PR?ADDR_HORARIOS?PROG
            CODE    B31EH     0032H     UNIT         ?PR?_DEBUG_MONITOR?TIBBO
            CODE    B350H     0031H     UNIT         ?PR?_TARJETA_ROTACION?VERIFICADOR
BL51 BANKED LINKER/LOCATER V6.22.2.0                                                  11/13/2020  15:29:26  PAGE 6


            CODE    B381H     0030H     UNIT         ?PR?PREGUNTA_PLACA?VERIFICADOR
            CODE    B3B1H     002EH     UNIT         ?PR?TIMER0_INT?MAIN
            CODE    B3DFH     002CH     UNIT         ?PR?LOAD_AND_SEND_INFO_RELOJ?PTO_PARALELO
            CODE    B40BH     002AH     UNIT         ?PR?COM_INITIALIZE?UART
            CODE    B435H     0028H     UNIT         ?PR?_WR_CLK?CLOCK
            CODE    B45DH     0028H     UNIT         ?PR?COM_BAUDRATE?UART
            CODE    B485H     0028H     UNIT         ?PR?_ARMAR_TRAMA_TARJETA_SECTOR1_BLOQUE0?VERIFICADOR
            CODE    B4ADH     0027H     UNIT         ?PR?_TX_CHRLCD?PANTALLAS
            CODE    B4D4H     0026H     UNIT         ?PR?COM_GETCHAR?UART
            CODE    B4FAH     0026H     UNIT         ?PR?ANALIZA_PRESENCIA_MENSUAL?VERIFICADOR
            CODE    B520H     0026H     UNIT         ?PR?RX_MONITOR?MONITOR
            CODE    B546H     0023H     UNIT         ?PR?ANALIZA_PRESENCIA_ROTACION?VERIFICADOR
            CODE    B569H     0022H     UNIT         ?PR?_E_D_M?EEPROM
            CODE    B58BH     0020H     UNIT         ?PR?ACKD?EEPROM
            CODE    B5ABH     0020H     UNIT         ?PR?ACK_LECT?EEPROM
            CODE    B5CBH     001FH     UNIT         ?PR?VALIDASENSOR?IO_SENSORES
            CODE    B5EAH     001FH     UNIT         ?PR?TIME_BIT?TIBBO
            CODE    B609H     001EH     UNIT         ?PR?_BCD_HEX?CLOCK
            CODE    B627H     001BH     UNIT         ?PR?_DELAY_1MS?DELAY
            CODE    B642H     0018H     UNIT         ?PR?CLEAR_PLACA?MONITOR
            CODE    B65AH     0017H     UNIT         ?PR?DISPLAYCURSOR?PROG
            CODE    B671H     0017H     UNIT         ?PR?TIME_MBIT?TIBBO
            CODE    B688H     0016H     UNIT         ?PR?DIR_BOARD_MONITOR?IO_SENSORES
            CODE    B69EH     0014H     UNIT         ?PR?DEBUG_DIVIDIR_TEXTO?TIBBO
            CODE    B6B2H     0014H     UNIT         ?PR?_ISSPACE?ISSPACE
            CODE    B6C6H     0012H     UNIT         ?PR?_DELAY_20US?DELAY
            CODE    B6D8H     0012H     UNIT         ?PR?START?EEPROM
            CODE    B6EAH     0012H     UNIT         ?PR?BOTTON?IO_SENSORES
            CODE    B6FCH     0012H     UNIT         ?PR?PULSO_BUS?PTO_PARALELO
            CODE    B70EH     0012H     UNIT         ?PR?COM_RBUFLEN?UART
            CODE    B720H     0012H     UNIT         ?PR?COM_TBUFLEN?UART
            CODE    B732H     0010H     UNIT         ?PR?INI_TIMER?MAIN
            CODE    B742H     0010H     UNIT         ?PR?INICIA_BOARD?MAIN
            CODE    B752H     000FH     UNIT         ?PR?_ISDIGIT?ISDIGIT
            CODE    B761H     000CH     UNIT         ?PR?_GETKEY?MAIN
            CODE    B76DH     000AH     UNIT         ?PR?COND_INI_PTO?PTO_PARALELO
            CODE    B777H     0009H     UNIT         ?PR?STOP?EEPROM
            CODE    B780H     0009H     UNIT         ?PR?CAPTURA_EXPULSA?VERIFICADOR
            CODE    B789H     0007H     UNIT         ?PR?COND_INI_CLOCK?CLOCK
            CODE    B790H     0007H     UNIT         ?PR?SEL_FUNCION?IO_SENSORES
            CODE    B797H     0007H     UNIT         ?PR?SEL_AUTO?IO_SENSORES
            CODE    B79EH     0007H     UNIT         ?PR?SEL_PULSA?IO_SENSORES
            CODE    B7A5H     0007H     UNIT         ?PR?SEL_SENSOR2?IO_SENSORES
            CODE    B7ACH     0007H     UNIT         ?PR?SEL_SENSOR1?IO_SENSORES
            CODE    B7B3H     0007H     UNIT         ?PR?SEL_DIR1?IO_SENSORES
            CODE    B7BAH     0007H     UNIT         ?PR?SEL_DIR2?IO_SENSORES
            CODE    B7C1H     0006H     UNIT         ?PR?P_ME?EEPROM
            CODE    B7C7H     0005H     UNIT         ?PR?ON_TIMER0_INTERRUP?MAIN
            CODE    B7CCH     0005H     UNIT         ?CO?ACCESCAN
            CODE    B7D1H     0005H     UNIT         ?PR?COND_INI_TIBBO?TIBBO
            CODE    B7D6H     0003H     UNIT         ?PR?OFF_TIMER0_INTERRUP?MAIN
            CODE    B7D9H     0003H     UNIT         ?CO?PTO_PARALELO
            CODE    B7DCH     0001H     UNIT         ?PR?DELAY?DELAY



OVERLAY MAP OF MODULE:   .\Objects\expedidor_v_01_raspberry (MAIN)
BL51 BANKED LINKER/LOCATER V6.22.2.0                                                  11/13/2020  15:29:26  PAGE 7




SEGMENT                                             BIT_GROUP          DATA_GROUP          XDATA_GROUP
  +--> CALLED SEGMENT                            START    LENGTH     START    LENGTH     START    LENGTH
--------------------------------------------------------------------------------------------------------
?C_C51STARTUP                                    -----    -----      -----    -----      -----    -----
  +--> ?PR?MAIN?MAIN
  +--> ?C_INITSEG

?PR?MAIN?MAIN                                    -----    -----      -----    -----      0000H    0001H
  +--> ?PR?INI_TIMER?MAIN
  +--> ?PR?ON_TIMER0_INTERRUP?MAIN
  +--> ?PR?COM_INITIALIZE?UART
  +--> ?PR?COM_BAUDRATE?UART
  +--> ?PR?INICIA_BOARD?MAIN
  +--> ?PR?TIME_BIT?TIBBO
  +--> ?PR?_DELAY_20US?DELAY
  +--> ?PR?TIME_MBIT?TIBBO
  +--> ?PR?_TX_AUX?TIBBO
  +--> ?PR?SEL_FUNCION?IO_SENSORES
  +--> ?PR?MENU?PROG
  +--> ?PR?VARIABLE_INICIO?MAIN
  +--> ?PR?SECUENCIA_INICIO_EXPEDIDOR?VERIFI...
  +--> ?PR?RX_MONITOR?MONITOR
  +--> ?PR?_SECUENCIAEXPEDIDORMF?VERIFICADOR
  +--> ?PR?_RECIBE_PORT?PTO_PARALELO
  +--> ?PR?_DEBUG_PTO_PARALELO?TIBBO
  +--> ?PR?_VALIDA_TRAMA_PTO?ACCESCAN
  +--> ?PR?MSJ_LCD_INFORMATIVO?IO_SENSORES

?PR?COM_INITIALIZE?UART                          -----    -----      -----    -----      -----    -----
  +--> ?PR?COM_BAUDRATE?UART

?PR?INICIA_BOARD?MAIN                            -----    -----      -----    -----      -----    -----
  +--> ?PR?COND_INI_TIBBO?TIBBO
  +--> ?PR?COND_INI_CLOCK?CLOCK
  +--> ?PR?COND_INI_PTO?PTO_PARALELO

?PR?_TX_AUX?TIBBO                                -----    -----      -----    -----      -----    -----
  +--> ?PR?TIME_BIT?TIBBO

?PR?MENU?PROG                                    -----    -----      -----    -----      0001H    0045H
  +--> ?CO?PROG
  +--> ?PR?PRINTF?PRINTF
  +--> ?PR?_RD_EEPROM?EEPROM
  +--> ?PR?FIRST_CLAVE?PROG
  +--> ?PR?_WR_EEPROM?EEPROM
  +--> ?PR?_LEERMEMORIA?EEPROM
  +--> ?PR?_HASH_ID?PROG
  +--> ?PR?_INGRESADATO?PROG
  +--> ?PR?_GETCMD?PROG
  +--> ?PR?_ESCRIBIRMEMORIA?EEPROM
  +--> ?PR?_VALIDARCLAVE?PROG
  +--> ?PR?DISPLAYCURSOR?PROG
  +--> ?PR?_STRLEN?STRLEN
  +--> ?PR?_GETOPTION?PROG
  +--> ?PR?_STRCAT?STRCAT
BL51 BANKED LINKER/LOCATER V6.22.2.0                                                  11/13/2020  15:29:26  PAGE 8


  +--> ?PR?_LISTACOMANDOS?PROG
  +--> ?PR?PROG_ID_CLIENTE?PROG
  +--> ?PR?PROG_COD_PARK?PROG
  +--> ?PR?PROG_TIEMPO_GRACIA?PROG
  +--> ?PR?PROG_SIN_COBRO?PROG
  +--> ?PR?PROG_DEBUG?PROG
  +--> ?PR?PROG_USE_LPR?PROG
  +--> ?PR?TIPO_PANTALLA?PROG
  +--> ?PR?PROG_TARJETA_AUTOMATICA_O_BOTON?PROG
  +--> ?PR?PROG_ANTIPASSBACK?PROG
  +--> ?PR?PROG_PLACA?PROG
  +--> ?PR?PROG_ADDRESS_HIGH_BOARD?PROG
  +--> ?PR?PROG_HORARIOS?PROG
  +--> ?PR?PROG_VALIDAR_TIPO_VEHICULO_MENSUA...
  +--> ?PR?PROG_APB_MENSUAL?PROG
  +--> ?PR?VER_PROG?PROG
  +--> ?PR?SHOW?PROG
  +--> ?PR?PROG_FECHA_VENCIMIENTO?PROG

?PR?PRINTF?PRINTF                                0020H.0  0001H.1    0008H    0005H      0077H    0030H
  +--> ?PR?_PUTCHAR?MAIN

?PR?_PUTCHAR?MAIN                                -----    -----      -----    -----      00A7H    0003H
  +--> ?PR?_COM_PUTCHAR?UART

?PR?_COM_PUTCHAR?UART                            -----    -----      -----    -----      00AAH    0001H
  +--> ?PR?COM_TBUFLEN?UART

?PR?_RD_EEPROM?EEPROM                            -----    -----      -----    -----      -----    -----
  +--> ?PR?START?EEPROM
  +--> ?PR?ACK_LECT?EEPROM
  +--> ?PR?_E_D_M?EEPROM
  +--> ?PR?ACKD?EEPROM
  +--> ?PR?L_D_M?EEPROM
  +--> ?PR?STOP?EEPROM

?PR?ACK_LECT?EEPROM                              -----    -----      -----    -----      -----    -----
  +--> ?PR?_E_D_M?EEPROM

?PR?_E_D_M?EEPROM                                -----    -----      -----    -----      -----    -----
  +--> ?PR?P_ME?EEPROM

?PR?ACKD?EEPROM                                  -----    -----      -----    -----      -----    -----
  +--> ?PR?_E_D_M?EEPROM

?PR?FIRST_CLAVE?PROG                             -----    -----      -----    -----      0046H    000BH
  +--> ?PR?_BLOCK_READ_CLOCK_ASCII?CLOCK
  +--> ?PR?_HASH_ID?PROG
  +--> ?PR?_ESCRIBIRMEMORIA?EEPROM

?PR?_BLOCK_READ_CLOCK_ASCII?CLOCK                -----    -----      -----    -----      0051H    0003H
  +--> ?PR?_LEE_CLK?CLOCK

?PR?_LEE_CLK?CLOCK                               -----    -----      -----    -----      00B1H    0003H
  +--> ?PR?_DELAY_20US?DELAY
  +--> ?PR?_EB_CLK?CLOCK
  +--> ?PR?P_CK?CLOCK
BL51 BANKED LINKER/LOCATER V6.22.2.0                                                  11/13/2020  15:29:26  PAGE 9



?PR?_EB_CLK?CLOCK                                -----    -----      -----    -----      00B4H    0003H
  +--> ?PR?P_CK?CLOCK

?PR?P_CK?CLOCK                                   -----    -----      -----    -----      -----    -----
  +--> ?PR?DELAY?DELAY

?PR?_HASH_ID?PROG                                -----    -----      -----    -----      005DH    003FH
  +--> ?CO?PROG
  +--> ?PR?_LEERMEMORIA?EEPROM
  +--> ?PR?_CHECK_FECHAOUT?CLOCK
  +--> ?PR?_STRLEN?STRLEN

?PR?_LEERMEMORIA?EEPROM                          -----    -----      -----    -----      009CH    0005H
  +--> ?PR?_RD_EEPROM?EEPROM

?PR?_CHECK_FECHAOUT?CLOCK                        -----    -----      -----    -----      009CH    0012H
  +--> ?PR?_BLOCK_READ_CLOCK_HEX?CLOCK

?PR?_BLOCK_READ_CLOCK_HEX?CLOCK                  -----    -----      -----    -----      00AEH    0003H
  +--> ?PR?_LEE_CLK?CLOCK
  +--> ?PR?_BCD_HEX?CLOCK

?PR?_ESCRIBIRMEMORIA?EEPROM                      -----    -----      -----    -----      005DH    0005H
  +--> ?PR?_WR_EEPROM?EEPROM

?PR?_WR_EEPROM?EEPROM                            -----    -----      -----    -----      -----    -----
  +--> ?PR?START?EEPROM
  +--> ?PR?ACKD?EEPROM
  +--> ?PR?_E_D_M?EEPROM
  +--> ?PR?STOP?EEPROM
  +--> ?PR?_DELAY_1MS?DELAY
  +--> ?PR?_DELAY_20US?DELAY

?PR?_DELAY_1MS?DELAY                             -----    -----      -----    -----      -----    -----
  +--> ?PR?_DELAY_20US?DELAY

?PR?_INGRESADATO?PROG                            -----    -----      -----    -----      0071H    0004H
  +--> ?PR?_GETKEY?MAIN
  +--> ?CO?PROG
  +--> ?PR?PRINTF?PRINTF
  +--> ?PR?_PUTCHAR?MAIN

?PR?_GETKEY?MAIN                                 -----    -----      -----    -----      -----    -----
  +--> ?PR?COM_GETCHAR?UART

?PR?COM_GETCHAR?UART                             -----    -----      -----    -----      -----    -----
  +--> ?PR?COM_RBUFLEN?UART

?PR?_GETCMD?PROG                                 -----    -----      -----    -----      005DH    0007H
  +--> ?CO?PROG
  +--> ?PR?_STRTOK?STRTOK

?PR?_STRTOK?STRTOK                               -----    -----      -----    -----      0064H    0006H
  +--> ?PR?_STRSPN?STRSPN
  +--> ?PR?_STRPBRK?STRPBRK

BL51 BANKED LINKER/LOCATER V6.22.2.0                                                  11/13/2020  15:29:26  PAGE 10


?PR?_STRSPN?STRSPN                               -----    -----      -----    -----      006AH    0008H

?PR?_STRPBRK?STRPBRK                             -----    -----      -----    -----      006AH    0009H

?PR?_VALIDARCLAVE?PROG                           -----    -----      -----    -----      005DH    000EH

?PR?DISPLAYCURSOR?PROG                           -----    -----      -----    -----      -----    -----
  +--> ?CO?PROG
  +--> ?PR?PRINTF?PRINTF

?PR?_GETOPTION?PROG                              -----    -----      -----    -----      0046H    000BH
  +--> ?CO?PROG
  +--> ?PR?_STRTOK?STRTOK

?PR?_STRCAT?STRCAT                               -----    -----      -----    -----      0046H    0009H

?PR?_LISTACOMANDOS?PROG                          -----    -----      -----    -----      0046H    0007H

?PR?PROG_ID_CLIENTE?PROG                         -----    -----      -----    -----      0046H    000CH
  +--> ?PR?_RD_EEPROM?EEPROM
  +--> ?CO?PROG
  +--> ?PR?PRINTF?PRINTF
  +--> ?PR?_INGRESADATO?PROG
  +--> ?PR?_ATOI?ATOI
  +--> ?PR?_WR_EEPROM?EEPROM

?PR?_ATOI?ATOI                                   0020H.0  0000H.1    -----    -----      0071H    0005H
  +--> ?PR?_ISSPACE?ISSPACE
  +--> ?PR?_ISDIGIT?ISDIGIT

?PR?PROG_COD_PARK?PROG                           -----    -----      -----    -----      0046H    000CH
  +--> ?PR?_RD_EEPROM?EEPROM
  +--> ?CO?PROG
  +--> ?PR?PRINTF?PRINTF
  +--> ?PR?_INGRESADATO?PROG
  +--> ?PR?_ATOI?ATOI
  +--> ?PR?_WR_EEPROM?EEPROM

?PR?PROG_TIEMPO_GRACIA?PROG                      -----    -----      -----    -----      0046H    000CH
  +--> ?PR?_RD_EEPROM?EEPROM
  +--> ?CO?PROG
  +--> ?PR?PRINTF?PRINTF
  +--> ?PR?_INGRESADATO?PROG
  +--> ?PR?_ATOI?ATOI
  +--> ?PR?_WR_EEPROM?EEPROM

?PR?PROG_SIN_COBRO?PROG                          -----    -----      -----    -----      0046H    000CH
  +--> ?PR?_RD_EEPROM?EEPROM
  +--> ?CO?PROG
  +--> ?PR?PRINTF?PRINTF
  +--> ?PR?_INGRESADATO?PROG
  +--> ?PR?_ATOI?ATOI
  +--> ?PR?_WR_EEPROM?EEPROM

?PR?PROG_DEBUG?PROG                              -----    -----      -----    -----      0046H    000CH
  +--> ?PR?_RD_EEPROM?EEPROM
  +--> ?CO?PROG
BL51 BANKED LINKER/LOCATER V6.22.2.0                                                  11/13/2020  15:29:26  PAGE 11


  +--> ?PR?PRINTF?PRINTF
  +--> ?PR?_INGRESADATO?PROG
  +--> ?PR?_ATOI?ATOI
  +--> ?PR?_WR_EEPROM?EEPROM

?PR?PROG_USE_LPR?PROG                            -----    -----      -----    -----      0046H    000CH
  +--> ?PR?_RD_EEPROM?EEPROM
  +--> ?CO?PROG
  +--> ?PR?PRINTF?PRINTF
  +--> ?PR?_INGRESADATO?PROG
  +--> ?PR?_ATOI?ATOI
  +--> ?PR?_WR_EEPROM?EEPROM

?PR?TIPO_PANTALLA?PROG                           -----    -----      -----    -----      0046H    000CH
  +--> ?PR?_RD_EEPROM?EEPROM
  +--> ?CO?PROG
  +--> ?PR?PRINTF?PRINTF
  +--> ?PR?_INGRESADATO?PROG
  +--> ?PR?_ATOI?ATOI
  +--> ?PR?_WR_EEPROM?EEPROM

?PR?PROG_TARJETA_AUTOMATICA_O_BOTON?PROG         -----    -----      -----    -----      0046H    000CH
  +--> ?PR?_RD_EEPROM?EEPROM
  +--> ?CO?PROG
  +--> ?PR?PRINTF?PRINTF
  +--> ?PR?_INGRESADATO?PROG
  +--> ?PR?_ATOI?ATOI
  +--> ?PR?_WR_EEPROM?EEPROM

?PR?PROG_ANTIPASSBACK?PROG                       -----    -----      -----    -----      0046H    000CH
  +--> ?PR?_RD_EEPROM?EEPROM
  +--> ?CO?PROG
  +--> ?PR?PRINTF?PRINTF
  +--> ?PR?_INGRESADATO?PROG
  +--> ?PR?_ATOI?ATOI
  +--> ?PR?_WR_EEPROM?EEPROM

?PR?PROG_PLACA?PROG                              -----    -----      -----    -----      0046H    000CH
  +--> ?PR?_RD_EEPROM?EEPROM
  +--> ?CO?PROG
  +--> ?PR?PRINTF?PRINTF
  +--> ?PR?_INGRESADATO?PROG
  +--> ?PR?_ATOI?ATOI
  +--> ?PR?_WR_EEPROM?EEPROM

?PR?PROG_ADDRESS_HIGH_BOARD?PROG                 -----    -----      -----    -----      0046H    000CH
  +--> ?PR?_RD_EEPROM?EEPROM
  +--> ?CO?PROG
  +--> ?PR?PRINTF?PRINTF
  +--> ?PR?_INGRESADATO?PROG
  +--> ?PR?_ATOI?ATOI
  +--> ?PR?_WR_EEPROM?EEPROM

?PR?PROG_HORARIOS?PROG                           -----    -----      -----    -----      0046H    001BH
  +--> ?PR?ADDR_HORARIOS?PROG
  +--> ?CO?PROG
  +--> ?PR?PRINTF?PRINTF
BL51 BANKED LINKER/LOCATER V6.22.2.0                                                  11/13/2020  15:29:26  PAGE 12


  +--> ?PR?_INGRESADATO?PROG
  +--> ?PR?_ATOI?ATOI
  +--> ?PR?_PROG_HORARIOS_ON_OFF?PROG
  +--> ?PR?_WR_EEPROM?EEPROM
  +--> ?PR?_PROG_HORARIO_DIAS?PROG
  +--> ?PR?_PROG_HORARIO_DESDE_HASTA?PROG
  +--> ?PR?_RD_EEPROM?EEPROM

?PR?ADDR_HORARIOS?PROG                           -----    -----      -----    -----      0074H    000BH

?PR?_PROG_HORARIOS_ON_OFF?PROG                   -----    -----      -----    -----      0061H    0010H
  +--> ?PR?_RD_EEPROM?EEPROM
  +--> ?CO?PROG
  +--> ?PR?PRINTF?PRINTF
  +--> ?PR?_INGRESADATO?PROG
  +--> ?PR?_ATOI?ATOI
  +--> ?PR?_WR_EEPROM?EEPROM

?PR?_PROG_HORARIO_DIAS?PROG                      -----    -----      -----    -----      0061H    000FH
  +--> ?CO?PROG
  +--> ?PR?PRINTF?PRINTF
  +--> ?PR?_INGRESADATO?PROG
  +--> ?PR?_WR_EEPROM?EEPROM
  +--> ?PR?_RD_EEPROM?EEPROM

?PR?_PROG_HORARIO_DESDE_HASTA?PROG               -----    -----      -----    -----      0061H    000CH
  +--> ?CO?PROG
  +--> ?PR?PRINTF?PRINTF
  +--> ?PR?_INGRESADATO?PROG
  +--> ?PR?_WR_EEPROM?EEPROM
  +--> ?PR?_RD_EEPROM?EEPROM

?PR?PROG_VALIDAR_TIPO_VEHICULO_MENSUA...         -----    -----      -----    -----      0046H    000CH
  +--> ?PR?_RD_EEPROM?EEPROM
  +--> ?CO?PROG
  +--> ?PR?PRINTF?PRINTF
  +--> ?PR?_INGRESADATO?PROG
  +--> ?PR?_ATOI?ATOI
  +--> ?PR?_WR_EEPROM?EEPROM

?PR?PROG_APB_MENSUAL?PROG                        -----    -----      -----    -----      0046H    000CH
  +--> ?PR?_RD_EEPROM?EEPROM
  +--> ?CO?PROG
  +--> ?PR?PRINTF?PRINTF
  +--> ?PR?_INGRESADATO?PROG
  +--> ?PR?_ATOI?ATOI
  +--> ?PR?_WR_EEPROM?EEPROM

?PR?VER_PROG?PROG                                -----    -----      -----    -----      0046H    0013H
  +--> ?PR?_RD_EEPROM?EEPROM
  +--> ?CO?PROG
  +--> ?PR?PRINTF?PRINTF
  +--> ?PR?VER_HORARIO?PROG
  +--> ?PR?_LEERMEMORIA?EEPROM
  +--> ?PR?_HEX_ASCII?CLOCK

?PR?VER_HORARIO?PROG                             -----    -----      -----    -----      0059H    001BH
BL51 BANKED LINKER/LOCATER V6.22.2.0                                                  11/13/2020  15:29:26  PAGE 13


  +--> ?PR?ADDR_HORARIOS?PROG
  +--> ?CO?PROG
  +--> ?PR?PRINTF?PRINTF
  +--> ?PR?_RD_EEPROM?EEPROM
  +--> ?PR?_VER_HORARIO_DIAS?PROG
  +--> ?PR?_VER_HORARIO_DESDE_HASTA?PROG

?PR?_VER_HORARIO_DIAS?PROG                       -----    -----      -----    -----      0074H    0003H
  +--> ?PR?_RD_EEPROM?EEPROM
  +--> ?CO?PROG
  +--> ?PR?PRINTF?PRINTF

?PR?_VER_HORARIO_DESDE_HASTA?PROG                -----    -----      -----    -----      0074H    0002H
  +--> ?CO?PROG
  +--> ?PR?PRINTF?PRINTF
  +--> ?PR?_RD_EEPROM?EEPROM

?PR?_HEX_ASCII?CLOCK                             -----    -----      -----    -----      005DH    0006H
  +--> ?PR?_HEX_BCD?CLOCK

?PR?SHOW?PROG                                    -----    -----      -----    -----      -----    -----
  +--> ?CO?PROG
  +--> ?PR?PRINTF?PRINTF

?PR?PROG_FECHA_VENCIMIENTO?PROG                  -----    -----      -----    -----      0046H    0017H
  +--> ?PR?_LEERMEMORIA?EEPROM
  +--> ?PR?_HEX_ASCII?CLOCK
  +--> ?CO?PROG
  +--> ?PR?PRINTF?PRINTF
  +--> ?PR?_HASH_ID?PROG
  +--> ?PR?_INGRESADATO?PROG
  +--> ?PR?_GETCMD?PROG
  +--> ?PR?_ESCRIBIRMEMORIA?EEPROM
  +--> ?PR?_VALIDARCLAVE?PROG
  +--> ?PR?_ATOI?ATOI
  +--> ?PR?_WR_EEPROM?EEPROM

?PR?VARIABLE_INICIO?MAIN                         -----    -----      -----    -----      -----    -----
  +--> ?PR?_RD_EEPROM?EEPROM

?PR?SECUENCIA_INICIO_EXPEDIDOR?VERIFI...         -----    -----      -----    -----      0001H    0001H
  +--> ?PR?_INICIALIZA?LINTECH
  +--> ?PR?TRAMA_VALIDACION_P_N?VERIFICADOR
  +--> ?CO?VERIFICADOR
  +--> ?PR?_DEBUG_TXT_TIBBO?TIBBO
  +--> ?PR?_DEBUGBUFFERMF?TIBBO
  +--> ?PR?DWLOAD_EEPROM?LINTECH

?PR?_INICIALIZA?LINTECH                          -----    -----      -----    -----      0002H    000CH
  +--> ?CO?LINTECH
  +--> ?PR?_DEBUG_TXT_TIBBO?TIBBO
  +--> ?PR?_DEBUGBUFFERMF?TIBBO
  +--> ?PR?_ESCRIBIRCADENASOFT_BUFFER?MAIN

?PR?_DEBUG_TXT_TIBBO?TIBBO                       -----    -----      -----    -----      0037H    0004H
  +--> ?PR?_DEBUG_CHR_TIBBO?TIBBO
  +--> ?CO?TIBBO
BL51 BANKED LINKER/LOCATER V6.22.2.0                                                  11/13/2020  15:29:26  PAGE 14


  +--> ?PR?_TX_AUX?TIBBO

?PR?_DEBUG_CHR_TIBBO?TIBBO                       -----    -----      -----    -----      -----    -----
  +--> ?PR?_TX_AUX?TIBBO

?PR?_DEBUGBUFFERMF?TIBBO                         -----    -----      -----    -----      0027H    0006H
  +--> ?CO?TIBBO
  +--> ?PR?_DEBUG_TXT_TIBBO?TIBBO
  +--> ?PR?_DEBUG_CHR_TIBBO?TIBBO
  +--> ?PR?_TX_AUX?TIBBO

?PR?_ESCRIBIRCADENASOFT_BUFFER?MAIN              -----    -----      -----    -----      0027H    0006H
  +--> ?PR?_PUTCHAR?MAIN

?PR?TRAMA_VALIDACION_P_N?VERIFICADOR             -----    -----      -----    -----      -----    -----
  +--> ?CO?VERIFICADOR
  +--> ?PR?_DEBUG_TXT_TIBBO?TIBBO

?PR?DWLOAD_EEPROM?LINTECH                        -----    -----      -----    -----      0002H    0016H
  +--> ?CO?LINTECH
  +--> ?PR?_DEBUG_TXT_TIBBO?TIBBO
  +--> ?PR?_DEBUGBUFFERMF?TIBBO
  +--> ?PR?_ESCRIBIRCADENASOFT_BUFFER?MAIN

?PR?RX_MONITOR?MONITOR                           -----    -----      -----    -----      0009H    000DH
  +--> ?PR?_RECIBE_CMD_MONITOR?MONITOR
  +--> ?PR?_DEBUG_MONITOR?TIBBO
  +--> ?PR?_VALIDA_TRAMA_MONITOR?MONITOR

?PR?_RECIBE_CMD_MONITOR?MONITOR                  -----    -----      -----    -----      0016H    0009H
  +--> ?PR?RX_DATA?TIBBO

?PR?RX_DATA?TIBBO                                -----    -----      -----    -----      -----    -----
  +--> ?PR?TIME_MBIT?TIBBO
  +--> ?PR?TIME_BIT?TIBBO

?PR?_DEBUG_MONITOR?TIBBO                         -----    -----      -----    -----      0016H    0004H
  +--> ?PR?DEBUG_DIVIDIR_TEXTO?TIBBO
  +--> ?CO?TIBBO
  +--> ?PR?_DEBUG_TXT_TIBBO?TIBBO

?PR?DEBUG_DIVIDIR_TEXTO?TIBBO                    -----    -----      -----    -----      -----    -----
  +--> ?CO?TIBBO
  +--> ?PR?_DEBUG_TXT_TIBBO?TIBBO

?PR?_VALIDA_TRAMA_MONITOR?MONITOR                -----    -----      -----    -----      0016H    0005H

?PR?_SECUENCIAEXPEDIDORMF?VERIFICADOR            -----    -----      -----    -----      0001H    0001H
  +--> ?PR?_CHECK_STATUS?LINTECH
  +--> ?PR?_LOAD_SECUENCIA_EXPEDIDOR?VERIFIC...
  +--> ?PR?_RTA_CMD_TRANSPORTE?VERIFICADOR
  +--> ?PR?_MOV_CARD?LINTECH
  +--> ?PR?_CARD_INSERCION?LINTECH
  +--> ?PR?AUT_CARD_CHECK_STATUS?LINTECH
  +--> ?PR?LOADVERIFY_EEPROM?LINTECH
  +--> ?PR?_RD_MF?LINTECH
  +--> ?PR?_WR_MF?LINTECH
BL51 BANKED LINKER/LOCATER V6.22.2.0                                                  11/13/2020  15:29:26  PAGE 15


  +--> ?PR?DWLOAD_EEPROM?LINTECH
  +--> ?PR?ENTREGA_CARD_CAPTURA?VERIFICADOR
  +--> ?PR?_SEND_PTO_PARALELO?VERIFICADOR
  +--> ?PR?_WAIT_PLACA?VERIFICADOR
  +--> ?PR?UNIQUE_IDENTIFIER_UID?LINTECH
  +--> ?PR?_PREGUNTA_LPR?VERIFICADOR
  +--> ?PR?PREGUNTA_PLACA?VERIFICADOR
  +--> ?PR?_VALIDA_TIPO_TARJETA?VERIFICADOR
  +--> ?PR?POWER_OFF?LINTECH
  +--> ?PR?CLAVE_SEGURIDAD_S2?LINTECH
  +--> ?PR?RESPONDE_ESTADO_SENSORES_TRANSPOR...
  +--> ?PR?RESPONDE_TIPO_TARJETA?VERIFICADOR
  +--> ?PR?_RESPONDE_LECTURA_TARJETA_SECTOR1...
  +--> ?PR?_RESPONDE_LECTURA_TARJETA_SECTOR1...
  +--> ?PR?_RESPONDE_LECTURA_TARJETA_SECTOR1...
  +--> ?PR?_RESPONDE_WRITE_TARJETA_SECTOR1_B...
  +--> ?PR?_RESPONDE_WRITE_TARJETA_SECTOR2_B...
  +--> ?PR?_RESPONDE_WRITE_TARJETA_SECTOR1_B...
  +--> ?PR?_RESPONDE_WRITE_TARJETA_SECTOR1_B...
  +--> ?PR?_DISPARO_LOCK_ENTRADA_VEHICULO?VE...
  +--> ?PR?_RESPUESTA_SEGUNDA_CLAVE?VERIFICADOR
  +--> ?PR?ANALIZA_PRESENCIA_MENSUAL?VERIFIC...
  +--> ?PR?_ANALIZA_UID_CARD?VERIFICADOR
  +--> ?PR?ANALIZA_PRESENCIA_ROTACION?VERIFI...
  +--> ?CO?VERIFICADOR
  +--> ?PR?_DEBUG_TXT_TIBBO?TIBBO

?PR?_CHECK_STATUS?LINTECH                        -----    -----      -----    -----      0002H    000BH
  +--> ?CO?LINTECH
  +--> ?PR?_DEBUG_TXT_TIBBO?TIBBO
  +--> ?PR?_DEBUGBUFFERMF?TIBBO
  +--> ?PR?_ESCRIBIRCADENASOFT_BUFFER?MAIN

?PR?_LOAD_SECUENCIA_EXPEDIDOR?VERIFIC...         -----    -----      -----    -----      0002H    0009H

?PR?_RTA_CMD_TRANSPORTE?VERIFICADOR              -----    -----      -----    -----      0002H    0005H
  +--> ?PR?TRAMA_VALIDACION_P_N?VERIFICADOR
  +--> ?CO?VERIFICADOR
  +--> ?PR?_DEBUG_TXT_TIBBO?TIBBO
  +--> ?PR?_DEBUGBUFFERMF?TIBBO
  +--> ?PR?ERROR_RX_PTO?VERIFICADOR

?PR?ERROR_RX_PTO?VERIFICADOR                     -----    -----      -----    -----      0007H    0001H
  +--> ?CO?VERIFICADOR
  +--> ?PR?_DEBUG_TXT_TIBBO?TIBBO
  +--> ?PR?_DEBUG_CHR_TIBBO?TIBBO
  +--> ?PR?_DELAY_10MS?DELAY

?PR?_DELAY_10MS?DELAY                            -----    -----      -----    -----      0008H    0004H
  +--> ?PR?_DELAY_1MS?DELAY

?PR?_MOV_CARD?LINTECH                            -----    -----      -----    -----      0002H    000CH
  +--> ?CO?LINTECH
  +--> ?PR?_DEBUG_TXT_TIBBO?TIBBO
  +--> ?PR?_DEBUGBUFFERMF?TIBBO
  +--> ?PR?_ESCRIBIRCADENASOFT_BUFFER?MAIN

BL51 BANKED LINKER/LOCATER V6.22.2.0                                                  11/13/2020  15:29:26  PAGE 16


?PR?_CARD_INSERCION?LINTECH                      -----    -----      -----    -----      0002H    000AH
  +--> ?CO?LINTECH
  +--> ?PR?_DEBUG_TXT_TIBBO?TIBBO
  +--> ?PR?_DEBUGBUFFERMF?TIBBO
  +--> ?PR?_ESCRIBIRCADENASOFT_BUFFER?MAIN

?PR?AUT_CARD_CHECK_STATUS?LINTECH                -----    -----      -----    -----      0002H    000BH
  +--> ?CO?LINTECH
  +--> ?PR?_DEBUG_TXT_TIBBO?TIBBO
  +--> ?PR?_DEBUGBUFFERMF?TIBBO
  +--> ?PR?_ESCRIBIRCADENASOFT_BUFFER?MAIN

?PR?LOADVERIFY_EEPROM?LINTECH                    -----    -----      -----    -----      0002H    0010H
  +--> ?CO?LINTECH
  +--> ?PR?_DEBUG_TXT_TIBBO?TIBBO
  +--> ?PR?_DEBUGBUFFERMF?TIBBO
  +--> ?PR?_ESCRIBIRCADENASOFT_BUFFER?MAIN

?PR?_RD_MF?LINTECH                               -----    -----      -----    -----      0002H    0012H
  +--> ?CO?LINTECH
  +--> ?PR?_DEBUG_TXT_TIBBO?TIBBO
  +--> ?PR?_DEBUG_CHR_TIBBO?TIBBO
  +--> ?PR?_DEBUGBUFFERMF?TIBBO
  +--> ?PR?_ESCRIBIRCADENASOFT_BUFFER?MAIN

?PR?_WR_MF?LINTECH                               -----    -----      -----    -----      0002H    0025H
  +--> ?CO?LINTECH
  +--> ?PR?_DEBUG_TXT_TIBBO?TIBBO
  +--> ?PR?_DEBUG_CHR_TIBBO?TIBBO
  +--> ?PR?_DEBUGBUFFERMF?TIBBO
  +--> ?PR?_ESCRIBIRCADENASOFT_BUFFER?MAIN

?PR?ENTREGA_CARD_CAPTURA?VERIFICADOR             -----    -----      -----    -----      0002H    0001H
  +--> ?CO?VERIFICADOR
  +--> ?PR?_DEBUG_TXT_TIBBO?TIBBO
  +--> ?PR?SEL_SENSOR2?IO_SENSORES
  +--> ?PR?VALIDASENSOR?IO_SENSORES
  +--> ?PR?VALIDA_SENSOR1_AUTO?IO_SENSORES

?PR?VALIDA_SENSOR1_AUTO?IO_SENSORES              -----    -----      -----    -----      0011H    0001H
  +--> ?PR?SEL_SENSOR1?IO_SENSORES
  +--> ?PR?SEL_AUTO?IO_SENSORES
  +--> ?CO?IO_SENSORES
  +--> ?PR?_DEBUG_TXT_TIBBO?TIBBO
  +--> ?PR?BOTTON?IO_SENSORES

?PR?BOTTON?IO_SENSORES                           -----    -----      -----    -----      -----    -----
  +--> ?PR?SEL_PULSA?IO_SENSORES
  +--> ?CO?IO_SENSORES
  +--> ?PR?_DEBUG_TXT_TIBBO?TIBBO

?PR?_SEND_PTO_PARALELO?VERIFICADOR               -----    -----      -----    -----      0002H    0004H
  +--> ?PR?_ARMAR_TRAMA_PTO_PARALELO_EXPEDID...
  +--> ?PR?_ARMAR_TRAMA_PTO_PARALELO_EXPEDID...
  +--> ?PR?INCREMENTE_TICKET?EEPROM
  +--> ?PR?_SEND_PORT?PTO_PARALELO
  +--> ?CO?VERIFICADOR
BL51 BANKED LINKER/LOCATER V6.22.2.0                                                  11/13/2020  15:29:26  PAGE 17


  +--> ?PR?_DEBUG_TXT_TIBBO?TIBBO
  +--> ?PR?_DEBUGBUFFERMF?TIBBO
  +--> ?PR?CLEAR_PLACA?MONITOR

?PR?_ARMAR_TRAMA_PTO_PARALELO_EXPEDID...         -----    -----      -----    -----      0006H    0006H
  +--> ?PR?_BLOCK_READ_CLOCK_HEX?CLOCK
  +--> ?PR?_RD_EEPROM?EEPROM

?PR?_ARMAR_TRAMA_PTO_PARALELO_EXPEDID...         -----    -----      -----    -----      0006H    000FH
  +--> ?PR?LEE_NO_TICKET?EEPROM
  +--> ?PR?_STRCAT?STRCAT
  +--> ?PR?_STRLEN?STRLEN
  +--> ?PR?_BLOCK_READ_CLOCK_HEX?CLOCK
  +--> ?PR?_RD_EEPROM?EEPROM

?PR?LEE_NO_TICKET?EEPROM                         -----    -----      -----    -----      001DH    000BH
  +--> ?PR?READ_EEPROM_TICKET?EEPROM
  +--> ?CO?EEPROM
  +--> ?PR?PRINTF?PRINTF
  +--> ?PR?_STRLEN?STRLEN
  +--> ?PR?_DEBUG_TXT_TIBBO?TIBBO

?PR?READ_EEPROM_TICKET?EEPROM                    -----    -----      -----    -----      0028H    0007H
  +--> ?PR?_RD_EEPROM?EEPROM

?PR?INCREMENTE_TICKET?EEPROM                     -----    -----      -----    -----      0006H    000BH
  +--> ?PR?READ_EEPROM_TICKET?EEPROM
  +--> ?CO?EEPROM
  +--> ?PR?PRINTF?PRINTF
  +--> ?PR?_WRITE_EEPROM_TICKET?EEPROM

?PR?_WRITE_EEPROM_TICKET?EEPROM                  -----    -----      -----    -----      0015H    000BH
  +--> ?CO?EEPROM
  +--> ?PR?_DEBUG_TXT_TIBBO?TIBBO
  +--> ?PR?_ATOL?ATOL
  +--> ?PR?_DEBUG_CHR_TIBBO?TIBBO
  +--> ?PR?_WR_EEPROM?EEPROM

?PR?_ATOL?ATOL                                   0020H.0  0000H.1    -----    -----      0020H    0007H
  +--> ?PR?_ISSPACE?ISSPACE
  +--> ?PR?_ISDIGIT?ISDIGIT

?PR?_SEND_PORT?PTO_PARALELO                      -----    -----      -----    -----      0015H    000AH
  +--> ?PR?PULSO_BUS?PTO_PARALELO
  +--> ?PR?_DELAY_20US?DELAY

?PR?PULSO_BUS?PTO_PARALELO                       -----    -----      -----    -----      -----    -----
  +--> ?PR?_DELAY_20US?DELAY

?PR?_WAIT_PLACA?VERIFICADOR                      -----    -----      -----    -----      0002H    0007H
  +--> ?CO?VERIFICADOR
  +--> ?PR?_DEBUG_TXT_TIBBO?TIBBO
  +--> ?PR?RX_MONITOR?MONITOR
  +--> ?PR?_RESPUESTA_PLACA_CANCEL?VERIFICADOR

?PR?_RESPUESTA_PLACA_CANCEL?VERIFICADOR          -----    -----      -----    -----      0009H    000AH
  +--> ?CO?VERIFICADOR
BL51 BANKED LINKER/LOCATER V6.22.2.0                                                  11/13/2020  15:29:26  PAGE 18


  +--> ?PR?_DEBUG_TXT_TIBBO?TIBBO
  +--> ?PR?_ARMAR_TRAMA_TARJETA_SECTOR1_BLOQ...

?PR?_ARMAR_TRAMA_TARJETA_SECTOR1_BLOQ...         -----    -----      -----    -----      0013H    0004H
  +--> ?PR?CLEAR_PLACA?MONITOR
  +--> ?PR?_RD_EEPROM?EEPROM

?PR?UNIQUE_IDENTIFIER_UID?LINTECH                -----    -----      -----    -----      0002H    000BH
  +--> ?CO?LINTECH
  +--> ?PR?_DEBUG_TXT_TIBBO?TIBBO
  +--> ?PR?_DEBUGBUFFERMF?TIBBO
  +--> ?PR?_ESCRIBIRCADENASOFT_BUFFER?MAIN

?PR?_PREGUNTA_LPR?VERIFICADOR                    -----    -----      -----    -----      0002H    0003H
  +--> ?CO?VERIFICADOR
  +--> ?PR?_DEBUG_TXT_TIBBO?TIBBO
  +--> ?PR?_RD_EEPROM?EEPROM
  +--> ?PR?_ARMAR_TRAMA_MONITOR?VERIFICADOR

?PR?_ARMAR_TRAMA_MONITOR?VERIFICADOR             -----    -----      -----    -----      0005H    000FH
  +--> ?PR?DIR_BOARD_MONITOR?IO_SENSORES
  +--> ?PR?LEE_NO_TICKET?EEPROM
  +--> ?PR?_STRCAT?STRCAT
  +--> ?PR?_BYTEHEX_DECIMAL?CLOCK
  +--> ?PR?_STRLEN?STRLEN
  +--> ?PR?_TWO_BYTEHEX_DECIMAL?CLOCK
  +--> ?PR?_BLOCK_READ_CLOCK_ASCII?CLOCK

?PR?DIR_BOARD_MONITOR?IO_SENSORES                -----    -----      -----    -----      -----    -----
  +--> ?PR?_RD_EEPROM?EEPROM

?PR?_BYTEHEX_DECIMAL?CLOCK                       -----    -----      -----    -----      0014H    0001H

?PR?_TWO_BYTEHEX_DECIMAL?CLOCK                   -----    -----      -----    -----      0014H    000CH
  +--> ?PR?_POW?POW

?PR?_POW?POW                                     -----    -----      -----    -----      0020H    000AH
  +--> ?PR?LOG?LOG
  +--> ?PR?EXP?EXP

?PR?LOG?LOG                                      0020H.0  0000H.1    -----    -----      002AH    0004H

?PR?PREGUNTA_PLACA?VERIFICADOR                   -----    -----      -----    -----      0002H    0001H
  +--> ?CO?VERIFICADOR
  +--> ?PR?_DEBUG_TXT_TIBBO?TIBBO
  +--> ?PR?_RD_EEPROM?EEPROM

?PR?_VALIDA_TIPO_TARJETA?VERIFICADOR             -----    -----      -----    -----      0002H    0007H
  +--> ?CO?VERIFICADOR
  +--> ?PR?_DEBUG_TXT_TIBBO?TIBBO
  +--> ?PR?_RD_EEPROM?EEPROM
  +--> ?PR?_TARJETA_MENSUAL?VERIFICADOR
  +--> ?PR?_SEND_PORTERR?PTO_PARALELO
  +--> ?PR?_PANTALLALCD?PANTALLAS
  +--> ?PR?CAPTURA_EXPULSA?VERIFICADOR
  +--> ?PR?_TARJETA_ROTACION?VERIFICADOR

BL51 BANKED LINKER/LOCATER V6.22.2.0                                                  11/13/2020  15:29:26  PAGE 19


?PR?_TARJETA_MENSUAL?VERIFICADOR                 -----    -----      -----    -----      0009H    0007H
  +--> ?PR?_HORARIOS?VERIFICADOR
  +--> ?PR?_CHECK_FECHAOUT?CLOCK
  +--> ?PR?_VALIDA_VEHICULO_CARD_MENSUAL?VER...
  +--> ?PR?CAPTURA_EXPULSA?VERIFICADOR
  +--> ?CO?VERIFICADOR
  +--> ?PR?_DEBUG_TXT_TIBBO?TIBBO
  +--> ?PR?_ARMAR_TRAMA_TARJETA_SECTOR1_BLOQ...
  +--> ?PR?_SEND_PORTERR?PTO_PARALELO
  +--> ?PR?_PANTALLALCD?PANTALLAS

?PR?_HORARIOS?VERIFICADOR                        -----    -----      -----    -----      0010H    0013H
  +--> ?PR?ADDR_HORARIOS?PROG
  +--> ?PR?_RD_EEPROM?EEPROM
  +--> ?PR?_LEE_CLK?CLOCK
  +--> ?CO?VERIFICADOR
  +--> ?PR?_DEBUG_TXT_TIBBO?TIBBO
  +--> ?PR?_DEBUG_CHR_TIBBO?TIBBO
  +--> ?PR?_BLOQUE_HORARIO?VERIFICADOR
  +--> ?PR?_PANTALLALCD?PANTALLAS

?PR?_BLOQUE_HORARIO?VERIFICADOR                  -----    -----      -----    -----      0023H    0007H
  +--> ?CO?VERIFICADOR
  +--> ?PR?_DEBUG_TXT_TIBBO?TIBBO
  +--> ?PR?_LEE_CLK?CLOCK
  +--> ?PR?_DEBUG_CHR_TIBBO?TIBBO
  +--> ?PR?_HORA_MAXIMA?VERIFICADOR
  +--> ?PR?_EN_HORARIO?VERIFICADOR
  +--> ?PR?_RD_EEPROM?EEPROM
  +--> ?PR?_SEND_PORTERR?PTO_PARALELO
  +--> ?PR?_PANTALLALCD?PANTALLAS

?PR?_HORA_MAXIMA?VERIFICADOR                     -----    -----      -----    -----      002FH    0008H
  +--> ?PR?_RD_EEPROM?EEPROM
  +--> ?PR?_DEBUG_CHR_TIBBO?TIBBO
  +--> ?CO?VERIFICADOR
  +--> ?PR?_DEBUG_TXT_TIBBO?TIBBO

?PR?_EN_HORARIO?VERIFICADOR                      -----    -----      -----    -----      002AH    0005H
  +--> ?CO?VERIFICADOR
  +--> ?PR?_DEBUG_TXT_TIBBO?TIBBO
  +--> ?PR?_HORA_MAXIMA?VERIFICADOR

?PR?_SEND_PORTERR?PTO_PARALELO                   -----    -----      -----    -----      002AH    0006H
  +--> ?PR?PULSO_BUS?PTO_PARALELO
  +--> ?PR?_DELAY_20US?DELAY

?PR?_PANTALLALCD?PANTALLAS                       -----    -----      -----    -----      002AH    000AH
  +--> ?CO?PANTALLAS
  +--> ?PR?_INIT_MEMPOOL?INIT_MEM
  +--> ?PR?_MALLOC?MALLOC
  +--> ?PR?_LCD_TXT?PANTALLAS
  +--> ?PR?_STRLEN?STRLEN
  +--> ?PR?_TX_CHRLCD?PANTALLAS
  +--> ?PR?_RASPBERRY_DATA?PANTALLAS
  +--> ?PR?_FREE?FREE

BL51 BANKED LINKER/LOCATER V6.22.2.0                                                  11/13/2020  15:29:26  PAGE 20


?PR?_MALLOC?MALLOC                               -----    -----      -----    -----      0034H    0006H

?PR?_LCD_TXT?PANTALLAS                           -----    -----      -----    -----      0034H    0005H
  +--> ?PR?_TX_CHRLCD?PANTALLAS

?PR?_TX_CHRLCD?PANTALLAS                         -----    -----      -----    -----      0039H    0002H
  +--> ?PR?_PUTCHAR?MAIN

?PR?_RASPBERRY_DATA?PANTALLAS                    -----    -----      -----    -----      0034H    0006H
  +--> ?PR?_STRLEN?STRLEN
  +--> ?PR?_PUTCHAR?MAIN

?PR?_FREE?FREE                                   -----    -----      -----    -----      0034H    0006H

?PR?_VALIDA_VEHICULO_CARD_MENSUAL?VER...         -----    -----      -----    -----      0010H    0004H
  +--> ?CO?VERIFICADOR
  +--> ?PR?_DEBUG_TXT_TIBBO?TIBBO
  +--> ?PR?_RD_EEPROM?EEPROM
  +--> ?PR?_SEND_PORTERR?PTO_PARALELO

?PR?_ARMAR_TRAMA_TARJETA_SECTOR1_BLOQ...         -----    -----      -----    -----      0010H    0006H
  +--> ?PR?_BLOCK_READ_CLOCK_HEX?CLOCK
  +--> ?PR?DIR_BOARD?IO_SENSORES

?PR?DIR_BOARD?IO_SENSORES                        -----    -----      -----    -----      0032H    0001H
  +--> ?PR?SEL_DIR1?IO_SENSORES
  +--> ?PR?SEL_DIR2?IO_SENSORES
  +--> ?PR?_RD_EEPROM?EEPROM

?PR?_TARJETA_ROTACION?VERIFICADOR                -----    -----      -----    -----      0009H    0006H
  +--> ?PR?_ARMAR_TRAMA_TARJETA_SECTOR1_BLOQ...

?PR?POWER_OFF?LINTECH                            -----    -----      -----    -----      0002H    000BH
  +--> ?CO?LINTECH
  +--> ?PR?_DEBUG_TXT_TIBBO?TIBBO
  +--> ?PR?_DEBUGBUFFERMF?TIBBO
  +--> ?PR?_ESCRIBIRCADENASOFT_BUFFER?MAIN

?PR?CLAVE_SEGURIDAD_S2?LINTECH                   -----    -----      -----    -----      0002H    0016H
  +--> ?CO?LINTECH
  +--> ?PR?_DEBUG_TXT_TIBBO?TIBBO
  +--> ?PR?_DEBUGBUFFERMF?TIBBO
  +--> ?PR?_ESCRIBIRCADENASOFT_BUFFER?MAIN

?PR?RESPONDE_ESTADO_SENSORES_TRANSPOR...         -----    -----      -----    -----      0002H    0001H
  +--> ?CO?VERIFICADOR
  +--> ?PR?_DEBUG_TXT_TIBBO?TIBBO
  +--> ?PR?_SEND_PORTERR?PTO_PARALELO
  +--> ?PR?INGRESO_VEHICULO?VERIFICADOR

?PR?INGRESO_VEHICULO?VERIFICADOR                 -----    -----      -----    -----      -----    -----
  +--> ?PR?VALIDASENSORESPASO?IO_SENSORES
  +--> ?PR?_RD_EEPROM?EEPROM
  +--> ?CO?VERIFICADOR
  +--> ?PR?_DEBUG_TXT_TIBBO?TIBBO
  +--> ?PR?_PANTALLALCD?PANTALLAS
  +--> ?PR?BOTTON?IO_SENSORES
BL51 BANKED LINKER/LOCATER V6.22.2.0                                                  11/13/2020  15:29:26  PAGE 21



?PR?VALIDASENSORESPASO?IO_SENSORES               -----    -----      -----    -----      0010H    0001H
  +--> ?PR?SEL_SENSOR2?IO_SENSORES
  +--> ?PR?VALIDASENSOR?IO_SENSORES
  +--> ?PR?VALIDA_SENSOR1_AUTO?IO_SENSORES
  +--> ?CO?IO_SENSORES
  +--> ?PR?_DEBUG_TXT_TIBBO?TIBBO

?PR?RESPONDE_TIPO_TARJETA?VERIFICADOR            -----    -----      -----    -----      0002H    0001H
  +--> ?CO?VERIFICADOR
  +--> ?PR?_DEBUG_TXT_TIBBO?TIBBO
  +--> ?PR?_SEND_PORTERR?PTO_PARALELO
  +--> ?PR?_PANTALLALCD?PANTALLAS
  +--> ?PR?CAPTURA_EXPULSA?VERIFICADOR

?PR?_RESPONDE_LECTURA_TARJETA_SECTOR1...         -----    -----      -----    -----      0002H    0016H
  +--> ?CO?VERIFICADOR
  +--> ?PR?_DEBUG_TXT_TIBBO?TIBBO
  +--> ?PR?_DEBUGBUFFERMF?TIBBO
  +--> ?PR?_RD_EEPROM?EEPROM
  +--> ?PR?_DEBUG_HEXDEC?TIBBO
  +--> ?PR?_DEBUG_CHR_TIBBO?TIBBO
  +--> ?PR?_SEND_PORTERR?PTO_PARALELO
  +--> ?PR?_PANTALLALCD?PANTALLAS
  +--> ?PR?CAPTURA_EXPULSA?VERIFICADOR

?PR?_DEBUG_HEXDEC?TIBBO                          -----    -----      -----    -----      0018H    0002H
  +--> ?PR?_TX_AUX?TIBBO

?PR?_RESPONDE_LECTURA_TARJETA_SECTOR1...         -----    -----      -----    -----      0002H    0004H
  +--> ?CO?VERIFICADOR
  +--> ?PR?_DEBUG_TXT_TIBBO?TIBBO
  +--> ?PR?CAPTURA_EXPULSA?VERIFICADOR

?PR?_RESPONDE_LECTURA_TARJETA_SECTOR1...         -----    -----      -----    -----      0002H    0015H
  +--> ?CO?VERIFICADOR
  +--> ?PR?_DEBUG_TXT_TIBBO?TIBBO
  +--> ?PR?_DEBUGBUFFERMF?TIBBO
  +--> ?PR?_DEBUG_CHR_TIBBO?TIBBO
  +--> ?PR?CAPTURA_EXPULSA?VERIFICADOR

?PR?_RESPONDE_WRITE_TARJETA_SECTOR1_B...         -----    -----      -----    -----      0002H    0007H
  +--> ?CO?VERIFICADOR
  +--> ?PR?_DEBUG_TXT_TIBBO?TIBBO
  +--> ?PR?_DEBUGBUFFERMF?TIBBO
  +--> ?PR?_ARMAR_TRAMA_TARJETA_SECTOR1_BLOQ...

?PR?_ARMAR_TRAMA_TARJETA_SECTOR1_BLOQ...         -----    -----      -----    -----      0009H    0003H
  +--> ?PR?LEE_NO_TICKET?EEPROM

?PR?_RESPONDE_WRITE_TARJETA_SECTOR2_B...         -----    -----      -----    -----      0002H    0003H
  +--> ?CO?VERIFICADOR
  +--> ?PR?_DEBUG_TXT_TIBBO?TIBBO
  +--> ?PR?_DEBUGBUFFERMF?TIBBO

?PR?_RESPONDE_WRITE_TARJETA_SECTOR1_B...         -----    -----      -----    -----      0002H    0003H
  +--> ?CO?VERIFICADOR
BL51 BANKED LINKER/LOCATER V6.22.2.0                                                  11/13/2020  15:29:26  PAGE 22


  +--> ?PR?_DEBUG_TXT_TIBBO?TIBBO
  +--> ?PR?_DEBUGBUFFERMF?TIBBO

?PR?_RESPONDE_WRITE_TARJETA_SECTOR1_B...         -----    -----      -----    -----      0002H    0003H
  +--> ?CO?VERIFICADOR
  +--> ?PR?_DEBUG_TXT_TIBBO?TIBBO
  +--> ?PR?_DEBUGBUFFERMF?TIBBO

?PR?_DISPARO_LOCK_ENTRADA_VEHICULO?VE...         -----    -----      -----    -----      0002H    0004H
  +--> ?CO?VERIFICADOR
  +--> ?PR?_DEBUG_TXT_TIBBO?TIBBO
  +--> ?PR?_PANTALLALCD?PANTALLAS
  +--> ?PR?_SEND_PORTERR?PTO_PARALELO
  +--> ?PR?_PANTALLALCD_LINEA_2?PANTALLAS
  +--> ?PR?VALIDA_SENSOR1_AUTO?IO_SENSORES

?PR?_PANTALLALCD_LINEA_2?PANTALLAS               -----    -----      -----    -----      0010H    000DH
  +--> ?CO?PANTALLAS
  +--> ?PR?_INIT_MEMPOOL?INIT_MEM
  +--> ?PR?_MALLOC?MALLOC
  +--> ?PR?_LCD_TXT?PANTALLAS
  +--> ?PR?_STRLEN?STRLEN
  +--> ?PR?_TX_CHRLCD?PANTALLAS
  +--> ?PR?_RASPBERRY_DATA?PANTALLAS
  +--> ?PR?LEE_NO_TICKET?EEPROM
  +--> ?PR?_STRCAT?STRCAT
  +--> ?PR?_FREE?FREE

?PR?_RESPUESTA_SEGUNDA_CLAVE?VERIFICADOR         -----    -----      -----    -----      0002H    0006H
  +--> ?CO?VERIFICADOR
  +--> ?PR?_DEBUG_TXT_TIBBO?TIBBO
  +--> ?PR?_DEBUGBUFFERMF?TIBBO
  +--> ?PR?_ARMAR_TRAMA_PLACA?VERIFICADOR

?PR?_ARMAR_TRAMA_PLACA?VERIFICADOR               -----    -----      -----    -----      0008H    0003H
  +--> ?PR?_STRLEN?STRLEN

?PR?ANALIZA_PRESENCIA_MENSUAL?VERIFIC...         -----    -----      -----    -----      0002H    0001H
  +--> ?PR?VALIDASENSORESPASO?IO_SENSORES
  +--> ?PR?_SEND_PORTERR?PTO_PARALELO
  +--> ?PR?_PANTALLALCD?PANTALLAS

?PR?_ANALIZA_UID_CARD?VERIFICADOR                -----    -----      -----    -----      0002H    0015H
  +--> ?CO?VERIFICADOR
  +--> ?PR?_DEBUG_TXT_TIBBO?TIBBO
  +--> ?PR?_DEBUGBUFFERMF?TIBBO
  +--> ?PR?_DEBUG_CHR_TIBBO?TIBBO

?PR?ANALIZA_PRESENCIA_ROTACION?VERIFI...         -----    -----      -----    -----      0002H    0001H
  +--> ?PR?VALIDASENSORESPASO?IO_SENSORES
  +--> ?PR?_SEND_PORTERR?PTO_PARALELO
  +--> ?PR?_PANTALLALCD?PANTALLAS

?PR?_RECIBE_PORT?PTO_PARALELO                    -----    -----      -----    -----      0001H    0008H
  +--> ?PR?OFF_TIMER0_INTERRUP?MAIN
  +--> ?PR?ON_TIMER0_INTERRUP?MAIN

BL51 BANKED LINKER/LOCATER V6.22.2.0                                                  11/13/2020  15:29:26  PAGE 23


?PR?_DEBUG_PTO_PARALELO?TIBBO                    -----    -----      -----    -----      0001H    0004H
  +--> ?PR?DEBUG_DIVIDIR_TEXTO?TIBBO
  +--> ?CO?TIBBO
  +--> ?PR?_DEBUG_TXT_TIBBO?TIBBO
  +--> ?PR?_DEBUGBUFFERMF?TIBBO

?PR?_VALIDA_TRAMA_PTO?ACCESCAN                   -----    -----      -----    -----      0001H    000FH
  +--> ?PR?_VALIDAR_CLK?CLOCK
  +--> ?PR?_BLOCK_WRITE_CLOCK_ASCII?CLOCK
  +--> ?PR?RELOJ_PANTALLA_LCD?PANTALLAS
  +--> ?PR?_PANTALLALCD?PANTALLAS
  +--> ?CO?ACCESCAN
  +--> ?PR?_DEBUG_TXT_TIBBO?TIBBO
  +--> ?PR?_BYTEHEX_DECIMAL?CLOCK
  +--> ?PR?_TWO_BYTEHEX_DECIMAL?CLOCK
  +--> ?PR?VALIDASENSORESPASO?IO_SENSORES
  +--> ?PR?_CMD_LPR_SALIDA_WIEGAND?ACCESCAN
  +--> ?PR?_PANTALLALCD_LINEA_2?PANTALLAS
  +--> ?PR?_GRABA_SERIE?EEPROM

?PR?_BLOCK_WRITE_CLOCK_ASCII?CLOCK               -----    -----      -----    -----      0010H    0003H
  +--> ?PR?_TWO_ONE?CLOCK
  +--> ?PR?_WR_CLK?CLOCK

?PR?_WR_CLK?CLOCK                                -----    -----      -----    -----      0013H    0002H
  +--> ?PR?_DELAY_20US?DELAY
  +--> ?PR?_EB_CLK?CLOCK

?PR?RELOJ_PANTALLA_LCD?PANTALLAS                 -----    -----      -----    -----      0010H    000DH
  +--> ?CO?PANTALLAS
  +--> ?PR?_BLOCK_READ_CLOCK?CLOCK
  +--> ?PR?_LCD_TXT_NUM_CHAR?PANTALLAS

?PR?_BLOCK_READ_CLOCK?CLOCK                      -----    -----      -----    -----      001DH    0003H
  +--> ?PR?_LEE_CLK?CLOCK

?PR?_LCD_TXT_NUM_CHAR?PANTALLAS                  -----    -----      -----    -----      001DH    0006H
  +--> ?PR?_TX_CHRLCD?PANTALLAS

?PR?_CMD_LPR_SALIDA_WIEGAND?ACCESCAN             -----    -----      -----    -----      0010H    0022H
  +--> ?PR?DIR_BOARD?IO_SENSORES
  +--> ?PR?_BLOCK_READ_CLOCK_ASCII?CLOCK
  +--> ?PR?_MONITOR_CHR?ACCESCAN

?PR?_MONITOR_CHR?ACCESCAN                        -----    -----      -----    -----      0032H    0005H
  +--> ?PR?_TX_AUX?TIBBO

?PR?_GRABA_SERIE?EEPROM                          -----    -----      -----    -----      0010H    0005H
  +--> ?CO?EEPROM
  +--> ?PR?_DEBUG_TXT_TIBBO?TIBBO
  +--> ?PR?_WRITE_EEPROM_TICKET?EEPROM
  +--> ?PR?_WR_EEPROM?EEPROM

?PR?MSJ_LCD_INFORMATIVO?IO_SENSORES              -----    -----      -----    -----      0001H    0001H
  +--> ?PR?SEL_FUNCION?IO_SENSORES
  +--> ?PR?LOAD_AND_SEND_INFO_RELOJ?PTO_PARA...
  +--> ?PR?LOAD_AND_SEND_ID_COD?PTO_PARALELO
BL51 BANKED LINKER/LOCATER V6.22.2.0                                                  11/13/2020  15:29:26  PAGE 24


  +--> ?PR?_RD_EEPROM?EEPROM
  +--> ?PR?_SEND_PORTERR?PTO_PARALELO

?PR?LOAD_AND_SEND_INFO_RELOJ?PTO_PARA...         -----    -----      -----    -----      0002H    000BH
  +--> ?PR?_BLOCK_READ_CLOCK?CLOCK
  +--> ?PR?_LEE_CLK?CLOCK
  +--> ?PR?_SEND_PORT?PTO_PARALELO

?PR?LOAD_AND_SEND_ID_COD?PTO_PARALELO            -----    -----      -----    -----      0002H    0013H
  +--> ?PR?_RD_EEPROM?EEPROM
  +--> ?CO?PTO_PARALELO
  +--> ?PR?PRINTF?PRINTF
  +--> ?PR?_SEND_PORT?PTO_PARALELO



SYMBOL TABLE OF MODULE:  .\Objects\expedidor_v_01_raspberry (MAIN)

  VALUE           TYPE          NAME
  ----------------------------------

  -------         MODULE        MAIN
  C:0000H         SYMBOL        _ICE_DUMMY_
  D:0080H         PUBLIC        P0
  D:0090H         PUBLIC        P1
  C:B3B1H         PUBLIC        timer0_int
  D:00B0H         PUBLIC        P3
  B:00A8H.7       PUBLIC        EA
  C:B7D6H         PUBLIC        off_Timer0_Interrup
  X:016AH         PUBLIC        ValTimeOutCom
  X:016BH         PUBLIC        Buffer_Rta_Lintech
  X:019DH         PUBLIC        Timer_wait
  B:0021H.1       PUBLIC        pto_paraleo
  X:019EH         PUBLIC        g_cContByteRx
  B:0080H.0       PUBLIC        rx_ip
  B:0080H.3       PUBLIC        Atascado
  C:A3B7H         PUBLIC        main
  X:019FH         PUBLIC        Timer_tivo
  C:AA86H         PUBLIC        variable_inicio
  B:0090H.7       PUBLIC        lock
  I:0023H         PUBLIC        rbuf
  C:B7C7H         PUBLIC        on_Timer0_Interrup
  I:0055H         PUBLIC        tbuf
  B:0090H.1       PUBLIC        DataIn
  D:0089H         PUBLIC        TMOD
  X:01A1H         PUBLIC        USE_LPR
  X:01A2H         PUBLIC        Debug_Tibbo
  X:01A3H         PUBLIC        Raspberry
  X:01A4H         PUBLIC        SIN_COBRO
  X:01A6H         PUBLIC        Tipo_Vehiculo
  B:00B0H.3       PUBLIC        busy
  C:B732H         PUBLIC        ini_timer
  B:00A8H.1       PUBLIC        ET0
  B:0088H.5       PUBLIC        TF0
  D:008CH         PUBLIC        TH0
  X:01A7H         PUBLIC        ACK
  X:01A8H         PUBLIC        g_cEstadoComSoft
BL51 BANKED LINKER/LOCATER V6.22.2.0                                                  11/13/2020  15:29:26  PAGE 25


  D:008AH         PUBLIC        TL0
  B:0088H.4       PUBLIC        TR0
  C:B742H         PUBLIC        inicia_board
  X:01A9H         PUBLIC        T_GRACIA
  B:0080H.7       PUBLIC        sel_com
  X:01ABH         PUBLIC        STX_LINTECH
  C:B761H         PUBLIC        _getkey
  X:01ACH         PUBLIC        ETX
  C:ACD6H         PUBLIC        _EscribirCadenaSoft_buffer
  B:0021H.2       PUBLIC        buffer_ready
  C:AFB8H         PUBLIC        _putchar
  B:0021H.3       PUBLIC        placa_ready
  -------         PROC          TIMER0_INT
  C:B3B1H         LINE#         16
  C:B3B7H         LINE#         19
  C:B3BDH         LINE#         20
  C:B3C2H         LINE#         21
  C:B3C2H         LINE#         22
  C:B3C8H         LINE#         23
  C:B3C8H         LINE#         25
  C:B3D6H         LINE#         26
  C:B3D8H         LINE#         28
  -------         ENDPROC       TIMER0_INT
  -------         PROC          INI_TIMER
  C:B732H         LINE#         31
  C:B732H         LINE#         32
  C:B732H         LINE#         34
  C:B73AH         LINE#         36
  C:B73DH         LINE#         37
  C:B73FH         LINE#         38
  C:B741H         LINE#         40
  -------         ENDPROC       INI_TIMER
  -------         PROC          ON_TIMER0_INTERRUP
  C:B7C7H         LINE#         43
  C:B7C7H         LINE#         44
  C:B7C7H         LINE#         45
  C:B7C9H         LINE#         46
  C:B7CBH         LINE#         48
  -------         ENDPROC       ON_TIMER0_INTERRUP
  -------         PROC          OFF_TIMER0_INTERRUP
  C:B7D6H         LINE#         51
  C:B7D6H         LINE#         52
  C:B7D6H         LINE#         53
  C:B7D8H         LINE#         55
  -------         ENDPROC       OFF_TIMER0_INTERRUP
  -------         PROC          _GETKEY
  -------         DO            
  D:0006H         SYMBOL        k
  -------         ENDDO         
  C:B761H         LINE#         63
  C:B761H         LINE#         64
  C:B761H         LINE#         68
  C:B761H         LINE#         69
  C:B764H         LINE#         70
  C:B764H         LINE#         71
  C:B76CH         LINE#         73
  C:B76CH         LINE#         74
BL51 BANKED LINKER/LOCATER V6.22.2.0                                                  11/13/2020  15:29:26  PAGE 26


  -------         ENDPROC       _GETKEY
  -------         PROC          _PUTCHAR
  X:00A7H         SYMBOL        c
  -------         DO            
  X:00A8H         SYMBOL        i
  -------         ENDDO         
  C:AFB8H         LINE#         78
  C:AFBDH         LINE#         79
  C:AFBDH         LINE#         82
  C:AFCCH         LINE#         83
  C:AFCCH         LINE#         84
  C:AFE2H         LINE#         85
  C:AFE2H         LINE#         87
  C:AFF0H         LINE#         88
  C:AFF0H         LINE#         90
  C:AFF5H         LINE#         91
  -------         ENDPROC       _PUTCHAR
  -------         PROC          _ESCRIBIRCADENASOFT_BUFFER
  X:0027H         SYMBOL        buffer
  X:002AH         SYMBOL        tamano_cadena
  -------         DO            
  X:002BH         SYMBOL        i
  X:002CH         SYMBOL        d
  -------         ENDDO         
  C:ACD6H         LINE#         95
  C:ACE4H         LINE#         96
  C:ACE4H         LINE#         98
  C:ACF2H         LINE#         99
  C:ACF2H         LINE#         100
  C:AD09H         LINE#         101
  C:AD13H         LINE#         102
  C:AD1BH         LINE#         103
  -------         ENDPROC       _ESCRIBIRCADENASOFT_BUFFER
  -------         PROC          INICIA_BOARD
  C:B742H         LINE#         108
  C:B742H         LINE#         109
  C:B742H         LINE#         110
  C:B745H         LINE#         111
  C:B748H         LINE#         112
  C:B74BH         LINE#         113
  C:B74DH         LINE#         114
  C:B74FH         LINE#         115
  C:B751H         LINE#         117
  -------         ENDPROC       INICIA_BOARD
  -------         PROC          VARIABLE_INICIO
  C:AA86H         LINE#         122
  C:AA86H         LINE#         123
  C:AA86H         LINE#         126
  C:AA97H         LINE#         127
  C:AAA8H         LINE#         128
  C:AAB6H         LINE#         129
  C:AAC4H         LINE#         130
  C:AAD2H         LINE#         132
  -------         ENDPROC       VARIABLE_INICIO
  -------         PROC          MAIN
  -------         DO            
  X:0141H         SYMBOL        buffer
BL51 BANKED LINKER/LOCATER V6.22.2.0                                                  11/13/2020  15:29:26  PAGE 27


  X:0169H         SYMBOL        Estado_Comunicacion_Secuencia_MF
  X:0000H         SYMBOL        Length_trama
  -------         ENDDO         
  C:A3B7H         LINE#         140
  C:A3B7H         LINE#         141
  C:A3B7H         LINE#         148
  C:A3BAH         LINE#         149
  C:A3BDH         LINE#         150
  C:A3C0H         LINE#         151
  C:A3C3H         LINE#         152
  C:A3C6H         LINE#         153
  C:A3C8H         LINE#         155
  C:A3CBH         LINE#         156
  C:A3D2H         LINE#         157
  C:A3D5H         LINE#         159
  C:A3DAH         LINE#         161
  C:A3DDH         LINE#         163
  C:A3E0H         LINE#         164
  C:A3E0H         LINE#         165
  C:A3E3H         LINE#         166
  C:A3E3H         LINE#         169
  C:A3E6H         LINE#         170
  C:A3ECH         LINE#         171
  C:A3F2H         LINE#         173
  C:A3F2H         LINE#         174
  C:A3F2H         LINE#         177
  C:A3F5H         LINE#         178
  C:A3F5H         LINE#         179
  C:A3F8H         LINE#         180
  C:A3F8H         LINE#         184
  C:A405H         LINE#         189
  C:A40BH         LINE#         190
  C:A40BH         LINE#         192
  C:A41AH         LINE#         194
  C:A423H         LINE#         196
  C:A431H         LINE#         198
  C:A431H         LINE#         199
  C:A434H         LINE#         203
  -------         ENDPROC       MAIN
  -------         ENDMOD        MAIN

  -------         MODULE        ACCESCAN
  C:0000H         SYMBOL        _ICE_DUMMY_
  D:0080H         PUBLIC        P0
  D:0090H         PUBLIC        P1
  B:0080H.2       PUBLIC        led_err_imp
  C:AEB7H         PUBLIC        _Monitor_chr
  B:0080H.3       PUBLIC        Atascado
  B:0090H.7       PUBLIC        lock
  C:4059H         PUBLIC        _Valida_Trama_Pto
  C:8049H         PUBLIC        _Cmd_LPR_Salida_wiegand
  -------         PROC          _VALIDA_TRAMA_PTO
  X:0001H         SYMBOL        buffer
  X:0004H         SYMBOL        length_trama
  -------         DO            
  X:0267H         SYMBOL        cont
  X:0005H         SYMBOL        buff
BL51 BANKED LINKER/LOCATER V6.22.2.0                                                  11/13/2020  15:29:26  PAGE 28


  -------         ENDDO         
  C:4059H         LINE#         85
  C:4067H         LINE#         86
  C:4067H         LINE#         92
  C:409DH         LINE#         93
  C:409DH         LINE#         94
  C:40B2H         LINE#         95
  C:40B2H         LINE#         96
  C:40C5H         LINE#         98
  C:40C8H         LINE#         100
  C:40C8H         LINE#         102
  C:40C8H         LINE#         104
  C:40DAH         LINE#         105
  C:40DAH         LINE#         106
  C:40E0H         LINE#         107
  C:40EDH         LINE#         108
  C:40EDH         LINE#         109
  C:40F2H         LINE#         110
  C:40F4H         LINE#         111
  C:40F9H         LINE#         112
  C:40FBH         LINE#         113
  C:40FDH         LINE#         114
  C:4101H         LINE#         115
  C:4101H         LINE#         116
  C:4102H         LINE#         118
  C:411AH         LINE#         119
  C:411AH         LINE#         121
  C:4127H         LINE#         122
  C:4127H         LINE#         123
  C:4129H         LINE#         124
  C:412BH         LINE#         125
  C:412DH         LINE#         126
  C:412FH         LINE#         127
  C:412FH         LINE#         129
  C:4155H         LINE#         130
  C:4155H         LINE#         131
  C:4159H         LINE#         132
  C:415EH         LINE#         133
  C:4167H         LINE#         134
  C:416CH         LINE#         135
  C:416CH         LINE#         138
  C:416DH         LINE#         141
  C:417FH         LINE#         142
  C:417FH         LINE#         143
  C:4181H         LINE#         144
  C:4184H         LINE#         146
  C:4196H         LINE#         147
  C:4196H         LINE#         148
  C:4198H         LINE#         149
  C:419BH         LINE#         151
  C:41B5H         LINE#         152
  C:41B5H         LINE#         153
  C:41B7H         LINE#         154
  C:41BAH         LINE#         157
  C:41D4H         LINE#         158
  C:41D4H         LINE#         159
  C:41D6H         LINE#         160
BL51 BANKED LINKER/LOCATER V6.22.2.0                                                  11/13/2020  15:29:26  PAGE 29


  C:41D8H         LINE#         163
  C:41F2H         LINE#         164
  C:41F2H         LINE#         165
  C:41F4H         LINE#         166
  C:41F6H         LINE#         170
  C:4210H         LINE#         171
  C:4210H         LINE#         172
  C:4212H         LINE#         173
  C:4214H         LINE#         176
  C:422EH         LINE#         177
  C:422EH         LINE#         178
  C:4230H         LINE#         179
  C:4232H         LINE#         181
  C:424CH         LINE#         182
  C:424CH         LINE#         183
  C:4251H         LINE#         184
  C:4251H         LINE#         186
  C:4281H         LINE#         187
  C:4281H         LINE#         188
  C:428FH         LINE#         189
  C:4292H         LINE#         192
  C:42D5H         LINE#         193
  C:42D5H         LINE#         195
  C:42EAH         LINE#         196
  C:42F0H         LINE#         197
  C:431AH         LINE#         200
  C:4322H         LINE#         201
  C:4322H         LINE#         204
  C:4329H         LINE#         205
  C:4329H         LINE#         206
  C:432EH         LINE#         207
  C:432EH         LINE#         208
  C:4330H         LINE#         210
  C:4330H         LINE#         211
  C:4339H         LINE#         212
  C:4341H         LINE#         213
  C:4341H         LINE#         218
  C:4343H         LINE#         221
  C:4343H         LINE#         224
  C:434AH         LINE#         225
  C:434AH         LINE#         226
  C:434FH         LINE#         227
  C:434FH         LINE#         228
  C:435AH         LINE#         232
  C:435AH         LINE#         233
  C:435AH         LINE#         235
  C:4387H         LINE#         236
  C:4387H         LINE#         237
  C:4396H         LINE#         239
  C:4396H         LINE#         241
  -------         ENDPROC       _VALIDA_TRAMA_PTO
  -------         PROC          _MONITOR_CHR
  X:0032H         SYMBOL        str
  X:0035H         SYMBOL        num_char
  -------         DO            
  X:0036H         SYMBOL        j
  -------         ENDDO         
BL51 BANKED LINKER/LOCATER V6.22.2.0                                                  11/13/2020  15:29:26  PAGE 30


  C:AEB7H         LINE#         396
  C:AEC5H         LINE#         397
  C:AEC5H         LINE#         399
  C:AED3H         LINE#         400
  C:AED3H         LINE#         401
  C:AEE5H         LINE#         402
  C:AEEFH         LINE#         403
  C:AEF7H         LINE#         404
  -------         ENDPROC       _MONITOR_CHR
  -------         PROC          _CMD_LPR_SALIDA_WIEGAND
  X:0010H         SYMBOL        buffer
  -------         DO            
  X:0013H         SYMBOL        Buffer_Lpr
  X:0031H         SYMBOL        j
  -------         ENDDO         
  C:8049H         LINE#         409
  C:8054H         LINE#         410
  C:8054H         LINE#         412
  C:805AH         LINE#         413
  C:805FH         LINE#         414
  C:8067H         LINE#         415
  C:806BH         LINE#         416
  C:8074H         LINE#         417
  C:8074H         LINE#         418
  C:8085H         LINE#         419
  C:8087H         LINE#         421
  C:8087H         LINE#         422
  C:8098H         LINE#         423
  C:8098H         LINE#         427
  C:80AFH         LINE#         428
  C:80AFH         LINE#         429
  C:80BEH         LINE#         430
  C:80C8H         LINE#         432
  C:80D0H         LINE#         433
  C:80E4H         LINE#         435
  C:80F4H         LINE#         436
  C:8105H         LINE#         437
  C:8112H         LINE#         441
  -------         ENDPROC       _CMD_LPR_SALIDA_WIEGAND
  -------         ENDMOD        ACCESCAN

  -------         MODULE        CLOCK
  C:0000H         SYMBOL        _ICE_DUMMY_
  C:AF2CH         PUBLIC        _two_one
  D:0090H         PUBLIC        P1
  C:6EE3H         PUBLIC        _validar_clk
  C:B435H         PUBLIC        _wr_clk
  C:85F4H         PUBLIC        _check_fechaOut
  B:00D0H.7       PUBLIC        CY
  C:0003H         PUBLIC        p_ck
  C:9880H         PUBLIC        _hex_ascii
  X:0268H         PUBLIC        data_clk
  C:B789H         PUBLIC        cond_ini_clock
  C:86BDH         PUBLIC        _Block_read_Clock
  B:0090H.4       PUBLIC        sck
  C:925AH         PUBLIC        _Block_read_Clock_Hex
  C:5C77H         PUBLIC        _Block_read_clock_ascii
BL51 BANKED LINKER/LOCATER V6.22.2.0                                                  11/13/2020  15:29:26  PAGE 31


  C:B050H         PUBLIC        _hex_bcd
  C:B609H         PUBLIC        _bcd_hex
  C:A81EH         PUBLIC        _ByteHex_Decimal
  C:99ACH         PUBLIC        _lee_clk
  B:0090H.5       PUBLIC        io
  C:9B52H         PUBLIC        _Block_write_clock_ascii
  B:0090H.6       PUBLIC        rst
  C:AF79H         PUBLIC        _eb_clk
  C:4397H         PUBLIC        _Two_ByteHex_Decimal
  -------         PROC          P_CK
  C:0003H         LINE#         48
  C:0003H         LINE#         49
  C:0003H         LINE#         50
  C:0005H         LINE#         51
  C:0008H         LINE#         52
  C:000AH         LINE#         53
  -------         ENDPROC       P_CK
  -------         PROC          _EB_CLK
  X:00B4H         SYMBOL        dir_clk
  -------         DO            
  X:00B5H         SYMBOL        nbits
  -------         ENDDO         
  C:AF79H         LINE#         55
  C:AF7EH         LINE#         57
  C:AF83H         LINE#         58
  C:AF83H         LINE#         59
  C:AF8CH         LINE#         60
  C:AF8FH         LINE#         61
  C:AF8FH         LINE#         62
  C:AF91H         LINE#         63
  C:AF93H         LINE#         65
  C:AF93H         LINE#         66
  C:AF95H         LINE#         67
  C:AF95H         LINE#         68
  C:AF98H         LINE#         69
  C:AFB7H         LINE#         70
  -------         ENDPROC       _EB_CLK
  C:99A2H         SYMBOL        L?0082
  -------         PROC          L?0081
  -------         ENDPROC       L?0081
  C:99A2H         SYMBOL        L?0082
  -------         PROC          _LEE_CLK
  X:00B1H         SYMBOL        dir_clk
  -------         DO            
  X:00B2H         SYMBOL        nbits
  -------         ENDDO         
  C:99ACH         LINE#         72
  C:99B1H         LINE#         74
  C:99B3H         LINE#         75
  C:99BAH         LINE#         76
  C:99C2H         LINE#         77
  C:99DBH         LINE#         78
  C:99DBH         LINE#         79
  C:99DEH         LINE#         80
  C:99DEH         LINE#         81
  C:99E5H         LINE#         82
  C:99EFH         LINE#         83
BL51 BANKED LINKER/LOCATER V6.22.2.0                                                  11/13/2020  15:29:26  PAGE 32


  C:99F4H         LINE#         84
  C:99F4H         LINE#         85
  C:99F4H         LINE#         86
  C:99F7H         LINE#         87
  C:99F7H         LINE#         88
  C:99FEH         LINE#         89
  C:9A0FH         LINE#         90
  C:9A0FH         LINE#         91
  C:9A17H         LINE#         92
  C:9A17H         LINE#         93
  C:9A17H         LINE#         94
  C:9A1AH         LINE#         95
  C:9A2AH         LINE#         96
  C:9A2CH         LINE#         97
  C:9A31H         LINE#         98
  -------         ENDPROC       _LEE_CLK
  -------         PROC          _WR_CLK
  X:0013H         SYMBOL        dir_clk
  X:0014H         SYMBOL        byte
  C:B435H         LINE#         100
  C:B43DH         LINE#         101
  C:B43FH         LINE#         102
  C:B446H         LINE#         103
  C:B44EH         LINE#         104
  C:B457H         LINE#         105
  C:B45AH         LINE#         106
  C:B45CH         LINE#         108
  -------         ENDPROC       _WR_CLK
  C:AEF8H         SYMBOL        L?0077
  C:AF16H         SYMBOL        L?0078
  -------         PROC          L?0076
  -------         ENDPROC       L?0076
  C:AEF8H         SYMBOL        L?0077
  C:AF16H         SYMBOL        L?0078
  -------         PROC          _TWO_ONE
  D:0007H         SYMBOL        byte_h
  D:0005H         SYMBOL        byte_l
  -------         DO            
  D:0007H         SYMBOL        byte_out
  -------         ENDDO         
  C:AF2CH         LINE#         110
  C:AF2CH         LINE#         111
  C:AF2CH         LINE#         113
  C:AF2FH         LINE#         114
  C:AF33H         LINE#         115
  C:AF36H         LINE#         116
  C:AF38H         LINE#         117
  C:AF38H         LINE#         118
  -------         ENDPROC       _TWO_ONE
  -------         PROC          _VALIDAR_CLK
  D:0001H         SYMBOL        datos_clock
  -------         DO            
  D:0007H         SYMBOL        validador
  -------         ENDDO         
  C:6EE3H         LINE#         122
  C:6EE3H         LINE#         123
  C:6EE3H         LINE#         124
BL51 BANKED LINKER/LOCATER V6.22.2.0                                                  11/13/2020  15:29:26  PAGE 33


  C:6EE5H         LINE#         127
  C:6EFAH         LINE#         128
  C:6EFAH         LINE#         130
  C:6F12H         LINE#         131
  C:6F12H         LINE#         133
  C:6F2AH         LINE#         134
  C:6F2AH         LINE#         135
  C:6F42H         LINE#         136
  C:6F42H         LINE#         137
  C:6F5AH         LINE#         138
  C:6F5AH         LINE#         139
  C:6F6FH         LINE#         140
  C:6F6FH         LINE#         141
  C:6F81H         LINE#         142
  C:6F81H         LINE#         143
  C:6F93H         LINE#         144
  C:6F93H         LINE#         145
  C:6FA5H         LINE#         146
  C:6FA5H         LINE#         147
  C:6FB7H         LINE#         148
  C:6FB7H         LINE#         149
  C:6FC9H         LINE#         150
  C:6FC9H         LINE#         151
  C:6FD9H         LINE#         152
  C:6FD9H         LINE#         153
  C:6FD9H         LINE#         154
  C:6FD9H         LINE#         155
  C:6FDAH         LINE#         157
  C:6FDAH         LINE#         158
  C:6FDCH         LINE#         159
  C:6FDCH         LINE#         160
  C:6FDDH         LINE#         162
  C:6FDDH         LINE#         163
  C:6FDFH         LINE#         165
  C:6FDFH         LINE#         166
  C:6FE0H         LINE#         168
  C:6FE0H         LINE#         169
  C:6FE2H         LINE#         171
  C:6FE2H         LINE#         173
  C:6FE3H         LINE#         175
  C:6FE3H         LINE#         176
  C:6FE5H         LINE#         178
  C:6FE5H         LINE#         179
  C:6FE6H         LINE#         181
  C:6FE6H         LINE#         182
  C:6FE8H         LINE#         184
  C:6FE8H         LINE#         185
  C:6FE9H         LINE#         187
  C:6FE9H         LINE#         188
  C:6FEBH         LINE#         190
  C:6FEBH         LINE#         191
  C:6FECH         LINE#         193
  C:6FECH         LINE#         194
  C:6FEEH         LINE#         196
  C:6FEEH         LINE#         197
  C:6FEEH         LINE#         199
  C:6FEFH         LINE#         201
BL51 BANKED LINKER/LOCATER V6.22.2.0                                                  11/13/2020  15:29:26  PAGE 34


  C:6FEFH         LINE#         202
  C:6FF1H         LINE#         204
  C:6FF1H         LINE#         206
  C:6FF2H         LINE#         209
  C:6FF2H         LINE#         210
  C:6FF4H         LINE#         212
  C:6FF4H         LINE#         214
  C:6FF5H         LINE#         217
  C:6FF5H         LINE#         218
  C:6FF7H         LINE#         220
  C:6FF7H         LINE#         222
  C:6FF7H         LINE#         224
  -------         ENDPROC       _VALIDAR_CLK
  -------         PROC          _BLOCK_WRITE_CLOCK_ASCII
  X:0010H         SYMBOL        datos_clock
  -------         DO            
  D:0007H         SYMBOL        temp
  -------         ENDDO         
  C:9B52H         LINE#         230
  C:9B5DH         LINE#         232
  C:9B5DH         LINE#         237
  C:9B67H         LINE#         238
  C:9B67H         LINE#         239
  C:9B67H         LINE#         240
  C:9B67H         LINE#         242
  C:9B71H         LINE#         243
  C:9B7BH         LINE#         244
  C:9B85H         LINE#         245
  C:9B85H         LINE#         246
  C:9B85H         LINE#         247
  C:9B85H         LINE#         249
  C:9B8FH         LINE#         250
  C:9B8FH         LINE#         251
  C:9B8FH         LINE#         252
  C:9B8FH         LINE#         254
  C:9B99H         LINE#         255
  C:9B99H         LINE#         256
  C:9B99H         LINE#         257
  C:9B99H         LINE#         259
  C:9BA3H         LINE#         260
  C:9BA3H         LINE#         261
  C:9BA3H         LINE#         262
  C:9BA3H         LINE#         264
  C:9BADH         LINE#         265
  C:9BB7H         LINE#         266
  C:9BC1H         LINE#         267
  C:9BCBH         LINE#         269
  C:9BDBH         LINE#         270
  -------         ENDPROC       _BLOCK_WRITE_CLOCK_ASCII
  -------         PROC          _BCD_HEX
  D:0007H         SYMBOL        l_data
  -------         DO            
  D:0006H         SYMBOL        temp
  D:0005H         SYMBOL        j
  -------         ENDDO         
  C:B609H         LINE#         276
  C:B609H         LINE#         277
BL51 BANKED LINKER/LOCATER V6.22.2.0                                                  11/13/2020  15:29:26  PAGE 35


  C:B609H         LINE#         279
  C:B60BH         LINE#         280
  C:B60FH         LINE#         281
  C:B612H         LINE#         282
  C:B614H         LINE#         283
  C:B614H         LINE#         284
  C:B618H         LINE#         285
  C:B61FH         LINE#         286
  C:B61FH         LINE#         287
  C:B623H         LINE#         288
  C:B626H         LINE#         289
  C:B626H         LINE#         290
  C:B626H         LINE#         291
  -------         ENDPROC       _BCD_HEX
  C:B041H         SYMBOL        L?0080
  -------         PROC          L?0079
  -------         ENDPROC       L?0079
  C:B041H         SYMBOL        L?0080
  -------         PROC          _HEX_BCD
  D:0007H         SYMBOL        byte
  -------         DO            
  D:0006H         SYMBOL        nibble_h
  D:0005H         SYMBOL        nibble_l
  D:0004H         SYMBOL        k
  D:0007H         SYMBOL        byte_out
  -------         ENDDO         
  C:B050H         LINE#         295
  C:B050H         LINE#         296
  C:B050H         LINE#         301
  C:B052H         LINE#         302
  C:B053H         LINE#         304
  C:B059H         LINE#         305
  C:B059H         LINE#         306
  C:B05AH         LINE#         307
  C:B05FH         LINE#         308
  C:B05FH         LINE#         309
  C:B060H         LINE#         310
  C:B061H         LINE#         311
  C:B061H         LINE#         312
  C:B064H         LINE#         313
  C:B068H         LINE#         314
  C:B06BH         LINE#         315
  C:B06EH         LINE#         316
  C:B070H         LINE#         317
  C:B070H         LINE#         319
  -------         ENDPROC       _HEX_BCD
  -------         PROC          _HEX_ASCII
  X:005DH         SYMBOL        datos
  X:0060H         SYMBOL        fecha_asii
  -------         DO            
  D:0007H         SYMBOL        dato
  -------         ENDDO         
  C:9880H         LINE#         320
  C:988BH         LINE#         321
  C:988BH         LINE#         325
  C:988EH         LINE#         326
  C:98A6H         LINE#         327
BL51 BANKED LINKER/LOCATER V6.22.2.0                                                  11/13/2020  15:29:26  PAGE 36


  C:98BBH         LINE#         328
  C:98BBH         LINE#         330
  C:98BEH         LINE#         331
  C:98D9H         LINE#         332
  C:98E1H         LINE#         333
  C:98E1H         LINE#         335
  C:98E4H         LINE#         336
  C:98FFH         LINE#         337
  C:990AH         LINE#         339
  -------         ENDPROC       _HEX_ASCII
  -------         PROC          _BYTEHEX_DECIMAL
  D:0001H         SYMBOL        buffer
  D:0005H         SYMBOL        valorhex
  -------         DO            
  X:0014H         SYMBOL        numero
  D:0007H         SYMBOL        centena
  D:0006H         SYMBOL        decena
  -------         ENDDO         
  C:A81EH         LINE#         347
  C:A81EH         LINE#         348
  C:A81EH         LINE#         351
  C:A820H         LINE#         352
  C:A821H         LINE#         353
  C:A826H         LINE#         355
  C:A833H         LINE#         356
  C:A833H         LINE#         357
  C:A837H         LINE#         358
  C:A838H         LINE#         359
  C:A83AH         LINE#         360
  C:A840H         LINE#         361
  C:A847H         LINE#         362
  C:A854H         LINE#         363
  C:A854H         LINE#         364
  C:A858H         LINE#         365
  C:A859H         LINE#         366
  C:A85BH         LINE#         367
  C:A861H         LINE#         368
  C:A868H         LINE#         369
  C:A871H         LINE#         370
  C:A878H         LINE#         371
  -------         ENDPROC       _BYTEHEX_DECIMAL
  -------         PROC          _TWO_BYTEHEX_DECIMAL
  X:0014H         SYMBOL        buffer
  X:0017H         SYMBOL        id_h
  X:0018H         SYMBOL        id_l
  -------         DO            
  X:0019H         SYMBOL        valor
  D:0006H         SYMBOL        numero
  X:001BH         SYMBOL        temp
  X:001CH         SYMBOL        dmil
  X:001DH         SYMBOL        mil
  X:001EH         SYMBOL        centena
  X:001FH         SYMBOL        decena
  -------         ENDDO         
  C:4397H         LINE#         378
  C:43A5H         LINE#         379
  C:43A5H         LINE#         383
BL51 BANKED LINKER/LOCATER V6.22.2.0                                                  11/13/2020  15:29:26  PAGE 37


  C:43ACH         LINE#         384
  C:43B0H         LINE#         385
  C:43B2H         LINE#         386
  C:43B4H         LINE#         387
  C:43B6H         LINE#         390
  C:43BBH         LINE#         391
  C:43BEH         LINE#         392
  C:43C4H         LINE#         394
  C:441FH         LINE#         395
  C:4427H         LINE#         396
  C:442AH         LINE#         397
  C:4485H         LINE#         399
  C:448DH         LINE#         400
  C:4490H         LINE#         401
  C:4496H         LINE#         402
  C:44F1H         LINE#         403
  C:44F9H         LINE#         404
  C:44FCH         LINE#         405
  C:4557H         LINE#         406
  C:4557H         LINE#         408
  C:4560H         LINE#         409
  C:4560H         LINE#         410
  C:4568H         LINE#         411
  C:456EH         LINE#         412
  C:4570H         LINE#         413
  C:4586H         LINE#         414
  C:4590H         LINE#         415
  C:4599H         LINE#         416
  C:4599H         LINE#         417
  C:45A1H         LINE#         418
  C:45A7H         LINE#         419
  C:45A9H         LINE#         420
  C:45BFH         LINE#         421
  C:45C9H         LINE#         422
  C:45D2H         LINE#         423
  C:45D2H         LINE#         424
  C:45DAH         LINE#         425
  C:45E0H         LINE#         426
  C:45E2H         LINE#         427
  C:45F8H         LINE#         428
  C:4602H         LINE#         429
  C:460BH         LINE#         430
  C:460BH         LINE#         431
  C:4613H         LINE#         432
  C:4619H         LINE#         433
  C:461BH         LINE#         434
  C:4631H         LINE#         435
  C:463BH         LINE#         436
  C:464EH         LINE#         437
  C:4658H         LINE#         438
  -------         ENDPROC       _TWO_BYTEHEX_DECIMAL
  -------         PROC          _BLOCK_READ_CLOCK_ASCII
  X:0051H         SYMBOL        datos_clock
  -------         DO            
  D:0007H         SYMBOL        dato
  -------         ENDDO         
  C:5C77H         LINE#         444
BL51 BANKED LINKER/LOCATER V6.22.2.0                                                  11/13/2020  15:29:26  PAGE 38


  C:5C7AH         LINE#         445
  C:5C7AH         LINE#         451
  C:5C7DH         LINE#         452
  C:5C95H         LINE#         453
  C:5C9FH         LINE#         454
  C:5CB4H         LINE#         455
  C:5CBEH         LINE#         458
  C:5CC3H         LINE#         459
  C:5CDBH         LINE#         460
  C:5CE5H         LINE#         461
  C:5CFAH         LINE#         462
  C:5D04H         LINE#         465
  C:5D09H         LINE#         466
  C:5D21H         LINE#         467
  C:5D2BH         LINE#         468
  C:5D40H         LINE#         469
  C:5D4AH         LINE#         473
  C:5D4FH         LINE#         474
  C:5D67H         LINE#         475
  C:5D71H         LINE#         476
  C:5D86H         LINE#         477
  C:5D90H         LINE#         480
  C:5D95H         LINE#         481
  C:5DADH         LINE#         482
  C:5DB7H         LINE#         483
  C:5DCCH         LINE#         484
  C:5DD6H         LINE#         485
  -------         ENDPROC       _BLOCK_READ_CLOCK_ASCII
  -------         PROC          _BLOCK_READ_CLOCK_HEX
  X:00AEH         SYMBOL        datos_clock
  C:925AH         LINE#         489
  C:925DH         LINE#         490
  C:925DH         LINE#         493
  C:9272H         LINE#         494
  C:927CH         LINE#         496
  C:9293H         LINE#         497
  C:929DH         LINE#         499
  C:92B4H         LINE#         500
  C:92BEH         LINE#         502
  C:92D5H         LINE#         503
  C:92DFH         LINE#         505
  C:92F6H         LINE#         506
  -------         ENDPROC       _BLOCK_READ_CLOCK_HEX
  -------         PROC          _BLOCK_READ_CLOCK
  X:001DH         SYMBOL        datos_clock
  C:86BDH         LINE#         533
  C:86C0H         LINE#         534
  C:86C0H         LINE#         536
  C:86D2H         LINE#         537
  C:86DCH         LINE#         539
  C:86F0H         LINE#         540
  C:86FAH         LINE#         542
  C:870EH         LINE#         543
  C:8718H         LINE#         545
  C:872CH         LINE#         546
  C:8736H         LINE#         548
  C:874AH         LINE#         549
BL51 BANKED LINKER/LOCATER V6.22.2.0                                                  11/13/2020  15:29:26  PAGE 39


  C:8754H         LINE#         551
  C:8768H         LINE#         552
  C:8772H         LINE#         553
  -------         ENDPROC       _BLOCK_READ_CLOCK
  -------         PROC          COND_INI_CLOCK
  C:B789H         LINE#         556
  C:B789H         LINE#         557
  C:B789H         LINE#         558
  C:B78BH         LINE#         559
  C:B78DH         LINE#         560
  C:B78FH         LINE#         561
  -------         ENDPROC       COND_INI_CLOCK
  -------         PROC          _CHECK_FECHAOUT
  X:009CH         SYMBOL        buffer
  -------         DO            
  X:009FH         SYMBOL        fecha_inicio
  X:00A3H         SYMBOL        fecha_fin
  X:00A7H         SYMBOL        datos_clk
  X:00ADH         SYMBOL        temp
  -------         ENDDO         
  C:85F4H         LINE#         571
  C:85FFH         LINE#         572
  C:85FFH         LINE#         578
  C:8608H         LINE#         579
  C:8637H         LINE#         580
  C:868AH         LINE#         583
  C:86AAH         LINE#         584
  C:86AAH         LINE#         585
  C:86B0H         LINE#         586
  C:86B2H         LINE#         588
  C:86B2H         LINE#         589
  C:86B7H         LINE#         590
  C:86B7H         LINE#         594
  C:86BCH         LINE#         595
  -------         ENDPROC       _CHECK_FECHAOUT
  -------         ENDMOD        CLOCK

  -------         MODULE        DELAY
  C:0000H         SYMBOL        _ICE_DUMMY_
  C:B1D8H         PUBLIC        _Delay_10ms
  C:B6C6H         PUBLIC        _Delay_20us
  C:B627H         PUBLIC        _Delay_1ms
  C:B7DCH         PUBLIC        Delay
  -------         PROC          _DELAY_20US
  D:0006H         SYMBOL        cntd_us
  -------         DO            
  D:0004H         SYMBOL        i
  -------         ENDDO         
  C:B6C6H         LINE#         20
  C:B6C6H         LINE#         21
  C:B6C6H         LINE#         24
  C:B6D0H         LINE#         26
  C:B6D7H         LINE#         27
  -------         ENDPROC       _DELAY_20US
  -------         PROC          _DELAY_1MS
  D:0002H         SYMBOL        cntd_ms
  -------         DO            
BL51 BANKED LINKER/LOCATER V6.22.2.0                                                  11/13/2020  15:29:26  PAGE 40


  D:0082H         SYMBOL        i
  -------         ENDDO         
  C:B627H         LINE#         38
  C:B62BH         LINE#         39
  C:B62BH         LINE#         41
  C:B641H         LINE#         42
  -------         ENDPROC       _DELAY_1MS
  -------         PROC          _DELAY_10MS
  X:0008H         SYMBOL        cntd_10ms
  -------         DO            
  X:000AH         SYMBOL        i
  -------         ENDDO         
  C:B1D8H         LINE#         54
  C:B1E0H         LINE#         55
  C:B1E0H         LINE#         57
  C:B211H         LINE#         58
  -------         ENDPROC       _DELAY_10MS
  -------         PROC          DELAY
  C:B7DCH         LINE#         60
  C:B7DCH         LINE#         62
  -------         ENDPROC       DELAY
  -------         ENDMOD        DELAY

  -------         MODULE        EEPROM
  C:0000H         SYMBOL        _ICE_DUMMY_
  D:0090H         PUBLIC        P1
  C:7AFAH         PUBLIC        _Write_EEprom_Ticket
  C:A60DH         PUBLIC        _EscribirMemoria
  X:025EH         PUBLIC        l_chr
  C:B58EH         PUBLIC        ackd
  B:0021H.6       PUBLIC        memory_flag
  B:00D0H.7       PUBLIC        CY
  C:B7C1H         PUBLIC        p_me
  C:B6E0H         PUBLIC        start
  B:0090H.2       PUBLIC        sda
  C:B5AEH         PUBLIC        ack_lect
  B:0090H.3       PUBLIC        scl
  C:B075H         PUBLIC        _rd_eeprom
  C:B777H         PUBLIC        stop
  X:025FH         PUBLIC        l_data_eeprom
  C:A9A7H         PUBLIC        _wr_eeprom
  C:A756H         PUBLIC        _LeerMemoria
  C:B2B6H         PUBLIC        Incremente_Ticket
  X:0260H         PUBLIC        byte_rd
  C:852AH         PUBLIC        Read_EEprom_Ticket
  C:B569H         PUBLIC        _e_d_m
  C:8393H         PUBLIC        _graba_serie
  C:AB20H         PUBLIC        Lee_No_Ticket
  C:AAD3H         PUBLIC        l_d_m
  -------         PROC          L?0057
  -------         ENDPROC       L?0057
  -------         PROC          ACKD
  -------         DO            
  D:0006H         SYMBOL        i
  -------         ENDDO         
  C:B58EH         LINE#         35
  C:B58EH         LINE#         36
BL51 BANKED LINKER/LOCATER V6.22.2.0                                                  11/13/2020  15:29:26  PAGE 41


  C:B58EH         LINE#         38
  C:B590H         LINE#         39
  C:B592H         LINE#         40
  C:B594H         LINE#         41
  C:B597H         LINE#         42
  C:B597H         LINE#         43
  C:B59AH         LINE#         44
  C:B59AH         LINE#         45
  C:B59CH         LINE#         46
  C:B59EH         LINE#         48
  C:B59FH         LINE#         49
  C:B59FH         LINE#         50
  C:B5AAH         LINE#         52
  C:B5AAH         LINE#         53
  C:B5AAH         LINE#         55
  C:B5AAH         LINE#         56
  -------         ENDPROC       ACKD
  -------         PROC          L?0061
  -------         ENDPROC       L?0061
  -------         PROC          ACK_LECT
  -------         DO            
  D:0006H         SYMBOL        i
  -------         ENDDO         
  C:B5AEH         LINE#         59
  C:B5AEH         LINE#         60
  C:B5AEH         LINE#         62
  C:B5B0H         LINE#         63
  C:B5B2H         LINE#         64
  C:B5B4H         LINE#         65
  C:B5B7H         LINE#         66
  C:B5B7H         LINE#         67
  C:B5BAH         LINE#         68
  C:B5BAH         LINE#         69
  C:B5BCH         LINE#         70
  C:B5BEH         LINE#         71
  C:B5BFH         LINE#         72
  C:B5BFH         LINE#         73
  C:B5CAH         LINE#         74
  -------         ENDPROC       ACK_LECT
  -------         PROC          P_ME
  C:B7C1H         LINE#         76
  C:B7C1H         LINE#         77
  C:B7C1H         LINE#         78
  C:B7C3H         LINE#         79
  C:B7C4H         LINE#         80
  C:B7C6H         LINE#         81
  -------         ENDPROC       P_ME
  -------         PROC          _E_D_M
  D:0007H         SYMBOL        a_serial_eeprom
  -------         DO            
  D:0006H         SYMBOL        nbits
  -------         ENDDO         
  C:B569H         LINE#         83
  C:B569H         LINE#         84
  C:B569H         LINE#         86
  C:B575H         LINE#         87
  C:B575H         LINE#         88
BL51 BANKED LINKER/LOCATER V6.22.2.0                                                  11/13/2020  15:29:26  PAGE 42


  C:B579H         LINE#         89
  C:B57CH         LINE#         90
  C:B57CH         LINE#         91
  C:B57EH         LINE#         92
  C:B580H         LINE#         94
  C:B580H         LINE#         95
  C:B582H         LINE#         96
  C:B582H         LINE#         97
  C:B584H         LINE#         98
  C:B587H         LINE#         99
  C:B58AH         LINE#         101
  -------         ENDPROC       _E_D_M
  -------         PROC          L?0058
  -------         ENDPROC       L?0058
  -------         PROC          START
  C:B6E0H         LINE#         103
  C:B6E0H         LINE#         104
  C:B6E0H         LINE#         105
  C:B6E2H         LINE#         106
  C:B6E4H         LINE#         107
  C:B6E5H         LINE#         108
  C:B6E7H         LINE#         109
  C:B6E9H         LINE#         111
  -------         ENDPROC       START
  -------         PROC          STOP
  C:B777H         LINE#         113
  C:B777H         LINE#         114
  C:B777H         LINE#         115
  C:B779H         LINE#         116
  C:B77BH         LINE#         117
  C:B77DH         LINE#         118
  C:B77FH         LINE#         120
  -------         ENDPROC       STOP
  -------         PROC          L_D_M
  -------         DO            
  D:0003H         SYMBOL        nbits
  -------         ENDDO         
  C:AAD3H         LINE#         122
  C:AAD3H         LINE#         123
  C:AAD3H         LINE#         125
  C:AAE0H         LINE#         126
  C:AAE0H         LINE#         127
  C:AAE2H         LINE#         128
  C:AAE5H         LINE#         129
  C:AAE5H         LINE#         130
  C:AAECH         LINE#         131
  C:AAF5H         LINE#         132
  C:AAF5H         LINE#         133
  C:AAF9H         LINE#         134
  C:AAFBH         LINE#         135
  C:AAFBH         LINE#         136
  C:AAFBH         LINE#         137
  C:AAFEH         LINE#         138
  C:AAFEH         LINE#         139
  C:AB05H         LINE#         140
  C:AB0FH         LINE#         141
  C:AB0FH         LINE#         142
BL51 BANKED LINKER/LOCATER V6.22.2.0                                                  11/13/2020  15:29:26  PAGE 43


  C:AB13H         LINE#         143
  C:AB15H         LINE#         144
  C:AB15H         LINE#         145
  C:AB15H         LINE#         146
  C:AB18H         LINE#         147
  C:AB1AH         LINE#         148
  C:AB1FH         LINE#         149
  -------         ENDPROC       L_D_M
  -------         PROC          L?0056
  -------         ENDPROC       L?0056
  -------         PROC          _WR_EEPROM
  D:0002H         SYMBOL        control
  D:0004H         SYMBOL        Dir
  D:0003H         SYMBOL        data_eeprom
  -------         DO            
  D:0005H         SYMBOL        dir_h
  D:0001H         SYMBOL        dir_l
  -------         ENDDO         
  C:A9A7H         LINE#         155
  C:A9A9H         LINE#         156
  C:A9A9H         LINE#         158
  C:A9ADH         LINE#         159
  C:A9ADH         LINE#         160
  C:A9ADH         LINE#         163
  C:A9ADH         LINE#         164
  C:A9ADH         LINE#         166
  C:A9B0H         LINE#         167
  C:A9B2H         LINE#         168
  C:A9B5H         LINE#         169
  C:A9B7H         LINE#         170
  C:A9BAH         LINE#         171
  C:A9BFH         LINE#         172
  C:A9C2H         LINE#         173
  C:A9C7H         LINE#         174
  C:A9CAH         LINE#         175
  C:A9CDH         LINE#         176
  C:A9D4H         LINE#         178
  C:A9D6H         LINE#         179
  C:A9D8H         LINE#         180
  C:A9DFH         LINE#         181
  -------         ENDPROC       _WR_EEPROM
  C:B071H         SYMBOL        L?0060
  -------         PROC          L?0059
  -------         ENDPROC       L?0059
  C:B071H         SYMBOL        L?0060
  -------         PROC          _RD_EEPROM
  D:0003H         SYMBOL        control
  D:0004H         SYMBOL        Dir
  -------         DO            
  D:0005H         SYMBOL        dir_h
  D:0002H         SYMBOL        dir_l
  -------         ENDDO         
  C:B075H         LINE#         219
  C:B077H         LINE#         220
  C:B077H         LINE#         223
  C:B07BH         LINE#         224
  C:B07BH         LINE#         225
BL51 BANKED LINKER/LOCATER V6.22.2.0                                                  11/13/2020  15:29:26  PAGE 44


  C:B07BH         LINE#         227
  C:B07BH         LINE#         228
  C:B07BH         LINE#         230
  C:B07EH         LINE#         231
  C:B080H         LINE#         232
  C:B083H         LINE#         233
  C:B085H         LINE#         234
  C:B088H         LINE#         235
  C:B08DH         LINE#         236
  C:B090H         LINE#         237
  C:B093H         LINE#         238
  C:B099H         LINE#         239
  C:B09CH         LINE#         240
  C:B09EH         LINE#         241
  C:B0A1H         LINE#         242
  C:B0A4H         LINE#         243
  C:B0A6H         LINE#         244
  C:B0A8H         LINE#         245
  C:B0ADH         LINE#         246
  -------         ENDPROC       _RD_EEPROM
  -------         PROC          _GRABA_SERIE
  X:0010H         SYMBOL        buffer
  -------         DO            
  X:0013H         SYMBOL        j
  X:0014H         SYMBOL        error
  -------         ENDDO         
  C:8393H         LINE#         253
  C:839EH         LINE#         254
  C:839EH         LINE#         257
  C:83A3H         LINE#         262
  C:83B5H         LINE#         264
  C:83C8H         LINE#         265
  C:83C8H         LINE#         266
  C:83F1H         LINE#         267
  C:83F1H         LINE#         268
  C:83F7H         LINE#         270
  C:8400H         LINE#         271
  C:840EH         LINE#         272
  C:8417H         LINE#         273
  C:8417H         LINE#         275
  C:841FH         LINE#         279
  C:8425H         LINE#         280
  C:8425H         LINE#         281
  C:8433H         LINE#         283
  C:8433H         LINE#         285
  C:8433H         LINE#         286
  C:843DH         LINE#         287
  C:8448H         LINE#         288
  C:8453H         LINE#         289
  C:845EH         LINE#         291
  C:845EH         LINE#         292
  -------         ENDPROC       _GRABA_SERIE
  -------         PROC          _WRITE_EEPROM_TICKET
  X:0015H         SYMBOL        buffer
  -------         DO            
  X:0018H         SYMBOL        cod_3
  X:0019H         SYMBOL        cod_2
BL51 BANKED LINKER/LOCATER V6.22.2.0                                                  11/13/2020  15:29:26  PAGE 45


  X:001AH         SYMBOL        cod_1
  X:001BH         SYMBOL        cod_0
  X:001CH         SYMBOL        Noticket
  D:0004H         SYMBOL        Bnoticket
  -------         ENDDO         
  C:7AFAH         LINE#         293
  C:7B05H         LINE#         294
  C:7B05H         LINE#         296
  C:7B0DH         LINE#         297
  C:7B16H         LINE#         298
  C:7B24H         LINE#         299
  C:7B2DH         LINE#         300
  C:7B41H         LINE#         302
  C:7B4AH         LINE#         303
  C:7B5DH         LINE#         304
  C:7B62H         LINE#         305
  C:7B65H         LINE#         307
  C:7B78H         LINE#         308
  C:7B7DH         LINE#         309
  C:7B80H         LINE#         311
  C:7B93H         LINE#         312
  C:7B98H         LINE#         313
  C:7B9BH         LINE#         315
  C:7BA7H         LINE#         316
  C:7BAAH         LINE#         317
  C:7BB3H         LINE#         319
  C:7BC1H         LINE#         320
  C:7BCFH         LINE#         321
  C:7BDDH         LINE#         322
  -------         ENDPROC       _WRITE_EEPROM_TICKET
  -------         PROC          LEE_NO_TICKET
  -------         DO            
  D:0004H         SYMBOL        Noticket
  X:001DH         SYMBOL        Lee_No_Ticket
  D:0007H         SYMBOL        num_chr
  -------         ENDDO         
  C:AB20H         LINE#         327
  C:AB20H         LINE#         328
  C:AB20H         LINE#         332
  C:AB23H         LINE#         333
  C:AB3EH         LINE#         334
  C:AB47H         LINE#         335
  C:AB53H         LINE#         336
  C:AB5CH         LINE#         337
  C:AB65H         LINE#         338
  C:AB6BH         LINE#         339
  -------         ENDPROC       LEE_NO_TICKET
  -------         PROC          READ_EEPROM_TICKET
  -------         DO            
  D:0001H         SYMBOL        cod3
  X:0028H         SYMBOL        cod2
  X:0029H         SYMBOL        cod1
  X:002AH         SYMBOL        cod0
  X:002BH         SYMBOL        Noticket
  -------         ENDDO         
  C:852AH         LINE#         343
  C:852AH         LINE#         344
BL51 BANKED LINKER/LOCATER V6.22.2.0                                                  11/13/2020  15:29:26  PAGE 46


  C:852AH         LINE#         346
  C:8534H         LINE#         347
  C:853BH         LINE#         348
  C:8545H         LINE#         349
  C:8553H         LINE#         350
  C:855DH         LINE#         352
  C:857DH         LINE#         353
  C:85A2H         LINE#         354
  C:85C7H         LINE#         355
  C:85E5H         LINE#         356
  C:85F3H         LINE#         357
  -------         ENDPROC       READ_EEPROM_TICKET
  -------         PROC          INCREMENTE_TICKET
  -------         DO            
  D:0004H         SYMBOL        Noticket
  X:0006H         SYMBOL        Lee_No_Ticket
  -------         ENDDO         
  C:B2B6H         LINE#         361
  C:B2B6H         LINE#         362
  C:B2B6H         LINE#         366
  C:B2B9H         LINE#         367
  C:B2C6H         LINE#         368
  C:B2E1H         LINE#         369
  -------         ENDPROC       INCREMENTE_TICKET
  -------         PROC          _LEERMEMORIA
  X:009CH         SYMBOL        addres
  X:009EH         SYMBOL        res
  -------         DO            
  D:0007H         SYMBOL        i
  -------         ENDDO         
  C:A756H         LINE#         375
  C:A767H         LINE#         376
  C:A767H         LINE#         378
  C:A767H         LINE#         379
  C:A783H         LINE#         380
  C:A792H         LINE#         381
  C:A7A0H         LINE#         382
  C:A7AAH         LINE#         383
  C:A7ADH         LINE#         384
  -------         ENDPROC       _LEERMEMORIA
  -------         PROC          _ESCRIBIRMEMORIA
  X:005DH         SYMBOL        addres
  X:005FH         SYMBOL        res
  C:A60DH         LINE#         386
  C:A61EH         LINE#         387
  C:A61EH         LINE#         390
  C:A62EH         LINE#         391
  C:A635H         LINE#         392
  C:A638H         LINE#         394
  C:A646H         LINE#         395
  C:A650H         LINE#         396
  C:A652H         LINE#         397
  C:A655H         LINE#         398
  C:A663H         LINE#         399
  C:A66DH         LINE#         400
  -------         ENDPROC       _ESCRIBIRMEMORIA
  -------         ENDMOD        EEPROM
BL51 BANKED LINKER/LOCATER V6.22.2.0                                                  11/13/2020  15:29:26  PAGE 47



  -------         MODULE        IO_SENSORES
  C:0000H         SYMBOL        _ICE_DUMMY_
  D:0090H         PUBLIC        P1
  D:00B0H         PUBLIC        P3
  C:AE32H         PUBLIC        Dir_board
  B:0021H.7       PUBLIC        PULSADOR_BOTTON
  C:B79EH         PUBLIC        sel_Pulsa
  B:0090H.1       PUBLIC        DataIn
  C:B688H         PUBLIC        Dir_Board_Monitor
  C:B797H         PUBLIC        sel_Auto
  C:B212H         PUBLIC        ValidaSensoresPaso
  B:00B0H.3       PUBLIC        busy
  C:B5CBH         PUBLIC        ValidaSensor
  C:B7ACH         PUBLIC        sel_Sensor1
  C:B7A5H         PUBLIC        sel_Sensor2
  C:A935H         PUBLIC        Valida_Sensor1_Auto
  B:00B0H.5       PUBLIC        sel_A
  B:00B0H.6       PUBLIC        sel_B
  B:00B0H.7       PUBLIC        sel_C
  C:A1B7H         PUBLIC        msj_lcd_informativo
  C:B7B3H         PUBLIC        sel_Dir1
  C:B7BAH         PUBLIC        sel_Dir2
  C:B6EAH         PUBLIC        Botton
  C:B790H         PUBLIC        sel_Funcion
  -------         PROC          SEL_FUNCION
  C:B790H         LINE#         32
  C:B790H         LINE#         33
  C:B790H         LINE#         34
  C:B792H         LINE#         35
  C:B794H         LINE#         36
  C:B796H         LINE#         37
  -------         ENDPROC       SEL_FUNCION
  -------         PROC          SEL_AUTO
  C:B797H         LINE#         39
  C:B797H         LINE#         40
  C:B797H         LINE#         41
  C:B799H         LINE#         42
  C:B79BH         LINE#         43
  C:B79DH         LINE#         44
  -------         ENDPROC       SEL_AUTO
  -------         PROC          SEL_PULSA
  C:B79EH         LINE#         46
  C:B79EH         LINE#         47
  C:B79EH         LINE#         48
  C:B7A0H         LINE#         49
  C:B7A2H         LINE#         50
  C:B7A4H         LINE#         51
  -------         ENDPROC       SEL_PULSA
  -------         PROC          SEL_SENSOR2
  C:B7A5H         LINE#         54
  C:B7A5H         LINE#         55
  C:B7A5H         LINE#         56
  C:B7A7H         LINE#         57
  C:B7A9H         LINE#         58
  C:B7ABH         LINE#         59
  -------         ENDPROC       SEL_SENSOR2
BL51 BANKED LINKER/LOCATER V6.22.2.0                                                  11/13/2020  15:29:26  PAGE 48


  -------         PROC          SEL_SENSOR1
  C:B7ACH         LINE#         61
  C:B7ACH         LINE#         62
  C:B7ACH         LINE#         63
  C:B7AEH         LINE#         64
  C:B7B0H         LINE#         65
  C:B7B2H         LINE#         66
  -------         ENDPROC       SEL_SENSOR1
  -------         PROC          SEL_DIR1
  C:B7B3H         LINE#         68
  C:B7B3H         LINE#         69
  C:B7B3H         LINE#         70
  C:B7B5H         LINE#         71
  C:B7B7H         LINE#         72
  C:B7B9H         LINE#         73
  -------         ENDPROC       SEL_DIR1
  -------         PROC          SEL_DIR2
  C:B7BAH         LINE#         75
  C:B7BAH         LINE#         76
  C:B7BAH         LINE#         77
  C:B7BCH         LINE#         78
  C:B7BEH         LINE#         79
  C:B7C0H         LINE#         80
  -------         ENDPROC       SEL_DIR2
  -------         PROC          BOTTON
  C:B6EAH         LINE#         81
  C:B6EAH         LINE#         82
  C:B6EAH         LINE#         83
  C:B6EDH         LINE#         84
  C:B6F0H         LINE#         85
  C:B6F0H         LINE#         86
  C:B6F9H         LINE#         87
  C:B6FBH         LINE#         88
  C:B6FBH         LINE#         90
  -------         ENDPROC       BOTTON
  -------         PROC          VALIDASENSOR
  -------         DO            
  D:0007H         SYMBOL        Valido
  D:0004H         SYMBOL        Tmin
  -------         ENDDO         
  C:B5CBH         LINE#         92
  C:B5CBH         LINE#         93
  C:B5CBH         LINE#         95
  C:B5CDH         LINE#         96
  C:B5D1H         LINE#         97
  C:B5DCH         LINE#         98
  C:B5DCH         LINE#         99
  C:B5E1H         LINE#         100
  C:B5E5H         LINE#         101
  C:B5E5H         LINE#         102
  C:B5E7H         LINE#         103
  C:B5E7H         LINE#         104
  C:B5E9H         LINE#         105
  C:B5E9H         LINE#         106
  -------         ENDPROC       VALIDASENSOR
  -------         PROC          DIR_BOARD
  -------         DO            
BL51 BANKED LINKER/LOCATER V6.22.2.0                                                  11/13/2020  15:29:26  PAGE 49


  X:0032H         SYMBOL        Board
  D:0007H         SYMBOL        Board_High
  -------         ENDDO         
  C:AE32H         LINE#         110
  C:AE32H         LINE#         111
  C:AE32H         LINE#         112
  C:AE38H         LINE#         114
  C:AE3BH         LINE#         115
  C:AE3EH         LINE#         116
  C:AE3EH         LINE#         117
  C:AE41H         LINE#         118
  C:AE41H         LINE#         119
  C:AE44H         LINE#         120
  C:AE47H         LINE#         121
  C:AE47H         LINE#         122
  C:AE4EH         LINE#         123
  C:AE4EH         LINE#         124
  C:AE56H         LINE#         125
  C:AE56H         LINE#         126
  C:AE5EH         LINE#         128
  C:AE61H         LINE#         129
  C:AE61H         LINE#         130
  C:AE67H         LINE#         131
  C:AE67H         LINE#         132
  C:AE69H         LINE#         133
  C:AE6BH         LINE#         134
  C:AE6DH         LINE#         135
  C:AE6DH         LINE#         137
  C:AE6DH         LINE#         138
  C:AE74H         LINE#         139
  -------         ENDPROC       DIR_BOARD
  -------         PROC          DIR_BOARD_MONITOR
  -------         DO            
  D:0007H         SYMBOL        Board_High
  -------         ENDDO         
  C:B688H         LINE#         140
  C:B688H         LINE#         141
  C:B688H         LINE#         144
  C:B691H         LINE#         145
  C:B694H         LINE#         146
  C:B694H         LINE#         147
  C:B697H         LINE#         148
  C:B697H         LINE#         149
  C:B699H         LINE#         150
  C:B699H         LINE#         151
  C:B699H         LINE#         152
  C:B69DH         LINE#         153
  -------         ENDPROC       DIR_BOARD_MONITOR
  -------         PROC          VALIDA_SENSOR1_AUTO
  -------         DO            
  X:0011H         SYMBOL        sensor
  -------         ENDDO         
  C:A935H         LINE#         157
  C:A935H         LINE#         158
  C:A935H         LINE#         160
  C:A938H         LINE#         161
  C:A93BH         LINE#         162
BL51 BANKED LINKER/LOCATER V6.22.2.0                                                  11/13/2020  15:29:26  PAGE 50


  C:A93EH         LINE#         163
  C:A943H         LINE#         164
  C:A943H         LINE#         165
  C:A94AH         LINE#         166
  C:A94EH         LINE#         167
  C:A94EH         LINE#         168
  C:A94EH         LINE#         169
  C:A950H         LINE#         171
  C:A950H         LINE#         172
  C:A957H         LINE#         173
  C:A95CH         LINE#         174
  C:A95CH         LINE#         175
  C:A95CH         LINE#         176
  C:A95CH         LINE#         179
  C:A95EH         LINE#         181
  C:A961H         LINE#         182
  C:A966H         LINE#         183
  C:A966H         LINE#         185
  C:A96DH         LINE#         186
  C:A973H         LINE#         187
  C:A979H         LINE#         188
  C:A97CH         LINE#         189
  C:A97EH         LINE#         191
  C:A97EH         LINE#         192
  C:A985H         LINE#         193
  C:A98AH         LINE#         194
  C:A98AH         LINE#         197
  C:A98AH         LINE#         199
  C:A98FH         LINE#         200
  -------         ENDPROC       VALIDA_SENSOR1_AUTO
  -------         PROC          VALIDASENSORESPASO
  -------         DO            
  X:0010H         SYMBOL        sensor
  -------         ENDDO         
  C:B212H         LINE#         205
  C:B212H         LINE#         206
  C:B212H         LINE#         208
  C:B215H         LINE#         209
  C:B218H         LINE#         210
  C:B218H         LINE#         211
  C:B226H         LINE#         212
  C:B226H         LINE#         213
  C:B22EH         LINE#         215
  C:B230H         LINE#         217
  C:B230H         LINE#         218
  C:B236H         LINE#         219
  C:B238H         LINE#         220
  C:B238H         LINE#         221
  C:B238H         LINE#         222
  C:B238H         LINE#         223
  C:B241H         LINE#         224
  C:B244H         LINE#         225
  C:B244H         LINE#         226
  C:B249H         LINE#         227
  -------         ENDPROC       VALIDASENSORESPASO
  -------         PROC          MSJ_LCD_INFORMATIVO
  -------         DO            
BL51 BANKED LINKER/LOCATER V6.22.2.0                                                  11/13/2020  15:29:26  PAGE 51


  X:0001H         SYMBOL        info
  X:0269H         SYMBOL        toggle
  -------         ENDDO         
  C:A1B7H         LINE#         237
  C:A1B7H         LINE#         238
  C:A1B7H         LINE#         239
  C:A1BCH         LINE#         241
  C:A1BFH         LINE#         242
  C:A1C2H         LINE#         243
  C:A1C2H         LINE#         244
  C:A1CEH         LINE#         245
  C:A1CEH         LINE#         246
  C:A1D1H         LINE#         247
  C:A1D1H         LINE#         248
  C:A1D3H         LINE#         249
  C:A1D6H         LINE#         250
  C:A1DCH         LINE#         251
  C:A1DCH         LINE#         252
  C:A1DEH         LINE#         253
  C:A1ECH         LINE#         254
  C:A1ECH         LINE#         255
  C:A1EFH         LINE#         256
  C:A1EFH         LINE#         257
  C:A1F1H         LINE#         258
  C:A1F4H         LINE#         259
  C:A1FAH         LINE#         260
  C:A1FAH         LINE#         261
  C:A1FCH         LINE#         262
  C:A20AH         LINE#         263
  C:A20AH         LINE#         264
  C:A20DH         LINE#         265
  C:A20DH         LINE#         266
  C:A20FH         LINE#         267
  C:A21DH         LINE#         268
  C:A21DH         LINE#         269
  C:A21FH         LINE#         270
  C:A226H         LINE#         272
  C:A22BH         LINE#         273
  C:A22BH         LINE#         275
  C:A22BH         LINE#         277
  C:A22BH         LINE#         279
  C:A22EH         LINE#         280
  C:A231H         LINE#         281
  C:A231H         LINE#         282
  C:A236H         LINE#         283
  C:A236H         LINE#         285
  -------         ENDPROC       MSJ_LCD_INFORMATIVO
  -------         ENDMOD        IO_SENSORES

  -------         MODULE        PANTALLAS
  C:0000H         SYMBOL        _ICE_DUMMY_
  D:0080H         PUBLIC        P0
  C:AA38H         PUBLIC        Reloj_Pantalla_Lcd
  C:26A7H         PUBLIC        _PantallaLCD
  C:ADF6H         PUBLIC        _LCD_txt
  C:9D98H         PUBLIC        _Raspberry_data
  C:B4B6H         PUBLIC        _tx_chrlcd
BL51 BANKED LINKER/LOCATER V6.22.2.0                                                  11/13/2020  15:29:26  PAGE 52


  C:33D8H         SYMBOL        _?ix1000
  C:33DEH         SYMBOL        _?ix1001
  C:33E4H         SYMBOL        _?ix1002
  C:AD1CH         PUBLIC        _LCD_txt_num_char
  X:0206H         PUBLIC        malloc_memoria
  C:491EH         PUBLIC        _PantallaLCD_LINEA_2
  B:0098H.4       PUBLIC        REN
  B:0080H.7       PUBLIC        sel_com
  -------         PROC          _PANTALLALCD
  X:002AH         SYMBOL        cod_msg
  -------         DO            
  X:002BH         SYMBOL        Ini_LCD_Line_one
  X:0031H         SYMBOL        num_chr
  X:0032H         SYMBOL        msjpantalla
  -------         ENDDO         
  C:26A7H         LINE#         90
  C:26ACH         LINE#         91
  C:26ACH         LINE#         93
  C:26BFH         LINE#         100
  C:26CAH         LINE#         101
  C:26D9H         LINE#         102
  C:26DBH         LINE#         104
  C:26E4H         LINE#         105
  C:26E4H         LINE#         106
  C:26EEH         LINE#         108
  C:274AH         LINE#         109
  C:274AH         LINE#         111
  C:274AH         LINE#         112
  C:2758H         LINE#         113
  C:275EH         LINE#         114
  C:2761H         LINE#         115
  C:2767H         LINE#         116
  C:276AH         LINE#         118
  C:276AH         LINE#         120
  C:2778H         LINE#         121
  C:277EH         LINE#         122
  C:2781H         LINE#         123
  C:2787H         LINE#         124
  C:278AH         LINE#         126
  C:278AH         LINE#         128
  C:2798H         LINE#         129
  C:279EH         LINE#         130
  C:27A1H         LINE#         131
  C:27A7H         LINE#         132
  C:27AAH         LINE#         133
  C:27AAH         LINE#         134
  C:27B8H         LINE#         135
  C:27BEH         LINE#         136
  C:27C1H         LINE#         137
  C:27C7H         LINE#         138
  C:27CAH         LINE#         139
  C:27CAH         LINE#         140
  C:27D8H         LINE#         141
  C:27DEH         LINE#         142
  C:27E1H         LINE#         143
  C:27E7H         LINE#         144
  C:27EAH         LINE#         145
BL51 BANKED LINKER/LOCATER V6.22.2.0                                                  11/13/2020  15:29:26  PAGE 53


  C:27EAH         LINE#         146
  C:27F8H         LINE#         147
  C:27FEH         LINE#         148
  C:2801H         LINE#         149
  C:2807H         LINE#         150
  C:280AH         LINE#         151
  C:280AH         LINE#         153
  C:2818H         LINE#         154
  C:281EH         LINE#         155
  C:2821H         LINE#         156
  C:2827H         LINE#         157
  C:282AH         LINE#         158
  C:282AH         LINE#         164
  C:282AH         LINE#         165
  C:2838H         LINE#         166
  C:283EH         LINE#         167
  C:2841H         LINE#         168
  C:2847H         LINE#         169
  C:284AH         LINE#         170
  C:284AH         LINE#         171
  C:2858H         LINE#         172
  C:285EH         LINE#         173
  C:2861H         LINE#         174
  C:2867H         LINE#         175
  C:286AH         LINE#         177
  C:286AH         LINE#         178
  C:2878H         LINE#         179
  C:287EH         LINE#         180
  C:2881H         LINE#         181
  C:2887H         LINE#         182
  C:288AH         LINE#         184
  C:288AH         LINE#         185
  C:2898H         LINE#         186
  C:289EH         LINE#         187
  C:28A1H         LINE#         188
  C:28A7H         LINE#         189
  C:28AAH         LINE#         194
  C:28AAH         LINE#         196
  C:28B8H         LINE#         197
  C:28BEH         LINE#         198
  C:28C1H         LINE#         199
  C:28C7H         LINE#         200
  C:28CAH         LINE#         202
  C:28CAH         LINE#         204
  C:28D8H         LINE#         205
  C:28DEH         LINE#         206
  C:28E1H         LINE#         207
  C:28E7H         LINE#         208
  C:28EAH         LINE#         210
  C:28EAH         LINE#         211
  C:28F8H         LINE#         212
  C:28FEH         LINE#         213
  C:2901H         LINE#         214
  C:2907H         LINE#         215
  C:290AH         LINE#         217
  C:290AH         LINE#         219
  C:2918H         LINE#         220
BL51 BANKED LINKER/LOCATER V6.22.2.0                                                  11/13/2020  15:29:26  PAGE 54


  C:291EH         LINE#         221
  C:2921H         LINE#         222
  C:2927H         LINE#         223
  C:292AH         LINE#         225
  C:292AH         LINE#         227
  C:2938H         LINE#         228
  C:293EH         LINE#         229
  C:2941H         LINE#         230
  C:2947H         LINE#         231
  C:294AH         LINE#         233
  C:294AH         LINE#         234
  C:2958H         LINE#         235
  C:295EH         LINE#         236
  C:2961H         LINE#         237
  C:2967H         LINE#         238
  C:296AH         LINE#         240
  C:296AH         LINE#         241
  C:2978H         LINE#         242
  C:297EH         LINE#         243
  C:2981H         LINE#         244
  C:2987H         LINE#         245
  C:298AH         LINE#         247
  C:298AH         LINE#         249
  C:2998H         LINE#         250
  C:299EH         LINE#         251
  C:29A1H         LINE#         252
  C:29A7H         LINE#         253
  C:29AAH         LINE#         255
  C:29AAH         LINE#         256
  C:29B8H         LINE#         257
  C:29BEH         LINE#         258
  C:29C1H         LINE#         259
  C:29C7H         LINE#         260
  C:29CAH         LINE#         261
  C:29CAH         LINE#         262
  C:29D8H         LINE#         263
  C:29DEH         LINE#         264
  C:29E1H         LINE#         265
  C:29E7H         LINE#         266
  C:29EAH         LINE#         267
  C:29EAH         LINE#         268
  C:29F8H         LINE#         269
  C:29FEH         LINE#         270
  C:2A01H         LINE#         271
  C:2A07H         LINE#         272
  C:2A0AH         LINE#         273
  C:2A0AH         LINE#         274
  C:2A18H         LINE#         275
  C:2A1BH         LINE#         276
  C:2A21H         LINE#         277
  C:2A23H         LINE#         281
  C:2A23H         LINE#         282
  C:2A31H         LINE#         283
  C:2A37H         LINE#         284
  C:2A3AH         LINE#         285
  C:2A40H         LINE#         286
  C:2A42H         LINE#         287
BL51 BANKED LINKER/LOCATER V6.22.2.0                                                  11/13/2020  15:29:26  PAGE 55


  C:2A42H         LINE#         288
  C:2A50H         LINE#         289
  C:2A56H         LINE#         290
  C:2A59H         LINE#         291
  C:2A5FH         LINE#         292
  C:2A61H         LINE#         293
  C:2A61H         LINE#         294
  C:2A6FH         LINE#         295
  C:2A75H         LINE#         296
  C:2A78H         LINE#         297
  C:2A83H         LINE#         298
  C:2A83H         LINE#         307
  C:2A83H         LINE#         309
  C:2A83H         LINE#         310
  C:2A83H         LINE#         311
  C:2A85H         LINE#         313
  C:2A86H         LINE#         315
  C:2A86H         LINE#         316
  C:2A88H         LINE#         317
  C:2AEAH         LINE#         318
  C:2AEAH         LINE#         321
  C:2AEAH         LINE#         322
  C:2AFEH         LINE#         323
  C:2AFEH         LINE#         325
  C:2B01H         LINE#         326
  C:2B01H         LINE#         329
  C:2B15H         LINE#         330
  C:2B15H         LINE#         331
  C:2B18H         LINE#         333
  C:2B18H         LINE#         334
  C:2B2CH         LINE#         335
  C:2B2CH         LINE#         337
  C:2B2FH         LINE#         338
  C:2B2FH         LINE#         339
  C:2B43H         LINE#         340
  C:2B43H         LINE#         342
  C:2B46H         LINE#         343
  C:2B46H         LINE#         344
  C:2B5AH         LINE#         345
  C:2B5AH         LINE#         347
  C:2B5DH         LINE#         348
  C:2B5DH         LINE#         349
  C:2B71H         LINE#         350
  C:2B71H         LINE#         352
  C:2B74H         LINE#         353
  C:2B74H         LINE#         354
  C:2B88H         LINE#         355
  C:2B88H         LINE#         357
  C:2B8BH         LINE#         358
  C:2B8BH         LINE#         359
  C:2B9FH         LINE#         360
  C:2B9FH         LINE#         362
  C:2BA2H         LINE#         364
  C:2BA2H         LINE#         365
  C:2BB6H         LINE#         366
  C:2BB6H         LINE#         368
  C:2BB9H         LINE#         370
BL51 BANKED LINKER/LOCATER V6.22.2.0                                                  11/13/2020  15:29:26  PAGE 56


  C:2BB9H         LINE#         371
  C:2BCDH         LINE#         372
  C:2BCDH         LINE#         374
  C:2BD0H         LINE#         376
  C:2BD0H         LINE#         377
  C:2BE4H         LINE#         378
  C:2BE4H         LINE#         380
  C:2BE7H         LINE#         382
  C:2BE7H         LINE#         383
  C:2BFBH         LINE#         384
  C:2BFBH         LINE#         386
  C:2BFEH         LINE#         390
  C:2BFEH         LINE#         391
  C:2C12H         LINE#         392
  C:2C12H         LINE#         394
  C:2C15H         LINE#         396
  C:2C15H         LINE#         397
  C:2C29H         LINE#         398
  C:2C29H         LINE#         400
  C:2C2CH         LINE#         402
  C:2C2CH         LINE#         403
  C:2C40H         LINE#         404
  C:2C40H         LINE#         410
  C:2C43H         LINE#         411
  C:2C43H         LINE#         412
  C:2C57H         LINE#         413
  C:2C57H         LINE#         415
  C:2C5AH         LINE#         416
  C:2C5AH         LINE#         417
  C:2C6EH         LINE#         418
  C:2C6EH         LINE#         420
  C:2C71H         LINE#         421
  C:2C71H         LINE#         422
  C:2C85H         LINE#         423
  C:2C85H         LINE#         425
  C:2C88H         LINE#         426
  C:2C88H         LINE#         427
  C:2C9CH         LINE#         428
  C:2C9CH         LINE#         430
  C:2C9FH         LINE#         432
  C:2C9FH         LINE#         433
  C:2CB3H         LINE#         434
  C:2CB3H         LINE#         436
  C:2CB6H         LINE#         438
  C:2CB6H         LINE#         439
  C:2CCAH         LINE#         440
  C:2CCAH         LINE#         442
  C:2CCDH         LINE#         443
  C:2CCDH         LINE#         444
  C:2CE1H         LINE#         445
  C:2CE1H         LINE#         447
  C:2CE4H         LINE#         448
  C:2CE4H         LINE#         449
  C:2CF8H         LINE#         450
  C:2CF8H         LINE#         452
  C:2CFBH         LINE#         453
  C:2CFBH         LINE#         454
BL51 BANKED LINKER/LOCATER V6.22.2.0                                                  11/13/2020  15:29:26  PAGE 57


  C:2D0FH         LINE#         455
  C:2D0FH         LINE#         457
  C:2D11H         LINE#         459
  C:2D11H         LINE#         460
  C:2D25H         LINE#         461
  C:2D25H         LINE#         463
  C:2D27H         LINE#         464
  C:2D27H         LINE#         465
  C:2D3BH         LINE#         466
  C:2D3BH         LINE#         468
  C:2D3DH         LINE#         469
  C:2D3DH         LINE#         470
  C:2D51H         LINE#         471
  C:2D51H         LINE#         473
  C:2D53H         LINE#         478
  C:2D53H         LINE#         479
  C:2D67H         LINE#         480
  C:2D67H         LINE#         482
  C:2D69H         LINE#         483
  C:2D69H         LINE#         484
  C:2D80H         LINE#         485
  C:2D86H         LINE#         487
  C:2D86H         LINE#         495
  C:2D86H         LINE#         496
  C:2D86H         LINE#         497
  C:2D86H         LINE#         498
  C:2D91H         LINE#         499
  C:2D98H         LINE#         500
  C:2D9AH         LINE#         501
  C:2D9AH         LINE#         505
  -------         ENDPROC       _PANTALLALCD
  -------         PROC          _PANTALLALCD_LINEA_2
  X:0010H         SYMBOL        cod_msg
  X:0011H         SYMBOL        buffer
  -------         DO            
  X:0014H         SYMBOL        Ini_LCD_Line_one
  X:001AH         SYMBOL        num_chr
  X:001BH         SYMBOL        msjpantalla
  -------         ENDDO         
  C:491EH         LINE#         506
  C:492CH         LINE#         507
  C:492CH         LINE#         509
  C:493FH         LINE#         513
  C:494AH         LINE#         514
  C:4959H         LINE#         518
  C:495BH         LINE#         520
  C:4964H         LINE#         521
  C:4964H         LINE#         524
  C:4972H         LINE#         525
  C:4972H         LINE#         527
  C:4972H         LINE#         528
  C:4975H         LINE#         529
  C:4983H         LINE#         530
  C:4998H         LINE#         531
  C:499EH         LINE#         532
  C:49A4H         LINE#         533
  C:49AAH         LINE#         534
BL51 BANKED LINKER/LOCATER V6.22.2.0                                                  11/13/2020  15:29:26  PAGE 58


  C:49AAH         LINE#         535
  C:49ACH         LINE#         536
  C:49ACH         LINE#         537
  C:49AFH         LINE#         538
  C:49BDH         LINE#         539
  C:49D2H         LINE#         540
  C:49D8H         LINE#         541
  C:49DEH         LINE#         542
  C:49E9H         LINE#         543
  C:49F9H         LINE#         544
  C:49F9H         LINE#         548
  C:49F9H         LINE#         550
  C:49F9H         LINE#         552
  C:49F9H         LINE#         553
  C:49FBH         LINE#         554
  C:49FCH         LINE#         556
  C:49FCH         LINE#         557
  C:49FEH         LINE#         558
  C:4A18H         LINE#         559
  C:4A18H         LINE#         560
  C:4A18H         LINE#         562
  C:4A2FH         LINE#         563
  C:4A2FH         LINE#         564
  C:4A2FH         LINE#         565
  C:4A2FH         LINE#         568
  C:4A32H         LINE#         570
  C:4A32H         LINE#         571
  C:4A49H         LINE#         572
  C:4A5CH         LINE#         573
  C:4A76H         LINE#         574
  C:4A76H         LINE#         575
  C:4A76H         LINE#         576
  C:4A76H         LINE#         578
  C:4A79H         LINE#         579
  C:4A79H         LINE#         581
  C:4A8DH         LINE#         582
  C:4A90H         LINE#         583
  C:4A93H         LINE#         584
  C:4A93H         LINE#         586
  C:4AA8H         LINE#         588
  C:4AA8H         LINE#         589
  C:4AAAH         LINE#         591
  C:4AAAH         LINE#         593
  C:4AC3H         LINE#         595
  C:4AC6H         LINE#         597
  C:4AC6H         LINE#         598
  C:4AD9H         LINE#         599
  C:4AD9H         LINE#         600
  C:4AE0H         LINE#         602
  C:4B01H         LINE#         604
  C:4B1EH         LINE#         605
  C:4B21H         LINE#         607
  C:4B21H         LINE#         608
  C:4B28H         LINE#         610
  C:4B28H         LINE#         611
  C:4B28H         LINE#         614
  C:4B2BH         LINE#         616
BL51 BANKED LINKER/LOCATER V6.22.2.0                                                  11/13/2020  15:29:26  PAGE 59


  C:4B2BH         LINE#         617
  C:4B42H         LINE#         618
  C:4B55H         LINE#         619
  C:4B6FH         LINE#         620
  C:4B9BH         LINE#         621
  C:4BB8H         LINE#         622
  C:4BBBH         LINE#         624
  C:4BBBH         LINE#         626
  C:4BBBH         LINE#         628
  C:4BBBH         LINE#         629
  C:4BBBH         LINE#         630
  C:4BC6H         LINE#         631
  C:4BCDH         LINE#         632
  C:4BCFH         LINE#         633
  C:4BCFH         LINE#         634
  -------         ENDPROC       _PANTALLALCD_LINEA_2
  C:B4ADH         SYMBOL        L?0164
  C:B4B0H         SYMBOL        L?0165
  C:B4B1H         SYMBOL        L?0166
  -------         PROC          L?0163
  -------         ENDPROC       L?0163
  C:B4ADH         SYMBOL        L?0164
  C:B4B0H         SYMBOL        L?0165
  C:B4B1H         SYMBOL        L?0166
  -------         PROC          _TX_CHRLCD
  D:0007H         SYMBOL        data_com
  X:0039H         SYMBOL        enable_char_add
  -------         DO            
  X:003AH         SYMBOL        d
  -------         ENDDO         
  C:B4B6H         LINE#         640
  C:B4BBH         LINE#         641
  C:B4BBH         LINE#         643
  C:B4C3H         LINE#         644
  C:B4D3H         LINE#         646
  -------         ENDPROC       _TX_CHRLCD
  -------         PROC          L?0170
  -------         ENDPROC       L?0170
  -------         PROC          _LCD_TXT
  X:0034H         SYMBOL        msg
  X:0037H         SYMBOL        enable_char_add
  -------         DO            
  X:0038H         SYMBOL        i
  -------         ENDDO         
  C:ADF6H         LINE#         653
  C:AE04H         LINE#         654
  C:AE04H         LINE#         657
  C:AE21H         LINE#         658
  C:AE21H         LINE#         659
  C:AE29H         LINE#         660
  C:AE31H         LINE#         661
  -------         ENDPROC       _LCD_TXT
  -------         PROC          _LCD_TXT_NUM_CHAR
  X:001DH         SYMBOL        msg
  X:0020H         SYMBOL        length_char
  X:0021H         SYMBOL        enable_char_add
  -------         DO            
BL51 BANKED LINKER/LOCATER V6.22.2.0                                                  11/13/2020  15:29:26  PAGE 60


  X:0022H         SYMBOL        i
  -------         ENDDO         
  C:AD1CH         LINE#         668
  C:AD2AH         LINE#         669
  C:AD2AH         LINE#         672
  C:AD3DH         LINE#         673
  C:AD3DH         LINE#         674
  C:AD59H         LINE#         675
  C:AD61H         LINE#         676
  -------         ENDPROC       _LCD_TXT_NUM_CHAR
  C:9D8CH         SYMBOL        L?0168
  C:9D8FH         SYMBOL        L?0169
  -------         PROC          L?0167
  -------         ENDPROC       L?0167
  C:9D8CH         SYMBOL        L?0168
  C:9D8FH         SYMBOL        L?0169
  -------         PROC          _RASPBERRY_DATA
  X:0034H         SYMBOL        msjpantalla
  -------         DO            
  X:0037H         SYMBOL        i
  X:0038H         SYMBOL        lenth_cadena
  X:0039H         SYMBOL        d
  -------         ENDDO         
  C:9D98H         LINE#         678
  C:9DA3H         LINE#         679
  C:9DA3H         LINE#         684
  C:9DABH         LINE#         686
  C:9DBDH         LINE#         687
  C:9DBDH         LINE#         689
  C:9DCFH         LINE#         690
  C:9DCFH         LINE#         691
  C:9DD4H         LINE#         692
  C:9DF2H         LINE#         694
  C:9DFAH         LINE#         697
  C:9E0CH         LINE#         698
  C:9E0CH         LINE#         700
  C:9E11H         LINE#         702
  -------         ENDPROC       _RASPBERRY_DATA
  -------         PROC          RELOJ_PANTALLA_LCD
  -------         DO            
  X:0010H         SYMBOL        Ini_Clock_LCD
  -------         ENDDO         
  C:AA38H         LINE#         710
  C:AA38H         LINE#         711
  C:AA38H         LINE#         713
  C:AA4BH         LINE#         714
  C:AA51H         LINE#         715
  C:AA51H         LINE#         716
  C:AA53H         LINE#         717
  C:AA5CH         LINE#         721
  C:AA5EH         LINE#         722
  C:AA6EH         LINE#         724
  C:AA70H         LINE#         725
  C:AA72H         LINE#         727
  C:AA73H         LINE#         729
  C:AA73H         LINE#         730
  C:AA75H         LINE#         731
BL51 BANKED LINKER/LOCATER V6.22.2.0                                                  11/13/2020  15:29:26  PAGE 61


  C:AA7AH         LINE#         732
  C:AA83H         LINE#         736
  C:AA85H         LINE#         737
  C:AA85H         LINE#         738
  -------         ENDPROC       RELOJ_PANTALLA_LCD
  -------         ENDMOD        PANTALLAS

  -------         MODULE        PROG
  C:0000H         SYMBOL        _ICE_DUMMY_
  C:51FEH         PUBLIC        Prog_fecha_vencimiento
  C:6465H         PUBLIC        Prog_Sin_Cobro
  C:6DCAH         PUBLIC        _Ver_Horario_Desde_Hasta
  C:7416H         PUBLIC        Prog_debug
  C:770AH         PUBLIC        Prog_AntiPassBack
  C:9A45H         PUBLIC        _GetOption
  X:01B1H         PUBLIC        validacion
  C:7902H         PUBLIC        Prog_Validar_Tipo_Vehiculo_Mensual
  X:01BCH         PUBLIC        cursor
  C:6CB0H         PUBLIC        _Prog_Horarios_on_off
  C:96B6H         PUBLIC        Show
  C:3CFDH         PUBLIC        Ver_Prog
  C:B2EAH         PUBLIC        Addr_Horarios
  C:8E3CH         PUBLIC        prog_id_cliente
  C:AE7DH         PUBLIC        _ValidarClave
  C:4BD0H         PUBLIC        menu
  C:7512H         PUBLIC        Prog_Use_Lpr
  C:A7BCH         PUBLIC        _ListaComandos
  C:12F7H         SYMBOL        _?ix1000
  C:1302H         SYMBOL        _?ix1001
  C:1312H         SYMBOL        _?ix1002
  C:1322H         SYMBOL        _?ix1003
  C:1326H         SYMBOL        _?ix1004
  C:609FH         PUBLIC        Prog_Horarios
  C:132AH         SYMBOL        _?ix1005
  C:79FEH         PUBLIC        Prog_Apb_Mensual
  C:8908H         PUBLIC        Prog_tarjeta_automatica_o_boton
  C:4DFCH         PUBLIC        _hash_id
  C:4667H         PUBLIC        _Prog_Horario_dias
  C:8CC5H         PUBLIC        Prog_tiempo_gracia
  C:A23FH         PUBLIC        _IngresaDato
  X:01D0H         PUBLIC        comandos
  C:AC00H         PUBLIC        First_Clave
  C:B65AH         PUBLIC        DisplayCursor
  C:7806H         PUBLIC        Prog_Placa
  C:8C08H         PUBLIC        prog_cod_park
  C:66E1H         PUBLIC        Ver_Horario
  C:6A6CH         PUBLIC        _Ver_Horario_dias
  C:5004H         PUBLIC        _Prog_Horario_Desde_Hasta
  C:760EH         PUBLIC        tipo_pantalla
  C:7DB9H         PUBLIC        Prog_Address_High_Board
  C:AF3FH         PUBLIC        _GetCMD
  -------         PROC          _HASH_ID
  X:005DH         SYMBOL        clave
  -------         DO            
  X:0060H         SYMBOL        len_clave
  X:0061H         SYMBOL        i
  X:01ADH         SYMBOL        temp
BL51 BANKED LINKER/LOCATER V6.22.2.0                                                  11/13/2020  15:29:26  PAGE 62


  X:01AFH         SYMBOL        temp1
  X:0062H         SYMBOL        aleatorio
  X:006DH         SYMBOL        suma
  X:007DH         SYMBOL        xxor
  X:008DH         SYMBOL        usuario1
  X:0098H         SYMBOL        vencimiento_password
  -------         ENDDO         
  C:4DFCH         LINE#         121
  C:4E07H         LINE#         122
  C:4E07H         LINE#         125
  C:4E1AH         LINE#         127
  C:4E2DH         LINE#         128
  C:4E40H         LINE#         132
  C:4E4DH         LINE#         133
  C:4E69H         LINE#         135
  C:4E69H         LINE#         136
  C:4E6DH         LINE#         137
  C:4E6FH         LINE#         139
  C:4E6FH         LINE#         140
  C:4E76H         LINE#         141
  C:4E76H         LINE#         142
  C:4E89H         LINE#         143
  C:4E9DH         LINE#         144
  C:4E9DH         LINE#         145
  C:4EC9H         LINE#         146
  C:4ED4H         LINE#         147
  C:4EE1H         LINE#         148
  C:4EFFH         LINE#         149
  C:4F0AH         LINE#         150
  C:4F17H         LINE#         151
  C:4F3BH         LINE#         152
  C:4F43H         LINE#         153
  C:4F43H         LINE#         154
  C:4F48H         LINE#         155
  C:4F48H         LINE#         156
  C:4F61H         LINE#         157
  C:4F61H         LINE#         158
  C:4F6DH         LINE#         160
  C:4F6DH         LINE#         161
  C:4F7CH         LINE#         162
  C:4F7CH         LINE#         163
  C:4F88H         LINE#         164
  C:4F88H         LINE#         165
  C:4FA1H         LINE#         166
  C:4FA1H         LINE#         167
  C:4FACH         LINE#         168
  C:4FACH         LINE#         169
  C:4FC5H         LINE#         170
  C:4FC5H         LINE#         171
  C:4FD0H         LINE#         172
  C:4FD0H         LINE#         173
  C:4FE5H         LINE#         175
  C:4FEEH         LINE#         176
  C:4FFDH         LINE#         178
  C:5003H         LINE#         179
  -------         ENDPROC       _HASH_ID
  -------         PROC          _LISTACOMANDOS
BL51 BANKED LINKER/LOCATER V6.22.2.0                                                  11/13/2020  15:29:26  PAGE 63


  X:0046H         SYMBOL        cmd
  -------         DO            
  X:0049H         SYMBOL        buf
  X:004CH         SYMBOL        i
  -------         ENDDO         
  C:A7BCH         LINE#         186
  C:A7C7H         LINE#         187
  C:A7C7H         LINE#         191
  C:A7DAH         LINE#         192
  C:A7DAH         LINE#         193
  C:A7F2H         LINE#         194
  C:A80DH         LINE#         195
  C:A813H         LINE#         196
  C:A81BH         LINE#         198
  C:A81DH         LINE#         199
  -------         ENDPROC       _LISTACOMANDOS
  -------         PROC          L?0274
  -------         ENDPROC       L?0274
  -------         PROC          _VALIDARCLAVE
  X:005DH         SYMBOL        buffer
  -------         DO            
  X:0060H         SYMBOL        buf
  -------         ENDDO         
  C:AE7DH         LINE#         205
  C:AE88H         LINE#         206
  C:AE88H         LINE#         209
  C:AE97H         LINE#         210
  C:AEB2H         LINE#         211
  C:AEB4H         LINE#         214
  C:AEB6H         LINE#         215
  -------         ENDPROC       _VALIDARCLAVE
  -------         PROC          L?0275
  -------         ENDPROC       L?0275
  -------         PROC          _GETCMD
  X:005DH         SYMBOL        in
  -------         DO            
  X:0060H         SYMBOL        tokens
  -------         ENDDO         
  C:AF3FH         LINE#         222
  C:AF4AH         LINE#         223
  C:AF4AH         LINE#         224
  C:AF5DH         LINE#         225
  -------         ENDPROC       _GETCMD
  -------         PROC          L?0273
  -------         ENDPROC       L?0273
  -------         PROC          _GETOPTION
  X:0046H         SYMBOL        in
  -------         DO            
  X:0049H         SYMBOL        tokensSpace
  X:004DH         SYMBOL        tokensQuote
  -------         ENDDO         
  C:9A45H         LINE#         231
  C:9A50H         LINE#         232
  C:9A50H         LINE#         233
  C:9A63H         LINE#         234
  C:9A76H         LINE#         237
  C:9A88H         LINE#         238
BL51 BANKED LINKER/LOCATER V6.22.2.0                                                  11/13/2020  15:29:26  PAGE 64


  C:9A94H         LINE#         241
  C:9A9BH         LINE#         242
  C:9AA8H         LINE#         244
  C:9AC1H         LINE#         245
  -------         ENDPROC       _GETOPTION
  -------         PROC          DISPLAYCURSOR
  C:B65AH         LINE#         250
  C:B65AH         LINE#         251
  C:B65AH         LINE#         252
  -------         ENDPROC       DISPLAYCURSOR
  C:A23BH         SYMBOL        L?0272
  -------         PROC          L?0271
  -------         ENDPROC       L?0271
  C:A23BH         SYMBOL        L?0272
  -------         PROC          _INGRESADATO
  X:0071H         SYMBOL        buffer
  X:0074H         SYMBOL        modo
  -------         DO            
  D:0006H         SYMBOL        i
  -------         ENDDO         
  C:A23FH         LINE#         259
  C:A24DH         LINE#         260
  C:A24DH         LINE#         265
  C:A24DH         LINE#         266
  C:A25FH         LINE#         267
  C:A265H         LINE#         268
  C:A265H         LINE#         269
  C:A280H         LINE#         270
  C:A282H         LINE#         272
  C:A282H         LINE#         273
  C:A287H         LINE#         274
  C:A287H         LINE#         275
  C:A298H         LINE#         276
  C:A2A2H         LINE#         277
  C:A2B1H         LINE#         279
  C:A2B6H         LINE#         283
  -------         ENDPROC       _INGRESADATO
  -------         PROC          PROG_ID_CLIENTE
  -------         DO            
  X:0046H         SYMBOL        buffer
  X:0050H         SYMBOL        dataee
  -------         ENDDO         
  C:8E3CH         LINE#         300
  C:8E3CH         LINE#         301
  C:8E3CH         LINE#         305
  C:8E4EH         LINE#         306
  C:8E6BH         LINE#         308
  C:8E82H         LINE#         310
  C:8E8BH         LINE#         311
  C:8E92H         LINE#         312
  C:8EA3H         LINE#         313
  C:8EACH         LINE#         315
  C:8EBEH         LINE#         316
  C:8EDBH         LINE#         317
  -------         ENDPROC       PROG_ID_CLIENTE
  -------         PROC          PROG_COD_PARK
  -------         DO            
BL51 BANKED LINKER/LOCATER V6.22.2.0                                                  11/13/2020  15:29:26  PAGE 65


  X:0046H         SYMBOL        buffer
  X:0050H         SYMBOL        dataee
  -------         ENDDO         
  C:8C08H         LINE#         322
  C:8C08H         LINE#         323
  C:8C08H         LINE#         327
  C:8C1BH         LINE#         328
  C:8C38H         LINE#         330
  C:8C4FH         LINE#         332
  C:8C58H         LINE#         333
  C:8C63H         LINE#         334
  C:8C74H         LINE#         335
  C:8C7EH         LINE#         337
  C:8C91H         LINE#         338
  C:8CAEH         LINE#         339
  -------         ENDPROC       PROG_COD_PARK
  -------         PROC          PROG_TIEMPO_GRACIA
  -------         DO            
  X:0046H         SYMBOL        buffer
  X:0050H         SYMBOL        dataee
  -------         ENDDO         
  C:8CC5H         LINE#         344
  C:8CC5H         LINE#         345
  C:8CC5H         LINE#         349
  C:8CD8H         LINE#         350
  C:8CF5H         LINE#         352
  C:8D0CH         LINE#         354
  C:8D15H         LINE#         355
  C:8D20H         LINE#         356
  C:8D31H         LINE#         357
  C:8D3BH         LINE#         359
  C:8D4EH         LINE#         360
  C:8D6BH         LINE#         361
  -------         ENDPROC       PROG_TIEMPO_GRACIA
  -------         PROC          PROG_SIN_COBRO
  -------         DO            
  X:0046H         SYMBOL        buffer
  X:0050H         SYMBOL        dataee
  -------         ENDDO         
  C:6465H         LINE#         367
  C:6465H         LINE#         368
  C:6465H         LINE#         374
  C:6478H         LINE#         375
  C:6495H         LINE#         376
  C:649FH         LINE#         377
  C:649FH         LINE#         378
  C:64B2H         LINE#         379
  C:64B4H         LINE#         380
  C:64C0H         LINE#         381
  C:64C0H         LINE#         382
  C:64D3H         LINE#         383
  C:64D5H         LINE#         385
  C:64D5H         LINE#         386
  C:64ECH         LINE#         387
  C:64ECH         LINE#         389
  C:64F5H         LINE#         390
  C:6500H         LINE#         391
BL51 BANKED LINKER/LOCATER V6.22.2.0                                                  11/13/2020  15:29:26  PAGE 66


  C:6511H         LINE#         392
  C:651BH         LINE#         394
  C:652EH         LINE#         395
  C:654BH         LINE#         396
  C:6555H         LINE#         397
  C:6555H         LINE#         398
  C:6568H         LINE#         399
  C:656AH         LINE#         400
  C:6576H         LINE#         401
  C:6576H         LINE#         402
  C:6589H         LINE#         403
  C:658BH         LINE#         405
  C:658BH         LINE#         406
  C:65A2H         LINE#         407
  C:65A2H         LINE#         409
  -------         ENDPROC       PROG_SIN_COBRO
  -------         PROC          PROG_DEBUG
  -------         DO            
  X:0046H         SYMBOL        buffer
  X:0050H         SYMBOL        dataee
  -------         ENDDO         
  C:7416H         LINE#         415
  C:7416H         LINE#         416
  C:7416H         LINE#         421
  C:7429H         LINE#         422
  C:7446H         LINE#         423
  C:7450H         LINE#         424
  C:7450H         LINE#         425
  C:7463H         LINE#         426
  C:7465H         LINE#         428
  C:7465H         LINE#         429
  C:747CH         LINE#         430
  C:747CH         LINE#         432
  C:7485H         LINE#         433
  C:7490H         LINE#         434
  C:74A1H         LINE#         435
  C:74ABH         LINE#         437
  C:74BEH         LINE#         438
  C:74DBH         LINE#         439
  C:74E5H         LINE#         440
  C:74E5H         LINE#         441
  C:74F8H         LINE#         442
  C:74FAH         LINE#         444
  C:74FAH         LINE#         445
  C:7511H         LINE#         446
  C:7511H         LINE#         447
  -------         ENDPROC       PROG_DEBUG
  -------         PROC          PROG_USE_LPR
  -------         DO            
  X:0046H         SYMBOL        buffer
  X:0050H         SYMBOL        dataee
  -------         ENDDO         
  C:7512H         LINE#         452
  C:7512H         LINE#         453
  C:7512H         LINE#         458
  C:7525H         LINE#         459
  C:7542H         LINE#         460
BL51 BANKED LINKER/LOCATER V6.22.2.0                                                  11/13/2020  15:29:26  PAGE 67


  C:754CH         LINE#         461
  C:754CH         LINE#         462
  C:755FH         LINE#         463
  C:7561H         LINE#         465
  C:7561H         LINE#         466
  C:7578H         LINE#         467
  C:7578H         LINE#         469
  C:7581H         LINE#         470
  C:758CH         LINE#         471
  C:759DH         LINE#         472
  C:75A7H         LINE#         474
  C:75BAH         LINE#         475
  C:75D7H         LINE#         476
  C:75E1H         LINE#         477
  C:75E1H         LINE#         478
  C:75F4H         LINE#         479
  C:75F6H         LINE#         481
  C:75F6H         LINE#         482
  C:760DH         LINE#         483
  C:760DH         LINE#         484
  -------         ENDPROC       PROG_USE_LPR
  -------         PROC          TIPO_PANTALLA
  -------         DO            
  X:0046H         SYMBOL        buffer
  X:0050H         SYMBOL        dataee
  -------         ENDDO         
  C:760EH         LINE#         491
  C:760EH         LINE#         492
  C:760EH         LINE#         497
  C:7621H         LINE#         498
  C:763EH         LINE#         499
  C:7648H         LINE#         500
  C:7648H         LINE#         501
  C:765BH         LINE#         502
  C:765DH         LINE#         504
  C:765DH         LINE#         505
  C:7674H         LINE#         506
  C:7674H         LINE#         508
  C:767DH         LINE#         509
  C:7688H         LINE#         510
  C:7699H         LINE#         511
  C:76A3H         LINE#         513
  C:76B6H         LINE#         514
  C:76D3H         LINE#         515
  C:76DDH         LINE#         516
  C:76DDH         LINE#         517
  C:76F0H         LINE#         518
  C:76F2H         LINE#         520
  C:76F2H         LINE#         521
  C:7709H         LINE#         522
  C:7709H         LINE#         524
  -------         ENDPROC       TIPO_PANTALLA
  -------         PROC          PROG_TARJETA_AUTOMATICA_O_BOTON
  -------         DO            
  X:0046H         SYMBOL        buffer
  X:0050H         SYMBOL        dataee
  -------         ENDDO         
BL51 BANKED LINKER/LOCATER V6.22.2.0                                                  11/13/2020  15:29:26  PAGE 68


  C:8908H         LINE#         525
  C:8908H         LINE#         526
  C:8908H         LINE#         531
  C:891BH         LINE#         532
  C:8938H         LINE#         533
  C:8944H         LINE#         534
  C:8944H         LINE#         535
  C:8948H         LINE#         536
  C:894AH         LINE#         538
  C:894AH         LINE#         539
  C:8951H         LINE#         540
  C:8951H         LINE#         542
  C:895AH         LINE#         543
  C:8965H         LINE#         544
  C:8976H         LINE#         545
  C:8980H         LINE#         547
  C:8993H         LINE#         548
  C:89B0H         LINE#         549
  C:89BCH         LINE#         550
  C:89BCH         LINE#         551
  C:89C0H         LINE#         552
  C:89C2H         LINE#         554
  C:89C2H         LINE#         555
  C:89C9H         LINE#         556
  C:89C9H         LINE#         557
  -------         ENDPROC       PROG_TARJETA_AUTOMATICA_O_BOTON
  -------         PROC          PROG_ANTIPASSBACK
  -------         DO            
  X:0046H         SYMBOL        buffer
  X:0050H         SYMBOL        dataee
  -------         ENDDO         
  C:770AH         LINE#         558
  C:770AH         LINE#         559
  C:770AH         LINE#         564
  C:771DH         LINE#         565
  C:773AH         LINE#         566
  C:7744H         LINE#         567
  C:7744H         LINE#         568
  C:7757H         LINE#         569
  C:7759H         LINE#         571
  C:7759H         LINE#         572
  C:7770H         LINE#         573
  C:7770H         LINE#         575
  C:7779H         LINE#         576
  C:7784H         LINE#         577
  C:7795H         LINE#         578
  C:779FH         LINE#         580
  C:77B2H         LINE#         581
  C:77CFH         LINE#         582
  C:77D9H         LINE#         583
  C:77D9H         LINE#         584
  C:77ECH         LINE#         585
  C:77EEH         LINE#         587
  C:77EEH         LINE#         588
  C:7805H         LINE#         589
  C:7805H         LINE#         590
  -------         ENDPROC       PROG_ANTIPASSBACK
BL51 BANKED LINKER/LOCATER V6.22.2.0                                                  11/13/2020  15:29:26  PAGE 69


  -------         PROC          PROG_PLACA
  -------         DO            
  X:0046H         SYMBOL        buffer
  X:0050H         SYMBOL        dataee
  -------         ENDDO         
  C:7806H         LINE#         591
  C:7806H         LINE#         592
  C:7806H         LINE#         597
  C:7819H         LINE#         598
  C:7836H         LINE#         599
  C:7840H         LINE#         600
  C:7840H         LINE#         601
  C:7853H         LINE#         602
  C:7855H         LINE#         604
  C:7855H         LINE#         605
  C:786CH         LINE#         606
  C:786CH         LINE#         608
  C:7875H         LINE#         609
  C:7880H         LINE#         610
  C:7891H         LINE#         611
  C:789BH         LINE#         613
  C:78AEH         LINE#         614
  C:78CBH         LINE#         615
  C:78D5H         LINE#         616
  C:78D5H         LINE#         617
  C:78E8H         LINE#         618
  C:78EAH         LINE#         620
  C:78EAH         LINE#         621
  C:7901H         LINE#         622
  C:7901H         LINE#         623
  -------         ENDPROC       PROG_PLACA
  -------         PROC          PROG_ADDRESS_HIGH_BOARD
  -------         DO            
  X:0046H         SYMBOL        buffer
  X:0050H         SYMBOL        dataee
  -------         ENDDO         
  C:7DB9H         LINE#         624
  C:7DB9H         LINE#         625
  C:7DB9H         LINE#         630
  C:7DCCH         LINE#         631
  C:7DE9H         LINE#         632
  C:7DF3H         LINE#         633
  C:7DF3H         LINE#         634
  C:7DF7H         LINE#         635
  C:7DF9H         LINE#         637
  C:7DF9H         LINE#         638
  C:7E10H         LINE#         639
  C:7E10H         LINE#         641
  C:7E19H         LINE#         642
  C:7E24H         LINE#         643
  C:7E35H         LINE#         644
  C:7E3FH         LINE#         646
  C:7E52H         LINE#         647
  C:7E6FH         LINE#         648
  C:7E79H         LINE#         649
  C:7E79H         LINE#         650
  C:7E7DH         LINE#         651
BL51 BANKED LINKER/LOCATER V6.22.2.0                                                  11/13/2020  15:29:26  PAGE 70


  C:7E7FH         LINE#         653
  C:7E7FH         LINE#         654
  C:7E96H         LINE#         655
  C:7E96H         LINE#         656
  -------         ENDPROC       PROG_ADDRESS_HIGH_BOARD
  -------         PROC          ADDR_HORARIOS
  -------         DO            
  X:0074H         SYMBOL        ee_addr_horario
  -------         ENDDO         
  C:B2EAH         LINE#         658
  C:B2EAH         LINE#         659
  C:B2EAH         LINE#         662
  C:B2F0H         LINE#         663
  C:B2F4H         LINE#         664
  C:B2F8H         LINE#         665
  C:B2FCH         LINE#         666
  C:B300H         LINE#         667
  C:B304H         LINE#         668
  C:B308H         LINE#         669
  C:B30CH         LINE#         670
  C:B310H         LINE#         671
  C:B314H         LINE#         672
  C:B317H         LINE#         673
  C:B31DH         LINE#         674
  -------         ENDPROC       ADDR_HORARIOS
  -------         PROC          _PROG_HORARIOS_ON_OFF
  X:0061H         SYMBOL        addr
  -------         DO            
  X:0063H         SYMBOL        buffer
  X:006DH         SYMBOL        dataee
  X:006FH         SYMBOL        habilitado
  -------         ENDDO         
  C:6CB0H         LINE#         675
  C:6CBAH         LINE#         676
  C:6CBAH         LINE#         679
  C:6CC9H         LINE#         680
  C:6CE6H         LINE#         681
  C:6CF0H         LINE#         682
  C:6CF0H         LINE#         683
  C:6D03H         LINE#         684
  C:6D05H         LINE#         686
  C:6D05H         LINE#         687
  C:6D1CH         LINE#         688
  C:6D1CH         LINE#         689
  C:6D25H         LINE#         690
  C:6D30H         LINE#         691
  C:6D41H         LINE#         692
  C:6D50H         LINE#         694
  C:6D67H         LINE#         695
  C:6D84H         LINE#         696
  C:6D91H         LINE#         697
  C:6D91H         LINE#         698
  C:6D94H         LINE#         699
  C:6DA7H         LINE#         700
  C:6DA9H         LINE#         702
  C:6DA9H         LINE#         703
  C:6DAEH         LINE#         704
BL51 BANKED LINKER/LOCATER V6.22.2.0                                                  11/13/2020  15:29:26  PAGE 71


  C:6DC3H         LINE#         705
  C:6DC3H         LINE#         706
  C:6DC9H         LINE#         707
  -------         ENDPROC       _PROG_HORARIOS_ON_OFF
  -------         PROC          _PROG_HORARIO_DESDE_HASTA
  X:0061H         SYMBOL        addr
  -------         DO            
  X:0063H         SYMBOL        buffer
  D:0007H         SYMBOL        dataee
  -------         ENDDO         
  C:5004H         LINE#         708
  C:500CH         LINE#         709
  C:500CH         LINE#         714
  C:5015H         LINE#         715
  C:5018H         LINE#         716
  C:5021H         LINE#         717
  C:5039H         LINE#         718
  C:504CH         LINE#         719
  C:505AH         LINE#         720
  C:5072H         LINE#         721
  C:5085H         LINE#         722
  C:5093H         LINE#         723
  C:50ABH         LINE#         724
  C:50BEH         LINE#         725
  C:50CCH         LINE#         726
  C:50E4H         LINE#         727
  C:50F7H         LINE#         728
  C:5105H         LINE#         732
  C:510EH         LINE#         733
  C:5111H         LINE#         735
  C:511AH         LINE#         737
  C:5132H         LINE#         738
  C:5145H         LINE#         739
  C:5153H         LINE#         740
  C:516BH         LINE#         741
  C:517EH         LINE#         742
  C:518CH         LINE#         743
  C:51A4H         LINE#         744
  C:51B7H         LINE#         745
  C:51C5H         LINE#         746
  C:51DDH         LINE#         747
  C:51F0H         LINE#         748
  -------         ENDPROC       _PROG_HORARIO_DESDE_HASTA
  -------         PROC          _VER_HORARIO_DESDE_HASTA
  X:0074H         SYMBOL        addr
  -------         DO            
  D:0007H         SYMBOL        dataee
  -------         ENDDO         
  C:6DCAH         LINE#         750
  C:6DD2H         LINE#         751
  C:6DD2H         LINE#         753
  C:6DDBH         LINE#         754
  C:6DEEH         LINE#         755
  C:6DFCH         LINE#         756
  C:6E0FH         LINE#         757
  C:6E1DH         LINE#         758
  C:6E30H         LINE#         759
BL51 BANKED LINKER/LOCATER V6.22.2.0                                                  11/13/2020  15:29:26  PAGE 72


  C:6E3EH         LINE#         760
  C:6E51H         LINE#         761
  C:6E5FH         LINE#         763
  C:6E72H         LINE#         764
  C:6E80H         LINE#         766
  C:6E93H         LINE#         767
  C:6EA1H         LINE#         769
  C:6EB4H         LINE#         770
  C:6EC2H         LINE#         772
  C:6ED5H         LINE#         773
  -------         ENDPROC       _VER_HORARIO_DESDE_HASTA
  -------         PROC          _PROG_HORARIO_DIAS
  X:0061H         SYMBOL        addr
  -------         DO            
  X:0063H         SYMBOL        buffer
  X:006DH         SYMBOL        dataee
  X:006EH         SYMBOL        j
  X:006FH         SYMBOL        temp
  -------         ENDDO         
  C:4667H         LINE#         775
  C:466FH         LINE#         776
  C:466FH         LINE#         780
  C:4678H         LINE#         781
  C:4681H         LINE#         782
  C:468AH         LINE#         783
  C:4695H         LINE#         786
  C:469EH         LINE#         788
  C:46B4H         LINE#         789
  C:46B4H         LINE#         791
  C:46C7H         LINE#         792
  C:46C7H         LINE#         793
  C:46D0H         LINE#         795
  C:46E5H         LINE#         796
  C:46FDH         LINE#         797
  C:470AH         LINE#         798
  C:470AH         LINE#         800
  C:4720H         LINE#         801
  C:4720H         LINE#         802
  C:4729H         LINE#         803
  C:473EH         LINE#         804
  C:4756H         LINE#         805
  C:4763H         LINE#         806
  C:4763H         LINE#         808
  C:4779H         LINE#         809
  C:4779H         LINE#         810
  C:4782H         LINE#         811
  C:4797H         LINE#         812
  C:47AFH         LINE#         813
  C:47BCH         LINE#         814
  C:47BCH         LINE#         816
  C:47D2H         LINE#         817
  C:47D2H         LINE#         818
  C:47DBH         LINE#         819
  C:47F0H         LINE#         820
  C:4808H         LINE#         821
  C:4815H         LINE#         822
  C:4815H         LINE#         824
BL51 BANKED LINKER/LOCATER V6.22.2.0                                                  11/13/2020  15:29:26  PAGE 73


  C:482BH         LINE#         825
  C:482BH         LINE#         826
  C:4834H         LINE#         827
  C:4849H         LINE#         828
  C:4861H         LINE#         829
  C:486EH         LINE#         830
  C:486EH         LINE#         832
  C:4884H         LINE#         833
  C:4884H         LINE#         834
  C:488DH         LINE#         835
  C:48A2H         LINE#         836
  C:48BAH         LINE#         837
  C:48C7H         LINE#         838
  C:48C7H         LINE#         840
  C:48DDH         LINE#         841
  C:48DDH         LINE#         842
  C:48E6H         LINE#         843
  C:48F5H         LINE#         844
  C:4907H         LINE#         845
  C:4914H         LINE#         846
  C:4914H         LINE#         847
  C:491DH         LINE#         849
  -------         ENDPROC       _PROG_HORARIO_DIAS
  -------         PROC          _VER_HORARIO_DIAS
  X:0074H         SYMBOL        addr
  -------         DO            
  X:0076H         SYMBOL        dataee
  -------         ENDDO         
  C:6A6CH         LINE#         850
  C:6A74H         LINE#         851
  C:6A74H         LINE#         854
  C:6A84H         LINE#         855
  C:6A8AH         LINE#         856
  C:6A8AH         LINE#         857
  C:6A8EH         LINE#         858
  C:6A90H         LINE#         860
  C:6A90H         LINE#         861
  C:6A97H         LINE#         862
  C:6A97H         LINE#         865
  C:6AAFH         LINE#         866
  C:6AB5H         LINE#         867
  C:6AB5H         LINE#         868
  C:6AB9H         LINE#         869
  C:6ABBH         LINE#         871
  C:6ABBH         LINE#         872
  C:6AC2H         LINE#         873
  C:6AC2H         LINE#         876
  C:6ADAH         LINE#         877
  C:6AE0H         LINE#         878
  C:6AE0H         LINE#         879
  C:6AE4H         LINE#         880
  C:6AE6H         LINE#         882
  C:6AE6H         LINE#         883
  C:6AEDH         LINE#         884
  C:6AEDH         LINE#         886
  C:6B05H         LINE#         887
  C:6B0BH         LINE#         888
BL51 BANKED LINKER/LOCATER V6.22.2.0                                                  11/13/2020  15:29:26  PAGE 74


  C:6B0BH         LINE#         889
  C:6B0FH         LINE#         890
  C:6B11H         LINE#         892
  C:6B11H         LINE#         893
  C:6B18H         LINE#         894
  C:6B18H         LINE#         896
  C:6B30H         LINE#         897
  C:6B36H         LINE#         898
  C:6B36H         LINE#         899
  C:6B3AH         LINE#         900
  C:6B3CH         LINE#         902
  C:6B3CH         LINE#         903
  C:6B43H         LINE#         904
  C:6B43H         LINE#         907
  C:6B5BH         LINE#         908
  C:6B61H         LINE#         909
  C:6B61H         LINE#         910
  C:6B65H         LINE#         911
  C:6B67H         LINE#         913
  C:6B67H         LINE#         914
  C:6B6EH         LINE#         915
  C:6B6EH         LINE#         917
  C:6B80H         LINE#         918
  C:6B86H         LINE#         919
  C:6B86H         LINE#         920
  C:6B8AH         LINE#         921
  C:6B8CH         LINE#         923
  C:6B8CH         LINE#         924
  C:6B93H         LINE#         925
  C:6B93H         LINE#         926
  -------         ENDPROC       _VER_HORARIO_DIAS
  -------         PROC          PROG_HORARIOS
  -------         DO            
  X:0046H         SYMBOL        buffer
  X:0050H         SYMBOL        ee_addr_horario
  X:005BH         SYMBOL        addr
  X:005DH         SYMBOL        temp
  X:005FH         SYMBOL        dataee
  X:0060H         SYMBOL        j
  -------         ENDDO         
  C:609FH         LINE#         927
  C:609FH         LINE#         928
  C:609FH         LINE#         937
  C:60ABH         LINE#         941
  C:60B4H         LINE#         942
  C:60BFH         LINE#         944
  C:60CEH         LINE#         948
  C:60E4H         LINE#         949
  C:60EAH         LINE#         953
  C:60F8H         LINE#         954
  C:6100H         LINE#         955
  C:6100H         LINE#         957
  C:610FH         LINE#         958
  C:6123H         LINE#         959
  C:6123H         LINE#         960
  C:6137H         LINE#         961
  C:613FH         LINE#         963
BL51 BANKED LINKER/LOCATER V6.22.2.0                                                  11/13/2020  15:29:26  PAGE 75


  C:614FH         LINE#         966
  C:6152H         LINE#         970
  C:615DH         LINE#         973
  C:6166H         LINE#         974
  C:6171H         LINE#         975
  C:6180H         LINE#         976
  C:6193H         LINE#         978
  C:61ABH         LINE#         979
  C:61C5H         LINE#         980
  C:61CDH         LINE#         981
  C:61CDH         LINE#         983
  C:61DBH         LINE#         984
  C:61E3H         LINE#         985
  C:61E3H         LINE#         986
  C:61E3H         LINE#         988
  -------         ENDPROC       PROG_HORARIOS
  -------         PROC          PROG_VALIDAR_TIPO_VEHICULO_MENSUAL
  -------         DO            
  X:0046H         SYMBOL        buffer
  X:0050H         SYMBOL        dataee
  -------         ENDDO         
  C:7902H         LINE#         989
  C:7902H         LINE#         990
  C:7902H         LINE#         995
  C:7915H         LINE#         996
  C:7932H         LINE#         997
  C:793CH         LINE#         998
  C:793CH         LINE#         999
  C:794FH         LINE#         1000
  C:7951H         LINE#         1002
  C:7951H         LINE#         1003
  C:7968H         LINE#         1004
  C:7968H         LINE#         1006
  C:7971H         LINE#         1007
  C:797CH         LINE#         1008
  C:798DH         LINE#         1009
  C:7997H         LINE#         1011
  C:79AAH         LINE#         1012
  C:79C7H         LINE#         1013
  C:79D1H         LINE#         1014
  C:79D1H         LINE#         1015
  C:79E4H         LINE#         1016
  C:79E6H         LINE#         1018
  C:79E6H         LINE#         1019
  C:79FDH         LINE#         1020
  C:79FDH         LINE#         1021
  -------         ENDPROC       PROG_VALIDAR_TIPO_VEHICULO_MENSUAL
  -------         PROC          PROG_APB_MENSUAL
  -------         DO            
  X:0046H         SYMBOL        buffer
  X:0050H         SYMBOL        dataee
  -------         ENDDO         
  C:79FEH         LINE#         1022
  C:79FEH         LINE#         1023
  C:79FEH         LINE#         1028
  C:7A11H         LINE#         1029
  C:7A2EH         LINE#         1030
BL51 BANKED LINKER/LOCATER V6.22.2.0                                                  11/13/2020  15:29:26  PAGE 76


  C:7A38H         LINE#         1031
  C:7A38H         LINE#         1032
  C:7A4BH         LINE#         1033
  C:7A4DH         LINE#         1035
  C:7A4DH         LINE#         1036
  C:7A64H         LINE#         1037
  C:7A64H         LINE#         1039
  C:7A6DH         LINE#         1040
  C:7A78H         LINE#         1041
  C:7A89H         LINE#         1042
  C:7A93H         LINE#         1044
  C:7AA6H         LINE#         1045
  C:7AC3H         LINE#         1046
  C:7ACDH         LINE#         1047
  C:7ACDH         LINE#         1048
  C:7AE0H         LINE#         1049
  C:7AE2H         LINE#         1051
  C:7AE2H         LINE#         1052
  C:7AF9H         LINE#         1053
  C:7AF9H         LINE#         1054
  -------         ENDPROC       PROG_APB_MENSUAL
  -------         PROC          PROG_FECHA_VENCIMIENTO
  -------         DO            
  X:0046H         SYMBOL        buffer
  X:0051H         SYMBOL        cmd
  X:0054H         SYMBOL        fecha
  X:005BH         SYMBOL        dataee
  -------         ENDDO         
  C:51FEH         LINE#         1056
  C:51FEH         LINE#         1057
  C:51FEH         LINE#         1064
  C:520BH         LINE#         1065
  C:5222H         LINE#         1068
  C:5239H         LINE#         1070
  C:5239H         LINE#         1071
  C:5242H         LINE#         1072
  C:524FH         LINE#         1073
  C:5266H         LINE#         1074
  C:5278H         LINE#         1075
  C:5281H         LINE#         1080
  C:528CH         LINE#         1081
  C:52A0H         LINE#         1082
  C:52ADH         LINE#         1084
  C:52B6H         LINE#         1087
  C:52BFH         LINE#         1088
  C:52CAH         LINE#         1089
  C:52E1H         LINE#         1091
  C:52E9H         LINE#         1092
  C:52F1H         LINE#         1093
  C:52F4H         LINE#         1095
  C:5305H         LINE#         1096
  C:5316H         LINE#         1098
  C:5325H         LINE#         1099
  C:532DH         LINE#         1100
  C:5335H         LINE#         1101
  C:5338H         LINE#         1102
  C:5349H         LINE#         1103
BL51 BANKED LINKER/LOCATER V6.22.2.0                                                  11/13/2020  15:29:26  PAGE 77


  C:535AH         LINE#         1104
  C:5369H         LINE#         1105
  C:5371H         LINE#         1106
  C:5379H         LINE#         1107
  C:537CH         LINE#         1108
  C:538DH         LINE#         1109
  C:539EH         LINE#         1110
  C:53ADH         LINE#         1111
  C:53B8H         LINE#         1113
  C:53C5H         LINE#         1115
  C:53DCH         LINE#         1116
  -------         ENDPROC       PROG_FECHA_VENCIMIENTO
  -------         PROC          VER_HORARIO
  -------         DO            
  X:0059H         SYMBOL        buffer
  X:0063H         SYMBOL        ee_addr_horario
  X:006EH         SYMBOL        conta
  X:006FH         SYMBOL        addr
  X:0071H         SYMBOL        temp
  X:0073H         SYMBOL        dataee
  -------         ENDDO         
  C:66E1H         LINE#         1119
  C:66E1H         LINE#         1120
  C:66E1H         LINE#         1129
  C:66EDH         LINE#         1130
  C:6703H         LINE#         1131
  C:6703H         LINE#         1133
  C:6713H         LINE#         1136
  C:672CH         LINE#         1137
  C:6732H         LINE#         1140
  C:6740H         LINE#         1141
  C:674FH         LINE#         1142
  C:6769H         LINE#         1143
  C:6774H         LINE#         1144
  C:6774H         LINE#         1145
  C:677DH         LINE#         1147
  C:6786H         LINE#         1148
  C:6796H         LINE#         1149
  C:6799H         LINE#         1151
  C:67A4H         LINE#         1152
  C:67BCH         LINE#         1153
  C:67D6H         LINE#         1154
  C:67E0H         LINE#         1155
  C:67E0H         LINE#         1156
  C:67E7H         LINE#         1158
  C:67F5H         LINE#         1159
  C:67FDH         LINE#         1160
  C:67FFH         LINE#         1162
  C:67FFH         LINE#         1163
  C:6803H         LINE#         1164
  C:6803H         LINE#         1165
  C:6805H         LINE#         1167
  C:6805H         LINE#         1168
  C:680EH         LINE#         1169
  C:680EH         LINE#         1171
  C:6817H         LINE#         1174
  -------         ENDPROC       VER_HORARIO
BL51 BANKED LINKER/LOCATER V6.22.2.0                                                  11/13/2020  15:29:26  PAGE 78


  -------         PROC          VER_PROG
  -------         DO            
  X:0046H         SYMBOL        buffer
  X:0050H         SYMBOL        dataee
  X:0052H         SYMBOL        fecha
  -------         ENDDO         
  C:3CFDH         LINE#         1175
  C:3CFDH         LINE#         1176
  C:3CFDH         LINE#         1182
  C:3D0FH         LINE#         1183
  C:3D2CH         LINE#         1185
  C:3D43H         LINE#         1187
  C:3D56H         LINE#         1188
  C:3D73H         LINE#         1190
  C:3D8AH         LINE#         1192
  C:3D9DH         LINE#         1193
  C:3DBAH         LINE#         1194
  C:3DC8H         LINE#         1195
  C:3DC8H         LINE#         1196
  C:3DCCH         LINE#         1197
  C:3DCEH         LINE#         1199
  C:3DCEH         LINE#         1200
  C:3DD5H         LINE#         1201
  C:3DD5H         LINE#         1203
  C:3DE8H         LINE#         1204
  C:3E05H         LINE#         1205
  C:3E11H         LINE#         1206
  C:3E11H         LINE#         1207
  C:3E15H         LINE#         1208
  C:3E17H         LINE#         1210
  C:3E17H         LINE#         1211
  C:3E1EH         LINE#         1212
  C:3E1EH         LINE#         1214
  C:3E31H         LINE#         1215
  C:3E4EH         LINE#         1216
  C:3E5AH         LINE#         1217
  C:3E5AH         LINE#         1218
  C:3E5EH         LINE#         1219
  C:3E60H         LINE#         1221
  C:3E60H         LINE#         1222
  C:3E67H         LINE#         1223
  C:3E67H         LINE#         1225
  C:3E7AH         LINE#         1226
  C:3E97H         LINE#         1227
  C:3EA3H         LINE#         1228
  C:3EA3H         LINE#         1229
  C:3EA7H         LINE#         1230
  C:3EA9H         LINE#         1232
  C:3EA9H         LINE#         1233
  C:3EB0H         LINE#         1234
  C:3EB0H         LINE#         1236
  C:3EC3H         LINE#         1237
  C:3EE0H         LINE#         1238
  C:3EECH         LINE#         1239
  C:3EECH         LINE#         1240
  C:3EF0H         LINE#         1241
  C:3EF2H         LINE#         1243
BL51 BANKED LINKER/LOCATER V6.22.2.0                                                  11/13/2020  15:29:26  PAGE 79


  C:3EF2H         LINE#         1244
  C:3EF9H         LINE#         1245
  C:3EF9H         LINE#         1247
  C:3F0CH         LINE#         1248
  C:3F29H         LINE#         1249
  C:3F35H         LINE#         1250
  C:3F35H         LINE#         1251
  C:3F39H         LINE#         1252
  C:3F3BH         LINE#         1254
  C:3F3BH         LINE#         1255
  C:3F42H         LINE#         1256
  C:3F42H         LINE#         1259
  C:3F55H         LINE#         1260
  C:3F72H         LINE#         1262
  C:3F89H         LINE#         1264
  C:3F8CH         LINE#         1268
  C:3F9FH         LINE#         1269
  C:3FBCH         LINE#         1270
  C:3FC8H         LINE#         1271
  C:3FC8H         LINE#         1272
  C:3FCCH         LINE#         1273
  C:3FCEH         LINE#         1275
  C:3FCEH         LINE#         1276
  C:3FD5H         LINE#         1277
  C:3FD5H         LINE#         1279
  C:3FE8H         LINE#         1280
  C:4005H         LINE#         1281
  C:4011H         LINE#         1282
  C:4011H         LINE#         1283
  C:4015H         LINE#         1284
  C:4017H         LINE#         1286
  C:4017H         LINE#         1287
  C:401EH         LINE#         1288
  C:401EH         LINE#         1290
  C:402BH         LINE#         1292
  C:4042H         LINE#         1293
  -------         ENDPROC       VER_PROG
  -------         PROC          SHOW
  C:96B6H         LINE#         1299
  C:96B6H         LINE#         1300
  C:96B6H         LINE#         1301
  C:96BFH         LINE#         1302
  C:96C8H         LINE#         1303
  C:96D1H         LINE#         1304
  C:96DAH         LINE#         1305
  C:96E3H         LINE#         1306
  C:96ECH         LINE#         1307
  C:96F5H         LINE#         1308
  C:96FEH         LINE#         1309
  C:9707H         LINE#         1310
  C:9710H         LINE#         1311
  C:9719H         LINE#         1312
  C:9722H         LINE#         1313
  C:972BH         LINE#         1314
  C:9734H         LINE#         1315
  C:973DH         LINE#         1316
  C:9746H         LINE#         1317
BL51 BANKED LINKER/LOCATER V6.22.2.0                                                  11/13/2020  15:29:26  PAGE 80


  -------         ENDPROC       SHOW
  -------         PROC          FIRST_CLAVE
  -------         DO            
  X:0046H         SYMBOL        clave
  -------         ENDDO         
  C:AC00H         LINE#         1324
  C:AC00H         LINE#         1325
  C:AC00H         LINE#         1329
  C:AC09H         LINE#         1330
  C:AC0EH         LINE#         1331
  C:AC20H         LINE#         1332
  C:AC2DH         LINE#         1333
  C:AC33H         LINE#         1334
  C:AC36H         LINE#         1335
  C:AC39H         LINE#         1336
  C:AC3BH         LINE#         1338
  -------         ENDPROC       FIRST_CLAVE
  -------         PROC          MENU
  -------         DO            
  X:0001H         SYMBOL        cmd
  X:0004H         SYMBOL        option1
  X:0007H         SYMBOL        option2
  X:000AH         SYMBOL        opt_buffer
  X:0032H         SYMBOL        buffer
  -------         ENDDO         
  C:4BD0H         LINE#         1342
  C:4BD0H         LINE#         1343
  C:4BD0H         LINE#         1352
  C:4BD9H         LINE#         1357
  C:4BE5H         LINE#         1358
  C:4BE5H         LINE#         1359
  C:4BE8H         LINE#         1360
  C:4BF2H         LINE#         1363
  C:4BF2H         LINE#         1365
  C:4BF2H         LINE#         1366
  C:4BFBH         LINE#         1367
  C:4C08H         LINE#         1368
  C:4C0DH         LINE#         1369
  C:4C23H         LINE#         1370
  C:4C35H         LINE#         1371
  C:4C3EH         LINE#         1376
  C:4C49H         LINE#         1377
  C:4C57H         LINE#         1378
  C:4C64H         LINE#         1380
  C:4C6DH         LINE#         1384
  C:4C70H         LINE#         1385
  C:4C70H         LINE#         1386
  C:4C70H         LINE#         1387
  C:4C73H         LINE#         1390
  C:4C7EH         LINE#         1391
  C:4C8CH         LINE#         1392
  C:4CA0H         LINE#         1393
  C:4CB4H         LINE#         1398
  C:4CCAH         LINE#         1399
  C:4CCAH         LINE#         1401
  C:4CD9H         LINE#         1402
  C:4CDBH         LINE#         1403
BL51 BANKED LINKER/LOCATER V6.22.2.0                                                  11/13/2020  15:29:26  PAGE 81


  C:4CEBH         LINE#         1404
  C:4CEBH         LINE#         1406
  C:4CFAH         LINE#         1407
  C:4D18H         LINE#         1408
  C:4D18H         LINE#         1414
  C:4D2BH         LINE#         1415
  C:4D2BH         LINE#         1416
  C:4D74H         LINE#         1417
  C:4D74H         LINE#         1418
  C:4D74H         LINE#         1419
  C:4D77H         LINE#         1421
  C:4D7AH         LINE#         1423
  C:4D7AH         LINE#         1424
  C:4D7DH         LINE#         1425
  C:4D80H         LINE#         1426
  C:4D80H         LINE#         1427
  C:4D83H         LINE#         1428
  C:4D86H         LINE#         1429
  C:4D86H         LINE#         1430
  C:4D89H         LINE#         1431
  C:4D8CH         LINE#         1432
  C:4D8CH         LINE#         1433
  C:4D8FH         LINE#         1434
  C:4D92H         LINE#         1435
  C:4D92H         LINE#         1436
  C:4D95H         LINE#         1437
  C:4D98H         LINE#         1438
  C:4D98H         LINE#         1439
  C:4D9BH         LINE#         1440
  C:4D9EH         LINE#         1441
  C:4D9EH         LINE#         1442
  C:4DA1H         LINE#         1443
  C:4DA4H         LINE#         1444
  C:4DA4H         LINE#         1445
  C:4DA7H         LINE#         1446
  C:4DAAH         LINE#         1447
  C:4DAAH         LINE#         1448
  C:4DADH         LINE#         1449
  C:4DB0H         LINE#         1450
  C:4DB0H         LINE#         1451
  C:4DB3H         LINE#         1452
  C:4DB6H         LINE#         1453
  C:4DB6H         LINE#         1454
  C:4DB9H         LINE#         1455
  C:4DBCH         LINE#         1456
  C:4DBCH         LINE#         1457
  C:4DBFH         LINE#         1458
  C:4DC2H         LINE#         1459
  C:4DC2H         LINE#         1460
  C:4DC5H         LINE#         1461
  C:4DC8H         LINE#         1462
  C:4DC8H         LINE#         1463
  C:4DCBH         LINE#         1464
  C:4DCEH         LINE#         1465
  C:4DCEH         LINE#         1466
  C:4DD1H         LINE#         1467
  C:4DD4H         LINE#         1468
BL51 BANKED LINKER/LOCATER V6.22.2.0                                                  11/13/2020  15:29:26  PAGE 82


  C:4DD4H         LINE#         1470
  C:4DD4H         LINE#         1471
  C:4DD4H         LINE#         1472
  C:4DD7H         LINE#         1473
  C:4DDAH         LINE#         1476
  C:4DDAH         LINE#         1477
  C:4DF8H         LINE#         1478
  C:4DFBH         LINE#         1479
  C:4DFBH         LINE#         1480
  C:4DFBH         LINE#         1481
  C:4DFBH         LINE#         1482
  -------         ENDPROC       MENU
  -------         ENDMOD        PROG

  -------         MODULE        PTO_PARALELO
  C:0000H         SYMBOL        _ICE_DUMMY_
  D:0080H         PUBLIC        P0
  D:00A0H         PUBLIC        P2
  D:00B0H         PUBLIC        P3
  B:0080H.2       PUBLIC        led_err_imp
  C:6B94H         PUBLIC        load_and_send_id_cod
  C:974FH         PUBLIC        _recibe_port
  B:00B0H.2       PUBLIC        ready
  B:0080H.6       PUBLIC        rx_in_data
  C:B6FCH         PUBLIC        Pulso_Bus
  C:9E12H         PUBLIC        _send_portERR
  B:00B0H.3       PUBLIC        busy
  C:B3DFH         PUBLIC        load_and_send_info_reloj
  C:8FA7H         PUBLIC        _send_port
  B:00B0H.4       PUBLIC        port_clk
  C:B76DH         PUBLIC        cond_ini_pto
  -------         PROC          _RECIBE_PORT
  X:0001H         SYMBOL        buffer_port
  -------         DO            
  D:0006H         SYMBOL        count
  X:0004H         SYMBOL        time_out
  X:0005H         SYMBOL        num_data
  X:0006H         SYMBOL        T_ANCHO
  X:0008H         SYMBOL        data_temp
  -------         ENDDO         
  C:974FH         LINE#         48
  C:975AH         LINE#         49
  C:975AH         LINE#         53
  C:9763H         LINE#         54
  C:9766H         LINE#         57
  C:9769H         LINE#         58
  C:9769H         LINE#         60
  C:976CH         LINE#         61
  C:9771H         LINE#         62
  C:9773H         LINE#         63
  C:9777H         LINE#         64
  C:9779H         LINE#         67
  C:977EH         LINE#         68
  C:9787H         LINE#         69
  C:9787H         LINE#         70
  C:978AH         LINE#         71
  C:978AH         LINE#         73
BL51 BANKED LINKER/LOCATER V6.22.2.0                                                  11/13/2020  15:29:26  PAGE 83


  C:978FH         LINE#         74
  C:9793H         LINE#         75
  C:9793H         LINE#         76
  C:9795H         LINE#         77
  C:9797H         LINE#         78
  C:9797H         LINE#         79
  C:9797H         LINE#         81
  C:9797H         LINE#         82
  C:97A4H         LINE#         83
  C:97A4H         LINE#         85
  C:97A7H         LINE#         86
  C:97A7H         LINE#         88
  C:97ADH         LINE#         90
  C:97AFH         LINE#         91
  C:97C3H         LINE#         92
  C:97CDH         LINE#         93
  C:97D3H         LINE#         94
  C:97D9H         LINE#         95
  C:97DBH         LINE#         96
  C:97DBH         LINE#         97
  C:97DBH         LINE#         98
  C:97DBH         LINE#         101
  C:97DDH         LINE#         102
  C:97DFH         LINE#         103
  C:97DFH         LINE#         104
  C:97E2H         LINE#         106
  C:97E7H         LINE#         107
  -------         ENDPROC       _RECIBE_PORT
  -------         PROC          _SEND_PORT
  X:0015H         SYMBOL        buffer_port
  X:0018H         SYMBOL        length_char
  -------         DO            
  X:0019H         SYMBOL        cont
  X:001DH         SYMBOL        timeOut
  X:001EH         SYMBOL        length
  -------         ENDDO         
  C:8FA7H         LINE#         114
  C:8FB5H         LINE#         115
  C:8FB5H         LINE#         120
  C:8FB9H         LINE#         122
  C:8FBBH         LINE#         123
  C:8FBDH         LINE#         124
  C:8FBFH         LINE#         125
  C:8FC4H         LINE#         126
  C:8FC6H         LINE#         127
  C:8FD0H         LINE#         129
  C:8FD9H         LINE#         130
  C:8FD9H         LINE#         131
  C:8FDBH         LINE#         132
  C:8FDDH         LINE#         133
  C:9001H         LINE#         134
  C:9015H         LINE#         135
  C:9015H         LINE#         136
  C:9018H         LINE#         137
  C:901AH         LINE#         138
  C:901AH         LINE#         139
  C:901CH         LINE#         140
BL51 BANKED LINKER/LOCATER V6.22.2.0                                                  11/13/2020  15:29:26  PAGE 84


  C:9025H         LINE#         141
  C:9025H         LINE#         145
  C:9025H         LINE#         147
  C:9035H         LINE#         148
  C:9038H         LINE#         149
  C:9042H         LINE#         151
  C:9048H         LINE#         152
  C:904BH         LINE#         154
  C:904BH         LINE#         156
  C:904EH         LINE#         157
  C:9050H         LINE#         158
  C:9052H         LINE#         159
  C:9054H         LINE#         160
  -------         ENDPROC       _SEND_PORT
  -------         PROC          PULSO_BUS
  C:B6FCH         LINE#         435
  C:B6FCH         LINE#         436
  C:B6FCH         LINE#         437
  C:B6FEH         LINE#         438
  C:B705H         LINE#         439
  C:B707H         LINE#         440
  -------         ENDPROC       PULSO_BUS
  -------         PROC          _SEND_PORTERR
  X:002AH         SYMBOL        cod_err
  -------         DO            
  X:002BH         SYMBOL        timeOut
  X:002CH         SYMBOL        cont
  -------         ENDDO         
  C:9E12H         LINE#         445
  C:9E18H         LINE#         446
  C:9E18H         LINE#         450
  C:9E1AH         LINE#         451
  C:9E1CH         LINE#         452
  C:9E1FH         LINE#         453
  C:9E27H         LINE#         455
  C:9E29H         LINE#         456
  C:9E2BH         LINE#         457
  C:9E34H         LINE#         458
  C:9E34H         LINE#         459
  C:9E56H         LINE#         460
  C:9E6AH         LINE#         461
  C:9E6AH         LINE#         462
  C:9E6FH         LINE#         463
  C:9E6FH         LINE#         464
  C:9E71H         LINE#         465
  C:9E7AH         LINE#         466
  C:9E7AH         LINE#         467
  C:9E80H         LINE#         468
  C:9E83H         LINE#         469
  C:9E83H         LINE#         470
  C:9E85H         LINE#         471
  C:9E87H         LINE#         472
  C:9E89H         LINE#         474
  C:9E8CH         LINE#         476
  C:9E93H         LINE#         477
  -------         ENDPROC       _SEND_PORTERR
  -------         PROC          COND_INI_PTO
BL51 BANKED LINKER/LOCATER V6.22.2.0                                                  11/13/2020  15:29:26  PAGE 85


  C:B76DH         LINE#         483
  C:B76DH         LINE#         484
  C:B76DH         LINE#         486
  C:B76FH         LINE#         487
  C:B771H         LINE#         488
  C:B773H         LINE#         489
  C:B776H         LINE#         490
  -------         ENDPROC       COND_INI_PTO
  -------         PROC          LOAD_AND_SEND_INFO_RELOJ
  -------         DO            
  X:0002H         SYMBOL        buffer_info
  -------         ENDDO         
  C:B3DFH         LINE#         495
  C:B3DFH         LINE#         496
  C:B3DFH         LINE#         499
  C:B3E5H         LINE#         501
  C:B3E9H         LINE#         503
  C:B3F2H         LINE#         504
  C:B3FCH         LINE#         505
  C:B400H         LINE#         509
  -------         ENDPROC       LOAD_AND_SEND_INFO_RELOJ
  -------         PROC          LOAD_AND_SEND_ID_COD
  -------         DO            
  X:0002H         SYMBOL        buffer_info
  X:000DH         SYMBOL        buf
  X:0011H         SYMBOL        i
  X:0012H         SYMBOL        k
  X:0013H         SYMBOL        ID_CLIENTE
  X:0014H         SYMBOL        COD_PARK
  -------         ENDDO         
  C:6B94H         LINE#         516
  C:6B94H         LINE#         517
  C:6B94H         LINE#         523
  C:6B99H         LINE#         524
  C:6BA5H         LINE#         525
  C:6BB3H         LINE#         526
  C:6BB9H         LINE#         527
  C:6BBDH         LINE#         528
  C:6BDCH         LINE#         529
  C:6BE2H         LINE#         530
  C:6BE2H         LINE#         531
  C:6BF3H         LINE#         532
  C:6BF3H         LINE#         533
  C:6C02H         LINE#         534
  C:6C08H         LINE#         535
  C:6C0AH         LINE#         536
  C:6C22H         LINE#         538
  C:6C2AH         LINE#         541
  C:6C49H         LINE#         543
  C:6C4EH         LINE#         544
  C:6C4EH         LINE#         545
  C:6C5FH         LINE#         546
  C:6C5FH         LINE#         547
  C:6C6EH         LINE#         548
  C:6C74H         LINE#         549
  C:6C8EH         LINE#         550
  C:6C96H         LINE#         553
BL51 BANKED LINKER/LOCATER V6.22.2.0                                                  11/13/2020  15:29:26  PAGE 86


  C:6CA7H         LINE#         554
  -------         ENDPROC       LOAD_AND_SEND_ID_COD
  -------         ENDMOD        PTO_PARALELO

  -------         MODULE        TIBBO
  C:0000H         SYMBOL        _ICE_DUMMY_
  C:AD62H         PUBLIC        _Debug_HexDec
  C:ABC2H         PUBLIC        _Debug_txt_Tibbo
  D:0080H         PUBLIC        P0
  D:0090H         PUBLIC        P1
  B:0090H.0       PUBLIC        txd2
  B:00A8H.7       PUBLIC        EA
  C:AB6FH         PUBLIC        _tx_aux
  B:0080H.0       PUBLIC        rx_ip
  C:B6A9H         PUBLIC        Debug_Dividir_texto
  C:B7D1H         PUBLIC        cond_ini_tibbo
  C:B671H         PUBLIC        time_mbit
  C:9E9AH         PUBLIC        rx_Data
  C:B5F0H         PUBLIC        time_bit
  C:B162H         PUBLIC        _Debug_pto_paralelo
  C:B31EH         PUBLIC        _Debug_monitor
  C:A529H         PUBLIC        _DebugBufferMF
  C:AC48H         PUBLIC        _Debug_chr_Tibbo
  C:B5EAH         SYMBOL        L?0066
  -------         PROC          L?0065
  -------         ENDPROC       L?0065
  C:B5EAH         SYMBOL        L?0066
  -------         PROC          TIME_BIT
  -------         DO            
  D:0007H         SYMBOL        j
  -------         ENDDO         
  C:B5F0H         LINE#         19
  C:B5F0H         LINE#         20
  C:B5F0H         LINE#         23
  C:B5FCH         LINE#         24
  C:B5FCH         LINE#         25
  C:B5FDH         LINE#         26
  C:B5FEH         LINE#         27
  C:B5FFH         LINE#         28
  C:B600H         LINE#         29
  C:B601H         LINE#         30
  C:B602H         LINE#         31
  C:B603H         LINE#         32
  C:B604H         LINE#         33
  C:B605H         LINE#         38
  C:B608H         LINE#         39
  -------         ENDPROC       TIME_BIT
  -------         PROC          TIME_MBIT
  -------         DO            
  D:0007H         SYMBOL        j
  -------         ENDDO         
  C:B671H         LINE#         42
  C:B671H         LINE#         43
  C:B671H         LINE#         45
  C:B67DH         LINE#         46
  C:B67DH         LINE#         47
  C:B67EH         LINE#         48
BL51 BANKED LINKER/LOCATER V6.22.2.0                                                  11/13/2020  15:29:26  PAGE 87


  C:B67FH         LINE#         49
  C:B680H         LINE#         50
  C:B681H         LINE#         51
  C:B682H         LINE#         52
  C:B683H         LINE#         53
  C:B684H         LINE#         54
  C:B687H         LINE#         56
  -------         ENDPROC       TIME_MBIT
  -------         PROC          L?0070
  -------         ENDPROC       L?0070
  -------         PROC          _TX_AUX
  D:0006H         SYMBOL        caracter
  -------         DO            
  D:0004H         SYMBOL        j
  D:0005H         SYMBOL        temporal
  D:0006H         SYMBOL        bitTX
  -------         ENDDO         
  C:AB6FH         LINE#         61
  C:AB71H         LINE#         62
  C:AB71H         LINE#         65
  C:AB73H         LINE#         66
  C:AB75H         LINE#         67
  C:AB78H         LINE#         68
  C:AB79H         LINE#         69
  C:AB7AH         LINE#         70
  C:AB7CH         LINE#         71
  C:AB80H         LINE#         72
  C:AB82H         LINE#         73
  C:AB82H         LINE#         74
  C:AB84H         LINE#         75
  C:AB86H         LINE#         77
  C:AB86H         LINE#         78
  C:AB88H         LINE#         79
  C:AB88H         LINE#         80
  C:AB8BH         LINE#         81
  C:AB97H         LINE#         82
  C:AB97H         LINE#         83
  C:AB9BH         LINE#         84
  C:AB9EH         LINE#         85
  C:ABA0H         LINE#         86
  C:ABA0H         LINE#         87
  C:ABA2H         LINE#         88
  C:ABA4H         LINE#         90
  C:ABA4H         LINE#         91
  C:ABA6H         LINE#         92
  C:ABA6H         LINE#         93
  C:ABA9H         LINE#         94
  C:ABACH         LINE#         95
  C:ABAEH         LINE#         96
  C:ABB1H         LINE#         97
  C:ABB4H         LINE#         99
  C:ABB6H         LINE#         100
  -------         ENDPROC       _TX_AUX
  -------         PROC          _DEBUG_HEXDEC
  D:0007H         SYMBOL        xfc
  -------         DO            
  X:0018H         SYMBOL        valor
BL51 BANKED LINKER/LOCATER V6.22.2.0                                                  11/13/2020  15:29:26  PAGE 88


  D:0006H         SYMBOL        centena
  D:0003H         SYMBOL        decena
  D:0002H         SYMBOL        unidad
  -------         ENDDO         
  C:AD62H         LINE#         103
  C:AD62H         LINE#         104
  C:AD62H         LINE#         107
  C:AD69H         LINE#         109
  C:AD6AH         LINE#         110
  C:AD6BH         LINE#         111
  C:AD6CH         LINE#         112
  C:AD74H         LINE#         113
  C:AD74H         LINE#         114
  C:AD7EH         LINE#         115
  C:AD7EH         LINE#         116
  C:AD82H         LINE#         117
  C:AD83H         LINE#         118
  C:AD85H         LINE#         119
  C:AD8FH         LINE#         120
  C:AD8FH         LINE#         121
  C:AD93H         LINE#         122
  C:AD94H         LINE#         123
  C:AD96H         LINE#         124
  C:AD98H         LINE#         125
  C:AD9CH         LINE#         126
  C:ADA0H         LINE#         127
  C:ADA7H         LINE#         129
  C:ADA7H         LINE#         130
  -------         ENDPROC       _DEBUG_HEXDEC
  -------         PROC          _DEBUG_CHR_TIBBO
  D:0003H         SYMBOL        Dat
  -------         DO            
  D:0007H         SYMBOL        temp
  -------         ENDDO         
  C:AC48H         LINE#         135
  C:AC4AH         LINE#         136
  C:AC4AH         LINE#         138
  C:AC52H         LINE#         139
  C:AC52H         LINE#         140
  C:AC59H         LINE#         141
  C:AC6CH         LINE#         143
  C:AC6FH         LINE#         145
  C:AC73H         LINE#         146
  C:AC86H         LINE#         147
  C:AC89H         LINE#         148
  C:AC8EH         LINE#         150
  C:AC8EH         LINE#         151
  -------         ENDPROC       _DEBUG_CHR_TIBBO
  -------         PROC          _DEBUGBUFFERMF
  X:0027H         SYMBOL        str
  X:002AH         SYMBOL        num_char
  X:002BH         SYMBOL        io
  -------         DO            
  X:002CH         SYMBOL        j
  -------         ENDDO         
  C:A529H         LINE#         158
  C:A537H         LINE#         159
BL51 BANKED LINKER/LOCATER V6.22.2.0                                                  11/13/2020  15:29:26  PAGE 89


  C:A537H         LINE#         163
  C:A53FH         LINE#         164
  C:A53FH         LINE#         165
  C:A54EH         LINE#         166
  C:A54EH         LINE#         167
  C:A552H         LINE#         168
  C:A55BH         LINE#         169
  C:A56DH         LINE#         170
  C:A56DH         LINE#         171
  C:A57FH         LINE#         172
  C:A589H         LINE#         173
  C:A591H         LINE#         174
  C:A596H         LINE#         175
  C:A59BH         LINE#         176
  C:A59BH         LINE#         178
  -------         ENDPROC       _DEBUGBUFFERMF
  C:ABBCH         SYMBOL        L?0068
  -------         PROC          L?0067
  -------         ENDPROC       L?0067
  C:ABBCH         SYMBOL        L?0068
  -------         PROC          _DEBUG_TXT_TIBBO
  X:0037H         SYMBOL        str
  -------         DO            
  X:003AH         SYMBOL        i
  -------         ENDDO         
  C:ABC2H         LINE#         183
  C:ABCDH         LINE#         184
  C:ABCDH         LINE#         186
  C:ABD0H         LINE#         188
  C:ABD8H         LINE#         189
  C:ABD8H         LINE#         190
  C:ABF4H         LINE#         191
  C:ABF4H         LINE#         192
  C:ABF7H         LINE#         193
  C:ABFFH         LINE#         195
  C:ABFFH         LINE#         196
  -------         ENDPROC       _DEBUG_TXT_TIBBO
  -------         PROC          L?0069
  -------         ENDPROC       L?0069
  -------         PROC          DEBUG_DIVIDIR_TEXTO
  C:B6A9H         LINE#         198
  C:B6A9H         LINE#         199
  C:B6A9H         LINE#         200
  -------         ENDPROC       DEBUG_DIVIDIR_TEXTO
  -------         PROC          RX_DATA
  -------         DO            
  D:0006H         SYMBOL        temporal
  -------         ENDDO         
  C:9E9AH         LINE#         206
  C:9E9AH         LINE#         207
  C:9E9AH         LINE#         210
  C:9E9CH         LINE#         211
  C:9E9FH         LINE#         213
  C:9EA2H         LINE#         215
  C:9EAEH         LINE#         216
  C:9EAEH         LINE#         218
  C:9EB1H         LINE#         220
BL51 BANKED LINKER/LOCATER V6.22.2.0                                                  11/13/2020  15:29:26  PAGE 90


  C:9EBDH         LINE#         221
  C:9EBDH         LINE#         223
  C:9EC0H         LINE#         225
  C:9ECCH         LINE#         226
  C:9ECCH         LINE#         228
  C:9ECFH         LINE#         230
  C:9EDBH         LINE#         231
  C:9EDBH         LINE#         233
  C:9EDEH         LINE#         235
  C:9EEAH         LINE#         236
  C:9EEAH         LINE#         238
  C:9EEDH         LINE#         240
  C:9EF9H         LINE#         241
  C:9EF9H         LINE#         243
  C:9EFCH         LINE#         245
  C:9F08H         LINE#         246
  C:9F08H         LINE#         248
  C:9F0BH         LINE#         249
  C:9F19H         LINE#         251
  C:9F1CH         LINE#         252
  C:9F1FH         LINE#         253
  C:9F1FH         LINE#         254
  C:9F1FH         LINE#         257
  C:9F21H         LINE#         259
  -------         ENDPROC       RX_DATA
  -------         PROC          COND_INI_TIBBO
  C:B7D1H         LINE#         277
  C:B7D1H         LINE#         278
  C:B7D1H         LINE#         280
  C:B7D3H         LINE#         281
  C:B7D5H         LINE#         282
  -------         ENDPROC       COND_INI_TIBBO
  -------         PROC          _DEBUG_PTO_PARALELO
  X:0001H         SYMBOL        buffer
  X:0004H         SYMBOL        Length_trama
  C:B162H         LINE#         283
  C:B165H         LINE#         284
  C:B165H         LINE#         285
  C:B168H         LINE#         286
  C:B171H         LINE#         287
  C:B188H         LINE#         288
  C:B18BH         LINE#         289
  C:B194H         LINE#         290
  C:B197H         LINE#         291
  C:B19AH         LINE#         292
  -------         ENDPROC       _DEBUG_PTO_PARALELO
  -------         PROC          _DEBUG_MONITOR
  X:0016H         SYMBOL        buffer
  X:0019H         SYMBOL        Length_trama
  C:B31EH         LINE#         295
  C:B321H         LINE#         296
  C:B321H         LINE#         297
  C:B324H         LINE#         298
  C:B32DH         LINE#         299
  C:B33BH         LINE#         300
  C:B33EH         LINE#         301
  C:B347H         LINE#         302
BL51 BANKED LINKER/LOCATER V6.22.2.0                                                  11/13/2020  15:29:26  PAGE 91


  C:B34AH         LINE#         303
  C:B34DH         LINE#         304
  -------         ENDPROC       _DEBUG_MONITOR
  -------         ENDMOD        TIBBO

  -------         MODULE        UART
  C:0000H         SYMBOL        _ICE_DUMMY_
  C:B4D4H         PUBLIC        com_getchar
  C:B70EH         PUBLIC        com_rbuflen
  C:B720H         PUBLIC        com_tbuflen
  B:00A8H.4       PUBLIC        ES
  B:0098H.0       PUBLIC        RI
  C:B19DH         PUBLIC        _com_putchar
  B:0098H.1       PUBLIC        TI
  B:0021H.4       PUBLIC        aSk
  B:00B8H.4       PUBLIC        PS
  D:000DH         SYMBOL        r_in
  D:000EH         SYMBOL        r_out
  D:000FH         SYMBOL        t_in
  D:0010H         SYMBOL        t_out
  D:0099H         PUBLIC        SBUF
  D:0087H         PUBLIC        PCON
  D:0089H         PUBLIC        TMOD
  B:0021H.5       SYMBOL        ti_restart
  B:00A8H.3       PUBLIC        ET1
  D:008DH         PUBLIC        TH1
  B:0098H.7       PUBLIC        SM0
  B:0098H.6       PUBLIC        SM1
  D:008BH         PUBLIC        TL1
  B:0098H.5       PUBLIC        SM2
  B:0088H.6       PUBLIC        TR1
  C:B40BH         PUBLIC        com_initialize
  X:0263H         PUBLIC        cnt__ask_off
  B:0098H.4       PUBLIC        REN
  C:B45DH         PUBLIC        com_baudrate
  C:55D2H         SYMBOL        com_isr
  -------         PROC          COM_ISR
  -------         DO            
  X:0261H         SYMBOL        cDatoRx
  D:0006H         SYMBOL        k
  D:0007H         SYMBOL        bcc
  X:0262H         SYMBOL        num_datos
  -------         ENDDO         
  C:55D2H         LINE#         96
  C:55E7H         LINE#         104
  C:55EDH         LINE#         105
  C:55EDH         LINE#         107
  C:55EFH         LINE#         108
  C:55F5H         LINE#         109
  C:5605H         LINE#         110
  C:5605H         LINE#         111
  C:5610H         LINE#         112
  C:5612H         LINE#         114
  C:5612H         LINE#         115
  C:5622H         LINE#         116
  C:5622H         LINE#         117
  C:5627H         LINE#         118
BL51 BANKED LINKER/LOCATER V6.22.2.0                                                  11/13/2020  15:29:26  PAGE 92


  C:5627H         LINE#         119
  C:563EH         LINE#         120
  C:563EH         LINE#         124
  C:563EH         LINE#         127
  C:564DH         LINE#         128
  C:564DH         LINE#         129
  C:564FH         LINE#         130
  C:5657H         LINE#         131
  C:565CH         LINE#         133
  C:565CH         LINE#         134
  C:565FH         LINE#         138
  C:565FH         LINE#         139
  C:565FH         LINE#         140
  C:5677H         LINE#         141
  C:5686H         LINE#         142
  C:5686H         LINE#         143
  C:5686H         LINE#         144
  C:5688H         LINE#         146
  C:5688H         LINE#         147
  C:568AH         LINE#         148
  C:568AH         LINE#         149
  C:568AH         LINE#         150
  C:568DH         LINE#         154
  C:568DH         LINE#         156
  C:5696H         LINE#         157
  C:5696H         LINE#         159
  C:569CH         LINE#         160
  C:56AFH         LINE#         161
  C:56AFH         LINE#         162
  C:56B2H         LINE#         164
  C:56B2H         LINE#         165
  C:56C7H         LINE#         166
  C:56CDH         LINE#         167
  C:56CDH         LINE#         169
  C:56D0H         LINE#         173
  C:56D0H         LINE#         175
  C:56E8H         LINE#         176
  C:56EEH         LINE#         177
  C:56F1H         LINE#         178
  C:56F1H         LINE#         179
  C:5709H         LINE#         180
  C:5709H         LINE#         181
  C:570AH         LINE#         182
  C:5717H         LINE#         183
  C:5717H         LINE#         184
  C:5724H         LINE#         185
  C:5727H         LINE#         186
  C:5735H         LINE#         187
  C:5735H         LINE#         188
  C:5737H         LINE#         189
  C:573CH         LINE#         190
  C:573EH         LINE#         191
  C:5742H         LINE#         193
  C:5744H         LINE#         195
  C:5744H         LINE#         196
  C:5744H         LINE#         197
  C:5744H         LINE#         198
BL51 BANKED LINKER/LOCATER V6.22.2.0                                                  11/13/2020  15:29:26  PAGE 93


  C:5746H         LINE#         200
  C:5746H         LINE#         201
  C:5746H         LINE#         202
  C:5746H         LINE#         204
  C:5748H         LINE#         206
  C:5748H         LINE#         207
  C:574EH         LINE#         208
  C:574EH         LINE#         210
  C:5750H         LINE#         215
  C:5750H         LINE#         216
  C:5755H         LINE#         217
  C:5755H         LINE#         218
  C:5755H         LINE#         219
  C:5755H         LINE#         224
  C:5758H         LINE#         225
  C:5758H         LINE#         226
  C:575AH         LINE#         228
  C:5760H         LINE#         229
  C:5760H         LINE#         230
  C:576AH         LINE#         232
  C:576CH         LINE#         233
  C:576EH         LINE#         234
  C:5770H         LINE#         236
  C:5770H         LINE#         237
  C:5772H         LINE#         238
  C:5772H         LINE#         239
  C:5772H         LINE#         241
  -------         ENDPROC       COM_ISR
  -------         PROC          COM_INITIALIZE
  C:B40BH         LINE#         257
  C:B412H         LINE#         258
  C:B412H         LINE#         262
  C:B415H         LINE#         267
  C:B418H         LINE#         268
  C:B41AH         LINE#         270
  C:B41CH         LINE#         271
  C:B41EH         LINE#         276
  C:B422H         LINE#         277
  C:B424H         LINE#         278
  C:B426H         LINE#         280
  C:B428H         LINE#         281
  C:B42AH         LINE#         282
  C:B42CH         LINE#         284
  C:B42EH         LINE#         285
  C:B430H         LINE#         286
  -------         ENDPROC       COM_INITIALIZE
  -------         PROC          COM_BAUDRATE
  C:B45DH         LINE#         292
  C:B464H         LINE#         294
  C:B464H         LINE#         298
  C:B466H         LINE#         299
  C:B469H         LINE#         300
  C:B46BH         LINE#         305
  C:B46DH         LINE#         306
  C:B46FH         LINE#         308
  C:B472H         LINE#         310
  C:B475H         LINE#         311
BL51 BANKED LINKER/LOCATER V6.22.2.0                                                  11/13/2020  15:29:26  PAGE 94


  C:B478H         LINE#         313
  C:B47BH         LINE#         314
  C:B47EH         LINE#         315
  C:B480H         LINE#         316
  -------         ENDPROC       COM_BAUDRATE
  -------         PROC          _COM_PUTCHAR
  X:00AAH         SYMBOL        c
  C:B19DH         LINE#         322
  C:B1A9H         LINE#         323
  C:B1A9H         LINE#         327
  C:B1B6H         LINE#         328
  C:B1BAH         LINE#         334
  C:B1C8H         LINE#         336
  C:B1CAH         LINE#         338
  C:B1CDH         LINE#         339
  C:B1CDH         LINE#         340
  C:B1CFH         LINE#         341
  C:B1D1H         LINE#         342
  C:B1D1H         LINE#         344
  C:B1D3H         LINE#         345
  -------         ENDPROC       _COM_PUTCHAR
  -------         PROC          COM_GETCHAR
  C:B4D4H         LINE#         351
  C:B4DBH         LINE#         352
  C:B4DBH         LINE#         353
  C:B4E1H         LINE#         354
  C:B4E7H         LINE#         356
  C:B4F5H         LINE#         357
  -------         ENDPROC       COM_GETCHAR
  -------         PROC          COM_RBUFLEN
  C:B70EH         LINE#         363
  C:B715H         LINE#         364
  C:B715H         LINE#         365
  C:B71BH         LINE#         366
  -------         ENDPROC       COM_RBUFLEN
  -------         PROC          COM_TBUFLEN
  C:B720H         LINE#         372
  C:B727H         LINE#         373
  C:B727H         LINE#         374
  C:B72DH         LINE#         375
  -------         ENDPROC       COM_TBUFLEN
  -------         ENDMOD        UART

  -------         MODULE        LINTECH
  C:0000H         SYMBOL        _ICE_DUMMY_
  C:9449H         PUBLIC        _Inicializa
  C:8845H         PUBLIC        _RD_MF
  C:91B1H         PUBLIC        Dwload_EEprom
  C:9911H         PUBLIC        _Card_Insercion
  C:7BEBH         PUBLIC        _Mov_Card
  C:7316H         PUBLIC        _WR_MF
  C:9C70H         PUBLIC        LoadVerify_EEprom
  C:9F22H         PUBLIC        Unique_Identifier_UID
  C:A337H         PUBLIC        Power_off
  C:9FAAH         PUBLIC        _Check_Status
  C:9107H         PUBLIC        Clave_Seguridad_S2
  C:A2B7H         PUBLIC        Aut_Card_check_Status
BL51 BANKED LINKER/LOCATER V6.22.2.0                                                  11/13/2020  15:29:26  PAGE 95


  -------         PROC          _INICIALIZA
  X:0002H         SYMBOL        TipoMovimiento
  -------         DO            
  D:0003H         SYMBOL        j
  X:0003H         SYMBOL        bcc
  X:0004H         SYMBOL        g_scArrTxComSoft
  -------         ENDDO         
  C:9449H         LINE#         68
  C:944EH         LINE#         69
  C:944EH         LINE#         72
  C:9451H         LINE#         73
  C:9467H         LINE#         74
  C:9467H         LINE#         76
  C:9470H         LINE#         78
  C:9476H         LINE#         79
  C:9479H         LINE#         80
  C:947BH         LINE#         81
  C:947FH         LINE#         82
  C:9483H         LINE#         83
  C:9487H         LINE#         84
  C:948FH         LINE#         85
  C:9493H         LINE#         86
  C:949FH         LINE#         87
  C:949FH         LINE#         88
  C:94B3H         LINE#         89
  C:94B6H         LINE#         90
  C:94BEH         LINE#         91
  C:94C0H         LINE#         92
  C:94C5H         LINE#         93
  C:94D4H         LINE#         94
  C:94DFH         LINE#         95
  C:94E5H         LINE#         96
  C:94E5H         LINE#         97
  -------         ENDPROC       _INICIALIZA
  -------         PROC          _CHECK_STATUS
  X:0002H         SYMBOL        Detalle
  -------         DO            
  D:0006H         SYMBOL        j
  D:0007H         SYMBOL        bcc
  X:0003H         SYMBOL        g_scArrTxComSoft
  -------         ENDDO         
  C:9FAAH         LINE#         109
  C:9FAFH         LINE#         110
  C:9FAFH         LINE#         114
  C:9FB5H         LINE#         115
  C:9FB5H         LINE#         116
  C:9FB9H         LINE#         117
  C:9FBBH         LINE#         119
  C:9FBBH         LINE#         120
  C:9FC2H         LINE#         121
  C:9FC2H         LINE#         122
  C:9FC4H         LINE#         124
  C:9FCAH         LINE#         125
  C:9FCDH         LINE#         126
  C:9FCFH         LINE#         127
  C:9FD3H         LINE#         128
  C:9FD7H         LINE#         129
BL51 BANKED LINKER/LOCATER V6.22.2.0                                                  11/13/2020  15:29:26  PAGE 96


  C:9FDBH         LINE#         130
  C:9FE3H         LINE#         131
  C:9FE7H         LINE#         132
  C:9FF3H         LINE#         133
  C:9FF3H         LINE#         134
  C:A000H         LINE#         135
  C:A003H         LINE#         136
  C:A008H         LINE#         137
  C:A00AH         LINE#         138
  C:A00FH         LINE#         139
  C:A01EH         LINE#         140
  C:A029H         LINE#         141
  C:A02FH         LINE#         142
  -------         ENDPROC       _CHECK_STATUS
  -------         PROC          _CARD_INSERCION
  D:0007H         SYMBOL        Tipo
  -------         DO            
  D:0006H         SYMBOL        j
  D:0007H         SYMBOL        bcc
  X:0002H         SYMBOL        g_scArrTxComSoft
  -------         ENDDO         
  C:9911H         LINE#         152
  C:9911H         LINE#         153
  C:9911H         LINE#         156
  C:991EH         LINE#         157
  C:991EH         LINE#         158
  C:9925H         LINE#         159
  C:992BH         LINE#         160
  C:992DH         LINE#         162
  C:992DH         LINE#         164
  C:9934H         LINE#         165
  C:993AH         LINE#         167
  C:993AH         LINE#         169
  C:993CH         LINE#         171
  C:9942H         LINE#         172
  C:9945H         LINE#         173
  C:9947H         LINE#         174
  C:994BH         LINE#         175
  C:994FH         LINE#         176
  C:9953H         LINE#         178
  C:9959H         LINE#         179
  C:9965H         LINE#         180
  C:9965H         LINE#         181
  C:9972H         LINE#         182
  C:9975H         LINE#         184
  C:997AH         LINE#         186
  C:997CH         LINE#         187
  C:9981H         LINE#         188
  C:9990H         LINE#         189
  C:999BH         LINE#         190
  C:99A1H         LINE#         191
  -------         ENDPROC       _CARD_INSERCION
  -------         PROC          _MOV_CARD
  X:0002H         SYMBOL        Posicion
  -------         DO            
  D:0003H         SYMBOL        j
  X:0003H         SYMBOL        bcc
BL51 BANKED LINKER/LOCATER V6.22.2.0                                                  11/13/2020  15:29:26  PAGE 97


  X:0004H         SYMBOL        g_scArrTxComSoft
  -------         ENDDO         
  C:7BEBH         LINE#         202
  C:7BF0H         LINE#         203
  C:7BF0H         LINE#         206
  C:7BF3H         LINE#         208
  C:7C13H         LINE#         209
  C:7C13H         LINE#         210
  C:7C1AH         LINE#         211
  C:7C1AH         LINE#         212
  C:7C20H         LINE#         213
  C:7C22H         LINE#         214
  C:7C29H         LINE#         215
  C:7C29H         LINE#         216
  C:7C2FH         LINE#         217
  C:7C31H         LINE#         218
  C:7C38H         LINE#         219
  C:7C38H         LINE#         220
  C:7C3EH         LINE#         221
  C:7C40H         LINE#         222
  C:7C47H         LINE#         223
  C:7C47H         LINE#         224
  C:7C4DH         LINE#         225
  C:7C4FH         LINE#         226
  C:7C56H         LINE#         227
  C:7C56H         LINE#         228
  C:7C5FH         LINE#         229
  C:7C5FH         LINE#         231
  C:7C65H         LINE#         232
  C:7C68H         LINE#         233
  C:7C6AH         LINE#         234
  C:7C6EH         LINE#         235
  C:7C72H         LINE#         236
  C:7C76H         LINE#         237
  C:7C7EH         LINE#         238
  C:7C82H         LINE#         239
  C:7C8EH         LINE#         240
  C:7C8EH         LINE#         241
  C:7CA2H         LINE#         242
  C:7CA5H         LINE#         243
  C:7CADH         LINE#         244
  C:7CAFH         LINE#         245
  C:7CB4H         LINE#         246
  C:7CC3H         LINE#         247
  C:7CCEH         LINE#         248
  C:7CD4H         LINE#         249
  C:7CD4H         LINE#         251
  -------         ENDPROC       _MOV_CARD
  -------         PROC          AUT_CARD_CHECK_STATUS
  -------         DO            
  D:0003H         SYMBOL        j
  X:0002H         SYMBOL        bcc
  X:0003H         SYMBOL        g_scArrTxComSoft
  -------         ENDDO         
  C:A2B7H         LINE#         257
  C:A2B7H         LINE#         258
  C:A2B7H         LINE#         261
BL51 BANKED LINKER/LOCATER V6.22.2.0                                                  11/13/2020  15:29:26  PAGE 98


  C:A2BCH         LINE#         263
  C:A2C5H         LINE#         265
  C:A2CBH         LINE#         266
  C:A2CEH         LINE#         267
  C:A2D0H         LINE#         268
  C:A2D4H         LINE#         269
  C:A2D8H         LINE#         270
  C:A2DCH         LINE#         271
  C:A2E0H         LINE#         272
  C:A2E4H         LINE#         273
  C:A2F0H         LINE#         274
  C:A2F0H         LINE#         275
  C:A304H         LINE#         276
  C:A307H         LINE#         277
  C:A30FH         LINE#         278
  C:A311H         LINE#         279
  C:A316H         LINE#         280
  C:A325H         LINE#         281
  C:A330H         LINE#         282
  C:A336H         LINE#         283
  -------         ENDPROC       AUT_CARD_CHECK_STATUS
  -------         PROC          CLAVE_SEGURIDAD_S2
  -------         DO            
  D:0003H         SYMBOL        j
  X:0002H         SYMBOL        bcc
  X:0003H         SYMBOL        g_scArrTxComSoft
  -------         ENDDO         
  C:9107H         LINE#         286
  C:9107H         LINE#         287
  C:9107H         LINE#         290
  C:910CH         LINE#         291
  C:9115H         LINE#         294
  C:911BH         LINE#         295
  C:911EH         LINE#         296
  C:9120H         LINE#         297
  C:9124H         LINE#         298
  C:9128H         LINE#         299
  C:912CH         LINE#         300
  C:9130H         LINE#         301
  C:9133H         LINE#         302
  C:9137H         LINE#         303
  C:913AH         LINE#         304
  C:913EH         LINE#         306
  C:9142H         LINE#         308
  C:9146H         LINE#         309
  C:914AH         LINE#         310
  C:914EH         LINE#         311
  C:9152H         LINE#         312
  C:9156H         LINE#         313
  C:915AH         LINE#         316
  C:915EH         LINE#         318
  C:916AH         LINE#         319
  C:916AH         LINE#         320
  C:917EH         LINE#         321
  C:9181H         LINE#         322
  C:9189H         LINE#         323
  C:918BH         LINE#         324
BL51 BANKED LINKER/LOCATER V6.22.2.0                                                  11/13/2020  15:29:26  PAGE 99


  C:9190H         LINE#         325
  C:919FH         LINE#         326
  C:91AAH         LINE#         327
  C:91B0H         LINE#         330
  -------         ENDPROC       CLAVE_SEGURIDAD_S2
  -------         PROC          DWLOAD_EEPROM
  -------         DO            
  D:0003H         SYMBOL        j
  X:0002H         SYMBOL        bcc
  X:0003H         SYMBOL        g_scArrTxComSoft
  -------         ENDDO         
  C:91B1H         LINE#         335
  C:91B1H         LINE#         336
  C:91B1H         LINE#         339
  C:91B6H         LINE#         340
  C:91BFH         LINE#         342
  C:91C5H         LINE#         343
  C:91C8H         LINE#         344
  C:91CAH         LINE#         345
  C:91CEH         LINE#         346
  C:91D2H         LINE#         347
  C:91D6H         LINE#         348
  C:91DAH         LINE#         349
  C:91DDH         LINE#         350
  C:91E1H         LINE#         351
  C:91E4H         LINE#         352
  C:91E7H         LINE#         353
  C:91EBH         LINE#         354
  C:91EFH         LINE#         355
  C:91F3H         LINE#         356
  C:91F7H         LINE#         357
  C:91FBH         LINE#         358
  C:91FFH         LINE#         359
  C:9203H         LINE#         360
  C:9207H         LINE#         362
  C:9213H         LINE#         363
  C:9213H         LINE#         364
  C:9227H         LINE#         365
  C:922AH         LINE#         366
  C:9232H         LINE#         367
  C:9234H         LINE#         368
  C:9239H         LINE#         369
  C:9248H         LINE#         370
  C:9253H         LINE#         371
  C:9259H         LINE#         372
  -------         ENDPROC       DWLOAD_EEPROM
  -------         PROC          LOADVERIFY_EEPROM
  -------         DO            
  D:0003H         SYMBOL        j
  X:0002H         SYMBOL        bcc
  X:0003H         SYMBOL        g_scArrTxComSoft
  -------         ENDDO         
  C:9C70H         LINE#         378
  C:9C70H         LINE#         379
  C:9C70H         LINE#         382
  C:9C75H         LINE#         383
  C:9C7EH         LINE#         386
BL51 BANKED LINKER/LOCATER V6.22.2.0                                                  11/13/2020  15:29:26  PAGE 100


  C:9C84H         LINE#         387
  C:9C87H         LINE#         388
  C:9C89H         LINE#         389
  C:9C8DH         LINE#         390
  C:9C91H         LINE#         391
  C:9C95H         LINE#         392
  C:9C99H         LINE#         393
  C:9C9CH         LINE#         394
  C:9CA0H         LINE#         395
  C:9CA3H         LINE#         396
  C:9CA6H         LINE#         397
  C:9CAAH         LINE#         402
  C:9CB6H         LINE#         403
  C:9CB6H         LINE#         404
  C:9CCAH         LINE#         405
  C:9CCDH         LINE#         406
  C:9CD5H         LINE#         407
  C:9CD7H         LINE#         408
  C:9CDCH         LINE#         409
  C:9CEBH         LINE#         410
  C:9CF6H         LINE#         411
  C:9CFCH         LINE#         413
  -------         ENDPROC       LOADVERIFY_EEPROM
  -------         PROC          _RD_MF
  X:0002H         SYMBOL        Sector
  X:0003H         SYMBOL        Bloque
  -------         DO            
  D:0003H         SYMBOL        j
  X:0004H         SYMBOL        bcc
  X:0005H         SYMBOL        g_scArrTxComSoft
  -------         ENDDO         
  C:8845H         LINE#         419
  C:884DH         LINE#         420
  C:884DH         LINE#         424
  C:8850H         LINE#         426
  C:8859H         LINE#         427
  C:8861H         LINE#         429
  C:886AH         LINE#         430
  C:8872H         LINE#         431
  C:887BH         LINE#         434
  C:8881H         LINE#         435
  C:8884H         LINE#         436
  C:8886H         LINE#         437
  C:888AH         LINE#         438
  C:888EH         LINE#         439
  C:8892H         LINE#         440
  C:8896H         LINE#         441
  C:8899H         LINE#         442
  C:889DH         LINE#         443
  C:88A5H         LINE#         444
  C:88ADH         LINE#         445
  C:88B1H         LINE#         446
  C:88B5H         LINE#         448
  C:88C1H         LINE#         449
  C:88C1H         LINE#         450
  C:88D5H         LINE#         451
  C:88D8H         LINE#         452
BL51 BANKED LINKER/LOCATER V6.22.2.0                                                  11/13/2020  15:29:26  PAGE 101


  C:88E0H         LINE#         455
  C:88E2H         LINE#         456
  C:88E7H         LINE#         457
  C:88F6H         LINE#         458
  C:8901H         LINE#         459
  C:8907H         LINE#         461
  -------         ENDPROC       _RD_MF
  -------         PROC          _WR_MF
  X:0002H         SYMBOL        Sector
  X:0003H         SYMBOL        Bloque
  X:0004H         SYMBOL        buffer
  -------         DO            
  D:0005H         SYMBOL        j
  X:0007H         SYMBOL        bcc
  X:0008H         SYMBOL        g_scArrTxComSoft
  -------         ENDDO         
  C:7316H         LINE#         468
  C:7327H         LINE#         470
  C:7327H         LINE#         473
  C:732AH         LINE#         475
  C:7333H         LINE#         476
  C:733BH         LINE#         478
  C:7344H         LINE#         479
  C:734CH         LINE#         480
  C:7355H         LINE#         482
  C:735BH         LINE#         483
  C:735EH         LINE#         484
  C:7360H         LINE#         485
  C:7364H         LINE#         487
  C:7368H         LINE#         488
  C:736CH         LINE#         489
  C:7370H         LINE#         490
  C:7373H         LINE#         491
  C:7377H         LINE#         492
  C:737FH         LINE#         493
  C:7387H         LINE#         494
  C:738BH         LINE#         496
  C:7397H         LINE#         497
  C:7397H         LINE#         498
  C:73B7H         LINE#         499
  C:73BAH         LINE#         501
  C:73C0H         LINE#         503
  C:73CCH         LINE#         504
  C:73CCH         LINE#         505
  C:73E3H         LINE#         506
  C:73E6H         LINE#         507
  C:73EEH         LINE#         510
  C:73F0H         LINE#         511
  C:73F5H         LINE#         512
  C:7404H         LINE#         513
  C:740FH         LINE#         514
  C:7415H         LINE#         516
  -------         ENDPROC       _WR_MF
  -------         PROC          UNIQUE_IDENTIFIER_UID
  -------         DO            
  D:0003H         SYMBOL        j
  X:0002H         SYMBOL        bcc
BL51 BANKED LINKER/LOCATER V6.22.2.0                                                  11/13/2020  15:29:26  PAGE 102


  X:0003H         SYMBOL        g_scArrTxComSoft
  -------         ENDDO         
  C:9F22H         LINE#         521
  C:9F22H         LINE#         522
  C:9F22H         LINE#         525
  C:9F27H         LINE#         527
  C:9F30H         LINE#         529
  C:9F36H         LINE#         530
  C:9F39H         LINE#         531
  C:9F3BH         LINE#         532
  C:9F3FH         LINE#         533
  C:9F43H         LINE#         534
  C:9F47H         LINE#         535
  C:9F4BH         LINE#         536
  C:9F4FH         LINE#         537
  C:9F53H         LINE#         538
  C:9F57H         LINE#         539
  C:9F63H         LINE#         540
  C:9F63H         LINE#         541
  C:9F77H         LINE#         542
  C:9F7AH         LINE#         543
  C:9F82H         LINE#         544
  C:9F84H         LINE#         545
  C:9F89H         LINE#         546
  C:9F98H         LINE#         547
  C:9FA3H         LINE#         548
  C:9FA9H         LINE#         549
  -------         ENDPROC       UNIQUE_IDENTIFIER_UID
  -------         PROC          POWER_OFF
  -------         DO            
  D:0003H         SYMBOL        j
  X:0002H         SYMBOL        bcc
  X:0003H         SYMBOL        g_scArrTxComSoft
  -------         ENDDO         
  C:A337H         LINE#         550
  C:A337H         LINE#         551
  C:A337H         LINE#         554
  C:A33CH         LINE#         556
  C:A345H         LINE#         558
  C:A34BH         LINE#         559
  C:A34EH         LINE#         560
  C:A350H         LINE#         561
  C:A354H         LINE#         562
  C:A358H         LINE#         563
  C:A35CH         LINE#         564
  C:A360H         LINE#         565
  C:A364H         LINE#         566
  C:A370H         LINE#         567
  C:A370H         LINE#         568
  C:A384H         LINE#         569
  C:A387H         LINE#         570
  C:A38FH         LINE#         571
  C:A391H         LINE#         572
  C:A396H         LINE#         573
  C:A3A5H         LINE#         574
  C:A3B0H         LINE#         575
  C:A3B6H         LINE#         578
BL51 BANKED LINKER/LOCATER V6.22.2.0                                                  11/13/2020  15:29:26  PAGE 103


  -------         ENDPROC       POWER_OFF
  -------         ENDMOD        LINTECH

  -------         MODULE        VERIFICADOR
  C:0000H         SYMBOL        _ICE_DUMMY_
  D:0080H         PUBLIC        P0
  C:B4FAH         PUBLIC        Analiza_Presencia_Mensual
  C:A9E6H         PUBLIC        Ingreso_Vehiculo
  D:0090H         PUBLIC        P1
  C:B485H         PUBLIC        _Armar_Trama_Tarjeta_Sector1_Bloque0
  D:00B0H         PUBLIC        P3
  C:5AD3H         PUBLIC        _Valida_Tipo_Tarjeta
  C:B0CAH         PUBLIC        _Load_Secuencia_Expedidor
  C:61E4H         PUBLIC        _Armar_Trama_Tarjeta_Sector1_Bloque2
  C:5785H         PUBLIC        _Armar_Trama_Pto_Paralelo_Expedidor
  C:8781H         PUBLIC        _Tarjeta_Mensual
  C:B546H         PUBLIC        Analiza_Presencia_rotacion
  C:A67CH         PUBLIC        _Disparo_Lock_Entrada_Vehiculo
  C:B381H         PUBLIC        Pregunta_Placa
  C:97E8H         PUBLIC        _Valida_Vehiculo_Card_Mensual
  C:A8D9H         PUBLIC        _Armar_Trama_Placa
  C:845FH         PUBLIC        _rta_cmd_transporte
  C:B780H         PUBLIC        Captura_Expulsa
  C:5F4BH         PUBLIC        _Armar_Trama_Monitor
  C:65A3H         PUBLIC        Secuencia_inicio_expedidor
  C:7F72H         PUBLIC        _Analiza_Uid_Card
  B:0080H.0       PUBLIC        rx_ip
  C:7213H         PUBLIC        _Bloque_Horario
  B:0090H.7       PUBLIC        lock
  C:93A5H         PUBLIC        _Armar_Trama_Tarjeta_Sector1_Bloque1_Camcel
  C:9582H         PUBLIC        _Responde_Lectura_Tarjeta_Sector1_Bloque0
  C:8B4AH         PUBLIC        error_rx_pto
  C:53F3H         PUBLIC        _Responde_Lectura_Tarjeta_Sector1_Bloque1
  C:6818H         PUBLIC        _Responde_Lectura_Tarjeta_Sector1_Bloque2
  C:94E6H         PUBLIC        _Respuesta_Placa_Cancel
  B:0090H.1       PUBLIC        DataIn
  C:A0B4H         PUBLIC        _Send_Pto_Paralelo
  C:AFF6H         PUBLIC        Trama_Validacion_P_N
  B:0022H.0       PUBLIC        MenSual
  C:81F1H         PUBLIC        _Armar_Trama_Pto_Paralelo_Expedidor_Mensual
  B:0080H.3       PUBLIC        Rele_Atasco
  C:6FF8H         PUBLIC        _Horarios
  C:905BH         PUBLIC        _Hora_Maxima
  C:33F1H         PUBLIC        _SecuenciaExpedidorMF
  C:ADA8H         PUBLIC        _Pregunta_Lpr
  C:8EF2H         PUBLIC        _Wait_Placa
  C:A436H         PUBLIC        Responde_Estado_Sensores_Transporte
  C:9AC2H         PUBLIC        Entrega_Card_Captura
  C:A87CH         PUBLIC        _Respuesta_Segunda_clave
  X:0140H         SYMBOL        Estado
  C:B280H         PUBLIC        _Responde_Write_Tarjeta_Sector1_Bloque0
  C:B24AH         PUBLIC        _Responde_Write_Tarjeta_Sector1_Bloque1
  C:AC8FH         PUBLIC        _Responde_Write_Tarjeta_Sector2_Bloque0
  C:9BE1H         PUBLIC        _Responde_Write_Tarjeta_Sector1_Bloque2
  C:A59CH         PUBLIC        _En_Horario
  C:A4B2H         PUBLIC        Responde_Tipo_Tarjeta
  C:B350H         PUBLIC        _Tarjeta_Rotacion
BL51 BANKED LINKER/LOCATER V6.22.2.0                                                  11/13/2020  15:29:26  PAGE 104


  -------         PROC          CAPTURA_EXPULSA
  -------         DO            
  D:0007H         SYMBOL        Estado_expedidor
  -------         ENDDO         
  C:B780H         LINE#         532
  C:B780H         LINE#         533
  C:B780H         LINE#         537
  C:B783H         LINE#         538
  C:B783H         LINE#         539
  C:B785H         LINE#         540
  C:B786H         LINE#         542
  C:B786H         LINE#         544
  C:B788H         LINE#         545
  C:B788H         LINE#         548
  C:B788H         LINE#         549
  -------         ENDPROC       CAPTURA_EXPULSA
  -------         PROC          TRAMA_VALIDACION_P_N
  -------         DO            
  D:0007H         SYMBOL        Trama_Validacion_P_N
  -------         ENDDO         
  C:AFF6H         LINE#         560
  C:AFF6H         LINE#         561
  C:AFF6H         LINE#         562
  C:AFF8H         LINE#         564
  C:B00EH         LINE#         565
  C:B00EH         LINE#         566
  C:B011H         LINE#         567
  C:B011H         LINE#         568
  C:B013H         LINE#         571
  C:B01BH         LINE#         572
  C:B01BH         LINE#         574
  C:B01DH         LINE#         576
  C:B01EH         LINE#         577
  C:B022H         LINE#         578
  C:B022H         LINE#         580
  C:B024H         LINE#         582
  C:B025H         LINE#         584
  C:B025H         LINE#         585
  C:B02EH         LINE#         586
  C:B030H         LINE#         588
  C:B030H         LINE#         589
  C:B031H         LINE#         591
  C:B031H         LINE#         593
  C:B033H         LINE#         595
  C:B033H         LINE#         597
  C:B033H         LINE#         599
  C:B033H         LINE#         600
  -------         ENDPROC       TRAMA_VALIDACION_P_N
  -------         PROC          ERROR_RX_PTO
  -------         DO            
  X:00B7H         SYMBOL        cnt_espera_ask_on
  X:0007H         SYMBOL        error_rx_pto
  -------         ENDDO         
  C:8B4AH         LINE#         624
  C:8B4AH         LINE#         625
  C:8B4AH         LINE#         628
  C:8B50H         LINE#         632
BL51 BANKED LINKER/LOCATER V6.22.2.0                                                  11/13/2020  15:29:26  PAGE 105


  C:8B59H         LINE#         633
  C:8B61H         LINE#         634
  C:8B6AH         LINE#         635
  C:8B72H         LINE#         636
  C:8B7BH         LINE#         637
  C:8B7EH         LINE#         639
  C:8B7EH         LINE#         640
  C:8B84H         LINE#         641
  C:8B8EH         LINE#         642
  C:8B8EH         LINE#         643
  C:8B97H         LINE#         644
  C:8B99H         LINE#         645
  C:8BA0H         LINE#         646
  C:8BA5H         LINE#         647
  C:8BABH         LINE#         648
  C:8BB0H         LINE#         649
  C:8BB2H         LINE#         650
  C:8BB9H         LINE#         651
  C:8BBFH         LINE#         652
  C:8BBFH         LINE#         654
  C:8BBFH         LINE#         655
  C:8BC4H         LINE#         656
  C:8BC4H         LINE#         657
  C:8BC4H         LINE#         658
  C:8BC6H         LINE#         660
  C:8BC6H         LINE#         661
  C:8BD4H         LINE#         662
  C:8BE7H         LINE#         663
  C:8BE7H         LINE#         664
  C:8BE8H         LINE#         666
  C:8BEEH         LINE#         667
  C:8BF2H         LINE#         668
  C:8BF4H         LINE#         669
  C:8BF4H         LINE#         670
  C:8BF6H         LINE#         672
  C:8BF6H         LINE#         673
  C:8BF7H         LINE#         674
  C:8BFCH         LINE#         675
  C:8C02H         LINE#         676
  C:8C02H         LINE#         677
  C:8C02H         LINE#         678
  C:8C07H         LINE#         679
  -------         ENDPROC       ERROR_RX_PTO
  -------         PROC          _RTA_CMD_TRANSPORTE
  X:0002H         SYMBOL        secuencia_Expedidor
  -------         DO            
  X:0005H         SYMBOL        temp
  X:0006H         SYMBOL        EstadoComSeqMF
  -------         ENDDO         
  C:845FH         LINE#         695
  C:846AH         LINE#         696
  C:846AH         LINE#         702
  C:8477H         LINE#         703
  C:8477H         LINE#         704
  C:847FH         LINE#         705
  C:847FH         LINE#         706
  C:848DH         LINE#         707
BL51 BANKED LINKER/LOCATER V6.22.2.0                                                  11/13/2020  15:29:26  PAGE 106


  C:8490H         LINE#         708
  C:8496H         LINE#         709
  C:8496H         LINE#         710
  C:849FH         LINE#         711
  C:84B3H         LINE#         712
  C:84C4H         LINE#         714
  C:84C6H         LINE#         716
  C:84C6H         LINE#         719
  C:84DEH         LINE#         720
  C:84DEH         LINE#         721
  C:84E9H         LINE#         722
  C:84EBH         LINE#         724
  C:84EBH         LINE#         725
  C:84F9H         LINE#         726
  C:84F9H         LINE#         727
  C:84F9H         LINE#         728
  C:84FBH         LINE#         730
  C:84FBH         LINE#         732
  C:850FH         LINE#         733
  C:8524H         LINE#         734
  C:8524H         LINE#         735
  C:8529H         LINE#         736
  -------         ENDPROC       _RTA_CMD_TRANSPORTE
  -------         PROC          ANALIZA_PRESENCIA_MENSUAL
  -------         DO            
  X:0002H         SYMBOL        Estado_expedidor
  -------         ENDDO         
  C:B4FAH         LINE#         740
  C:B4FAH         LINE#         741
  C:B4FAH         LINE#         743
  C:B500H         LINE#         744
  C:B500H         LINE#         745
  C:B502H         LINE#         746
  C:B508H         LINE#         747
  C:B50AH         LINE#         749
  C:B50AH         LINE#         751
  C:B50FH         LINE#         752
  C:B514H         LINE#         753
  C:B51AH         LINE#         755
  C:B51AH         LINE#         756
  C:B51FH         LINE#         757
  -------         ENDPROC       ANALIZA_PRESENCIA_MENSUAL
  -------         PROC          ANALIZA_PRESENCIA_ROTACION
  -------         DO            
  X:0002H         SYMBOL        Estado_expedidor
  -------         ENDDO         
  C:B546H         LINE#         758
  C:B546H         LINE#         759
  C:B546H         LINE#         761
  C:B54CH         LINE#         762
  C:B54CH         LINE#         764
  C:B552H         LINE#         765
  C:B554H         LINE#         767
  C:B554H         LINE#         769
  C:B559H         LINE#         770
  C:B55EH         LINE#         771
  C:B563H         LINE#         773
BL51 BANKED LINKER/LOCATER V6.22.2.0                                                  11/13/2020  15:29:26  PAGE 107


  C:B563H         LINE#         774
  C:B568H         LINE#         775
  -------         ENDPROC       ANALIZA_PRESENCIA_ROTACION
  -------         PROC          _ANALIZA_UID_CARD
  X:0002H         SYMBOL        Atributos_Expedidor
  -------         DO            
  X:0005H         SYMBOL        Estado_expedidor
  D:0007H         SYMBOL        temp
  X:0006H         SYMBOL        buffer_UID
  -------         ENDDO         
  C:7F72H         LINE#         779
  C:7F7DH         LINE#         780
  C:7F7DH         LINE#         784
  C:7F8DH         LINE#         785
  C:7F8DH         LINE#         787
  C:7F99H         LINE#         788
  C:7F99H         LINE#         789
  C:7FB1H         LINE#         791
  C:7FB4H         LINE#         793
  C:7FBDH         LINE#         794
  C:7FCEH         LINE#         797
  C:7FD7H         LINE#         798
  C:7FDFH         LINE#         799
  C:7FE7H         LINE#         800
  C:7FEFH         LINE#         801
  C:7FF7H         LINE#         802
  C:8000H         LINE#         804
  C:8017H         LINE#         805
  C:8021H         LINE#         806
  C:802BH         LINE#         807
  C:8035H         LINE#         808
  C:803BH         LINE#         809
  C:803DH         LINE#         811
  C:803DH         LINE#         812
  C:8043H         LINE#         813
  C:8043H         LINE#         814
  C:8048H         LINE#         815
  -------         ENDPROC       _ANALIZA_UID_CARD
  -------         PROC          INGRESO_VEHICULO
  -------         DO            
  D:0007H         SYMBOL        CardAutomatic
  X:00B9H         SYMBOL        pulseboton
  -------         ENDDO         
  C:A9E6H         LINE#         819
  C:A9E6H         LINE#         820
  C:A9E6H         LINE#         824
  C:A9ECH         LINE#         825
  C:A9ECH         LINE#         826
  C:A9F5H         LINE#         828
  C:A9FAH         LINE#         829
  C:A9FAH         LINE#         830
  C:AA03H         LINE#         832
  C:AA03H         LINE#         833
  C:AA05H         LINE#         835
  C:AA05H         LINE#         837
  C:AA0BH         LINE#         838
  C:AA10H         LINE#         839
BL51 BANKED LINKER/LOCATER V6.22.2.0                                                  11/13/2020  15:29:26  PAGE 108


  C:AA12H         LINE#         841
  C:AA12H         LINE#         842
  C:AA18H         LINE#         845
  C:AA18H         LINE#         846
  C:AA1BH         LINE#         847
  C:AA1EH         LINE#         848
  C:AA1EH         LINE#         849
  C:AA20H         LINE#         850
  C:AA25H         LINE#         851
  C:AA2BH         LINE#         852
  C:AA2DH         LINE#         872
  C:AA2DH         LINE#         874
  C:AA32H         LINE#         875
  C:AA32H         LINE#         876
  C:AA37H         LINE#         877
  -------         ENDPROC       INGRESO_VEHICULO
  -------         PROC          RESPONDE_ESTADO_SENSORES_TRANSPORTE
  -------         DO            
  X:0002H         SYMBOL        Estado_expedidor
  -------         ENDDO         
  C:A436H         LINE#         884
  C:A436H         LINE#         885
  C:A436H         LINE#         888
  C:A43FH         LINE#         890
  C:A447H         LINE#         891
  C:A447H         LINE#         893
  C:A452H         LINE#         894
  C:A452H         LINE#         895
  C:A456H         LINE#         896
  C:A456H         LINE#         897
  C:A45FH         LINE#         898
  C:A464H         LINE#         900
  C:A464H         LINE#         901
  C:A466H         LINE#         903
  C:A466H         LINE#         905
  C:A46EH         LINE#         907
  C:A46EH         LINE#         908
  C:A470H         LINE#         910
  C:A470H         LINE#         912
  C:A479H         LINE#         914
  C:A47EH         LINE#         917
  C:A47EH         LINE#         918
  C:A47EH         LINE#         919
  C:A480H         LINE#         920
  C:A487H         LINE#         921
  C:A487H         LINE#         923
  C:A48DH         LINE#         925
  C:A48DH         LINE#         926
  C:A48FH         LINE#         927
  C:A496H         LINE#         929
  C:A496H         LINE#         930
  C:A49FH         LINE#         931
  C:A4A5H         LINE#         932
  C:A4A7H         LINE#         934
  C:A4A7H         LINE#         935
  C:A4ACH         LINE#         936
  C:A4ACH         LINE#         937
BL51 BANKED LINKER/LOCATER V6.22.2.0                                                  11/13/2020  15:29:26  PAGE 109


  C:A4B1H         LINE#         938
  -------         ENDPROC       RESPONDE_ESTADO_SENSORES_TRANSPORTE
  -------         PROC          RESPONDE_TIPO_TARJETA
  -------         DO            
  X:0002H         SYMBOL        Estado_expedidor
  -------         ENDDO         
  C:A4B2H         LINE#         954
  C:A4B2H         LINE#         955
  C:A4B2H         LINE#         958
  C:A4BBH         LINE#         960
  C:A4C3H         LINE#         961
  C:A4C3H         LINE#         962
  C:A4CEH         LINE#         963
  C:A4CEH         LINE#         964
  C:A4D7H         LINE#         965
  C:A4DDH         LINE#         966
  C:A4DDH         LINE#         967
  C:A4E0H         LINE#         968
  C:A4E2H         LINE#         970
  C:A4E2H         LINE#         971
  C:A4E5H         LINE#         972
  C:A4E5H         LINE#         973
  C:A4E7H         LINE#         975
  C:A4E7H         LINE#         976
  C:A4EEH         LINE#         977
  C:A4EEH         LINE#         979
  C:A4F4H         LINE#         981
  C:A4F4H         LINE#         982
  C:A4F4H         LINE#         984
  C:A4F4H         LINE#         986
  C:A4F6H         LINE#         988
  C:A4F6H         LINE#         989
  C:A4F6H         LINE#         990
  C:A4F6H         LINE#         991
  C:A4F6H         LINE#         992
  C:A4F6H         LINE#         993
  C:A4F8H         LINE#         995
  C:A4F8H         LINE#         996
  C:A4FFH         LINE#         997
  C:A4FFH         LINE#         1000
  C:A508H         LINE#         1002
  C:A50DH         LINE#         1003
  C:A512H         LINE#         1005
  C:A51AH         LINE#         1008
  C:A51CH         LINE#         1010
  C:A51CH         LINE#         1011
  C:A51EH         LINE#         1012
  C:A523H         LINE#         1013
  C:A523H         LINE#         1014
  C:A523H         LINE#         1016
  C:A528H         LINE#         1017
  -------         ENDPROC       RESPONDE_TIPO_TARJETA
  -------         PROC          _RESPONDE_LECTURA_TARJETA_SECTOR1_BLOQUE1
  X:0002H         SYMBOL        Atributos_Expedidor
  -------         DO            
  D:0007H         SYMBOL        temp
  X:0005H         SYMBOL        Estado_expedidor
BL51 BANKED LINKER/LOCATER V6.22.2.0                                                  11/13/2020  15:29:26  PAGE 110


  X:0006H         SYMBOL        buffer_S1_B1
  X:0017H         SYMBOL        ID_CLIENTE
  D:0007H         SYMBOL        COD_PARK
  X:00BAH         SYMBOL        falla
  -------         ENDDO         
  C:53F3H         LINE#         1029
  C:53FEH         LINE#         1030
  C:53FEH         LINE#         1037
  C:5407H         LINE#         1041
  C:5417H         LINE#         1042
  C:5417H         LINE#         1044
  C:5423H         LINE#         1045
  C:5423H         LINE#         1046
  C:543BH         LINE#         1048
  C:543EH         LINE#         1051
  C:5447H         LINE#         1052
  C:5458H         LINE#         1053
  C:5465H         LINE#         1054
  C:546EH         LINE#         1057
  C:548DH         LINE#         1058
  C:548DH         LINE#         1060
  C:5496H         LINE#         1061
  C:549EH         LINE#         1062
  C:54A7H         LINE#         1064
  C:54B0H         LINE#         1065
  C:54B8H         LINE#         1066
  C:54C1H         LINE#         1068
  C:54CAH         LINE#         1069
  C:54D2H         LINE#         1070
  C:54DBH         LINE#         1072
  C:54E4H         LINE#         1073
  C:54ECH         LINE#         1074
  C:54F5H         LINE#         1076
  C:54FEH         LINE#         1077
  C:5506H         LINE#         1078
  C:550FH         LINE#         1080
  C:5526H         LINE#         1082
  C:5530H         LINE#         1083
  C:553AH         LINE#         1084
  C:5544H         LINE#         1086
  C:5549H         LINE#         1087
  C:555CH         LINE#         1088
  C:5561H         LINE#         1089
  C:5567H         LINE#         1091
  C:5569H         LINE#         1093
  C:5569H         LINE#         1094
  C:556EH         LINE#         1095
  C:5577H         LINE#         1096
  C:557CH         LINE#         1097
  C:557EH         LINE#         1098
  C:557EH         LINE#         1099
  C:557EH         LINE#         1100
  C:5580H         LINE#         1102
  C:5580H         LINE#         1104
  C:5588H         LINE#         1105
  C:5588H         LINE#         1106
  C:558EH         LINE#         1107
BL51 BANKED LINKER/LOCATER V6.22.2.0                                                  11/13/2020  15:29:26  PAGE 111


  C:558EH         LINE#         1108
  C:559BH         LINE#         1110
  C:559BH         LINE#         1111
  C:55A4H         LINE#         1112
  C:55AAH         LINE#         1114
  C:55ACH         LINE#         1116
  C:55ACH         LINE#         1117
  C:55B1H         LINE#         1118
  C:55BAH         LINE#         1119
  C:55BFH         LINE#         1120
  C:55C4H         LINE#         1121
  C:55CCH         LINE#         1122
  C:55CCH         LINE#         1123
  C:55CCH         LINE#         1125
  C:55D1H         LINE#         1126
  -------         ENDPROC       _RESPONDE_LECTURA_TARJETA_SECTOR1_BLOQUE1
  -------         PROC          _RESPONDE_LECTURA_TARJETA_SECTOR1_BLOQUE2
  X:0002H         SYMBOL        Atributos_Expedidor
  -------         DO            
  D:0007H         SYMBOL        temp
  X:0005H         SYMBOL        Estado_expedidor
  X:0006H         SYMBOL        buffer_S1_B2
  -------         ENDDO         
  C:6818H         LINE#         1131
  C:6823H         LINE#         1132
  C:6823H         LINE#         1138
  C:682CH         LINE#         1142
  C:683CH         LINE#         1143
  C:683CH         LINE#         1145
  C:6848H         LINE#         1146
  C:6848H         LINE#         1147
  C:6860H         LINE#         1148
  C:6863H         LINE#         1149
  C:686CH         LINE#         1150
  C:687DH         LINE#         1154
  C:6886H         LINE#         1155
  C:6893H         LINE#         1156
  C:68AFH         LINE#         1157
  C:68B8H         LINE#         1159
  C:68C1H         LINE#         1161
  C:68DDH         LINE#         1162
  C:68E7H         LINE#         1163
  C:68F0H         LINE#         1166
  C:68F9H         LINE#         1167
  C:6901H         LINE#         1168
  C:690AH         LINE#         1172
  C:6921H         LINE#         1175
  C:692DH         LINE#         1176
  C:6933H         LINE#         1179
  C:6935H         LINE#         1181
  C:6935H         LINE#         1182
  C:693DH         LINE#         1183
  C:693DH         LINE#         1184
  C:6942H         LINE#         1185
  -------         ENDPROC       _RESPONDE_LECTURA_TARJETA_SECTOR1_BLOQUE2
  -------         PROC          _RESPONDE_LECTURA_TARJETA_SECTOR1_BLOQUE0
  X:0002H         SYMBOL        Nombre_Mensual
BL51 BANKED LINKER/LOCATER V6.22.2.0                                                  11/13/2020  15:29:26  PAGE 112


  -------         DO            
  D:0007H         SYMBOL        temp
  X:0005H         SYMBOL        Estado_expedidor
  -------         ENDDO         
  C:9582H         LINE#         1187
  C:958DH         LINE#         1188
  C:958DH         LINE#         1194
  C:9596H         LINE#         1198
  C:95A3H         LINE#         1199
  C:95A3H         LINE#         1201
  C:95AFH         LINE#         1202
  C:95AFH         LINE#         1203
  C:95CFH         LINE#         1204
  C:95D2H         LINE#         1205
  C:95E6H         LINE#         1206
  C:95EFH         LINE#         1207
  C:95FDH         LINE#         1208
  C:9606H         LINE#         1209
  C:960CH         LINE#         1212
  C:960EH         LINE#         1214
  C:960EH         LINE#         1215
  C:9616H         LINE#         1216
  C:9616H         LINE#         1217
  C:961BH         LINE#         1218
  -------         ENDPROC       _RESPONDE_LECTURA_TARJETA_SECTOR1_BLOQUE0
  -------         PROC          _RESPONDE_WRITE_TARJETA_SECTOR1_BLOQUE1
  X:0002H         SYMBOL        Buffer_Write_MF
  -------         DO            
  D:0007H         SYMBOL        Estado_expedidor
  -------         ENDDO         
  C:B24AH         LINE#         1219
  C:B255H         LINE#         1220
  C:B255H         LINE#         1222
  C:B25EH         LINE#         1223
  C:B267H         LINE#         1224
  C:B27DH         LINE#         1225
  C:B27FH         LINE#         1226
  C:B27FH         LINE#         1227
  -------         ENDPROC       _RESPONDE_WRITE_TARJETA_SECTOR1_BLOQUE1
  -------         PROC          _RESPONDE_WRITE_TARJETA_SECTOR1_BLOQUE2
  X:0002H         SYMBOL        Atributos_Expedidor
  X:0005H         SYMBOL        Buffer_Write_MF
  -------         DO            
  X:0008H         SYMBOL        Estado_expedidor
  -------         ENDDO         
  C:9BE1H         LINE#         1228
  C:9BECH         LINE#         1229
  C:9BECH         LINE#         1231
  C:9BF5H         LINE#         1232
  C:9BFEH         LINE#         1233
  C:9C14H         LINE#         1234
  C:9C24H         LINE#         1235
  C:9C24H         LINE#         1236
  C:9C27H         LINE#         1237
  C:9C39H         LINE#         1238
  C:9C47H         LINE#         1239
  C:9C4DH         LINE#         1240
BL51 BANKED LINKER/LOCATER V6.22.2.0                                                  11/13/2020  15:29:26  PAGE 113


  C:9C4FH         LINE#         1242
  C:9C4FH         LINE#         1243
  C:9C52H         LINE#         1244
  C:9C64H         LINE#         1245
  C:9C6AH         LINE#         1247
  C:9C6AH         LINE#         1248
  C:9C6FH         LINE#         1249
  -------         ENDPROC       _RESPONDE_WRITE_TARJETA_SECTOR1_BLOQUE2
  -------         PROC          _RESPONDE_WRITE_TARJETA_SECTOR1_BLOQUE0
  X:0002H         SYMBOL        Buffer_Write_MF
  C:B280H         LINE#         1252
  C:B28BH         LINE#         1253
  C:B28BH         LINE#         1255
  C:B294H         LINE#         1256
  C:B29DH         LINE#         1257
  C:B2B3H         LINE#         1259
  C:B2B5H         LINE#         1260
  -------         ENDPROC       _RESPONDE_WRITE_TARJETA_SECTOR1_BLOQUE0
  -------         PROC          _RESPONDE_WRITE_TARJETA_SECTOR2_BLOQUE0
  X:0002H         SYMBOL        Buffer_Write_MF
  C:AC8FH         LINE#         1263
  C:AC9AH         LINE#         1264
  C:AC9AH         LINE#         1266
  C:ACA3H         LINE#         1267
  C:ACACH         LINE#         1268
  C:ACB5H         LINE#         1269
  C:ACBEH         LINE#         1270
  C:ACD3H         LINE#         1271
  C:ACD5H         LINE#         1272
  -------         ENDPROC       _RESPONDE_WRITE_TARJETA_SECTOR2_BLOQUE0
  -------         PROC          _PREGUNTA_LPR
  X:0002H         SYMBOL        Atributos_Expedidor
  -------         DO            
  D:0007H         SYMBOL        Estado_expedidor
  -------         ENDDO         
  C:ADA8H         LINE#         1276
  C:ADB3H         LINE#         1277
  C:ADB3H         LINE#         1279
  C:ADBCH         LINE#         1280
  C:ADCAH         LINE#         1281
  C:ADCAH         LINE#         1283
  C:ADDBH         LINE#         1284
  C:ADE7H         LINE#         1285
  C:ADE7H         LINE#         1286
  C:ADEBH         LINE#         1287
  C:ADEBH         LINE#         1288
  C:ADEBH         LINE#         1291
  C:ADEDH         LINE#         1293
  C:ADEDH         LINE#         1294
  -------         ENDPROC       _PREGUNTA_LPR
  -------         PROC          PREGUNTA_PLACA
  -------         DO            
  X:0002H         SYMBOL        Estado_expedidor
  -------         ENDDO         
  C:B381H         LINE#         1295
  C:B381H         LINE#         1296
  C:B381H         LINE#         1298
BL51 BANKED LINKER/LOCATER V6.22.2.0                                                  11/13/2020  15:29:26  PAGE 114


  C:B38AH         LINE#         1299
  C:B399H         LINE#         1300
  C:B399H         LINE#         1302
  C:B39CH         LINE#         1303
  C:B3A1H         LINE#         1304
  C:B3A6H         LINE#         1305
  C:B3A8H         LINE#         1307
  C:B3A8H         LINE#         1308
  C:B3ABH         LINE#         1309
  C:B3ABH         LINE#         1310
  C:B3B0H         LINE#         1311
  -------         ENDPROC       PREGUNTA_PLACA
  -------         PROC          _RESPUESTA_SEGUNDA_CLAVE
  X:0002H         SYMBOL        Atributos_Expedidor
  X:0005H         SYMBOL        Buffer_Write_MF
  C:A87CH         LINE#         1312
  C:A887H         LINE#         1313
  C:A887H         LINE#         1315
  C:A890H         LINE#         1316
  C:A8A6H         LINE#         1319
  C:A8B6H         LINE#         1320
  C:A8C8H         LINE#         1321
  C:A8D6H         LINE#         1323
  C:A8D8H         LINE#         1324
  -------         ENDPROC       _RESPUESTA_SEGUNDA_CLAVE
  -------         PROC          _RESPUESTA_PLACA_CANCEL
  X:0009H         SYMBOL        Atributos_Expedidor
  X:000CH         SYMBOL        Buffer_Write_MF
  -------         DO            
  X:000FH         SYMBOL        Estado_expedidor
  X:0010H         SYMBOL        Cancel
  -------         ENDDO         
  C:94E6H         LINE#         1325
  C:94F1H         LINE#         1326
  C:94F1H         LINE#         1328
  C:94FFH         LINE#         1329
  C:9508H         LINE#         1330
  C:9511H         LINE#         1331
  C:951AH         LINE#         1333
  C:9535H         LINE#         1334
  C:9535H         LINE#         1335
  C:9545H         LINE#         1336
  C:9558H         LINE#         1337
  C:9566H         LINE#         1338
  C:956CH         LINE#         1339
  C:956EH         LINE#         1341
  C:956EH         LINE#         1342
  C:9574H         LINE#         1343
  C:9574H         LINE#         1344
  C:9577H         LINE#         1345
  C:9579H         LINE#         1347
  C:9579H         LINE#         1349
  C:957CH         LINE#         1350
  C:957CH         LINE#         1351
  C:957CH         LINE#         1352
  C:9581H         LINE#         1353
  -------         ENDPROC       _RESPUESTA_PLACA_CANCEL
BL51 BANKED LINKER/LOCATER V6.22.2.0                                                  11/13/2020  15:29:26  PAGE 115


  -------         PROC          _ARMAR_TRAMA_TARJETA_SECTOR1_BLOQUE1_CAMCEL
  X:0013H         SYMBOL        Buffer_Write_MF
  -------         DO            
  X:0016H         SYMBOL        ID_CLIENTE
  D:0007H         SYMBOL        COD_PARK
  -------         ENDDO         
  C:93A5H         LINE#         1356
  C:93B0H         LINE#         1357
  C:93B0H         LINE#         1361
  C:93B3H         LINE#         1362
  C:93C0H         LINE#         1363
  C:93C9H         LINE#         1365
  C:93D9H         LINE#         1366
  C:93EBH         LINE#         1367
  C:93F2H         LINE#         1368
  C:93FCH         LINE#         1369
  C:9403H         LINE#         1370
  C:940AH         LINE#         1371
  C:9411H         LINE#         1372
  C:9418H         LINE#         1373
  C:941FH         LINE#         1374
  C:9426H         LINE#         1375
  C:942DH         LINE#         1376
  C:9434H         LINE#         1377
  C:943BH         LINE#         1378
  C:9442H         LINE#         1379
  -------         ENDPROC       _ARMAR_TRAMA_TARJETA_SECTOR1_BLOQUE1_CAMCEL
  -------         PROC          _ARMAR_TRAMA_TARJETA_SECTOR1_BLOQUE2
  X:0010H         SYMBOL        Atributos_Expedidor
  X:0013H         SYMBOL        Buffer_Write_MF
  C:61E4H         LINE#         1385
  C:61EFH         LINE#         1386
  C:61EFH         LINE#         1390
  C:61FBH         LINE#         1394
  C:620DH         LINE#         1395
  C:6214H         LINE#         1396
  C:621BH         LINE#         1398
  C:6230H         LINE#         1399
  C:6230H         LINE#         1400
  C:6247H         LINE#         1401
  C:6260H         LINE#         1402
  C:6260H         LINE#         1403
  C:6263H         LINE#         1407
  C:6263H         LINE#         1409
  C:6292H         LINE#         1410
  C:62C1H         LINE#         1412
  C:62D9H         LINE#         1413
  C:62D9H         LINE#         1414
  C:62E6H         LINE#         1415
  C:62E8H         LINE#         1417
  C:62E8H         LINE#         1418
  C:62F8H         LINE#         1419
  C:62F8H         LINE#         1420
  C:62F8H         LINE#         1422
  C:630AH         LINE#         1423
  C:6311H         LINE#         1424
  C:6318H         LINE#         1425
BL51 BANKED LINKER/LOCATER V6.22.2.0                                                  11/13/2020  15:29:26  PAGE 116


  C:631FH         LINE#         1426
  -------         ENDPROC       _ARMAR_TRAMA_TARJETA_SECTOR1_BLOQUE2
  -------         PROC          _ARMAR_TRAMA_TARJETA_SECTOR1_BLOQUE0
  X:0009H         SYMBOL        Buffer_Write_MF
  C:B485H         LINE#         1428
  C:B490H         LINE#         1429
  C:B490H         LINE#         1431
  -------         ENDPROC       _ARMAR_TRAMA_TARJETA_SECTOR1_BLOQUE0
  -------         PROC          _ARMAR_TRAMA_PTO_PARALELO_EXPEDIDOR
  X:0006H         SYMBOL        h
  -------         DO            
  X:00BBH         SYMBOL        buffer
  X:0009H         SYMBOL        ticket
  X:0014H         SYMBOL        j
  -------         ENDDO         
  C:5785H         LINE#         1433
  C:5790H         LINE#         1434
  C:5790H         LINE#         1441
  C:5796H         LINE#         1442
  C:579AH         LINE#         1443
  C:579DH         LINE#         1444
  C:57A9H         LINE#         1445
  C:57C0H         LINE#         1446
  C:57CEH         LINE#         1448
  C:57DFH         LINE#         1450
  C:57EFH         LINE#         1451
  C:5801H         LINE#         1452
  C:580FH         LINE#         1453
  C:581DH         LINE#         1454
  C:582BH         LINE#         1455
  C:5839H         LINE#         1456
  C:5846H         LINE#         1458
  C:5855H         LINE#         1459
  C:5855H         LINE#         1460
  C:5858H         LINE#         1461
  C:5858H         LINE#         1462
  C:586CH         LINE#         1463
  C:587BH         LINE#         1464
  C:588AH         LINE#         1465
  C:5899H         LINE#         1466
  C:58A8H         LINE#         1467
  C:58B7H         LINE#         1468
  C:58BFH         LINE#         1469
  C:58C1H         LINE#         1471
  C:58C1H         LINE#         1472
  C:58D2H         LINE#         1473
  C:58DAH         LINE#         1474
  C:58DAH         LINE#         1475
  C:58DCH         LINE#         1477
  C:58DCH         LINE#         1478
  C:58EDH         LINE#         1479
  C:58F9H         LINE#         1480
  C:58F9H         LINE#         1481
  C:5907H         LINE#         1482
  C:5915H         LINE#         1483
  C:5927H         LINE#         1485
  C:592DH         LINE#         1486
BL51 BANKED LINKER/LOCATER V6.22.2.0                                                  11/13/2020  15:29:26  PAGE 117


  -------         ENDPROC       _ARMAR_TRAMA_PTO_PARALELO_EXPEDIDOR
  -------         PROC          _ARMAR_TRAMA_PTO_PARALELO_EXPEDIDOR_MENSUAL
  X:0006H         SYMBOL        Atributos_Expedidor
  X:0009H         SYMBOL        j
  -------         DO            
  X:00D7H         SYMBOL        buffer
  -------         ENDDO         
  C:81F1H         LINE#         1487
  C:81FCH         LINE#         1488
  C:81FCH         LINE#         1494
  C:8202H         LINE#         1495
  C:8206H         LINE#         1496
  C:821BH         LINE#         1497
  C:8225H         LINE#         1498
  C:822FH         LINE#         1499
  C:8239H         LINE#         1502
  C:8242H         LINE#         1503
  C:8249H         LINE#         1504
  C:824EH         LINE#         1505
  C:8253H         LINE#         1506
  C:8258H         LINE#         1507
  C:825DH         LINE#         1510
  C:8269H         LINE#         1511
  C:8269H         LINE#         1513
  C:8270H         LINE#         1514
  C:8274H         LINE#         1515
  C:8278H         LINE#         1516
  C:827CH         LINE#         1517
  C:8280H         LINE#         1518
  C:8284H         LINE#         1520
  C:8284H         LINE#         1522
  C:829AH         LINE#         1523
  C:829AH         LINE#         1524
  C:829DH         LINE#         1525
  C:829FH         LINE#         1527
  C:829FH         LINE#         1528
  C:82A2H         LINE#         1529
  C:82A2H         LINE#         1531
  C:82A8H         LINE#         1532
  C:82ABH         LINE#         1533
  C:82BBH         LINE#         1534
  C:82C1H         LINE#         1535
  -------         ENDPROC       _ARMAR_TRAMA_PTO_PARALELO_EXPEDIDOR_MENSUAL
  -------         PROC          _ARMAR_TRAMA_MONITOR
  X:0005H         SYMBOL        Atributos_Expedidor
  -------         DO            
  X:00F3H         SYMBOL        buffer
  X:0008H         SYMBOL        ticket
  X:0013H         SYMBOL        j
  -------         ENDDO         
  C:5F4BH         LINE#         1536
  C:5F56H         LINE#         1537
  C:5F56H         LINE#         1543
  C:5F5BH         LINE#         1544
  C:5F61H         LINE#         1545
  C:5F69H         LINE#         1546
  C:5F6DH         LINE#         1547
BL51 BANKED LINKER/LOCATER V6.22.2.0                                                  11/13/2020  15:29:26  PAGE 118


  C:5F76H         LINE#         1548
  C:5F76H         LINE#         1549
  C:5F79H         LINE#         1550
  C:5F7BH         LINE#         1552
  C:5F7BH         LINE#         1553
  C:5F7EH         LINE#         1554
  C:5F7EH         LINE#         1557
  C:5F81H         LINE#         1558
  C:5F81H         LINE#         1559
  C:5F86H         LINE#         1560
  C:5F92H         LINE#         1561
  C:5FA9H         LINE#         1562
  C:5FACH         LINE#         1564
  C:5FACH         LINE#         1565
  C:5FC7H         LINE#         1566
  C:5FD5H         LINE#         1567
  C:5FE3H         LINE#         1568
  C:5FEFH         LINE#         1569
  C:5FFDH         LINE#         1570
  C:6036H         LINE#         1572
  C:6036H         LINE#         1573
  C:6044H         LINE#         1574
  C:6052H         LINE#         1577
  C:605FH         LINE#         1578
  C:606DH         LINE#         1580
  C:607BH         LINE#         1581
  C:6088H         LINE#         1582
  C:6094H         LINE#         1583
  C:6099H         LINE#         1584
  C:609EH         LINE#         1585
  -------         ENDPROC       _ARMAR_TRAMA_MONITOR
  -------         PROC          _ARMAR_TRAMA_PLACA
  X:0008H         SYMBOL        Buffer_Write_MF
  -------         DO            
  D:0006H         SYMBOL        j
  D:0007H         SYMBOL        len_placa
  -------         ENDDO         
  C:A8D9H         LINE#         1586
  C:A8E4H         LINE#         1587
  C:A8E4H         LINE#         1590
  C:A8EDH         LINE#         1591
  C:A8F4H         LINE#         1592
  C:A8F4H         LINE#         1593
  C:A90EH         LINE#         1594
  C:A911H         LINE#         1595
  C:A91DH         LINE#         1596
  C:A91DH         LINE#         1597
  C:A931H         LINE#         1598
  C:A934H         LINE#         1599
  -------         ENDPROC       _ARMAR_TRAMA_PLACA
  C:B0AEH         SYMBOL        L?0379
  -------         PROC          L?0378
  -------         ENDPROC       L?0378
  C:B0AEH         SYMBOL        L?0379
  -------         PROC          _LOAD_SECUENCIA_EXPEDIDOR
  D:0001H         SYMBOL        Secuencia_Expedidor
  D:0004H         SYMBOL        estadoactivo
BL51 BANKED LINKER/LOCATER V6.22.2.0                                                  11/13/2020  15:29:26  PAGE 119


  X:0007H         SYMBOL        estadoactual
  X:0009H         SYMBOL        estadofuturo
  C:B0CAH         LINE#         1600
  C:B0CAH         LINE#         1601
  C:B0CAH         LINE#         1602
  C:B0D1H         LINE#         1603
  C:B0D9H         LINE#         1604
  C:B0E4H         LINE#         1605
  C:B0EAH         LINE#         1606
  -------         ENDPROC       _LOAD_SECUENCIA_EXPEDIDOR
  -------         PROC          _DISPARO_LOCK_ENTRADA_VEHICULO
  X:0002H         SYMBOL        Nombre_Mensual
  -------         DO            
  X:0005H         SYMBOL        Estado_expedidor
  -------         ENDDO         
  C:A67CH         LINE#         1607
  C:A687H         LINE#         1608
  C:A687H         LINE#         1610
  C:A690H         LINE#         1612
  C:A695H         LINE#         1614
  C:A69CH         LINE#         1615
  C:A69CH         LINE#         1617
  C:A6A5H         LINE#         1619
  C:A6A7H         LINE#         1620
  C:A6ACH         LINE#         1621
  C:A6BCH         LINE#         1622
  C:A6C2H         LINE#         1625
  C:A6C4H         LINE#         1626
  C:A6CBH         LINE#         1627
  C:A6CBH         LINE#         1628
  C:A6D1H         LINE#         1629
  C:A6D1H         LINE#         1630
  C:A6D7H         LINE#         1631
  C:A6DDH         LINE#         1632
  C:A6DFH         LINE#         1634
  C:A6DFH         LINE#         1635
  C:A6E5H         LINE#         1636
  C:A6E5H         LINE#         1638
  C:A6E5H         LINE#         1639
  C:A6EAH         LINE#         1640
  -------         ENDPROC       _DISPARO_LOCK_ENTRADA_VEHICULO
  -------         PROC          _SEND_PTO_PARALELO
  D:0001H         SYMBOL        Atributos_Expedidor
  -------         DO            
  X:0002H         SYMBOL        Trama_Expedidor
  X:0005H         SYMBOL        leng_trama_pto
  -------         ENDDO         
  C:A0B4H         LINE#         1641
  C:A0B4H         LINE#         1642
  C:A0B4H         LINE#         1645
  C:A0B7H         LINE#         1646
  C:A0B7H         LINE#         1647
  C:A0D3H         LINE#         1648
  C:A0D5H         LINE#         1650
  C:A0D5H         LINE#         1651
  C:A0E9H         LINE#         1652
  C:A0ECH         LINE#         1653
BL51 BANKED LINKER/LOCATER V6.22.2.0                                                  11/13/2020  15:29:26  PAGE 120


  C:A0ECH         LINE#         1655
  C:A0FDH         LINE#         1656
  C:A106H         LINE#         1657
  C:A11CH         LINE#         1658
  C:A125H         LINE#         1661
  C:A128H         LINE#         1662
  C:A12EH         LINE#         1663
  C:A133H         LINE#         1664
  C:A135H         LINE#         1665
  -------         ENDPROC       _SEND_PTO_PARALELO
  -------         PROC          ENTREGA_CARD_CAPTURA
  -------         DO            
  X:0002H         SYMBOL        Estado_expedidor
  -------         ENDDO         
  C:9AC2H         LINE#         1669
  C:9AC2H         LINE#         1670
  C:9AC2H         LINE#         1674
  C:9ACBH         LINE#         1675
  C:9ACEH         LINE#         1676
  C:9AD1H         LINE#         1677
  C:9AD1H         LINE#         1678
  C:9ADBH         LINE#         1679
  C:9ADBH         LINE#         1680
  C:9ADDH         LINE#         1681
  C:9ADFH         LINE#         1682
  C:9AE8H         LINE#         1683
  C:9AE8H         LINE#         1684
  C:9AE8H         LINE#         1686
  C:9AEAH         LINE#         1688
  C:9AEAH         LINE#         1689
  C:9AF0H         LINE#         1690
  C:9AF0H         LINE#         1692
  C:9AF6H         LINE#         1694
  C:9B09H         LINE#         1695
  C:9B09H         LINE#         1696
  C:9B16H         LINE#         1697
  C:9B16H         LINE#         1698
  C:9B18H         LINE#         1699
  C:9B21H         LINE#         1701
  C:9B23H         LINE#         1702
  C:9B23H         LINE#         1703
  C:9B25H         LINE#         1704
  C:9B32H         LINE#         1705
  C:9B32H         LINE#         1706
  C:9B38H         LINE#         1707
  C:9B38H         LINE#         1708
  C:9B38H         LINE#         1710
  C:9B3AH         LINE#         1712
  C:9B3AH         LINE#         1713
  C:9B3CH         LINE#         1714
  C:9B45H         LINE#         1715
  C:9B47H         LINE#         1716
  C:9B4CH         LINE#         1717
  C:9B4CH         LINE#         1718
  C:9B4CH         LINE#         1720
  C:9B51H         LINE#         1721
  -------         ENDPROC       ENTREGA_CARD_CAPTURA
BL51 BANKED LINKER/LOCATER V6.22.2.0                                                  11/13/2020  15:29:26  PAGE 121


  -------         PROC          _WAIT_PLACA
  X:0002H         SYMBOL        Atributos_Expedidor
  X:0005H         SYMBOL        Buffer_Write_MF
  -------         DO            
  X:0008H         SYMBOL        Estado_expedidor
  -------         ENDDO         
  C:8EF2H         LINE#         1722
  C:8EFDH         LINE#         1723
  C:8EFDH         LINE#         1726
  C:8F06H         LINE#         1728
  C:8F1CH         LINE#         1729
  C:8F1CH         LINE#         1730
  C:8F1FH         LINE#         1731
  C:8F1FH         LINE#         1733
  C:8F22H         LINE#         1734
  C:8F22H         LINE#         1735
  C:8F24H         LINE#         1737
  C:8F27H         LINE#         1738
  C:8F27H         LINE#         1739
  C:8F4FH         LINE#         1740
  C:8F51H         LINE#         1743
  C:8F51H         LINE#         1744
  C:8F57H         LINE#         1745
  C:8F6AH         LINE#         1746
  C:8F6AH         LINE#         1747
  C:8F77H         LINE#         1748
  C:8F77H         LINE#         1749
  C:8F86H         LINE#         1750
  C:8F8CH         LINE#         1751
  C:8F8EH         LINE#         1752
  C:8F9BH         LINE#         1753
  C:8F9BH         LINE#         1754
  C:8FA1H         LINE#         1755
  C:8FA1H         LINE#         1756
  C:8FA1H         LINE#         1757
  C:8FA1H         LINE#         1758
  C:8FA6H         LINE#         1759
  -------         ENDPROC       _WAIT_PLACA
  -------         PROC          _VALIDA_VEHICULO_CARD_MENSUAL
  X:0010H         SYMBOL        Atributos_Expedidor
  -------         DO            
  X:0013H         SYMBOL        Estado_expedidor
  -------         ENDDO         
  C:97E8H         LINE#         1760
  C:97F3H         LINE#         1761
  C:97F3H         LINE#         1764
  C:97FCH         LINE#         1765
  C:9811H         LINE#         1766
  C:9811H         LINE#         1767
  C:9815H         LINE#         1768
  C:9817H         LINE#         1770
  C:9817H         LINE#         1771
  C:981EH         LINE#         1772
  C:981EH         LINE#         1774
  C:9827H         LINE#         1775
  C:9835H         LINE#         1776
  C:9835H         LINE#         1777
BL51 BANKED LINKER/LOCATER V6.22.2.0                                                  11/13/2020  15:29:26  PAGE 122


  C:984EH         LINE#         1778
  C:984EH         LINE#         1779
  C:9854H         LINE#         1780
  C:9854H         LINE#         1781
  C:9856H         LINE#         1784
  C:9856H         LINE#         1785
  C:985BH         LINE#         1786
  C:9864H         LINE#         1787
  C:9869H         LINE#         1788
  C:9869H         LINE#         1789
  C:986BH         LINE#         1791
  C:986BH         LINE#         1792
  C:9874H         LINE#         1793
  C:987AH         LINE#         1794
  C:987AH         LINE#         1795
  C:987FH         LINE#         1796
  -------         ENDPROC       _VALIDA_VEHICULO_CARD_MENSUAL
  -------         PROC          _TARJETA_MENSUAL
  X:0009H         SYMBOL        Atributos_Expedidor
  X:000CH         SYMBOL        Buffer_Write_MF
  -------         DO            
  X:000FH         SYMBOL        Estado_expedidor
  -------         ENDDO         
  C:8781H         LINE#         1797
  C:878CH         LINE#         1798
  C:878CH         LINE#         1803
  C:8797H         LINE#         1804
  C:8797H         LINE#         1805
  C:87B5H         LINE#         1806
  C:87B5H         LINE#         1808
  C:87C6H         LINE#         1809
  C:87C6H         LINE#         1810
  C:87CEH         LINE#         1811
  C:87D0H         LINE#         1813
  C:87D0H         LINE#         1814
  C:87D9H         LINE#         1815
  C:87E9H         LINE#         1816
  C:87FCH         LINE#         1817
  C:881CH         LINE#         1818
  C:8822H         LINE#         1819
  C:8822H         LINE#         1820
  C:8824H         LINE#         1822
  C:8824H         LINE#         1823
  C:8829H         LINE#         1825
  C:882EH         LINE#         1826
  C:8837H         LINE#         1827
  C:8837H         LINE#         1828
  C:8837H         LINE#         1829
  C:8839H         LINE#         1831
  C:8839H         LINE#         1833
  C:883FH         LINE#         1834
  C:883FH         LINE#         1835
  C:8844H         LINE#         1836
  -------         ENDPROC       _TARJETA_MENSUAL
  -------         PROC          _TARJETA_ROTACION
  D:0001H         SYMBOL        Atributos_Expedidor
  X:000CH         SYMBOL        Buffer_Write_MF
BL51 BANKED LINKER/LOCATER V6.22.2.0                                                  11/13/2020  15:29:26  PAGE 123


  C:B350H         LINE#         1837
  C:B350H         LINE#         1838
  C:B350H         LINE#         1839
  C:B355H         LINE#         1840
  C:B35EH         LINE#         1841
  C:B37EH         LINE#         1842
  C:B380H         LINE#         1845
  -------         ENDPROC       _TARJETA_ROTACION
  -------         PROC          _VALIDA_TIPO_TARJETA
  X:0002H         SYMBOL        Atributos_Expedidor
  X:0005H         SYMBOL        Buffer_Write_MF
  -------         DO            
  X:0008H         SYMBOL        Estado_expedidor
  -------         ENDDO         
  C:5AD3H         LINE#         1846
  C:5ADEH         LINE#         1847
  C:5ADEH         LINE#         1849
  C:5AEBH         LINE#         1850
  C:5AEBH         LINE#         1851
  C:5AF4H         LINE#         1852
  C:5AFAH         LINE#         1853
  C:5AFAH         LINE#         1857
  C:5B08H         LINE#         1858
  C:5B08H         LINE#         1861
  C:5B25H         LINE#         1862
  C:5B25H         LINE#         1863
  C:5B42H         LINE#         1865
  C:5B44H         LINE#         1867
  C:5B44H         LINE#         1868
  C:5B4DH         LINE#         1869
  C:5B4FH         LINE#         1870
  C:5B4FH         LINE#         1871
  C:5B4FH         LINE#         1872
  C:5B52H         LINE#         1875
  C:5B52H         LINE#         1876
  C:5B5BH         LINE#         1878
  C:5B7EH         LINE#         1879
  C:5B7EH         LINE#         1880
  C:5B81H         LINE#         1882
  C:5B81H         LINE#         1883
  C:5B86H         LINE#         1884
  C:5B8BH         LINE#         1885
  C:5B8EH         LINE#         1886
  C:5B8EH         LINE#         1887
  C:5B91H         LINE#         1888
  C:5BA9H         LINE#         1889
  C:5BA9H         LINE#         1891
  C:5BB2H         LINE#         1892
  C:5BB8H         LINE#         1893
  C:5BB8H         LINE#         1894
  C:5BC4H         LINE#         1895
  C:5BC4H         LINE#         1896
  C:5BE1H         LINE#         1898
  C:5BE1H         LINE#         1899
  C:5C01H         LINE#         1900
  C:5C03H         LINE#         1902
  C:5C03H         LINE#         1903
BL51 BANKED LINKER/LOCATER V6.22.2.0                                                  11/13/2020  15:29:26  PAGE 124


  C:5C0CH         LINE#         1904
  C:5C11H         LINE#         1905
  C:5C16H         LINE#         1906
  C:5C19H         LINE#         1907
  C:5C19H         LINE#         1908
  C:5C1BH         LINE#         1910
  C:5C1BH         LINE#         1911
  C:5C24H         LINE#         1912
  C:5C47H         LINE#         1913
  C:5C47H         LINE#         1914
  C:5C49H         LINE#         1916
  C:5C49H         LINE#         1918
  C:5C4EH         LINE#         1919
  C:5C53H         LINE#         1920
  C:5C59H         LINE#         1921
  C:5C59H         LINE#         1922
  C:5C5BH         LINE#         1924
  C:5C5BH         LINE#         1925
  C:5C64H         LINE#         1926
  C:5C69H         LINE#         1928
  C:5C71H         LINE#         1929
  C:5C71H         LINE#         1931
  C:5C76H         LINE#         1932
  -------         ENDPROC       _VALIDA_TIPO_TARJETA
  -------         PROC          _HORARIOS
  X:0010H         SYMBOL        Atributos_Expedidor
  -------         DO            
  X:0013H         SYMBOL        Estado_Horario
  X:0014H         SYMBOL        Addr_horarios
  X:001FH         SYMBOL        dia_semana
  X:0020H         SYMBOL        EE_dia_semana
  X:0021H         SYMBOL        addr
  -------         ENDDO         
  C:6FF8H         LINE#         2026
  C:7003H         LINE#         2027
  C:7003H         LINE#         2033
  C:700EH         LINE#         2034
  C:700EH         LINE#         2036
  C:701AH         LINE#         2038
  C:7040H         LINE#         2042
  C:7053H         LINE#         2043
  C:7053H         LINE#         2045
  C:705DH         LINE#         2046
  C:7066H         LINE#         2047
  C:706EH         LINE#         2048
  C:7077H         LINE#         2051
  C:709CH         LINE#         2052
  C:70A5H         LINE#         2053
  C:70ADH         LINE#         2054
  C:70B6H         LINE#         2056
  C:70C0H         LINE#         2057
  C:70C0H         LINE#         2059
  C:70CEH         LINE#         2060
  C:70D0H         LINE#         2062
  C:70D0H         LINE#         2064
  C:70D9H         LINE#         2065
  C:70DEH         LINE#         2066
BL51 BANKED LINKER/LOCATER V6.22.2.0                                                  11/13/2020  15:29:26  PAGE 125


  C:70DEH         LINE#         2067
  C:70E0H         LINE#         2069
  C:70E0H         LINE#         2071
  C:70E5H         LINE#         2072
  C:70EAH         LINE#         2073
  C:70F0H         LINE#         2075
  C:70F0H         LINE#         2077
  C:70F2H         LINE#         2079
  C:70F2H         LINE#         2080
  C:70F8H         LINE#         2082
  C:7101H         LINE#         2083
  C:7101H         LINE#         2084
  C:7106H         LINE#         2085
  -------         ENDPROC       _HORARIOS
  -------         PROC          _HORA_MAXIMA
  X:002FH         SYMBOL        addr
  -------         DO            
  X:0031H         SYMBOL        Hora_High
  X:0032H         SYMBOL        Minuto_High
  X:0033H         SYMBOL        HoraIni
  X:0034H         SYMBOL        MinutoIni
  X:0035H         SYMBOL        Hora_Prog
  -------         ENDDO         
  C:905BH         LINE#         2086
  C:9063H         LINE#         2087
  C:9063H         LINE#         2092
  C:9078H         LINE#         2093
  C:9098H         LINE#         2094
  C:90B5H         LINE#         2095
  C:90D5H         LINE#         2096
  C:90DDH         LINE#         2097
  C:90E5H         LINE#         2098
  C:90EEH         LINE#         2100
  C:9106H         LINE#         2101
  -------         ENDPROC       _HORA_MAXIMA
  -------         PROC          _EN_HORARIO
  X:002AH         SYMBOL        HoraNow
  D:0004H         SYMBOL        Hora_Prog
  X:002CH         SYMBOL        addr
  -------         DO            
  X:002EH         SYMBOL        Estado_Horario
  -------         ENDDO         
  C:A59CH         LINE#         2102
  C:A5AAH         LINE#         2103
  C:A5AAH         LINE#         2106
  C:A5B7H         LINE#         2107
  C:A5B7H         LINE#         2110
  C:A5C0H         LINE#         2111
  C:A5D5H         LINE#         2114
  C:A5E4H         LINE#         2115
  C:A5E4H         LINE#         2117
  C:A5EBH         LINE#         2118
  C:A5F1H         LINE#         2119
  C:A5F3H         LINE#         2121
  C:A5F3H         LINE#         2124
  C:A5F7H         LINE#         2125
  C:A5F7H         LINE#         2126
BL51 BANKED LINKER/LOCATER V6.22.2.0                                                  11/13/2020  15:29:26  PAGE 126


  C:A5F7H         LINE#         2128
  C:A5F9H         LINE#         2130
  C:A5F9H         LINE#         2133
  C:A602H         LINE#         2134
  C:A607H         LINE#         2136
  C:A607H         LINE#         2137
  C:A60CH         LINE#         2138
  -------         ENDPROC       _EN_HORARIO
  -------         PROC          _BLOQUE_HORARIO
  X:0023H         SYMBOL        addr
  -------         DO            
  X:0025H         SYMBOL        Estado_Horario
  X:0026H         SYMBOL        HoraNow
  X:0028H         SYMBOL        Hora_Prog
  -------         ENDDO         
  C:7213H         LINE#         2140
  C:721BH         LINE#         2141
  C:721BH         LINE#         2147
  C:7224H         LINE#         2148
  C:722CH         LINE#         2149
  C:7234H         LINE#         2150
  C:723DH         LINE#         2151
  C:726BH         LINE#         2156
  C:7274H         LINE#         2157
  C:7289H         LINE#         2158
  C:72A1H         LINE#         2159
  C:72A3H         LINE#         2160
  C:72A3H         LINE#         2163
  C:72BBH         LINE#         2164
  C:72BBH         LINE#         2165
  C:72C4H         LINE#         2166
  C:72DFH         LINE#         2167
  C:72FDH         LINE#         2168
  C:72FFH         LINE#         2170
  C:72FFH         LINE#         2171
  C:7304H         LINE#         2172
  C:7309H         LINE#         2173
  C:730EH         LINE#         2174
  C:730EH         LINE#         2175
  C:730EH         LINE#         2177
  C:7315H         LINE#         2178
  -------         ENDPROC       _BLOQUE_HORARIO
  -------         PROC          SECUENCIA_INICIO_EXPEDIDOR
  -------         DO            
  X:0001H         SYMBOL        temp
  -------         ENDDO         
  C:65A3H         LINE#         2187
  C:65A3H         LINE#         2188
  C:65A3H         LINE#         2190
  C:65C3H         LINE#         2191
  C:65C3H         LINE#         2192
  C:65C3H         LINE#         2195
  C:65C8H         LINE#         2196
  C:65CEH         LINE#         2199
  C:65D0H         LINE#         2200
  C:65D0H         LINE#         2211
  C:65D0H         LINE#         2213
BL51 BANKED LINKER/LOCATER V6.22.2.0                                                  11/13/2020  15:29:26  PAGE 127


  C:65DEH         LINE#         2214
  C:65DEH         LINE#         2215
  C:65EAH         LINE#         2216
  C:65EAH         LINE#         2217
  C:65F0H         LINE#         2218
  C:65F3H         LINE#         2219
  C:65FBH         LINE#         2220
  C:65FBH         LINE#         2221
  C:6602H         LINE#         2222
  C:6616H         LINE#         2223
  C:6616H         LINE#         2224
  C:6618H         LINE#         2226
  C:6618H         LINE#         2227
  C:661FH         LINE#         2228
  C:6625H         LINE#         2229
  C:6625H         LINE#         2230
  C:6628H         LINE#         2232
  C:6628H         LINE#         2233
  C:6631H         LINE#         2234
  C:6645H         LINE#         2235
  C:664BH         LINE#         2236
  C:664BH         LINE#         2237
  C:664EH         LINE#         2238
  C:664EH         LINE#         2244
  C:664EH         LINE#         2246
  C:6651H         LINE#         2247
  C:6657H         LINE#         2251
  C:6659H         LINE#         2252
  C:6659H         LINE#         2262
  C:6659H         LINE#         2264
  C:6667H         LINE#         2265
  C:6667H         LINE#         2266
  C:6673H         LINE#         2267
  C:6673H         LINE#         2268
  C:6679H         LINE#         2269
  C:667BH         LINE#         2270
  C:6683H         LINE#         2271
  C:6683H         LINE#         2272
  C:668AH         LINE#         2273
  C:669EH         LINE#         2274
  C:669EH         LINE#         2275
  C:66A0H         LINE#         2277
  C:66A0H         LINE#         2278
  C:66A7H         LINE#         2279
  C:66ADH         LINE#         2280
  C:66ADH         LINE#         2281
  C:66AFH         LINE#         2283
  C:66AFH         LINE#         2284
  C:66B8H         LINE#         2285
  C:66CCH         LINE#         2286
  C:66D1H         LINE#         2287
  C:66D1H         LINE#         2289
  C:66D3H         LINE#         2290
  C:66D3H         LINE#         2296
  C:66D3H         LINE#         2298
  C:66D9H         LINE#         2299
  C:66D9H         LINE#         2302
BL51 BANKED LINKER/LOCATER V6.22.2.0                                                  11/13/2020  15:29:26  PAGE 128


  C:66D9H         LINE#         2303
  C:66E0H         LINE#         2304
  C:66E0H         LINE#         2305
  C:66E0H         LINE#         2306
  -------         ENDPROC       SECUENCIA_INICIO_EXPEDIDOR
  -------         PROC          _SECUENCIAEXPEDIDORMF
  X:0001H         SYMBOL        EstadoActivo
  -------         DO            
  X:010BH         SYMBOL        Buffer_Write_MF
  X:011CH         SYMBOL        Atributos_Expedidor
  X:012BH         SYMBOL        Secuencia_Expedidor
  X:012FH         SYMBOL        Nombre_Mensual
  -------         ENDDO         
  C:33F1H         LINE#         2316
  C:33F6H         LINE#         2317
  C:33F6H         LINE#         2323
  C:3453H         LINE#         2324
  C:3453H         LINE#         2327
  C:3453H         LINE#         2329
  C:3469H         LINE#         2330
  C:3469H         LINE#         2331
  C:346BH         LINE#         2332
  C:346DH         LINE#         2333
  C:3472H         LINE#         2334
  C:347AH         LINE#         2335
  C:347FH         LINE#         2336
  C:347FH         LINE#         2337
  C:3482H         LINE#         2338
  C:3482H         LINE#         2340
  C:348BH         LINE#         2341
  C:348EH         LINE#         2342
  C:348EH         LINE#         2343
  C:3493H         LINE#         2344
  C:34B3H         LINE#         2345
  C:34B6H         LINE#         2346
  C:34B6H         LINE#         2347
  C:34BBH         LINE#         2348
  C:34C3H         LINE#         2349
  C:34C9H         LINE#         2350
  C:34CCH         LINE#         2351
  C:34CCH         LINE#         2352
  C:34CFH         LINE#         2353
  C:34D7H         LINE#         2354
  C:34DDH         LINE#         2355
  C:34E0H         LINE#         2356
  C:34E0H         LINE#         2357
  C:34E3H         LINE#         2358
  C:3508H         LINE#         2359
  C:350EH         LINE#         2360
  C:3510H         LINE#         2361
  C:3513H         LINE#         2362
  C:3513H         LINE#         2363
  C:351EH         LINE#         2364
  C:3526H         LINE#         2365
  C:352CH         LINE#         2366
  C:352FH         LINE#         2367
  C:352FH         LINE#         2368
BL51 BANKED LINKER/LOCATER V6.22.2.0                                                  11/13/2020  15:29:26  PAGE 129


  C:3540H         LINE#         2369
  C:3548H         LINE#         2370
  C:354EH         LINE#         2371
  C:3551H         LINE#         2372
  C:3551H         LINE#         2373
  C:3556H         LINE#         2374
  C:3574H         LINE#         2375
  C:3577H         LINE#         2376
  C:3577H         LINE#         2377
  C:357CH         LINE#         2378
  C:359CH         LINE#         2379
  C:359FH         LINE#         2380
  C:359FH         LINE#         2381
  C:35A4H         LINE#         2382
  C:35A6H         LINE#         2383
  C:35C4H         LINE#         2384
  C:35C7H         LINE#         2385
  C:35C7H         LINE#         2386
  C:35CCH         LINE#         2387
  C:35ECH         LINE#         2388
  C:35EFH         LINE#         2389
  C:35EFH         LINE#         2390
  C:3605H         LINE#         2391
  C:3605H         LINE#         2392
  C:360AH         LINE#         2393
  C:3612H         LINE#         2394
  C:3618H         LINE#         2395
  C:3618H         LINE#         2396
  C:361BH         LINE#         2397
  C:361BH         LINE#         2398
  C:361EH         LINE#         2399
  C:363EH         LINE#         2400
  C:3641H         LINE#         2401
  C:3641H         LINE#         2402
  C:3643H         LINE#         2403
  C:3646H         LINE#         2404
  C:3649H         LINE#         2405
  C:3649H         LINE#         2406
  C:3652H         LINE#         2407
  C:3655H         LINE#         2408
  C:3655H         LINE#         2409
  C:366CH         LINE#         2410
  C:366FH         LINE#         2411
  C:366FH         LINE#         2412
  C:3672H         LINE#         2413
  C:367AH         LINE#         2414
  C:3680H         LINE#         2415
  C:3683H         LINE#         2416
  C:3683H         LINE#         2417
  C:368CH         LINE#         2418
  C:368FH         LINE#         2419
  C:368FH         LINE#         2420
  C:3691H         LINE#         2421
  C:3694H         LINE#         2422
  C:3697H         LINE#         2423
  C:3697H         LINE#         2424
  C:36AEH         LINE#         2425
BL51 BANKED LINKER/LOCATER V6.22.2.0                                                  11/13/2020  15:29:26  PAGE 130


  C:36B1H         LINE#         2426
  C:36B1H         LINE#         2427
  C:36B6H         LINE#         2428
  C:36BEH         LINE#         2429
  C:36C4H         LINE#         2430
  C:36C7H         LINE#         2431
  C:36C7H         LINE#         2432
  C:36CAH         LINE#         2433
  C:36EAH         LINE#         2434
  C:36EDH         LINE#         2435
  C:36EDH         LINE#         2436
  C:36F0H         LINE#         2437
  C:3710H         LINE#         2438
  C:3713H         LINE#         2439
  C:3713H         LINE#         2440
  C:3716H         LINE#         2441
  C:371EH         LINE#         2442
  C:3721H         LINE#         2443
  C:3723H         LINE#         2447
  C:3723H         LINE#         2448
  C:3729H         LINE#         2449
  C:372FH         LINE#         2450
  C:372FH         LINE#         2451
  C:3737H         LINE#         2452
  C:373DH         LINE#         2454
  C:3740H         LINE#         2455
  C:3748H         LINE#         2456
  C:3748H         LINE#         2458
  C:374BH         LINE#         2459
  C:374EH         LINE#         2460
  C:3756H         LINE#         2461
  C:3756H         LINE#         2462
  C:3764H         LINE#         2463
  C:3764H         LINE#         2464
  C:376DH         LINE#         2465
  C:3770H         LINE#         2466
  C:377CH         LINE#         2467
  C:377CH         LINE#         2468
  C:3785H         LINE#         2469
  C:3788H         LINE#         2471
  C:3788H         LINE#         2472
  C:3791H         LINE#         2473
  C:3791H         LINE#         2474
  C:3794H         LINE#         2475
  C:379CH         LINE#         2476
  C:379CH         LINE#         2477
  C:37AAH         LINE#         2478
  C:37AAH         LINE#         2479
  C:37C0H         LINE#         2480
  C:37C3H         LINE#         2481
  C:37CFH         LINE#         2482
  C:37CFH         LINE#         2483
  C:37D8H         LINE#         2484
  C:37DBH         LINE#         2485
  C:37E9H         LINE#         2486
  C:37E9H         LINE#         2487
  C:37F2H         LINE#         2488
BL51 BANKED LINKER/LOCATER V6.22.2.0                                                  11/13/2020  15:29:26  PAGE 131


  C:37F4H         LINE#         2490
  C:37F4H         LINE#         2491
  C:37FDH         LINE#         2492
  C:37FDH         LINE#         2493
  C:37FFH         LINE#         2494
  C:3807H         LINE#         2495
  C:3807H         LINE#         2496
  C:3810H         LINE#         2497
  C:3812H         LINE#         2498
  C:381AH         LINE#         2499
  C:381AH         LINE#         2500
  C:3830H         LINE#         2501
  C:3832H         LINE#         2502
  C:383AH         LINE#         2503
  C:383AH         LINE#         2504
  C:383DH         LINE#         2505
  C:383FH         LINE#         2507
  C:3847H         LINE#         2508
  C:3847H         LINE#         2509
  C:3850H         LINE#         2510
  C:3852H         LINE#         2513
  C:385AH         LINE#         2514
  C:385AH         LINE#         2515
  C:3862H         LINE#         2516
  C:3864H         LINE#         2518
  C:3864H         LINE#         2519
  C:386DH         LINE#         2520
  C:386DH         LINE#         2521
  C:386FH         LINE#         2522
  C:386FH         LINE#         2523
  C:3874H         LINE#         2524
  C:3874H         LINE#         2526
  C:3874H         LINE#         2527
  C:3879H         LINE#         2528
  -------         ENDPROC       _SECUENCIAEXPEDIDORMF
  -------         ENDMOD        VERIFICADOR

  -------         MODULE        MONITOR
  C:0000H         SYMBOL        _ICE_DUMMY_
  D:0080H         PUBLIC        P0
  D:0090H         PUBLIC        P1
  I:0011H         PUBLIC        placa
  C:B520H         PUBLIC        Rx_Monitor
  B:0080H.0       PUBLIC        rx_ip
  B:0090H.7       PUBLIC        lock
  C:89CAH         PUBLIC        _recibe_cmd_Monitor
  C:B642H         PUBLIC        clear_placa
  C:9300H         PUBLIC        _Valida_Trama_Monitor
  -------         PROC          _RECIBE_CMD_MONITOR
  X:0016H         SYMBOL        buffer_cmd
  -------         DO            
  X:0019H         SYMBOL        j
  X:001AH         SYMBOL        NumDatos
  X:001BH         SYMBOL        time_out
  X:001CH         SYMBOL        MaxChrRx
  X:001DH         SYMBOL        contador
  -------         ENDDO         
BL51 BANKED LINKER/LOCATER V6.22.2.0                                                  11/13/2020  15:29:26  PAGE 132


  C:89CAH         LINE#         44
  C:89D5H         LINE#         45
  C:89D5H         LINE#         49
  C:89DAH         LINE#         50
  C:89E0H         LINE#         52
  C:89EBH         LINE#         53
  C:89EBH         LINE#         54
  C:89FCH         LINE#         55
  C:89FCH         LINE#         56
  C:8A03H         LINE#         57
  C:8A07H         LINE#         58
  C:8A10H         LINE#         59
  C:8A10H         LINE#         60
  C:8A1EH         LINE#         61
  C:8A35H         LINE#         62
  C:8A35H         LINE#         63
  C:8A3BH         LINE#         64
  C:8A41H         LINE#         65
  C:8A41H         LINE#         66
  C:8A43H         LINE#         67
  C:8A4BH         LINE#         68
  C:8A51H         LINE#         69
  C:8A63H         LINE#         70
  C:8A6DH         LINE#         71
  C:8A76H         LINE#         73
  C:8A85H         LINE#         76
  C:8A85H         LINE#         77
  C:8A8AH         LINE#         78
  -------         ENDPROC       _RECIBE_CMD_MONITOR
  -------         PROC          _VALIDA_TRAMA_MONITOR
  X:0016H         SYMBOL        buffer
  X:0019H         SYMBOL        length_trama
  -------         DO            
  D:0007H         SYMBOL        j
  D:0006H         SYMBOL        p
  X:001AH         SYMBOL        cont
  -------         ENDDO         
  C:9300H         LINE#         83
  C:930EH         LINE#         84
  C:930EH         LINE#         85
  C:9310H         LINE#         86
  C:9312H         LINE#         87
  C:9314H         LINE#         88
  C:9319H         LINE#         91
  C:933FH         LINE#         92
  C:933FH         LINE#         93
  C:9341H         LINE#         94
  C:9345H         LINE#         95
  C:9346H         LINE#         97
  C:9356H         LINE#         98
  C:9356H         LINE#         101
  C:9356H         LINE#         102
  C:9370H         LINE#         103
  C:9371H         LINE#         104
  C:9372H         LINE#         105
  C:9382H         LINE#         106
  C:9396H         LINE#         107
BL51 BANKED LINKER/LOCATER V6.22.2.0                                                  11/13/2020  15:29:26  PAGE 133


  C:939CH         LINE#         108
  C:939EH         LINE#         109
  C:93A4H         LINE#         112
  C:93A4H         LINE#         115
  -------         ENDPROC       _VALIDA_TRAMA_MONITOR
  -------         PROC          CLEAR_PLACA
  -------         DO            
  D:0007H         SYMBOL        i
  -------         ENDDO         
  C:B642H         LINE#         116
  C:B642H         LINE#         117
  C:B642H         LINE#         119
  C:B64EH         LINE#         120
  C:B64EH         LINE#         121
  C:B654H         LINE#         122
  C:B657H         LINE#         123
  C:B659H         LINE#         124
  -------         ENDPROC       CLEAR_PLACA
  -------         PROC          RX_MONITOR
  -------         DO            
  X:0009H         SYMBOL        Length_trama
  X:000AH         SYMBOL        buffer1
  -------         ENDDO         
  C:B520H         LINE#         125
  C:B520H         LINE#         126
  C:B520H         LINE#         129
  C:B52FH         LINE#         130
  C:B538H         LINE#         131
  -------         ENDPROC       RX_MONITOR
  -------         ENDMOD        MONITOR

  -------         MODULE        ?C?FPADD
  C:1335H         PUBLIC        ?C?FPADD
  C:1331H         PUBLIC        ?C?FPSUB
  -------         ENDMOD        ?C?FPADD

  -------         MODULE        ?C?FPMUL
  C:1426H         PUBLIC        ?C?FPMUL
  -------         ENDMOD        ?C?FPMUL

  -------         MODULE        ?C?FCAST
  C:1536H         PUBLIC        ?C?FCASTC
  C:1531H         PUBLIC        ?C?FCASTI
  C:152CH         PUBLIC        ?C?FCASTL
  -------         ENDMOD        ?C?FCAST

  -------         MODULE        ?C?CASTF
  C:156AH         PUBLIC        ?C?CASTF
  -------         ENDMOD        ?C?CASTF

  -------         MODULE        PRINTF
  X:0077H         PUBLIC        ?_PRINTF?BYTE
  X:0077H         PUBLIC        ?_SPRINTF?BYTE
  C:38E5H         PUBLIC        _PRINTF
  C:38DFH         PUBLIC        _SPRINTF
  -------         ENDMOD        PRINTF

BL51 BANKED LINKER/LOCATER V6.22.2.0                                                  11/13/2020  15:29:26  PAGE 134


  -------         MODULE        POW
  X:0020H         PUBLIC        ?_pow?BYTE
  C:5DE5H         PUBLIC        _pow
  -------         ENDMOD        POW

  -------         MODULE        ?C?CHKFLOAT
  C:15EBH         PUBLIC        ?C?CHKFLOAT
  -------         ENDMOD        ?C?CHKFLOAT

  -------         MODULE        ?C?FPCMP
  C:1607H         PUBLIC        ?C?FPCMP
  C:1605H         PUBLIC        ?C?FPCMP3
  -------         ENDMOD        ?C?FPCMP

  -------         MODULE        ?C?FPNEG
  C:167EH         PUBLIC        ?C?FPNEG
  -------         ENDMOD        ?C?FPNEG

  -------         MODULE        ?C?FPROUND
  C:168FH         PUBLIC        ?C?FPROUND
  -------         ENDMOD        ?C?FPROUND

  -------         MODULE        ?C?FPCONVERT
  C:16CCH         PUBLIC        ?C?FPCONVERT
  -------         ENDMOD        ?C?FPCONVERT

  -------         MODULE        EXP
  C:9654H         PUBLIC        _EXP
  -------         ENDMOD        EXP

  -------         MODULE        LOG
  C:6977H         PUBLIC        _LOG
  C:6973H         PUBLIC        _LOG10
  -------         ENDMOD        LOG

  -------         MODULE        ?C?FPDIV
  C:17D4H         PUBLIC        ?C?FPDIV
  -------         ENDMOD        ?C?FPDIV

  -------         MODULE        ?C?FTNPWR
  C:18A1H         PUBLIC        ?C?FTNPWR
  -------         ENDMOD        ?C?FTNPWR

  -------         MODULE        ?C?COPY
  C:19FEH         PUBLIC        ?C?COPY
  -------         ENDMOD        ?C?COPY

  -------         MODULE        ?C?CLDPTR
  C:1A24H         PUBLIC        ?C?CLDPTR
  -------         ENDMOD        ?C?CLDPTR

  -------         MODULE        ?C?CLDOPTR
  C:1A3DH         PUBLIC        ?C?CLDOPTR
  -------         ENDMOD        ?C?CLDOPTR

  -------         MODULE        ?C?CSTPTR
  C:1A6AH         PUBLIC        ?C?CSTPTR
BL51 BANKED LINKER/LOCATER V6.22.2.0                                                  11/13/2020  15:29:26  PAGE 135


  -------         ENDMOD        ?C?CSTPTR

  -------         MODULE        ?C?CSTOPTR
  C:1A7CH         PUBLIC        ?C?CSTOPTR
  -------         ENDMOD        ?C?CSTOPTR

  -------         MODULE        ?C?IMUL
  C:1A9EH         PUBLIC        ?C?IMUL
  -------         ENDMOD        ?C?IMUL

  -------         MODULE        ?C?IILDX
  C:1AB0H         PUBLIC        ?C?IILDX
  -------         ENDMOD        ?C?IILDX

  -------         MODULE        ?C?LNEG
  C:1AC6H         PUBLIC        ?C?LNEG
  -------         ENDMOD        ?C?LNEG

  -------         MODULE        ?C?SLCMP
  C:1AD4H         PUBLIC        ?C?SLCMP
  -------         ENDMOD        ?C?SLCMP

  -------         MODULE        ?C?ULCMP
  C:1AEAH         PUBLIC        ?C?ULCMP
  -------         ENDMOD        ?C?ULCMP

  -------         MODULE        ?C?ULSHR
  C:1AFBH         PUBLIC        ?C?ULSHR
  -------         ENDMOD        ?C?ULSHR

  -------         MODULE        ?C?LSHL
  C:1B0EH         PUBLIC        ?C?LSHL
  -------         ENDMOD        ?C?LSHL

  -------         MODULE        ?C?LLDCODE
  C:1B21H         PUBLIC        ?C?LLDCODE
  -------         ENDMOD        ?C?LLDCODE

  -------         MODULE        ?C?LLDXDATA0
  C:1B31H         PUBLIC        ?C?LLDXDATA0
  -------         ENDMOD        ?C?LLDXDATA0

  -------         MODULE        ?C?LLDCODE0
  C:1B3DH         PUBLIC        ?C?LLDCODE0
  -------         ENDMOD        ?C?LLDCODE0

  -------         MODULE        ?C?LSTXDATA
  C:1B4DH         PUBLIC        ?C?LSTXDATA
  -------         ENDMOD        ?C?LSTXDATA

  -------         MODULE        ?C?LSTKXDATA
  C:1B59H         PUBLIC        ?C?LSTKXDATA
  -------         ENDMOD        ?C?LSTKXDATA

  -------         MODULE        ?C?PLDIXDATA
  C:1B8AH         PUBLIC        ?C?PLDIXDATA
  -------         ENDMOD        ?C?PLDIXDATA
BL51 BANKED LINKER/LOCATER V6.22.2.0                                                  11/13/2020  15:29:26  PAGE 136



  -------         MODULE        ?C?PSTXDATA
  C:1BA1H         PUBLIC        ?C?PSTXDATA
  -------         ENDMOD        ?C?PSTXDATA

  -------         MODULE        ?C?CCASE
  C:1BAAH         PUBLIC        ?C?CCASE
  -------         ENDMOD        ?C?CCASE

  -------         MODULE        STRCAT
  X:0046H         PUBLIC        ?_strcat?BYTE
  C:A6EBH         PUBLIC        _strcat
  -------         ENDMOD        STRCAT

  -------         MODULE        ?C?STRCMP
  C:1D4EH         PUBLIC        ?C?STRCMP
  -------         ENDMOD        ?C?STRCMP

  -------         MODULE        ?C?STRCPY
  C:1E37H         PUBLIC        ?C?STRCPY
  -------         ENDMOD        ?C?STRCPY

  -------         MODULE        STRLEN
  C:000EH         PUBLIC        _STRLEN
  -------         ENDMOD        STRLEN

  -------         MODULE        STRTOK
  X:0064H         PUBLIC        ?_strtok?BYTE
  C:7CD5H         PUBLIC        _strtok
  -------         ENDMOD        STRTOK

  -------         MODULE        ATOL
  C:7107H         PUBLIC        _atol
  -------         ENDMOD        ATOL

  -------         MODULE        ATOI
  C:7E97H         PUBLIC        _atoi
  -------         ENDMOD        ATOI

  -------         MODULE        MALLOC
  C:82C2H         PUBLIC        _malloc
  -------         ENDMOD        MALLOC

  -------         MODULE        INIT_MEM
  X:0256H         PUBLIC        __mem_avail__
  C:B0EBH         PUBLIC        _init_mempool
  -------         ENDMOD        INIT_MEM

  -------         MODULE        FREE
  C:6326H         PUBLIC        _free
  -------         ENDMOD        FREE

  -------         MODULE        ?C?ILDIX
  C:1E54H         PUBLIC        ?C?ILDIX
  -------         ENDMOD        ?C?ILDIX

  -------         MODULE        ?C?LMUL
BL51 BANKED LINKER/LOCATER V6.22.2.0                                                  11/13/2020  15:29:26  PAGE 137


  C:1E6AH         PUBLIC        ?C?LMUL
  -------         ENDMOD        ?C?LMUL

  -------         MODULE        ISDIGIT
  C:B752H         PUBLIC        _isdigit
  -------         ENDMOD        ISDIGIT

  -------         MODULE        ISSPACE
  C:B6B2H         PUBLIC        _isspace
  -------         ENDMOD        ISSPACE

  -------         MODULE        STRSPN
  X:006AH         PUBLIC        ?_strspn?BYTE
  C:A030H         PUBLIC        _strspn
  -------         ENDMOD        STRSPN

  -------         MODULE        STRPBRK
  X:006AH         PUBLIC        ?_strpbrk?BYTE
  C:A136H         PUBLIC        _strpbrk
  -------         ENDMOD        STRPBRK

Program Size: data=99.1 xdata=618 code=47069
LINK/LOCATE RUN COMPLETE.  0 WARNING(S),  0 ERROR(S)
