BL51 BANKED LINKER/LOCATER V6.22.2.0                                                    06/08/2021  15:03:37  PAGE 1


BL51 BANKED LINKER/LOCATER V6.22.2.0, INVOKED BY:
C:\KEIL_V5\C51\BIN\BL51.EXE .\Objects\main.obj, .\Objects\Accescan.obj, .\Objects\Clock.obj, .\Objects\delay.obj, .\Obje
>> cts\eeprom.obj, .\Objects\io_sensores.obj, .\Objects\pantallas.obj, .\Objects\prog.obj, .\Objects\pto_paralelo.obj, .
>> \Objects\tibbo.obj, .\Objects\uart.obj, .\Objects\lintech.obj, .\Objects\verificador.obj, .\Objects\Monitor.obj TO .\
>> Objects\expedidor_v_01_raspberry PRINT (.\Listings\expedidor_v_01_raspberry.m51) RAMSIZE (256)


MEMORY MODEL: LARGE WITH FLOATING POINT ARITHMETIC


INPUT MODULES INCLUDED:
  .\Objects\main.obj (MAIN)
  .\Objects\Accescan.obj (ACCESCAN)
  .\Objects\Clock.obj (CLOCK)
  .\Objects\delay.obj (DELAY)
  .\Objects\eeprom.obj (EEPROM)
  .\Objects\io_sensores.obj (IO_SENSORES)
  .\Objects\pantallas.obj (PANTALLAS)
  .\Objects\prog.obj (PROG)
  .\Objects\pto_paralelo.obj (PTO_PARALELO)
  .\Objects\tibbo.obj (TIBBO)
  .\Objects\uart.obj (UART)
  .\Objects\lintech.obj (LINTECH)
  .\Objects\verificador.obj (VERIFICADOR)
  .\Objects\Monitor.obj (MONITOR)
  C:\KEIL_V5\C51\LIB\C51FPL.LIB (?C?FPADD)
  C:\KEIL_V5\C51\LIB\C51FPL.LIB (?C?FPMUL)
  C:\KEIL_V5\C51\LIB\C51FPL.LIB (?C?FCAST)
  C:\KEIL_V5\C51\LIB\C51FPL.LIB (?C?CASTF)
  C:\KEIL_V5\C51\LIB\C51FPL.LIB (PRINTF)
  C:\KEIL_V5\C51\LIB\C51FPL.LIB (POW)
  C:\KEIL_V5\C51\LIB\C51FPL.LIB (?C?FPGETOPN)
  C:\KEIL_V5\C51\LIB\C51FPL.LIB (?C?CHKFLOAT)
  C:\KEIL_V5\C51\LIB\C51FPL.LIB (?C?FPCMP)
  C:\KEIL_V5\C51\LIB\C51FPL.LIB (?C?FPNEG)
  C:\KEIL_V5\C51\LIB\C51FPL.LIB (?C?FPROUND)
  C:\KEIL_V5\C51\LIB\C51FPL.LIB (?C?FPCONVERT)
  C:\KEIL_V5\C51\LIB\C51FPL.LIB (EXP)
  C:\KEIL_V5\C51\LIB\C51FPL.LIB (LOG)
  C:\KEIL_V5\C51\LIB\C51FPL.LIB (?C?FPDIV)
  C:\KEIL_V5\C51\LIB\C51FPL.LIB (?C?FTNPWR)
  C:\KEIL_V5\C51\LIB\C51FPL.LIB (?C?FPSERIES)
  C:\KEIL_V5\C51\LIB\C51L.LIB (?C_STARTUP)
  C:\KEIL_V5\C51\LIB\C51L.LIB (?C?COPY)
  C:\KEIL_V5\C51\LIB\C51L.LIB (?C?CLDPTR)
  C:\KEIL_V5\C51\LIB\C51L.LIB (?C?CLDOPTR)
  C:\KEIL_V5\C51\LIB\C51L.LIB (?C?CSTPTR)
  C:\KEIL_V5\C51\LIB\C51L.LIB (?C?CSTOPTR)
  C:\KEIL_V5\C51\LIB\C51L.LIB (?C?IMUL)
  C:\KEIL_V5\C51\LIB\C51L.LIB (?C?IILDX)
  C:\KEIL_V5\C51\LIB\C51L.LIB (?C?LNEG)
  C:\KEIL_V5\C51\LIB\C51L.LIB (?C?SLCMP)
  C:\KEIL_V5\C51\LIB\C51L.LIB (?C?ULCMP)
  C:\KEIL_V5\C51\LIB\C51L.LIB (?C?ULSHR)
  C:\KEIL_V5\C51\LIB\C51L.LIB (?C?LSHL)
  C:\KEIL_V5\C51\LIB\C51L.LIB (?C?LLDCODE)
  C:\KEIL_V5\C51\LIB\C51L.LIB (?C?LLDXDATA0)
  C:\KEIL_V5\C51\LIB\C51L.LIB (?C?LLDCODE0)
BL51 BANKED LINKER/LOCATER V6.22.2.0                                                  06/08/2021  15:03:37  PAGE 2


  C:\KEIL_V5\C51\LIB\C51L.LIB (?C?LSTXDATA)
  C:\KEIL_V5\C51\LIB\C51L.LIB (?C?LSTKXDATA)
  C:\KEIL_V5\C51\LIB\C51L.LIB (?C?PLDIXDATA)
  C:\KEIL_V5\C51\LIB\C51L.LIB (?C?PSTXDATA)
  C:\KEIL_V5\C51\LIB\C51L.LIB (?C?CCASE)
  C:\KEIL_V5\C51\LIB\C51L.LIB (STRCAT)
  C:\KEIL_V5\C51\LIB\C51L.LIB (?C?STRCMP)
  C:\KEIL_V5\C51\LIB\C51L.LIB (?C?STRCPY)
  C:\KEIL_V5\C51\LIB\C51L.LIB (STRLEN)
  C:\KEIL_V5\C51\LIB\C51L.LIB (STRTOK)
  C:\KEIL_V5\C51\LIB\C51L.LIB (ATOL)
  C:\KEIL_V5\C51\LIB\C51L.LIB (ATOI)
  C:\KEIL_V5\C51\LIB\C51L.LIB (?C_INIT)
  C:\KEIL_V5\C51\LIB\C51L.LIB (?C?ILDIX)
  C:\KEIL_V5\C51\LIB\C51L.LIB (?C?LMUL)
  C:\KEIL_V5\C51\LIB\C51L.LIB (ISDIGIT)
  C:\KEIL_V5\C51\LIB\C51L.LIB (ISSPACE)
  C:\KEIL_V5\C51\LIB\C51L.LIB (STRSPN)
  C:\KEIL_V5\C51\LIB\C51L.LIB (STRPBRK)


LINK MAP OF MODULE:  .\Objects\expedidor_v_01_raspberry (MAIN)


            TYPE    BASE      LENGTH    RELOCATION   SEGMENT NAME
            -----------------------------------------------------

            * * * * * * *   D A T A   M E M O R Y   * * * * * * *
            REG     0000H     0008H     ABSOLUTE     "REG BANK 0"
            DATA    0008H     0005H     UNIT         _DATA_GROUP_
            DATA    000DH     0004H     UNIT         ?DT?UART
            IDATA   0011H     0009H     UNIT         ?ID?MONITOR
                    001AH     0006H                  *** GAP ***
            BIT     0020H.0   0001H.1   UNIT         _BIT_GROUP_
            BIT     0021H.1   0000H.3   UNIT         ?BI?MAIN
            BIT     0021H.4   0000H.2   UNIT         ?BI?UART
            BIT     0021H.6   0000H.1   UNIT         ?BI?EEPROM
            BIT     0021H.7   0000H.1   UNIT         ?BI?IO_SENSORES
            BIT     0022H.0   0000H.1   UNIT         ?BI?VERIFICADOR
                    0022H.1   0000H.7                *** GAP ***
            IDATA   0023H     0046H     UNIT         ?ID?MAIN
            IDATA   0069H     0001H     UNIT         ?STACK

            * * * * * * *  X D A T A   M E M O R Y  * * * * * * *
            XDATA   0000H     00B7H     UNIT         _XDATA_GROUP_
            XDATA   00B7H     0091H     UNIT         ?XD?VERIFICADOR
            XDATA   0148H     006CH     UNIT         ?XD?MAIN
            XDATA   01B4H     0059H     UNIT         ?XD?PROG
            XDATA   020DH     0003H     UNIT         ?XD?EEPROM
            XDATA   0210H     0003H     UNIT         ?XD?UART
            XDATA   0213H     0003H     UNIT         ?XD?STRTOK
            XDATA   0216H     0002H     UNIT         ?XD?IO_SENSORES
            XDATA   0218H     0001H     UNIT         ?XD?ACCESCAN
            XDATA   0219H     0001H     UNIT         ?XD?CLOCK

            * * * * * * *   C O D E   M E M O R Y   * * * * * * *
            CODE    0000H     0003H     ABSOLUTE     
BL51 BANKED LINKER/LOCATER V6.22.2.0                                                  06/08/2021  15:03:37  PAGE 3


            CODE    0003H     0008H     UNIT         ?PR?P_CK?CLOCK
            CODE    000BH     0003H     ABSOLUTE     
            CODE    000EH     0015H     UNIT         ?PR?_STRLEN?STRLEN
            CODE    0023H     0003H     ABSOLUTE     
            CODE    0026H     1308H     UNIT         ?CO?PROG
            CODE    132EH     0B8BH     UNIT         ?C?LIB_CODE
            CODE    1EB9H     08BDH     UNIT         ?CO?VERIFICADOR
            CODE    2776H     0747H     UNIT         ?PR?_PANTALLALCD?PANTALLAS
            CODE    2EBDH     06EFH     UNIT         ?CO?PANTALLAS
            CODE    35ACH     04F9H     UNIT         ?PR?_VALIDA_TRAMA_PTO?ACCESCAN
            CODE    3AA5H     04DAH     UNIT         ?PR?_SECUENCIAEXPEDIDORMF?VERIFICADOR
            CODE    3F7FH     0483H     UNIT         ?PR?PRINTF?PRINTF
            CODE    4402H     035CH     UNIT         ?PR?VER_PROG?PROG
            CODE    475EH     02D0H     UNIT         ?PR?_TWO_BYTEHEX_DECIMAL?CLOCK
            CODE    4A2EH     02B7H     UNIT         ?PR?_PROG_HORARIO_DIAS?PROG
            CODE    4CE5H     02A5H     UNIT         ?PR?_PANTALLALCD_LINEA_2?PANTALLAS
            CODE    4F8AH     02A3H     UNIT         ?PR?_ARMAR_TRAMA_MONITOR?VERIFICADOR
            CODE    522DH     0256H     UNIT         ?PR?_ARMAR_TRAMA_PTO_PARALELO_EXPEDIDOR?VERIFICADOR
            CODE    5483H     022CH     UNIT         ?PR?MENU?PROG
            CODE    56AFH     0208H     UNIT         ?PR?_HASH_ID?PROG
            CODE    58B7H     01FAH     UNIT         ?PR?_PROG_HORARIO_DESDE_HASTA?PROG
            CODE    5AB1H     01F5H     UNIT         ?PR?PROG_FECHA_VENCIMIENTO?PROG
            CODE    5CA6H     01EBH     UNIT         ?PR?_ARMAR_TRAMA_TARJETA_SECTOR1_BLOQUE2?VERIFICADOR
            CODE    5E91H     01DFH     UNIT         ?PR?_RESPONDE_LECTURA_TARJETA_SECTOR1_BLOQUE1?VERIFICADOR
            CODE    6070H     01D8H     UNIT         ?PR?_BLOCK_READ_CLOCK_ASCII_RASBERRY?CLOCK
            CODE    6248H     01B3H     UNIT         ?PR?COM_ISR?UART
            CODE    63FBH     01A4H     UNIT         ?PR?_VALIDA_TIPO_TARJETA?VERIFICADOR
            CODE    659FH     01A3H     UNIT         ?CO?LINTECH
            CODE    6742H     016EH     UNIT         ?PR?_BLOCK_READ_CLOCK_ASCII?CLOCK
            CODE    68B0H     0166H     UNIT         ?PR?_POW?POW
            CODE    6A16H     0157H     UNIT         ?PR?_RESPONDE_REELECTURA_TARJETA_SECTOR1_BLOQUE2?VERIFICADOR
            CODE    6B6DH     0145H     UNIT         ?PR?PROG_HORARIOS?PROG
            CODE    6CB2H     013EH     UNIT         ?PR?PROG_SIN_COBRO?PROG
            CODE    6DF0H     013EH     UNIT         ?PR?SECUENCIA_INICIO_EXPEDIDOR?VERIFICADOR
            CODE    6F2EH     013CH     UNIT         ?PR?LOAD_AND_SEND_ID_COD?PTO_PARALELO
            CODE    706AH     0137H     UNIT         ?PR?VER_HORARIO?PROG
            CODE    71A1H     012EH     UNIT         ?PR?_ARMAR_TRAMA_PTO_PARALELO_EXPEDIDOR_MENSUAL?VERIFICADOR
            CODE    72CFH     012BH     UNIT         ?PR?_RESPONDE_LECTURA_TARJETA_SECTOR1_BLOQUE2?VERIFICADOR
            CODE    73FAH     0129H     UNIT         ?PR?LOG?LOG
            CODE    7523H     0128H     UNIT         ?PR?_VER_HORARIO_DIAS?PROG
            CODE    764BH     011AH     UNIT         ?PR?_PROG_HORARIOS_ON_OFF?PROG
            CODE    7765H     0119H     UNIT         ?PR?_VER_HORARIO_DESDE_HASTA?PROG
            CODE    787EH     0115H     UNIT         ?PR?_VALIDAR_CLK?CLOCK
            CODE    7993H     010FH     UNIT         ?PR?_HORARIOS?VERIFICADOR
            CODE    7AA2H     010CH     UNIT         ?PR?_ATOL?ATOL
            CODE    7BAEH     0100H     UNIT         ?PR?_WR_MF?LINTECH
            CODE    7CAEH     00FCH     UNIT         ?PR?PROG_DEBUG?PROG
            CODE    7DAAH     00FCH     UNIT         ?PR?PROG_USE_LPR?PROG
            CODE    7EA6H     00FCH     UNIT         ?PR?TIPO_PANTALLA?PROG
            CODE    7FA2H     00FCH     UNIT         ?PR?PROG_ANTIPASSBACK?PROG
            CODE    809EH     00FCH     UNIT         ?PR?PROG_PLACA?PROG
            CODE    819AH     00FCH     UNIT         ?PR?PROG_VALIDAR_TIPO_VEHICULO_MENSUAL?PROG
            CODE    8296H     00FCH     UNIT         ?PR?PROG_APB_MENSUAL?PROG
            CODE    8392H     00FCH     UNIT         ?PR?_BLOQUE_HORARIO?VERIFICADOR
            CODE    848EH     00F1H     UNIT         ?PR?_WRITE_EEPROM_TICKET?EEPROM
            CODE    857FH     00F0H     UNIT         ?CO?IO_SENSORES
            CODE    866FH     00EAH     UNIT         ?PR?_MOV_CARD?LINTECH
BL51 BANKED LINKER/LOCATER V6.22.2.0                                                  06/08/2021  15:03:37  PAGE 4


            CODE    8759H     00E4H     UNIT         ?PR?_STRTOK?STRTOK
            CODE    883DH     00DEH     UNIT         ?PR?PROG_ADDRESS_HIGH_BOARD?PROG
            CODE    891BH     00DBH     UNIT         ?PR?_ATOI?ATOI
            CODE    89F6H     00D7H     UNIT         ?PR?_ANALIZA_UID_CARD?VERIFICADOR
            CODE    8ACDH     00D6H     UNIT         ?PR?_CMD_LPR_SALIDA_WIEGAND?ACCESCAN
            CODE    8BA3H     00D3H     UNIT         ?C_INITSEG
            CODE    8C76H     00CCH     UNIT         ?PR?_GRABA_SERIE?EEPROM
            CODE    8D42H     00CBH     UNIT         ?PR?_RTA_CMD_TRANSPORTE?VERIFICADOR
            CODE    8E0DH     00CAH     UNIT         ?PR?READ_EEPROM_TICKET?EEPROM
            CODE    8ED7H     00C9H     UNIT         ?PR?_CHECK_FECHAOUT?CLOCK
            CODE    8FA0H     00C4H     UNIT         ?PR?_BLOCK_READ_CLOCK?CLOCK
            CODE    9064H     00C4H     UNIT         ?PR?_TARJETA_MENSUAL?VERIFICADOR
            CODE    9128H     00C3H     UNIT         ?PR?_RD_MF?LINTECH
            CODE    91EBH     00C2H     UNIT         ?PR?PROG_TARJETA_AUTOMATICA_O_BOTON?PROG
            CODE    92ADH     00C1H     UNIT         ?PR?_RECIBE_CMD_MONITOR?MONITOR
            CODE    936EH     00BEH     UNIT         ?PR?ERROR_RX_PTO?VERIFICADOR
            CODE    942CH     00BDH     UNIT         ?PR?PROG_COD_PARK?PROG
            CODE    94E9H     00BDH     UNIT         ?PR?PROG_TIEMPO_GRACIA?PROG
            CODE    95A6H     00BBH     UNIT         ?PR?_VALIDA_TRAMA_MONITOR?MONITOR
            CODE    9661H     00B9H     UNIT         ?CO?TIBBO
            CODE    971AH     00B6H     UNIT         ?PR?PROG_ID_CLIENTE?PROG
            CODE    97D0H     00B5H     UNIT         ?PR?_WAIT_PLACA?VERIFICADOR
            CODE    9885H     00B4H     UNIT         ?PR?_SEND_PORT?PTO_PARALELO
            CODE    9939H     00AFH     UNIT         ?PR?MSJ_LCD_INFORMATIVO?IO_SENSORES
            CODE    99E8H     00ACH     UNIT         ?PR?_HORA_MAXIMA?VERIFICADOR
            CODE    9A94H     00AAH     UNIT         ?PR?CLAVE_SEGURIDAD_S2?LINTECH
            CODE    9B3EH     00A9H     UNIT         ?PR?DWLOAD_EEPROM?LINTECH
            CODE    9BE7H     00A6H     UNIT         ?PR?_BLOCK_READ_CLOCK_HEX?CLOCK
            CODE    9C8DH     00A5H     UNIT         ?PR?_SEND_PTO_PARALELO?VERIFICADOR
            CODE    9D32H     00A4H     UNIT         ?PR?_ARMAR_TRAMA_TARJETA_SECTOR1_BLOQUE1_CAMCEL?VERIFICADOR
            CODE    9DD6H     00A1H     UNIT         ?PR?_BLOCK_WRITE_CLOCK_ASCII?CLOCK
            CODE    9E77H     009DH     UNIT         ?PR?_INICIALIZA?LINTECH
            CODE    9F14H     009CH     UNIT         ?PR?_RESPUESTA_PLACA_CANCEL?VERIFICADOR
            CODE    9FB0H     009AH     UNIT         ?PR?_RESPONDE_LECTURA_TARJETA_SECTOR1_BLOQUE0?VERIFICADOR
            CODE    A04AH     009AH     UNIT         ?PR?EXP?EXP
            CODE    A0E4H     0099H     UNIT         ?PR?SHOW?PROG
            CODE    A17DH     0099H     UNIT         ?PR?_RECIBE_PORT?PTO_PARALELO
            CODE    A216H     0098H     UNIT         ?PR?_VALIDA_VEHICULO_CARD_MENSUAL?VERIFICADOR
            CODE    A2AEH     0091H     UNIT         ?PR?_HEX_ASCII?CLOCK
            CODE    A33FH     0091H     UNIT         ?PR?_CARD_INSERCION?LINTECH
            CODE    A3D0H     0090H     UNIT         ?PR?_LEE_CLK?CLOCK
            CODE    A460H     0090H     UNIT         ?PR?_GETOPTION?PROG
            CODE    A4F0H     0090H     UNIT         ?PR?_DISPARO_LOCK_ENTRADA_VEHICULO?VERIFICADOR
            CODE    A580H     0090H     UNIT         ?PR?ENTREGA_CARD_CAPTURA?VERIFICADOR
            CODE    A610H     008DH     UNIT         ?PR?LOADVERIFY_EEPROM?LINTECH
            CODE    A69DH     008CH     UNIT         ?C_C51STARTUP
            CODE    A729H     0088H     UNIT         ?PR?_SEND_PORTERR?PTO_PARALELO
            CODE    A7B1H     0088H     UNIT         ?PR?RX_DATA?TIBBO
            CODE    A839H     0088H     UNIT         ?PR?UNIQUE_IDENTIFIER_UID?LINTECH
            CODE    A8C1H     0086H     UNIT         ?PR?_CHECK_STATUS?LINTECH
            CODE    A947H     0084H     UNIT         ?PR?_DEBUGBUFFERMF?TIBBO
            CODE    A9CBH     0084H     UNIT         ?PR?_STRSPN?STRSPN
            CODE    AA4FH     0083H     UNIT         ?PR?_RASPBERRY_DATA?PANTALLAS
            CODE    AAD2H     0081H     UNIT         ?PR?_STRPBRK?STRPBRK
            CODE    AB53H     0080H     UNIT         ?PR?_INGRESADATO?PROG
            CODE    ABD3H     0080H     UNIT         ?PR?AUT_CARD_CHECK_STATUS?LINTECH
            CODE    AC53H     0080H     UNIT         ?PR?POWER_OFF?LINTECH
BL51 BANKED LINKER/LOCATER V6.22.2.0                                                  06/08/2021  15:03:37  PAGE 5


            CODE    ACD3H     007FH     UNIT         ?PR?MAIN?MAIN
            CODE    AD52H     007DH     UNIT         ?PR?RELOJ_PANTALLA_LCD?PANTALLAS
            CODE    ADCFH     007CH     UNIT         ?PR?RESPONDE_ESTADO_SENSORES_TRANSPORTE?VERIFICADOR
            CODE    AE4BH     0077H     UNIT         ?PR?RESPONDE_TIPO_TARJETA?VERIFICADOR
            CODE    AEC2H     0074H     UNIT         ?PR?_HORA_ENTRADA_VEHICULO?CLOCK
            CODE    AF36H     0071H     UNIT         ?PR?_EN_HORARIO?VERIFICADOR
            CODE    AFA7H     006FH     UNIT         ?PR?_ESCRIBIRMEMORIA?EEPROM
            CODE    B016H     006CH     UNIT         ?PR?_RESPONDE_WRITE_TARJETA_SECTOR1_BLOQUE2?VERIFICADOR
            CODE    B082H     006BH     UNIT         ?PR?INGRESO_VEHICULO?VERIFICADOR
            CODE    B0EDH     006BH     UNIT         ?PR?_STRCAT?STRCAT
            CODE    B158H     0066H     UNIT         ?PR?_LEERMEMORIA?EEPROM
            CODE    B1BEH     0062H     UNIT         ?PR?_LISTACOMANDOS?PROG
            CODE    B220H     005EH     UNIT         ?PR?_BYTEHEX_DECIMAL?CLOCK
            CODE    B27EH     005DH     UNIT         ?PR?_RESPUESTA_SEGUNDA_CLAVE?VERIFICADOR
            CODE    B2DBH     005CH     UNIT         ?PR?_ARMAR_TRAMA_PLACA?VERIFICADOR
            CODE    B337H     005BH     UNIT         ?PR?VALIDA_SENSOR1_AUTO?IO_SENSORES
            CODE    B392H     0056H     UNIT         ?PR?_WR_EEPROM?EEPROM
            CODE    B3E8H     0054H     UNIT         ?PR?_PREGUNTA_LPR?VERIFICADOR
            CODE    B43CH     004DH     UNIT         ?PR?L_D_M?EEPROM
            CODE    B489H     004CH     UNIT         ?PR?LEE_NO_TICKET?EEPROM
            CODE    B4D5H     004CH     UNIT         ?PR?LOAD_AND_SEND_INFO_RELOJ?PTO_PARALELO
            CODE    B521H     004BH     UNIT         ?PR?_TX_AUX?TIBBO
            CODE    B56CH     0049H     UNIT         ?PR?_DEBUG_TXT_TIBBO?TIBBO
            CODE    B5B5H     0048H     UNIT         ?PR?FIRST_CLAVE?PROG
            CODE    B5FDH     0047H     UNIT         ?PR?_DEBUG_CHR_TIBBO?TIBBO
            CODE    B644H     0047H     UNIT         ?PR?_RESPONDE_WRITE_TARJETA_SECTOR2_BLOQUE0?VERIFICADOR
            CODE    B68BH     0046H     UNIT         ?PR?_ESCRIBIRCADENASOFT_BUFFER?MAIN
            CODE    B6D1H     0046H     UNIT         ?PR?_LCD_TXT_NUM_CHAR?PANTALLAS
            CODE    B717H     0046H     UNIT         ?PR?_DEBUG_HEXDEC?TIBBO
            CODE    B75DH     0045H     UNIT         ?PR?VARIABLE_INICIO?MAIN
            CODE    B7A2H     0044H     UNIT         ?PR?_LCD_TXT?PANTALLAS
            CODE    B7E6H     0043H     UNIT         ?PR?DIR_BOARD?IO_SENSORES
            CODE    B829H     0042H     UNIT         ?PR?_VALIDARCLAVE?PROG
            CODE    B86BH     0041H     UNIT         ?PR?_MONITOR_CHR?ACCESCAN
            CODE    B8ACH     0041H     UNIT         ?PR?_TWO_ONE?CLOCK
            CODE    B8EDH     0040H     UNIT         ?PR?_GETCMD?PROG
            CODE    B92DH     0040H     UNIT         ?PR?_DEBUG_PTO_PARALELO?TIBBO
            CODE    B96DH     003FH     UNIT         ?PR?_EB_CLK?CLOCK
            CODE    B9ACH     003EH     UNIT         ?PR?_PUTCHAR?MAIN
            CODE    B9EAH     003EH     UNIT         ?PR?TRAMA_VALIDACION_P_N?VERIFICADOR
            CODE    BA28H     003DH     UNIT         ?PR?_HEX_BCD?CLOCK
            CODE    BA65H     003DH     UNIT         ?PR?_RD_EEPROM?EEPROM
            CODE    BAA2H     003DH     UNIT         ?PR?_DEBUG_MONITOR?TIBBO
            CODE    BADFH     003DH     UNIT         ?PR?_LOAD_SECUENCIA_EXPEDIDOR?VERIFICADOR
            CODE    BB1CH     003BH     UNIT         ?CO?ACCESCAN
            CODE    BB57H     003BH     UNIT         ?CO?EEPROM
            CODE    BB92H     003BH     UNIT         ?PR?_COM_PUTCHAR?UART
            CODE    BBCDH     003AH     UNIT         ?PR?_DELAY_10MS?DELAY
            CODE    BC07H     003AH     UNIT         ?PR?ANALIZA_CARD_MOUNT_RF?VERIFICADOR
            CODE    BC41H     0038H     UNIT         ?PR?VALIDASENSORESPASO?IO_SENSORES
            CODE    BC79H     0036H     UNIT         ?PR?_RESPONDE_WRITE_TARJETA_SECTOR1_BLOQUE1?VERIFICADOR
            CODE    BCAFH     0036H     UNIT         ?PR?_RESPONDE_WRITE_TARJETA_SECTOR1_BLOQUE0?VERIFICADOR
            CODE    BCE5H     0034H     UNIT         ?PR?_CALCULO_BCC?ACCESCAN
            CODE    BD19H     0034H     UNIT         ?PR?INCREMENTE_TICKET?EEPROM
            CODE    BD4DH     0034H     UNIT         ?PR?ADDR_HORARIOS?PROG
            CODE    BD81H     0031H     UNIT         ?PR?_TARJETA_ROTACION?VERIFICADOR
            CODE    BDB2H     0030H     UNIT         ?PR?PREGUNTA_PLACA?VERIFICADOR
BL51 BANKED LINKER/LOCATER V6.22.2.0                                                  06/08/2021  15:03:37  PAGE 6


            CODE    BDE2H     002EH     UNIT         ?PR?TIMER0_INT?MAIN
            CODE    BE10H     002AH     UNIT         ?PR?COM_INITIALIZE?UART
            CODE    BE3AH     0028H     UNIT         ?PR?_WR_CLK?CLOCK
            CODE    BE62H     0028H     UNIT         ?PR?COM_BAUDRATE?UART
            CODE    BE8AH     0028H     UNIT         ?PR?_ARMAR_TRAMA_TARJETA_SECTOR1_BLOQUE0?VERIFICADOR
            CODE    BEB2H     0027H     UNIT         ?PR?_TX_CHRLCD?PANTALLAS
            CODE    BED9H     0026H     UNIT         ?PR?COM_GETCHAR?UART
            CODE    BEFFH     0026H     UNIT         ?PR?ANALIZA_PRESENCIA_MENSUAL?VERIFICADOR
            CODE    BF25H     0026H     UNIT         ?PR?RX_MONITOR?MONITOR
            CODE    BF4BH     0023H     UNIT         ?PR?ANALIZA_PRESENCIA_ROTACION?VERIFICADOR
            CODE    BF6EH     0022H     UNIT         ?PR?_E_D_M?EEPROM
            CODE    BF90H     0022H     UNIT         ?PR?VALIDASENSOR_CERO?IO_SENSORES
            CODE    BFB2H     0021H     UNIT         ?CO?PTO_PARALELO
            CODE    BFD3H     0020H     UNIT         ?PR?ACKD?EEPROM
            CODE    BFF3H     0020H     UNIT         ?PR?ACK_LECT?EEPROM
            CODE    C013H     001FH     UNIT         ?PR?VALIDASENSOR?IO_SENSORES
            CODE    C032H     001FH     UNIT         ?PR?TIME_BIT?TIBBO
            CODE    C051H     001EH     UNIT         ?PR?_BCD_HEX?CLOCK
            CODE    C06FH     001BH     UNIT         ?PR?_DELAY_1MS?DELAY
            CODE    C08AH     0018H     UNIT         ?PR?CLEAR_PLACA?MONITOR
            CODE    C0A2H     0017H     UNIT         ?PR?DISPLAYCURSOR?PROG
            CODE    C0B9H     0017H     UNIT         ?PR?TIME_MBIT?TIBBO
            CODE    C0D0H     0016H     UNIT         ?PR?DIR_BOARD_MONITOR?IO_SENSORES
            CODE    C0E6H     0014H     UNIT         ?CO?CLOCK
            CODE    C0FAH     0014H     UNIT         ?PR?_ISSPACE?ISSPACE
            CODE    C10EH     0012H     UNIT         ?PR?_DELAY_20US?DELAY
            CODE    C120H     0012H     UNIT         ?PR?START?EEPROM
            CODE    C132H     0012H     UNIT         ?PR?BOTTON?IO_SENSORES
            CODE    C144H     0012H     UNIT         ?PR?PULSO_BUS?PTO_PARALELO
            CODE    C156H     0012H     UNIT         ?PR?COM_RBUFLEN?UART
            CODE    C168H     0012H     UNIT         ?PR?COM_TBUFLEN?UART
            CODE    C17AH     0010H     UNIT         ?PR?INI_TIMER?MAIN
            CODE    C18AH     0010H     UNIT         ?PR?INICIA_BOARD?MAIN
            CODE    C19AH     000FH     UNIT         ?PR?_ISDIGIT?ISDIGIT
            CODE    C1A9H     000CH     UNIT         ?PR?_GETKEY?MAIN
            CODE    C1B5H     000AH     UNIT         ?PR?STOP?EEPROM
            CODE    C1BFH     000AH     UNIT         ?PR?COND_INI_PTO?PTO_PARALELO
            CODE    C1C9H     0009H     UNIT         ?PR?DEBUG_DIVIDIR_TEXTO?TIBBO
            CODE    C1D2H     0009H     UNIT         ?PR?CAPTURA_EXPULSA?VERIFICADOR
            CODE    C1DBH     0007H     UNIT         ?PR?COND_INI_CLOCK?CLOCK
            CODE    C1E2H     0007H     UNIT         ?PR?SEL_FUNCION?IO_SENSORES
            CODE    C1E9H     0007H     UNIT         ?PR?SEL_AUTO?IO_SENSORES
            CODE    C1F0H     0007H     UNIT         ?PR?SEL_PULSA?IO_SENSORES
            CODE    C1F7H     0007H     UNIT         ?PR?SEL_SENSOR2?IO_SENSORES
            CODE    C1FEH     0007H     UNIT         ?PR?SEL_SENSOR1?IO_SENSORES
            CODE    C205H     0007H     UNIT         ?PR?SEL_DIR1?IO_SENSORES
            CODE    C20CH     0007H     UNIT         ?PR?SEL_DIR2?IO_SENSORES
            CODE    C213H     0006H     UNIT         ?PR?P_ME?EEPROM
            CODE    C219H     0005H     UNIT         ?PR?ON_TIMER0_INTERRUP?MAIN
            CODE    C21EH     0005H     UNIT         ?PR?COND_INI_TIBBO?TIBBO
            CODE    C223H     0003H     UNIT         ?PR?OFF_TIMER0_INTERRUP?MAIN
            CODE    C226H     0001H     UNIT         ?PR?DELAY?DELAY



OVERLAY MAP OF MODULE:   .\Objects\expedidor_v_01_raspberry (MAIN)

BL51 BANKED LINKER/LOCATER V6.22.2.0                                                  06/08/2021  15:03:37  PAGE 7



SEGMENT                                             BIT_GROUP          DATA_GROUP          XDATA_GROUP
  +--> CALLED SEGMENT                            START    LENGTH     START    LENGTH     START    LENGTH
--------------------------------------------------------------------------------------------------------
?C_C51STARTUP                                    -----    -----      -----    -----      -----    -----
  +--> ?PR?MAIN?MAIN
  +--> ?C_INITSEG

?PR?MAIN?MAIN                                    -----    -----      -----    -----      0000H    0001H
  +--> ?PR?INI_TIMER?MAIN
  +--> ?PR?ON_TIMER0_INTERRUP?MAIN
  +--> ?PR?COM_INITIALIZE?UART
  +--> ?PR?COM_BAUDRATE?UART
  +--> ?PR?INICIA_BOARD?MAIN
  +--> ?PR?TIME_BIT?TIBBO
  +--> ?PR?_DELAY_20US?DELAY
  +--> ?PR?TIME_MBIT?TIBBO
  +--> ?PR?_TX_AUX?TIBBO
  +--> ?PR?SEL_FUNCION?IO_SENSORES
  +--> ?PR?MENU?PROG
  +--> ?PR?VARIABLE_INICIO?MAIN
  +--> ?PR?SECUENCIA_INICIO_EXPEDIDOR?VERIFI...
  +--> ?PR?RX_MONITOR?MONITOR
  +--> ?PR?_SECUENCIAEXPEDIDORMF?VERIFICADOR
  +--> ?PR?_RECIBE_PORT?PTO_PARALELO
  +--> ?PR?_DEBUG_PTO_PARALELO?TIBBO
  +--> ?PR?_VALIDA_TRAMA_PTO?ACCESCAN
  +--> ?PR?MSJ_LCD_INFORMATIVO?IO_SENSORES

?PR?COM_INITIALIZE?UART                          -----    -----      -----    -----      -----    -----
  +--> ?PR?COM_BAUDRATE?UART

?PR?INICIA_BOARD?MAIN                            -----    -----      -----    -----      -----    -----
  +--> ?PR?COND_INI_TIBBO?TIBBO
  +--> ?PR?COND_INI_CLOCK?CLOCK
  +--> ?PR?COND_INI_PTO?PTO_PARALELO

?PR?_TX_AUX?TIBBO                                -----    -----      -----    -----      -----    -----
  +--> ?PR?TIME_BIT?TIBBO

?PR?MENU?PROG                                    -----    -----      -----    -----      0001H    0045H
  +--> ?CO?PROG
  +--> ?PR?PRINTF?PRINTF
  +--> ?PR?_RD_EEPROM?EEPROM
  +--> ?PR?FIRST_CLAVE?PROG
  +--> ?PR?_WR_EEPROM?EEPROM
  +--> ?PR?_LEERMEMORIA?EEPROM
  +--> ?PR?_HASH_ID?PROG
  +--> ?PR?_INGRESADATO?PROG
  +--> ?PR?_GETCMD?PROG
  +--> ?PR?_ESCRIBIRMEMORIA?EEPROM
  +--> ?PR?_VALIDARCLAVE?PROG
  +--> ?PR?DISPLAYCURSOR?PROG
  +--> ?PR?_STRLEN?STRLEN
  +--> ?PR?_GETOPTION?PROG
  +--> ?PR?_STRCAT?STRCAT
  +--> ?PR?_LISTACOMANDOS?PROG
BL51 BANKED LINKER/LOCATER V6.22.2.0                                                  06/08/2021  15:03:37  PAGE 8


  +--> ?PR?PROG_ID_CLIENTE?PROG
  +--> ?PR?PROG_COD_PARK?PROG
  +--> ?PR?PROG_TIEMPO_GRACIA?PROG
  +--> ?PR?PROG_SIN_COBRO?PROG
  +--> ?PR?PROG_DEBUG?PROG
  +--> ?PR?PROG_USE_LPR?PROG
  +--> ?PR?TIPO_PANTALLA?PROG
  +--> ?PR?PROG_TARJETA_AUTOMATICA_O_BOTON?PROG
  +--> ?PR?PROG_ANTIPASSBACK?PROG
  +--> ?PR?PROG_PLACA?PROG
  +--> ?PR?PROG_ADDRESS_HIGH_BOARD?PROG
  +--> ?PR?PROG_HORARIOS?PROG
  +--> ?PR?PROG_VALIDAR_TIPO_VEHICULO_MENSUA...
  +--> ?PR?PROG_APB_MENSUAL?PROG
  +--> ?PR?VER_PROG?PROG
  +--> ?PR?SHOW?PROG
  +--> ?PR?PROG_FECHA_VENCIMIENTO?PROG

?PR?PRINTF?PRINTF                                0020H.0  0001H.1    0008H    0005H      0077H    0030H
  +--> ?PR?_PUTCHAR?MAIN

?PR?_PUTCHAR?MAIN                                -----    -----      -----    -----      00A7H    0003H
  +--> ?PR?_COM_PUTCHAR?UART

?PR?_COM_PUTCHAR?UART                            -----    -----      -----    -----      00AAH    0001H
  +--> ?PR?COM_TBUFLEN?UART

?PR?_RD_EEPROM?EEPROM                            -----    -----      -----    -----      -----    -----
  +--> ?PR?START?EEPROM
  +--> ?PR?ACK_LECT?EEPROM
  +--> ?PR?_E_D_M?EEPROM
  +--> ?PR?ACKD?EEPROM
  +--> ?PR?L_D_M?EEPROM
  +--> ?PR?STOP?EEPROM

?PR?ACK_LECT?EEPROM                              -----    -----      -----    -----      -----    -----
  +--> ?PR?_E_D_M?EEPROM

?PR?_E_D_M?EEPROM                                -----    -----      -----    -----      -----    -----
  +--> ?PR?P_ME?EEPROM

?PR?ACKD?EEPROM                                  -----    -----      -----    -----      -----    -----
  +--> ?PR?_E_D_M?EEPROM

?PR?FIRST_CLAVE?PROG                             -----    -----      -----    -----      0046H    000BH
  +--> ?PR?_BLOCK_READ_CLOCK_ASCII?CLOCK
  +--> ?PR?_HASH_ID?PROG
  +--> ?PR?_ESCRIBIRMEMORIA?EEPROM

?PR?_BLOCK_READ_CLOCK_ASCII?CLOCK                -----    -----      -----    -----      0051H    0003H
  +--> ?PR?_LEE_CLK?CLOCK

?PR?_LEE_CLK?CLOCK                               -----    -----      -----    -----      00B1H    0003H
  +--> ?PR?_DELAY_20US?DELAY
  +--> ?PR?_EB_CLK?CLOCK
  +--> ?PR?P_CK?CLOCK

BL51 BANKED LINKER/LOCATER V6.22.2.0                                                  06/08/2021  15:03:37  PAGE 9


?PR?_EB_CLK?CLOCK                                -----    -----      -----    -----      00B4H    0003H
  +--> ?PR?P_CK?CLOCK

?PR?P_CK?CLOCK                                   -----    -----      -----    -----      -----    -----
  +--> ?PR?DELAY?DELAY

?PR?_HASH_ID?PROG                                -----    -----      -----    -----      005DH    003FH
  +--> ?CO?PROG
  +--> ?PR?_LEERMEMORIA?EEPROM
  +--> ?PR?_CHECK_FECHAOUT?CLOCK
  +--> ?PR?_STRLEN?STRLEN

?PR?_LEERMEMORIA?EEPROM                          -----    -----      -----    -----      009CH    0005H
  +--> ?PR?_RD_EEPROM?EEPROM

?PR?_CHECK_FECHAOUT?CLOCK                        -----    -----      -----    -----      009CH    0012H
  +--> ?PR?_BLOCK_READ_CLOCK_HEX?CLOCK

?PR?_BLOCK_READ_CLOCK_HEX?CLOCK                  -----    -----      -----    -----      00AEH    0003H
  +--> ?PR?_LEE_CLK?CLOCK
  +--> ?PR?_BCD_HEX?CLOCK

?PR?_ESCRIBIRMEMORIA?EEPROM                      -----    -----      -----    -----      005DH    0005H
  +--> ?PR?_WR_EEPROM?EEPROM

?PR?_WR_EEPROM?EEPROM                            -----    -----      -----    -----      -----    -----
  +--> ?PR?START?EEPROM
  +--> ?PR?ACKD?EEPROM
  +--> ?PR?_E_D_M?EEPROM
  +--> ?PR?STOP?EEPROM
  +--> ?PR?_DELAY_1MS?DELAY
  +--> ?PR?_DELAY_20US?DELAY

?PR?_DELAY_1MS?DELAY                             -----    -----      -----    -----      -----    -----
  +--> ?PR?_DELAY_20US?DELAY

?PR?_INGRESADATO?PROG                            -----    -----      -----    -----      0071H    0004H
  +--> ?PR?_GETKEY?MAIN
  +--> ?CO?PROG
  +--> ?PR?PRINTF?PRINTF
  +--> ?PR?_PUTCHAR?MAIN

?PR?_GETKEY?MAIN                                 -----    -----      -----    -----      -----    -----
  +--> ?PR?COM_GETCHAR?UART

?PR?COM_GETCHAR?UART                             -----    -----      -----    -----      -----    -----
  +--> ?PR?COM_RBUFLEN?UART

?PR?_GETCMD?PROG                                 -----    -----      -----    -----      005DH    0007H
  +--> ?CO?PROG
  +--> ?PR?_STRTOK?STRTOK

?PR?_STRTOK?STRTOK                               -----    -----      -----    -----      0064H    0006H
  +--> ?PR?_STRSPN?STRSPN
  +--> ?PR?_STRPBRK?STRPBRK

?PR?_STRSPN?STRSPN                               -----    -----      -----    -----      006AH    0008H
BL51 BANKED LINKER/LOCATER V6.22.2.0                                                  06/08/2021  15:03:37  PAGE 10



?PR?_STRPBRK?STRPBRK                             -----    -----      -----    -----      006AH    0009H

?PR?_VALIDARCLAVE?PROG                           -----    -----      -----    -----      005DH    000EH

?PR?DISPLAYCURSOR?PROG                           -----    -----      -----    -----      -----    -----
  +--> ?CO?PROG
  +--> ?PR?PRINTF?PRINTF

?PR?_GETOPTION?PROG                              -----    -----      -----    -----      0046H    000BH
  +--> ?CO?PROG
  +--> ?PR?_STRTOK?STRTOK

?PR?_STRCAT?STRCAT                               -----    -----      -----    -----      0048H    0009H

?PR?_LISTACOMANDOS?PROG                          -----    -----      -----    -----      0046H    0007H

?PR?PROG_ID_CLIENTE?PROG                         -----    -----      -----    -----      0046H    000CH
  +--> ?PR?_RD_EEPROM?EEPROM
  +--> ?CO?PROG
  +--> ?PR?PRINTF?PRINTF
  +--> ?PR?_INGRESADATO?PROG
  +--> ?PR?_ATOI?ATOI
  +--> ?PR?_WR_EEPROM?EEPROM

?PR?_ATOI?ATOI                                   0020H.0  0000H.1    -----    -----      0071H    0005H
  +--> ?PR?_ISSPACE?ISSPACE
  +--> ?PR?_ISDIGIT?ISDIGIT

?PR?PROG_COD_PARK?PROG                           -----    -----      -----    -----      0046H    000CH
  +--> ?PR?_RD_EEPROM?EEPROM
  +--> ?CO?PROG
  +--> ?PR?PRINTF?PRINTF
  +--> ?PR?_INGRESADATO?PROG
  +--> ?PR?_ATOI?ATOI
  +--> ?PR?_WR_EEPROM?EEPROM

?PR?PROG_TIEMPO_GRACIA?PROG                      -----    -----      -----    -----      0046H    000CH
  +--> ?PR?_RD_EEPROM?EEPROM
  +--> ?CO?PROG
  +--> ?PR?PRINTF?PRINTF
  +--> ?PR?_INGRESADATO?PROG
  +--> ?PR?_ATOI?ATOI
  +--> ?PR?_WR_EEPROM?EEPROM

?PR?PROG_SIN_COBRO?PROG                          -----    -----      -----    -----      0046H    000CH
  +--> ?PR?_RD_EEPROM?EEPROM
  +--> ?CO?PROG
  +--> ?PR?PRINTF?PRINTF
  +--> ?PR?_INGRESADATO?PROG
  +--> ?PR?_ATOI?ATOI
  +--> ?PR?_WR_EEPROM?EEPROM

?PR?PROG_DEBUG?PROG                              -----    -----      -----    -----      0046H    000CH
  +--> ?PR?_RD_EEPROM?EEPROM
  +--> ?CO?PROG
  +--> ?PR?PRINTF?PRINTF
BL51 BANKED LINKER/LOCATER V6.22.2.0                                                  06/08/2021  15:03:37  PAGE 11


  +--> ?PR?_INGRESADATO?PROG
  +--> ?PR?_ATOI?ATOI
  +--> ?PR?_WR_EEPROM?EEPROM

?PR?PROG_USE_LPR?PROG                            -----    -----      -----    -----      0046H    000CH
  +--> ?PR?_RD_EEPROM?EEPROM
  +--> ?CO?PROG
  +--> ?PR?PRINTF?PRINTF
  +--> ?PR?_INGRESADATO?PROG
  +--> ?PR?_ATOI?ATOI
  +--> ?PR?_WR_EEPROM?EEPROM

?PR?TIPO_PANTALLA?PROG                           -----    -----      -----    -----      0046H    000CH
  +--> ?PR?_RD_EEPROM?EEPROM
  +--> ?CO?PROG
  +--> ?PR?PRINTF?PRINTF
  +--> ?PR?_INGRESADATO?PROG
  +--> ?PR?_ATOI?ATOI
  +--> ?PR?_WR_EEPROM?EEPROM

?PR?PROG_TARJETA_AUTOMATICA_O_BOTON?PROG         -----    -----      -----    -----      0046H    000CH
  +--> ?PR?_RD_EEPROM?EEPROM
  +--> ?CO?PROG
  +--> ?PR?PRINTF?PRINTF
  +--> ?PR?_INGRESADATO?PROG
  +--> ?PR?_ATOI?ATOI
  +--> ?PR?_WR_EEPROM?EEPROM

?PR?PROG_ANTIPASSBACK?PROG                       -----    -----      -----    -----      0046H    000CH
  +--> ?PR?_RD_EEPROM?EEPROM
  +--> ?CO?PROG
  +--> ?PR?PRINTF?PRINTF
  +--> ?PR?_INGRESADATO?PROG
  +--> ?PR?_ATOI?ATOI
  +--> ?PR?_WR_EEPROM?EEPROM

?PR?PROG_PLACA?PROG                              -----    -----      -----    -----      0046H    000CH
  +--> ?PR?_RD_EEPROM?EEPROM
  +--> ?CO?PROG
  +--> ?PR?PRINTF?PRINTF
  +--> ?PR?_INGRESADATO?PROG
  +--> ?PR?_ATOI?ATOI
  +--> ?PR?_WR_EEPROM?EEPROM

?PR?PROG_ADDRESS_HIGH_BOARD?PROG                 -----    -----      -----    -----      0046H    000CH
  +--> ?PR?_RD_EEPROM?EEPROM
  +--> ?CO?PROG
  +--> ?PR?PRINTF?PRINTF
  +--> ?PR?_INGRESADATO?PROG
  +--> ?PR?_ATOI?ATOI
  +--> ?PR?_WR_EEPROM?EEPROM

?PR?PROG_HORARIOS?PROG                           -----    -----      -----    -----      0046H    001BH
  +--> ?PR?ADDR_HORARIOS?PROG
  +--> ?CO?PROG
  +--> ?PR?PRINTF?PRINTF
  +--> ?PR?_INGRESADATO?PROG
BL51 BANKED LINKER/LOCATER V6.22.2.0                                                  06/08/2021  15:03:37  PAGE 12


  +--> ?PR?_ATOI?ATOI
  +--> ?PR?_PROG_HORARIOS_ON_OFF?PROG
  +--> ?PR?_WR_EEPROM?EEPROM
  +--> ?PR?_PROG_HORARIO_DIAS?PROG
  +--> ?PR?_PROG_HORARIO_DESDE_HASTA?PROG
  +--> ?PR?_RD_EEPROM?EEPROM

?PR?ADDR_HORARIOS?PROG                           -----    -----      -----    -----      0074H    000BH

?PR?_PROG_HORARIOS_ON_OFF?PROG                   -----    -----      -----    -----      0061H    0010H
  +--> ?PR?_RD_EEPROM?EEPROM
  +--> ?CO?PROG
  +--> ?PR?PRINTF?PRINTF
  +--> ?PR?_INGRESADATO?PROG
  +--> ?PR?_ATOI?ATOI
  +--> ?PR?_WR_EEPROM?EEPROM

?PR?_PROG_HORARIO_DIAS?PROG                      -----    -----      -----    -----      0061H    000FH
  +--> ?CO?PROG
  +--> ?PR?PRINTF?PRINTF
  +--> ?PR?_INGRESADATO?PROG
  +--> ?PR?_WR_EEPROM?EEPROM
  +--> ?PR?_RD_EEPROM?EEPROM

?PR?_PROG_HORARIO_DESDE_HASTA?PROG               -----    -----      -----    -----      0061H    000CH
  +--> ?CO?PROG
  +--> ?PR?PRINTF?PRINTF
  +--> ?PR?_INGRESADATO?PROG
  +--> ?PR?_WR_EEPROM?EEPROM
  +--> ?PR?_RD_EEPROM?EEPROM

?PR?PROG_VALIDAR_TIPO_VEHICULO_MENSUA...         -----    -----      -----    -----      0046H    000CH
  +--> ?PR?_RD_EEPROM?EEPROM
  +--> ?CO?PROG
  +--> ?PR?PRINTF?PRINTF
  +--> ?PR?_INGRESADATO?PROG
  +--> ?PR?_ATOI?ATOI
  +--> ?PR?_WR_EEPROM?EEPROM

?PR?PROG_APB_MENSUAL?PROG                        -----    -----      -----    -----      0046H    000CH
  +--> ?PR?_RD_EEPROM?EEPROM
  +--> ?CO?PROG
  +--> ?PR?PRINTF?PRINTF
  +--> ?PR?_INGRESADATO?PROG
  +--> ?PR?_ATOI?ATOI
  +--> ?PR?_WR_EEPROM?EEPROM

?PR?VER_PROG?PROG                                -----    -----      -----    -----      0046H    0013H
  +--> ?PR?_RD_EEPROM?EEPROM
  +--> ?CO?PROG
  +--> ?PR?PRINTF?PRINTF
  +--> ?PR?VER_HORARIO?PROG
  +--> ?PR?_LEERMEMORIA?EEPROM
  +--> ?PR?_HEX_ASCII?CLOCK

?PR?VER_HORARIO?PROG                             -----    -----      -----    -----      0059H    001BH
  +--> ?PR?ADDR_HORARIOS?PROG
BL51 BANKED LINKER/LOCATER V6.22.2.0                                                  06/08/2021  15:03:37  PAGE 13


  +--> ?CO?PROG
  +--> ?PR?PRINTF?PRINTF
  +--> ?PR?_RD_EEPROM?EEPROM
  +--> ?PR?_VER_HORARIO_DIAS?PROG
  +--> ?PR?_VER_HORARIO_DESDE_HASTA?PROG

?PR?_VER_HORARIO_DIAS?PROG                       -----    -----      -----    -----      0074H    0003H
  +--> ?PR?_RD_EEPROM?EEPROM
  +--> ?CO?PROG
  +--> ?PR?PRINTF?PRINTF

?PR?_VER_HORARIO_DESDE_HASTA?PROG                -----    -----      -----    -----      0074H    0002H
  +--> ?CO?PROG
  +--> ?PR?PRINTF?PRINTF
  +--> ?PR?_RD_EEPROM?EEPROM

?PR?_HEX_ASCII?CLOCK                             -----    -----      -----    -----      005DH    0006H
  +--> ?PR?_HEX_BCD?CLOCK

?PR?SHOW?PROG                                    -----    -----      -----    -----      -----    -----
  +--> ?CO?PROG
  +--> ?PR?PRINTF?PRINTF

?PR?PROG_FECHA_VENCIMIENTO?PROG                  -----    -----      -----    -----      0046H    0017H
  +--> ?PR?_LEERMEMORIA?EEPROM
  +--> ?PR?_HEX_ASCII?CLOCK
  +--> ?CO?PROG
  +--> ?PR?PRINTF?PRINTF
  +--> ?PR?_HASH_ID?PROG
  +--> ?PR?_INGRESADATO?PROG
  +--> ?PR?_GETCMD?PROG
  +--> ?PR?_ESCRIBIRMEMORIA?EEPROM
  +--> ?PR?_VALIDARCLAVE?PROG
  +--> ?PR?_ATOI?ATOI
  +--> ?PR?_WR_EEPROM?EEPROM

?PR?VARIABLE_INICIO?MAIN                         -----    -----      -----    -----      -----    -----
  +--> ?PR?_RD_EEPROM?EEPROM

?PR?SECUENCIA_INICIO_EXPEDIDOR?VERIFI...         -----    -----      -----    -----      0001H    0001H
  +--> ?PR?_INICIALIZA?LINTECH
  +--> ?PR?TRAMA_VALIDACION_P_N?VERIFICADOR
  +--> ?CO?VERIFICADOR
  +--> ?PR?_DEBUG_TXT_TIBBO?TIBBO
  +--> ?PR?_DEBUGBUFFERMF?TIBBO
  +--> ?PR?DWLOAD_EEPROM?LINTECH

?PR?_INICIALIZA?LINTECH                          -----    -----      -----    -----      0002H    000CH
  +--> ?CO?LINTECH
  +--> ?PR?_DEBUG_TXT_TIBBO?TIBBO
  +--> ?PR?_DEBUGBUFFERMF?TIBBO
  +--> ?PR?_ESCRIBIRCADENASOFT_BUFFER?MAIN

?PR?_DEBUG_TXT_TIBBO?TIBBO                       -----    -----      -----    -----      0053H    0004H
  +--> ?PR?_DEBUG_CHR_TIBBO?TIBBO
  +--> ?CO?TIBBO
  +--> ?PR?_TX_AUX?TIBBO
BL51 BANKED LINKER/LOCATER V6.22.2.0                                                  06/08/2021  15:03:37  PAGE 14



?PR?_DEBUG_CHR_TIBBO?TIBBO                       -----    -----      -----    -----      -----    -----
  +--> ?PR?_TX_AUX?TIBBO

?PR?_DEBUGBUFFERMF?TIBBO                         -----    -----      -----    -----      0027H    0006H
  +--> ?CO?TIBBO
  +--> ?PR?_DEBUG_TXT_TIBBO?TIBBO
  +--> ?PR?_DEBUG_CHR_TIBBO?TIBBO
  +--> ?PR?_TX_AUX?TIBBO

?PR?_ESCRIBIRCADENASOFT_BUFFER?MAIN              -----    -----      -----    -----      0027H    0006H
  +--> ?PR?_PUTCHAR?MAIN

?PR?TRAMA_VALIDACION_P_N?VERIFICADOR             -----    -----      -----    -----      -----    -----
  +--> ?CO?VERIFICADOR
  +--> ?PR?_DEBUG_TXT_TIBBO?TIBBO

?PR?DWLOAD_EEPROM?LINTECH                        -----    -----      -----    -----      0002H    0016H
  +--> ?CO?LINTECH
  +--> ?PR?_DEBUG_TXT_TIBBO?TIBBO
  +--> ?PR?_DEBUGBUFFERMF?TIBBO
  +--> ?PR?_ESCRIBIRCADENASOFT_BUFFER?MAIN

?PR?RX_MONITOR?MONITOR                           -----    -----      -----    -----      0009H    000DH
  +--> ?PR?_RECIBE_CMD_MONITOR?MONITOR
  +--> ?PR?_DEBUG_MONITOR?TIBBO
  +--> ?PR?_VALIDA_TRAMA_MONITOR?MONITOR

?PR?_RECIBE_CMD_MONITOR?MONITOR                  -----    -----      -----    -----      0016H    0009H
  +--> ?PR?RX_DATA?TIBBO

?PR?RX_DATA?TIBBO                                -----    -----      -----    -----      -----    -----
  +--> ?PR?TIME_MBIT?TIBBO
  +--> ?PR?TIME_BIT?TIBBO

?PR?_DEBUG_MONITOR?TIBBO                         -----    -----      -----    -----      0016H    0004H
  +--> ?PR?DEBUG_DIVIDIR_TEXTO?TIBBO
  +--> ?CO?TIBBO
  +--> ?PR?_DEBUG_TXT_TIBBO?TIBBO

?PR?DEBUG_DIVIDIR_TEXTO?TIBBO                    -----    -----      -----    -----      -----    -----
  +--> ?CO?TIBBO
  +--> ?PR?_DEBUG_TXT_TIBBO?TIBBO

?PR?_VALIDA_TRAMA_MONITOR?MONITOR                -----    -----      -----    -----      0016H    0006H
  +--> ?PR?_DELAY_10MS?DELAY
  +--> ?PR?_TX_AUX?TIBBO

?PR?_DELAY_10MS?DELAY                            -----    -----      -----    -----      001CH    0004H
  +--> ?PR?_DELAY_1MS?DELAY

?PR?_SECUENCIAEXPEDIDORMF?VERIFICADOR            -----    -----      -----    -----      0001H    0001H
  +--> ?PR?_CHECK_STATUS?LINTECH
  +--> ?PR?_LOAD_SECUENCIA_EXPEDIDOR?VERIFIC...
  +--> ?PR?RX_MONITOR?MONITOR
  +--> ?PR?_RTA_CMD_TRANSPORTE?VERIFICADOR
  +--> ?PR?_MOV_CARD?LINTECH
BL51 BANKED LINKER/LOCATER V6.22.2.0                                                  06/08/2021  15:03:37  PAGE 15


  +--> ?PR?_CARD_INSERCION?LINTECH
  +--> ?PR?AUT_CARD_CHECK_STATUS?LINTECH
  +--> ?PR?LOADVERIFY_EEPROM?LINTECH
  +--> ?PR?_RD_MF?LINTECH
  +--> ?PR?_WR_MF?LINTECH
  +--> ?PR?ANALIZA_CARD_MOUNT_RF?VERIFICADOR
  +--> ?PR?DWLOAD_EEPROM?LINTECH
  +--> ?PR?ENTREGA_CARD_CAPTURA?VERIFICADOR
  +--> ?PR?_SEND_PTO_PARALELO?VERIFICADOR
  +--> ?PR?_WAIT_PLACA?VERIFICADOR
  +--> ?PR?UNIQUE_IDENTIFIER_UID?LINTECH
  +--> ?PR?_PREGUNTA_LPR?VERIFICADOR
  +--> ?PR?PREGUNTA_PLACA?VERIFICADOR
  +--> ?PR?_VALIDA_TIPO_TARJETA?VERIFICADOR
  +--> ?PR?POWER_OFF?LINTECH
  +--> ?PR?CLAVE_SEGURIDAD_S2?LINTECH
  +--> ?PR?_RESPONDE_REELECTURA_TARJETA_SECT...
  +--> ?PR?RESPONDE_ESTADO_SENSORES_TRANSPOR...
  +--> ?PR?RESPONDE_TIPO_TARJETA?VERIFICADOR
  +--> ?PR?_RESPONDE_LECTURA_TARJETA_SECTOR1...
  +--> ?PR?_RESPONDE_LECTURA_TARJETA_SECTOR1...
  +--> ?PR?_RESPONDE_LECTURA_TARJETA_SECTOR1...
  +--> ?PR?_RESPONDE_WRITE_TARJETA_SECTOR1_B...
  +--> ?PR?_RESPONDE_WRITE_TARJETA_SECTOR2_B...
  +--> ?PR?_RESPONDE_WRITE_TARJETA_SECTOR1_B...
  +--> ?PR?_RESPONDE_WRITE_TARJETA_SECTOR1_B...
  +--> ?PR?_DISPARO_LOCK_ENTRADA_VEHICULO?VE...
  +--> ?PR?_RESPUESTA_SEGUNDA_CLAVE?VERIFICADOR
  +--> ?PR?ANALIZA_PRESENCIA_MENSUAL?VERIFIC...
  +--> ?PR?_ANALIZA_UID_CARD?VERIFICADOR
  +--> ?PR?ANALIZA_PRESENCIA_ROTACION?VERIFI...
  +--> ?CO?VERIFICADOR
  +--> ?PR?_DEBUG_TXT_TIBBO?TIBBO

?PR?_CHECK_STATUS?LINTECH                        -----    -----      -----    -----      0002H    000BH
  +--> ?CO?LINTECH
  +--> ?PR?_DEBUG_TXT_TIBBO?TIBBO
  +--> ?PR?_DEBUGBUFFERMF?TIBBO
  +--> ?PR?_ESCRIBIRCADENASOFT_BUFFER?MAIN

?PR?_LOAD_SECUENCIA_EXPEDIDOR?VERIFIC...         -----    -----      -----    -----      0002H    0009H

?PR?_RTA_CMD_TRANSPORTE?VERIFICADOR              -----    -----      -----    -----      0002H    0005H
  +--> ?PR?TRAMA_VALIDACION_P_N?VERIFICADOR
  +--> ?CO?VERIFICADOR
  +--> ?PR?_DEBUG_TXT_TIBBO?TIBBO
  +--> ?PR?_DEBUGBUFFERMF?TIBBO
  +--> ?PR?ERROR_RX_PTO?VERIFICADOR

?PR?ERROR_RX_PTO?VERIFICADOR                     -----    -----      -----    -----      0007H    0001H
  +--> ?CO?VERIFICADOR
  +--> ?PR?_DEBUG_TXT_TIBBO?TIBBO
  +--> ?PR?_DEBUG_CHR_TIBBO?TIBBO
  +--> ?PR?_DELAY_10MS?DELAY

?PR?_MOV_CARD?LINTECH                            -----    -----      -----    -----      0002H    000CH
  +--> ?CO?LINTECH
BL51 BANKED LINKER/LOCATER V6.22.2.0                                                  06/08/2021  15:03:37  PAGE 16


  +--> ?PR?_DEBUG_TXT_TIBBO?TIBBO
  +--> ?PR?_DEBUGBUFFERMF?TIBBO
  +--> ?PR?_ESCRIBIRCADENASOFT_BUFFER?MAIN

?PR?_CARD_INSERCION?LINTECH                      -----    -----      -----    -----      0002H    000AH
  +--> ?CO?LINTECH
  +--> ?PR?_DEBUG_TXT_TIBBO?TIBBO
  +--> ?PR?_DEBUGBUFFERMF?TIBBO
  +--> ?PR?_ESCRIBIRCADENASOFT_BUFFER?MAIN

?PR?AUT_CARD_CHECK_STATUS?LINTECH                -----    -----      -----    -----      0002H    000BH
  +--> ?CO?LINTECH
  +--> ?PR?_DEBUG_TXT_TIBBO?TIBBO
  +--> ?PR?_DEBUGBUFFERMF?TIBBO
  +--> ?PR?_ESCRIBIRCADENASOFT_BUFFER?MAIN

?PR?LOADVERIFY_EEPROM?LINTECH                    -----    -----      -----    -----      0002H    0010H
  +--> ?CO?LINTECH
  +--> ?PR?_DEBUG_TXT_TIBBO?TIBBO
  +--> ?PR?_DEBUGBUFFERMF?TIBBO
  +--> ?PR?_ESCRIBIRCADENASOFT_BUFFER?MAIN

?PR?_RD_MF?LINTECH                               -----    -----      -----    -----      0002H    0012H
  +--> ?CO?LINTECH
  +--> ?PR?_DEBUG_TXT_TIBBO?TIBBO
  +--> ?PR?_DEBUG_CHR_TIBBO?TIBBO
  +--> ?PR?_DEBUGBUFFERMF?TIBBO
  +--> ?PR?_ESCRIBIRCADENASOFT_BUFFER?MAIN

?PR?_WR_MF?LINTECH                               -----    -----      -----    -----      0002H    0025H
  +--> ?CO?LINTECH
  +--> ?PR?_DEBUG_TXT_TIBBO?TIBBO
  +--> ?PR?_DEBUG_CHR_TIBBO?TIBBO
  +--> ?PR?_DEBUGBUFFERMF?TIBBO
  +--> ?PR?_ESCRIBIRCADENASOFT_BUFFER?MAIN

?PR?ANALIZA_CARD_MOUNT_RF?VERIFICADOR            -----    -----      -----    -----      0002H    0001H
  +--> ?CO?VERIFICADOR
  +--> ?PR?_DEBUG_TXT_TIBBO?TIBBO

?PR?ENTREGA_CARD_CAPTURA?VERIFICADOR             -----    -----      -----    -----      0002H    0001H
  +--> ?CO?VERIFICADOR
  +--> ?PR?_DEBUG_TXT_TIBBO?TIBBO
  +--> ?PR?SEL_SENSOR2?IO_SENSORES
  +--> ?PR?VALIDASENSOR?IO_SENSORES
  +--> ?PR?VALIDA_SENSOR1_AUTO?IO_SENSORES

?PR?VALIDA_SENSOR1_AUTO?IO_SENSORES              -----    -----      -----    -----      0016H    0001H
  +--> ?PR?SEL_SENSOR1?IO_SENSORES
  +--> ?PR?SEL_AUTO?IO_SENSORES
  +--> ?CO?IO_SENSORES
  +--> ?PR?_DEBUG_TXT_TIBBO?TIBBO
  +--> ?PR?BOTTON?IO_SENSORES

?PR?BOTTON?IO_SENSORES                           -----    -----      -----    -----      -----    -----
  +--> ?PR?SEL_PULSA?IO_SENSORES
  +--> ?CO?IO_SENSORES
BL51 BANKED LINKER/LOCATER V6.22.2.0                                                  06/08/2021  15:03:37  PAGE 17


  +--> ?PR?_DEBUG_TXT_TIBBO?TIBBO

?PR?_SEND_PTO_PARALELO?VERIFICADOR               -----    -----      -----    -----      0002H    0007H
  +--> ?PR?_ARMAR_TRAMA_PTO_PARALELO_EXPEDID...
  +--> ?PR?_ARMAR_TRAMA_PTO_PARALELO_EXPEDID...
  +--> ?PR?INCREMENTE_TICKET?EEPROM
  +--> ?PR?_SEND_PORT?PTO_PARALELO
  +--> ?CO?VERIFICADOR
  +--> ?PR?_DEBUG_TXT_TIBBO?TIBBO
  +--> ?PR?_DEBUGBUFFERMF?TIBBO
  +--> ?PR?CLEAR_PLACA?MONITOR

?PR?_ARMAR_TRAMA_PTO_PARALELO_EXPEDID...         -----    -----      -----    -----      0009H    0006H
  +--> ?PR?_BCD_HEX?CLOCK
  +--> ?PR?_RD_EEPROM?EEPROM

?PR?_ARMAR_TRAMA_PTO_PARALELO_EXPEDID...         -----    -----      -----    -----      0009H    0012H
  +--> ?PR?LEE_NO_TICKET?EEPROM
  +--> ?PR?_STRCAT?STRCAT
  +--> ?PR?_STRLEN?STRLEN
  +--> ?PR?_BCD_HEX?CLOCK
  +--> ?PR?_RD_EEPROM?EEPROM

?PR?LEE_NO_TICKET?EEPROM                         -----    -----      -----    -----      0048H    000BH
  +--> ?PR?READ_EEPROM_TICKET?EEPROM
  +--> ?CO?EEPROM
  +--> ?PR?PRINTF?PRINTF
  +--> ?PR?_STRLEN?STRLEN
  +--> ?PR?_DEBUG_TXT_TIBBO?TIBBO

?PR?READ_EEPROM_TICKET?EEPROM                    -----    -----      -----    -----      0053H    0007H
  +--> ?PR?_RD_EEPROM?EEPROM

?PR?INCREMENTE_TICKET?EEPROM                     -----    -----      -----    -----      0009H    000BH
  +--> ?PR?READ_EEPROM_TICKET?EEPROM
  +--> ?CO?EEPROM
  +--> ?PR?PRINTF?PRINTF
  +--> ?PR?_WRITE_EEPROM_TICKET?EEPROM

?PR?_WRITE_EEPROM_TICKET?EEPROM                  -----    -----      -----    -----      001AH    000BH
  +--> ?CO?EEPROM
  +--> ?PR?_DEBUG_TXT_TIBBO?TIBBO
  +--> ?PR?_ATOL?ATOL
  +--> ?PR?_DEBUG_CHR_TIBBO?TIBBO
  +--> ?PR?_WR_EEPROM?EEPROM

?PR?_ATOL?ATOL                                   0020H.0  0000H.1    -----    -----      0025H    0007H
  +--> ?PR?_ISSPACE?ISSPACE
  +--> ?PR?_ISDIGIT?ISDIGIT

?PR?_SEND_PORT?PTO_PARALELO                      -----    -----      -----    -----      0016H    000AH
  +--> ?PR?PULSO_BUS?PTO_PARALELO
  +--> ?PR?_DELAY_20US?DELAY

?PR?PULSO_BUS?PTO_PARALELO                       -----    -----      -----    -----      -----    -----
  +--> ?PR?_DELAY_20US?DELAY

BL51 BANKED LINKER/LOCATER V6.22.2.0                                                  06/08/2021  15:03:37  PAGE 18


?PR?_WAIT_PLACA?VERIFICADOR                      -----    -----      -----    -----      0002H    0007H
  +--> ?CO?VERIFICADOR
  +--> ?PR?_DEBUG_TXT_TIBBO?TIBBO
  +--> ?PR?RX_MONITOR?MONITOR
  +--> ?PR?_RESPUESTA_PLACA_CANCEL?VERIFICADOR

?PR?_RESPUESTA_PLACA_CANCEL?VERIFICADOR          -----    -----      -----    -----      0009H    000AH
  +--> ?CO?VERIFICADOR
  +--> ?PR?_DEBUG_TXT_TIBBO?TIBBO
  +--> ?PR?_ARMAR_TRAMA_TARJETA_SECTOR1_BLOQ...

?PR?_ARMAR_TRAMA_TARJETA_SECTOR1_BLOQ...         -----    -----      -----    -----      0013H    0004H
  +--> ?PR?CLEAR_PLACA?MONITOR
  +--> ?PR?_RD_EEPROM?EEPROM

?PR?UNIQUE_IDENTIFIER_UID?LINTECH                -----    -----      -----    -----      0002H    000BH
  +--> ?CO?LINTECH
  +--> ?PR?_DEBUG_TXT_TIBBO?TIBBO
  +--> ?PR?_DEBUGBUFFERMF?TIBBO
  +--> ?PR?_ESCRIBIRCADENASOFT_BUFFER?MAIN

?PR?_PREGUNTA_LPR?VERIFICADOR                    -----    -----      -----    -----      0002H    0003H
  +--> ?CO?VERIFICADOR
  +--> ?PR?_DEBUG_TXT_TIBBO?TIBBO
  +--> ?PR?_HORA_ENTRADA_VEHICULO?CLOCK
  +--> ?PR?_RD_EEPROM?EEPROM
  +--> ?PR?_ARMAR_TRAMA_MONITOR?VERIFICADOR

?PR?_HORA_ENTRADA_VEHICULO?CLOCK                 -----    -----      -----    -----      0005H    0003H
  +--> ?PR?_LEE_CLK?CLOCK

?PR?_ARMAR_TRAMA_MONITOR?VERIFICADOR             -----    -----      -----    -----      0005H    000FH
  +--> ?PR?DIR_BOARD_MONITOR?IO_SENSORES
  +--> ?PR?LEE_NO_TICKET?EEPROM
  +--> ?PR?_STRCAT?STRCAT
  +--> ?PR?_BYTEHEX_DECIMAL?CLOCK
  +--> ?PR?_STRLEN?STRLEN
  +--> ?PR?_TWO_BYTEHEX_DECIMAL?CLOCK

?PR?DIR_BOARD_MONITOR?IO_SENSORES                -----    -----      -----    -----      -----    -----
  +--> ?PR?_RD_EEPROM?EEPROM

?PR?_BYTEHEX_DECIMAL?CLOCK                       -----    -----      -----    -----      0015H    0001H

?PR?_TWO_BYTEHEX_DECIMAL?CLOCK                   -----    -----      -----    -----      0015H    000CH
  +--> ?PR?_POW?POW

?PR?_POW?POW                                     -----    -----      -----    -----      0021H    000AH
  +--> ?PR?LOG?LOG
  +--> ?PR?EXP?EXP

?PR?LOG?LOG                                      0020H.0  0000H.1    -----    -----      002BH    0004H

?PR?PREGUNTA_PLACA?VERIFICADOR                   -----    -----      -----    -----      0002H    0001H
  +--> ?CO?VERIFICADOR
  +--> ?PR?_DEBUG_TXT_TIBBO?TIBBO
  +--> ?PR?_RD_EEPROM?EEPROM
BL51 BANKED LINKER/LOCATER V6.22.2.0                                                  06/08/2021  15:03:37  PAGE 19



?PR?_VALIDA_TIPO_TARJETA?VERIFICADOR             -----    -----      -----    -----      0002H    0007H
  +--> ?CO?VERIFICADOR
  +--> ?PR?_DEBUG_TXT_TIBBO?TIBBO
  +--> ?PR?_RD_EEPROM?EEPROM
  +--> ?PR?_TARJETA_MENSUAL?VERIFICADOR
  +--> ?PR?_SEND_PORTERR?PTO_PARALELO
  +--> ?PR?_PANTALLALCD?PANTALLAS
  +--> ?PR?CAPTURA_EXPULSA?VERIFICADOR
  +--> ?PR?_TARJETA_ROTACION?VERIFICADOR

?PR?_TARJETA_MENSUAL?VERIFICADOR                 -----    -----      -----    -----      0009H    0007H
  +--> ?PR?_HORARIOS?VERIFICADOR
  +--> ?PR?_CHECK_FECHAOUT?CLOCK
  +--> ?PR?_VALIDA_VEHICULO_CARD_MENSUAL?VER...
  +--> ?PR?CAPTURA_EXPULSA?VERIFICADOR
  +--> ?CO?VERIFICADOR
  +--> ?PR?_DEBUG_TXT_TIBBO?TIBBO
  +--> ?PR?_ARMAR_TRAMA_TARJETA_SECTOR1_BLOQ...
  +--> ?PR?_SEND_PORTERR?PTO_PARALELO
  +--> ?PR?_PANTALLALCD?PANTALLAS

?PR?_HORARIOS?VERIFICADOR                        -----    -----      -----    -----      0010H    0013H
  +--> ?PR?ADDR_HORARIOS?PROG
  +--> ?PR?_RD_EEPROM?EEPROM
  +--> ?PR?_LEE_CLK?CLOCK
  +--> ?CO?VERIFICADOR
  +--> ?PR?_DEBUG_TXT_TIBBO?TIBBO
  +--> ?PR?_DEBUG_CHR_TIBBO?TIBBO
  +--> ?PR?_BLOQUE_HORARIO?VERIFICADOR
  +--> ?PR?_PANTALLALCD?PANTALLAS

?PR?_BLOQUE_HORARIO?VERIFICADOR                  -----    -----      -----    -----      0023H    0007H
  +--> ?CO?VERIFICADOR
  +--> ?PR?_DEBUG_TXT_TIBBO?TIBBO
  +--> ?PR?_LEE_CLK?CLOCK
  +--> ?PR?_DEBUG_CHR_TIBBO?TIBBO
  +--> ?PR?_HORA_MAXIMA?VERIFICADOR
  +--> ?PR?_EN_HORARIO?VERIFICADOR
  +--> ?PR?_RD_EEPROM?EEPROM
  +--> ?PR?_SEND_PORTERR?PTO_PARALELO
  +--> ?PR?_PANTALLALCD?PANTALLAS

?PR?_HORA_MAXIMA?VERIFICADOR                     -----    -----      -----    -----      002FH    0008H
  +--> ?PR?_RD_EEPROM?EEPROM
  +--> ?PR?_DEBUG_CHR_TIBBO?TIBBO
  +--> ?CO?VERIFICADOR
  +--> ?PR?_DEBUG_TXT_TIBBO?TIBBO

?PR?_EN_HORARIO?VERIFICADOR                      -----    -----      -----    -----      002AH    0005H
  +--> ?CO?VERIFICADOR
  +--> ?PR?_DEBUG_TXT_TIBBO?TIBBO
  +--> ?PR?_HORA_MAXIMA?VERIFICADOR

?PR?_SEND_PORTERR?PTO_PARALELO                   -----    -----      -----    -----      002AH    0006H
  +--> ?PR?PULSO_BUS?PTO_PARALELO
  +--> ?PR?_DELAY_20US?DELAY
BL51 BANKED LINKER/LOCATER V6.22.2.0                                                  06/08/2021  15:03:37  PAGE 20



?PR?_PANTALLALCD?PANTALLAS                       -----    -----      -----    -----      002AH    000AH
  +--> ?CO?PANTALLAS
  +--> ?PR?_LCD_TXT?PANTALLAS
  +--> ?PR?_STRLEN?STRLEN
  +--> ?PR?_TX_CHRLCD?PANTALLAS
  +--> ?PR?_RASPBERRY_DATA?PANTALLAS

?PR?_LCD_TXT?PANTALLAS                           -----    -----      -----    -----      0048H    0005H
  +--> ?PR?_TX_CHRLCD?PANTALLAS

?PR?_TX_CHRLCD?PANTALLAS                         -----    -----      -----    -----      004DH    0002H
  +--> ?PR?_PUTCHAR?MAIN

?PR?_RASPBERRY_DATA?PANTALLAS                    -----    -----      -----    -----      0048H    0006H
  +--> ?PR?_STRLEN?STRLEN
  +--> ?PR?_PUTCHAR?MAIN

?PR?_VALIDA_VEHICULO_CARD_MENSUAL?VER...         -----    -----      -----    -----      0010H    0004H
  +--> ?CO?VERIFICADOR
  +--> ?PR?_DEBUG_TXT_TIBBO?TIBBO
  +--> ?PR?_RD_EEPROM?EEPROM
  +--> ?PR?_SEND_PORTERR?PTO_PARALELO

?PR?_ARMAR_TRAMA_TARJETA_SECTOR1_BLOQ...         -----    -----      -----    -----      0010H    0006H
  +--> ?PR?_BCD_HEX?CLOCK
  +--> ?PR?DIR_BOARD?IO_SENSORES

?PR?DIR_BOARD?IO_SENSORES                        -----    -----      -----    -----      0037H    0001H
  +--> ?PR?SEL_DIR1?IO_SENSORES
  +--> ?PR?SEL_DIR2?IO_SENSORES
  +--> ?PR?_RD_EEPROM?EEPROM

?PR?_TARJETA_ROTACION?VERIFICADOR                -----    -----      -----    -----      0009H    0006H
  +--> ?PR?_ARMAR_TRAMA_TARJETA_SECTOR1_BLOQ...

?PR?POWER_OFF?LINTECH                            -----    -----      -----    -----      0002H    000BH
  +--> ?CO?LINTECH
  +--> ?PR?_DEBUG_TXT_TIBBO?TIBBO
  +--> ?PR?_DEBUGBUFFERMF?TIBBO
  +--> ?PR?_ESCRIBIRCADENASOFT_BUFFER?MAIN

?PR?CLAVE_SEGURIDAD_S2?LINTECH                   -----    -----      -----    -----      0002H    0016H
  +--> ?CO?LINTECH
  +--> ?PR?_DEBUG_TXT_TIBBO?TIBBO
  +--> ?PR?_DEBUGBUFFERMF?TIBBO
  +--> ?PR?_ESCRIBIRCADENASOFT_BUFFER?MAIN

?PR?_RESPONDE_REELECTURA_TARJETA_SECT...         -----    -----      -----    -----      0002H    000AH
  +--> ?CO?VERIFICADOR
  +--> ?PR?_DEBUG_TXT_TIBBO?TIBBO
  +--> ?PR?_DEBUGBUFFERMF?TIBBO
  +--> ?PR?_ARMAR_TRAMA_TARJETA_SECTOR1_BLOQ...

?PR?_ARMAR_TRAMA_TARJETA_SECTOR1_BLOQ...         -----    -----      -----    -----      000CH    0003H
  +--> ?PR?LEE_NO_TICKET?EEPROM

BL51 BANKED LINKER/LOCATER V6.22.2.0                                                  06/08/2021  15:03:37  PAGE 21


?PR?RESPONDE_ESTADO_SENSORES_TRANSPOR...         -----    -----      -----    -----      0002H    0001H
  +--> ?CO?VERIFICADOR
  +--> ?PR?_DEBUG_TXT_TIBBO?TIBBO
  +--> ?PR?_SEND_PORTERR?PTO_PARALELO
  +--> ?PR?INGRESO_VEHICULO?VERIFICADOR

?PR?INGRESO_VEHICULO?VERIFICADOR                 -----    -----      -----    -----      -----    -----
  +--> ?PR?VALIDASENSORESPASO?IO_SENSORES
  +--> ?PR?_RD_EEPROM?EEPROM
  +--> ?CO?VERIFICADOR
  +--> ?PR?_DEBUG_TXT_TIBBO?TIBBO
  +--> ?PR?_PANTALLALCD?PANTALLAS
  +--> ?PR?BOTTON?IO_SENSORES

?PR?VALIDASENSORESPASO?IO_SENSORES               -----    -----      -----    -----      0015H    0001H
  +--> ?PR?SEL_SENSOR2?IO_SENSORES
  +--> ?PR?VALIDASENSOR?IO_SENSORES
  +--> ?PR?VALIDA_SENSOR1_AUTO?IO_SENSORES
  +--> ?CO?IO_SENSORES
  +--> ?PR?_DEBUG_TXT_TIBBO?TIBBO

?PR?RESPONDE_TIPO_TARJETA?VERIFICADOR            -----    -----      -----    -----      0002H    0001H
  +--> ?CO?VERIFICADOR
  +--> ?PR?_DEBUG_TXT_TIBBO?TIBBO
  +--> ?PR?_SEND_PORTERR?PTO_PARALELO
  +--> ?PR?_PANTALLALCD?PANTALLAS
  +--> ?PR?CAPTURA_EXPULSA?VERIFICADOR

?PR?_RESPONDE_LECTURA_TARJETA_SECTOR1...         -----    -----      -----    -----      0002H    0016H
  +--> ?CO?VERIFICADOR
  +--> ?PR?_DEBUG_TXT_TIBBO?TIBBO
  +--> ?PR?_DEBUGBUFFERMF?TIBBO
  +--> ?PR?_RD_EEPROM?EEPROM
  +--> ?PR?_DEBUG_HEXDEC?TIBBO
  +--> ?PR?_DEBUG_CHR_TIBBO?TIBBO
  +--> ?PR?_SEND_PORTERR?PTO_PARALELO
  +--> ?PR?_PANTALLALCD?PANTALLAS
  +--> ?PR?CAPTURA_EXPULSA?VERIFICADOR

?PR?_DEBUG_HEXDEC?TIBBO                          -----    -----      -----    -----      0018H    0002H
  +--> ?PR?_TX_AUX?TIBBO

?PR?_RESPONDE_LECTURA_TARJETA_SECTOR1...         -----    -----      -----    -----      0002H    0004H
  +--> ?CO?VERIFICADOR
  +--> ?PR?_DEBUG_TXT_TIBBO?TIBBO
  +--> ?PR?CAPTURA_EXPULSA?VERIFICADOR

?PR?_RESPONDE_LECTURA_TARJETA_SECTOR1...         -----    -----      -----    -----      0002H    0015H
  +--> ?CO?VERIFICADOR
  +--> ?PR?_DEBUG_TXT_TIBBO?TIBBO
  +--> ?PR?_DEBUGBUFFERMF?TIBBO
  +--> ?PR?_DEBUG_CHR_TIBBO?TIBBO
  +--> ?PR?CAPTURA_EXPULSA?VERIFICADOR

?PR?_RESPONDE_WRITE_TARJETA_SECTOR1_B...         -----    -----      -----    -----      0002H    0007H
  +--> ?CO?VERIFICADOR
  +--> ?PR?_DEBUG_TXT_TIBBO?TIBBO
BL51 BANKED LINKER/LOCATER V6.22.2.0                                                  06/08/2021  15:03:37  PAGE 22


  +--> ?PR?_DEBUGBUFFERMF?TIBBO

?PR?_RESPONDE_WRITE_TARJETA_SECTOR2_B...         -----    -----      -----    -----      0002H    0003H
  +--> ?CO?VERIFICADOR
  +--> ?PR?_DEBUG_TXT_TIBBO?TIBBO
  +--> ?PR?_DEBUGBUFFERMF?TIBBO

?PR?_RESPONDE_WRITE_TARJETA_SECTOR1_B...         -----    -----      -----    -----      0002H    0003H
  +--> ?CO?VERIFICADOR
  +--> ?PR?_DEBUG_TXT_TIBBO?TIBBO
  +--> ?PR?_DEBUGBUFFERMF?TIBBO

?PR?_RESPONDE_WRITE_TARJETA_SECTOR1_B...         -----    -----      -----    -----      0002H    0003H
  +--> ?CO?VERIFICADOR
  +--> ?PR?_DEBUG_TXT_TIBBO?TIBBO
  +--> ?PR?_DEBUGBUFFERMF?TIBBO

?PR?_DISPARO_LOCK_ENTRADA_VEHICULO?VE...         -----    -----      -----    -----      0002H    0004H
  +--> ?CO?VERIFICADOR
  +--> ?PR?_DEBUG_TXT_TIBBO?TIBBO
  +--> ?PR?_SEND_PORTERR?PTO_PARALELO
  +--> ?PR?_PANTALLALCD_LINEA_2?PANTALLAS
  +--> ?PR?VALIDA_SENSOR1_AUTO?IO_SENSORES
  +--> ?PR?_PANTALLALCD?PANTALLAS

?PR?_PANTALLALCD_LINEA_2?PANTALLAS               -----    -----      -----    -----      0015H    0033H
  +--> ?CO?PANTALLAS
  +--> ?PR?_LCD_TXT?PANTALLAS
  +--> ?PR?_STRLEN?STRLEN
  +--> ?PR?_TX_CHRLCD?PANTALLAS
  +--> ?PR?_RASPBERRY_DATA?PANTALLAS
  +--> ?PR?LEE_NO_TICKET?EEPROM
  +--> ?PR?_STRCAT?STRCAT

?PR?_RESPUESTA_SEGUNDA_CLAVE?VERIFICADOR         -----    -----      -----    -----      0002H    0006H
  +--> ?CO?VERIFICADOR
  +--> ?PR?_DEBUG_TXT_TIBBO?TIBBO
  +--> ?PR?_DEBUGBUFFERMF?TIBBO
  +--> ?PR?_ARMAR_TRAMA_PLACA?VERIFICADOR

?PR?_ARMAR_TRAMA_PLACA?VERIFICADOR               -----    -----      -----    -----      0008H    0003H
  +--> ?PR?_STRLEN?STRLEN

?PR?ANALIZA_PRESENCIA_MENSUAL?VERIFIC...         -----    -----      -----    -----      0002H    0001H
  +--> ?PR?VALIDASENSORESPASO?IO_SENSORES
  +--> ?PR?_SEND_PORTERR?PTO_PARALELO
  +--> ?PR?_PANTALLALCD?PANTALLAS

?PR?_ANALIZA_UID_CARD?VERIFICADOR                -----    -----      -----    -----      0002H    0015H
  +--> ?CO?VERIFICADOR
  +--> ?PR?_DEBUG_TXT_TIBBO?TIBBO
  +--> ?PR?_DEBUGBUFFERMF?TIBBO
  +--> ?PR?_DEBUG_CHR_TIBBO?TIBBO

?PR?ANALIZA_PRESENCIA_ROTACION?VERIFI...         -----    -----      -----    -----      0002H    0001H
  +--> ?PR?VALIDASENSORESPASO?IO_SENSORES
  +--> ?PR?_SEND_PORTERR?PTO_PARALELO
BL51 BANKED LINKER/LOCATER V6.22.2.0                                                  06/08/2021  15:03:37  PAGE 23


  +--> ?PR?_PANTALLALCD?PANTALLAS

?PR?_RECIBE_PORT?PTO_PARALELO                    -----    -----      -----    -----      0001H    0008H
  +--> ?PR?OFF_TIMER0_INTERRUP?MAIN
  +--> ?PR?ON_TIMER0_INTERRUP?MAIN

?PR?_DEBUG_PTO_PARALELO?TIBBO                    -----    -----      -----    -----      0001H    0004H
  +--> ?CO?TIBBO
  +--> ?PR?_DEBUG_TXT_TIBBO?TIBBO
  +--> ?PR?_DEBUGBUFFERMF?TIBBO
  +--> ?PR?DEBUG_DIVIDIR_TEXTO?TIBBO

?PR?_VALIDA_TRAMA_PTO?ACCESCAN                   -----    -----      -----    -----      0001H    0014H
  +--> ?CO?ACCESCAN
  +--> ?PR?_DEBUG_TXT_TIBBO?TIBBO
  +--> ?PR?_DEBUG_CHR_TIBBO?TIBBO
  +--> ?PR?_CALCULO_BCC?ACCESCAN
  +--> ?PR?_VALIDAR_CLK?CLOCK
  +--> ?PR?_BLOCK_WRITE_CLOCK_ASCII?CLOCK
  +--> ?PR?RELOJ_PANTALLA_LCD?PANTALLAS
  +--> ?PR?_SEND_PORT?PTO_PARALELO
  +--> ?PR?_PANTALLALCD?PANTALLAS
  +--> ?PR?_BYTEHEX_DECIMAL?CLOCK
  +--> ?PR?_TWO_BYTEHEX_DECIMAL?CLOCK
  +--> ?PR?VALIDASENSORESPASO?IO_SENSORES
  +--> ?PR?_CMD_LPR_SALIDA_WIEGAND?ACCESCAN
  +--> ?PR?_PANTALLALCD_LINEA_2?PANTALLAS
  +--> ?PR?_GRABA_SERIE?EEPROM

?PR?_CALCULO_BCC?ACCESCAN                        -----    -----      -----    -----      0015H    0004H

?PR?_BLOCK_WRITE_CLOCK_ASCII?CLOCK               -----    -----      -----    -----      0015H    0003H
  +--> ?CO?CLOCK
  +--> ?PR?_DEBUG_TXT_TIBBO?TIBBO
  +--> ?PR?_TWO_ONE?CLOCK
  +--> ?PR?_WR_CLK?CLOCK

?PR?_WR_CLK?CLOCK                                -----    -----      -----    -----      0018H    0002H
  +--> ?PR?_DELAY_20US?DELAY
  +--> ?PR?_EB_CLK?CLOCK

?PR?RELOJ_PANTALLA_LCD?PANTALLAS                 -----    -----      -----    -----      0015H    000DH
  +--> ?CO?PANTALLAS
  +--> ?PR?_BLOCK_READ_CLOCK?CLOCK
  +--> ?PR?_LCD_TXT_NUM_CHAR?PANTALLAS
  +--> ?PR?_BLOCK_READ_CLOCK_ASCII_RASBERRY?...
  +--> ?PR?_STRCAT?STRCAT
  +--> ?PR?_RASPBERRY_DATA?PANTALLAS

?PR?_BLOCK_READ_CLOCK?CLOCK                      -----    -----      -----    -----      0022H    0003H
  +--> ?PR?_LEE_CLK?CLOCK

?PR?_LCD_TXT_NUM_CHAR?PANTALLAS                  -----    -----      -----    -----      0022H    0006H
  +--> ?PR?_TX_CHRLCD?PANTALLAS

?PR?_BLOCK_READ_CLOCK_ASCII_RASBERRY?...         -----    -----      -----    -----      0022H    0003H
  +--> ?PR?_LEE_CLK?CLOCK
BL51 BANKED LINKER/LOCATER V6.22.2.0                                                  06/08/2021  15:03:37  PAGE 24



?PR?_CMD_LPR_SALIDA_WIEGAND?ACCESCAN             -----    -----      -----    -----      0015H    0022H
  +--> ?PR?DIR_BOARD?IO_SENSORES
  +--> ?PR?_BLOCK_READ_CLOCK_ASCII?CLOCK
  +--> ?PR?_MONITOR_CHR?ACCESCAN

?PR?_MONITOR_CHR?ACCESCAN                        -----    -----      -----    -----      0037H    0005H
  +--> ?PR?_TX_AUX?TIBBO

?PR?_GRABA_SERIE?EEPROM                          -----    -----      -----    -----      0015H    0005H
  +--> ?CO?EEPROM
  +--> ?PR?_DEBUG_TXT_TIBBO?TIBBO
  +--> ?PR?_WRITE_EEPROM_TICKET?EEPROM
  +--> ?PR?_WR_EEPROM?EEPROM

?PR?MSJ_LCD_INFORMATIVO?IO_SENSORES              -----    -----      -----    -----      0001H    0001H
  +--> ?PR?SEL_FUNCION?IO_SENSORES
  +--> ?PR?VALIDASENSOR_CERO?IO_SENSORES
  +--> ?CO?IO_SENSORES
  +--> ?PR?_DEBUG_TXT_TIBBO?TIBBO
  +--> ?PR?_DEBUG_CHR_TIBBO?TIBBO
  +--> ?PR?LOAD_AND_SEND_INFO_RELOJ?PTO_PARA...
  +--> ?PR?VALIDASENSOR?IO_SENSORES
  +--> ?PR?_DELAY_10MS?DELAY
  +--> ?PR?LOAD_AND_SEND_ID_COD?PTO_PARALELO

?PR?LOAD_AND_SEND_INFO_RELOJ?PTO_PARA...         -----    -----      -----    -----      0002H    000BH
  +--> ?PR?_BLOCK_READ_CLOCK?CLOCK
  +--> ?PR?_LEE_CLK?CLOCK
  +--> ?CO?PTO_PARALELO
  +--> ?PR?_DEBUG_TXT_TIBBO?TIBBO
  +--> ?PR?_DEBUGBUFFERMF?TIBBO
  +--> ?PR?DEBUG_DIVIDIR_TEXTO?TIBBO
  +--> ?PR?_SEND_PORT?PTO_PARALELO

?PR?LOAD_AND_SEND_ID_COD?PTO_PARALELO            -----    -----      -----    -----      0002H    0014H
  +--> ?PR?_RD_EEPROM?EEPROM
  +--> ?CO?PTO_PARALELO
  +--> ?PR?PRINTF?PRINTF
  +--> ?PR?_STRCAT?STRCAT
  +--> ?PR?_STRLEN?STRLEN
  +--> ?PR?_DEBUG_TXT_TIBBO?TIBBO
  +--> ?PR?_DEBUGBUFFERMF?TIBBO
  +--> ?PR?DEBUG_DIVIDIR_TEXTO?TIBBO
  +--> ?PR?_SEND_PORT?PTO_PARALELO



SYMBOL TABLE OF MODULE:  .\Objects\expedidor_v_01_raspberry (MAIN)

  VALUE           TYPE          NAME
  ----------------------------------

  -------         MODULE        MAIN
  C:0000H         SYMBOL        _ICE_DUMMY_
  D:0080H         PUBLIC        P0
  D:0090H         PUBLIC        P1
BL51 BANKED LINKER/LOCATER V6.22.2.0                                                  06/08/2021  15:03:37  PAGE 25


  C:BDE2H         PUBLIC        timer0_int
  D:00B0H         PUBLIC        P3
  B:00A8H.7       PUBLIC        EA
  C:C223H         PUBLIC        off_Timer0_Interrup
  X:0171H         PUBLIC        ValTimeOutCom
  X:0172H         PUBLIC        Buffer_Rta_Lintech
  X:01A4H         PUBLIC        Timer_wait
  B:0021H.1       PUBLIC        pto_paraleo
  X:01A5H         PUBLIC        g_cContByteRx
  B:0080H.0       PUBLIC        rx_ip
  C:ACD3H         PUBLIC        main
  X:01A6H         PUBLIC        Timer_tivo
  B:0080H.3       PUBLIC        Atascado_GP0_PIN_3
  C:B75DH         PUBLIC        variable_inicio
  B:0090H.7       PUBLIC        lock
  I:0023H         PUBLIC        rbuf
  C:C219H         PUBLIC        on_Timer0_Interrup
  I:0055H         PUBLIC        tbuf
  B:0090H.1       PUBLIC        DataIn
  D:0089H         PUBLIC        TMOD
  X:01A8H         PUBLIC        USE_LPR
  X:01A9H         PUBLIC        Debug_Tibbo
  X:01AAH         PUBLIC        Raspberry
  X:01ABH         PUBLIC        SIN_COBRO
  X:01ADH         PUBLIC        Tipo_Vehiculo
  B:00B0H.3       PUBLIC        busy
  C:C17AH         PUBLIC        ini_timer
  B:00A8H.1       PUBLIC        ET0
  B:0088H.5       PUBLIC        TF0
  D:008CH         PUBLIC        TH0
  X:01AEH         PUBLIC        ACK
  X:01AFH         PUBLIC        g_cEstadoComSoft
  D:008AH         PUBLIC        TL0
  B:0088H.4       PUBLIC        TR0
  C:C18AH         PUBLIC        inicia_board
  X:01B0H         PUBLIC        T_GRACIA
  B:0080H.7       PUBLIC        sel_com
  X:01B2H         PUBLIC        STX_LINTECH
  C:C1A9H         PUBLIC        _getkey
  X:01B3H         PUBLIC        ETX
  C:B68BH         PUBLIC        _EscribirCadenaSoft_buffer
  B:0021H.2       PUBLIC        buffer_ready
  C:B9ACH         PUBLIC        _putchar
  B:0021H.3       PUBLIC        placa_ready
  -------         PROC          TIMER0_INT
  C:BDE2H         LINE#         16
  C:BDE8H         LINE#         19
  C:BDEEH         LINE#         20
  C:BDF3H         LINE#         21
  C:BDF3H         LINE#         22
  C:BDF9H         LINE#         23
  C:BDF9H         LINE#         25
  C:BE07H         LINE#         26
  C:BE09H         LINE#         28
  -------         ENDPROC       TIMER0_INT
  -------         PROC          INI_TIMER
  C:C17AH         LINE#         31
BL51 BANKED LINKER/LOCATER V6.22.2.0                                                  06/08/2021  15:03:37  PAGE 26


  C:C17AH         LINE#         32
  C:C17AH         LINE#         34
  C:C182H         LINE#         36
  C:C185H         LINE#         37
  C:C187H         LINE#         38
  C:C189H         LINE#         40
  -------         ENDPROC       INI_TIMER
  -------         PROC          ON_TIMER0_INTERRUP
  C:C219H         LINE#         43
  C:C219H         LINE#         44
  C:C219H         LINE#         45
  C:C21BH         LINE#         46
  C:C21DH         LINE#         48
  -------         ENDPROC       ON_TIMER0_INTERRUP
  -------         PROC          OFF_TIMER0_INTERRUP
  C:C223H         LINE#         51
  C:C223H         LINE#         52
  C:C223H         LINE#         53
  C:C225H         LINE#         55
  -------         ENDPROC       OFF_TIMER0_INTERRUP
  -------         PROC          _GETKEY
  -------         DO            
  D:0006H         SYMBOL        k
  -------         ENDDO         
  C:C1A9H         LINE#         63
  C:C1A9H         LINE#         64
  C:C1A9H         LINE#         68
  C:C1A9H         LINE#         69
  C:C1ACH         LINE#         70
  C:C1ACH         LINE#         71
  C:C1B4H         LINE#         73
  C:C1B4H         LINE#         74
  -------         ENDPROC       _GETKEY
  -------         PROC          _PUTCHAR
  X:00A7H         SYMBOL        c
  -------         DO            
  X:00A8H         SYMBOL        i
  -------         ENDDO         
  C:B9ACH         LINE#         78
  C:B9B1H         LINE#         79
  C:B9B1H         LINE#         82
  C:B9C0H         LINE#         83
  C:B9C0H         LINE#         84
  C:B9D6H         LINE#         85
  C:B9D6H         LINE#         87
  C:B9E4H         LINE#         88
  C:B9E4H         LINE#         90
  C:B9E9H         LINE#         91
  -------         ENDPROC       _PUTCHAR
  -------         PROC          _ESCRIBIRCADENASOFT_BUFFER
  X:0027H         SYMBOL        buffer
  X:002AH         SYMBOL        tamano_cadena
  -------         DO            
  X:002BH         SYMBOL        i
  X:002CH         SYMBOL        d
  -------         ENDDO         
  C:B68BH         LINE#         95
BL51 BANKED LINKER/LOCATER V6.22.2.0                                                  06/08/2021  15:03:37  PAGE 27


  C:B699H         LINE#         96
  C:B699H         LINE#         98
  C:B6A7H         LINE#         99
  C:B6A7H         LINE#         100
  C:B6BEH         LINE#         101
  C:B6C8H         LINE#         102
  C:B6D0H         LINE#         103
  -------         ENDPROC       _ESCRIBIRCADENASOFT_BUFFER
  -------         PROC          INICIA_BOARD
  C:C18AH         LINE#         108
  C:C18AH         LINE#         109
  C:C18AH         LINE#         110
  C:C18DH         LINE#         111
  C:C190H         LINE#         112
  C:C193H         LINE#         113
  C:C195H         LINE#         114
  C:C197H         LINE#         115
  C:C199H         LINE#         117
  -------         ENDPROC       INICIA_BOARD
  -------         PROC          VARIABLE_INICIO
  C:B75DH         LINE#         122
  C:B75DH         LINE#         123
  C:B75DH         LINE#         126
  C:B76EH         LINE#         127
  C:B77FH         LINE#         129
  C:B78DH         LINE#         130
  C:B79BH         LINE#         131
  C:B7A1H         LINE#         133
  -------         ENDPROC       VARIABLE_INICIO
  -------         PROC          MAIN
  -------         DO            
  X:0148H         SYMBOL        buffer
  X:0170H         SYMBOL        Estado_Comunicacion_Secuencia_MF
  X:0000H         SYMBOL        Length_trama
  -------         ENDDO         
  C:ACD3H         LINE#         141
  C:ACD3H         LINE#         142
  C:ACD3H         LINE#         149
  C:ACD6H         LINE#         150
  C:ACD9H         LINE#         151
  C:ACDCH         LINE#         152
  C:ACDFH         LINE#         153
  C:ACE2H         LINE#         154
  C:ACE4H         LINE#         156
  C:ACE7H         LINE#         157
  C:ACEEH         LINE#         158
  C:ACF1H         LINE#         160
  C:ACF6H         LINE#         162
  C:ACF9H         LINE#         164
  C:ACFCH         LINE#         165
  C:ACFCH         LINE#         166
  C:ACFFH         LINE#         167
  C:ACFFH         LINE#         170
  C:AD02H         LINE#         171
  C:AD08H         LINE#         172
  C:AD0EH         LINE#         174
  C:AD0EH         LINE#         175
BL51 BANKED LINKER/LOCATER V6.22.2.0                                                  06/08/2021  15:03:37  PAGE 28


  C:AD0EH         LINE#         178
  C:AD11H         LINE#         179
  C:AD11H         LINE#         180
  C:AD14H         LINE#         181
  C:AD14H         LINE#         185
  C:AD21H         LINE#         190
  C:AD27H         LINE#         191
  C:AD27H         LINE#         193
  C:AD36H         LINE#         196
  C:AD3FH         LINE#         197
  C:AD4DH         LINE#         202
  C:AD4DH         LINE#         203
  C:AD50H         LINE#         206
  -------         ENDPROC       MAIN
  -------         ENDMOD        MAIN

  -------         MODULE        ACCESCAN
  C:0000H         SYMBOL        _ICE_DUMMY_
  D:0080H         PUBLIC        P0
  D:0090H         PUBLIC        P1
  D:00B0H         PUBLIC        P3
  B:0080H.2       PUBLIC        led_err_imp
  C:B86BH         PUBLIC        _Monitor_chr
  B:0080H.3       PUBLIC        Atascado_GP0_PIN_3
  B:0090H.7       PUBLIC        lock
  C:35ACH         PUBLIC        _Valida_Trama_Pto
  C:BCE5H         PUBLIC        _Calculo_bcc
  C:8ACDH         PUBLIC        _Cmd_LPR_Salida_wiegand
  -------         PROC          _VALIDA_TRAMA_PTO
  X:0001H         SYMBOL        buffer
  X:0004H         SYMBOL        length_trama
  -------         DO            
  X:0218H         SYMBOL        cont
  X:0005H         SYMBOL        bcc
  X:0006H         SYMBOL        buff
  X:0011H         SYMBOL        buffer_port
  -------         ENDDO         
  C:35ACH         LINE#         111
  C:35BAH         LINE#         112
  C:35BAH         LINE#         115
  C:35BDH         LINE#         120
  C:3600H         LINE#         121
  C:3600H         LINE#         122
  C:3609H         LINE#         123
  C:361EH         LINE#         124
  C:3627H         LINE#         125
  C:363EH         LINE#         126
  C:3647H         LINE#         127
  C:364FH         LINE#         128
  C:3658H         LINE#         129
  C:3671H         LINE#         130
  C:3671H         LINE#         132
  C:3681H         LINE#         133
  C:3681H         LINE#         134
  C:3694H         LINE#         136
  C:3697H         LINE#         138
  C:3697H         LINE#         141
BL51 BANKED LINKER/LOCATER V6.22.2.0                                                  06/08/2021  15:03:37  PAGE 29


  C:3697H         LINE#         143
  C:3697H         LINE#         145
  C:369DH         LINE#         146
  C:36A1H         LINE#         147
  C:36A5H         LINE#         148
  C:36A8H         LINE#         149
  C:36B3H         LINE#         151
  C:36BCH         LINE#         152
  C:36C4H         LINE#         153
  C:36CCH         LINE#         154
  C:36D4H         LINE#         155
  C:36DDH         LINE#         156
  C:36DDH         LINE#         159
  C:36DDH         LINE#         162
  C:36EFH         LINE#         163
  C:36EFH         LINE#         164
  C:36F1H         LINE#         165
  C:36F4H         LINE#         167
  C:3706H         LINE#         168
  C:3706H         LINE#         169
  C:3708H         LINE#         170
  C:370BH         LINE#         172
  C:371DH         LINE#         173
  C:371DH         LINE#         174
  C:371FH         LINE#         175
  C:3722H         LINE#         177
  C:373CH         LINE#         178
  C:373CH         LINE#         179
  C:373EH         LINE#         180
  C:3741H         LINE#         182
  C:375BH         LINE#         183
  C:375BH         LINE#         184
  C:375DH         LINE#         185
  C:3760H         LINE#         187
  C:3772H         LINE#         188
  C:3772H         LINE#         189
  C:3778H         LINE#         190
  C:3785H         LINE#         191
  C:3785H         LINE#         192
  C:378AH         LINE#         193
  C:378CH         LINE#         194
  C:3791H         LINE#         195
  C:3793H         LINE#         196
  C:3795H         LINE#         197
  C:3799H         LINE#         198
  C:3799H         LINE#         199
  C:379AH         LINE#         201
  C:37B2H         LINE#         202
  C:37B2H         LINE#         204
  C:37BFH         LINE#         205
  C:37BFH         LINE#         206
  C:37C1H         LINE#         207
  C:37C3H         LINE#         208
  C:37C5H         LINE#         209
  C:37C7H         LINE#         210
  C:37C7H         LINE#         212
  C:37EDH         LINE#         213
BL51 BANKED LINKER/LOCATER V6.22.2.0                                                  06/08/2021  15:03:37  PAGE 30


  C:37EDH         LINE#         214
  C:37F1H         LINE#         215
  C:37F6H         LINE#         216
  C:37FFH         LINE#         217
  C:3804H         LINE#         218
  C:3804H         LINE#         221
  C:3805H         LINE#         223
  C:381FH         LINE#         224
  C:381FH         LINE#         225
  C:3821H         LINE#         226
  C:3824H         LINE#         228
  C:383EH         LINE#         229
  C:383EH         LINE#         230
  C:3840H         LINE#         231
  C:3843H         LINE#         233
  C:385DH         LINE#         234
  C:385DH         LINE#         235
  C:385FH         LINE#         236
  C:3861H         LINE#         238
  C:387BH         LINE#         239
  C:387BH         LINE#         240
  C:387DH         LINE#         241
  C:387FH         LINE#         244
  C:3899H         LINE#         245
  C:3899H         LINE#         246
  C:389BH         LINE#         247
  C:389DH         LINE#         251
  C:38B7H         LINE#         252
  C:38B7H         LINE#         253
  C:38B9H         LINE#         254
  C:38BBH         LINE#         257
  C:38D5H         LINE#         258
  C:38D5H         LINE#         259
  C:38DAH         LINE#         260
  C:38DAH         LINE#         263
  C:390BH         LINE#         264
  C:390BH         LINE#         265
  C:3913H         LINE#         266
  C:391CH         LINE#         267
  C:391FH         LINE#         270
  C:3950H         LINE#         271
  C:3950H         LINE#         273
  C:3958H         LINE#         274
  C:3961H         LINE#         275
  C:3964H         LINE#         278
  C:39A4H         LINE#         279
  C:39A4H         LINE#         281
  C:39B9H         LINE#         282
  C:39BFH         LINE#         283
  C:39E9H         LINE#         286
  C:39F1H         LINE#         287
  C:39F1H         LINE#         290
  C:39F8H         LINE#         291
  C:39F8H         LINE#         292
  C:39FDH         LINE#         293
  C:39FDH         LINE#         294
  C:39FFH         LINE#         296
BL51 BANKED LINKER/LOCATER V6.22.2.0                                                  06/08/2021  15:03:37  PAGE 31


  C:39FFH         LINE#         297
  C:3A08H         LINE#         298
  C:3A10H         LINE#         299
  C:3A10H         LINE#         303
  C:3A12H         LINE#         306
  C:3A12H         LINE#         314
  C:3A1AH         LINE#         318
  C:3A1AH         LINE#         319
  C:3A1CH         LINE#         321
  C:3A54H         LINE#         322
  C:3A54H         LINE#         323
  C:3A5CH         LINE#         324
  C:3A68H         LINE#         325
  C:3A68H         LINE#         327
  C:3A95H         LINE#         328
  C:3A95H         LINE#         329
  C:3AA4H         LINE#         331
  C:3AA4H         LINE#         333
  -------         ENDPROC       _VALIDA_TRAMA_PTO
  -------         PROC          _MONITOR_CHR
  X:0037H         SYMBOL        str
  X:003AH         SYMBOL        num_char
  -------         DO            
  X:003BH         SYMBOL        j
  -------         ENDDO         
  C:B86BH         LINE#         488
  C:B879H         LINE#         489
  C:B879H         LINE#         491
  C:B887H         LINE#         492
  C:B887H         LINE#         493
  C:B899H         LINE#         494
  C:B8A3H         LINE#         495
  C:B8ABH         LINE#         496
  -------         ENDPROC       _MONITOR_CHR
  -------         PROC          _CMD_LPR_SALIDA_WIEGAND
  X:0015H         SYMBOL        buffer
  -------         DO            
  X:0018H         SYMBOL        Buffer_Lpr
  X:0036H         SYMBOL        j
  -------         ENDDO         
  C:8ACDH         LINE#         501
  C:8AD8H         LINE#         502
  C:8AD8H         LINE#         504
  C:8ADEH         LINE#         505
  C:8AE3H         LINE#         506
  C:8AEBH         LINE#         507
  C:8AEFH         LINE#         508
  C:8AF8H         LINE#         509
  C:8AF8H         LINE#         510
  C:8B09H         LINE#         511
  C:8B0BH         LINE#         513
  C:8B0BH         LINE#         514
  C:8B1CH         LINE#         515
  C:8B1CH         LINE#         519
  C:8B33H         LINE#         520
  C:8B33H         LINE#         521
  C:8B42H         LINE#         522
BL51 BANKED LINKER/LOCATER V6.22.2.0                                                  06/08/2021  15:03:37  PAGE 32


  C:8B4CH         LINE#         524
  C:8B54H         LINE#         525
  C:8B68H         LINE#         527
  C:8B78H         LINE#         528
  C:8B89H         LINE#         529
  C:8B96H         LINE#         533
  -------         ENDPROC       _CMD_LPR_SALIDA_WIEGAND
  -------         PROC          _CALCULO_BCC
  X:0015H         SYMBOL        buffer
  X:0018H         SYMBOL        leng_trama
  -------         DO            
  D:0007H         SYMBOL        bcc
  D:0006H         SYMBOL        j
  -------         ENDDO         
  C:BCE5H         LINE#         535
  C:BCF3H         LINE#         536
  C:BCF3H         LINE#         537
  C:BCF5H         LINE#         540
  C:BD00H         LINE#         541
  C:BD00H         LINE#         542
  C:BD15H         LINE#         543
  C:BD18H         LINE#         544
  C:BD18H         LINE#         545
  -------         ENDPROC       _CALCULO_BCC
  -------         ENDMOD        ACCESCAN

  -------         MODULE        CLOCK
  C:0000H         SYMBOL        _ICE_DUMMY_
  C:B8E0H         PUBLIC        _two_one
  D:0090H         PUBLIC        P1
  C:787EH         PUBLIC        _validar_clk
  C:BE3AH         PUBLIC        _wr_clk
  C:8ED7H         PUBLIC        _check_fechaOut
  C:6070H         PUBLIC        _Block_read_clock_ascii_rasberry
  B:00D0H.7       PUBLIC        CY
  C:0003H         PUBLIC        p_ck
  C:A2AEH         PUBLIC        _hex_ascii
  C:AEC2H         PUBLIC        _hora_entrada_vehiculo
  X:0219H         PUBLIC        data_clk
  C:C1DBH         PUBLIC        cond_ini_clock
  C:8FA0H         PUBLIC        _Block_read_Clock
  B:0090H.4       PUBLIC        sck
  C:9BE7H         PUBLIC        _Block_read_Clock_Hex
  C:6742H         PUBLIC        _Block_read_clock_ascii
  C:BA44H         PUBLIC        _hex_bcd
  C:C051H         PUBLIC        _bcd_hex
  C:B220H         PUBLIC        _ByteHex_Decimal
  C:A3DAH         PUBLIC        _lee_clk
  B:0090H.5       PUBLIC        io
  C:9DD6H         PUBLIC        _Block_write_clock_ascii
  B:0090H.6       PUBLIC        rst
  C:B96DH         PUBLIC        _eb_clk
  C:475EH         PUBLIC        _Two_ByteHex_Decimal
  -------         PROC          P_CK
  C:0003H         LINE#         69
  C:0003H         LINE#         70
  C:0003H         LINE#         71
BL51 BANKED LINKER/LOCATER V6.22.2.0                                                  06/08/2021  15:03:37  PAGE 33


  C:0005H         LINE#         72
  C:0008H         LINE#         73
  C:000AH         LINE#         74
  -------         ENDPROC       P_CK
  -------         PROC          _EB_CLK
  X:00B4H         SYMBOL        dir_clk
  -------         DO            
  X:00B5H         SYMBOL        nbits
  -------         ENDDO         
  C:B96DH         LINE#         76
  C:B972H         LINE#         78
  C:B977H         LINE#         79
  C:B977H         LINE#         80
  C:B980H         LINE#         81
  C:B983H         LINE#         82
  C:B983H         LINE#         83
  C:B985H         LINE#         84
  C:B987H         LINE#         86
  C:B987H         LINE#         87
  C:B989H         LINE#         88
  C:B989H         LINE#         89
  C:B98CH         LINE#         90
  C:B9ABH         LINE#         91
  -------         ENDPROC       _EB_CLK
  C:A3D0H         SYMBOL        L?0084
  -------         PROC          L?0083
  -------         ENDPROC       L?0083
  C:A3D0H         SYMBOL        L?0084
  -------         PROC          _LEE_CLK
  X:00B1H         SYMBOL        dir_clk
  -------         DO            
  X:00B2H         SYMBOL        nbits
  -------         ENDDO         
  C:A3DAH         LINE#         93
  C:A3DFH         LINE#         95
  C:A3E1H         LINE#         96
  C:A3E8H         LINE#         97
  C:A3F0H         LINE#         98
  C:A409H         LINE#         99
  C:A409H         LINE#         100
  C:A40CH         LINE#         101
  C:A40CH         LINE#         102
  C:A413H         LINE#         103
  C:A41DH         LINE#         104
  C:A422H         LINE#         105
  C:A422H         LINE#         106
  C:A422H         LINE#         107
  C:A425H         LINE#         108
  C:A425H         LINE#         109
  C:A42CH         LINE#         110
  C:A43DH         LINE#         111
  C:A43DH         LINE#         112
  C:A445H         LINE#         113
  C:A445H         LINE#         114
  C:A445H         LINE#         115
  C:A448H         LINE#         116
  C:A458H         LINE#         117
BL51 BANKED LINKER/LOCATER V6.22.2.0                                                  06/08/2021  15:03:37  PAGE 34


  C:A45AH         LINE#         118
  C:A45FH         LINE#         119
  -------         ENDPROC       _LEE_CLK
  -------         PROC          _WR_CLK
  X:0018H         SYMBOL        dir_clk
  X:0019H         SYMBOL        byte
  C:BE3AH         LINE#         121
  C:BE42H         LINE#         122
  C:BE44H         LINE#         123
  C:BE4BH         LINE#         124
  C:BE53H         LINE#         125
  C:BE5CH         LINE#         126
  C:BE5FH         LINE#         127
  C:BE61H         LINE#         129
  -------         ENDPROC       _WR_CLK
  C:B8ACH         SYMBOL        L?0079
  C:B8CAH         SYMBOL        L?0080
  -------         PROC          L?0078
  -------         ENDPROC       L?0078
  C:B8ACH         SYMBOL        L?0079
  C:B8CAH         SYMBOL        L?0080
  -------         PROC          _TWO_ONE
  D:0007H         SYMBOL        byte_h
  D:0005H         SYMBOL        byte_l
  -------         DO            
  D:0007H         SYMBOL        byte_out
  -------         ENDDO         
  C:B8E0H         LINE#         131
  C:B8E0H         LINE#         132
  C:B8E0H         LINE#         134
  C:B8E3H         LINE#         135
  C:B8E7H         LINE#         136
  C:B8EAH         LINE#         137
  C:B8ECH         LINE#         138
  C:B8ECH         LINE#         139
  -------         ENDPROC       _TWO_ONE
  -------         PROC          _VALIDAR_CLK
  D:0001H         SYMBOL        datos_clock
  -------         DO            
  D:0007H         SYMBOL        validador
  -------         ENDDO         
  C:787EH         LINE#         143
  C:787EH         LINE#         144
  C:787EH         LINE#         145
  C:7880H         LINE#         148
  C:7895H         LINE#         149
  C:7895H         LINE#         151
  C:78ADH         LINE#         152
  C:78ADH         LINE#         154
  C:78C5H         LINE#         155
  C:78C5H         LINE#         156
  C:78DDH         LINE#         157
  C:78DDH         LINE#         158
  C:78F5H         LINE#         159
  C:78F5H         LINE#         160
  C:790AH         LINE#         161
  C:790AH         LINE#         162
BL51 BANKED LINKER/LOCATER V6.22.2.0                                                  06/08/2021  15:03:37  PAGE 35


  C:791CH         LINE#         163
  C:791CH         LINE#         164
  C:792EH         LINE#         165
  C:792EH         LINE#         166
  C:7940H         LINE#         167
  C:7940H         LINE#         168
  C:7952H         LINE#         169
  C:7952H         LINE#         170
  C:7964H         LINE#         171
  C:7964H         LINE#         172
  C:7974H         LINE#         173
  C:7974H         LINE#         174
  C:7974H         LINE#         175
  C:7974H         LINE#         176
  C:7975H         LINE#         178
  C:7975H         LINE#         179
  C:7977H         LINE#         180
  C:7977H         LINE#         181
  C:7978H         LINE#         183
  C:7978H         LINE#         184
  C:797AH         LINE#         186
  C:797AH         LINE#         187
  C:797BH         LINE#         189
  C:797BH         LINE#         190
  C:797DH         LINE#         192
  C:797DH         LINE#         194
  C:797EH         LINE#         196
  C:797EH         LINE#         197
  C:7980H         LINE#         199
  C:7980H         LINE#         200
  C:7981H         LINE#         202
  C:7981H         LINE#         203
  C:7983H         LINE#         205
  C:7983H         LINE#         206
  C:7984H         LINE#         208
  C:7984H         LINE#         209
  C:7986H         LINE#         211
  C:7986H         LINE#         212
  C:7987H         LINE#         214
  C:7987H         LINE#         215
  C:7989H         LINE#         217
  C:7989H         LINE#         218
  C:7989H         LINE#         220
  C:798AH         LINE#         222
  C:798AH         LINE#         223
  C:798CH         LINE#         225
  C:798CH         LINE#         227
  C:798DH         LINE#         230
  C:798DH         LINE#         231
  C:798FH         LINE#         233
  C:798FH         LINE#         235
  C:7990H         LINE#         238
  C:7990H         LINE#         239
  C:7992H         LINE#         241
  C:7992H         LINE#         243
  C:7992H         LINE#         245
  -------         ENDPROC       _VALIDAR_CLK
BL51 BANKED LINKER/LOCATER V6.22.2.0                                                  06/08/2021  15:03:37  PAGE 36


  -------         PROC          _BLOCK_WRITE_CLOCK_ASCII
  X:0015H         SYMBOL        datos_clock
  -------         DO            
  D:0007H         SYMBOL        temp
  -------         ENDDO         
  C:9DD6H         LINE#         251
  C:9DE1H         LINE#         253
  C:9DE1H         LINE#         256
  C:9DEAH         LINE#         257
  C:9DF3H         LINE#         259
  C:9DFDH         LINE#         260
  C:9DFDH         LINE#         261
  C:9DFDH         LINE#         262
  C:9DFDH         LINE#         264
  C:9E07H         LINE#         265
  C:9E11H         LINE#         266
  C:9E1BH         LINE#         267
  C:9E1BH         LINE#         268
  C:9E1BH         LINE#         269
  C:9E1BH         LINE#         271
  C:9E25H         LINE#         272
  C:9E25H         LINE#         273
  C:9E25H         LINE#         274
  C:9E25H         LINE#         276
  C:9E2FH         LINE#         277
  C:9E2FH         LINE#         278
  C:9E2FH         LINE#         279
  C:9E2FH         LINE#         281
  C:9E39H         LINE#         282
  C:9E39H         LINE#         283
  C:9E39H         LINE#         284
  C:9E39H         LINE#         286
  C:9E43H         LINE#         287
  C:9E4DH         LINE#         288
  C:9E57H         LINE#         289
  C:9E61H         LINE#         291
  C:9E71H         LINE#         292
  -------         ENDPROC       _BLOCK_WRITE_CLOCK_ASCII
  -------         PROC          _BCD_HEX
  D:0007H         SYMBOL        l_data
  -------         DO            
  D:0006H         SYMBOL        temp
  D:0005H         SYMBOL        j
  -------         ENDDO         
  C:C051H         LINE#         298
  C:C051H         LINE#         299
  C:C051H         LINE#         301
  C:C053H         LINE#         302
  C:C057H         LINE#         303
  C:C05AH         LINE#         304
  C:C05CH         LINE#         305
  C:C05CH         LINE#         306
  C:C060H         LINE#         307
  C:C067H         LINE#         308
  C:C067H         LINE#         309
  C:C06BH         LINE#         310
  C:C06EH         LINE#         311
BL51 BANKED LINKER/LOCATER V6.22.2.0                                                  06/08/2021  15:03:37  PAGE 37


  C:C06EH         LINE#         312
  C:C06EH         LINE#         313
  -------         ENDPROC       _BCD_HEX
  C:BA35H         SYMBOL        L?0082
  -------         PROC          L?0081
  -------         ENDPROC       L?0081
  C:BA35H         SYMBOL        L?0082
  -------         PROC          _HEX_BCD
  D:0007H         SYMBOL        byte
  -------         DO            
  D:0006H         SYMBOL        nibble_h
  D:0005H         SYMBOL        nibble_l
  D:0004H         SYMBOL        k
  D:0007H         SYMBOL        byte_out
  -------         ENDDO         
  C:BA44H         LINE#         317
  C:BA44H         LINE#         318
  C:BA44H         LINE#         323
  C:BA46H         LINE#         324
  C:BA47H         LINE#         326
  C:BA4DH         LINE#         327
  C:BA4DH         LINE#         328
  C:BA4EH         LINE#         329
  C:BA53H         LINE#         330
  C:BA53H         LINE#         331
  C:BA54H         LINE#         332
  C:BA55H         LINE#         333
  C:BA55H         LINE#         334
  C:BA58H         LINE#         335
  C:BA5CH         LINE#         336
  C:BA5FH         LINE#         337
  C:BA62H         LINE#         338
  C:BA64H         LINE#         339
  C:BA64H         LINE#         341
  -------         ENDPROC       _HEX_BCD
  -------         PROC          _HEX_ASCII
  X:005DH         SYMBOL        datos
  X:0060H         SYMBOL        fecha_asii
  -------         DO            
  D:0007H         SYMBOL        dato
  -------         ENDDO         
  C:A2AEH         LINE#         342
  C:A2B9H         LINE#         343
  C:A2B9H         LINE#         347
  C:A2BCH         LINE#         348
  C:A2D4H         LINE#         349
  C:A2E9H         LINE#         350
  C:A2E9H         LINE#         352
  C:A2ECH         LINE#         353
  C:A307H         LINE#         354
  C:A30FH         LINE#         355
  C:A30FH         LINE#         357
  C:A312H         LINE#         358
  C:A32DH         LINE#         359
  C:A338H         LINE#         361
  -------         ENDPROC       _HEX_ASCII
  -------         PROC          _BYTEHEX_DECIMAL
BL51 BANKED LINKER/LOCATER V6.22.2.0                                                  06/08/2021  15:03:37  PAGE 38


  D:0001H         SYMBOL        buffer
  D:0005H         SYMBOL        valorhex
  -------         DO            
  X:0015H         SYMBOL        numero
  D:0007H         SYMBOL        centena
  D:0006H         SYMBOL        decena
  -------         ENDDO         
  C:B220H         LINE#         369
  C:B220H         LINE#         370
  C:B220H         LINE#         373
  C:B222H         LINE#         374
  C:B223H         LINE#         375
  C:B228H         LINE#         377
  C:B235H         LINE#         378
  C:B235H         LINE#         379
  C:B239H         LINE#         380
  C:B23AH         LINE#         381
  C:B23CH         LINE#         382
  C:B242H         LINE#         383
  C:B249H         LINE#         384
  C:B256H         LINE#         385
  C:B256H         LINE#         386
  C:B25AH         LINE#         387
  C:B25BH         LINE#         388
  C:B25DH         LINE#         389
  C:B263H         LINE#         390
  C:B26AH         LINE#         391
  C:B273H         LINE#         392
  C:B27AH         LINE#         393
  -------         ENDPROC       _BYTEHEX_DECIMAL
  -------         PROC          _TWO_BYTEHEX_DECIMAL
  X:0015H         SYMBOL        buffer
  X:0018H         SYMBOL        id_h
  X:0019H         SYMBOL        id_l
  -------         DO            
  X:001AH         SYMBOL        valor
  D:0006H         SYMBOL        numero
  X:001CH         SYMBOL        temp
  X:001DH         SYMBOL        dmil
  X:001EH         SYMBOL        mil
  X:001FH         SYMBOL        centena
  X:0020H         SYMBOL        decena
  -------         ENDDO         
  C:475EH         LINE#         400
  C:476CH         LINE#         401
  C:476CH         LINE#         405
  C:4773H         LINE#         406
  C:4777H         LINE#         407
  C:4779H         LINE#         408
  C:477BH         LINE#         409
  C:477DH         LINE#         412
  C:4782H         LINE#         413
  C:4785H         LINE#         414
  C:478BH         LINE#         416
  C:47E6H         LINE#         417
  C:47EEH         LINE#         418
  C:47F1H         LINE#         419
BL51 BANKED LINKER/LOCATER V6.22.2.0                                                  06/08/2021  15:03:37  PAGE 39


  C:484CH         LINE#         421
  C:4854H         LINE#         422
  C:4857H         LINE#         423
  C:485DH         LINE#         424
  C:48B8H         LINE#         425
  C:48C0H         LINE#         426
  C:48C3H         LINE#         427
  C:491EH         LINE#         428
  C:491EH         LINE#         430
  C:4927H         LINE#         431
  C:4927H         LINE#         432
  C:492FH         LINE#         433
  C:4935H         LINE#         434
  C:4937H         LINE#         435
  C:494DH         LINE#         436
  C:4957H         LINE#         437
  C:4960H         LINE#         438
  C:4960H         LINE#         439
  C:4968H         LINE#         440
  C:496EH         LINE#         441
  C:4970H         LINE#         442
  C:4986H         LINE#         443
  C:4990H         LINE#         444
  C:4999H         LINE#         445
  C:4999H         LINE#         446
  C:49A1H         LINE#         447
  C:49A7H         LINE#         448
  C:49A9H         LINE#         449
  C:49BFH         LINE#         450
  C:49C9H         LINE#         451
  C:49D2H         LINE#         452
  C:49D2H         LINE#         453
  C:49DAH         LINE#         454
  C:49E0H         LINE#         455
  C:49E2H         LINE#         456
  C:49F8H         LINE#         457
  C:4A02H         LINE#         458
  C:4A15H         LINE#         459
  C:4A1FH         LINE#         460
  -------         ENDPROC       _TWO_BYTEHEX_DECIMAL
  -------         PROC          _BLOCK_READ_CLOCK_ASCII
  X:0051H         SYMBOL        datos_clock
  -------         DO            
  D:0007H         SYMBOL        dato
  -------         ENDDO         
  C:6742H         LINE#         466
  C:6745H         LINE#         467
  C:6745H         LINE#         473
  C:6748H         LINE#         474
  C:6760H         LINE#         475
  C:676AH         LINE#         476
  C:677FH         LINE#         477
  C:6789H         LINE#         480
  C:678EH         LINE#         481
  C:67A6H         LINE#         482
  C:67B0H         LINE#         483
  C:67C5H         LINE#         484
BL51 BANKED LINKER/LOCATER V6.22.2.0                                                  06/08/2021  15:03:37  PAGE 40


  C:67CFH         LINE#         487
  C:67D4H         LINE#         488
  C:67ECH         LINE#         489
  C:67F6H         LINE#         490
  C:680BH         LINE#         491
  C:6815H         LINE#         495
  C:681AH         LINE#         496
  C:6832H         LINE#         497
  C:683CH         LINE#         498
  C:6851H         LINE#         499
  C:685BH         LINE#         502
  C:6860H         LINE#         503
  C:6878H         LINE#         504
  C:6882H         LINE#         505
  C:6897H         LINE#         506
  C:68A1H         LINE#         507
  -------         ENDPROC       _BLOCK_READ_CLOCK_ASCII
  -------         PROC          _BLOCK_READ_CLOCK_ASCII_RASBERRY
  X:0022H         SYMBOL        datos_clock
  -------         DO            
  D:0007H         SYMBOL        dato
  -------         ENDDO         
  C:6070H         LINE#         510
  C:607BH         LINE#         511
  C:607BH         LINE#         516
  C:6080H         LINE#         517
  C:6098H         LINE#         518
  C:60A2H         LINE#         519
  C:60B7H         LINE#         520
  C:60C1H         LINE#         523
  C:60C6H         LINE#         524
  C:60DEH         LINE#         525
  C:60E8H         LINE#         526
  C:60FDH         LINE#         527
  C:6107H         LINE#         531
  C:610CH         LINE#         532
  C:6124H         LINE#         533
  C:612EH         LINE#         534
  C:6143H         LINE#         535
  C:614DH         LINE#         540
  C:6152H         LINE#         541
  C:616AH         LINE#         542
  C:6174H         LINE#         543
  C:6189H         LINE#         544
  C:6193H         LINE#         547
  C:6198H         LINE#         548
  C:61B0H         LINE#         549
  C:61BAH         LINE#         550
  C:61CFH         LINE#         551
  C:61D9H         LINE#         552
  C:61E9H         LINE#         553
  C:61F3H         LINE#         556
  C:61F8H         LINE#         557
  C:6210H         LINE#         558
  C:621AH         LINE#         559
  C:622FH         LINE#         561
  C:6239H         LINE#         562
BL51 BANKED LINKER/LOCATER V6.22.2.0                                                  06/08/2021  15:03:37  PAGE 41


  -------         ENDPROC       _BLOCK_READ_CLOCK_ASCII_RASBERRY
  -------         PROC          _BLOCK_READ_CLOCK_HEX
  X:00AEH         SYMBOL        datos_clock
  C:9BE7H         LINE#         566
  C:9BEAH         LINE#         567
  C:9BEAH         LINE#         570
  C:9BFFH         LINE#         571
  C:9C09H         LINE#         573
  C:9C20H         LINE#         574
  C:9C2AH         LINE#         576
  C:9C41H         LINE#         577
  C:9C4BH         LINE#         579
  C:9C62H         LINE#         580
  C:9C6CH         LINE#         582
  C:9C83H         LINE#         583
  -------         ENDPROC       _BLOCK_READ_CLOCK_HEX
  -------         PROC          _HORA_ENTRADA_VEHICULO
  X:0005H         SYMBOL        Atributos_Expedidor
  C:AEC2H         LINE#         586
  C:AEC5H         LINE#         587
  C:AEC5H         LINE#         589
  C:AEDAH         LINE#         590
  C:AEF1H         LINE#         591
  C:AF08H         LINE#         592
  C:AF1FH         LINE#         593
  -------         ENDPROC       _HORA_ENTRADA_VEHICULO
  -------         PROC          _BLOCK_READ_CLOCK
  X:0022H         SYMBOL        datos_clock
  C:8FA0H         LINE#         599
  C:8FA3H         LINE#         600
  C:8FA3H         LINE#         602
  C:8FB5H         LINE#         603
  C:8FBFH         LINE#         605
  C:8FD3H         LINE#         606
  C:8FDDH         LINE#         608
  C:8FF1H         LINE#         609
  C:8FFBH         LINE#         611
  C:900FH         LINE#         612
  C:9019H         LINE#         614
  C:902DH         LINE#         615
  C:9037H         LINE#         617
  C:904BH         LINE#         618
  C:9055H         LINE#         619
  -------         ENDPROC       _BLOCK_READ_CLOCK
  -------         PROC          COND_INI_CLOCK
  C:C1DBH         LINE#         622
  C:C1DBH         LINE#         623
  C:C1DBH         LINE#         624
  C:C1DDH         LINE#         625
  C:C1DFH         LINE#         626
  C:C1E1H         LINE#         627
  -------         ENDPROC       COND_INI_CLOCK
  -------         PROC          _CHECK_FECHAOUT
  X:009CH         SYMBOL        buffer
  -------         DO            
  X:009FH         SYMBOL        fecha_inicio
  X:00A3H         SYMBOL        fecha_fin
BL51 BANKED LINKER/LOCATER V6.22.2.0                                                  06/08/2021  15:03:37  PAGE 42


  X:00A7H         SYMBOL        datos_clk
  X:00ADH         SYMBOL        temp
  -------         ENDDO         
  C:8ED7H         LINE#         637
  C:8EE2H         LINE#         638
  C:8EE2H         LINE#         644
  C:8EEBH         LINE#         645
  C:8F1AH         LINE#         646
  C:8F6DH         LINE#         649
  C:8F8DH         LINE#         650
  C:8F8DH         LINE#         651
  C:8F93H         LINE#         652
  C:8F95H         LINE#         654
  C:8F95H         LINE#         655
  C:8F9AH         LINE#         656
  C:8F9AH         LINE#         660
  C:8F9FH         LINE#         661
  -------         ENDPROC       _CHECK_FECHAOUT
  -------         ENDMOD        CLOCK

  -------         MODULE        DELAY
  C:0000H         SYMBOL        _ICE_DUMMY_
  C:BBCDH         PUBLIC        _Delay_10ms
  C:C10EH         PUBLIC        _Delay_20us
  C:C06FH         PUBLIC        _Delay_1ms
  C:C226H         PUBLIC        Delay
  -------         PROC          _DELAY_20US
  D:0006H         SYMBOL        cntd_us
  -------         DO            
  D:0004H         SYMBOL        i
  -------         ENDDO         
  C:C10EH         LINE#         20
  C:C10EH         LINE#         21
  C:C10EH         LINE#         24
  C:C118H         LINE#         26
  C:C11FH         LINE#         27
  -------         ENDPROC       _DELAY_20US
  -------         PROC          _DELAY_1MS
  D:0002H         SYMBOL        cntd_ms
  -------         DO            
  D:0082H         SYMBOL        i
  -------         ENDDO         
  C:C06FH         LINE#         38
  C:C073H         LINE#         39
  C:C073H         LINE#         41
  C:C089H         LINE#         42
  -------         ENDPROC       _DELAY_1MS
  -------         PROC          _DELAY_10MS
  X:001CH         SYMBOL        cntd_10ms
  -------         DO            
  X:001EH         SYMBOL        i
  -------         ENDDO         
  C:BBCDH         LINE#         54
  C:BBD5H         LINE#         55
  C:BBD5H         LINE#         57
  C:BC06H         LINE#         58
  -------         ENDPROC       _DELAY_10MS
BL51 BANKED LINKER/LOCATER V6.22.2.0                                                  06/08/2021  15:03:37  PAGE 43


  -------         PROC          DELAY
  C:C226H         LINE#         60
  C:C226H         LINE#         62
  -------         ENDPROC       DELAY
  -------         ENDMOD        DELAY

  -------         MODULE        EEPROM
  C:0000H         SYMBOL        _ICE_DUMMY_
  D:0090H         PUBLIC        P1
  C:848EH         PUBLIC        _Write_EEprom_Ticket
  C:AFA7H         PUBLIC        _EscribirMemoria
  X:020DH         PUBLIC        l_chr
  C:BFD6H         PUBLIC        ackd
  B:0021H.6       PUBLIC        memory_flag
  B:00D0H.7       PUBLIC        CY
  C:C213H         PUBLIC        p_me
  C:C128H         PUBLIC        start
  B:0090H.2       PUBLIC        sda
  C:BFF6H         PUBLIC        ack_lect
  B:0090H.3       PUBLIC        scl
  C:BA69H         PUBLIC        _rd_eeprom
  C:C1B5H         PUBLIC        stop
  X:020EH         PUBLIC        l_data_eeprom
  C:B3A9H         PUBLIC        _wr_eeprom
  C:B158H         PUBLIC        _LeerMemoria
  C:BD19H         PUBLIC        Incremente_Ticket
  X:020FH         PUBLIC        byte_rd
  C:8E0DH         PUBLIC        Read_EEprom_Ticket
  C:BF6EH         PUBLIC        _e_d_m
  C:8C76H         PUBLIC        _graba_serie
  C:B489H         PUBLIC        Lee_No_Ticket
  C:B43CH         PUBLIC        l_d_m
  -------         PROC          L?0057
  -------         ENDPROC       L?0057
  -------         PROC          ACKD
  -------         DO            
  D:0006H         SYMBOL        i
  -------         ENDDO         
  C:BFD6H         LINE#         35
  C:BFD6H         LINE#         36
  C:BFD6H         LINE#         38
  C:BFD8H         LINE#         39
  C:BFDAH         LINE#         40
  C:BFDCH         LINE#         41
  C:BFDFH         LINE#         42
  C:BFDFH         LINE#         43
  C:BFE2H         LINE#         44
  C:BFE2H         LINE#         45
  C:BFE4H         LINE#         46
  C:BFE6H         LINE#         48
  C:BFE7H         LINE#         49
  C:BFE7H         LINE#         50
  C:BFF2H         LINE#         52
  C:BFF2H         LINE#         53
  C:BFF2H         LINE#         55
  C:BFF2H         LINE#         56
  -------         ENDPROC       ACKD
BL51 BANKED LINKER/LOCATER V6.22.2.0                                                  06/08/2021  15:03:37  PAGE 44


  -------         PROC          L?0061
  -------         ENDPROC       L?0061
  -------         PROC          ACK_LECT
  -------         DO            
  D:0006H         SYMBOL        i
  -------         ENDDO         
  C:BFF6H         LINE#         59
  C:BFF6H         LINE#         60
  C:BFF6H         LINE#         62
  C:BFF8H         LINE#         63
  C:BFFAH         LINE#         64
  C:BFFCH         LINE#         65
  C:BFFFH         LINE#         66
  C:BFFFH         LINE#         67
  C:C002H         LINE#         68
  C:C002H         LINE#         69
  C:C004H         LINE#         70
  C:C006H         LINE#         71
  C:C007H         LINE#         72
  C:C007H         LINE#         73
  C:C012H         LINE#         74
  -------         ENDPROC       ACK_LECT
  -------         PROC          P_ME
  C:C213H         LINE#         76
  C:C213H         LINE#         77
  C:C213H         LINE#         78
  C:C215H         LINE#         79
  C:C216H         LINE#         80
  C:C218H         LINE#         81
  -------         ENDPROC       P_ME
  -------         PROC          _E_D_M
  D:0007H         SYMBOL        a_serial_eeprom
  -------         DO            
  D:0006H         SYMBOL        nbits
  -------         ENDDO         
  C:BF6EH         LINE#         83
  C:BF6EH         LINE#         84
  C:BF6EH         LINE#         86
  C:BF7AH         LINE#         87
  C:BF7AH         LINE#         88
  C:BF7EH         LINE#         89
  C:BF81H         LINE#         90
  C:BF81H         LINE#         91
  C:BF83H         LINE#         92
  C:BF85H         LINE#         94
  C:BF85H         LINE#         95
  C:BF87H         LINE#         96
  C:BF87H         LINE#         97
  C:BF89H         LINE#         98
  C:BF8CH         LINE#         99
  C:BF8FH         LINE#         101
  -------         ENDPROC       _E_D_M
  -------         PROC          L?0058
  -------         ENDPROC       L?0058
  -------         PROC          START
  C:C128H         LINE#         103
  C:C128H         LINE#         104
BL51 BANKED LINKER/LOCATER V6.22.2.0                                                  06/08/2021  15:03:37  PAGE 45


  C:C128H         LINE#         105
  C:C12AH         LINE#         106
  C:C12CH         LINE#         107
  C:C12DH         LINE#         108
  C:C12FH         LINE#         109
  C:C131H         LINE#         111
  -------         ENDPROC       START
  -------         PROC          STOP
  C:C1B5H         LINE#         113
  C:C1B5H         LINE#         114
  C:C1B5H         LINE#         115
  C:C1B7H         LINE#         116
  C:C1B9H         LINE#         117
  C:C1BAH         LINE#         118
  C:C1BCH         LINE#         119
  C:C1BEH         LINE#         121
  -------         ENDPROC       STOP
  -------         PROC          L_D_M
  -------         DO            
  D:0003H         SYMBOL        nbits
  -------         ENDDO         
  C:B43CH         LINE#         123
  C:B43CH         LINE#         124
  C:B43CH         LINE#         126
  C:B449H         LINE#         127
  C:B449H         LINE#         128
  C:B44BH         LINE#         129
  C:B44EH         LINE#         130
  C:B44EH         LINE#         131
  C:B455H         LINE#         132
  C:B45EH         LINE#         133
  C:B45EH         LINE#         134
  C:B462H         LINE#         135
  C:B464H         LINE#         136
  C:B464H         LINE#         137
  C:B464H         LINE#         138
  C:B467H         LINE#         139
  C:B467H         LINE#         140
  C:B46EH         LINE#         141
  C:B478H         LINE#         142
  C:B478H         LINE#         143
  C:B47CH         LINE#         144
  C:B47EH         LINE#         145
  C:B47EH         LINE#         146
  C:B47EH         LINE#         147
  C:B481H         LINE#         148
  C:B483H         LINE#         149
  C:B488H         LINE#         150
  -------         ENDPROC       L_D_M
  -------         PROC          L?0056
  -------         ENDPROC       L?0056
  -------         PROC          _WR_EEPROM
  D:0002H         SYMBOL        control
  D:0004H         SYMBOL        Dir
  D:0003H         SYMBOL        data_eeprom
  -------         DO            
  D:0005H         SYMBOL        dir_h
BL51 BANKED LINKER/LOCATER V6.22.2.0                                                  06/08/2021  15:03:37  PAGE 46


  D:0001H         SYMBOL        dir_l
  -------         ENDDO         
  C:B3A9H         LINE#         156
  C:B3ABH         LINE#         157
  C:B3ABH         LINE#         159
  C:B3AFH         LINE#         160
  C:B3AFH         LINE#         161
  C:B3AFH         LINE#         164
  C:B3AFH         LINE#         165
  C:B3AFH         LINE#         167
  C:B3B2H         LINE#         168
  C:B3B4H         LINE#         169
  C:B3B7H         LINE#         170
  C:B3B9H         LINE#         171
  C:B3BCH         LINE#         172
  C:B3C1H         LINE#         173
  C:B3C4H         LINE#         174
  C:B3C9H         LINE#         175
  C:B3CCH         LINE#         176
  C:B3CFH         LINE#         177
  C:B3D6H         LINE#         179
  C:B3D8H         LINE#         180
  C:B3DAH         LINE#         181
  C:B3E1H         LINE#         182
  -------         ENDPROC       _WR_EEPROM
  C:BA65H         SYMBOL        L?0060
  -------         PROC          L?0059
  -------         ENDPROC       L?0059
  C:BA65H         SYMBOL        L?0060
  -------         PROC          _RD_EEPROM
  D:0003H         SYMBOL        control
  D:0004H         SYMBOL        Dir
  -------         DO            
  D:0005H         SYMBOL        dir_h
  D:0002H         SYMBOL        dir_l
  -------         ENDDO         
  C:BA69H         LINE#         220
  C:BA6BH         LINE#         221
  C:BA6BH         LINE#         224
  C:BA6FH         LINE#         225
  C:BA6FH         LINE#         226
  C:BA6FH         LINE#         228
  C:BA6FH         LINE#         229
  C:BA6FH         LINE#         231
  C:BA72H         LINE#         232
  C:BA74H         LINE#         233
  C:BA77H         LINE#         234
  C:BA79H         LINE#         235
  C:BA7CH         LINE#         236
  C:BA81H         LINE#         237
  C:BA84H         LINE#         238
  C:BA87H         LINE#         239
  C:BA8DH         LINE#         240
  C:BA90H         LINE#         241
  C:BA92H         LINE#         242
  C:BA95H         LINE#         243
  C:BA98H         LINE#         244
BL51 BANKED LINKER/LOCATER V6.22.2.0                                                  06/08/2021  15:03:37  PAGE 47


  C:BA9AH         LINE#         245
  C:BA9CH         LINE#         246
  C:BAA1H         LINE#         247
  -------         ENDPROC       _RD_EEPROM
  -------         PROC          _GRABA_SERIE
  X:0015H         SYMBOL        buffer
  -------         DO            
  X:0018H         SYMBOL        j
  X:0019H         SYMBOL        error
  -------         ENDDO         
  C:8C76H         LINE#         254
  C:8C81H         LINE#         255
  C:8C81H         LINE#         258
  C:8C86H         LINE#         263
  C:8C98H         LINE#         265
  C:8CABH         LINE#         266
  C:8CABH         LINE#         267
  C:8CD4H         LINE#         268
  C:8CD4H         LINE#         269
  C:8CDAH         LINE#         271
  C:8CE3H         LINE#         272
  C:8CF1H         LINE#         273
  C:8CFAH         LINE#         274
  C:8CFAH         LINE#         276
  C:8D02H         LINE#         280
  C:8D08H         LINE#         281
  C:8D08H         LINE#         282
  C:8D16H         LINE#         284
  C:8D16H         LINE#         286
  C:8D16H         LINE#         287
  C:8D20H         LINE#         288
  C:8D2BH         LINE#         289
  C:8D36H         LINE#         290
  C:8D41H         LINE#         292
  C:8D41H         LINE#         293
  -------         ENDPROC       _GRABA_SERIE
  -------         PROC          _WRITE_EEPROM_TICKET
  X:001AH         SYMBOL        buffer
  -------         DO            
  X:001DH         SYMBOL        cod_3
  X:001EH         SYMBOL        cod_2
  X:001FH         SYMBOL        cod_1
  X:0020H         SYMBOL        cod_0
  X:0021H         SYMBOL        Noticket
  D:0004H         SYMBOL        Bnoticket
  -------         ENDDO         
  C:848EH         LINE#         294
  C:8499H         LINE#         295
  C:8499H         LINE#         297
  C:84A1H         LINE#         298
  C:84AAH         LINE#         299
  C:84B8H         LINE#         300
  C:84C1H         LINE#         301
  C:84D5H         LINE#         303
  C:84DEH         LINE#         304
  C:84F1H         LINE#         305
  C:84F6H         LINE#         306
BL51 BANKED LINKER/LOCATER V6.22.2.0                                                  06/08/2021  15:03:37  PAGE 48


  C:84F9H         LINE#         308
  C:850CH         LINE#         309
  C:8511H         LINE#         310
  C:8514H         LINE#         312
  C:8527H         LINE#         313
  C:852CH         LINE#         314
  C:852FH         LINE#         316
  C:853BH         LINE#         317
  C:853EH         LINE#         318
  C:8547H         LINE#         320
  C:8555H         LINE#         321
  C:8563H         LINE#         322
  C:8571H         LINE#         323
  -------         ENDPROC       _WRITE_EEPROM_TICKET
  -------         PROC          LEE_NO_TICKET
  -------         DO            
  D:0004H         SYMBOL        Noticket
  X:0048H         SYMBOL        Lee_No_Ticket
  D:0007H         SYMBOL        num_chr
  -------         ENDDO         
  C:B489H         LINE#         328
  C:B489H         LINE#         329
  C:B489H         LINE#         333
  C:B48CH         LINE#         334
  C:B4A7H         LINE#         335
  C:B4B0H         LINE#         336
  C:B4BCH         LINE#         337
  C:B4C5H         LINE#         338
  C:B4CEH         LINE#         339
  C:B4D4H         LINE#         340
  -------         ENDPROC       LEE_NO_TICKET
  -------         PROC          READ_EEPROM_TICKET
  -------         DO            
  D:0001H         SYMBOL        cod3
  X:0053H         SYMBOL        cod2
  X:0054H         SYMBOL        cod1
  X:0055H         SYMBOL        cod0
  X:0056H         SYMBOL        Noticket
  -------         ENDDO         
  C:8E0DH         LINE#         344
  C:8E0DH         LINE#         345
  C:8E0DH         LINE#         347
  C:8E17H         LINE#         348
  C:8E1EH         LINE#         349
  C:8E28H         LINE#         350
  C:8E36H         LINE#         351
  C:8E40H         LINE#         353
  C:8E60H         LINE#         354
  C:8E85H         LINE#         355
  C:8EAAH         LINE#         356
  C:8EC8H         LINE#         357
  C:8ED6H         LINE#         358
  -------         ENDPROC       READ_EEPROM_TICKET
  -------         PROC          INCREMENTE_TICKET
  -------         DO            
  D:0004H         SYMBOL        Noticket
  X:0009H         SYMBOL        Lee_No_Ticket
BL51 BANKED LINKER/LOCATER V6.22.2.0                                                  06/08/2021  15:03:37  PAGE 49


  -------         ENDDO         
  C:BD19H         LINE#         362
  C:BD19H         LINE#         363
  C:BD19H         LINE#         367
  C:BD1CH         LINE#         368
  C:BD29H         LINE#         369
  C:BD44H         LINE#         370
  -------         ENDPROC       INCREMENTE_TICKET
  -------         PROC          _LEERMEMORIA
  X:009CH         SYMBOL        addres
  X:009EH         SYMBOL        res
  -------         DO            
  D:0007H         SYMBOL        i
  -------         ENDDO         
  C:B158H         LINE#         376
  C:B169H         LINE#         377
  C:B169H         LINE#         379
  C:B169H         LINE#         380
  C:B185H         LINE#         381
  C:B194H         LINE#         382
  C:B1A2H         LINE#         383
  C:B1ACH         LINE#         384
  C:B1AFH         LINE#         385
  -------         ENDPROC       _LEERMEMORIA
  -------         PROC          _ESCRIBIRMEMORIA
  X:005DH         SYMBOL        addres
  X:005FH         SYMBOL        res
  C:AFA7H         LINE#         387
  C:AFB8H         LINE#         388
  C:AFB8H         LINE#         391
  C:AFC8H         LINE#         392
  C:AFCFH         LINE#         393
  C:AFD2H         LINE#         395
  C:AFE0H         LINE#         396
  C:AFEAH         LINE#         397
  C:AFECH         LINE#         398
  C:AFEFH         LINE#         399
  C:AFFDH         LINE#         400
  C:B007H         LINE#         401
  -------         ENDPROC       _ESCRIBIRMEMORIA
  -------         ENDMOD        EEPROM

  -------         MODULE        IO_SENSORES
  C:0000H         SYMBOL        _ICE_DUMMY_
  D:0090H         PUBLIC        P1
  D:00B0H         PUBLIC        P3
  C:B7E6H         PUBLIC        Dir_board
  B:0021H.7       PUBLIC        PULSADOR_BOTTON
  C:C1F0H         PUBLIC        sel_Pulsa
  B:0090H.1       PUBLIC        DataIn
  C:C0D0H         PUBLIC        Dir_Board_Monitor
  C:C1E9H         PUBLIC        sel_Auto
  C:BC41H         PUBLIC        ValidaSensoresPaso
  B:00B0H.3       PUBLIC        busy
  C:C013H         PUBLIC        ValidaSensor
  C:C1FEH         PUBLIC        sel_Sensor1
  C:C1F7H         PUBLIC        sel_Sensor2
BL51 BANKED LINKER/LOCATER V6.22.2.0                                                  06/08/2021  15:03:37  PAGE 50


  C:BF90H         PUBLIC        ValidaSensor_cero
  C:B337H         PUBLIC        Valida_Sensor1_Auto
  B:00B0H.5       PUBLIC        sel_A
  B:00B0H.6       PUBLIC        sel_B
  B:00B0H.7       PUBLIC        sel_C
  C:9939H         PUBLIC        msj_lcd_informativo
  C:C205H         PUBLIC        sel_Dir1
  C:C20CH         PUBLIC        sel_Dir2
  C:C132H         PUBLIC        Botton
  C:C1E2H         PUBLIC        sel_Funcion
  -------         PROC          SEL_FUNCION
  C:C1E2H         LINE#         34
  C:C1E2H         LINE#         35
  C:C1E2H         LINE#         36
  C:C1E4H         LINE#         37
  C:C1E6H         LINE#         38
  C:C1E8H         LINE#         39
  -------         ENDPROC       SEL_FUNCION
  -------         PROC          SEL_AUTO
  C:C1E9H         LINE#         41
  C:C1E9H         LINE#         42
  C:C1E9H         LINE#         43
  C:C1EBH         LINE#         44
  C:C1EDH         LINE#         45
  C:C1EFH         LINE#         46
  -------         ENDPROC       SEL_AUTO
  -------         PROC          SEL_PULSA
  C:C1F0H         LINE#         48
  C:C1F0H         LINE#         49
  C:C1F0H         LINE#         50
  C:C1F2H         LINE#         51
  C:C1F4H         LINE#         52
  C:C1F6H         LINE#         53
  -------         ENDPROC       SEL_PULSA
  -------         PROC          SEL_SENSOR2
  C:C1F7H         LINE#         56
  C:C1F7H         LINE#         57
  C:C1F7H         LINE#         58
  C:C1F9H         LINE#         59
  C:C1FBH         LINE#         60
  C:C1FDH         LINE#         61
  -------         ENDPROC       SEL_SENSOR2
  -------         PROC          SEL_SENSOR1
  C:C1FEH         LINE#         63
  C:C1FEH         LINE#         64
  C:C1FEH         LINE#         65
  C:C200H         LINE#         66
  C:C202H         LINE#         67
  C:C204H         LINE#         68
  -------         ENDPROC       SEL_SENSOR1
  -------         PROC          SEL_DIR1
  C:C205H         LINE#         70
  C:C205H         LINE#         71
  C:C205H         LINE#         72
  C:C207H         LINE#         73
  C:C209H         LINE#         74
  C:C20BH         LINE#         75
BL51 BANKED LINKER/LOCATER V6.22.2.0                                                  06/08/2021  15:03:37  PAGE 51


  -------         ENDPROC       SEL_DIR1
  -------         PROC          SEL_DIR2
  C:C20CH         LINE#         77
  C:C20CH         LINE#         78
  C:C20CH         LINE#         79
  C:C20EH         LINE#         80
  C:C210H         LINE#         81
  C:C212H         LINE#         82
  -------         ENDPROC       SEL_DIR2
  -------         PROC          BOTTON
  C:C132H         LINE#         83
  C:C132H         LINE#         84
  C:C132H         LINE#         85
  C:C135H         LINE#         86
  C:C138H         LINE#         87
  C:C138H         LINE#         88
  C:C141H         LINE#         89
  C:C143H         LINE#         90
  C:C143H         LINE#         92
  -------         ENDPROC       BOTTON
  -------         PROC          VALIDASENSOR
  -------         DO            
  D:0007H         SYMBOL        Valido
  D:0004H         SYMBOL        Tmin
  -------         ENDDO         
  C:C013H         LINE#         94
  C:C013H         LINE#         95
  C:C013H         LINE#         97
  C:C015H         LINE#         98
  C:C019H         LINE#         99
  C:C024H         LINE#         100
  C:C024H         LINE#         101
  C:C029H         LINE#         102
  C:C02DH         LINE#         103
  C:C02DH         LINE#         104
  C:C02FH         LINE#         105
  C:C02FH         LINE#         106
  C:C031H         LINE#         107
  C:C031H         LINE#         108
  -------         ENDPROC       VALIDASENSOR
  -------         PROC          VALIDASENSOR_CERO
  -------         DO            
  D:0007H         SYMBOL        Valido
  D:0004H         SYMBOL        Tmin
  -------         ENDDO         
  C:BF90H         LINE#         109
  C:BF90H         LINE#         110
  C:BF90H         LINE#         112
  C:BF92H         LINE#         113
  C:BF96H         LINE#         114
  C:BFA5H         LINE#         115
  C:BFA5H         LINE#         116
  C:BFAAH         LINE#         117
  C:BFAEH         LINE#         118
  C:BFAEH         LINE#         119
  C:BFAFH         LINE#         120
  C:BFAFH         LINE#         121
BL51 BANKED LINKER/LOCATER V6.22.2.0                                                  06/08/2021  15:03:37  PAGE 52


  C:BFB1H         LINE#         122
  C:BFB1H         LINE#         123
  -------         ENDPROC       VALIDASENSOR_CERO
  -------         PROC          DIR_BOARD
  -------         DO            
  X:0037H         SYMBOL        Board
  D:0007H         SYMBOL        Board_High
  -------         ENDDO         
  C:B7E6H         LINE#         127
  C:B7E6H         LINE#         128
  C:B7E6H         LINE#         129
  C:B7ECH         LINE#         131
  C:B7EFH         LINE#         132
  C:B7F2H         LINE#         133
  C:B7F2H         LINE#         134
  C:B7F5H         LINE#         135
  C:B7F5H         LINE#         136
  C:B7F8H         LINE#         137
  C:B7FBH         LINE#         138
  C:B7FBH         LINE#         139
  C:B802H         LINE#         140
  C:B802H         LINE#         141
  C:B80AH         LINE#         142
  C:B80AH         LINE#         143
  C:B812H         LINE#         145
  C:B815H         LINE#         146
  C:B815H         LINE#         147
  C:B81BH         LINE#         148
  C:B81BH         LINE#         149
  C:B81DH         LINE#         150
  C:B81FH         LINE#         151
  C:B821H         LINE#         152
  C:B821H         LINE#         154
  C:B821H         LINE#         155
  C:B828H         LINE#         156
  -------         ENDPROC       DIR_BOARD
  -------         PROC          DIR_BOARD_MONITOR
  -------         DO            
  D:0007H         SYMBOL        Board_High
  -------         ENDDO         
  C:C0D0H         LINE#         157
  C:C0D0H         LINE#         158
  C:C0D0H         LINE#         161
  C:C0D9H         LINE#         162
  C:C0DCH         LINE#         163
  C:C0DCH         LINE#         164
  C:C0DFH         LINE#         165
  C:C0DFH         LINE#         166
  C:C0E1H         LINE#         167
  C:C0E1H         LINE#         168
  C:C0E1H         LINE#         169
  C:C0E5H         LINE#         170
  -------         ENDPROC       DIR_BOARD_MONITOR
  -------         PROC          VALIDA_SENSOR1_AUTO
  -------         DO            
  X:0016H         SYMBOL        sensor
  -------         ENDDO         
BL51 BANKED LINKER/LOCATER V6.22.2.0                                                  06/08/2021  15:03:37  PAGE 53


  C:B337H         LINE#         174
  C:B337H         LINE#         175
  C:B337H         LINE#         177
  C:B33AH         LINE#         178
  C:B33DH         LINE#         179
  C:B340H         LINE#         180
  C:B345H         LINE#         181
  C:B345H         LINE#         182
  C:B34CH         LINE#         183
  C:B350H         LINE#         184
  C:B350H         LINE#         185
  C:B350H         LINE#         186
  C:B352H         LINE#         188
  C:B352H         LINE#         189
  C:B359H         LINE#         190
  C:B35EH         LINE#         191
  C:B35EH         LINE#         192
  C:B35EH         LINE#         193
  C:B35EH         LINE#         196
  C:B360H         LINE#         198
  C:B363H         LINE#         199
  C:B368H         LINE#         200
  C:B368H         LINE#         202
  C:B36FH         LINE#         203
  C:B375H         LINE#         204
  C:B37BH         LINE#         205
  C:B37EH         LINE#         206
  C:B380H         LINE#         208
  C:B380H         LINE#         209
  C:B387H         LINE#         210
  C:B38CH         LINE#         211
  C:B38CH         LINE#         214
  C:B38CH         LINE#         216
  C:B391H         LINE#         217
  -------         ENDPROC       VALIDA_SENSOR1_AUTO
  -------         PROC          VALIDASENSORESPASO
  -------         DO            
  X:0015H         SYMBOL        sensor
  -------         ENDDO         
  C:BC41H         LINE#         222
  C:BC41H         LINE#         223
  C:BC41H         LINE#         225
  C:BC44H         LINE#         226
  C:BC47H         LINE#         227
  C:BC47H         LINE#         228
  C:BC55H         LINE#         229
  C:BC55H         LINE#         230
  C:BC5DH         LINE#         232
  C:BC5FH         LINE#         234
  C:BC5FH         LINE#         235
  C:BC65H         LINE#         236
  C:BC67H         LINE#         237
  C:BC67H         LINE#         238
  C:BC67H         LINE#         239
  C:BC67H         LINE#         240
  C:BC70H         LINE#         241
  C:BC73H         LINE#         242
BL51 BANKED LINKER/LOCATER V6.22.2.0                                                  06/08/2021  15:03:37  PAGE 54


  C:BC73H         LINE#         243
  C:BC78H         LINE#         244
  -------         ENDPROC       VALIDASENSORESPASO
  -------         PROC          MSJ_LCD_INFORMATIVO
  -------         DO            
  X:0216H         SYMBOL        contador
  X:0001H         SYMBOL        info
  X:0217H         SYMBOL        toggle
  -------         ENDDO         
  C:9939H         LINE#         257
  C:9939H         LINE#         258
  C:9939H         LINE#         260
  C:993EH         LINE#         262
  C:9944H         LINE#         263
  C:9951H         LINE#         264
  C:9951H         LINE#         266
  C:9953H         LINE#         267
  C:9956H         LINE#         268
  C:9962H         LINE#         269
  C:9962H         LINE#         270
  C:996CH         LINE#         271
  C:996CH         LINE#         273
  C:9975H         LINE#         274
  C:997DH         LINE#         275
  C:9985H         LINE#         276
  C:9991H         LINE#         277
  C:9991H         LINE#         279
  C:9994H         LINE#         280
  C:9994H         LINE#         281
  C:9996H         LINE#         282
  C:9999H         LINE#         283
  C:999FH         LINE#         284
  C:999FH         LINE#         285
  C:99ADH         LINE#         286
  C:99ADH         LINE#         287
  C:99B3H         LINE#         288
  C:99B3H         LINE#         289
  C:99B5H         LINE#         290
  C:99C3H         LINE#         291
  C:99C3H         LINE#         292
  C:99CCH         LINE#         293
  C:99CFH         LINE#         294
  C:99CFH         LINE#         295
  C:99D4H         LINE#         296
  C:99D7H         LINE#         297
  C:99DCH         LINE#         298
  C:99DCH         LINE#         299
  C:99DCH         LINE#         300
  C:99DCH         LINE#         301
  C:99DCH         LINE#         302
  C:99DFH         LINE#         303
  C:99E2H         LINE#         304
  C:99E2H         LINE#         305
  C:99E7H         LINE#         306
  C:99E7H         LINE#         307
  C:99E7H         LINE#         308
  -------         ENDPROC       MSJ_LCD_INFORMATIVO
BL51 BANKED LINKER/LOCATER V6.22.2.0                                                  06/08/2021  15:03:37  PAGE 55


  -------         ENDMOD        IO_SENSORES

  -------         MODULE        PANTALLAS
  C:0000H         SYMBOL        _ICE_DUMMY_
  D:0080H         PUBLIC        P0
  C:AD52H         PUBLIC        Reloj_Pantalla_Lcd
  C:2776H         PUBLIC        _PantallaLCD
  C:B7AAH         PUBLIC        _LCD_txt
  C:AA58H         PUBLIC        _Raspberry_data
  C:BEBBH         PUBLIC        _tx_chrlcd
  C:356BH         SYMBOL        _?ix1000
  C:3571H         SYMBOL        _?ix1001
  C:3577H         SYMBOL        _?ix1002
  C:359FH         SYMBOL        _?ix1003
  C:B6D1H         PUBLIC        _LCD_txt_num_char
  C:4CE5H         PUBLIC        _PantallaLCD_LINEA_2
  B:0098H.4       PUBLIC        REN
  B:0080H.7       PUBLIC        sel_com
  -------         PROC          _PANTALLALCD
  X:002AH         SYMBOL        cod_msg
  -------         DO            
  X:002BH         SYMBOL        Ini_LCD_Line_one
  X:0031H         SYMBOL        num_chr
  X:0032H         SYMBOL        msjpantalla
  -------         ENDDO         
  C:2776H         LINE#         96
  C:277BH         LINE#         97
  C:277BH         LINE#         99
  C:278EH         LINE#         104
  C:2795H         LINE#         108
  C:2797H         LINE#         110
  C:27A0H         LINE#         111
  C:27A0H         LINE#         112
  C:27AAH         LINE#         114
  C:2806H         LINE#         115
  C:2806H         LINE#         117
  C:2806H         LINE#         118
  C:2814H         LINE#         119
  C:281AH         LINE#         120
  C:281DH         LINE#         121
  C:2823H         LINE#         122
  C:2826H         LINE#         124
  C:2826H         LINE#         126
  C:2834H         LINE#         127
  C:283AH         LINE#         128
  C:283DH         LINE#         129
  C:2843H         LINE#         130
  C:2846H         LINE#         132
  C:2846H         LINE#         134
  C:2854H         LINE#         135
  C:285AH         LINE#         136
  C:285DH         LINE#         137
  C:2863H         LINE#         138
  C:2866H         LINE#         139
  C:2866H         LINE#         140
  C:2874H         LINE#         141
  C:287AH         LINE#         142
BL51 BANKED LINKER/LOCATER V6.22.2.0                                                  06/08/2021  15:03:37  PAGE 56


  C:287DH         LINE#         143
  C:2883H         LINE#         144
  C:2886H         LINE#         145
  C:2886H         LINE#         146
  C:2894H         LINE#         147
  C:289AH         LINE#         148
  C:289DH         LINE#         149
  C:28A3H         LINE#         150
  C:28A6H         LINE#         151
  C:28A6H         LINE#         152
  C:28B4H         LINE#         153
  C:28BAH         LINE#         154
  C:28BDH         LINE#         155
  C:28C3H         LINE#         156
  C:28C6H         LINE#         157
  C:28C6H         LINE#         159
  C:28D4H         LINE#         160
  C:28DAH         LINE#         161
  C:28DDH         LINE#         162
  C:28E3H         LINE#         163
  C:28E6H         LINE#         164
  C:28E6H         LINE#         170
  C:28E6H         LINE#         171
  C:28F4H         LINE#         172
  C:28FAH         LINE#         173
  C:28FDH         LINE#         174
  C:2903H         LINE#         175
  C:2906H         LINE#         176
  C:2906H         LINE#         177
  C:2914H         LINE#         178
  C:291AH         LINE#         179
  C:291DH         LINE#         180
  C:2923H         LINE#         181
  C:2926H         LINE#         183
  C:2926H         LINE#         184
  C:2934H         LINE#         185
  C:293AH         LINE#         186
  C:293DH         LINE#         187
  C:2943H         LINE#         188
  C:2946H         LINE#         190
  C:2946H         LINE#         191
  C:2954H         LINE#         192
  C:295AH         LINE#         193
  C:295DH         LINE#         194
  C:2963H         LINE#         195
  C:2966H         LINE#         200
  C:2966H         LINE#         202
  C:2974H         LINE#         203
  C:297AH         LINE#         204
  C:297DH         LINE#         205
  C:2983H         LINE#         206
  C:2986H         LINE#         208
  C:2986H         LINE#         210
  C:2994H         LINE#         211
  C:299AH         LINE#         212
  C:299DH         LINE#         213
  C:29A3H         LINE#         214
BL51 BANKED LINKER/LOCATER V6.22.2.0                                                  06/08/2021  15:03:37  PAGE 57


  C:29A6H         LINE#         216
  C:29A6H         LINE#         217
  C:29B4H         LINE#         218
  C:29BAH         LINE#         219
  C:29BDH         LINE#         220
  C:29C3H         LINE#         221
  C:29C6H         LINE#         223
  C:29C6H         LINE#         225
  C:29D4H         LINE#         226
  C:29DAH         LINE#         227
  C:29DDH         LINE#         228
  C:29E3H         LINE#         229
  C:29E6H         LINE#         231
  C:29E6H         LINE#         233
  C:29F4H         LINE#         234
  C:29FAH         LINE#         235
  C:29FDH         LINE#         236
  C:2A03H         LINE#         237
  C:2A06H         LINE#         239
  C:2A06H         LINE#         240
  C:2A14H         LINE#         241
  C:2A1AH         LINE#         242
  C:2A1DH         LINE#         243
  C:2A23H         LINE#         244
  C:2A26H         LINE#         246
  C:2A26H         LINE#         247
  C:2A34H         LINE#         248
  C:2A3AH         LINE#         249
  C:2A3DH         LINE#         250
  C:2A43H         LINE#         251
  C:2A46H         LINE#         253
  C:2A46H         LINE#         255
  C:2A54H         LINE#         256
  C:2A5AH         LINE#         257
  C:2A5DH         LINE#         258
  C:2A63H         LINE#         259
  C:2A66H         LINE#         261
  C:2A66H         LINE#         262
  C:2A74H         LINE#         263
  C:2A7AH         LINE#         264
  C:2A7DH         LINE#         265
  C:2A83H         LINE#         266
  C:2A86H         LINE#         267
  C:2A86H         LINE#         268
  C:2A94H         LINE#         269
  C:2A9AH         LINE#         270
  C:2A9DH         LINE#         271
  C:2AA3H         LINE#         272
  C:2AA6H         LINE#         273
  C:2AA6H         LINE#         274
  C:2AB4H         LINE#         275
  C:2ABAH         LINE#         276
  C:2ABDH         LINE#         277
  C:2AC3H         LINE#         278
  C:2AC6H         LINE#         279
  C:2AC6H         LINE#         280
  C:2AD4H         LINE#         281
BL51 BANKED LINKER/LOCATER V6.22.2.0                                                  06/08/2021  15:03:37  PAGE 58


  C:2AD7H         LINE#         282
  C:2ADDH         LINE#         283
  C:2ADFH         LINE#         287
  C:2ADFH         LINE#         288
  C:2AEDH         LINE#         289
  C:2AF3H         LINE#         290
  C:2AF6H         LINE#         291
  C:2AFCH         LINE#         292
  C:2AFEH         LINE#         293
  C:2AFEH         LINE#         294
  C:2B0CH         LINE#         295
  C:2B12H         LINE#         296
  C:2B15H         LINE#         297
  C:2B1BH         LINE#         298
  C:2B1DH         LINE#         299
  C:2B1DH         LINE#         300
  C:2B2BH         LINE#         301
  C:2B31H         LINE#         302
  C:2B34H         LINE#         303
  C:2B3FH         LINE#         304
  C:2B3FH         LINE#         313
  C:2B3FH         LINE#         315
  C:2B3FH         LINE#         316
  C:2B3FH         LINE#         317
  C:2B41H         LINE#         319
  C:2B42H         LINE#         321
  C:2B42H         LINE#         322
  C:2B44H         LINE#         323
  C:2BB2H         LINE#         324
  C:2BB2H         LINE#         327
  C:2BB2H         LINE#         328
  C:2BC6H         LINE#         329
  C:2BC6H         LINE#         331
  C:2BC9H         LINE#         332
  C:2BC9H         LINE#         335
  C:2BDDH         LINE#         336
  C:2BDDH         LINE#         337
  C:2BE0H         LINE#         339
  C:2BE0H         LINE#         340
  C:2BF4H         LINE#         341
  C:2BF4H         LINE#         343
  C:2BF7H         LINE#         344
  C:2BF7H         LINE#         345
  C:2C0BH         LINE#         346
  C:2C0BH         LINE#         348
  C:2C0EH         LINE#         349
  C:2C0EH         LINE#         350
  C:2C22H         LINE#         351
  C:2C22H         LINE#         353
  C:2C25H         LINE#         354
  C:2C25H         LINE#         355
  C:2C39H         LINE#         356
  C:2C39H         LINE#         358
  C:2C3CH         LINE#         359
  C:2C3CH         LINE#         360
  C:2C50H         LINE#         361
  C:2C50H         LINE#         363
BL51 BANKED LINKER/LOCATER V6.22.2.0                                                  06/08/2021  15:03:37  PAGE 59


  C:2C53H         LINE#         364
  C:2C53H         LINE#         365
  C:2C67H         LINE#         366
  C:2C67H         LINE#         368
  C:2C6AH         LINE#         369
  C:2C6AH         LINE#         370
  C:2C7EH         LINE#         371
  C:2C7EH         LINE#         373
  C:2C81H         LINE#         374
  C:2C81H         LINE#         375
  C:2C95H         LINE#         376
  C:2C95H         LINE#         378
  C:2C98H         LINE#         380
  C:2C98H         LINE#         381
  C:2CACH         LINE#         382
  C:2CACH         LINE#         384
  C:2CAFH         LINE#         386
  C:2CAFH         LINE#         387
  C:2CC3H         LINE#         388
  C:2CC3H         LINE#         390
  C:2CC6H         LINE#         392
  C:2CC6H         LINE#         393
  C:2CDAH         LINE#         394
  C:2CDAH         LINE#         396
  C:2CDDH         LINE#         400
  C:2CDDH         LINE#         401
  C:2CF1H         LINE#         402
  C:2CF1H         LINE#         404
  C:2CF4H         LINE#         406
  C:2CF4H         LINE#         407
  C:2D08H         LINE#         408
  C:2D08H         LINE#         410
  C:2D0BH         LINE#         412
  C:2D0BH         LINE#         413
  C:2D1FH         LINE#         414
  C:2D1FH         LINE#         417
  C:2D22H         LINE#         418
  C:2D22H         LINE#         419
  C:2D36H         LINE#         420
  C:2D36H         LINE#         422
  C:2D39H         LINE#         423
  C:2D39H         LINE#         424
  C:2D4DH         LINE#         425
  C:2D4DH         LINE#         427
  C:2D50H         LINE#         428
  C:2D50H         LINE#         429
  C:2D64H         LINE#         430
  C:2D64H         LINE#         432
  C:2D67H         LINE#         433
  C:2D67H         LINE#         434
  C:2D7BH         LINE#         435
  C:2D7BH         LINE#         437
  C:2D7EH         LINE#         439
  C:2D7EH         LINE#         440
  C:2D92H         LINE#         441
  C:2D92H         LINE#         443
  C:2D95H         LINE#         445
BL51 BANKED LINKER/LOCATER V6.22.2.0                                                  06/08/2021  15:03:37  PAGE 60


  C:2D95H         LINE#         446
  C:2DA9H         LINE#         447
  C:2DA9H         LINE#         449
  C:2DACH         LINE#         450
  C:2DACH         LINE#         451
  C:2DC0H         LINE#         452
  C:2DC0H         LINE#         454
  C:2DC3H         LINE#         455
  C:2DC3H         LINE#         456
  C:2DD7H         LINE#         457
  C:2DD7H         LINE#         459
  C:2DDAH         LINE#         460
  C:2DDAH         LINE#         461
  C:2DEEH         LINE#         462
  C:2DEEH         LINE#         464
  C:2DF1H         LINE#         466
  C:2DF1H         LINE#         467
  C:2E05H         LINE#         468
  C:2E05H         LINE#         470
  C:2E08H         LINE#         471
  C:2E08H         LINE#         472
  C:2E1CH         LINE#         473
  C:2E1CH         LINE#         475
  C:2E1FH         LINE#         476
  C:2E1FH         LINE#         477
  C:2E33H         LINE#         478
  C:2E33H         LINE#         480
  C:2E35H         LINE#         482
  C:2E35H         LINE#         483
  C:2E49H         LINE#         484
  C:2E49H         LINE#         486
  C:2E4BH         LINE#         489
  C:2E4BH         LINE#         490
  C:2E5FH         LINE#         491
  C:2E5FH         LINE#         493
  C:2E61H         LINE#         494
  C:2E61H         LINE#         495
  C:2E75H         LINE#         496
  C:2E75H         LINE#         498
  C:2E77H         LINE#         499
  C:2E77H         LINE#         500
  C:2E8BH         LINE#         501
  C:2E8BH         LINE#         502
  C:2E8DH         LINE#         504
  C:2E8DH         LINE#         505
  C:2EA4H         LINE#         506
  C:2EB3H         LINE#         507
  C:2EB3H         LINE#         512
  C:2EB3H         LINE#         513
  C:2EB3H         LINE#         514
  C:2EB3H         LINE#         516
  C:2EBAH         LINE#         517
  C:2EBCH         LINE#         518
  C:2EBCH         LINE#         522
  -------         ENDPROC       _PANTALLALCD
  -------         PROC          _PANTALLALCD_LINEA_2
  X:0015H         SYMBOL        cod_msg
BL51 BANKED LINKER/LOCATER V6.22.2.0                                                  06/08/2021  15:03:37  PAGE 61


  X:0016H         SYMBOL        buffer
  -------         DO            
  X:0019H         SYMBOL        Ini_LCD_Line_one
  X:001FH         SYMBOL        num_chr
  X:0020H         SYMBOL        msjpantalla
  -------         ENDDO         
  C:4CE5H         LINE#         523
  C:4CF3H         LINE#         524
  C:4CF3H         LINE#         526
  C:4D06H         LINE#         528
  C:4D19H         LINE#         535
  C:4D1BH         LINE#         537
  C:4D24H         LINE#         538
  C:4D24H         LINE#         541
  C:4D32H         LINE#         542
  C:4D32H         LINE#         544
  C:4D32H         LINE#         545
  C:4D35H         LINE#         546
  C:4D43H         LINE#         547
  C:4D58H         LINE#         548
  C:4D5EH         LINE#         549
  C:4D64H         LINE#         550
  C:4D6AH         LINE#         551
  C:4D6AH         LINE#         552
  C:4D6CH         LINE#         553
  C:4D6CH         LINE#         554
  C:4D6FH         LINE#         555
  C:4D7DH         LINE#         556
  C:4D92H         LINE#         557
  C:4D98H         LINE#         558
  C:4D9EH         LINE#         559
  C:4DA9H         LINE#         560
  C:4DB9H         LINE#         561
  C:4DB9H         LINE#         565
  C:4DB9H         LINE#         567
  C:4DB9H         LINE#         569
  C:4DB9H         LINE#         570
  C:4DBBH         LINE#         571
  C:4DBCH         LINE#         573
  C:4DBCH         LINE#         574
  C:4DBEH         LINE#         576
  C:4DE6H         LINE#         577
  C:4DE6H         LINE#         578
  C:4DE6H         LINE#         581
  C:4DF2H         LINE#         583
  C:4DF2H         LINE#         585
  C:4DF2H         LINE#         588
  C:4DF2H         LINE#         591
  C:4DF5H         LINE#         593
  C:4DF5H         LINE#         594
  C:4E01H         LINE#         595
  C:4E01H         LINE#         596
  C:4E01H         LINE#         597
  C:4E01H         LINE#         598
  C:4E01H         LINE#         599
  C:4E01H         LINE#         601
  C:4E04H         LINE#         602
BL51 BANKED LINKER/LOCATER V6.22.2.0                                                  06/08/2021  15:03:37  PAGE 62


  C:4E04H         LINE#         604
  C:4E10H         LINE#         605
  C:4E13H         LINE#         606
  C:4E16H         LINE#         607
  C:4E16H         LINE#         609
  C:4E1FH         LINE#         611
  C:4E1FH         LINE#         612
  C:4E21H         LINE#         614
  C:4E21H         LINE#         616
  C:4E32H         LINE#         618
  C:4E35H         LINE#         620
  C:4E35H         LINE#         621
  C:4E40H         LINE#         622
  C:4E40H         LINE#         623
  C:4E47H         LINE#         625
  C:4E5DH         LINE#         627
  C:4E74H         LINE#         628
  C:4E77H         LINE#         630
  C:4E77H         LINE#         631
  C:4E7EH         LINE#         633
  C:4E7EH         LINE#         634
  C:4E7EH         LINE#         637
  C:4E81H         LINE#         638
  C:4E81H         LINE#         639
  C:4E90H         LINE#         640
  C:4EAEH         LINE#         641
  C:4EC5H         LINE#         643
  C:4EC5H         LINE#         645
  C:4EC8H         LINE#         646
  C:4EC8H         LINE#         647
  C:4ED7H         LINE#         648
  C:4EEAH         LINE#         649
  C:4F04H         LINE#         650
  C:4F22H         LINE#         651
  C:4F39H         LINE#         652
  C:4F39H         LINE#         654
  C:4F3BH         LINE#         655
  C:4F3BH         LINE#         656
  C:4F4AH         LINE#         657
  C:4F68H         LINE#         658
  C:4F7FH         LINE#         659
  C:4F82H         LINE#         660
  C:4F82H         LINE#         661
  C:4F82H         LINE#         663
  C:4F82H         LINE#         664
  C:4F82H         LINE#         666
  C:4F87H         LINE#         667
  C:4F89H         LINE#         668
  C:4F89H         LINE#         669
  -------         ENDPROC       _PANTALLALCD_LINEA_2
  C:BEB2H         SYMBOL        L?0176
  C:BEB5H         SYMBOL        L?0177
  C:BEB6H         SYMBOL        L?0178
  -------         PROC          L?0175
  -------         ENDPROC       L?0175
  C:BEB2H         SYMBOL        L?0176
  C:BEB5H         SYMBOL        L?0177
BL51 BANKED LINKER/LOCATER V6.22.2.0                                                  06/08/2021  15:03:37  PAGE 63


  C:BEB6H         SYMBOL        L?0178
  -------         PROC          _TX_CHRLCD
  D:0007H         SYMBOL        data_com
  X:004DH         SYMBOL        enable_char_add
  -------         DO            
  X:004EH         SYMBOL        d
  -------         ENDDO         
  C:BEBBH         LINE#         675
  C:BEC0H         LINE#         676
  C:BEC0H         LINE#         678
  C:BEC8H         LINE#         679
  C:BED8H         LINE#         681
  -------         ENDPROC       _TX_CHRLCD
  -------         PROC          L?0181
  -------         ENDPROC       L?0181
  -------         PROC          _LCD_TXT
  X:0048H         SYMBOL        msg
  X:004BH         SYMBOL        enable_char_add
  -------         DO            
  X:004CH         SYMBOL        i
  -------         ENDDO         
  C:B7AAH         LINE#         688
  C:B7B8H         LINE#         689
  C:B7B8H         LINE#         692
  C:B7D5H         LINE#         693
  C:B7D5H         LINE#         694
  C:B7DDH         LINE#         695
  C:B7E5H         LINE#         696
  -------         ENDPROC       _LCD_TXT
  -------         PROC          _LCD_TXT_NUM_CHAR
  X:0022H         SYMBOL        msg
  X:0025H         SYMBOL        length_char
  X:0026H         SYMBOL        enable_char_add
  -------         DO            
  X:0027H         SYMBOL        i
  -------         ENDDO         
  C:B6D1H         LINE#         703
  C:B6DFH         LINE#         704
  C:B6DFH         LINE#         707
  C:B6F2H         LINE#         708
  C:B6F2H         LINE#         709
  C:B70EH         LINE#         710
  C:B716H         LINE#         711
  -------         ENDPROC       _LCD_TXT_NUM_CHAR
  C:AA52H         SYMBOL        L?0180
  -------         PROC          L?0179
  -------         ENDPROC       L?0179
  C:AA52H         SYMBOL        L?0180
  -------         PROC          _RASPBERRY_DATA
  X:0048H         SYMBOL        msjpantalla
  -------         DO            
  X:004BH         SYMBOL        i
  X:004CH         SYMBOL        lenth_cadena
  X:004DH         SYMBOL        d
  -------         ENDDO         
  C:AA58H         LINE#         713
  C:AA63H         LINE#         714
BL51 BANKED LINKER/LOCATER V6.22.2.0                                                  06/08/2021  15:03:37  PAGE 64


  C:AA63H         LINE#         721
  C:AA6BH         LINE#         723
  C:AA7DH         LINE#         724
  C:AA7DH         LINE#         726
  C:AA8FH         LINE#         727
  C:AA8FH         LINE#         728
  C:AA94H         LINE#         729
  C:AAB2H         LINE#         731
  C:AABAH         LINE#         734
  C:AACCH         LINE#         735
  C:AACCH         LINE#         737
  C:AAD1H         LINE#         739
  -------         ENDPROC       _RASPBERRY_DATA
  -------         PROC          RELOJ_PANTALLA_LCD
  -------         DO            
  X:0015H         SYMBOL        Ini_Clock_LCD
  -------         ENDDO         
  C:AD52H         LINE#         747
  C:AD52H         LINE#         748
  C:AD52H         LINE#         750
  C:AD65H         LINE#         752
  C:AD6BH         LINE#         753
  C:AD6BH         LINE#         754
  C:AD6DH         LINE#         755
  C:AD76H         LINE#         759
  C:AD78H         LINE#         760
  C:AD88H         LINE#         762
  C:AD8AH         LINE#         763
  C:AD8CH         LINE#         765
  C:AD8DH         LINE#         767
  C:AD8DH         LINE#         768
  C:AD8FH         LINE#         769
  C:AD94H         LINE#         770
  C:ADA3H         LINE#         772
  C:ADACH         LINE#         773
  C:ADC3H         LINE#         774
  C:ADCCH         LINE#         777
  C:ADCEH         LINE#         778
  C:ADCEH         LINE#         779
  -------         ENDPROC       RELOJ_PANTALLA_LCD
  -------         ENDMOD        PANTALLAS

  -------         MODULE        PROG
  C:0000H         SYMBOL        _ICE_DUMMY_
  C:5AB1H         PUBLIC        Prog_fecha_vencimiento
  C:6CB2H         PUBLIC        Prog_Sin_Cobro
  C:7765H         PUBLIC        _Ver_Horario_Desde_Hasta
  C:7CAEH         PUBLIC        Prog_debug
  C:7FA2H         PUBLIC        Prog_AntiPassBack
  C:A473H         PUBLIC        _GetOption
  X:01B8H         PUBLIC        validacion
  C:819AH         PUBLIC        Prog_Validar_Tipo_Vehiculo_Mensual
  X:01C3H         PUBLIC        cursor
  C:764BH         PUBLIC        _Prog_Horarios_on_off
  C:A0E4H         PUBLIC        Show
  C:4402H         PUBLIC        Ver_Prog
  C:BD4DH         PUBLIC        Addr_Horarios
BL51 BANKED LINKER/LOCATER V6.22.2.0                                                  06/08/2021  15:03:37  PAGE 65


  C:971AH         PUBLIC        prog_id_cliente
  C:B831H         PUBLIC        _ValidarClave
  C:5483H         PUBLIC        menu
  C:7DAAH         PUBLIC        Prog_Use_Lpr
  C:B1BEH         PUBLIC        _ListaComandos
  C:12F7H         SYMBOL        _?ix1000
  C:1302H         SYMBOL        _?ix1001
  C:1312H         SYMBOL        _?ix1002
  C:1322H         SYMBOL        _?ix1003
  C:1326H         SYMBOL        _?ix1004
  C:6B6DH         PUBLIC        Prog_Horarios
  C:132AH         SYMBOL        _?ix1005
  C:8296H         PUBLIC        Prog_Apb_Mensual
  C:91EBH         PUBLIC        Prog_tarjeta_automatica_o_boton
  C:56AFH         PUBLIC        _hash_id
  C:4A2EH         PUBLIC        _Prog_Horario_dias
  C:94E9H         PUBLIC        Prog_tiempo_gracia
  C:AB5BH         PUBLIC        _IngresaDato
  X:01D7H         PUBLIC        comandos
  C:B5B5H         PUBLIC        First_Clave
  C:C0A2H         PUBLIC        DisplayCursor
  C:809EH         PUBLIC        Prog_Placa
  C:942CH         PUBLIC        prog_cod_park
  C:706AH         PUBLIC        Ver_Horario
  C:7523H         PUBLIC        _Ver_Horario_dias
  C:58B7H         PUBLIC        _Prog_Horario_Desde_Hasta
  C:7EA6H         PUBLIC        tipo_pantalla
  C:883DH         PUBLIC        Prog_Address_High_Board
  C:B8F3H         PUBLIC        _GetCMD
  -------         PROC          _HASH_ID
  X:005DH         SYMBOL        clave
  -------         DO            
  X:0060H         SYMBOL        len_clave
  X:0061H         SYMBOL        i
  X:01B4H         SYMBOL        temp
  X:01B6H         SYMBOL        temp1
  X:0062H         SYMBOL        aleatorio
  X:006DH         SYMBOL        suma
  X:007DH         SYMBOL        xxor
  X:008DH         SYMBOL        usuario1
  X:0098H         SYMBOL        vencimiento_password
  -------         ENDDO         
  C:56AFH         LINE#         121
  C:56BAH         LINE#         122
  C:56BAH         LINE#         125
  C:56CDH         LINE#         127
  C:56E0H         LINE#         128
  C:56F3H         LINE#         132
  C:5700H         LINE#         133
  C:571CH         LINE#         135
  C:571CH         LINE#         136
  C:5720H         LINE#         137
  C:5722H         LINE#         139
  C:5722H         LINE#         140
  C:5729H         LINE#         141
  C:5729H         LINE#         142
  C:573CH         LINE#         143
BL51 BANKED LINKER/LOCATER V6.22.2.0                                                  06/08/2021  15:03:37  PAGE 66


  C:5750H         LINE#         144
  C:5750H         LINE#         145
  C:577CH         LINE#         146
  C:5787H         LINE#         147
  C:5794H         LINE#         148
  C:57B2H         LINE#         149
  C:57BDH         LINE#         150
  C:57CAH         LINE#         151
  C:57EEH         LINE#         152
  C:57F6H         LINE#         153
  C:57F6H         LINE#         154
  C:57FBH         LINE#         155
  C:57FBH         LINE#         156
  C:5814H         LINE#         157
  C:5814H         LINE#         158
  C:5820H         LINE#         160
  C:5820H         LINE#         161
  C:582FH         LINE#         162
  C:582FH         LINE#         163
  C:583BH         LINE#         164
  C:583BH         LINE#         165
  C:5854H         LINE#         166
  C:5854H         LINE#         167
  C:585FH         LINE#         168
  C:585FH         LINE#         169
  C:5878H         LINE#         170
  C:5878H         LINE#         171
  C:5883H         LINE#         172
  C:5883H         LINE#         173
  C:5898H         LINE#         175
  C:58A1H         LINE#         176
  C:58B0H         LINE#         178
  C:58B6H         LINE#         179
  -------         ENDPROC       _HASH_ID
  -------         PROC          _LISTACOMANDOS
  X:0046H         SYMBOL        cmd
  -------         DO            
  X:0049H         SYMBOL        buf
  X:004CH         SYMBOL        i
  -------         ENDDO         
  C:B1BEH         LINE#         186
  C:B1C9H         LINE#         187
  C:B1C9H         LINE#         191
  C:B1DCH         LINE#         192
  C:B1DCH         LINE#         193
  C:B1F4H         LINE#         194
  C:B20FH         LINE#         195
  C:B215H         LINE#         196
  C:B21DH         LINE#         198
  C:B21FH         LINE#         199
  -------         ENDPROC       _LISTACOMANDOS
  -------         PROC          L?0274
  -------         ENDPROC       L?0274
  -------         PROC          _VALIDARCLAVE
  X:005DH         SYMBOL        buffer
  -------         DO            
  X:0060H         SYMBOL        buf
BL51 BANKED LINKER/LOCATER V6.22.2.0                                                  06/08/2021  15:03:37  PAGE 67


  -------         ENDDO         
  C:B831H         LINE#         205
  C:B83CH         LINE#         206
  C:B83CH         LINE#         209
  C:B84BH         LINE#         210
  C:B866H         LINE#         211
  C:B868H         LINE#         214
  C:B86AH         LINE#         215
  -------         ENDPROC       _VALIDARCLAVE
  -------         PROC          L?0275
  -------         ENDPROC       L?0275
  -------         PROC          _GETCMD
  X:005DH         SYMBOL        in
  -------         DO            
  X:0060H         SYMBOL        tokens
  -------         ENDDO         
  C:B8F3H         LINE#         222
  C:B8FEH         LINE#         223
  C:B8FEH         LINE#         224
  C:B911H         LINE#         225
  -------         ENDPROC       _GETCMD
  -------         PROC          L?0273
  -------         ENDPROC       L?0273
  -------         PROC          _GETOPTION
  X:0046H         SYMBOL        in
  -------         DO            
  X:0049H         SYMBOL        tokensSpace
  X:004DH         SYMBOL        tokensQuote
  -------         ENDDO         
  C:A473H         LINE#         231
  C:A47EH         LINE#         232
  C:A47EH         LINE#         233
  C:A491H         LINE#         234
  C:A4A4H         LINE#         237
  C:A4B6H         LINE#         238
  C:A4C2H         LINE#         241
  C:A4C9H         LINE#         242
  C:A4D6H         LINE#         244
  C:A4EFH         LINE#         245
  -------         ENDPROC       _GETOPTION
  -------         PROC          DISPLAYCURSOR
  C:C0A2H         LINE#         250
  C:C0A2H         LINE#         251
  C:C0A2H         LINE#         252
  -------         ENDPROC       DISPLAYCURSOR
  C:AB57H         SYMBOL        L?0272
  -------         PROC          L?0271
  -------         ENDPROC       L?0271
  C:AB57H         SYMBOL        L?0272
  -------         PROC          _INGRESADATO
  X:0071H         SYMBOL        buffer
  X:0074H         SYMBOL        modo
  -------         DO            
  D:0006H         SYMBOL        i
  -------         ENDDO         
  C:AB5BH         LINE#         259
  C:AB69H         LINE#         260
BL51 BANKED LINKER/LOCATER V6.22.2.0                                                  06/08/2021  15:03:37  PAGE 68


  C:AB69H         LINE#         265
  C:AB69H         LINE#         266
  C:AB7BH         LINE#         267
  C:AB81H         LINE#         268
  C:AB81H         LINE#         269
  C:AB9CH         LINE#         270
  C:AB9EH         LINE#         272
  C:AB9EH         LINE#         273
  C:ABA3H         LINE#         274
  C:ABA3H         LINE#         275
  C:ABB4H         LINE#         276
  C:ABBEH         LINE#         277
  C:ABCDH         LINE#         279
  C:ABD2H         LINE#         283
  -------         ENDPROC       _INGRESADATO
  -------         PROC          PROG_ID_CLIENTE
  -------         DO            
  X:0046H         SYMBOL        buffer
  X:0050H         SYMBOL        dataee
  -------         ENDDO         
  C:971AH         LINE#         300
  C:971AH         LINE#         301
  C:971AH         LINE#         305
  C:972CH         LINE#         306
  C:9749H         LINE#         308
  C:9760H         LINE#         310
  C:9769H         LINE#         311
  C:9770H         LINE#         312
  C:9781H         LINE#         313
  C:978AH         LINE#         315
  C:979CH         LINE#         316
  C:97B9H         LINE#         317
  -------         ENDPROC       PROG_ID_CLIENTE
  -------         PROC          PROG_COD_PARK
  -------         DO            
  X:0046H         SYMBOL        buffer
  X:0050H         SYMBOL        dataee
  -------         ENDDO         
  C:942CH         LINE#         322
  C:942CH         LINE#         323
  C:942CH         LINE#         327
  C:943FH         LINE#         328
  C:945CH         LINE#         330
  C:9473H         LINE#         332
  C:947CH         LINE#         333
  C:9487H         LINE#         334
  C:9498H         LINE#         335
  C:94A2H         LINE#         337
  C:94B5H         LINE#         338
  C:94D2H         LINE#         339
  -------         ENDPROC       PROG_COD_PARK
  -------         PROC          PROG_TIEMPO_GRACIA
  -------         DO            
  X:0046H         SYMBOL        buffer
  X:0050H         SYMBOL        dataee
  -------         ENDDO         
  C:94E9H         LINE#         344
BL51 BANKED LINKER/LOCATER V6.22.2.0                                                  06/08/2021  15:03:37  PAGE 69


  C:94E9H         LINE#         345
  C:94E9H         LINE#         349
  C:94FCH         LINE#         350
  C:9519H         LINE#         352
  C:9530H         LINE#         354
  C:9539H         LINE#         355
  C:9544H         LINE#         356
  C:9555H         LINE#         357
  C:955FH         LINE#         359
  C:9572H         LINE#         360
  C:958FH         LINE#         361
  -------         ENDPROC       PROG_TIEMPO_GRACIA
  -------         PROC          PROG_SIN_COBRO
  -------         DO            
  X:0046H         SYMBOL        buffer
  X:0050H         SYMBOL        dataee
  -------         ENDDO         
  C:6CB2H         LINE#         367
  C:6CB2H         LINE#         368
  C:6CB2H         LINE#         374
  C:6CC5H         LINE#         375
  C:6CE2H         LINE#         376
  C:6CECH         LINE#         377
  C:6CECH         LINE#         378
  C:6CFFH         LINE#         379
  C:6D01H         LINE#         380
  C:6D0DH         LINE#         381
  C:6D0DH         LINE#         382
  C:6D20H         LINE#         383
  C:6D22H         LINE#         385
  C:6D22H         LINE#         386
  C:6D39H         LINE#         387
  C:6D39H         LINE#         389
  C:6D42H         LINE#         390
  C:6D4DH         LINE#         391
  C:6D5EH         LINE#         392
  C:6D68H         LINE#         394
  C:6D7BH         LINE#         395
  C:6D98H         LINE#         396
  C:6DA2H         LINE#         397
  C:6DA2H         LINE#         398
  C:6DB5H         LINE#         399
  C:6DB7H         LINE#         400
  C:6DC3H         LINE#         401
  C:6DC3H         LINE#         402
  C:6DD6H         LINE#         403
  C:6DD8H         LINE#         405
  C:6DD8H         LINE#         406
  C:6DEFH         LINE#         407
  C:6DEFH         LINE#         409
  -------         ENDPROC       PROG_SIN_COBRO
  -------         PROC          PROG_DEBUG
  -------         DO            
  X:0046H         SYMBOL        buffer
  X:0050H         SYMBOL        dataee
  -------         ENDDO         
  C:7CAEH         LINE#         415
BL51 BANKED LINKER/LOCATER V6.22.2.0                                                  06/08/2021  15:03:37  PAGE 70


  C:7CAEH         LINE#         416
  C:7CAEH         LINE#         421
  C:7CC1H         LINE#         422
  C:7CDEH         LINE#         423
  C:7CE8H         LINE#         424
  C:7CE8H         LINE#         425
  C:7CFBH         LINE#         426
  C:7CFDH         LINE#         428
  C:7CFDH         LINE#         429
  C:7D14H         LINE#         430
  C:7D14H         LINE#         432
  C:7D1DH         LINE#         433
  C:7D28H         LINE#         434
  C:7D39H         LINE#         435
  C:7D43H         LINE#         437
  C:7D56H         LINE#         438
  C:7D73H         LINE#         439
  C:7D7DH         LINE#         440
  C:7D7DH         LINE#         441
  C:7D90H         LINE#         442
  C:7D92H         LINE#         444
  C:7D92H         LINE#         445
  C:7DA9H         LINE#         446
  C:7DA9H         LINE#         447
  -------         ENDPROC       PROG_DEBUG
  -------         PROC          PROG_USE_LPR
  -------         DO            
  X:0046H         SYMBOL        buffer
  X:0050H         SYMBOL        dataee
  -------         ENDDO         
  C:7DAAH         LINE#         452
  C:7DAAH         LINE#         453
  C:7DAAH         LINE#         458
  C:7DBDH         LINE#         459
  C:7DDAH         LINE#         460
  C:7DE4H         LINE#         461
  C:7DE4H         LINE#         462
  C:7DF7H         LINE#         463
  C:7DF9H         LINE#         465
  C:7DF9H         LINE#         466
  C:7E10H         LINE#         467
  C:7E10H         LINE#         469
  C:7E19H         LINE#         470
  C:7E24H         LINE#         471
  C:7E35H         LINE#         472
  C:7E3FH         LINE#         474
  C:7E52H         LINE#         475
  C:7E6FH         LINE#         476
  C:7E79H         LINE#         477
  C:7E79H         LINE#         478
  C:7E8CH         LINE#         479
  C:7E8EH         LINE#         481
  C:7E8EH         LINE#         482
  C:7EA5H         LINE#         483
  C:7EA5H         LINE#         484
  -------         ENDPROC       PROG_USE_LPR
  -------         PROC          TIPO_PANTALLA
BL51 BANKED LINKER/LOCATER V6.22.2.0                                                  06/08/2021  15:03:37  PAGE 71


  -------         DO            
  X:0046H         SYMBOL        buffer
  X:0050H         SYMBOL        dataee
  -------         ENDDO         
  C:7EA6H         LINE#         491
  C:7EA6H         LINE#         492
  C:7EA6H         LINE#         497
  C:7EB9H         LINE#         498
  C:7ED6H         LINE#         499
  C:7EE0H         LINE#         500
  C:7EE0H         LINE#         501
  C:7EF3H         LINE#         502
  C:7EF5H         LINE#         504
  C:7EF5H         LINE#         505
  C:7F0CH         LINE#         506
  C:7F0CH         LINE#         508
  C:7F15H         LINE#         509
  C:7F20H         LINE#         510
  C:7F31H         LINE#         511
  C:7F3BH         LINE#         513
  C:7F4EH         LINE#         514
  C:7F6BH         LINE#         515
  C:7F75H         LINE#         516
  C:7F75H         LINE#         517
  C:7F88H         LINE#         518
  C:7F8AH         LINE#         520
  C:7F8AH         LINE#         521
  C:7FA1H         LINE#         522
  C:7FA1H         LINE#         524
  -------         ENDPROC       TIPO_PANTALLA
  -------         PROC          PROG_TARJETA_AUTOMATICA_O_BOTON
  -------         DO            
  X:0046H         SYMBOL        buffer
  X:0050H         SYMBOL        dataee
  -------         ENDDO         
  C:91EBH         LINE#         525
  C:91EBH         LINE#         526
  C:91EBH         LINE#         531
  C:91FEH         LINE#         532
  C:921BH         LINE#         533
  C:9227H         LINE#         534
  C:9227H         LINE#         535
  C:922BH         LINE#         536
  C:922DH         LINE#         538
  C:922DH         LINE#         539
  C:9234H         LINE#         540
  C:9234H         LINE#         542
  C:923DH         LINE#         543
  C:9248H         LINE#         544
  C:9259H         LINE#         545
  C:9263H         LINE#         547
  C:9276H         LINE#         548
  C:9293H         LINE#         549
  C:929FH         LINE#         550
  C:929FH         LINE#         551
  C:92A3H         LINE#         552
  C:92A5H         LINE#         554
BL51 BANKED LINKER/LOCATER V6.22.2.0                                                  06/08/2021  15:03:37  PAGE 72


  C:92A5H         LINE#         555
  C:92ACH         LINE#         556
  C:92ACH         LINE#         557
  -------         ENDPROC       PROG_TARJETA_AUTOMATICA_O_BOTON
  -------         PROC          PROG_ANTIPASSBACK
  -------         DO            
  X:0046H         SYMBOL        buffer
  X:0050H         SYMBOL        dataee
  -------         ENDDO         
  C:7FA2H         LINE#         558
  C:7FA2H         LINE#         559
  C:7FA2H         LINE#         564
  C:7FB5H         LINE#         565
  C:7FD2H         LINE#         566
  C:7FDCH         LINE#         567
  C:7FDCH         LINE#         568
  C:7FEFH         LINE#         569
  C:7FF1H         LINE#         571
  C:7FF1H         LINE#         572
  C:8008H         LINE#         573
  C:8008H         LINE#         575
  C:8011H         LINE#         576
  C:801CH         LINE#         577
  C:802DH         LINE#         578
  C:8037H         LINE#         580
  C:804AH         LINE#         581
  C:8067H         LINE#         582
  C:8071H         LINE#         583
  C:8071H         LINE#         584
  C:8084H         LINE#         585
  C:8086H         LINE#         587
  C:8086H         LINE#         588
  C:809DH         LINE#         589
  C:809DH         LINE#         590
  -------         ENDPROC       PROG_ANTIPASSBACK
  -------         PROC          PROG_PLACA
  -------         DO            
  X:0046H         SYMBOL        buffer
  X:0050H         SYMBOL        dataee
  -------         ENDDO         
  C:809EH         LINE#         591
  C:809EH         LINE#         592
  C:809EH         LINE#         597
  C:80B1H         LINE#         598
  C:80CEH         LINE#         599
  C:80D8H         LINE#         600
  C:80D8H         LINE#         601
  C:80EBH         LINE#         602
  C:80EDH         LINE#         604
  C:80EDH         LINE#         605
  C:8104H         LINE#         606
  C:8104H         LINE#         608
  C:810DH         LINE#         609
  C:8118H         LINE#         610
  C:8129H         LINE#         611
  C:8133H         LINE#         613
  C:8146H         LINE#         614
BL51 BANKED LINKER/LOCATER V6.22.2.0                                                  06/08/2021  15:03:37  PAGE 73


  C:8163H         LINE#         615
  C:816DH         LINE#         616
  C:816DH         LINE#         617
  C:8180H         LINE#         618
  C:8182H         LINE#         620
  C:8182H         LINE#         621
  C:8199H         LINE#         622
  C:8199H         LINE#         623
  -------         ENDPROC       PROG_PLACA
  -------         PROC          PROG_ADDRESS_HIGH_BOARD
  -------         DO            
  X:0046H         SYMBOL        buffer
  X:0050H         SYMBOL        dataee
  -------         ENDDO         
  C:883DH         LINE#         624
  C:883DH         LINE#         625
  C:883DH         LINE#         630
  C:8850H         LINE#         631
  C:886DH         LINE#         632
  C:8877H         LINE#         633
  C:8877H         LINE#         634
  C:887BH         LINE#         635
  C:887DH         LINE#         637
  C:887DH         LINE#         638
  C:8894H         LINE#         639
  C:8894H         LINE#         641
  C:889DH         LINE#         642
  C:88A8H         LINE#         643
  C:88B9H         LINE#         644
  C:88C3H         LINE#         646
  C:88D6H         LINE#         647
  C:88F3H         LINE#         648
  C:88FDH         LINE#         649
  C:88FDH         LINE#         650
  C:8901H         LINE#         651
  C:8903H         LINE#         653
  C:8903H         LINE#         654
  C:891AH         LINE#         655
  C:891AH         LINE#         656
  -------         ENDPROC       PROG_ADDRESS_HIGH_BOARD
  -------         PROC          ADDR_HORARIOS
  -------         DO            
  X:0074H         SYMBOL        ee_addr_horario
  -------         ENDDO         
  C:BD4DH         LINE#         658
  C:BD4DH         LINE#         659
  C:BD4DH         LINE#         662
  C:BD53H         LINE#         663
  C:BD57H         LINE#         664
  C:BD5BH         LINE#         665
  C:BD5FH         LINE#         666
  C:BD63H         LINE#         667
  C:BD67H         LINE#         668
  C:BD6BH         LINE#         669
  C:BD6FH         LINE#         670
  C:BD73H         LINE#         671
  C:BD77H         LINE#         672
BL51 BANKED LINKER/LOCATER V6.22.2.0                                                  06/08/2021  15:03:37  PAGE 74


  C:BD7AH         LINE#         673
  C:BD80H         LINE#         674
  -------         ENDPROC       ADDR_HORARIOS
  -------         PROC          _PROG_HORARIOS_ON_OFF
  X:0061H         SYMBOL        addr
  -------         DO            
  X:0063H         SYMBOL        buffer
  X:006DH         SYMBOL        dataee
  X:006FH         SYMBOL        habilitado
  -------         ENDDO         
  C:764BH         LINE#         675
  C:7655H         LINE#         676
  C:7655H         LINE#         679
  C:7664H         LINE#         680
  C:7681H         LINE#         681
  C:768BH         LINE#         682
  C:768BH         LINE#         683
  C:769EH         LINE#         684
  C:76A0H         LINE#         686
  C:76A0H         LINE#         687
  C:76B7H         LINE#         688
  C:76B7H         LINE#         689
  C:76C0H         LINE#         690
  C:76CBH         LINE#         691
  C:76DCH         LINE#         692
  C:76EBH         LINE#         694
  C:7702H         LINE#         695
  C:771FH         LINE#         696
  C:772CH         LINE#         697
  C:772CH         LINE#         698
  C:772FH         LINE#         699
  C:7742H         LINE#         700
  C:7744H         LINE#         702
  C:7744H         LINE#         703
  C:7749H         LINE#         704
  C:775EH         LINE#         705
  C:775EH         LINE#         706
  C:7764H         LINE#         707
  -------         ENDPROC       _PROG_HORARIOS_ON_OFF
  -------         PROC          _PROG_HORARIO_DESDE_HASTA
  X:0061H         SYMBOL        addr
  -------         DO            
  X:0063H         SYMBOL        buffer
  D:0007H         SYMBOL        dataee
  -------         ENDDO         
  C:58B7H         LINE#         708
  C:58BFH         LINE#         709
  C:58BFH         LINE#         714
  C:58C8H         LINE#         715
  C:58CBH         LINE#         716
  C:58D4H         LINE#         717
  C:58ECH         LINE#         718
  C:58FFH         LINE#         719
  C:590DH         LINE#         720
  C:5925H         LINE#         721
  C:5938H         LINE#         722
  C:5946H         LINE#         723
BL51 BANKED LINKER/LOCATER V6.22.2.0                                                  06/08/2021  15:03:37  PAGE 75


  C:595EH         LINE#         724
  C:5971H         LINE#         725
  C:597FH         LINE#         726
  C:5997H         LINE#         727
  C:59AAH         LINE#         728
  C:59B8H         LINE#         732
  C:59C1H         LINE#         733
  C:59C4H         LINE#         735
  C:59CDH         LINE#         737
  C:59E5H         LINE#         738
  C:59F8H         LINE#         739
  C:5A06H         LINE#         740
  C:5A1EH         LINE#         741
  C:5A31H         LINE#         742
  C:5A3FH         LINE#         743
  C:5A57H         LINE#         744
  C:5A6AH         LINE#         745
  C:5A78H         LINE#         746
  C:5A90H         LINE#         747
  C:5AA3H         LINE#         748
  -------         ENDPROC       _PROG_HORARIO_DESDE_HASTA
  -------         PROC          _VER_HORARIO_DESDE_HASTA
  X:0074H         SYMBOL        addr
  -------         DO            
  D:0007H         SYMBOL        dataee
  -------         ENDDO         
  C:7765H         LINE#         750
  C:776DH         LINE#         751
  C:776DH         LINE#         753
  C:7776H         LINE#         754
  C:7789H         LINE#         755
  C:7797H         LINE#         756
  C:77AAH         LINE#         757
  C:77B8H         LINE#         758
  C:77CBH         LINE#         759
  C:77D9H         LINE#         760
  C:77ECH         LINE#         761
  C:77FAH         LINE#         763
  C:780DH         LINE#         764
  C:781BH         LINE#         766
  C:782EH         LINE#         767
  C:783CH         LINE#         769
  C:784FH         LINE#         770
  C:785DH         LINE#         772
  C:7870H         LINE#         773
  -------         ENDPROC       _VER_HORARIO_DESDE_HASTA
  -------         PROC          _PROG_HORARIO_DIAS
  X:0061H         SYMBOL        addr
  -------         DO            
  X:0063H         SYMBOL        buffer
  X:006DH         SYMBOL        dataee
  X:006EH         SYMBOL        j
  X:006FH         SYMBOL        temp
  -------         ENDDO         
  C:4A2EH         LINE#         775
  C:4A36H         LINE#         776
  C:4A36H         LINE#         780
BL51 BANKED LINKER/LOCATER V6.22.2.0                                                  06/08/2021  15:03:37  PAGE 76


  C:4A3FH         LINE#         781
  C:4A48H         LINE#         782
  C:4A51H         LINE#         783
  C:4A5CH         LINE#         786
  C:4A65H         LINE#         788
  C:4A7BH         LINE#         789
  C:4A7BH         LINE#         791
  C:4A8EH         LINE#         792
  C:4A8EH         LINE#         793
  C:4A97H         LINE#         795
  C:4AACH         LINE#         796
  C:4AC4H         LINE#         797
  C:4AD1H         LINE#         798
  C:4AD1H         LINE#         800
  C:4AE7H         LINE#         801
  C:4AE7H         LINE#         802
  C:4AF0H         LINE#         803
  C:4B05H         LINE#         804
  C:4B1DH         LINE#         805
  C:4B2AH         LINE#         806
  C:4B2AH         LINE#         808
  C:4B40H         LINE#         809
  C:4B40H         LINE#         810
  C:4B49H         LINE#         811
  C:4B5EH         LINE#         812
  C:4B76H         LINE#         813
  C:4B83H         LINE#         814
  C:4B83H         LINE#         816
  C:4B99H         LINE#         817
  C:4B99H         LINE#         818
  C:4BA2H         LINE#         819
  C:4BB7H         LINE#         820
  C:4BCFH         LINE#         821
  C:4BDCH         LINE#         822
  C:4BDCH         LINE#         824
  C:4BF2H         LINE#         825
  C:4BF2H         LINE#         826
  C:4BFBH         LINE#         827
  C:4C10H         LINE#         828
  C:4C28H         LINE#         829
  C:4C35H         LINE#         830
  C:4C35H         LINE#         832
  C:4C4BH         LINE#         833
  C:4C4BH         LINE#         834
  C:4C54H         LINE#         835
  C:4C69H         LINE#         836
  C:4C81H         LINE#         837
  C:4C8EH         LINE#         838
  C:4C8EH         LINE#         840
  C:4CA4H         LINE#         841
  C:4CA4H         LINE#         842
  C:4CADH         LINE#         843
  C:4CBCH         LINE#         844
  C:4CCEH         LINE#         845
  C:4CDBH         LINE#         846
  C:4CDBH         LINE#         847
  C:4CE4H         LINE#         849
BL51 BANKED LINKER/LOCATER V6.22.2.0                                                  06/08/2021  15:03:37  PAGE 77


  -------         ENDPROC       _PROG_HORARIO_DIAS
  -------         PROC          _VER_HORARIO_DIAS
  X:0074H         SYMBOL        addr
  -------         DO            
  X:0076H         SYMBOL        dataee
  -------         ENDDO         
  C:7523H         LINE#         850
  C:752BH         LINE#         851
  C:752BH         LINE#         854
  C:753BH         LINE#         855
  C:7541H         LINE#         856
  C:7541H         LINE#         857
  C:7545H         LINE#         858
  C:7547H         LINE#         860
  C:7547H         LINE#         861
  C:754EH         LINE#         862
  C:754EH         LINE#         865
  C:7566H         LINE#         866
  C:756CH         LINE#         867
  C:756CH         LINE#         868
  C:7570H         LINE#         869
  C:7572H         LINE#         871
  C:7572H         LINE#         872
  C:7579H         LINE#         873
  C:7579H         LINE#         876
  C:7591H         LINE#         877
  C:7597H         LINE#         878
  C:7597H         LINE#         879
  C:759BH         LINE#         880
  C:759DH         LINE#         882
  C:759DH         LINE#         883
  C:75A4H         LINE#         884
  C:75A4H         LINE#         886
  C:75BCH         LINE#         887
  C:75C2H         LINE#         888
  C:75C2H         LINE#         889
  C:75C6H         LINE#         890
  C:75C8H         LINE#         892
  C:75C8H         LINE#         893
  C:75CFH         LINE#         894
  C:75CFH         LINE#         896
  C:75E7H         LINE#         897
  C:75EDH         LINE#         898
  C:75EDH         LINE#         899
  C:75F1H         LINE#         900
  C:75F3H         LINE#         902
  C:75F3H         LINE#         903
  C:75FAH         LINE#         904
  C:75FAH         LINE#         907
  C:7612H         LINE#         908
  C:7618H         LINE#         909
  C:7618H         LINE#         910
  C:761CH         LINE#         911
  C:761EH         LINE#         913
  C:761EH         LINE#         914
  C:7625H         LINE#         915
  C:7625H         LINE#         917
BL51 BANKED LINKER/LOCATER V6.22.2.0                                                  06/08/2021  15:03:37  PAGE 78


  C:7637H         LINE#         918
  C:763DH         LINE#         919
  C:763DH         LINE#         920
  C:7641H         LINE#         921
  C:7643H         LINE#         923
  C:7643H         LINE#         924
  C:764AH         LINE#         925
  C:764AH         LINE#         926
  -------         ENDPROC       _VER_HORARIO_DIAS
  -------         PROC          PROG_HORARIOS
  -------         DO            
  X:0046H         SYMBOL        buffer
  X:0050H         SYMBOL        ee_addr_horario
  X:005BH         SYMBOL        addr
  X:005DH         SYMBOL        temp
  X:005FH         SYMBOL        dataee
  X:0060H         SYMBOL        j
  -------         ENDDO         
  C:6B6DH         LINE#         927
  C:6B6DH         LINE#         928
  C:6B6DH         LINE#         937
  C:6B79H         LINE#         941
  C:6B82H         LINE#         942
  C:6B8DH         LINE#         944
  C:6B9CH         LINE#         948
  C:6BB2H         LINE#         949
  C:6BB8H         LINE#         953
  C:6BC6H         LINE#         954
  C:6BCEH         LINE#         955
  C:6BCEH         LINE#         957
  C:6BDDH         LINE#         958
  C:6BF1H         LINE#         959
  C:6BF1H         LINE#         960
  C:6C05H         LINE#         961
  C:6C0DH         LINE#         963
  C:6C1DH         LINE#         966
  C:6C20H         LINE#         970
  C:6C2BH         LINE#         973
  C:6C34H         LINE#         974
  C:6C3FH         LINE#         975
  C:6C4EH         LINE#         976
  C:6C61H         LINE#         978
  C:6C79H         LINE#         979
  C:6C93H         LINE#         980
  C:6C9BH         LINE#         981
  C:6C9BH         LINE#         983
  C:6CA9H         LINE#         984
  C:6CB1H         LINE#         985
  C:6CB1H         LINE#         986
  C:6CB1H         LINE#         988
  -------         ENDPROC       PROG_HORARIOS
  -------         PROC          PROG_VALIDAR_TIPO_VEHICULO_MENSUAL
  -------         DO            
  X:0046H         SYMBOL        buffer
  X:0050H         SYMBOL        dataee
  -------         ENDDO         
  C:819AH         LINE#         989
BL51 BANKED LINKER/LOCATER V6.22.2.0                                                  06/08/2021  15:03:37  PAGE 79


  C:819AH         LINE#         990
  C:819AH         LINE#         995
  C:81ADH         LINE#         996
  C:81CAH         LINE#         997
  C:81D4H         LINE#         998
  C:81D4H         LINE#         999
  C:81E7H         LINE#         1000
  C:81E9H         LINE#         1002
  C:81E9H         LINE#         1003
  C:8200H         LINE#         1004
  C:8200H         LINE#         1006
  C:8209H         LINE#         1007
  C:8214H         LINE#         1008
  C:8225H         LINE#         1009
  C:822FH         LINE#         1011
  C:8242H         LINE#         1012
  C:825FH         LINE#         1013
  C:8269H         LINE#         1014
  C:8269H         LINE#         1015
  C:827CH         LINE#         1016
  C:827EH         LINE#         1018
  C:827EH         LINE#         1019
  C:8295H         LINE#         1020
  C:8295H         LINE#         1021
  -------         ENDPROC       PROG_VALIDAR_TIPO_VEHICULO_MENSUAL
  -------         PROC          PROG_APB_MENSUAL
  -------         DO            
  X:0046H         SYMBOL        buffer
  X:0050H         SYMBOL        dataee
  -------         ENDDO         
  C:8296H         LINE#         1022
  C:8296H         LINE#         1023
  C:8296H         LINE#         1028
  C:82A9H         LINE#         1029
  C:82C6H         LINE#         1030
  C:82D0H         LINE#         1031
  C:82D0H         LINE#         1032
  C:82E3H         LINE#         1033
  C:82E5H         LINE#         1035
  C:82E5H         LINE#         1036
  C:82FCH         LINE#         1037
  C:82FCH         LINE#         1039
  C:8305H         LINE#         1040
  C:8310H         LINE#         1041
  C:8321H         LINE#         1042
  C:832BH         LINE#         1044
  C:833EH         LINE#         1045
  C:835BH         LINE#         1046
  C:8365H         LINE#         1047
  C:8365H         LINE#         1048
  C:8378H         LINE#         1049
  C:837AH         LINE#         1051
  C:837AH         LINE#         1052
  C:8391H         LINE#         1053
  C:8391H         LINE#         1054
  -------         ENDPROC       PROG_APB_MENSUAL
  -------         PROC          PROG_FECHA_VENCIMIENTO
BL51 BANKED LINKER/LOCATER V6.22.2.0                                                  06/08/2021  15:03:37  PAGE 80


  -------         DO            
  X:0046H         SYMBOL        buffer
  X:0051H         SYMBOL        cmd
  X:0054H         SYMBOL        fecha
  X:005BH         SYMBOL        dataee
  -------         ENDDO         
  C:5AB1H         LINE#         1056
  C:5AB1H         LINE#         1057
  C:5AB1H         LINE#         1064
  C:5ABEH         LINE#         1065
  C:5AD5H         LINE#         1068
  C:5AECH         LINE#         1070
  C:5AECH         LINE#         1071
  C:5AF5H         LINE#         1072
  C:5B02H         LINE#         1073
  C:5B19H         LINE#         1074
  C:5B2BH         LINE#         1075
  C:5B34H         LINE#         1080
  C:5B3FH         LINE#         1081
  C:5B53H         LINE#         1082
  C:5B60H         LINE#         1084
  C:5B69H         LINE#         1087
  C:5B72H         LINE#         1088
  C:5B7DH         LINE#         1089
  C:5B94H         LINE#         1091
  C:5B9CH         LINE#         1092
  C:5BA4H         LINE#         1093
  C:5BA7H         LINE#         1095
  C:5BB8H         LINE#         1096
  C:5BC9H         LINE#         1098
  C:5BD8H         LINE#         1099
  C:5BE0H         LINE#         1100
  C:5BE8H         LINE#         1101
  C:5BEBH         LINE#         1102
  C:5BFCH         LINE#         1103
  C:5C0DH         LINE#         1104
  C:5C1CH         LINE#         1105
  C:5C24H         LINE#         1106
  C:5C2CH         LINE#         1107
  C:5C2FH         LINE#         1108
  C:5C40H         LINE#         1109
  C:5C51H         LINE#         1110
  C:5C60H         LINE#         1111
  C:5C6BH         LINE#         1113
  C:5C78H         LINE#         1115
  C:5C8FH         LINE#         1116
  -------         ENDPROC       PROG_FECHA_VENCIMIENTO
  -------         PROC          VER_HORARIO
  -------         DO            
  X:0059H         SYMBOL        buffer
  X:0063H         SYMBOL        ee_addr_horario
  X:006EH         SYMBOL        conta
  X:006FH         SYMBOL        addr
  X:0071H         SYMBOL        temp
  X:0073H         SYMBOL        dataee
  -------         ENDDO         
  C:706AH         LINE#         1119
BL51 BANKED LINKER/LOCATER V6.22.2.0                                                  06/08/2021  15:03:37  PAGE 81


  C:706AH         LINE#         1120
  C:706AH         LINE#         1129
  C:7076H         LINE#         1130
  C:708CH         LINE#         1131
  C:708CH         LINE#         1133
  C:709CH         LINE#         1136
  C:70B5H         LINE#         1137
  C:70BBH         LINE#         1140
  C:70C9H         LINE#         1141
  C:70D8H         LINE#         1142
  C:70F2H         LINE#         1143
  C:70FDH         LINE#         1144
  C:70FDH         LINE#         1145
  C:7106H         LINE#         1147
  C:710FH         LINE#         1148
  C:711FH         LINE#         1149
  C:7122H         LINE#         1151
  C:712DH         LINE#         1152
  C:7145H         LINE#         1153
  C:715FH         LINE#         1154
  C:7169H         LINE#         1155
  C:7169H         LINE#         1156
  C:7170H         LINE#         1158
  C:717EH         LINE#         1159
  C:7186H         LINE#         1160
  C:7188H         LINE#         1162
  C:7188H         LINE#         1163
  C:718CH         LINE#         1164
  C:718CH         LINE#         1165
  C:718EH         LINE#         1167
  C:718EH         LINE#         1168
  C:7197H         LINE#         1169
  C:7197H         LINE#         1171
  C:71A0H         LINE#         1174
  -------         ENDPROC       VER_HORARIO
  -------         PROC          VER_PROG
  -------         DO            
  X:0046H         SYMBOL        buffer
  X:0050H         SYMBOL        dataee
  X:0052H         SYMBOL        fecha
  -------         ENDDO         
  C:4402H         LINE#         1175
  C:4402H         LINE#         1176
  C:4402H         LINE#         1182
  C:4414H         LINE#         1183
  C:4431H         LINE#         1185
  C:4448H         LINE#         1187
  C:445BH         LINE#         1188
  C:4478H         LINE#         1190
  C:448FH         LINE#         1192
  C:44A2H         LINE#         1193
  C:44BFH         LINE#         1194
  C:44CDH         LINE#         1195
  C:44CDH         LINE#         1196
  C:44D1H         LINE#         1197
  C:44D3H         LINE#         1199
  C:44D3H         LINE#         1200
BL51 BANKED LINKER/LOCATER V6.22.2.0                                                  06/08/2021  15:03:37  PAGE 82


  C:44DAH         LINE#         1201
  C:44DAH         LINE#         1203
  C:44EDH         LINE#         1204
  C:450AH         LINE#         1205
  C:4516H         LINE#         1206
  C:4516H         LINE#         1207
  C:451AH         LINE#         1208
  C:451CH         LINE#         1210
  C:451CH         LINE#         1211
  C:4523H         LINE#         1212
  C:4523H         LINE#         1214
  C:4536H         LINE#         1215
  C:4553H         LINE#         1216
  C:455FH         LINE#         1217
  C:455FH         LINE#         1218
  C:4563H         LINE#         1219
  C:4565H         LINE#         1221
  C:4565H         LINE#         1222
  C:456CH         LINE#         1223
  C:456CH         LINE#         1225
  C:457FH         LINE#         1226
  C:459CH         LINE#         1227
  C:45A8H         LINE#         1228
  C:45A8H         LINE#         1229
  C:45ACH         LINE#         1230
  C:45AEH         LINE#         1232
  C:45AEH         LINE#         1233
  C:45B5H         LINE#         1234
  C:45B5H         LINE#         1236
  C:45C8H         LINE#         1237
  C:45E5H         LINE#         1238
  C:45F1H         LINE#         1239
  C:45F1H         LINE#         1240
  C:45F5H         LINE#         1241
  C:45F7H         LINE#         1243
  C:45F7H         LINE#         1244
  C:45FEH         LINE#         1245
  C:45FEH         LINE#         1247
  C:4611H         LINE#         1248
  C:462EH         LINE#         1249
  C:463AH         LINE#         1250
  C:463AH         LINE#         1251
  C:463EH         LINE#         1252
  C:4640H         LINE#         1254
  C:4640H         LINE#         1255
  C:4647H         LINE#         1256
  C:4647H         LINE#         1259
  C:465AH         LINE#         1260
  C:4677H         LINE#         1262
  C:468EH         LINE#         1264
  C:4691H         LINE#         1268
  C:46A4H         LINE#         1269
  C:46C1H         LINE#         1270
  C:46CDH         LINE#         1271
  C:46CDH         LINE#         1272
  C:46D1H         LINE#         1273
  C:46D3H         LINE#         1275
BL51 BANKED LINKER/LOCATER V6.22.2.0                                                  06/08/2021  15:03:37  PAGE 83


  C:46D3H         LINE#         1276
  C:46DAH         LINE#         1277
  C:46DAH         LINE#         1279
  C:46EDH         LINE#         1280
  C:470AH         LINE#         1281
  C:4716H         LINE#         1282
  C:4716H         LINE#         1283
  C:471AH         LINE#         1284
  C:471CH         LINE#         1286
  C:471CH         LINE#         1287
  C:4723H         LINE#         1288
  C:4723H         LINE#         1290
  C:4730H         LINE#         1292
  C:4747H         LINE#         1293
  -------         ENDPROC       VER_PROG
  -------         PROC          SHOW
  C:A0E4H         LINE#         1299
  C:A0E4H         LINE#         1300
  C:A0E4H         LINE#         1301
  C:A0EDH         LINE#         1302
  C:A0F6H         LINE#         1303
  C:A0FFH         LINE#         1304
  C:A108H         LINE#         1305
  C:A111H         LINE#         1306
  C:A11AH         LINE#         1307
  C:A123H         LINE#         1308
  C:A12CH         LINE#         1309
  C:A135H         LINE#         1310
  C:A13EH         LINE#         1311
  C:A147H         LINE#         1312
  C:A150H         LINE#         1313
  C:A159H         LINE#         1314
  C:A162H         LINE#         1315
  C:A16BH         LINE#         1316
  C:A174H         LINE#         1317
  -------         ENDPROC       SHOW
  -------         PROC          FIRST_CLAVE
  -------         DO            
  X:0046H         SYMBOL        clave
  -------         ENDDO         
  C:B5B5H         LINE#         1324
  C:B5B5H         LINE#         1325
  C:B5B5H         LINE#         1329
  C:B5BEH         LINE#         1330
  C:B5C3H         LINE#         1331
  C:B5D5H         LINE#         1332
  C:B5E2H         LINE#         1333
  C:B5E8H         LINE#         1334
  C:B5EBH         LINE#         1335
  C:B5EEH         LINE#         1336
  C:B5F0H         LINE#         1338
  -------         ENDPROC       FIRST_CLAVE
  -------         PROC          MENU
  -------         DO            
  X:0001H         SYMBOL        cmd
  X:0004H         SYMBOL        option1
  X:0007H         SYMBOL        option2
BL51 BANKED LINKER/LOCATER V6.22.2.0                                                  06/08/2021  15:03:37  PAGE 84


  X:000AH         SYMBOL        opt_buffer
  X:0032H         SYMBOL        buffer
  -------         ENDDO         
  C:5483H         LINE#         1342
  C:5483H         LINE#         1343
  C:5483H         LINE#         1352
  C:548CH         LINE#         1357
  C:5498H         LINE#         1358
  C:5498H         LINE#         1359
  C:549BH         LINE#         1360
  C:54A5H         LINE#         1363
  C:54A5H         LINE#         1365
  C:54A5H         LINE#         1366
  C:54AEH         LINE#         1367
  C:54BBH         LINE#         1368
  C:54C0H         LINE#         1369
  C:54D6H         LINE#         1370
  C:54E8H         LINE#         1371
  C:54F1H         LINE#         1376
  C:54FCH         LINE#         1377
  C:550AH         LINE#         1378
  C:5517H         LINE#         1380
  C:5520H         LINE#         1384
  C:5523H         LINE#         1385
  C:5523H         LINE#         1386
  C:5523H         LINE#         1387
  C:5526H         LINE#         1390
  C:5531H         LINE#         1391
  C:553FH         LINE#         1392
  C:5553H         LINE#         1393
  C:5567H         LINE#         1398
  C:557DH         LINE#         1399
  C:557DH         LINE#         1401
  C:558CH         LINE#         1402
  C:558EH         LINE#         1403
  C:559EH         LINE#         1404
  C:559EH         LINE#         1406
  C:55ADH         LINE#         1407
  C:55CBH         LINE#         1408
  C:55CBH         LINE#         1414
  C:55DEH         LINE#         1415
  C:55DEH         LINE#         1416
  C:5627H         LINE#         1417
  C:5627H         LINE#         1418
  C:5627H         LINE#         1419
  C:562AH         LINE#         1421
  C:562DH         LINE#         1423
  C:562DH         LINE#         1424
  C:5630H         LINE#         1425
  C:5633H         LINE#         1426
  C:5633H         LINE#         1427
  C:5636H         LINE#         1428
  C:5639H         LINE#         1429
  C:5639H         LINE#         1430
  C:563CH         LINE#         1431
  C:563FH         LINE#         1432
  C:563FH         LINE#         1433
BL51 BANKED LINKER/LOCATER V6.22.2.0                                                  06/08/2021  15:03:37  PAGE 85


  C:5642H         LINE#         1434
  C:5645H         LINE#         1435
  C:5645H         LINE#         1436
  C:5648H         LINE#         1437
  C:564BH         LINE#         1438
  C:564BH         LINE#         1439
  C:564EH         LINE#         1440
  C:5651H         LINE#         1441
  C:5651H         LINE#         1442
  C:5654H         LINE#         1443
  C:5657H         LINE#         1444
  C:5657H         LINE#         1445
  C:565AH         LINE#         1446
  C:565DH         LINE#         1447
  C:565DH         LINE#         1448
  C:5660H         LINE#         1449
  C:5663H         LINE#         1450
  C:5663H         LINE#         1451
  C:5666H         LINE#         1452
  C:5669H         LINE#         1453
  C:5669H         LINE#         1454
  C:566CH         LINE#         1455
  C:566FH         LINE#         1456
  C:566FH         LINE#         1457
  C:5672H         LINE#         1458
  C:5675H         LINE#         1459
  C:5675H         LINE#         1460
  C:5678H         LINE#         1461
  C:567BH         LINE#         1462
  C:567BH         LINE#         1463
  C:567EH         LINE#         1464
  C:5681H         LINE#         1465
  C:5681H         LINE#         1466
  C:5684H         LINE#         1467
  C:5687H         LINE#         1468
  C:5687H         LINE#         1470
  C:5687H         LINE#         1471
  C:5687H         LINE#         1472
  C:568AH         LINE#         1473
  C:568DH         LINE#         1476
  C:568DH         LINE#         1477
  C:56ABH         LINE#         1478
  C:56AEH         LINE#         1479
  C:56AEH         LINE#         1480
  C:56AEH         LINE#         1481
  C:56AEH         LINE#         1482
  -------         ENDPROC       MENU
  -------         ENDMOD        PROG

  -------         MODULE        PTO_PARALELO
  C:0000H         SYMBOL        _ICE_DUMMY_
  D:0080H         PUBLIC        P0
  D:00A0H         PUBLIC        P2
  D:00B0H         PUBLIC        P3
  B:0080H.2       PUBLIC        led_err_imp
  C:6F2EH         PUBLIC        load_and_send_id_cod
  C:A17DH         PUBLIC        _recibe_port
BL51 BANKED LINKER/LOCATER V6.22.2.0                                                  06/08/2021  15:03:37  PAGE 86


  B:00B0H.2       PUBLIC        ready
  B:0080H.6       PUBLIC        rx_in_data
  C:C144H         PUBLIC        Pulso_Bus
  C:A729H         PUBLIC        _send_portERR
  B:00B0H.3       PUBLIC        busy
  C:B4D5H         PUBLIC        load_and_send_info_reloj
  C:9885H         PUBLIC        _send_port
  B:00B0H.4       PUBLIC        port_clk
  C:C1BFH         PUBLIC        cond_ini_pto
  -------         PROC          _RECIBE_PORT
  X:0001H         SYMBOL        buffer_port
  -------         DO            
  D:0006H         SYMBOL        count
  X:0004H         SYMBOL        time_out
  X:0005H         SYMBOL        num_data
  X:0006H         SYMBOL        T_ANCHO
  X:0008H         SYMBOL        data_temp
  -------         ENDDO         
  C:A17DH         LINE#         60
  C:A188H         LINE#         61
  C:A188H         LINE#         65
  C:A191H         LINE#         66
  C:A194H         LINE#         69
  C:A197H         LINE#         70
  C:A197H         LINE#         72
  C:A19AH         LINE#         73
  C:A19FH         LINE#         74
  C:A1A1H         LINE#         75
  C:A1A5H         LINE#         76
  C:A1A7H         LINE#         79
  C:A1ACH         LINE#         80
  C:A1B5H         LINE#         81
  C:A1B5H         LINE#         82
  C:A1B8H         LINE#         83
  C:A1B8H         LINE#         85
  C:A1BDH         LINE#         86
  C:A1C1H         LINE#         87
  C:A1C1H         LINE#         88
  C:A1C3H         LINE#         89
  C:A1C5H         LINE#         90
  C:A1C5H         LINE#         91
  C:A1C5H         LINE#         93
  C:A1C5H         LINE#         94
  C:A1D2H         LINE#         95
  C:A1D2H         LINE#         97
  C:A1D5H         LINE#         98
  C:A1D5H         LINE#         100
  C:A1DBH         LINE#         102
  C:A1DDH         LINE#         103
  C:A1F1H         LINE#         104
  C:A1FBH         LINE#         105
  C:A201H         LINE#         106
  C:A207H         LINE#         107
  C:A209H         LINE#         108
  C:A209H         LINE#         109
  C:A209H         LINE#         110
  C:A209H         LINE#         113
BL51 BANKED LINKER/LOCATER V6.22.2.0                                                  06/08/2021  15:03:37  PAGE 87


  C:A20BH         LINE#         114
  C:A20DH         LINE#         115
  C:A20DH         LINE#         116
  C:A210H         LINE#         118
  C:A215H         LINE#         119
  -------         ENDPROC       _RECIBE_PORT
  -------         PROC          _SEND_PORT
  X:0016H         SYMBOL        buffer_port
  X:0019H         SYMBOL        length_char
  -------         DO            
  X:001AH         SYMBOL        cont
  X:001EH         SYMBOL        timeOut
  X:001FH         SYMBOL        length
  -------         ENDDO         
  C:9885H         LINE#         126
  C:9893H         LINE#         127
  C:9893H         LINE#         132
  C:9897H         LINE#         134
  C:9899H         LINE#         135
  C:989BH         LINE#         136
  C:989DH         LINE#         137
  C:98A2H         LINE#         138
  C:98A4H         LINE#         139
  C:98AEH         LINE#         141
  C:98B7H         LINE#         142
  C:98B7H         LINE#         143
  C:98B9H         LINE#         144
  C:98BBH         LINE#         145
  C:98DFH         LINE#         146
  C:98F3H         LINE#         147
  C:98F3H         LINE#         148
  C:98F6H         LINE#         149
  C:98F8H         LINE#         150
  C:98F8H         LINE#         151
  C:98FAH         LINE#         152
  C:9903H         LINE#         153
  C:9903H         LINE#         157
  C:9903H         LINE#         159
  C:9913H         LINE#         160
  C:9916H         LINE#         161
  C:9920H         LINE#         163
  C:9926H         LINE#         164
  C:9929H         LINE#         166
  C:9929H         LINE#         168
  C:992CH         LINE#         169
  C:992EH         LINE#         170
  C:9930H         LINE#         171
  C:9932H         LINE#         172
  -------         ENDPROC       _SEND_PORT
  -------         PROC          PULSO_BUS
  C:C144H         LINE#         180
  C:C144H         LINE#         181
  C:C144H         LINE#         182
  C:C146H         LINE#         183
  C:C14DH         LINE#         184
  C:C14FH         LINE#         185
  -------         ENDPROC       PULSO_BUS
BL51 BANKED LINKER/LOCATER V6.22.2.0                                                  06/08/2021  15:03:37  PAGE 88


  -------         PROC          _SEND_PORTERR
  X:002AH         SYMBOL        cod_err
  -------         DO            
  X:002BH         SYMBOL        timeOut
  X:002CH         SYMBOL        cont
  -------         ENDDO         
  C:A729H         LINE#         190
  C:A72FH         LINE#         191
  C:A72FH         LINE#         195
  C:A731H         LINE#         196
  C:A733H         LINE#         197
  C:A736H         LINE#         198
  C:A73EH         LINE#         200
  C:A740H         LINE#         201
  C:A742H         LINE#         202
  C:A74BH         LINE#         203
  C:A74BH         LINE#         204
  C:A76DH         LINE#         205
  C:A781H         LINE#         206
  C:A781H         LINE#         207
  C:A786H         LINE#         208
  C:A786H         LINE#         209
  C:A788H         LINE#         210
  C:A791H         LINE#         211
  C:A791H         LINE#         212
  C:A797H         LINE#         213
  C:A79AH         LINE#         214
  C:A79AH         LINE#         215
  C:A79CH         LINE#         216
  C:A79EH         LINE#         217
  C:A7A0H         LINE#         219
  C:A7A3H         LINE#         221
  C:A7AAH         LINE#         222
  -------         ENDPROC       _SEND_PORTERR
  -------         PROC          COND_INI_PTO
  C:C1BFH         LINE#         228
  C:C1BFH         LINE#         229
  C:C1BFH         LINE#         231
  C:C1C1H         LINE#         232
  C:C1C3H         LINE#         233
  C:C1C5H         LINE#         234
  C:C1C8H         LINE#         235
  -------         ENDPROC       COND_INI_PTO
  -------         PROC          LOAD_AND_SEND_INFO_RELOJ
  -------         DO            
  X:0002H         SYMBOL        buffer_info
  -------         ENDDO         
  C:B4D5H         LINE#         240
  C:B4D5H         LINE#         241
  C:B4D5H         LINE#         244
  C:B4DBH         LINE#         246
  C:B4DFH         LINE#         252
  C:B4E8H         LINE#         255
  C:B4F2H         LINE#         256
  C:B4F6H         LINE#         257
  C:B4F9H         LINE#         258
  C:B502H         LINE#         259
BL51 BANKED LINKER/LOCATER V6.22.2.0                                                  06/08/2021  15:03:37  PAGE 89


  C:B513H         LINE#         260
  C:B516H         LINE#         261
  -------         ENDPROC       LOAD_AND_SEND_INFO_RELOJ
  -------         PROC          LOAD_AND_SEND_ID_COD
  -------         DO            
  X:0002H         SYMBOL        buffer_info
  X:000DH         SYMBOL        buf
  X:0011H         SYMBOL        i
  X:0012H         SYMBOL        ID_CLIENTE
  X:0014H         SYMBOL        COD_PARK
  -------         ENDDO         
  C:6F2EH         LINE#         268
  C:6F2EH         LINE#         269
  C:6F2EH         LINE#         277
  C:6F3EH         LINE#         279
  C:6F4FH         LINE#         281
  C:6F55H         LINE#         282
  C:6F59H         LINE#         283
  C:6F5CH         LINE#         285
  C:6F82H         LINE#         286
  C:6F99H         LINE#         289
  C:6FB0H         LINE#         292
  C:6FD6H         LINE#         293
  C:6FEDH         LINE#         295
  C:7004H         LINE#         296
  C:7012H         LINE#         297
  C:7023H         LINE#         298
  C:7036H         LINE#         299
  C:703CH         LINE#         300
  C:7045H         LINE#         301
  C:7059H         LINE#         302
  C:705CH         LINE#         303
  -------         ENDPROC       LOAD_AND_SEND_ID_COD
  -------         ENDMOD        PTO_PARALELO

  -------         MODULE        TIBBO
  C:0000H         SYMBOL        _ICE_DUMMY_
  C:B717H         PUBLIC        _Debug_HexDec
  C:B577H         PUBLIC        _Debug_txt_Tibbo
  D:0080H         PUBLIC        P0
  D:0090H         PUBLIC        P1
  B:0090H.0       PUBLIC        txd2
  B:00A8H.7       PUBLIC        EA
  C:B524H         PUBLIC        _tx_aux
  B:0080H.0       PUBLIC        rx_ip
  C:C1C9H         PUBLIC        Debug_Dividir_texto
  C:C21EH         PUBLIC        cond_ini_tibbo
  C:C0B9H         PUBLIC        time_mbit
  C:A7B1H         PUBLIC        rx_Data
  C:C038H         PUBLIC        time_bit
  C:B92DH         PUBLIC        _Debug_pto_paralelo
  C:BAA2H         PUBLIC        _Debug_monitor
  C:A947H         PUBLIC        _DebugBufferMF
  C:B5FDH         PUBLIC        _Debug_chr_Tibbo
  C:C032H         SYMBOL        L?0067
  -------         PROC          L?0066
  -------         ENDPROC       L?0066
BL51 BANKED LINKER/LOCATER V6.22.2.0                                                  06/08/2021  15:03:37  PAGE 90


  C:C032H         SYMBOL        L?0067
  -------         PROC          TIME_BIT
  -------         DO            
  D:0007H         SYMBOL        j
  -------         ENDDO         
  C:C038H         LINE#         20
  C:C038H         LINE#         21
  C:C038H         LINE#         24
  C:C044H         LINE#         25
  C:C044H         LINE#         26
  C:C045H         LINE#         27
  C:C046H         LINE#         28
  C:C047H         LINE#         29
  C:C048H         LINE#         30
  C:C049H         LINE#         31
  C:C04AH         LINE#         32
  C:C04BH         LINE#         33
  C:C04CH         LINE#         34
  C:C04DH         LINE#         39
  C:C050H         LINE#         40
  -------         ENDPROC       TIME_BIT
  -------         PROC          TIME_MBIT
  -------         DO            
  D:0007H         SYMBOL        j
  -------         ENDDO         
  C:C0B9H         LINE#         43
  C:C0B9H         LINE#         44
  C:C0B9H         LINE#         46
  C:C0C5H         LINE#         47
  C:C0C5H         LINE#         48
  C:C0C6H         LINE#         49
  C:C0C7H         LINE#         50
  C:C0C8H         LINE#         51
  C:C0C9H         LINE#         52
  C:C0CAH         LINE#         53
  C:C0CBH         LINE#         54
  C:C0CCH         LINE#         55
  C:C0CFH         LINE#         57
  -------         ENDPROC       TIME_MBIT
  -------         PROC          L?0070
  -------         ENDPROC       L?0070
  -------         PROC          _TX_AUX
  D:0006H         SYMBOL        caracter
  -------         DO            
  D:0004H         SYMBOL        j
  D:0005H         SYMBOL        temporal
  D:0006H         SYMBOL        bitTX
  -------         ENDDO         
  C:B524H         LINE#         62
  C:B526H         LINE#         63
  C:B526H         LINE#         66
  C:B528H         LINE#         67
  C:B52AH         LINE#         68
  C:B52DH         LINE#         69
  C:B52EH         LINE#         70
  C:B52FH         LINE#         71
  C:B531H         LINE#         72
BL51 BANKED LINKER/LOCATER V6.22.2.0                                                  06/08/2021  15:03:37  PAGE 91


  C:B535H         LINE#         73
  C:B537H         LINE#         74
  C:B537H         LINE#         75
  C:B539H         LINE#         76
  C:B53BH         LINE#         78
  C:B53BH         LINE#         79
  C:B53DH         LINE#         80
  C:B53DH         LINE#         81
  C:B540H         LINE#         82
  C:B54CH         LINE#         83
  C:B54CH         LINE#         84
  C:B550H         LINE#         85
  C:B553H         LINE#         86
  C:B555H         LINE#         87
  C:B555H         LINE#         88
  C:B557H         LINE#         89
  C:B559H         LINE#         91
  C:B559H         LINE#         92
  C:B55BH         LINE#         93
  C:B55BH         LINE#         94
  C:B55EH         LINE#         95
  C:B561H         LINE#         96
  C:B563H         LINE#         97
  C:B566H         LINE#         98
  C:B569H         LINE#         100
  C:B56BH         LINE#         101
  -------         ENDPROC       _TX_AUX
  -------         PROC          _DEBUG_HEXDEC
  D:0007H         SYMBOL        xfc
  -------         DO            
  X:0018H         SYMBOL        valor
  D:0006H         SYMBOL        centena
  D:0003H         SYMBOL        decena
  D:0002H         SYMBOL        unidad
  -------         ENDDO         
  C:B717H         LINE#         104
  C:B717H         LINE#         105
  C:B717H         LINE#         108
  C:B71EH         LINE#         110
  C:B71FH         LINE#         111
  C:B720H         LINE#         112
  C:B721H         LINE#         113
  C:B729H         LINE#         114
  C:B729H         LINE#         115
  C:B733H         LINE#         116
  C:B733H         LINE#         117
  C:B737H         LINE#         118
  C:B738H         LINE#         119
  C:B73AH         LINE#         120
  C:B744H         LINE#         121
  C:B744H         LINE#         122
  C:B748H         LINE#         123
  C:B749H         LINE#         124
  C:B74BH         LINE#         125
  C:B74DH         LINE#         126
  C:B751H         LINE#         127
  C:B755H         LINE#         128
BL51 BANKED LINKER/LOCATER V6.22.2.0                                                  06/08/2021  15:03:37  PAGE 92


  C:B75CH         LINE#         130
  C:B75CH         LINE#         131
  -------         ENDPROC       _DEBUG_HEXDEC
  -------         PROC          _DEBUG_CHR_TIBBO
  D:0003H         SYMBOL        Dat
  -------         DO            
  D:0007H         SYMBOL        temp
  -------         ENDDO         
  C:B5FDH         LINE#         136
  C:B5FFH         LINE#         137
  C:B5FFH         LINE#         139
  C:B607H         LINE#         140
  C:B607H         LINE#         141
  C:B60EH         LINE#         142
  C:B621H         LINE#         144
  C:B624H         LINE#         146
  C:B628H         LINE#         147
  C:B63BH         LINE#         148
  C:B63EH         LINE#         149
  C:B643H         LINE#         151
  C:B643H         LINE#         152
  -------         ENDPROC       _DEBUG_CHR_TIBBO
  -------         PROC          _DEBUGBUFFERMF
  X:0027H         SYMBOL        str
  X:002AH         SYMBOL        num_char
  X:002BH         SYMBOL        io
  -------         DO            
  X:002CH         SYMBOL        j
  -------         ENDDO         
  C:A947H         LINE#         160
  C:A955H         LINE#         161
  C:A955H         LINE#         165
  C:A95DH         LINE#         166
  C:A95DH         LINE#         167
  C:A96CH         LINE#         168
  C:A96CH         LINE#         169
  C:A972H         LINE#         170
  C:A974H         LINE#         171
  C:A981H         LINE#         172
  C:A981H         LINE#         173
  C:A98AH         LINE#         174
  C:A98AH         LINE#         176
  C:A99CH         LINE#         177
  C:A99CH         LINE#         178
  C:A9AEH         LINE#         179
  C:A9B8H         LINE#         180
  C:A9C0H         LINE#         181
  C:A9C5H         LINE#         182
  C:A9CAH         LINE#         183
  C:A9CAH         LINE#         185
  -------         ENDPROC       _DEBUGBUFFERMF
  C:B571H         SYMBOL        L?0069
  -------         PROC          L?0068
  -------         ENDPROC       L?0068
  C:B571H         SYMBOL        L?0069
  -------         PROC          _DEBUG_TXT_TIBBO
  X:0053H         SYMBOL        str
BL51 BANKED LINKER/LOCATER V6.22.2.0                                                  06/08/2021  15:03:37  PAGE 93


  -------         DO            
  X:0056H         SYMBOL        i
  -------         ENDDO         
  C:B577H         LINE#         190
  C:B582H         LINE#         191
  C:B582H         LINE#         193
  C:B585H         LINE#         195
  C:B58DH         LINE#         196
  C:B58DH         LINE#         197
  C:B5A9H         LINE#         198
  C:B5A9H         LINE#         199
  C:B5ACH         LINE#         200
  C:B5B4H         LINE#         202
  C:B5B4H         LINE#         203
  -------         ENDPROC       _DEBUG_TXT_TIBBO
  -------         PROC          DEBUG_DIVIDIR_TEXTO
  C:C1C9H         LINE#         205
  C:C1C9H         LINE#         206
  C:C1C9H         LINE#         207
  -------         ENDPROC       DEBUG_DIVIDIR_TEXTO
  -------         PROC          RX_DATA
  -------         DO            
  D:0006H         SYMBOL        temporal
  -------         ENDDO         
  C:A7B1H         LINE#         213
  C:A7B1H         LINE#         214
  C:A7B1H         LINE#         217
  C:A7B3H         LINE#         218
  C:A7B6H         LINE#         220
  C:A7B9H         LINE#         222
  C:A7C5H         LINE#         223
  C:A7C5H         LINE#         225
  C:A7C8H         LINE#         227
  C:A7D4H         LINE#         228
  C:A7D4H         LINE#         230
  C:A7D7H         LINE#         232
  C:A7E3H         LINE#         233
  C:A7E3H         LINE#         235
  C:A7E6H         LINE#         237
  C:A7F2H         LINE#         238
  C:A7F2H         LINE#         240
  C:A7F5H         LINE#         242
  C:A801H         LINE#         243
  C:A801H         LINE#         245
  C:A804H         LINE#         247
  C:A810H         LINE#         248
  C:A810H         LINE#         250
  C:A813H         LINE#         252
  C:A81FH         LINE#         253
  C:A81FH         LINE#         255
  C:A822H         LINE#         256
  C:A830H         LINE#         258
  C:A833H         LINE#         259
  C:A836H         LINE#         260
  C:A836H         LINE#         261
  C:A836H         LINE#         264
  C:A838H         LINE#         266
BL51 BANKED LINKER/LOCATER V6.22.2.0                                                  06/08/2021  15:03:37  PAGE 94


  -------         ENDPROC       RX_DATA
  -------         PROC          COND_INI_TIBBO
  C:C21EH         LINE#         284
  C:C21EH         LINE#         285
  C:C21EH         LINE#         287
  C:C220H         LINE#         288
  C:C222H         LINE#         289
  -------         ENDPROC       COND_INI_TIBBO
  -------         PROC          _DEBUG_PTO_PARALELO
  X:0001H         SYMBOL        buffer
  X:0004H         SYMBOL        Length_trama
  C:B92DH         LINE#         290
  C:B93BH         LINE#         291
  C:B93BH         LINE#         293
  C:B944H         LINE#         294
  C:B95BH         LINE#         295
  C:B964H         LINE#         296
  C:B967H         LINE#         297
  C:B96AH         LINE#         298
  -------         ENDPROC       _DEBUG_PTO_PARALELO
  -------         PROC          _DEBUG_MONITOR
  X:0016H         SYMBOL        buffer
  X:0019H         SYMBOL        Length_trama
  C:BAA2H         LINE#         301
  C:BAB0H         LINE#         302
  C:BAB0H         LINE#         303
  C:BAB3H         LINE#         304
  C:BABCH         LINE#         305
  C:BACAH         LINE#         306
  C:BACDH         LINE#         307
  C:BAD6H         LINE#         308
  C:BAD9H         LINE#         309
  C:BADCH         LINE#         310
  -------         ENDPROC       _DEBUG_MONITOR
  -------         ENDMOD        TIBBO

  -------         MODULE        UART
  C:0000H         SYMBOL        _ICE_DUMMY_
  C:BED9H         PUBLIC        com_getchar
  C:C156H         PUBLIC        com_rbuflen
  C:C168H         PUBLIC        com_tbuflen
  B:00A8H.4       PUBLIC        ES
  B:0098H.0       PUBLIC        RI
  C:BB92H         PUBLIC        _com_putchar
  B:0098H.1       PUBLIC        TI
  B:0021H.4       PUBLIC        aSk
  B:00B8H.4       PUBLIC        PS
  D:000DH         SYMBOL        r_in
  D:000EH         SYMBOL        r_out
  D:000FH         SYMBOL        t_in
  D:0010H         SYMBOL        t_out
  D:0099H         PUBLIC        SBUF
  D:0087H         PUBLIC        PCON
  D:0089H         PUBLIC        TMOD
  B:0021H.5       SYMBOL        ti_restart
  B:00A8H.3       PUBLIC        ET1
  D:008DH         PUBLIC        TH1
BL51 BANKED LINKER/LOCATER V6.22.2.0                                                  06/08/2021  15:03:37  PAGE 95


  B:0098H.7       PUBLIC        SM0
  B:0098H.6       PUBLIC        SM1
  D:008BH         PUBLIC        TL1
  B:0098H.5       PUBLIC        SM2
  B:0088H.6       PUBLIC        TR1
  C:BE10H         PUBLIC        com_initialize
  X:0212H         PUBLIC        cnt__ask_off
  B:0098H.4       PUBLIC        REN
  C:BE62H         PUBLIC        com_baudrate
  C:6248H         SYMBOL        com_isr
  -------         PROC          COM_ISR
  -------         DO            
  X:0210H         SYMBOL        cDatoRx
  D:0006H         SYMBOL        k
  D:0007H         SYMBOL        bcc
  X:0211H         SYMBOL        num_datos
  -------         ENDDO         
  C:6248H         LINE#         95
  C:625DH         LINE#         103
  C:6263H         LINE#         104
  C:6263H         LINE#         106
  C:6265H         LINE#         107
  C:626BH         LINE#         108
  C:627BH         LINE#         109
  C:627BH         LINE#         110
  C:6286H         LINE#         111
  C:6288H         LINE#         113
  C:6288H         LINE#         114
  C:6298H         LINE#         115
  C:6298H         LINE#         116
  C:629DH         LINE#         117
  C:629DH         LINE#         118
  C:62B4H         LINE#         119
  C:62B4H         LINE#         123
  C:62B4H         LINE#         126
  C:62C3H         LINE#         127
  C:62C3H         LINE#         128
  C:62C5H         LINE#         129
  C:62CDH         LINE#         130
  C:62D2H         LINE#         132
  C:62D2H         LINE#         133
  C:62D5H         LINE#         137
  C:62D5H         LINE#         138
  C:62D5H         LINE#         139
  C:62EDH         LINE#         140
  C:62FCH         LINE#         141
  C:62FCH         LINE#         142
  C:62FCH         LINE#         143
  C:62FEH         LINE#         145
  C:62FEH         LINE#         146
  C:6300H         LINE#         147
  C:6300H         LINE#         148
  C:6300H         LINE#         149
  C:6303H         LINE#         153
  C:6303H         LINE#         155
  C:630CH         LINE#         156
  C:630CH         LINE#         158
BL51 BANKED LINKER/LOCATER V6.22.2.0                                                  06/08/2021  15:03:37  PAGE 96


  C:6312H         LINE#         159
  C:6325H         LINE#         160
  C:6325H         LINE#         161
  C:6328H         LINE#         163
  C:6328H         LINE#         164
  C:633DH         LINE#         165
  C:6343H         LINE#         166
  C:6343H         LINE#         168
  C:6346H         LINE#         172
  C:6346H         LINE#         174
  C:635EH         LINE#         175
  C:6364H         LINE#         176
  C:6367H         LINE#         177
  C:6367H         LINE#         178
  C:637FH         LINE#         179
  C:637FH         LINE#         180
  C:6380H         LINE#         181
  C:638DH         LINE#         182
  C:638DH         LINE#         183
  C:639AH         LINE#         184
  C:639DH         LINE#         185
  C:63ABH         LINE#         186
  C:63ABH         LINE#         187
  C:63ADH         LINE#         188
  C:63B2H         LINE#         189
  C:63B4H         LINE#         190
  C:63B8H         LINE#         192
  C:63BAH         LINE#         194
  C:63BAH         LINE#         195
  C:63BAH         LINE#         196
  C:63BAH         LINE#         197
  C:63BCH         LINE#         199
  C:63BCH         LINE#         200
  C:63BCH         LINE#         201
  C:63BCH         LINE#         203
  C:63BEH         LINE#         205
  C:63BEH         LINE#         206
  C:63C4H         LINE#         207
  C:63C4H         LINE#         209
  C:63C6H         LINE#         214
  C:63C6H         LINE#         215
  C:63CBH         LINE#         216
  C:63CBH         LINE#         217
  C:63CBH         LINE#         218
  C:63CBH         LINE#         223
  C:63CEH         LINE#         224
  C:63CEH         LINE#         225
  C:63D0H         LINE#         227
  C:63D6H         LINE#         228
  C:63D6H         LINE#         229
  C:63E0H         LINE#         231
  C:63E2H         LINE#         232
  C:63E4H         LINE#         233
  C:63E6H         LINE#         235
  C:63E6H         LINE#         236
  C:63E8H         LINE#         237
  C:63E8H         LINE#         238
BL51 BANKED LINKER/LOCATER V6.22.2.0                                                  06/08/2021  15:03:37  PAGE 97


  C:63E8H         LINE#         240
  -------         ENDPROC       COM_ISR
  -------         PROC          COM_INITIALIZE
  C:BE10H         LINE#         256
  C:BE17H         LINE#         257
  C:BE17H         LINE#         261
  C:BE1AH         LINE#         266
  C:BE1DH         LINE#         267
  C:BE1FH         LINE#         269
  C:BE21H         LINE#         270
  C:BE23H         LINE#         275
  C:BE27H         LINE#         276
  C:BE29H         LINE#         277
  C:BE2BH         LINE#         279
  C:BE2DH         LINE#         280
  C:BE2FH         LINE#         281
  C:BE31H         LINE#         283
  C:BE33H         LINE#         284
  C:BE35H         LINE#         285
  -------         ENDPROC       COM_INITIALIZE
  -------         PROC          COM_BAUDRATE
  C:BE62H         LINE#         291
  C:BE69H         LINE#         293
  C:BE69H         LINE#         297
  C:BE6BH         LINE#         298
  C:BE6EH         LINE#         299
  C:BE70H         LINE#         304
  C:BE72H         LINE#         305
  C:BE74H         LINE#         307
  C:BE77H         LINE#         309
  C:BE7AH         LINE#         310
  C:BE7DH         LINE#         312
  C:BE80H         LINE#         313
  C:BE83H         LINE#         314
  C:BE85H         LINE#         315
  -------         ENDPROC       COM_BAUDRATE
  -------         PROC          _COM_PUTCHAR
  X:00AAH         SYMBOL        c
  C:BB92H         LINE#         321
  C:BB9EH         LINE#         322
  C:BB9EH         LINE#         326
  C:BBABH         LINE#         327
  C:BBAFH         LINE#         333
  C:BBBDH         LINE#         335
  C:BBBFH         LINE#         337
  C:BBC2H         LINE#         338
  C:BBC2H         LINE#         339
  C:BBC4H         LINE#         340
  C:BBC6H         LINE#         341
  C:BBC6H         LINE#         343
  C:BBC8H         LINE#         344
  -------         ENDPROC       _COM_PUTCHAR
  -------         PROC          COM_GETCHAR
  C:BED9H         LINE#         350
  C:BEE0H         LINE#         351
  C:BEE0H         LINE#         352
  C:BEE6H         LINE#         353
BL51 BANKED LINKER/LOCATER V6.22.2.0                                                  06/08/2021  15:03:37  PAGE 98


  C:BEECH         LINE#         355
  C:BEFAH         LINE#         356
  -------         ENDPROC       COM_GETCHAR
  -------         PROC          COM_RBUFLEN
  C:C156H         LINE#         362
  C:C15DH         LINE#         363
  C:C15DH         LINE#         364
  C:C163H         LINE#         365
  -------         ENDPROC       COM_RBUFLEN
  -------         PROC          COM_TBUFLEN
  C:C168H         LINE#         371
  C:C16FH         LINE#         372
  C:C16FH         LINE#         373
  C:C175H         LINE#         374
  -------         ENDPROC       COM_TBUFLEN
  -------         ENDMOD        UART

  -------         MODULE        LINTECH
  C:0000H         SYMBOL        _ICE_DUMMY_
  C:9E77H         PUBLIC        _Inicializa
  C:9128H         PUBLIC        _RD_MF
  C:9B3EH         PUBLIC        Dwload_EEprom
  C:A33FH         PUBLIC        _Card_Insercion
  C:866FH         PUBLIC        _Mov_Card
  C:7BAEH         PUBLIC        _WR_MF
  C:A610H         PUBLIC        LoadVerify_EEprom
  C:A839H         PUBLIC        Unique_Identifier_UID
  C:AC53H         PUBLIC        Power_off
  C:A8C1H         PUBLIC        _Check_Status
  C:9A94H         PUBLIC        Clave_Seguridad_S2
  C:ABD3H         PUBLIC        Aut_Card_check_Status
  -------         PROC          _INICIALIZA
  X:0002H         SYMBOL        TipoMovimiento
  -------         DO            
  D:0003H         SYMBOL        j
  X:0003H         SYMBOL        bcc
  X:0004H         SYMBOL        g_scArrTxComSoft
  -------         ENDDO         
  C:9E77H         LINE#         68
  C:9E7CH         LINE#         69
  C:9E7CH         LINE#         72
  C:9E7FH         LINE#         73
  C:9E95H         LINE#         74
  C:9E95H         LINE#         76
  C:9E9EH         LINE#         78
  C:9EA4H         LINE#         79
  C:9EA7H         LINE#         80
  C:9EA9H         LINE#         81
  C:9EADH         LINE#         82
  C:9EB1H         LINE#         83
  C:9EB5H         LINE#         84
  C:9EBDH         LINE#         85
  C:9EC1H         LINE#         86
  C:9ECDH         LINE#         87
  C:9ECDH         LINE#         88
  C:9EE1H         LINE#         89
  C:9EE4H         LINE#         90
BL51 BANKED LINKER/LOCATER V6.22.2.0                                                  06/08/2021  15:03:37  PAGE 99


  C:9EECH         LINE#         91
  C:9EEEH         LINE#         92
  C:9EF3H         LINE#         93
  C:9F02H         LINE#         94
  C:9F0DH         LINE#         95
  C:9F13H         LINE#         96
  C:9F13H         LINE#         97
  -------         ENDPROC       _INICIALIZA
  -------         PROC          _CHECK_STATUS
  X:0002H         SYMBOL        Detalle
  -------         DO            
  D:0006H         SYMBOL        j
  D:0007H         SYMBOL        bcc
  X:0003H         SYMBOL        g_scArrTxComSoft
  -------         ENDDO         
  C:A8C1H         LINE#         109
  C:A8C6H         LINE#         110
  C:A8C6H         LINE#         114
  C:A8CCH         LINE#         115
  C:A8CCH         LINE#         116
  C:A8D0H         LINE#         117
  C:A8D2H         LINE#         119
  C:A8D2H         LINE#         120
  C:A8D9H         LINE#         121
  C:A8D9H         LINE#         122
  C:A8DBH         LINE#         124
  C:A8E1H         LINE#         125
  C:A8E4H         LINE#         126
  C:A8E6H         LINE#         127
  C:A8EAH         LINE#         128
  C:A8EEH         LINE#         129
  C:A8F2H         LINE#         130
  C:A8FAH         LINE#         131
  C:A8FEH         LINE#         132
  C:A90AH         LINE#         133
  C:A90AH         LINE#         134
  C:A917H         LINE#         135
  C:A91AH         LINE#         136
  C:A91FH         LINE#         137
  C:A921H         LINE#         138
  C:A926H         LINE#         139
  C:A935H         LINE#         140
  C:A940H         LINE#         141
  C:A946H         LINE#         142
  -------         ENDPROC       _CHECK_STATUS
  -------         PROC          _CARD_INSERCION
  D:0007H         SYMBOL        Tipo
  -------         DO            
  D:0006H         SYMBOL        j
  D:0007H         SYMBOL        bcc
  X:0002H         SYMBOL        g_scArrTxComSoft
  -------         ENDDO         
  C:A33FH         LINE#         152
  C:A33FH         LINE#         153
  C:A33FH         LINE#         156
  C:A34CH         LINE#         157
  C:A34CH         LINE#         158
BL51 BANKED LINKER/LOCATER V6.22.2.0                                                  06/08/2021  15:03:37  PAGE 100


  C:A353H         LINE#         159
  C:A359H         LINE#         160
  C:A35BH         LINE#         162
  C:A35BH         LINE#         164
  C:A362H         LINE#         165
  C:A368H         LINE#         167
  C:A368H         LINE#         169
  C:A36AH         LINE#         171
  C:A370H         LINE#         172
  C:A373H         LINE#         173
  C:A375H         LINE#         174
  C:A379H         LINE#         175
  C:A37DH         LINE#         176
  C:A381H         LINE#         178
  C:A387H         LINE#         179
  C:A393H         LINE#         180
  C:A393H         LINE#         181
  C:A3A0H         LINE#         182
  C:A3A3H         LINE#         184
  C:A3A8H         LINE#         186
  C:A3AAH         LINE#         187
  C:A3AFH         LINE#         188
  C:A3BEH         LINE#         189
  C:A3C9H         LINE#         190
  C:A3CFH         LINE#         191
  -------         ENDPROC       _CARD_INSERCION
  -------         PROC          _MOV_CARD
  X:0002H         SYMBOL        Posicion
  -------         DO            
  D:0003H         SYMBOL        j
  X:0003H         SYMBOL        bcc
  X:0004H         SYMBOL        g_scArrTxComSoft
  -------         ENDDO         
  C:866FH         LINE#         202
  C:8674H         LINE#         203
  C:8674H         LINE#         206
  C:8677H         LINE#         208
  C:8697H         LINE#         209
  C:8697H         LINE#         210
  C:869EH         LINE#         211
  C:869EH         LINE#         212
  C:86A4H         LINE#         213
  C:86A6H         LINE#         214
  C:86ADH         LINE#         215
  C:86ADH         LINE#         216
  C:86B3H         LINE#         217
  C:86B5H         LINE#         218
  C:86BCH         LINE#         219
  C:86BCH         LINE#         220
  C:86C2H         LINE#         221
  C:86C4H         LINE#         222
  C:86CBH         LINE#         223
  C:86CBH         LINE#         224
  C:86D1H         LINE#         225
  C:86D3H         LINE#         226
  C:86DAH         LINE#         227
  C:86DAH         LINE#         228
BL51 BANKED LINKER/LOCATER V6.22.2.0                                                  06/08/2021  15:03:37  PAGE 101


  C:86E3H         LINE#         229
  C:86E3H         LINE#         231
  C:86E9H         LINE#         232
  C:86ECH         LINE#         233
  C:86EEH         LINE#         234
  C:86F2H         LINE#         235
  C:86F6H         LINE#         236
  C:86FAH         LINE#         237
  C:8702H         LINE#         238
  C:8706H         LINE#         239
  C:8712H         LINE#         240
  C:8712H         LINE#         241
  C:8726H         LINE#         242
  C:8729H         LINE#         243
  C:8731H         LINE#         244
  C:8733H         LINE#         245
  C:8738H         LINE#         246
  C:8747H         LINE#         247
  C:8752H         LINE#         248
  C:8758H         LINE#         249
  C:8758H         LINE#         251
  -------         ENDPROC       _MOV_CARD
  -------         PROC          AUT_CARD_CHECK_STATUS
  -------         DO            
  D:0003H         SYMBOL        j
  X:0002H         SYMBOL        bcc
  X:0003H         SYMBOL        g_scArrTxComSoft
  -------         ENDDO         
  C:ABD3H         LINE#         257
  C:ABD3H         LINE#         258
  C:ABD3H         LINE#         261
  C:ABD8H         LINE#         263
  C:ABE1H         LINE#         265
  C:ABE7H         LINE#         266
  C:ABEAH         LINE#         267
  C:ABECH         LINE#         268
  C:ABF0H         LINE#         269
  C:ABF4H         LINE#         270
  C:ABF8H         LINE#         271
  C:ABFCH         LINE#         272
  C:AC00H         LINE#         273
  C:AC0CH         LINE#         274
  C:AC0CH         LINE#         275
  C:AC20H         LINE#         276
  C:AC23H         LINE#         277
  C:AC2BH         LINE#         278
  C:AC2DH         LINE#         279
  C:AC32H         LINE#         280
  C:AC41H         LINE#         281
  C:AC4CH         LINE#         282
  C:AC52H         LINE#         283
  -------         ENDPROC       AUT_CARD_CHECK_STATUS
  -------         PROC          CLAVE_SEGURIDAD_S2
  -------         DO            
  D:0003H         SYMBOL        j
  X:0002H         SYMBOL        bcc
  X:0003H         SYMBOL        g_scArrTxComSoft
BL51 BANKED LINKER/LOCATER V6.22.2.0                                                  06/08/2021  15:03:37  PAGE 102


  -------         ENDDO         
  C:9A94H         LINE#         286
  C:9A94H         LINE#         287
  C:9A94H         LINE#         290
  C:9A99H         LINE#         291
  C:9AA2H         LINE#         294
  C:9AA8H         LINE#         295
  C:9AABH         LINE#         296
  C:9AADH         LINE#         297
  C:9AB1H         LINE#         298
  C:9AB5H         LINE#         299
  C:9AB9H         LINE#         300
  C:9ABDH         LINE#         301
  C:9AC0H         LINE#         302
  C:9AC4H         LINE#         303
  C:9AC7H         LINE#         304
  C:9ACBH         LINE#         306
  C:9ACFH         LINE#         308
  C:9AD3H         LINE#         309
  C:9AD7H         LINE#         310
  C:9ADBH         LINE#         311
  C:9ADFH         LINE#         312
  C:9AE3H         LINE#         313
  C:9AE7H         LINE#         316
  C:9AEBH         LINE#         318
  C:9AF7H         LINE#         319
  C:9AF7H         LINE#         320
  C:9B0BH         LINE#         321
  C:9B0EH         LINE#         322
  C:9B16H         LINE#         323
  C:9B18H         LINE#         324
  C:9B1DH         LINE#         325
  C:9B2CH         LINE#         326
  C:9B37H         LINE#         327
  C:9B3DH         LINE#         330
  -------         ENDPROC       CLAVE_SEGURIDAD_S2
  -------         PROC          DWLOAD_EEPROM
  -------         DO            
  D:0003H         SYMBOL        j
  X:0002H         SYMBOL        bcc
  X:0003H         SYMBOL        g_scArrTxComSoft
  -------         ENDDO         
  C:9B3EH         LINE#         335
  C:9B3EH         LINE#         336
  C:9B3EH         LINE#         339
  C:9B43H         LINE#         340
  C:9B4CH         LINE#         342
  C:9B52H         LINE#         343
  C:9B55H         LINE#         344
  C:9B57H         LINE#         345
  C:9B5BH         LINE#         346
  C:9B5FH         LINE#         347
  C:9B63H         LINE#         348
  C:9B67H         LINE#         349
  C:9B6AH         LINE#         350
  C:9B6EH         LINE#         351
  C:9B71H         LINE#         352
BL51 BANKED LINKER/LOCATER V6.22.2.0                                                  06/08/2021  15:03:37  PAGE 103


  C:9B74H         LINE#         353
  C:9B78H         LINE#         354
  C:9B7CH         LINE#         355
  C:9B80H         LINE#         356
  C:9B84H         LINE#         357
  C:9B88H         LINE#         358
  C:9B8CH         LINE#         359
  C:9B90H         LINE#         360
  C:9B94H         LINE#         362
  C:9BA0H         LINE#         363
  C:9BA0H         LINE#         364
  C:9BB4H         LINE#         365
  C:9BB7H         LINE#         366
  C:9BBFH         LINE#         367
  C:9BC1H         LINE#         368
  C:9BC6H         LINE#         369
  C:9BD5H         LINE#         370
  C:9BE0H         LINE#         371
  C:9BE6H         LINE#         372
  -------         ENDPROC       DWLOAD_EEPROM
  -------         PROC          LOADVERIFY_EEPROM
  -------         DO            
  D:0003H         SYMBOL        j
  X:0002H         SYMBOL        bcc
  X:0003H         SYMBOL        g_scArrTxComSoft
  -------         ENDDO         
  C:A610H         LINE#         378
  C:A610H         LINE#         379
  C:A610H         LINE#         382
  C:A615H         LINE#         383
  C:A61EH         LINE#         386
  C:A624H         LINE#         387
  C:A627H         LINE#         388
  C:A629H         LINE#         389
  C:A62DH         LINE#         390
  C:A631H         LINE#         391
  C:A635H         LINE#         392
  C:A639H         LINE#         393
  C:A63CH         LINE#         394
  C:A640H         LINE#         395
  C:A643H         LINE#         396
  C:A646H         LINE#         397
  C:A64AH         LINE#         402
  C:A656H         LINE#         403
  C:A656H         LINE#         404
  C:A66AH         LINE#         405
  C:A66DH         LINE#         406
  C:A675H         LINE#         407
  C:A677H         LINE#         408
  C:A67CH         LINE#         409
  C:A68BH         LINE#         410
  C:A696H         LINE#         411
  C:A69CH         LINE#         413
  -------         ENDPROC       LOADVERIFY_EEPROM
  -------         PROC          _RD_MF
  X:0002H         SYMBOL        Sector
  X:0003H         SYMBOL        Bloque
BL51 BANKED LINKER/LOCATER V6.22.2.0                                                  06/08/2021  15:03:37  PAGE 104


  -------         DO            
  D:0003H         SYMBOL        j
  X:0004H         SYMBOL        bcc
  X:0005H         SYMBOL        g_scArrTxComSoft
  -------         ENDDO         
  C:9128H         LINE#         419
  C:9130H         LINE#         420
  C:9130H         LINE#         424
  C:9133H         LINE#         426
  C:913CH         LINE#         427
  C:9144H         LINE#         429
  C:914DH         LINE#         430
  C:9155H         LINE#         431
  C:915EH         LINE#         434
  C:9164H         LINE#         435
  C:9167H         LINE#         436
  C:9169H         LINE#         437
  C:916DH         LINE#         438
  C:9171H         LINE#         439
  C:9175H         LINE#         440
  C:9179H         LINE#         441
  C:917CH         LINE#         442
  C:9180H         LINE#         443
  C:9188H         LINE#         444
  C:9190H         LINE#         445
  C:9194H         LINE#         446
  C:9198H         LINE#         448
  C:91A4H         LINE#         449
  C:91A4H         LINE#         450
  C:91B8H         LINE#         451
  C:91BBH         LINE#         452
  C:91C3H         LINE#         455
  C:91C5H         LINE#         456
  C:91CAH         LINE#         457
  C:91D9H         LINE#         458
  C:91E4H         LINE#         459
  C:91EAH         LINE#         461
  -------         ENDPROC       _RD_MF
  -------         PROC          _WR_MF
  X:0002H         SYMBOL        Sector
  X:0003H         SYMBOL        Bloque
  X:0004H         SYMBOL        buffer
  -------         DO            
  D:0005H         SYMBOL        j
  X:0007H         SYMBOL        bcc
  X:0008H         SYMBOL        g_scArrTxComSoft
  -------         ENDDO         
  C:7BAEH         LINE#         468
  C:7BBFH         LINE#         470
  C:7BBFH         LINE#         473
  C:7BC2H         LINE#         475
  C:7BCBH         LINE#         476
  C:7BD3H         LINE#         478
  C:7BDCH         LINE#         479
  C:7BE4H         LINE#         480
  C:7BEDH         LINE#         482
  C:7BF3H         LINE#         483
BL51 BANKED LINKER/LOCATER V6.22.2.0                                                  06/08/2021  15:03:37  PAGE 105


  C:7BF6H         LINE#         484
  C:7BF8H         LINE#         485
  C:7BFCH         LINE#         487
  C:7C00H         LINE#         488
  C:7C04H         LINE#         489
  C:7C08H         LINE#         490
  C:7C0BH         LINE#         491
  C:7C0FH         LINE#         492
  C:7C17H         LINE#         493
  C:7C1FH         LINE#         494
  C:7C23H         LINE#         496
  C:7C2FH         LINE#         497
  C:7C2FH         LINE#         498
  C:7C4FH         LINE#         499
  C:7C52H         LINE#         501
  C:7C58H         LINE#         503
  C:7C64H         LINE#         504
  C:7C64H         LINE#         505
  C:7C7BH         LINE#         506
  C:7C7EH         LINE#         507
  C:7C86H         LINE#         510
  C:7C88H         LINE#         511
  C:7C8DH         LINE#         512
  C:7C9CH         LINE#         513
  C:7CA7H         LINE#         514
  C:7CADH         LINE#         516
  -------         ENDPROC       _WR_MF
  -------         PROC          UNIQUE_IDENTIFIER_UID
  -------         DO            
  D:0003H         SYMBOL        j
  X:0002H         SYMBOL        bcc
  X:0003H         SYMBOL        g_scArrTxComSoft
  -------         ENDDO         
  C:A839H         LINE#         521
  C:A839H         LINE#         522
  C:A839H         LINE#         525
  C:A83EH         LINE#         527
  C:A847H         LINE#         529
  C:A84DH         LINE#         530
  C:A850H         LINE#         531
  C:A852H         LINE#         532
  C:A856H         LINE#         533
  C:A85AH         LINE#         534
  C:A85EH         LINE#         535
  C:A862H         LINE#         536
  C:A866H         LINE#         537
  C:A86AH         LINE#         538
  C:A86EH         LINE#         539
  C:A87AH         LINE#         540
  C:A87AH         LINE#         541
  C:A88EH         LINE#         542
  C:A891H         LINE#         543
  C:A899H         LINE#         544
  C:A89BH         LINE#         545
  C:A8A0H         LINE#         546
  C:A8AFH         LINE#         547
  C:A8BAH         LINE#         548
BL51 BANKED LINKER/LOCATER V6.22.2.0                                                  06/08/2021  15:03:37  PAGE 106


  C:A8C0H         LINE#         549
  -------         ENDPROC       UNIQUE_IDENTIFIER_UID
  -------         PROC          POWER_OFF
  -------         DO            
  D:0003H         SYMBOL        j
  X:0002H         SYMBOL        bcc
  X:0003H         SYMBOL        g_scArrTxComSoft
  -------         ENDDO         
  C:AC53H         LINE#         550
  C:AC53H         LINE#         551
  C:AC53H         LINE#         554
  C:AC58H         LINE#         556
  C:AC61H         LINE#         558
  C:AC67H         LINE#         559
  C:AC6AH         LINE#         560
  C:AC6CH         LINE#         561
  C:AC70H         LINE#         562
  C:AC74H         LINE#         563
  C:AC78H         LINE#         564
  C:AC7CH         LINE#         565
  C:AC80H         LINE#         566
  C:AC8CH         LINE#         567
  C:AC8CH         LINE#         568
  C:ACA0H         LINE#         569
  C:ACA3H         LINE#         570
  C:ACABH         LINE#         571
  C:ACADH         LINE#         572
  C:ACB2H         LINE#         573
  C:ACC1H         LINE#         574
  C:ACCCH         LINE#         575
  C:ACD2H         LINE#         578
  -------         ENDPROC       POWER_OFF
  -------         ENDMOD        LINTECH

  -------         MODULE        VERIFICADOR
  C:0000H         SYMBOL        _ICE_DUMMY_
  D:0080H         PUBLIC        P0
  C:BEFFH         PUBLIC        Analiza_Presencia_Mensual
  C:B082H         PUBLIC        Ingreso_Vehiculo
  D:0090H         PUBLIC        P1
  C:BE8AH         PUBLIC        _Armar_Trama_Tarjeta_Sector1_Bloque0
  D:00B0H         PUBLIC        P3
  C:63FBH         PUBLIC        _Valida_Tipo_Tarjeta
  C:BAFBH         PUBLIC        _Load_Secuencia_Expedidor
  C:5CA6H         PUBLIC        _Armar_Trama_Tarjeta_Sector1_Bloque2
  C:522DH         PUBLIC        _Armar_Trama_Pto_Paralelo_Expedidor
  C:9064H         PUBLIC        _Tarjeta_Mensual
  C:BF4BH         PUBLIC        Analiza_Presencia_rotacion
  C:A4F0H         PUBLIC        _Disparo_Lock_Entrada_Vehiculo
  C:BDB2H         PUBLIC        Pregunta_Placa
  C:A216H         PUBLIC        _Valida_Vehiculo_Card_Mensual
  C:BC07H         PUBLIC        Analiza_card_mount_rf
  C:B2DBH         PUBLIC        _Armar_Trama_Placa
  C:8D42H         PUBLIC        _rta_cmd_transporte
  C:C1D2H         PUBLIC        Captura_Expulsa
  C:4F8AH         PUBLIC        _Armar_Trama_Monitor
  C:6DF0H         PUBLIC        Secuencia_inicio_expedidor
BL51 BANKED LINKER/LOCATER V6.22.2.0                                                  06/08/2021  15:03:37  PAGE 107


  C:89F6H         PUBLIC        _Analiza_Uid_Card
  B:0080H.0       PUBLIC        rx_ip
  C:8392H         PUBLIC        _Bloque_Horario
  B:0080H.3       PUBLIC        Atascado_GP0_PIN_3
  B:0090H.7       PUBLIC        lock
  C:9D32H         PUBLIC        _Armar_Trama_Tarjeta_Sector1_Bloque1_Camcel
  C:9FB0H         PUBLIC        _Responde_Lectura_Tarjeta_Sector1_Bloque0
  C:936EH         PUBLIC        error_rx_pto
  C:5E91H         PUBLIC        _Responde_Lectura_Tarjeta_Sector1_Bloque1
  C:72CFH         PUBLIC        _Responde_Lectura_Tarjeta_Sector1_Bloque2
  C:9F14H         PUBLIC        _Respuesta_Placa_Cancel
  B:0090H.1       PUBLIC        DataIn
  C:9C8DH         PUBLIC        _Send_Pto_Paralelo
  C:B9EAH         PUBLIC        Trama_Validacion_P_N
  B:0022H.0       PUBLIC        MenSual
  C:71A1H         PUBLIC        _Armar_Trama_Pto_Paralelo_Expedidor_Mensual
  C:7993H         PUBLIC        _Horarios
  C:99E8H         PUBLIC        _Hora_Maxima
  C:6A16H         PUBLIC        _Responde_ReeLectura_Tarjeta_Sector1_Bloque2
  C:3AA5H         PUBLIC        _SecuenciaExpedidorMF
  C:B3E8H         PUBLIC        _Pregunta_Lpr
  C:97D0H         PUBLIC        _Wait_Placa
  C:ADCFH         PUBLIC        Responde_Estado_Sensores_Transporte
  C:A580H         PUBLIC        Entrega_Card_Captura
  C:B27EH         PUBLIC        _Respuesta_Segunda_clave
  X:0147H         SYMBOL        Estado
  C:BCAFH         PUBLIC        _Responde_Write_Tarjeta_Sector1_Bloque0
  C:BC79H         PUBLIC        _Responde_Write_Tarjeta_Sector1_Bloque1
  C:B644H         PUBLIC        _Responde_Write_Tarjeta_Sector2_Bloque0
  C:B016H         PUBLIC        _Responde_Write_Tarjeta_Sector1_Bloque2
  C:AF36H         PUBLIC        _En_Horario
  C:AE4BH         PUBLIC        Responde_Tipo_Tarjeta
  C:BD81H         PUBLIC        _Tarjeta_Rotacion
  -------         PROC          CAPTURA_EXPULSA
  -------         DO            
  D:0007H         SYMBOL        Estado_expedidor
  -------         ENDDO         
  C:C1D2H         LINE#         541
  C:C1D2H         LINE#         542
  C:C1D2H         LINE#         546
  C:C1D5H         LINE#         547
  C:C1D5H         LINE#         548
  C:C1D7H         LINE#         549
  C:C1D8H         LINE#         551
  C:C1D8H         LINE#         553
  C:C1DAH         LINE#         554
  C:C1DAH         LINE#         557
  C:C1DAH         LINE#         558
  -------         ENDPROC       CAPTURA_EXPULSA
  -------         PROC          TRAMA_VALIDACION_P_N
  -------         DO            
  D:0007H         SYMBOL        Trama_Validacion_P_N
  -------         ENDDO         
  C:B9EAH         LINE#         569
  C:B9EAH         LINE#         570
  C:B9EAH         LINE#         571
  C:B9ECH         LINE#         573
BL51 BANKED LINKER/LOCATER V6.22.2.0                                                  06/08/2021  15:03:37  PAGE 108


  C:BA02H         LINE#         574
  C:BA02H         LINE#         575
  C:BA05H         LINE#         576
  C:BA05H         LINE#         577
  C:BA07H         LINE#         580
  C:BA0FH         LINE#         581
  C:BA0FH         LINE#         583
  C:BA11H         LINE#         585
  C:BA12H         LINE#         586
  C:BA16H         LINE#         587
  C:BA16H         LINE#         589
  C:BA18H         LINE#         591
  C:BA19H         LINE#         593
  C:BA19H         LINE#         594
  C:BA22H         LINE#         595
  C:BA24H         LINE#         597
  C:BA24H         LINE#         598
  C:BA25H         LINE#         600
  C:BA25H         LINE#         602
  C:BA27H         LINE#         604
  C:BA27H         LINE#         606
  C:BA27H         LINE#         608
  C:BA27H         LINE#         609
  -------         ENDPROC       TRAMA_VALIDACION_P_N
  -------         PROC          ERROR_RX_PTO
  -------         DO            
  X:00B7H         SYMBOL        cnt_espera_ask_on
  X:0007H         SYMBOL        error_rx_pto
  -------         ENDDO         
  C:936EH         LINE#         633
  C:936EH         LINE#         634
  C:936EH         LINE#         637
  C:9374H         LINE#         641
  C:937DH         LINE#         642
  C:9385H         LINE#         643
  C:938EH         LINE#         644
  C:9396H         LINE#         645
  C:939FH         LINE#         646
  C:93A2H         LINE#         648
  C:93A2H         LINE#         649
  C:93A8H         LINE#         650
  C:93B2H         LINE#         651
  C:93B2H         LINE#         652
  C:93BBH         LINE#         653
  C:93BDH         LINE#         654
  C:93C4H         LINE#         655
  C:93C9H         LINE#         656
  C:93CFH         LINE#         657
  C:93D4H         LINE#         658
  C:93D6H         LINE#         659
  C:93DDH         LINE#         660
  C:93E3H         LINE#         661
  C:93E3H         LINE#         663
  C:93E3H         LINE#         664
  C:93E8H         LINE#         665
  C:93E8H         LINE#         666
  C:93E8H         LINE#         667
BL51 BANKED LINKER/LOCATER V6.22.2.0                                                  06/08/2021  15:03:37  PAGE 109


  C:93EAH         LINE#         669
  C:93EAH         LINE#         670
  C:93F8H         LINE#         671
  C:940BH         LINE#         672
  C:940BH         LINE#         673
  C:940CH         LINE#         675
  C:9412H         LINE#         676
  C:9416H         LINE#         677
  C:9418H         LINE#         678
  C:9418H         LINE#         679
  C:941AH         LINE#         681
  C:941AH         LINE#         682
  C:941BH         LINE#         683
  C:9420H         LINE#         684
  C:9426H         LINE#         685
  C:9426H         LINE#         686
  C:9426H         LINE#         687
  C:942BH         LINE#         688
  -------         ENDPROC       ERROR_RX_PTO
  -------         PROC          _RTA_CMD_TRANSPORTE
  X:0002H         SYMBOL        secuencia_Expedidor
  -------         DO            
  X:0005H         SYMBOL        temp
  X:0006H         SYMBOL        EstadoComSeqMF
  -------         ENDDO         
  C:8D42H         LINE#         704
  C:8D4DH         LINE#         705
  C:8D4DH         LINE#         711
  C:8D5AH         LINE#         712
  C:8D5AH         LINE#         713
  C:8D62H         LINE#         714
  C:8D62H         LINE#         715
  C:8D70H         LINE#         716
  C:8D73H         LINE#         717
  C:8D79H         LINE#         718
  C:8D79H         LINE#         719
  C:8D82H         LINE#         720
  C:8D96H         LINE#         721
  C:8DA7H         LINE#         723
  C:8DA9H         LINE#         725
  C:8DA9H         LINE#         728
  C:8DC1H         LINE#         729
  C:8DC1H         LINE#         730
  C:8DCCH         LINE#         731
  C:8DCEH         LINE#         733
  C:8DCEH         LINE#         734
  C:8DDCH         LINE#         735
  C:8DDCH         LINE#         736
  C:8DDCH         LINE#         737
  C:8DDEH         LINE#         739
  C:8DDEH         LINE#         741
  C:8DF2H         LINE#         742
  C:8E07H         LINE#         743
  C:8E07H         LINE#         744
  C:8E0CH         LINE#         745
  -------         ENDPROC       _RTA_CMD_TRANSPORTE
  -------         PROC          ANALIZA_PRESENCIA_MENSUAL
BL51 BANKED LINKER/LOCATER V6.22.2.0                                                  06/08/2021  15:03:37  PAGE 110


  -------         DO            
  X:0002H         SYMBOL        Estado_expedidor
  -------         ENDDO         
  C:BEFFH         LINE#         749
  C:BEFFH         LINE#         750
  C:BEFFH         LINE#         754
  C:BF05H         LINE#         755
  C:BF05H         LINE#         756
  C:BF07H         LINE#         757
  C:BF0DH         LINE#         758
  C:BF0FH         LINE#         760
  C:BF0FH         LINE#         762
  C:BF14H         LINE#         763
  C:BF19H         LINE#         764
  C:BF1FH         LINE#         765
  C:BF1FH         LINE#         766
  C:BF24H         LINE#         767
  -------         ENDPROC       ANALIZA_PRESENCIA_MENSUAL
  -------         PROC          ANALIZA_CARD_MOUNT_RF
  -------         DO            
  X:0002H         SYMBOL        Estado_expedidor
  -------         ENDDO         
  C:BC07H         LINE#         771
  C:BC07H         LINE#         772
  C:BC07H         LINE#         774
  C:BC0DH         LINE#         775
  C:BC14H         LINE#         776
  C:BC14H         LINE#         778
  C:BC1DH         LINE#         780
  C:BC23H         LINE#         781
  C:BC25H         LINE#         782
  C:BC2CH         LINE#         784
  C:BC2CH         LINE#         785
  C:BC35H         LINE#         786
  C:BC3BH         LINE#         787
  C:BC3BH         LINE#         790
  C:BC40H         LINE#         791
  -------         ENDPROC       ANALIZA_CARD_MOUNT_RF
  -------         PROC          ANALIZA_PRESENCIA_ROTACION
  -------         DO            
  X:0002H         SYMBOL        Estado_expedidor
  -------         ENDDO         
  C:BF4BH         LINE#         795
  C:BF4BH         LINE#         796
  C:BF4BH         LINE#         798
  C:BF51H         LINE#         799
  C:BF51H         LINE#         801
  C:BF57H         LINE#         802
  C:BF59H         LINE#         804
  C:BF59H         LINE#         806
  C:BF5EH         LINE#         807
  C:BF63H         LINE#         808
  C:BF68H         LINE#         810
  C:BF68H         LINE#         811
  C:BF6DH         LINE#         812
  -------         ENDPROC       ANALIZA_PRESENCIA_ROTACION
  -------         PROC          _ANALIZA_UID_CARD
BL51 BANKED LINKER/LOCATER V6.22.2.0                                                  06/08/2021  15:03:37  PAGE 111


  X:0002H         SYMBOL        Atributos_Expedidor
  -------         DO            
  X:0005H         SYMBOL        Estado_expedidor
  D:0007H         SYMBOL        temp
  X:0006H         SYMBOL        buffer_UID
  -------         ENDDO         
  C:89F6H         LINE#         816
  C:8A01H         LINE#         817
  C:8A01H         LINE#         821
  C:8A11H         LINE#         822
  C:8A11H         LINE#         824
  C:8A1DH         LINE#         825
  C:8A1DH         LINE#         826
  C:8A35H         LINE#         828
  C:8A38H         LINE#         830
  C:8A41H         LINE#         831
  C:8A52H         LINE#         834
  C:8A5BH         LINE#         835
  C:8A63H         LINE#         836
  C:8A6BH         LINE#         837
  C:8A73H         LINE#         838
  C:8A7BH         LINE#         839
  C:8A84H         LINE#         841
  C:8A9BH         LINE#         842
  C:8AA5H         LINE#         843
  C:8AAFH         LINE#         844
  C:8AB9H         LINE#         845
  C:8ABFH         LINE#         846
  C:8AC1H         LINE#         848
  C:8AC1H         LINE#         849
  C:8AC7H         LINE#         850
  C:8AC7H         LINE#         851
  C:8ACCH         LINE#         852
  -------         ENDPROC       _ANALIZA_UID_CARD
  -------         PROC          INGRESO_VEHICULO
  -------         DO            
  D:0007H         SYMBOL        CardAutomatic
  X:00B9H         SYMBOL        pulseboton
  -------         ENDDO         
  C:B082H         LINE#         856
  C:B082H         LINE#         857
  C:B082H         LINE#         862
  C:B088H         LINE#         863
  C:B088H         LINE#         864
  C:B091H         LINE#         866
  C:B096H         LINE#         867
  C:B096H         LINE#         868
  C:B09FH         LINE#         870
  C:B09FH         LINE#         871
  C:B0A1H         LINE#         873
  C:B0A1H         LINE#         875
  C:B0AEH         LINE#         876
  C:B0B3H         LINE#         877
  C:B0B8H         LINE#         878
  C:B0BAH         LINE#         880
  C:B0BAH         LINE#         881
  C:B0C0H         LINE#         884
BL51 BANKED LINKER/LOCATER V6.22.2.0                                                  06/08/2021  15:03:37  PAGE 112


  C:B0C0H         LINE#         885
  C:B0C3H         LINE#         886
  C:B0C6H         LINE#         887
  C:B0C6H         LINE#         888
  C:B0C8H         LINE#         889
  C:B0CDH         LINE#         890
  C:B0D3H         LINE#         891
  C:B0D5H         LINE#         893
  C:B0D5H         LINE#         894
  C:B0DAH         LINE#         895
  C:B0E0H         LINE#         896
  C:B0E0H         LINE#         899
  C:B0E0H         LINE#         900
  C:B0E2H         LINE#         902
  C:B0E2H         LINE#         904
  C:B0E7H         LINE#         905
  C:B0E7H         LINE#         906
  C:B0ECH         LINE#         907
  -------         ENDPROC       INGRESO_VEHICULO
  -------         PROC          RESPONDE_ESTADO_SENSORES_TRANSPORTE
  -------         DO            
  X:0002H         SYMBOL        Estado_expedidor
  -------         ENDDO         
  C:ADCFH         LINE#         914
  C:ADCFH         LINE#         915
  C:ADCFH         LINE#         918
  C:ADD8H         LINE#         920
  C:ADE0H         LINE#         921
  C:ADE0H         LINE#         923
  C:ADEBH         LINE#         924
  C:ADEBH         LINE#         925
  C:ADEFH         LINE#         926
  C:ADEFH         LINE#         927
  C:ADF8H         LINE#         928
  C:ADFDH         LINE#         930
  C:ADFDH         LINE#         931
  C:ADFFH         LINE#         933
  C:ADFFH         LINE#         935
  C:AE07H         LINE#         937
  C:AE07H         LINE#         938
  C:AE09H         LINE#         940
  C:AE09H         LINE#         942
  C:AE12H         LINE#         944
  C:AE17H         LINE#         947
  C:AE17H         LINE#         948
  C:AE17H         LINE#         949
  C:AE19H         LINE#         950
  C:AE20H         LINE#         951
  C:AE20H         LINE#         953
  C:AE26H         LINE#         955
  C:AE26H         LINE#         956
  C:AE28H         LINE#         957
  C:AE2FH         LINE#         959
  C:AE2FH         LINE#         960
  C:AE38H         LINE#         961
  C:AE3EH         LINE#         962
  C:AE40H         LINE#         964
BL51 BANKED LINKER/LOCATER V6.22.2.0                                                  06/08/2021  15:03:37  PAGE 113


  C:AE40H         LINE#         965
  C:AE45H         LINE#         966
  C:AE45H         LINE#         967
  C:AE4AH         LINE#         968
  -------         ENDPROC       RESPONDE_ESTADO_SENSORES_TRANSPORTE
  -------         PROC          RESPONDE_TIPO_TARJETA
  -------         DO            
  X:0002H         SYMBOL        Estado_expedidor
  -------         ENDDO         
  C:AE4BH         LINE#         984
  C:AE4BH         LINE#         985
  C:AE4BH         LINE#         988
  C:AE54H         LINE#         990
  C:AE5CH         LINE#         991
  C:AE5CH         LINE#         992
  C:AE67H         LINE#         993
  C:AE67H         LINE#         994
  C:AE70H         LINE#         995
  C:AE76H         LINE#         996
  C:AE76H         LINE#         997
  C:AE79H         LINE#         998
  C:AE7BH         LINE#         1000
  C:AE7BH         LINE#         1001
  C:AE7EH         LINE#         1002
  C:AE7EH         LINE#         1003
  C:AE80H         LINE#         1005
  C:AE80H         LINE#         1006
  C:AE87H         LINE#         1007
  C:AE87H         LINE#         1009
  C:AE8DH         LINE#         1011
  C:AE8DH         LINE#         1012
  C:AE8DH         LINE#         1014
  C:AE8DH         LINE#         1016
  C:AE8FH         LINE#         1018
  C:AE8FH         LINE#         1019
  C:AE8FH         LINE#         1020
  C:AE8FH         LINE#         1021
  C:AE8FH         LINE#         1022
  C:AE8FH         LINE#         1023
  C:AE91H         LINE#         1025
  C:AE91H         LINE#         1026
  C:AE98H         LINE#         1027
  C:AE98H         LINE#         1030
  C:AEA1H         LINE#         1032
  C:AEA6H         LINE#         1033
  C:AEABH         LINE#         1035
  C:AEB3H         LINE#         1038
  C:AEB5H         LINE#         1040
  C:AEB5H         LINE#         1041
  C:AEB7H         LINE#         1042
  C:AEBCH         LINE#         1043
  C:AEBCH         LINE#         1044
  C:AEBCH         LINE#         1046
  C:AEC1H         LINE#         1047
  -------         ENDPROC       RESPONDE_TIPO_TARJETA
  -------         PROC          _RESPONDE_LECTURA_TARJETA_SECTOR1_BLOQUE1
  X:0002H         SYMBOL        Atributos_Expedidor
BL51 BANKED LINKER/LOCATER V6.22.2.0                                                  06/08/2021  15:03:37  PAGE 114


  -------         DO            
  D:0007H         SYMBOL        temp
  X:0005H         SYMBOL        Estado_expedidor
  X:0006H         SYMBOL        buffer_S1_B1
  X:0017H         SYMBOL        ID_CLIENTE
  D:0007H         SYMBOL        COD_PARK
  X:00BAH         SYMBOL        falla
  -------         ENDDO         
  C:5E91H         LINE#         1059
  C:5E9CH         LINE#         1060
  C:5E9CH         LINE#         1067
  C:5EA5H         LINE#         1071
  C:5EB5H         LINE#         1072
  C:5EB5H         LINE#         1074
  C:5EC1H         LINE#         1075
  C:5EC1H         LINE#         1076
  C:5ED9H         LINE#         1078
  C:5EDCH         LINE#         1081
  C:5EE5H         LINE#         1082
  C:5EF6H         LINE#         1083
  C:5F03H         LINE#         1084
  C:5F0CH         LINE#         1087
  C:5F2BH         LINE#         1088
  C:5F2BH         LINE#         1090
  C:5F34H         LINE#         1091
  C:5F3CH         LINE#         1092
  C:5F45H         LINE#         1094
  C:5F4EH         LINE#         1095
  C:5F56H         LINE#         1096
  C:5F5FH         LINE#         1098
  C:5F68H         LINE#         1099
  C:5F70H         LINE#         1100
  C:5F79H         LINE#         1102
  C:5F82H         LINE#         1103
  C:5F8AH         LINE#         1104
  C:5F93H         LINE#         1106
  C:5F9CH         LINE#         1107
  C:5FA4H         LINE#         1108
  C:5FADH         LINE#         1110
  C:5FC4H         LINE#         1112
  C:5FCEH         LINE#         1113
  C:5FD8H         LINE#         1114
  C:5FE2H         LINE#         1116
  C:5FE7H         LINE#         1117
  C:5FFAH         LINE#         1118
  C:5FFFH         LINE#         1119
  C:6005H         LINE#         1121
  C:6007H         LINE#         1123
  C:6007H         LINE#         1124
  C:600CH         LINE#         1125
  C:6015H         LINE#         1126
  C:601AH         LINE#         1127
  C:601CH         LINE#         1128
  C:601CH         LINE#         1129
  C:601CH         LINE#         1130
  C:601EH         LINE#         1132
  C:601EH         LINE#         1134
BL51 BANKED LINKER/LOCATER V6.22.2.0                                                  06/08/2021  15:03:37  PAGE 115


  C:6026H         LINE#         1135
  C:6026H         LINE#         1136
  C:602CH         LINE#         1137
  C:602CH         LINE#         1138
  C:6039H         LINE#         1140
  C:6039H         LINE#         1141
  C:6042H         LINE#         1142
  C:6048H         LINE#         1144
  C:604AH         LINE#         1146
  C:604AH         LINE#         1147
  C:604FH         LINE#         1148
  C:6058H         LINE#         1149
  C:605DH         LINE#         1150
  C:6062H         LINE#         1151
  C:606AH         LINE#         1152
  C:606AH         LINE#         1153
  C:606AH         LINE#         1155
  C:606FH         LINE#         1156
  -------         ENDPROC       _RESPONDE_LECTURA_TARJETA_SECTOR1_BLOQUE1
  -------         PROC          _RESPONDE_LECTURA_TARJETA_SECTOR1_BLOQUE2
  X:0002H         SYMBOL        Atributos_Expedidor
  -------         DO            
  D:0007H         SYMBOL        temp
  X:0005H         SYMBOL        Estado_expedidor
  X:0006H         SYMBOL        buffer_S1_B2
  -------         ENDDO         
  C:72CFH         LINE#         1161
  C:72DAH         LINE#         1162
  C:72DAH         LINE#         1168
  C:72E3H         LINE#         1172
  C:72F3H         LINE#         1173
  C:72F3H         LINE#         1175
  C:72FFH         LINE#         1176
  C:72FFH         LINE#         1177
  C:7317H         LINE#         1178
  C:731AH         LINE#         1179
  C:7323H         LINE#         1180
  C:7334H         LINE#         1184
  C:733DH         LINE#         1185
  C:734AH         LINE#         1186
  C:7366H         LINE#         1187
  C:736FH         LINE#         1189
  C:7378H         LINE#         1191
  C:7394H         LINE#         1192
  C:739EH         LINE#         1193
  C:73A7H         LINE#         1196
  C:73B0H         LINE#         1197
  C:73B8H         LINE#         1198
  C:73C1H         LINE#         1202
  C:73D8H         LINE#         1205
  C:73E4H         LINE#         1206
  C:73EAH         LINE#         1209
  C:73ECH         LINE#         1211
  C:73ECH         LINE#         1212
  C:73F4H         LINE#         1213
  C:73F4H         LINE#         1214
  C:73F9H         LINE#         1215
BL51 BANKED LINKER/LOCATER V6.22.2.0                                                  06/08/2021  15:03:37  PAGE 116


  -------         ENDPROC       _RESPONDE_LECTURA_TARJETA_SECTOR1_BLOQUE2
  -------         PROC          _RESPONDE_LECTURA_TARJETA_SECTOR1_BLOQUE0
  X:0002H         SYMBOL        Nombre_Mensual
  -------         DO            
  D:0007H         SYMBOL        temp
  X:0005H         SYMBOL        Estado_expedidor
  -------         ENDDO         
  C:9FB0H         LINE#         1217
  C:9FBBH         LINE#         1218
  C:9FBBH         LINE#         1224
  C:9FC4H         LINE#         1228
  C:9FD1H         LINE#         1229
  C:9FD1H         LINE#         1231
  C:9FDDH         LINE#         1232
  C:9FDDH         LINE#         1233
  C:9FFDH         LINE#         1234
  C:A000H         LINE#         1235
  C:A014H         LINE#         1236
  C:A01DH         LINE#         1237
  C:A02BH         LINE#         1238
  C:A034H         LINE#         1239
  C:A03AH         LINE#         1242
  C:A03CH         LINE#         1244
  C:A03CH         LINE#         1245
  C:A044H         LINE#         1246
  C:A044H         LINE#         1247
  C:A049H         LINE#         1248
  -------         ENDPROC       _RESPONDE_LECTURA_TARJETA_SECTOR1_BLOQUE0
  -------         PROC          _RESPONDE_REELECTURA_TARJETA_SECTOR1_BLOQUE2
  X:0002H         SYMBOL        lectura_anterior
  X:0005H         SYMBOL        Atributos_Expedidor
  -------         DO            
  D:0007H         SYMBOL        temp
  X:0008H         SYMBOL        Estado_expedidor
  X:0009H         SYMBOL        reelectura
  X:00BBH         SYMBOL        error_lectura
  -------         ENDDO         
  C:6A16H         LINE#         1249
  C:6A21H         LINE#         1250
  C:6A21H         LINE#         1256
  C:6A2AH         LINE#         1259
  C:6A3AH         LINE#         1260
  C:6A3AH         LINE#         1262
  C:6A46H         LINE#         1263
  C:6A46H         LINE#         1264
  C:6A66H         LINE#         1265
  C:6A69H         LINE#         1266
  C:6A7DH         LINE#         1267
  C:6A86H         LINE#         1268
  C:6A9CH         LINE#         1269
  C:6AA5H         LINE#         1271
  C:6AC9H         LINE#         1272
  C:6AC9H         LINE#         1273
  C:6ACDH         LINE#         1274
  C:6AD6H         LINE#         1275
  C:6ADFH         LINE#         1276
  C:6AEFH         LINE#         1277
BL51 BANKED LINKER/LOCATER V6.22.2.0                                                  06/08/2021  15:03:37  PAGE 117


  C:6B01H         LINE#         1278
  C:6B0FH         LINE#         1279
  C:6B0FH         LINE#         1280
  C:6B11H         LINE#         1282
  C:6B11H         LINE#         1283
  C:6B17H         LINE#         1284
  C:6B27H         LINE#         1285
  C:6B27H         LINE#         1286
  C:6B2AH         LINE#         1287
  C:6B30H         LINE#         1289
  C:6B32H         LINE#         1291
  C:6B32H         LINE#         1292
  C:6B35H         LINE#         1293
  C:6B3EH         LINE#         1294
  C:6B4EH         LINE#         1295
  C:6B61H         LINE#         1296
  C:6B67H         LINE#         1298
  C:6B67H         LINE#         1299
  C:6B67H         LINE#         1301
  C:6B67H         LINE#         1302
  C:6B6CH         LINE#         1303
  -------         ENDPROC       _RESPONDE_REELECTURA_TARJETA_SECTOR1_BLOQUE2
  -------         PROC          _RESPONDE_WRITE_TARJETA_SECTOR1_BLOQUE1
  X:0002H         SYMBOL        Buffer_Write_MF
  -------         DO            
  D:0007H         SYMBOL        Estado_expedidor
  -------         ENDDO         
  C:BC79H         LINE#         1304
  C:BC84H         LINE#         1305
  C:BC84H         LINE#         1307
  C:BC8DH         LINE#         1308
  C:BC96H         LINE#         1309
  C:BCACH         LINE#         1310
  C:BCAEH         LINE#         1311
  C:BCAEH         LINE#         1312
  -------         ENDPROC       _RESPONDE_WRITE_TARJETA_SECTOR1_BLOQUE1
  -------         PROC          _RESPONDE_WRITE_TARJETA_SECTOR1_BLOQUE2
  X:0002H         SYMBOL        Atributos_Expedidor
  X:0005H         SYMBOL        Buffer_Write_MF
  -------         DO            
  X:0008H         SYMBOL        Estado_expedidor
  -------         ENDDO         
  C:B016H         LINE#         1313
  C:B021H         LINE#         1314
  C:B021H         LINE#         1316
  C:B02AH         LINE#         1317
  C:B033H         LINE#         1318
  C:B049H         LINE#         1319
  C:B04CH         LINE#         1320
  C:B04CH         LINE#         1321
  C:B052H         LINE#         1327
  C:B054H         LINE#         1329
  C:B054H         LINE#         1330
  C:B064H         LINE#         1331
  C:B076H         LINE#         1332
  C:B07CH         LINE#         1334
  C:B07CH         LINE#         1335
BL51 BANKED LINKER/LOCATER V6.22.2.0                                                  06/08/2021  15:03:37  PAGE 118


  C:B081H         LINE#         1336
  -------         ENDPROC       _RESPONDE_WRITE_TARJETA_SECTOR1_BLOQUE2
  -------         PROC          _RESPONDE_WRITE_TARJETA_SECTOR1_BLOQUE0
  X:0002H         SYMBOL        Buffer_Write_MF
  C:BCAFH         LINE#         1339
  C:BCBAH         LINE#         1340
  C:BCBAH         LINE#         1342
  C:BCC3H         LINE#         1343
  C:BCCCH         LINE#         1344
  C:BCE2H         LINE#         1346
  C:BCE4H         LINE#         1347
  -------         ENDPROC       _RESPONDE_WRITE_TARJETA_SECTOR1_BLOQUE0
  -------         PROC          _RESPONDE_WRITE_TARJETA_SECTOR2_BLOQUE0
  X:0002H         SYMBOL        Buffer_Write_MF
  C:B644H         LINE#         1350
  C:B64FH         LINE#         1351
  C:B64FH         LINE#         1353
  C:B658H         LINE#         1354
  C:B661H         LINE#         1355
  C:B66AH         LINE#         1356
  C:B673H         LINE#         1357
  C:B688H         LINE#         1358
  C:B68AH         LINE#         1359
  -------         ENDPROC       _RESPONDE_WRITE_TARJETA_SECTOR2_BLOQUE0
  -------         PROC          _PREGUNTA_LPR
  X:0002H         SYMBOL        Atributos_Expedidor
  -------         DO            
  D:0007H         SYMBOL        Estado_expedidor
  -------         ENDDO         
  C:B3E8H         LINE#         1363
  C:B3F3H         LINE#         1364
  C:B3F3H         LINE#         1366
  C:B3FCH         LINE#         1367
  C:B40AH         LINE#         1368
  C:B418H         LINE#         1369
  C:B418H         LINE#         1371
  C:B429H         LINE#         1372
  C:B435H         LINE#         1373
  C:B435H         LINE#         1374
  C:B439H         LINE#         1375
  C:B439H         LINE#         1376
  C:B439H         LINE#         1379
  C:B43BH         LINE#         1381
  C:B43BH         LINE#         1382
  -------         ENDPROC       _PREGUNTA_LPR
  -------         PROC          PREGUNTA_PLACA
  -------         DO            
  X:0002H         SYMBOL        Estado_expedidor
  -------         ENDDO         
  C:BDB2H         LINE#         1384
  C:BDB2H         LINE#         1385
  C:BDB2H         LINE#         1387
  C:BDBBH         LINE#         1388
  C:BDCAH         LINE#         1389
  C:BDCAH         LINE#         1391
  C:BDCDH         LINE#         1392
  C:BDD2H         LINE#         1393
BL51 BANKED LINKER/LOCATER V6.22.2.0                                                  06/08/2021  15:03:37  PAGE 119


  C:BDD7H         LINE#         1394
  C:BDD9H         LINE#         1396
  C:BDD9H         LINE#         1397
  C:BDDCH         LINE#         1398
  C:BDDCH         LINE#         1399
  C:BDE1H         LINE#         1400
  -------         ENDPROC       PREGUNTA_PLACA
  -------         PROC          _RESPUESTA_SEGUNDA_CLAVE
  X:0002H         SYMBOL        Atributos_Expedidor
  X:0005H         SYMBOL        Buffer_Write_MF
  C:B27EH         LINE#         1401
  C:B289H         LINE#         1402
  C:B289H         LINE#         1404
  C:B292H         LINE#         1405
  C:B2A8H         LINE#         1408
  C:B2B8H         LINE#         1409
  C:B2CAH         LINE#         1410
  C:B2D8H         LINE#         1412
  C:B2DAH         LINE#         1413
  -------         ENDPROC       _RESPUESTA_SEGUNDA_CLAVE
  -------         PROC          _RESPUESTA_PLACA_CANCEL
  X:0009H         SYMBOL        Atributos_Expedidor
  X:000CH         SYMBOL        Buffer_Write_MF
  -------         DO            
  X:000FH         SYMBOL        Estado_expedidor
  X:0010H         SYMBOL        Cancel
  -------         ENDDO         
  C:9F14H         LINE#         1414
  C:9F1FH         LINE#         1415
  C:9F1FH         LINE#         1417
  C:9F2DH         LINE#         1418
  C:9F36H         LINE#         1419
  C:9F3FH         LINE#         1420
  C:9F48H         LINE#         1422
  C:9F63H         LINE#         1423
  C:9F63H         LINE#         1424
  C:9F73H         LINE#         1425
  C:9F86H         LINE#         1426
  C:9F94H         LINE#         1427
  C:9F9AH         LINE#         1428
  C:9F9CH         LINE#         1430
  C:9F9CH         LINE#         1431
  C:9FA2H         LINE#         1432
  C:9FA2H         LINE#         1433
  C:9FA5H         LINE#         1434
  C:9FA7H         LINE#         1436
  C:9FA7H         LINE#         1438
  C:9FAAH         LINE#         1439
  C:9FAAH         LINE#         1440
  C:9FAAH         LINE#         1441
  C:9FAFH         LINE#         1442
  -------         ENDPROC       _RESPUESTA_PLACA_CANCEL
  -------         PROC          _ARMAR_TRAMA_TARJETA_SECTOR1_BLOQUE1_CAMCEL
  X:0013H         SYMBOL        Buffer_Write_MF
  -------         DO            
  X:0016H         SYMBOL        ID_CLIENTE
  D:0007H         SYMBOL        COD_PARK
BL51 BANKED LINKER/LOCATER V6.22.2.0                                                  06/08/2021  15:03:37  PAGE 120


  -------         ENDDO         
  C:9D32H         LINE#         1445
  C:9D3DH         LINE#         1446
  C:9D3DH         LINE#         1450
  C:9D40H         LINE#         1451
  C:9D4DH         LINE#         1452
  C:9D56H         LINE#         1454
  C:9D66H         LINE#         1455
  C:9D78H         LINE#         1456
  C:9D7FH         LINE#         1457
  C:9D89H         LINE#         1458
  C:9D90H         LINE#         1459
  C:9D97H         LINE#         1460
  C:9D9EH         LINE#         1461
  C:9DA5H         LINE#         1462
  C:9DACH         LINE#         1463
  C:9DB3H         LINE#         1464
  C:9DBAH         LINE#         1465
  C:9DC1H         LINE#         1466
  C:9DC8H         LINE#         1467
  C:9DCFH         LINE#         1468
  -------         ENDPROC       _ARMAR_TRAMA_TARJETA_SECTOR1_BLOQUE1_CAMCEL
  -------         PROC          _ARMAR_TRAMA_TARJETA_SECTOR1_BLOQUE2
  X:0010H         SYMBOL        Atributos_Expedidor
  X:0013H         SYMBOL        Buffer_Write_MF
  C:5CA6H         LINE#         1474
  C:5CB1H         LINE#         1475
  C:5CB1H         LINE#         1480
  C:5CD5H         LINE#         1481
  C:5CFCH         LINE#         1482
  C:5D23H         LINE#         1483
  C:5D4AH         LINE#         1484
  C:5D71H         LINE#         1487
  C:5D78H         LINE#         1488
  C:5D7FH         LINE#         1489
  C:5D86H         LINE#         1491
  C:5D9BH         LINE#         1492
  C:5D9BH         LINE#         1493
  C:5DB2H         LINE#         1494
  C:5DCBH         LINE#         1495
  C:5DCBH         LINE#         1496
  C:5DCEH         LINE#         1500
  C:5DCEH         LINE#         1502
  C:5DFDH         LINE#         1503
  C:5E2CH         LINE#         1505
  C:5E44H         LINE#         1506
  C:5E44H         LINE#         1507
  C:5E51H         LINE#         1508
  C:5E53H         LINE#         1510
  C:5E53H         LINE#         1511
  C:5E63H         LINE#         1512
  C:5E63H         LINE#         1513
  C:5E63H         LINE#         1515
  C:5E75H         LINE#         1516
  C:5E7CH         LINE#         1517
  C:5E83H         LINE#         1518
  C:5E8AH         LINE#         1519
BL51 BANKED LINKER/LOCATER V6.22.2.0                                                  06/08/2021  15:03:37  PAGE 121


  -------         ENDPROC       _ARMAR_TRAMA_TARJETA_SECTOR1_BLOQUE2
  -------         PROC          _ARMAR_TRAMA_TARJETA_SECTOR1_BLOQUE0
  X:000CH         SYMBOL        Buffer_Write_MF
  C:BE8AH         LINE#         1521
  C:BE95H         LINE#         1522
  C:BE95H         LINE#         1524
  -------         ENDPROC       _ARMAR_TRAMA_TARJETA_SECTOR1_BLOQUE0
  -------         PROC          _ARMAR_TRAMA_PTO_PARALELO_EXPEDIDOR
  X:0009H         SYMBOL        Atributos_Expedidor
  X:000CH         SYMBOL        longitud_trama_pto_paralelo
  -------         DO            
  X:00BCH         SYMBOL        buffer
  X:000FH         SYMBOL        ticket
  X:001AH         SYMBOL        j
  -------         ENDDO         
  C:522DH         LINE#         1526
  C:5238H         LINE#         1527
  C:5238H         LINE#         1534
  C:523EH         LINE#         1535
  C:5242H         LINE#         1536
  C:5245H         LINE#         1537
  C:5251H         LINE#         1538
  C:5268H         LINE#         1539
  C:5276H         LINE#         1541
  C:5287H         LINE#         1543
  C:52B3H         LINE#         1544
  C:52DFH         LINE#         1545
  C:530BH         LINE#         1546
  C:5337H         LINE#         1547
  C:5363H         LINE#         1548
  C:5377H         LINE#         1558
  C:5386H         LINE#         1559
  C:5386H         LINE#         1560
  C:538CH         LINE#         1561
  C:538CH         LINE#         1562
  C:53A3H         LINE#         1563
  C:53B9H         LINE#         1564
  C:53CFH         LINE#         1565
  C:53E5H         LINE#         1566
  C:53FBH         LINE#         1567
  C:5410H         LINE#         1568
  C:5410H         LINE#         1569
  C:5412H         LINE#         1571
  C:5412H         LINE#         1572
  C:5425H         LINE#         1573
  C:5425H         LINE#         1574
  C:5425H         LINE#         1575
  C:5427H         LINE#         1577
  C:5427H         LINE#         1578
  C:543BH         LINE#         1579
  C:544EH         LINE#         1580
  C:544EH         LINE#         1581
  C:545CH         LINE#         1582
  C:546AH         LINE#         1583
  C:547CH         LINE#         1585
  C:5482H         LINE#         1586
  -------         ENDPROC       _ARMAR_TRAMA_PTO_PARALELO_EXPEDIDOR
BL51 BANKED LINKER/LOCATER V6.22.2.0                                                  06/08/2021  15:03:37  PAGE 122


  -------         PROC          _ARMAR_TRAMA_PTO_PARALELO_EXPEDIDOR_MENSUAL
  X:0009H         SYMBOL        Atributos_Expedidor
  X:000CH         SYMBOL        longitud_trama_pto_paralelo
  -------         DO            
  X:00D8H         SYMBOL        buffer
  -------         ENDDO         
  C:71A1H         LINE#         1587
  C:71ACH         LINE#         1588
  C:71ACH         LINE#         1594
  C:71B2H         LINE#         1595
  C:71B6H         LINE#         1596
  C:71CBH         LINE#         1597
  C:71D5H         LINE#         1598
  C:71DFH         LINE#         1599
  C:71E9H         LINE#         1603
  C:71FAH         LINE#         1604
  C:7216H         LINE#         1605
  C:7232H         LINE#         1606
  C:724EH         LINE#         1607
  C:726AH         LINE#         1617
  C:7276H         LINE#         1618
  C:7276H         LINE#         1620
  C:727DH         LINE#         1621
  C:7281H         LINE#         1622
  C:7285H         LINE#         1623
  C:7289H         LINE#         1624
  C:728DH         LINE#         1625
  C:7291H         LINE#         1627
  C:7291H         LINE#         1629
  C:72A7H         LINE#         1630
  C:72A7H         LINE#         1631
  C:72AAH         LINE#         1632
  C:72ACH         LINE#         1634
  C:72ACH         LINE#         1635
  C:72AFH         LINE#         1636
  C:72AFH         LINE#         1638
  C:72B5H         LINE#         1639
  C:72B8H         LINE#         1640
  C:72C8H         LINE#         1641
  C:72CEH         LINE#         1642
  -------         ENDPROC       _ARMAR_TRAMA_PTO_PARALELO_EXPEDIDOR_MENSUAL
  -------         PROC          _ARMAR_TRAMA_MONITOR
  X:0005H         SYMBOL        Atributos_Expedidor
  -------         DO            
  X:00F4H         SYMBOL        buffer
  X:0008H         SYMBOL        ticket
  X:0013H         SYMBOL        j
  -------         ENDDO         
  C:4F8AH         LINE#         1643
  C:4F95H         LINE#         1644
  C:4F95H         LINE#         1650
  C:4F9AH         LINE#         1651
  C:4FA0H         LINE#         1652
  C:4FA8H         LINE#         1653
  C:4FACH         LINE#         1654
  C:4FB5H         LINE#         1655
  C:4FB5H         LINE#         1656
BL51 BANKED LINKER/LOCATER V6.22.2.0                                                  06/08/2021  15:03:37  PAGE 123


  C:4FB8H         LINE#         1657
  C:4FBAH         LINE#         1659
  C:4FBAH         LINE#         1660
  C:4FBDH         LINE#         1661
  C:4FBDH         LINE#         1664
  C:4FC0H         LINE#         1665
  C:4FC0H         LINE#         1666
  C:4FC5H         LINE#         1667
  C:4FD1H         LINE#         1668
  C:4FE8H         LINE#         1669
  C:4FEBH         LINE#         1671
  C:4FEBH         LINE#         1672
  C:5006H         LINE#         1673
  C:5014H         LINE#         1674
  C:5022H         LINE#         1675
  C:502EH         LINE#         1676
  C:503CH         LINE#         1677
  C:5075H         LINE#         1679
  C:5075H         LINE#         1680
  C:5083H         LINE#         1681
  C:5094H         LINE#         1684
  C:50C0H         LINE#         1685
  C:50DEH         LINE#         1688
  C:50FFH         LINE#         1689
  C:511DH         LINE#         1692
  C:513EH         LINE#         1693
  C:515CH         LINE#         1696
  C:517DH         LINE#         1697
  C:519BH         LINE#         1700
  C:51BCH         LINE#         1701
  C:51DAH         LINE#         1702
  C:51EDH         LINE#         1705
  C:51FBH         LINE#         1707
  C:5209H         LINE#         1708
  C:5216H         LINE#         1709
  C:5222H         LINE#         1710
  C:5227H         LINE#         1711
  C:522CH         LINE#         1712
  -------         ENDPROC       _ARMAR_TRAMA_MONITOR
  -------         PROC          _ARMAR_TRAMA_PLACA
  X:0008H         SYMBOL        Buffer_Write_MF
  -------         DO            
  D:0006H         SYMBOL        j
  D:0007H         SYMBOL        len_placa
  -------         ENDDO         
  C:B2DBH         LINE#         1713
  C:B2E6H         LINE#         1714
  C:B2E6H         LINE#         1717
  C:B2EFH         LINE#         1718
  C:B2F6H         LINE#         1719
  C:B2F6H         LINE#         1720
  C:B310H         LINE#         1721
  C:B313H         LINE#         1722
  C:B31FH         LINE#         1723
  C:B31FH         LINE#         1724
  C:B333H         LINE#         1725
  C:B336H         LINE#         1726
BL51 BANKED LINKER/LOCATER V6.22.2.0                                                  06/08/2021  15:03:37  PAGE 124


  -------         ENDPROC       _ARMAR_TRAMA_PLACA
  C:BADFH         SYMBOL        L?0402
  -------         PROC          L?0401
  -------         ENDPROC       L?0401
  C:BADFH         SYMBOL        L?0402
  -------         PROC          _LOAD_SECUENCIA_EXPEDIDOR
  D:0001H         SYMBOL        Secuencia_Expedidor
  D:0004H         SYMBOL        estadoactivo
  X:0007H         SYMBOL        estadoactual
  X:0009H         SYMBOL        estadofuturo
  C:BAFBH         LINE#         1727
  C:BAFBH         LINE#         1728
  C:BAFBH         LINE#         1729
  C:BB02H         LINE#         1730
  C:BB0AH         LINE#         1731
  C:BB15H         LINE#         1732
  C:BB1BH         LINE#         1733
  -------         ENDPROC       _LOAD_SECUENCIA_EXPEDIDOR
  -------         PROC          _DISPARO_LOCK_ENTRADA_VEHICULO
  X:0002H         SYMBOL        Nombre_Mensual
  -------         DO            
  X:0005H         SYMBOL        Estado_expedidor
  X:010CH         SYMBOL        take_card
  -------         ENDDO         
  C:A4F0H         LINE#         1734
  C:A4FBH         LINE#         1735
  C:A4FBH         LINE#         1740
  C:A504H         LINE#         1744
  C:A50BH         LINE#         1745
  C:A50BH         LINE#         1747
  C:A514H         LINE#         1749
  C:A51AH         LINE#         1750
  C:A51CH         LINE#         1751
  C:A521H         LINE#         1752
  C:A531H         LINE#         1753
  C:A537H         LINE#         1756
  C:A539H         LINE#         1757
  C:A541H         LINE#         1758
  C:A541H         LINE#         1759
  C:A547H         LINE#         1760
  C:A547H         LINE#         1761
  C:A554H         LINE#         1762
  C:A559H         LINE#         1763
  C:A55EH         LINE#         1764
  C:A560H         LINE#         1766
  C:A560H         LINE#         1767
  C:A566H         LINE#         1769
  C:A566H         LINE#         1771
  C:A56CH         LINE#         1772
  C:A572H         LINE#         1774
  C:A574H         LINE#         1776
  C:A574H         LINE#         1777
  C:A57AH         LINE#         1778
  C:A57AH         LINE#         1780
  C:A57AH         LINE#         1785
  C:A57FH         LINE#         1786
  -------         ENDPROC       _DISPARO_LOCK_ENTRADA_VEHICULO
BL51 BANKED LINKER/LOCATER V6.22.2.0                                                  06/08/2021  15:03:37  PAGE 125


  -------         PROC          _SEND_PTO_PARALELO
  X:0002H         SYMBOL        Atributos_Expedidor
  -------         DO            
  X:0005H         SYMBOL        Trama_Expedidor
  X:0008H         SYMBOL        leng_trama_pto
  -------         ENDDO         
  C:9C8DH         LINE#         1787
  C:9C98H         LINE#         1788
  C:9C98H         LINE#         1791
  C:9C9BH         LINE#         1792
  C:9C9BH         LINE#         1793
  C:9CC2H         LINE#         1794
  C:9CC4H         LINE#         1796
  C:9CC4H         LINE#         1797
  C:9CEBH         LINE#         1798
  C:9CEEH         LINE#         1799
  C:9CEEH         LINE#         1801
  C:9CFFH         LINE#         1802
  C:9D08H         LINE#         1803
  C:9D1FH         LINE#         1807
  C:9D22H         LINE#         1808
  C:9D28H         LINE#         1809
  C:9D2DH         LINE#         1810
  C:9D2FH         LINE#         1811
  C:9D31H         LINE#         1812
  -------         ENDPROC       _SEND_PTO_PARALELO
  -------         PROC          ENTREGA_CARD_CAPTURA
  -------         DO            
  X:0002H         SYMBOL        Estado_expedidor
  -------         ENDDO         
  C:A580H         LINE#         1816
  C:A580H         LINE#         1817
  C:A580H         LINE#         1821
  C:A589H         LINE#         1822
  C:A58CH         LINE#         1823
  C:A58FH         LINE#         1824
  C:A58FH         LINE#         1825
  C:A599H         LINE#         1826
  C:A599H         LINE#         1827
  C:A59BH         LINE#         1828
  C:A59DH         LINE#         1829
  C:A5A6H         LINE#         1830
  C:A5A6H         LINE#         1831
  C:A5A6H         LINE#         1833
  C:A5A8H         LINE#         1835
  C:A5A8H         LINE#         1836
  C:A5AEH         LINE#         1837
  C:A5AEH         LINE#         1839
  C:A5B4H         LINE#         1841
  C:A5C7H         LINE#         1842
  C:A5C7H         LINE#         1843
  C:A5D4H         LINE#         1844
  C:A5D4H         LINE#         1845
  C:A5D6H         LINE#         1846
  C:A5DFH         LINE#         1848
  C:A5E1H         LINE#         1849
  C:A5E1H         LINE#         1850
BL51 BANKED LINKER/LOCATER V6.22.2.0                                                  06/08/2021  15:03:37  PAGE 126


  C:A5E3H         LINE#         1851
  C:A5F0H         LINE#         1852
  C:A5F0H         LINE#         1853
  C:A5F6H         LINE#         1854
  C:A5F6H         LINE#         1855
  C:A5F6H         LINE#         1857
  C:A5F8H         LINE#         1859
  C:A5F8H         LINE#         1860
  C:A5FAH         LINE#         1861
  C:A603H         LINE#         1862
  C:A605H         LINE#         1863
  C:A60AH         LINE#         1864
  C:A60AH         LINE#         1865
  C:A60AH         LINE#         1867
  C:A60FH         LINE#         1868
  -------         ENDPROC       ENTREGA_CARD_CAPTURA
  -------         PROC          _WAIT_PLACA
  X:0002H         SYMBOL        Atributos_Expedidor
  X:0005H         SYMBOL        Buffer_Write_MF
  -------         DO            
  X:0008H         SYMBOL        Estado_expedidor
  -------         ENDDO         
  C:97D0H         LINE#         1869
  C:97DBH         LINE#         1870
  C:97DBH         LINE#         1873
  C:97E4H         LINE#         1875
  C:97FAH         LINE#         1876
  C:97FAH         LINE#         1877
  C:97FDH         LINE#         1878
  C:97FDH         LINE#         1880
  C:9800H         LINE#         1881
  C:9800H         LINE#         1882
  C:9802H         LINE#         1884
  C:9805H         LINE#         1885
  C:9805H         LINE#         1886
  C:982DH         LINE#         1887
  C:982FH         LINE#         1890
  C:982FH         LINE#         1891
  C:9835H         LINE#         1892
  C:9848H         LINE#         1893
  C:9848H         LINE#         1894
  C:9855H         LINE#         1895
  C:9855H         LINE#         1896
  C:9864H         LINE#         1897
  C:986AH         LINE#         1898
  C:986CH         LINE#         1899
  C:9879H         LINE#         1900
  C:9879H         LINE#         1901
  C:987FH         LINE#         1902
  C:987FH         LINE#         1903
  C:987FH         LINE#         1904
  C:987FH         LINE#         1905
  C:9884H         LINE#         1906
  -------         ENDPROC       _WAIT_PLACA
  -------         PROC          _VALIDA_VEHICULO_CARD_MENSUAL
  X:0010H         SYMBOL        Atributos_Expedidor
  -------         DO            
BL51 BANKED LINKER/LOCATER V6.22.2.0                                                  06/08/2021  15:03:37  PAGE 127


  X:0013H         SYMBOL        Estado_expedidor
  -------         ENDDO         
  C:A216H         LINE#         1907
  C:A221H         LINE#         1908
  C:A221H         LINE#         1911
  C:A22AH         LINE#         1912
  C:A23FH         LINE#         1913
  C:A23FH         LINE#         1914
  C:A243H         LINE#         1915
  C:A245H         LINE#         1917
  C:A245H         LINE#         1918
  C:A24CH         LINE#         1919
  C:A24CH         LINE#         1921
  C:A255H         LINE#         1922
  C:A263H         LINE#         1923
  C:A263H         LINE#         1924
  C:A27CH         LINE#         1925
  C:A27CH         LINE#         1926
  C:A282H         LINE#         1927
  C:A282H         LINE#         1928
  C:A284H         LINE#         1931
  C:A284H         LINE#         1932
  C:A289H         LINE#         1933
  C:A292H         LINE#         1934
  C:A297H         LINE#         1935
  C:A297H         LINE#         1936
  C:A299H         LINE#         1938
  C:A299H         LINE#         1939
  C:A2A2H         LINE#         1940
  C:A2A8H         LINE#         1941
  C:A2A8H         LINE#         1942
  C:A2ADH         LINE#         1943
  -------         ENDPROC       _VALIDA_VEHICULO_CARD_MENSUAL
  -------         PROC          _TARJETA_MENSUAL
  X:0009H         SYMBOL        Atributos_Expedidor
  X:000CH         SYMBOL        Buffer_Write_MF
  -------         DO            
  X:000FH         SYMBOL        Estado_expedidor
  -------         ENDDO         
  C:9064H         LINE#         1944
  C:906FH         LINE#         1945
  C:906FH         LINE#         1950
  C:907AH         LINE#         1951
  C:907AH         LINE#         1952
  C:9098H         LINE#         1953
  C:9098H         LINE#         1955
  C:90A9H         LINE#         1956
  C:90A9H         LINE#         1957
  C:90B1H         LINE#         1958
  C:90B3H         LINE#         1960
  C:90B3H         LINE#         1961
  C:90BCH         LINE#         1962
  C:90CCH         LINE#         1963
  C:90DFH         LINE#         1964
  C:90FFH         LINE#         1965
  C:9105H         LINE#         1966
  C:9105H         LINE#         1967
BL51 BANKED LINKER/LOCATER V6.22.2.0                                                  06/08/2021  15:03:37  PAGE 128


  C:9107H         LINE#         1969
  C:9107H         LINE#         1970
  C:910CH         LINE#         1972
  C:9111H         LINE#         1973
  C:911AH         LINE#         1974
  C:911AH         LINE#         1975
  C:911AH         LINE#         1976
  C:911CH         LINE#         1978
  C:911CH         LINE#         1980
  C:9122H         LINE#         1981
  C:9122H         LINE#         1982
  C:9127H         LINE#         1983
  -------         ENDPROC       _TARJETA_MENSUAL
  -------         PROC          _TARJETA_ROTACION
  D:0001H         SYMBOL        Atributos_Expedidor
  X:000CH         SYMBOL        Buffer_Write_MF
  C:BD81H         LINE#         1984
  C:BD81H         LINE#         1985
  C:BD81H         LINE#         1986
  C:BD86H         LINE#         1987
  C:BD8FH         LINE#         1988
  C:BDAFH         LINE#         1989
  C:BDB1H         LINE#         1992
  -------         ENDPROC       _TARJETA_ROTACION
  -------         PROC          _VALIDA_TIPO_TARJETA
  X:0002H         SYMBOL        Atributos_Expedidor
  X:0005H         SYMBOL        Buffer_Write_MF
  -------         DO            
  X:0008H         SYMBOL        Estado_expedidor
  -------         ENDDO         
  C:63FBH         LINE#         1993
  C:6406H         LINE#         1994
  C:6406H         LINE#         1996
  C:6413H         LINE#         1997
  C:6413H         LINE#         1998
  C:641CH         LINE#         1999
  C:6422H         LINE#         2000
  C:6422H         LINE#         2004
  C:6430H         LINE#         2005
  C:6430H         LINE#         2008
  C:644DH         LINE#         2009
  C:644DH         LINE#         2010
  C:646AH         LINE#         2012
  C:646CH         LINE#         2014
  C:646CH         LINE#         2015
  C:6475H         LINE#         2016
  C:6477H         LINE#         2017
  C:6477H         LINE#         2018
  C:6477H         LINE#         2019
  C:647AH         LINE#         2022
  C:647AH         LINE#         2023
  C:6483H         LINE#         2025
  C:64A6H         LINE#         2026
  C:64A6H         LINE#         2027
  C:64A9H         LINE#         2029
  C:64A9H         LINE#         2030
  C:64AEH         LINE#         2031
BL51 BANKED LINKER/LOCATER V6.22.2.0                                                  06/08/2021  15:03:37  PAGE 129


  C:64B3H         LINE#         2032
  C:64B6H         LINE#         2033
  C:64B6H         LINE#         2034
  C:64B9H         LINE#         2035
  C:64D1H         LINE#         2036
  C:64D1H         LINE#         2038
  C:64DAH         LINE#         2039
  C:64E0H         LINE#         2040
  C:64E0H         LINE#         2041
  C:64ECH         LINE#         2042
  C:64ECH         LINE#         2043
  C:6509H         LINE#         2045
  C:6509H         LINE#         2046
  C:6529H         LINE#         2047
  C:652BH         LINE#         2049
  C:652BH         LINE#         2050
  C:6534H         LINE#         2051
  C:6539H         LINE#         2052
  C:653EH         LINE#         2053
  C:6541H         LINE#         2054
  C:6541H         LINE#         2055
  C:6543H         LINE#         2057
  C:6543H         LINE#         2058
  C:654CH         LINE#         2059
  C:656FH         LINE#         2060
  C:656FH         LINE#         2061
  C:6571H         LINE#         2063
  C:6571H         LINE#         2065
  C:6576H         LINE#         2066
  C:657BH         LINE#         2067
  C:6581H         LINE#         2068
  C:6581H         LINE#         2069
  C:6583H         LINE#         2071
  C:6583H         LINE#         2072
  C:658CH         LINE#         2073
  C:6591H         LINE#         2075
  C:6599H         LINE#         2076
  C:6599H         LINE#         2078
  C:659EH         LINE#         2079
  -------         ENDPROC       _VALIDA_TIPO_TARJETA
  -------         PROC          _HORARIOS
  X:0010H         SYMBOL        Atributos_Expedidor
  -------         DO            
  X:0013H         SYMBOL        Estado_Horario
  X:0014H         SYMBOL        Addr_horarios
  X:001FH         SYMBOL        dia_semana
  X:0020H         SYMBOL        EE_dia_semana
  X:0021H         SYMBOL        addr
  -------         ENDDO         
  C:7993H         LINE#         2173
  C:799EH         LINE#         2174
  C:799EH         LINE#         2180
  C:79A9H         LINE#         2181
  C:79A9H         LINE#         2183
  C:79B5H         LINE#         2185
  C:79DBH         LINE#         2189
  C:79EEH         LINE#         2190
BL51 BANKED LINKER/LOCATER V6.22.2.0                                                  06/08/2021  15:03:37  PAGE 130


  C:79EEH         LINE#         2192
  C:79F8H         LINE#         2193
  C:7A01H         LINE#         2194
  C:7A09H         LINE#         2195
  C:7A12H         LINE#         2198
  C:7A37H         LINE#         2199
  C:7A40H         LINE#         2200
  C:7A48H         LINE#         2201
  C:7A51H         LINE#         2203
  C:7A5BH         LINE#         2204
  C:7A5BH         LINE#         2206
  C:7A69H         LINE#         2207
  C:7A6BH         LINE#         2209
  C:7A6BH         LINE#         2211
  C:7A74H         LINE#         2212
  C:7A79H         LINE#         2213
  C:7A79H         LINE#         2214
  C:7A7BH         LINE#         2216
  C:7A7BH         LINE#         2218
  C:7A80H         LINE#         2219
  C:7A85H         LINE#         2220
  C:7A8BH         LINE#         2222
  C:7A8BH         LINE#         2224
  C:7A8DH         LINE#         2226
  C:7A8DH         LINE#         2227
  C:7A93H         LINE#         2229
  C:7A9CH         LINE#         2230
  C:7A9CH         LINE#         2231
  C:7AA1H         LINE#         2232
  -------         ENDPROC       _HORARIOS
  -------         PROC          _HORA_MAXIMA
  X:002FH         SYMBOL        addr
  -------         DO            
  X:0031H         SYMBOL        Hora_High
  X:0032H         SYMBOL        Minuto_High
  X:0033H         SYMBOL        HoraIni
  X:0034H         SYMBOL        MinutoIni
  X:0035H         SYMBOL        Hora_Prog
  -------         ENDDO         
  C:99E8H         LINE#         2233
  C:99F0H         LINE#         2234
  C:99F0H         LINE#         2239
  C:9A05H         LINE#         2240
  C:9A25H         LINE#         2241
  C:9A42H         LINE#         2242
  C:9A62H         LINE#         2243
  C:9A6AH         LINE#         2244
  C:9A72H         LINE#         2245
  C:9A7BH         LINE#         2247
  C:9A93H         LINE#         2248
  -------         ENDPROC       _HORA_MAXIMA
  -------         PROC          _EN_HORARIO
  X:002AH         SYMBOL        HoraNow
  D:0004H         SYMBOL        Hora_Prog
  X:002CH         SYMBOL        addr
  -------         DO            
  X:002EH         SYMBOL        Estado_Horario
BL51 BANKED LINKER/LOCATER V6.22.2.0                                                  06/08/2021  15:03:37  PAGE 131


  -------         ENDDO         
  C:AF36H         LINE#         2249
  C:AF44H         LINE#         2250
  C:AF44H         LINE#         2253
  C:AF51H         LINE#         2254
  C:AF51H         LINE#         2257
  C:AF5AH         LINE#         2258
  C:AF6FH         LINE#         2261
  C:AF7EH         LINE#         2262
  C:AF7EH         LINE#         2264
  C:AF85H         LINE#         2265
  C:AF8BH         LINE#         2266
  C:AF8DH         LINE#         2268
  C:AF8DH         LINE#         2271
  C:AF91H         LINE#         2272
  C:AF91H         LINE#         2273
  C:AF91H         LINE#         2275
  C:AF93H         LINE#         2277
  C:AF93H         LINE#         2280
  C:AF9CH         LINE#         2281
  C:AFA1H         LINE#         2283
  C:AFA1H         LINE#         2284
  C:AFA6H         LINE#         2285
  -------         ENDPROC       _EN_HORARIO
  -------         PROC          _BLOQUE_HORARIO
  X:0023H         SYMBOL        addr
  -------         DO            
  X:0025H         SYMBOL        Estado_Horario
  X:0026H         SYMBOL        HoraNow
  X:0028H         SYMBOL        Hora_Prog
  -------         ENDDO         
  C:8392H         LINE#         2287
  C:839AH         LINE#         2288
  C:839AH         LINE#         2294
  C:83A3H         LINE#         2295
  C:83ABH         LINE#         2296
  C:83B3H         LINE#         2297
  C:83BCH         LINE#         2298
  C:83E3H         LINE#         2303
  C:83ECH         LINE#         2304
  C:8401H         LINE#         2305
  C:8419H         LINE#         2306
  C:841BH         LINE#         2307
  C:841BH         LINE#         2310
  C:8433H         LINE#         2311
  C:8433H         LINE#         2312
  C:843CH         LINE#         2313
  C:8457H         LINE#         2314
  C:8475H         LINE#         2315
  C:8477H         LINE#         2317
  C:8477H         LINE#         2318
  C:847CH         LINE#         2319
  C:8481H         LINE#         2320
  C:8486H         LINE#         2321
  C:8486H         LINE#         2322
  C:8486H         LINE#         2324
  C:848DH         LINE#         2325
BL51 BANKED LINKER/LOCATER V6.22.2.0                                                  06/08/2021  15:03:37  PAGE 132


  -------         ENDPROC       _BLOQUE_HORARIO
  -------         PROC          SECUENCIA_INICIO_EXPEDIDOR
  -------         DO            
  X:0001H         SYMBOL        temp
  -------         ENDDO         
  C:6DF0H         LINE#         2334
  C:6DF0H         LINE#         2335
  C:6DF0H         LINE#         2337
  C:6E10H         LINE#         2338
  C:6E10H         LINE#         2339
  C:6E10H         LINE#         2342
  C:6E15H         LINE#         2343
  C:6E1BH         LINE#         2346
  C:6E1DH         LINE#         2347
  C:6E1DH         LINE#         2358
  C:6E1DH         LINE#         2360
  C:6E2BH         LINE#         2361
  C:6E2BH         LINE#         2362
  C:6E37H         LINE#         2363
  C:6E37H         LINE#         2364
  C:6E3DH         LINE#         2365
  C:6E40H         LINE#         2366
  C:6E48H         LINE#         2367
  C:6E48H         LINE#         2368
  C:6E4FH         LINE#         2369
  C:6E63H         LINE#         2370
  C:6E63H         LINE#         2371
  C:6E65H         LINE#         2373
  C:6E65H         LINE#         2374
  C:6E6CH         LINE#         2375
  C:6E72H         LINE#         2376
  C:6E72H         LINE#         2377
  C:6E75H         LINE#         2379
  C:6E75H         LINE#         2380
  C:6E7EH         LINE#         2381
  C:6E92H         LINE#         2382
  C:6E98H         LINE#         2383
  C:6E98H         LINE#         2384
  C:6E9BH         LINE#         2385
  C:6E9BH         LINE#         2391
  C:6E9BH         LINE#         2393
  C:6E9EH         LINE#         2394
  C:6EA4H         LINE#         2398
  C:6EA6H         LINE#         2399
  C:6EA6H         LINE#         2409
  C:6EA6H         LINE#         2411
  C:6EB4H         LINE#         2412
  C:6EB4H         LINE#         2413
  C:6EC0H         LINE#         2414
  C:6EC0H         LINE#         2415
  C:6EC6H         LINE#         2416
  C:6EC8H         LINE#         2417
  C:6ED0H         LINE#         2418
  C:6ED0H         LINE#         2419
  C:6ED7H         LINE#         2420
  C:6EEBH         LINE#         2421
  C:6EEBH         LINE#         2422
BL51 BANKED LINKER/LOCATER V6.22.2.0                                                  06/08/2021  15:03:37  PAGE 133


  C:6EEDH         LINE#         2424
  C:6EEDH         LINE#         2425
  C:6EF4H         LINE#         2426
  C:6EFAH         LINE#         2427
  C:6EFAH         LINE#         2428
  C:6EFCH         LINE#         2430
  C:6EFCH         LINE#         2431
  C:6F05H         LINE#         2432
  C:6F19H         LINE#         2433
  C:6F1EH         LINE#         2434
  C:6F1EH         LINE#         2436
  C:6F20H         LINE#         2437
  C:6F20H         LINE#         2443
  C:6F20H         LINE#         2445
  C:6F26H         LINE#         2446
  C:6F26H         LINE#         2449
  C:6F26H         LINE#         2450
  C:6F2DH         LINE#         2451
  C:6F2DH         LINE#         2452
  C:6F2DH         LINE#         2453
  -------         ENDPROC       SECUENCIA_INICIO_EXPEDIDOR
  -------         PROC          _SECUENCIAEXPEDIDORMF
  X:0001H         SYMBOL        EstadoActivo
  -------         DO            
  X:010DH         SYMBOL        Buffer_Write_MF
  X:011EH         SYMBOL        Atributos_Expedidor
  X:0132H         SYMBOL        Secuencia_Expedidor
  X:0136H         SYMBOL        Nombre_Mensual
  -------         ENDDO         
  C:3AA5H         LINE#         2463
  C:3AAAH         LINE#         2464
  C:3AAAH         LINE#         2470
  C:3B0DH         LINE#         2471
  C:3B0DH         LINE#         2474
  C:3B0DH         LINE#         2476
  C:3B1DH         LINE#         2477
  C:3B1DH         LINE#         2480
  C:3B1FH         LINE#         2481
  C:3B21H         LINE#         2482
  C:3B26H         LINE#         2483
  C:3B2EH         LINE#         2484
  C:3B33H         LINE#         2485
  C:3B36H         LINE#         2486
  C:3B36H         LINE#         2487
  C:3B3CH         LINE#         2488
  C:3B3CH         LINE#         2489
  C:3B3FH         LINE#         2490
  C:3B3FH         LINE#         2491
  C:3B3FH         LINE#         2493
  C:3B42H         LINE#         2494
  C:3B42H         LINE#         2496
  C:3B4BH         LINE#         2497
  C:3B4EH         LINE#         2498
  C:3B4EH         LINE#         2499
  C:3B53H         LINE#         2500
  C:3B73H         LINE#         2501
  C:3B76H         LINE#         2502
BL51 BANKED LINKER/LOCATER V6.22.2.0                                                  06/08/2021  15:03:37  PAGE 134


  C:3B76H         LINE#         2503
  C:3B7BH         LINE#         2504
  C:3B83H         LINE#         2505
  C:3B89H         LINE#         2506
  C:3B8CH         LINE#         2507
  C:3B8CH         LINE#         2508
  C:3B8FH         LINE#         2509
  C:3B97H         LINE#         2510
  C:3B9DH         LINE#         2511
  C:3BA0H         LINE#         2512
  C:3BA0H         LINE#         2513
  C:3BA3H         LINE#         2514
  C:3BC8H         LINE#         2515
  C:3BCEH         LINE#         2516
  C:3BD0H         LINE#         2517
  C:3BD3H         LINE#         2518
  C:3BD3H         LINE#         2519
  C:3BDEH         LINE#         2520
  C:3BE6H         LINE#         2521
  C:3BECH         LINE#         2522
  C:3BEFH         LINE#         2523
  C:3BEFH         LINE#         2524
  C:3C00H         LINE#         2525
  C:3C08H         LINE#         2526
  C:3C0EH         LINE#         2527
  C:3C11H         LINE#         2528
  C:3C11H         LINE#         2529
  C:3C16H         LINE#         2530
  C:3C34H         LINE#         2531
  C:3C37H         LINE#         2532
  C:3C37H         LINE#         2533
  C:3C3CH         LINE#         2534
  C:3C5CH         LINE#         2535
  C:3C5FH         LINE#         2536
  C:3C5FH         LINE#         2537
  C:3C64H         LINE#         2538
  C:3C66H         LINE#         2539
  C:3C84H         LINE#         2540
  C:3C87H         LINE#         2541
  C:3C87H         LINE#         2542
  C:3C8CH         LINE#         2543
  C:3CACH         LINE#         2544
  C:3CAFH         LINE#         2545
  C:3CAFH         LINE#         2546
  C:3CC2H         LINE#         2547
  C:3CC2H         LINE#         2548
  C:3CC7H         LINE#         2549
  C:3CCFH         LINE#         2550
  C:3CD5H         LINE#         2551
  C:3CD5H         LINE#         2552
  C:3CD8H         LINE#         2553
  C:3CD8H         LINE#         2554
  C:3CEBH         LINE#         2555
  C:3CEBH         LINE#         2556
  C:3CF0H         LINE#         2557
  C:3CF3H         LINE#         2558
  C:3CF3H         LINE#         2559
BL51 BANKED LINKER/LOCATER V6.22.2.0                                                  06/08/2021  15:03:37  PAGE 135


  C:3CF6H         LINE#         2560
  C:3CF6H         LINE#         2561
  C:3CF9H         LINE#         2562
  C:3D19H         LINE#         2563
  C:3D1CH         LINE#         2564
  C:3D1CH         LINE#         2565
  C:3D1EH         LINE#         2566
  C:3D21H         LINE#         2567
  C:3D24H         LINE#         2568
  C:3D24H         LINE#         2569
  C:3D2DH         LINE#         2570
  C:3D30H         LINE#         2571
  C:3D30H         LINE#         2572
  C:3D47H         LINE#         2573
  C:3D4AH         LINE#         2574
  C:3D4AH         LINE#         2575
  C:3D4DH         LINE#         2576
  C:3D55H         LINE#         2577
  C:3D5BH         LINE#         2578
  C:3D5EH         LINE#         2579
  C:3D5EH         LINE#         2580
  C:3D67H         LINE#         2581
  C:3D6AH         LINE#         2582
  C:3D6AH         LINE#         2583
  C:3D6CH         LINE#         2584
  C:3D6FH         LINE#         2585
  C:3D72H         LINE#         2586
  C:3D72H         LINE#         2587
  C:3D89H         LINE#         2588
  C:3D8CH         LINE#         2589
  C:3D8CH         LINE#         2590
  C:3D91H         LINE#         2591
  C:3D99H         LINE#         2592
  C:3D9FH         LINE#         2593
  C:3DA2H         LINE#         2594
  C:3DA2H         LINE#         2595
  C:3DA5H         LINE#         2596
  C:3DC5H         LINE#         2597
  C:3DC8H         LINE#         2598
  C:3DC8H         LINE#         2599
  C:3DCBH         LINE#         2600
  C:3DEBH         LINE#         2601
  C:3DEEH         LINE#         2602
  C:3DEEH         LINE#         2603
  C:3DF1H         LINE#         2604
  C:3DF9H         LINE#         2605
  C:3DFCH         LINE#         2606
  C:3DFEH         LINE#         2607
  C:3DFEH         LINE#         2609
  C:3E09H         LINE#         2610
  C:3E11H         LINE#         2611
  C:3E25H         LINE#         2612
  C:3E28H         LINE#         2616
  C:3E28H         LINE#         2617
  C:3E2EH         LINE#         2618
  C:3E34H         LINE#         2619
  C:3E34H         LINE#         2620
BL51 BANKED LINKER/LOCATER V6.22.2.0                                                  06/08/2021  15:03:37  PAGE 136


  C:3E3CH         LINE#         2621
  C:3E42H         LINE#         2623
  C:3E45H         LINE#         2624
  C:3E4DH         LINE#         2625
  C:3E4DH         LINE#         2627
  C:3E50H         LINE#         2628
  C:3E53H         LINE#         2629
  C:3E5BH         LINE#         2630
  C:3E5BH         LINE#         2631
  C:3E69H         LINE#         2632
  C:3E69H         LINE#         2633
  C:3E72H         LINE#         2634
  C:3E75H         LINE#         2635
  C:3E81H         LINE#         2636
  C:3E81H         LINE#         2637
  C:3E8AH         LINE#         2638
  C:3E8DH         LINE#         2640
  C:3E8DH         LINE#         2641
  C:3E96H         LINE#         2642
  C:3E96H         LINE#         2643
  C:3E99H         LINE#         2644
  C:3EA1H         LINE#         2645
  C:3EA1H         LINE#         2646
  C:3EAFH         LINE#         2647
  C:3EAFH         LINE#         2648
  C:3EC5H         LINE#         2649
  C:3EC8H         LINE#         2650
  C:3ED4H         LINE#         2651
  C:3ED4H         LINE#         2652
  C:3EDDH         LINE#         2653
  C:3EE0H         LINE#         2654
  C:3EEEH         LINE#         2655
  C:3EEEH         LINE#         2656
  C:3EF7H         LINE#         2657
  C:3EF9H         LINE#         2659
  C:3EF9H         LINE#         2660
  C:3F02H         LINE#         2661
  C:3F02H         LINE#         2662
  C:3F04H         LINE#         2663
  C:3F0CH         LINE#         2664
  C:3F0CH         LINE#         2665
  C:3F15H         LINE#         2666
  C:3F17H         LINE#         2667
  C:3F1FH         LINE#         2668
  C:3F1FH         LINE#         2669
  C:3F35H         LINE#         2670
  C:3F37H         LINE#         2671
  C:3F3FH         LINE#         2672
  C:3F3FH         LINE#         2673
  C:3F42H         LINE#         2674
  C:3F44H         LINE#         2676
  C:3F4CH         LINE#         2677
  C:3F4CH         LINE#         2678
  C:3F55H         LINE#         2679
  C:3F57H         LINE#         2682
  C:3F5FH         LINE#         2683
  C:3F5FH         LINE#         2684
BL51 BANKED LINKER/LOCATER V6.22.2.0                                                  06/08/2021  15:03:37  PAGE 137


  C:3F67H         LINE#         2685
  C:3F69H         LINE#         2687
  C:3F69H         LINE#         2688
  C:3F72H         LINE#         2689
  C:3F72H         LINE#         2690
  C:3F74H         LINE#         2691
  C:3F74H         LINE#         2692
  C:3F79H         LINE#         2693
  C:3F79H         LINE#         2695
  C:3F79H         LINE#         2696
  C:3F7EH         LINE#         2697
  -------         ENDPROC       _SECUENCIAEXPEDIDORMF
  -------         ENDMOD        VERIFICADOR

  -------         MODULE        MONITOR
  C:0000H         SYMBOL        _ICE_DUMMY_
  D:0080H         PUBLIC        P0
  D:0090H         PUBLIC        P1
  I:0011H         PUBLIC        placa
  C:BF25H         PUBLIC        Rx_Monitor
  B:0080H.0       PUBLIC        rx_ip
  B:0090H.7       PUBLIC        lock
  C:92ADH         PUBLIC        _recibe_cmd_Monitor
  C:C08AH         PUBLIC        clear_placa
  C:95A6H         PUBLIC        _Valida_Trama_Monitor
  -------         PROC          _RECIBE_CMD_MONITOR
  X:0016H         SYMBOL        buffer_cmd
  -------         DO            
  X:0019H         SYMBOL        j
  X:001AH         SYMBOL        NumDatos
  X:001BH         SYMBOL        time_out
  X:001CH         SYMBOL        MaxChrRx
  X:001DH         SYMBOL        contador
  -------         ENDDO         
  C:92ADH         LINE#         50
  C:92B8H         LINE#         51
  C:92B8H         LINE#         55
  C:92BDH         LINE#         56
  C:92C3H         LINE#         58
  C:92CEH         LINE#         59
  C:92CEH         LINE#         60
  C:92DFH         LINE#         61
  C:92DFH         LINE#         62
  C:92E6H         LINE#         63
  C:92EAH         LINE#         64
  C:92F3H         LINE#         65
  C:92F3H         LINE#         66
  C:9301H         LINE#         67
  C:9318H         LINE#         68
  C:9318H         LINE#         69
  C:931EH         LINE#         70
  C:9324H         LINE#         71
  C:9324H         LINE#         72
  C:9326H         LINE#         73
  C:932EH         LINE#         74
  C:9334H         LINE#         75
  C:9346H         LINE#         76
BL51 BANKED LINKER/LOCATER V6.22.2.0                                                  06/08/2021  15:03:37  PAGE 138


  C:9350H         LINE#         77
  C:9359H         LINE#         79
  C:9368H         LINE#         82
  C:9368H         LINE#         83
  C:936DH         LINE#         84
  -------         ENDPROC       _RECIBE_CMD_MONITOR
  -------         PROC          _VALIDA_TRAMA_MONITOR
  X:0016H         SYMBOL        buffer
  D:0005H         SYMBOL        length_trama
  -------         DO            
  X:0019H         SYMBOL        j
  X:001AH         SYMBOL        p
  X:001BH         SYMBOL        cont
  -------         ENDDO         
  C:95A6H         LINE#         89
  C:95B1H         LINE#         90
  C:95B1H         LINE#         91
  C:95B4H         LINE#         92
  C:95B8H         LINE#         93
  C:95BBH         LINE#         94
  C:95BDH         LINE#         97
  C:95D1H         LINE#         98
  C:95D1H         LINE#         100
  C:95D3H         LINE#         102
  C:95DAH         LINE#         103
  C:95DFH         LINE#         106
  C:95DFH         LINE#         108
  C:95FAH         LINE#         109
  C:95FAH         LINE#         112
  C:95FAH         LINE#         113
  C:961BH         LINE#         114
  C:961FH         LINE#         115
  C:9625H         LINE#         116
  C:9637H         LINE#         117
  C:964FH         LINE#         118
  C:9658H         LINE#         119
  C:965AH         LINE#         120
  C:9660H         LINE#         123
  C:9660H         LINE#         126
  -------         ENDPROC       _VALIDA_TRAMA_MONITOR
  -------         PROC          CLEAR_PLACA
  -------         DO            
  D:0007H         SYMBOL        i
  -------         ENDDO         
  C:C08AH         LINE#         127
  C:C08AH         LINE#         128
  C:C08AH         LINE#         130
  C:C096H         LINE#         131
  C:C096H         LINE#         132
  C:C09CH         LINE#         133
  C:C09FH         LINE#         134
  C:C0A1H         LINE#         135
  -------         ENDPROC       CLEAR_PLACA
  -------         PROC          RX_MONITOR
  -------         DO            
  X:0009H         SYMBOL        Length_trama
  X:000AH         SYMBOL        buffer1
BL51 BANKED LINKER/LOCATER V6.22.2.0                                                  06/08/2021  15:03:37  PAGE 139


  -------         ENDDO         
  C:BF25H         LINE#         136
  C:BF25H         LINE#         137
  C:BF25H         LINE#         140
  C:BF34H         LINE#         141
  C:BF3DH         LINE#         142
  -------         ENDPROC       RX_MONITOR
  -------         ENDMOD        MONITOR

  -------         MODULE        ?C?FPADD
  C:1335H         PUBLIC        ?C?FPADD
  C:1331H         PUBLIC        ?C?FPSUB
  -------         ENDMOD        ?C?FPADD

  -------         MODULE        ?C?FPMUL
  C:1426H         PUBLIC        ?C?FPMUL
  -------         ENDMOD        ?C?FPMUL

  -------         MODULE        ?C?FCAST
  C:1536H         PUBLIC        ?C?FCASTC
  C:1531H         PUBLIC        ?C?FCASTI
  C:152CH         PUBLIC        ?C?FCASTL
  -------         ENDMOD        ?C?FCAST

  -------         MODULE        ?C?CASTF
  C:156AH         PUBLIC        ?C?CASTF
  -------         ENDMOD        ?C?CASTF

  -------         MODULE        PRINTF
  X:0077H         PUBLIC        ?_PRINTF?BYTE
  X:0077H         PUBLIC        ?_SPRINTF?BYTE
  C:3FEAH         PUBLIC        _PRINTF
  C:3FE4H         PUBLIC        _SPRINTF
  -------         ENDMOD        PRINTF

  -------         MODULE        POW
  X:0021H         PUBLIC        ?_pow?BYTE
  C:68B0H         PUBLIC        _pow
  -------         ENDMOD        POW

  -------         MODULE        ?C?CHKFLOAT
  C:15EBH         PUBLIC        ?C?CHKFLOAT
  -------         ENDMOD        ?C?CHKFLOAT

  -------         MODULE        ?C?FPCMP
  C:1607H         PUBLIC        ?C?FPCMP
  C:1605H         PUBLIC        ?C?FPCMP3
  -------         ENDMOD        ?C?FPCMP

  -------         MODULE        ?C?FPNEG
  C:167EH         PUBLIC        ?C?FPNEG
  -------         ENDMOD        ?C?FPNEG

  -------         MODULE        ?C?FPROUND
  C:168FH         PUBLIC        ?C?FPROUND
  -------         ENDMOD        ?C?FPROUND

BL51 BANKED LINKER/LOCATER V6.22.2.0                                                  06/08/2021  15:03:37  PAGE 140


  -------         MODULE        ?C?FPCONVERT
  C:16CCH         PUBLIC        ?C?FPCONVERT
  -------         ENDMOD        ?C?FPCONVERT

  -------         MODULE        EXP
  C:A082H         PUBLIC        _EXP
  -------         ENDMOD        EXP

  -------         MODULE        LOG
  C:742EH         PUBLIC        _LOG
  C:742AH         PUBLIC        _LOG10
  -------         ENDMOD        LOG

  -------         MODULE        ?C?FPDIV
  C:17D4H         PUBLIC        ?C?FPDIV
  -------         ENDMOD        ?C?FPDIV

  -------         MODULE        ?C?FTNPWR
  C:18A1H         PUBLIC        ?C?FTNPWR
  -------         ENDMOD        ?C?FTNPWR

  -------         MODULE        ?C?COPY
  C:19FEH         PUBLIC        ?C?COPY
  -------         ENDMOD        ?C?COPY

  -------         MODULE        ?C?CLDPTR
  C:1A24H         PUBLIC        ?C?CLDPTR
  -------         ENDMOD        ?C?CLDPTR

  -------         MODULE        ?C?CLDOPTR
  C:1A3DH         PUBLIC        ?C?CLDOPTR
  -------         ENDMOD        ?C?CLDOPTR

  -------         MODULE        ?C?CSTPTR
  C:1A6AH         PUBLIC        ?C?CSTPTR
  -------         ENDMOD        ?C?CSTPTR

  -------         MODULE        ?C?CSTOPTR
  C:1A7CH         PUBLIC        ?C?CSTOPTR
  -------         ENDMOD        ?C?CSTOPTR

  -------         MODULE        ?C?IMUL
  C:1A9EH         PUBLIC        ?C?IMUL
  -------         ENDMOD        ?C?IMUL

  -------         MODULE        ?C?IILDX
  C:1AB0H         PUBLIC        ?C?IILDX
  -------         ENDMOD        ?C?IILDX

  -------         MODULE        ?C?LNEG
  C:1AC6H         PUBLIC        ?C?LNEG
  -------         ENDMOD        ?C?LNEG

  -------         MODULE        ?C?SLCMP
  C:1AD4H         PUBLIC        ?C?SLCMP
  -------         ENDMOD        ?C?SLCMP

BL51 BANKED LINKER/LOCATER V6.22.2.0                                                  06/08/2021  15:03:37  PAGE 141


  -------         MODULE        ?C?ULCMP
  C:1AEAH         PUBLIC        ?C?ULCMP
  -------         ENDMOD        ?C?ULCMP

  -------         MODULE        ?C?ULSHR
  C:1AFBH         PUBLIC        ?C?ULSHR
  -------         ENDMOD        ?C?ULSHR

  -------         MODULE        ?C?LSHL
  C:1B0EH         PUBLIC        ?C?LSHL
  -------         ENDMOD        ?C?LSHL

  -------         MODULE        ?C?LLDCODE
  C:1B21H         PUBLIC        ?C?LLDCODE
  -------         ENDMOD        ?C?LLDCODE

  -------         MODULE        ?C?LLDXDATA0
  C:1B31H         PUBLIC        ?C?LLDXDATA0
  -------         ENDMOD        ?C?LLDXDATA0

  -------         MODULE        ?C?LLDCODE0
  C:1B3DH         PUBLIC        ?C?LLDCODE0
  -------         ENDMOD        ?C?LLDCODE0

  -------         MODULE        ?C?LSTXDATA
  C:1B4DH         PUBLIC        ?C?LSTXDATA
  -------         ENDMOD        ?C?LSTXDATA

  -------         MODULE        ?C?LSTKXDATA
  C:1B59H         PUBLIC        ?C?LSTKXDATA
  -------         ENDMOD        ?C?LSTKXDATA

  -------         MODULE        ?C?PLDIXDATA
  C:1B8AH         PUBLIC        ?C?PLDIXDATA
  -------         ENDMOD        ?C?PLDIXDATA

  -------         MODULE        ?C?PSTXDATA
  C:1BA1H         PUBLIC        ?C?PSTXDATA
  -------         ENDMOD        ?C?PSTXDATA

  -------         MODULE        ?C?CCASE
  C:1BAAH         PUBLIC        ?C?CCASE
  -------         ENDMOD        ?C?CCASE

  -------         MODULE        STRCAT
  X:0048H         PUBLIC        ?_strcat?BYTE
  C:B0EDH         PUBLIC        _strcat
  -------         ENDMOD        STRCAT

  -------         MODULE        ?C?STRCMP
  C:1D4EH         PUBLIC        ?C?STRCMP
  -------         ENDMOD        ?C?STRCMP

  -------         MODULE        ?C?STRCPY
  C:1E37H         PUBLIC        ?C?STRCPY
  -------         ENDMOD        ?C?STRCPY

BL51 BANKED LINKER/LOCATER V6.22.2.0                                                  06/08/2021  15:03:37  PAGE 142


  -------         MODULE        STRLEN
  C:000EH         PUBLIC        _STRLEN
  -------         ENDMOD        STRLEN

  -------         MODULE        STRTOK
  X:0064H         PUBLIC        ?_strtok?BYTE
  C:8759H         PUBLIC        _strtok
  -------         ENDMOD        STRTOK

  -------         MODULE        ATOL
  C:7AA2H         PUBLIC        _atol
  -------         ENDMOD        ATOL

  -------         MODULE        ATOI
  C:891BH         PUBLIC        _atoi
  -------         ENDMOD        ATOI

  -------         MODULE        ?C?ILDIX
  C:1E54H         PUBLIC        ?C?ILDIX
  -------         ENDMOD        ?C?ILDIX

  -------         MODULE        ?C?LMUL
  C:1E6AH         PUBLIC        ?C?LMUL
  -------         ENDMOD        ?C?LMUL

  -------         MODULE        ISDIGIT
  C:C19AH         PUBLIC        _isdigit
  -------         ENDMOD        ISDIGIT

  -------         MODULE        ISSPACE
  C:C0FAH         PUBLIC        _isspace
  -------         ENDMOD        ISSPACE

  -------         MODULE        STRSPN
  X:006AH         PUBLIC        ?_strspn?BYTE
  C:A9CBH         PUBLIC        _strspn
  -------         ENDMOD        STRSPN

  -------         MODULE        STRPBRK
  X:006AH         PUBLIC        ?_strpbrk?BYTE
  C:AAD2H         PUBLIC        _strpbrk
  -------         ENDMOD        STRPBRK

Program Size: data=99.1 xdata=538 code=49703
LINK/LOCATE RUN COMPLETE.  0 WARNING(S),  0 ERROR(S)
