BL51 BANKED LINKER/LOCATER V6.22.2.0                                                    05/31/2021  13:02:58  PAGE 1


BL51 BANKED LINKER/LOCATER V6.22.2.0, INVOKED BY:
C:\KEIL_V5\C51\BIN\BL51.EXE .\Objects\main.obj, .\Objects\Accescan.obj, .\Objects\Clock.obj, .\Objects\delay.obj, .\Obje
>> cts\eeprom.obj, .\Objects\io_sensores.obj, .\Objects\pantallas.obj, .\Objects\prog.obj, .\Objects\pto_paralelo.obj, .
>> \Objects\tibbo.obj, .\Objects\uart.obj, .\Objects\lintech.obj, .\Objects\verificador.obj, .\Objects\Monitor.obj TO .\
>> Objects\expedidor_v_01_raspberry PRINT (.\Listings\expedidor_v_01_raspberry.m51) RAMSIZE (256)


MEMORY MODEL: LARGE WITH FLOATING POINT ARITHMETIC


INPUT MODULES INCLUDED:
  .\Objects\main.obj (MAIN)
  .\Objects\Accescan.obj (ACCESCAN)
  .\Objects\Clock.obj (CLOCK)
  .\Objects\delay.obj (DELAY)
  .\Objects\eeprom.obj (EEPROM)
  .\Objects\io_sensores.obj (IO_SENSORES)
  .\Objects\pantallas.obj (PANTALLAS)
  .\Objects\prog.obj (PROG)
  .\Objects\pto_paralelo.obj (PTO_PARALELO)
  .\Objects\tibbo.obj (TIBBO)
  .\Objects\uart.obj (UART)
  .\Objects\lintech.obj (LINTECH)
  .\Objects\verificador.obj (VERIFICADOR)
  .\Objects\Monitor.obj (MONITOR)
  C:\KEIL_V5\C51\LIB\C51FPL.LIB (?C?FPADD)
  C:\KEIL_V5\C51\LIB\C51FPL.LIB (?C?FPMUL)
  C:\KEIL_V5\C51\LIB\C51FPL.LIB (?C?FCAST)
  C:\KEIL_V5\C51\LIB\C51FPL.LIB (?C?CASTF)
  C:\KEIL_V5\C51\LIB\C51FPL.LIB (PRINTF)
  C:\KEIL_V5\C51\LIB\C51FPL.LIB (POW)
  C:\KEIL_V5\C51\LIB\C51FPL.LIB (?C?FPGETOPN)
  C:\KEIL_V5\C51\LIB\C51FPL.LIB (?C?CHKFLOAT)
  C:\KEIL_V5\C51\LIB\C51FPL.LIB (?C?FPCMP)
  C:\KEIL_V5\C51\LIB\C51FPL.LIB (?C?FPNEG)
  C:\KEIL_V5\C51\LIB\C51FPL.LIB (?C?FPROUND)
  C:\KEIL_V5\C51\LIB\C51FPL.LIB (?C?FPCONVERT)
  C:\KEIL_V5\C51\LIB\C51FPL.LIB (EXP)
  C:\KEIL_V5\C51\LIB\C51FPL.LIB (LOG)
  C:\KEIL_V5\C51\LIB\C51FPL.LIB (?C?FPDIV)
  C:\KEIL_V5\C51\LIB\C51FPL.LIB (?C?FTNPWR)
  C:\KEIL_V5\C51\LIB\C51FPL.LIB (?C?FPSERIES)
  C:\KEIL_V5\C51\LIB\C51L.LIB (?C_STARTUP)
  C:\KEIL_V5\C51\LIB\C51L.LIB (?C?COPY)
  C:\KEIL_V5\C51\LIB\C51L.LIB (?C?CLDPTR)
  C:\KEIL_V5\C51\LIB\C51L.LIB (?C?CLDOPTR)
  C:\KEIL_V5\C51\LIB\C51L.LIB (?C?CSTPTR)
  C:\KEIL_V5\C51\LIB\C51L.LIB (?C?CSTOPTR)
  C:\KEIL_V5\C51\LIB\C51L.LIB (?C?IMUL)
  C:\KEIL_V5\C51\LIB\C51L.LIB (?C?IILDX)
  C:\KEIL_V5\C51\LIB\C51L.LIB (?C?LNEG)
  C:\KEIL_V5\C51\LIB\C51L.LIB (?C?SLCMP)
  C:\KEIL_V5\C51\LIB\C51L.LIB (?C?ULCMP)
  C:\KEIL_V5\C51\LIB\C51L.LIB (?C?ULSHR)
  C:\KEIL_V5\C51\LIB\C51L.LIB (?C?LSHL)
  C:\KEIL_V5\C51\LIB\C51L.LIB (?C?LLDCODE)
  C:\KEIL_V5\C51\LIB\C51L.LIB (?C?LLDXDATA0)
  C:\KEIL_V5\C51\LIB\C51L.LIB (?C?LLDCODE0)
BL51 BANKED LINKER/LOCATER V6.22.2.0                                                  05/31/2021  13:02:58  PAGE 2


  C:\KEIL_V5\C51\LIB\C51L.LIB (?C?LSTXDATA)
  C:\KEIL_V5\C51\LIB\C51L.LIB (?C?LSTKXDATA)
  C:\KEIL_V5\C51\LIB\C51L.LIB (?C?PLDIXDATA)
  C:\KEIL_V5\C51\LIB\C51L.LIB (?C?PSTXDATA)
  C:\KEIL_V5\C51\LIB\C51L.LIB (?C?CCASE)
  C:\KEIL_V5\C51\LIB\C51L.LIB (STRCAT)
  C:\KEIL_V5\C51\LIB\C51L.LIB (?C?STRCMP)
  C:\KEIL_V5\C51\LIB\C51L.LIB (?C?STRCPY)
  C:\KEIL_V5\C51\LIB\C51L.LIB (STRLEN)
  C:\KEIL_V5\C51\LIB\C51L.LIB (STRTOK)
  C:\KEIL_V5\C51\LIB\C51L.LIB (ATOL)
  C:\KEIL_V5\C51\LIB\C51L.LIB (ATOI)
  C:\KEIL_V5\C51\LIB\C51L.LIB (?C_INIT)
  C:\KEIL_V5\C51\LIB\C51L.LIB (?C?ILDIX)
  C:\KEIL_V5\C51\LIB\C51L.LIB (?C?LMUL)
  C:\KEIL_V5\C51\LIB\C51L.LIB (ISDIGIT)
  C:\KEIL_V5\C51\LIB\C51L.LIB (ISSPACE)
  C:\KEIL_V5\C51\LIB\C51L.LIB (STRSPN)
  C:\KEIL_V5\C51\LIB\C51L.LIB (STRPBRK)


LINK MAP OF MODULE:  .\Objects\expedidor_v_01_raspberry (MAIN)


            TYPE    BASE      LENGTH    RELOCATION   SEGMENT NAME
            -----------------------------------------------------

            * * * * * * *   D A T A   M E M O R Y   * * * * * * *
            REG     0000H     0008H     ABSOLUTE     "REG BANK 0"
            DATA    0008H     0005H     UNIT         _DATA_GROUP_
            DATA    000DH     0004H     UNIT         ?DT?UART
            IDATA   0011H     0009H     UNIT         ?ID?MONITOR
                    001AH     0006H                  *** GAP ***
            BIT     0020H.0   0001H.1   UNIT         _BIT_GROUP_
            BIT     0021H.1   0000H.3   UNIT         ?BI?MAIN
            BIT     0021H.4   0000H.2   UNIT         ?BI?UART
            BIT     0021H.6   0000H.1   UNIT         ?BI?EEPROM
            BIT     0021H.7   0000H.1   UNIT         ?BI?IO_SENSORES
            BIT     0022H.0   0000H.1   UNIT         ?BI?VERIFICADOR
                    0022H.1   0000H.7                *** GAP ***
            IDATA   0023H     0046H     UNIT         ?ID?MAIN
            IDATA   0069H     0001H     UNIT         ?STACK

            * * * * * * *  X D A T A   M E M O R Y  * * * * * * *
            XDATA   0000H     00B7H     UNIT         _XDATA_GROUP_
            XDATA   00B7H     0091H     UNIT         ?XD?VERIFICADOR
            XDATA   0148H     006CH     UNIT         ?XD?MAIN
            XDATA   01B4H     0059H     UNIT         ?XD?PROG
            XDATA   020DH     0003H     UNIT         ?XD?EEPROM
            XDATA   0210H     0003H     UNIT         ?XD?UART
            XDATA   0213H     0003H     UNIT         ?XD?STRTOK
            XDATA   0216H     0002H     UNIT         ?XD?IO_SENSORES
            XDATA   0218H     0001H     UNIT         ?XD?ACCESCAN
            XDATA   0219H     0001H     UNIT         ?XD?CLOCK

            * * * * * * *   C O D E   M E M O R Y   * * * * * * *
            CODE    0000H     0003H     ABSOLUTE     
BL51 BANKED LINKER/LOCATER V6.22.2.0                                                  05/31/2021  13:02:58  PAGE 3


            CODE    0003H     0008H     UNIT         ?PR?P_CK?CLOCK
            CODE    000BH     0003H     ABSOLUTE     
            CODE    000EH     0015H     UNIT         ?PR?_STRLEN?STRLEN
            CODE    0023H     0003H     ABSOLUTE     
            CODE    0026H     1308H     UNIT         ?CO?PROG
            CODE    132EH     0B8BH     UNIT         ?C?LIB_CODE
            CODE    1EB9H     08BDH     UNIT         ?CO?VERIFICADOR
            CODE    2776H     0747H     UNIT         ?PR?_PANTALLALCD?PANTALLAS
            CODE    2EBDH     06EFH     UNIT         ?CO?PANTALLAS
            CODE    35ACH     04DAH     UNIT         ?PR?_SECUENCIAEXPEDIDORMF?VERIFICADOR
            CODE    3A86H     0483H     UNIT         ?PR?PRINTF?PRINTF
            CODE    3F09H     0437H     UNIT         ?PR?_VALIDA_TRAMA_PTO?ACCESCAN
            CODE    4340H     035CH     UNIT         ?PR?VER_PROG?PROG
            CODE    469CH     02D0H     UNIT         ?PR?_TWO_BYTEHEX_DECIMAL?CLOCK
            CODE    496CH     02B7H     UNIT         ?PR?_PROG_HORARIO_DIAS?PROG
            CODE    4C23H     02A5H     UNIT         ?PR?_PANTALLALCD_LINEA_2?PANTALLAS
            CODE    4EC8H     02A3H     UNIT         ?PR?_ARMAR_TRAMA_MONITOR?VERIFICADOR
            CODE    516BH     0256H     UNIT         ?PR?_ARMAR_TRAMA_PTO_PARALELO_EXPEDIDOR?VERIFICADOR
            CODE    53C1H     022CH     UNIT         ?PR?MENU?PROG
            CODE    55EDH     0208H     UNIT         ?PR?_HASH_ID?PROG
            CODE    57F5H     01FAH     UNIT         ?PR?_PROG_HORARIO_DESDE_HASTA?PROG
            CODE    59EFH     01F5H     UNIT         ?PR?PROG_FECHA_VENCIMIENTO?PROG
            CODE    5BE4H     01EBH     UNIT         ?PR?_ARMAR_TRAMA_TARJETA_SECTOR1_BLOQUE2?VERIFICADOR
            CODE    5DCFH     01DFH     UNIT         ?PR?_RESPONDE_LECTURA_TARJETA_SECTOR1_BLOQUE1?VERIFICADOR
            CODE    5FAEH     01D8H     UNIT         ?PR?_BLOCK_READ_CLOCK_ASCII_RASBERRY?CLOCK
            CODE    6186H     01B3H     UNIT         ?PR?COM_ISR?UART
            CODE    6339H     01A4H     UNIT         ?PR?_VALIDA_TIPO_TARJETA?VERIFICADOR
            CODE    64DDH     01A3H     UNIT         ?CO?LINTECH
            CODE    6680H     016EH     UNIT         ?PR?_BLOCK_READ_CLOCK_ASCII?CLOCK
            CODE    67EEH     0166H     UNIT         ?PR?_POW?POW
            CODE    6954H     0157H     UNIT         ?PR?_RESPONDE_REELECTURA_TARJETA_SECTOR1_BLOQUE2?VERIFICADOR
            CODE    6AABH     0145H     UNIT         ?PR?PROG_HORARIOS?PROG
            CODE    6BF0H     013EH     UNIT         ?PR?PROG_SIN_COBRO?PROG
            CODE    6D2EH     013EH     UNIT         ?PR?SECUENCIA_INICIO_EXPEDIDOR?VERIFICADOR
            CODE    6E6CH     013CH     UNIT         ?PR?LOAD_AND_SEND_ID_COD?PTO_PARALELO
            CODE    6FA8H     0137H     UNIT         ?PR?VER_HORARIO?PROG
            CODE    70DFH     012EH     UNIT         ?PR?_ARMAR_TRAMA_PTO_PARALELO_EXPEDIDOR_MENSUAL?VERIFICADOR
            CODE    720DH     012BH     UNIT         ?PR?_RESPONDE_LECTURA_TARJETA_SECTOR1_BLOQUE2?VERIFICADOR
            CODE    7338H     0129H     UNIT         ?PR?LOG?LOG
            CODE    7461H     0128H     UNIT         ?PR?_VER_HORARIO_DIAS?PROG
            CODE    7589H     011AH     UNIT         ?PR?_PROG_HORARIOS_ON_OFF?PROG
            CODE    76A3H     0119H     UNIT         ?PR?_VER_HORARIO_DESDE_HASTA?PROG
            CODE    77BCH     0115H     UNIT         ?PR?_VALIDAR_CLK?CLOCK
            CODE    78D1H     010FH     UNIT         ?PR?_HORARIOS?VERIFICADOR
            CODE    79E0H     010CH     UNIT         ?PR?_ATOL?ATOL
            CODE    7AECH     0103H     UNIT         ?PR?_BLOQUE_HORARIO?VERIFICADOR
            CODE    7BEFH     0100H     UNIT         ?PR?_WR_MF?LINTECH
            CODE    7CEFH     00FCH     UNIT         ?PR?PROG_DEBUG?PROG
            CODE    7DEBH     00FCH     UNIT         ?PR?PROG_USE_LPR?PROG
            CODE    7EE7H     00FCH     UNIT         ?PR?TIPO_PANTALLA?PROG
            CODE    7FE3H     00FCH     UNIT         ?PR?PROG_ANTIPASSBACK?PROG
            CODE    80DFH     00FCH     UNIT         ?PR?PROG_PLACA?PROG
            CODE    81DBH     00FCH     UNIT         ?PR?PROG_VALIDAR_TIPO_VEHICULO_MENSUAL?PROG
            CODE    82D7H     00FCH     UNIT         ?PR?PROG_APB_MENSUAL?PROG
            CODE    83D3H     00F1H     UNIT         ?PR?_WRITE_EEPROM_TICKET?EEPROM
            CODE    84C4H     00EAH     UNIT         ?PR?_MOV_CARD?LINTECH
            CODE    85AEH     00E4H     UNIT         ?PR?_STRTOK?STRTOK
BL51 BANKED LINKER/LOCATER V6.22.2.0                                                  05/31/2021  13:02:58  PAGE 4


            CODE    8692H     00DEH     UNIT         ?PR?PROG_ADDRESS_HIGH_BOARD?PROG
            CODE    8770H     00DBH     UNIT         ?PR?_ATOI?ATOI
            CODE    884BH     00D7H     UNIT         ?PR?_ANALIZA_UID_CARD?VERIFICADOR
            CODE    8922H     00D6H     UNIT         ?PR?_CMD_LPR_SALIDA_WIEGAND?ACCESCAN
            CODE    89F8H     00D3H     UNIT         ?C_INITSEG
            CODE    8ACBH     00CCH     UNIT         ?PR?_GRABA_SERIE?EEPROM
            CODE    8B97H     00CBH     UNIT         ?PR?_RTA_CMD_TRANSPORTE?VERIFICADOR
            CODE    8C62H     00CAH     UNIT         ?PR?READ_EEPROM_TICKET?EEPROM
            CODE    8D2CH     00C9H     UNIT         ?PR?_CHECK_FECHAOUT?CLOCK
            CODE    8DF5H     00C4H     UNIT         ?PR?_BLOCK_READ_CLOCK?CLOCK
            CODE    8EB9H     00C4H     UNIT         ?PR?_TARJETA_MENSUAL?VERIFICADOR
            CODE    8F7DH     00C3H     UNIT         ?PR?_RD_MF?LINTECH
            CODE    9040H     00C2H     UNIT         ?PR?PROG_TARJETA_AUTOMATICA_O_BOTON?PROG
            CODE    9102H     00C1H     UNIT         ?PR?_RECIBE_CMD_MONITOR?MONITOR
            CODE    91C3H     00BFH     UNIT         ?CO?IO_SENSORES
            CODE    9282H     00BEH     UNIT         ?PR?ERROR_RX_PTO?VERIFICADOR
            CODE    9340H     00BDH     UNIT         ?PR?PROG_COD_PARK?PROG
            CODE    93FDH     00BDH     UNIT         ?PR?PROG_TIEMPO_GRACIA?PROG
            CODE    94BAH     00BBH     UNIT         ?PR?_VALIDA_TRAMA_MONITOR?MONITOR
            CODE    9575H     00B9H     UNIT         ?CO?TIBBO
            CODE    962EH     00B6H     UNIT         ?PR?PROG_ID_CLIENTE?PROG
            CODE    96E4H     00B5H     UNIT         ?PR?_WAIT_PLACA?VERIFICADOR
            CODE    9799H     00B4H     UNIT         ?PR?_SEND_PORT?PTO_PARALELO
            CODE    984DH     00ACH     UNIT         ?PR?_HORA_MAXIMA?VERIFICADOR
            CODE    98F9H     00AAH     UNIT         ?PR?CLAVE_SEGURIDAD_S2?LINTECH
            CODE    99A3H     00A9H     UNIT         ?PR?DWLOAD_EEPROM?LINTECH
            CODE    9A4CH     00A6H     UNIT         ?PR?_BLOCK_READ_CLOCK_HEX?CLOCK
            CODE    9AF2H     00A5H     UNIT         ?PR?_SEND_PTO_PARALELO?VERIFICADOR
            CODE    9B97H     00A4H     UNIT         ?PR?_ARMAR_TRAMA_TARJETA_SECTOR1_BLOQUE1_CAMCEL?VERIFICADOR
            CODE    9C3BH     00A1H     UNIT         ?PR?_BLOCK_WRITE_CLOCK_ASCII?CLOCK
            CODE    9CDCH     009DH     UNIT         ?PR?_INICIALIZA?LINTECH
            CODE    9D79H     009CH     UNIT         ?PR?_RESPUESTA_PLACA_CANCEL?VERIFICADOR
            CODE    9E15H     009AH     UNIT         ?PR?_RESPONDE_LECTURA_TARJETA_SECTOR1_BLOQUE0?VERIFICADOR
            CODE    9EAFH     009AH     UNIT         ?PR?EXP?EXP
            CODE    9F49H     0099H     UNIT         ?PR?SHOW?PROG
            CODE    9FE2H     0099H     UNIT         ?PR?_RECIBE_PORT?PTO_PARALELO
            CODE    A07BH     0098H     UNIT         ?PR?_VALIDA_VEHICULO_CARD_MENSUAL?VERIFICADOR
            CODE    A113H     0091H     UNIT         ?PR?_HEX_ASCII?CLOCK
            CODE    A1A4H     0091H     UNIT         ?PR?_CARD_INSERCION?LINTECH
            CODE    A235H     0090H     UNIT         ?PR?_LEE_CLK?CLOCK
            CODE    A2C5H     0090H     UNIT         ?PR?_GETOPTION?PROG
            CODE    A355H     0090H     UNIT         ?PR?_DISPARO_LOCK_ENTRADA_VEHICULO?VERIFICADOR
            CODE    A3E5H     0090H     UNIT         ?PR?ENTREGA_CARD_CAPTURA?VERIFICADOR
            CODE    A475H     008DH     UNIT         ?PR?LOADVERIFY_EEPROM?LINTECH
            CODE    A502H     008CH     UNIT         ?C_C51STARTUP
            CODE    A58EH     0088H     UNIT         ?PR?_SEND_PORTERR?PTO_PARALELO
            CODE    A616H     0088H     UNIT         ?PR?RX_DATA?TIBBO
            CODE    A69EH     0088H     UNIT         ?PR?UNIQUE_IDENTIFIER_UID?LINTECH
            CODE    A726H     0086H     UNIT         ?PR?_CHECK_STATUS?LINTECH
            CODE    A7ACH     0084H     UNIT         ?PR?MSJ_LCD_INFORMATIVO?IO_SENSORES
            CODE    A830H     0084H     UNIT         ?PR?_DEBUGBUFFERMF?TIBBO
            CODE    A8B4H     0084H     UNIT         ?PR?_STRSPN?STRSPN
            CODE    A938H     0083H     UNIT         ?PR?_RASPBERRY_DATA?PANTALLAS
            CODE    A9BBH     0081H     UNIT         ?PR?_STRPBRK?STRPBRK
            CODE    AA3CH     0080H     UNIT         ?PR?_INGRESADATO?PROG
            CODE    AABCH     0080H     UNIT         ?PR?AUT_CARD_CHECK_STATUS?LINTECH
            CODE    AB3CH     0080H     UNIT         ?PR?POWER_OFF?LINTECH
BL51 BANKED LINKER/LOCATER V6.22.2.0                                                  05/31/2021  13:02:58  PAGE 5


            CODE    ABBCH     007FH     UNIT         ?PR?MAIN?MAIN
            CODE    AC3BH     007DH     UNIT         ?PR?RELOJ_PANTALLA_LCD?PANTALLAS
            CODE    ACB8H     007CH     UNIT         ?PR?RESPONDE_ESTADO_SENSORES_TRANSPORTE?VERIFICADOR
            CODE    AD34H     0077H     UNIT         ?PR?RESPONDE_TIPO_TARJETA?VERIFICADOR
            CODE    ADABH     0074H     UNIT         ?PR?_HORA_ENTRADA_VEHICULO?CLOCK
            CODE    AE1FH     0071H     UNIT         ?PR?_EN_HORARIO?VERIFICADOR
            CODE    AE90H     006FH     UNIT         ?PR?_ESCRIBIRMEMORIA?EEPROM
            CODE    AEFFH     006CH     UNIT         ?PR?_RESPONDE_WRITE_TARJETA_SECTOR1_BLOQUE2?VERIFICADOR
            CODE    AF6BH     006BH     UNIT         ?PR?INGRESO_VEHICULO?VERIFICADOR
            CODE    AFD6H     006BH     UNIT         ?PR?_STRCAT?STRCAT
            CODE    B041H     0066H     UNIT         ?PR?_LEERMEMORIA?EEPROM
            CODE    B0A7H     0062H     UNIT         ?PR?_LISTACOMANDOS?PROG
            CODE    B109H     005EH     UNIT         ?PR?_BYTEHEX_DECIMAL?CLOCK
            CODE    B167H     005DH     UNIT         ?PR?_RESPUESTA_SEGUNDA_CLAVE?VERIFICADOR
            CODE    B1C4H     005CH     UNIT         ?PR?_ARMAR_TRAMA_PLACA?VERIFICADOR
            CODE    B220H     005BH     UNIT         ?PR?VALIDA_SENSOR1_AUTO?IO_SENSORES
            CODE    B27BH     0056H     UNIT         ?PR?_WR_EEPROM?EEPROM
            CODE    B2D1H     0054H     UNIT         ?PR?_PREGUNTA_LPR?VERIFICADOR
            CODE    B325H     004DH     UNIT         ?PR?VARIABLE_INICIO?MAIN
            CODE    B372H     004DH     UNIT         ?PR?L_D_M?EEPROM
            CODE    B3BFH     004CH     UNIT         ?PR?LEE_NO_TICKET?EEPROM
            CODE    B40BH     004CH     UNIT         ?PR?LOAD_AND_SEND_INFO_RELOJ?PTO_PARALELO
            CODE    B457H     004BH     UNIT         ?PR?_TX_AUX?TIBBO
            CODE    B4A2H     0049H     UNIT         ?PR?_DEBUG_TXT_TIBBO?TIBBO
            CODE    B4EBH     0048H     UNIT         ?PR?FIRST_CLAVE?PROG
            CODE    B533H     0047H     UNIT         ?PR?_DEBUG_CHR_TIBBO?TIBBO
            CODE    B57AH     0047H     UNIT         ?PR?_RESPONDE_WRITE_TARJETA_SECTOR2_BLOQUE0?VERIFICADOR
            CODE    B5C1H     0046H     UNIT         ?PR?_ESCRIBIRCADENASOFT_BUFFER?MAIN
            CODE    B607H     0046H     UNIT         ?PR?_LCD_TXT_NUM_CHAR?PANTALLAS
            CODE    B64DH     0046H     UNIT         ?PR?_DEBUG_HEXDEC?TIBBO
            CODE    B693H     0044H     UNIT         ?PR?_LCD_TXT?PANTALLAS
            CODE    B6D7H     0043H     UNIT         ?PR?DIR_BOARD?IO_SENSORES
            CODE    B71AH     0042H     UNIT         ?PR?_VALIDARCLAVE?PROG
            CODE    B75CH     0041H     UNIT         ?PR?_MONITOR_CHR?ACCESCAN
            CODE    B79DH     0041H     UNIT         ?PR?_TWO_ONE?CLOCK
            CODE    B7DEH     0040H     UNIT         ?PR?_GETCMD?PROG
            CODE    B81EH     0040H     UNIT         ?PR?_DEBUG_PTO_PARALELO?TIBBO
            CODE    B85EH     003FH     UNIT         ?PR?_EB_CLK?CLOCK
            CODE    B89DH     003EH     UNIT         ?PR?_PUTCHAR?MAIN
            CODE    B8DBH     003EH     UNIT         ?PR?TRAMA_VALIDACION_P_N?VERIFICADOR
            CODE    B919H     003DH     UNIT         ?PR?_HEX_BCD?CLOCK
            CODE    B956H     003DH     UNIT         ?PR?_RD_EEPROM?EEPROM
            CODE    B993H     003DH     UNIT         ?PR?_DEBUG_MONITOR?TIBBO
            CODE    B9D0H     003DH     UNIT         ?PR?_LOAD_SECUENCIA_EXPEDIDOR?VERIFICADOR
            CODE    BA0DH     003BH     UNIT         ?CO?EEPROM
            CODE    BA48H     003BH     UNIT         ?PR?_COM_PUTCHAR?UART
            CODE    BA83H     003AH     UNIT         ?PR?_DELAY_10MS?DELAY
            CODE    BABDH     003AH     UNIT         ?PR?ANALIZA_CARD_MOUNT_RF?VERIFICADOR
            CODE    BAF7H     0038H     UNIT         ?PR?VALIDASENSORESPASO?IO_SENSORES
            CODE    BB2FH     0036H     UNIT         ?PR?_RESPONDE_WRITE_TARJETA_SECTOR1_BLOQUE1?VERIFICADOR
            CODE    BB65H     0036H     UNIT         ?PR?_RESPONDE_WRITE_TARJETA_SECTOR1_BLOQUE0?VERIFICADOR
            CODE    BB9BH     0034H     UNIT         ?PR?INCREMENTE_TICKET?EEPROM
            CODE    BBCFH     0034H     UNIT         ?PR?ADDR_HORARIOS?PROG
            CODE    BC03H     0031H     UNIT         ?PR?_TARJETA_ROTACION?VERIFICADOR
            CODE    BC34H     0030H     UNIT         ?PR?PREGUNTA_PLACA?VERIFICADOR
            CODE    BC64H     002EH     UNIT         ?PR?TIMER0_INT?MAIN
            CODE    BC92H     002AH     UNIT         ?PR?COM_INITIALIZE?UART
BL51 BANKED LINKER/LOCATER V6.22.2.0                                                  05/31/2021  13:02:58  PAGE 6


            CODE    BCBCH     0028H     UNIT         ?PR?_WR_CLK?CLOCK
            CODE    BCE4H     0028H     UNIT         ?PR?COM_BAUDRATE?UART
            CODE    BD0CH     0028H     UNIT         ?PR?_ARMAR_TRAMA_TARJETA_SECTOR1_BLOQUE0?VERIFICADOR
            CODE    BD34H     0027H     UNIT         ?PR?_TX_CHRLCD?PANTALLAS
            CODE    BD5BH     0026H     UNIT         ?PR?COM_GETCHAR?UART
            CODE    BD81H     0026H     UNIT         ?PR?ANALIZA_PRESENCIA_MENSUAL?VERIFICADOR
            CODE    BDA7H     0026H     UNIT         ?PR?RX_MONITOR?MONITOR
            CODE    BDCDH     0023H     UNIT         ?PR?ANALIZA_PRESENCIA_ROTACION?VERIFICADOR
            CODE    BDF0H     0022H     UNIT         ?PR?_E_D_M?EEPROM
            CODE    BE12H     0022H     UNIT         ?PR?VALIDASENSOR_CERO?IO_SENSORES
            CODE    BE34H     0021H     UNIT         ?CO?PTO_PARALELO
            CODE    BE55H     0020H     UNIT         ?PR?ACKD?EEPROM
            CODE    BE75H     0020H     UNIT         ?PR?ACK_LECT?EEPROM
            CODE    BE95H     001FH     UNIT         ?PR?VALIDASENSOR?IO_SENSORES
            CODE    BEB4H     001FH     UNIT         ?PR?TIME_BIT?TIBBO
            CODE    BED3H     001EH     UNIT         ?PR?_BCD_HEX?CLOCK
            CODE    BEF1H     001BH     UNIT         ?PR?_DELAY_1MS?DELAY
            CODE    BF0CH     0018H     UNIT         ?PR?CLEAR_PLACA?MONITOR
            CODE    BF24H     0017H     UNIT         ?PR?DISPLAYCURSOR?PROG
            CODE    BF3BH     0017H     UNIT         ?PR?TIME_MBIT?TIBBO
            CODE    BF52H     0016H     UNIT         ?PR?DIR_BOARD_MONITOR?IO_SENSORES
            CODE    BF68H     0014H     UNIT         ?CO?CLOCK
            CODE    BF7CH     0014H     UNIT         ?PR?_ISSPACE?ISSPACE
            CODE    BF90H     0012H     UNIT         ?PR?_DELAY_20US?DELAY
            CODE    BFA2H     0012H     UNIT         ?PR?START?EEPROM
            CODE    BFB4H     0012H     UNIT         ?PR?BOTTON?IO_SENSORES
            CODE    BFC6H     0012H     UNIT         ?PR?PULSO_BUS?PTO_PARALELO
            CODE    BFD8H     0012H     UNIT         ?PR?COM_RBUFLEN?UART
            CODE    BFEAH     0012H     UNIT         ?PR?COM_TBUFLEN?UART
            CODE    BFFCH     0010H     UNIT         ?PR?INI_TIMER?MAIN
            CODE    C00CH     0010H     UNIT         ?PR?INICIA_BOARD?MAIN
            CODE    C01CH     000FH     UNIT         ?PR?_ISDIGIT?ISDIGIT
            CODE    C02BH     000CH     UNIT         ?PR?_GETKEY?MAIN
            CODE    C037H     000AH     UNIT         ?PR?STOP?EEPROM
            CODE    C041H     000AH     UNIT         ?PR?COND_INI_PTO?PTO_PARALELO
            CODE    C04BH     0009H     UNIT         ?PR?DEBUG_DIVIDIR_TEXTO?TIBBO
            CODE    C054H     0009H     UNIT         ?PR?CAPTURA_EXPULSA?VERIFICADOR
            CODE    C05DH     0007H     UNIT         ?PR?COND_INI_CLOCK?CLOCK
            CODE    C064H     0007H     UNIT         ?PR?SEL_FUNCION?IO_SENSORES
            CODE    C06BH     0007H     UNIT         ?PR?SEL_AUTO?IO_SENSORES
            CODE    C072H     0007H     UNIT         ?PR?SEL_PULSA?IO_SENSORES
            CODE    C079H     0007H     UNIT         ?PR?SEL_SENSOR2?IO_SENSORES
            CODE    C080H     0007H     UNIT         ?PR?SEL_SENSOR1?IO_SENSORES
            CODE    C087H     0007H     UNIT         ?PR?SEL_DIR1?IO_SENSORES
            CODE    C08EH     0007H     UNIT         ?PR?SEL_DIR2?IO_SENSORES
            CODE    C095H     0006H     UNIT         ?PR?P_ME?EEPROM
            CODE    C09BH     0005H     UNIT         ?PR?ON_TIMER0_INTERRUP?MAIN
            CODE    C0A0H     0005H     UNIT         ?CO?ACCESCAN
            CODE    C0A5H     0005H     UNIT         ?PR?COND_INI_TIBBO?TIBBO
            CODE    C0AAH     0003H     UNIT         ?PR?OFF_TIMER0_INTERRUP?MAIN
            CODE    C0ADH     0001H     UNIT         ?PR?DELAY?DELAY



OVERLAY MAP OF MODULE:   .\Objects\expedidor_v_01_raspberry (MAIN)


BL51 BANKED LINKER/LOCATER V6.22.2.0                                                  05/31/2021  13:02:58  PAGE 7


SEGMENT                                             BIT_GROUP          DATA_GROUP          XDATA_GROUP
  +--> CALLED SEGMENT                            START    LENGTH     START    LENGTH     START    LENGTH
--------------------------------------------------------------------------------------------------------
?C_C51STARTUP                                    -----    -----      -----    -----      -----    -----
  +--> ?PR?MAIN?MAIN
  +--> ?C_INITSEG

?PR?MAIN?MAIN                                    -----    -----      -----    -----      0000H    0001H
  +--> ?PR?INI_TIMER?MAIN
  +--> ?PR?ON_TIMER0_INTERRUP?MAIN
  +--> ?PR?COM_INITIALIZE?UART
  +--> ?PR?COM_BAUDRATE?UART
  +--> ?PR?INICIA_BOARD?MAIN
  +--> ?PR?TIME_BIT?TIBBO
  +--> ?PR?_DELAY_20US?DELAY
  +--> ?PR?TIME_MBIT?TIBBO
  +--> ?PR?_TX_AUX?TIBBO
  +--> ?PR?SEL_FUNCION?IO_SENSORES
  +--> ?PR?MENU?PROG
  +--> ?PR?VARIABLE_INICIO?MAIN
  +--> ?PR?SECUENCIA_INICIO_EXPEDIDOR?VERIFI...
  +--> ?PR?RX_MONITOR?MONITOR
  +--> ?PR?_SECUENCIAEXPEDIDORMF?VERIFICADOR
  +--> ?PR?_RECIBE_PORT?PTO_PARALELO
  +--> ?PR?_DEBUG_PTO_PARALELO?TIBBO
  +--> ?PR?_VALIDA_TRAMA_PTO?ACCESCAN
  +--> ?PR?MSJ_LCD_INFORMATIVO?IO_SENSORES

?PR?COM_INITIALIZE?UART                          -----    -----      -----    -----      -----    -----
  +--> ?PR?COM_BAUDRATE?UART

?PR?INICIA_BOARD?MAIN                            -----    -----      -----    -----      -----    -----
  +--> ?PR?COND_INI_TIBBO?TIBBO
  +--> ?PR?COND_INI_CLOCK?CLOCK
  +--> ?PR?COND_INI_PTO?PTO_PARALELO

?PR?_TX_AUX?TIBBO                                -----    -----      -----    -----      -----    -----
  +--> ?PR?TIME_BIT?TIBBO

?PR?MENU?PROG                                    -----    -----      -----    -----      0001H    0045H
  +--> ?CO?PROG
  +--> ?PR?PRINTF?PRINTF
  +--> ?PR?_RD_EEPROM?EEPROM
  +--> ?PR?FIRST_CLAVE?PROG
  +--> ?PR?_WR_EEPROM?EEPROM
  +--> ?PR?_LEERMEMORIA?EEPROM
  +--> ?PR?_HASH_ID?PROG
  +--> ?PR?_INGRESADATO?PROG
  +--> ?PR?_GETCMD?PROG
  +--> ?PR?_ESCRIBIRMEMORIA?EEPROM
  +--> ?PR?_VALIDARCLAVE?PROG
  +--> ?PR?DISPLAYCURSOR?PROG
  +--> ?PR?_STRLEN?STRLEN
  +--> ?PR?_GETOPTION?PROG
  +--> ?PR?_STRCAT?STRCAT
  +--> ?PR?_LISTACOMANDOS?PROG
  +--> ?PR?PROG_ID_CLIENTE?PROG
BL51 BANKED LINKER/LOCATER V6.22.2.0                                                  05/31/2021  13:02:58  PAGE 8


  +--> ?PR?PROG_COD_PARK?PROG
  +--> ?PR?PROG_TIEMPO_GRACIA?PROG
  +--> ?PR?PROG_SIN_COBRO?PROG
  +--> ?PR?PROG_DEBUG?PROG
  +--> ?PR?PROG_USE_LPR?PROG
  +--> ?PR?TIPO_PANTALLA?PROG
  +--> ?PR?PROG_TARJETA_AUTOMATICA_O_BOTON?PROG
  +--> ?PR?PROG_ANTIPASSBACK?PROG
  +--> ?PR?PROG_PLACA?PROG
  +--> ?PR?PROG_ADDRESS_HIGH_BOARD?PROG
  +--> ?PR?PROG_HORARIOS?PROG
  +--> ?PR?PROG_VALIDAR_TIPO_VEHICULO_MENSUA...
  +--> ?PR?PROG_APB_MENSUAL?PROG
  +--> ?PR?VER_PROG?PROG
  +--> ?PR?SHOW?PROG
  +--> ?PR?PROG_FECHA_VENCIMIENTO?PROG

?PR?PRINTF?PRINTF                                0020H.0  0001H.1    0008H    0005H      0077H    0030H
  +--> ?PR?_PUTCHAR?MAIN

?PR?_PUTCHAR?MAIN                                -----    -----      -----    -----      00A7H    0003H
  +--> ?PR?_COM_PUTCHAR?UART

?PR?_COM_PUTCHAR?UART                            -----    -----      -----    -----      00AAH    0001H
  +--> ?PR?COM_TBUFLEN?UART

?PR?_RD_EEPROM?EEPROM                            -----    -----      -----    -----      -----    -----
  +--> ?PR?START?EEPROM
  +--> ?PR?ACK_LECT?EEPROM
  +--> ?PR?_E_D_M?EEPROM
  +--> ?PR?ACKD?EEPROM
  +--> ?PR?L_D_M?EEPROM
  +--> ?PR?STOP?EEPROM

?PR?ACK_LECT?EEPROM                              -----    -----      -----    -----      -----    -----
  +--> ?PR?_E_D_M?EEPROM

?PR?_E_D_M?EEPROM                                -----    -----      -----    -----      -----    -----
  +--> ?PR?P_ME?EEPROM

?PR?ACKD?EEPROM                                  -----    -----      -----    -----      -----    -----
  +--> ?PR?_E_D_M?EEPROM

?PR?FIRST_CLAVE?PROG                             -----    -----      -----    -----      0046H    000BH
  +--> ?PR?_BLOCK_READ_CLOCK_ASCII?CLOCK
  +--> ?PR?_HASH_ID?PROG
  +--> ?PR?_ESCRIBIRMEMORIA?EEPROM

?PR?_BLOCK_READ_CLOCK_ASCII?CLOCK                -----    -----      -----    -----      0051H    0003H
  +--> ?PR?_LEE_CLK?CLOCK

?PR?_LEE_CLK?CLOCK                               -----    -----      -----    -----      00B1H    0003H
  +--> ?PR?_DELAY_20US?DELAY
  +--> ?PR?_EB_CLK?CLOCK
  +--> ?PR?P_CK?CLOCK

?PR?_EB_CLK?CLOCK                                -----    -----      -----    -----      00B4H    0003H
BL51 BANKED LINKER/LOCATER V6.22.2.0                                                  05/31/2021  13:02:58  PAGE 9


  +--> ?PR?P_CK?CLOCK

?PR?P_CK?CLOCK                                   -----    -----      -----    -----      -----    -----
  +--> ?PR?DELAY?DELAY

?PR?_HASH_ID?PROG                                -----    -----      -----    -----      005DH    003FH
  +--> ?CO?PROG
  +--> ?PR?_LEERMEMORIA?EEPROM
  +--> ?PR?_CHECK_FECHAOUT?CLOCK
  +--> ?PR?_STRLEN?STRLEN

?PR?_LEERMEMORIA?EEPROM                          -----    -----      -----    -----      009CH    0005H
  +--> ?PR?_RD_EEPROM?EEPROM

?PR?_CHECK_FECHAOUT?CLOCK                        -----    -----      -----    -----      009CH    0012H
  +--> ?PR?_BLOCK_READ_CLOCK_HEX?CLOCK

?PR?_BLOCK_READ_CLOCK_HEX?CLOCK                  -----    -----      -----    -----      00AEH    0003H
  +--> ?PR?_LEE_CLK?CLOCK
  +--> ?PR?_BCD_HEX?CLOCK

?PR?_ESCRIBIRMEMORIA?EEPROM                      -----    -----      -----    -----      005DH    0005H
  +--> ?PR?_WR_EEPROM?EEPROM

?PR?_WR_EEPROM?EEPROM                            -----    -----      -----    -----      -----    -----
  +--> ?PR?START?EEPROM
  +--> ?PR?ACKD?EEPROM
  +--> ?PR?_E_D_M?EEPROM
  +--> ?PR?STOP?EEPROM
  +--> ?PR?_DELAY_1MS?DELAY
  +--> ?PR?_DELAY_20US?DELAY

?PR?_DELAY_1MS?DELAY                             -----    -----      -----    -----      -----    -----
  +--> ?PR?_DELAY_20US?DELAY

?PR?_INGRESADATO?PROG                            -----    -----      -----    -----      0071H    0004H
  +--> ?PR?_GETKEY?MAIN
  +--> ?CO?PROG
  +--> ?PR?PRINTF?PRINTF
  +--> ?PR?_PUTCHAR?MAIN

?PR?_GETKEY?MAIN                                 -----    -----      -----    -----      -----    -----
  +--> ?PR?COM_GETCHAR?UART

?PR?COM_GETCHAR?UART                             -----    -----      -----    -----      -----    -----
  +--> ?PR?COM_RBUFLEN?UART

?PR?_GETCMD?PROG                                 -----    -----      -----    -----      005DH    0007H
  +--> ?CO?PROG
  +--> ?PR?_STRTOK?STRTOK

?PR?_STRTOK?STRTOK                               -----    -----      -----    -----      0064H    0006H
  +--> ?PR?_STRSPN?STRSPN
  +--> ?PR?_STRPBRK?STRPBRK

?PR?_STRSPN?STRSPN                               -----    -----      -----    -----      006AH    0008H

BL51 BANKED LINKER/LOCATER V6.22.2.0                                                  05/31/2021  13:02:58  PAGE 10


?PR?_STRPBRK?STRPBRK                             -----    -----      -----    -----      006AH    0009H

?PR?_VALIDARCLAVE?PROG                           -----    -----      -----    -----      005DH    000EH

?PR?DISPLAYCURSOR?PROG                           -----    -----      -----    -----      -----    -----
  +--> ?CO?PROG
  +--> ?PR?PRINTF?PRINTF

?PR?_GETOPTION?PROG                              -----    -----      -----    -----      0046H    000BH
  +--> ?CO?PROG
  +--> ?PR?_STRTOK?STRTOK

?PR?_STRCAT?STRCAT                               -----    -----      -----    -----      0046H    0009H

?PR?_LISTACOMANDOS?PROG                          -----    -----      -----    -----      0046H    0007H

?PR?PROG_ID_CLIENTE?PROG                         -----    -----      -----    -----      0046H    000CH
  +--> ?PR?_RD_EEPROM?EEPROM
  +--> ?CO?PROG
  +--> ?PR?PRINTF?PRINTF
  +--> ?PR?_INGRESADATO?PROG
  +--> ?PR?_ATOI?ATOI
  +--> ?PR?_WR_EEPROM?EEPROM

?PR?_ATOI?ATOI                                   0020H.0  0000H.1    -----    -----      0071H    0005H
  +--> ?PR?_ISSPACE?ISSPACE
  +--> ?PR?_ISDIGIT?ISDIGIT

?PR?PROG_COD_PARK?PROG                           -----    -----      -----    -----      0046H    000CH
  +--> ?PR?_RD_EEPROM?EEPROM
  +--> ?CO?PROG
  +--> ?PR?PRINTF?PRINTF
  +--> ?PR?_INGRESADATO?PROG
  +--> ?PR?_ATOI?ATOI
  +--> ?PR?_WR_EEPROM?EEPROM

?PR?PROG_TIEMPO_GRACIA?PROG                      -----    -----      -----    -----      0046H    000CH
  +--> ?PR?_RD_EEPROM?EEPROM
  +--> ?CO?PROG
  +--> ?PR?PRINTF?PRINTF
  +--> ?PR?_INGRESADATO?PROG
  +--> ?PR?_ATOI?ATOI
  +--> ?PR?_WR_EEPROM?EEPROM

?PR?PROG_SIN_COBRO?PROG                          -----    -----      -----    -----      0046H    000CH
  +--> ?PR?_RD_EEPROM?EEPROM
  +--> ?CO?PROG
  +--> ?PR?PRINTF?PRINTF
  +--> ?PR?_INGRESADATO?PROG
  +--> ?PR?_ATOI?ATOI
  +--> ?PR?_WR_EEPROM?EEPROM

?PR?PROG_DEBUG?PROG                              -----    -----      -----    -----      0046H    000CH
  +--> ?PR?_RD_EEPROM?EEPROM
  +--> ?CO?PROG
  +--> ?PR?PRINTF?PRINTF
  +--> ?PR?_INGRESADATO?PROG
BL51 BANKED LINKER/LOCATER V6.22.2.0                                                  05/31/2021  13:02:58  PAGE 11


  +--> ?PR?_ATOI?ATOI
  +--> ?PR?_WR_EEPROM?EEPROM

?PR?PROG_USE_LPR?PROG                            -----    -----      -----    -----      0046H    000CH
  +--> ?PR?_RD_EEPROM?EEPROM
  +--> ?CO?PROG
  +--> ?PR?PRINTF?PRINTF
  +--> ?PR?_INGRESADATO?PROG
  +--> ?PR?_ATOI?ATOI
  +--> ?PR?_WR_EEPROM?EEPROM

?PR?TIPO_PANTALLA?PROG                           -----    -----      -----    -----      0046H    000CH
  +--> ?PR?_RD_EEPROM?EEPROM
  +--> ?CO?PROG
  +--> ?PR?PRINTF?PRINTF
  +--> ?PR?_INGRESADATO?PROG
  +--> ?PR?_ATOI?ATOI
  +--> ?PR?_WR_EEPROM?EEPROM

?PR?PROG_TARJETA_AUTOMATICA_O_BOTON?PROG         -----    -----      -----    -----      0046H    000CH
  +--> ?PR?_RD_EEPROM?EEPROM
  +--> ?CO?PROG
  +--> ?PR?PRINTF?PRINTF
  +--> ?PR?_INGRESADATO?PROG
  +--> ?PR?_ATOI?ATOI
  +--> ?PR?_WR_EEPROM?EEPROM

?PR?PROG_ANTIPASSBACK?PROG                       -----    -----      -----    -----      0046H    000CH
  +--> ?PR?_RD_EEPROM?EEPROM
  +--> ?CO?PROG
  +--> ?PR?PRINTF?PRINTF
  +--> ?PR?_INGRESADATO?PROG
  +--> ?PR?_ATOI?ATOI
  +--> ?PR?_WR_EEPROM?EEPROM

?PR?PROG_PLACA?PROG                              -----    -----      -----    -----      0046H    000CH
  +--> ?PR?_RD_EEPROM?EEPROM
  +--> ?CO?PROG
  +--> ?PR?PRINTF?PRINTF
  +--> ?PR?_INGRESADATO?PROG
  +--> ?PR?_ATOI?ATOI
  +--> ?PR?_WR_EEPROM?EEPROM

?PR?PROG_ADDRESS_HIGH_BOARD?PROG                 -----    -----      -----    -----      0046H    000CH
  +--> ?PR?_RD_EEPROM?EEPROM
  +--> ?CO?PROG
  +--> ?PR?PRINTF?PRINTF
  +--> ?PR?_INGRESADATO?PROG
  +--> ?PR?_ATOI?ATOI
  +--> ?PR?_WR_EEPROM?EEPROM

?PR?PROG_HORARIOS?PROG                           -----    -----      -----    -----      0046H    001BH
  +--> ?PR?ADDR_HORARIOS?PROG
  +--> ?CO?PROG
  +--> ?PR?PRINTF?PRINTF
  +--> ?PR?_INGRESADATO?PROG
  +--> ?PR?_ATOI?ATOI
BL51 BANKED LINKER/LOCATER V6.22.2.0                                                  05/31/2021  13:02:58  PAGE 12


  +--> ?PR?_PROG_HORARIOS_ON_OFF?PROG
  +--> ?PR?_WR_EEPROM?EEPROM
  +--> ?PR?_PROG_HORARIO_DIAS?PROG
  +--> ?PR?_PROG_HORARIO_DESDE_HASTA?PROG
  +--> ?PR?_RD_EEPROM?EEPROM

?PR?ADDR_HORARIOS?PROG                           -----    -----      -----    -----      0074H    000BH

?PR?_PROG_HORARIOS_ON_OFF?PROG                   -----    -----      -----    -----      0061H    0010H
  +--> ?PR?_RD_EEPROM?EEPROM
  +--> ?CO?PROG
  +--> ?PR?PRINTF?PRINTF
  +--> ?PR?_INGRESADATO?PROG
  +--> ?PR?_ATOI?ATOI
  +--> ?PR?_WR_EEPROM?EEPROM

?PR?_PROG_HORARIO_DIAS?PROG                      -----    -----      -----    -----      0061H    000FH
  +--> ?CO?PROG
  +--> ?PR?PRINTF?PRINTF
  +--> ?PR?_INGRESADATO?PROG
  +--> ?PR?_WR_EEPROM?EEPROM
  +--> ?PR?_RD_EEPROM?EEPROM

?PR?_PROG_HORARIO_DESDE_HASTA?PROG               -----    -----      -----    -----      0061H    000CH
  +--> ?CO?PROG
  +--> ?PR?PRINTF?PRINTF
  +--> ?PR?_INGRESADATO?PROG
  +--> ?PR?_WR_EEPROM?EEPROM
  +--> ?PR?_RD_EEPROM?EEPROM

?PR?PROG_VALIDAR_TIPO_VEHICULO_MENSUA...         -----    -----      -----    -----      0046H    000CH
  +--> ?PR?_RD_EEPROM?EEPROM
  +--> ?CO?PROG
  +--> ?PR?PRINTF?PRINTF
  +--> ?PR?_INGRESADATO?PROG
  +--> ?PR?_ATOI?ATOI
  +--> ?PR?_WR_EEPROM?EEPROM

?PR?PROG_APB_MENSUAL?PROG                        -----    -----      -----    -----      0046H    000CH
  +--> ?PR?_RD_EEPROM?EEPROM
  +--> ?CO?PROG
  +--> ?PR?PRINTF?PRINTF
  +--> ?PR?_INGRESADATO?PROG
  +--> ?PR?_ATOI?ATOI
  +--> ?PR?_WR_EEPROM?EEPROM

?PR?VER_PROG?PROG                                -----    -----      -----    -----      0046H    0013H
  +--> ?PR?_RD_EEPROM?EEPROM
  +--> ?CO?PROG
  +--> ?PR?PRINTF?PRINTF
  +--> ?PR?VER_HORARIO?PROG
  +--> ?PR?_LEERMEMORIA?EEPROM
  +--> ?PR?_HEX_ASCII?CLOCK

?PR?VER_HORARIO?PROG                             -----    -----      -----    -----      0059H    001BH
  +--> ?PR?ADDR_HORARIOS?PROG
  +--> ?CO?PROG
BL51 BANKED LINKER/LOCATER V6.22.2.0                                                  05/31/2021  13:02:58  PAGE 13


  +--> ?PR?PRINTF?PRINTF
  +--> ?PR?_RD_EEPROM?EEPROM
  +--> ?PR?_VER_HORARIO_DIAS?PROG
  +--> ?PR?_VER_HORARIO_DESDE_HASTA?PROG

?PR?_VER_HORARIO_DIAS?PROG                       -----    -----      -----    -----      0074H    0003H
  +--> ?PR?_RD_EEPROM?EEPROM
  +--> ?CO?PROG
  +--> ?PR?PRINTF?PRINTF

?PR?_VER_HORARIO_DESDE_HASTA?PROG                -----    -----      -----    -----      0074H    0002H
  +--> ?CO?PROG
  +--> ?PR?PRINTF?PRINTF
  +--> ?PR?_RD_EEPROM?EEPROM

?PR?_HEX_ASCII?CLOCK                             -----    -----      -----    -----      005DH    0006H
  +--> ?PR?_HEX_BCD?CLOCK

?PR?SHOW?PROG                                    -----    -----      -----    -----      -----    -----
  +--> ?CO?PROG
  +--> ?PR?PRINTF?PRINTF

?PR?PROG_FECHA_VENCIMIENTO?PROG                  -----    -----      -----    -----      0046H    0017H
  +--> ?PR?_LEERMEMORIA?EEPROM
  +--> ?PR?_HEX_ASCII?CLOCK
  +--> ?CO?PROG
  +--> ?PR?PRINTF?PRINTF
  +--> ?PR?_HASH_ID?PROG
  +--> ?PR?_INGRESADATO?PROG
  +--> ?PR?_GETCMD?PROG
  +--> ?PR?_ESCRIBIRMEMORIA?EEPROM
  +--> ?PR?_VALIDARCLAVE?PROG
  +--> ?PR?_ATOI?ATOI
  +--> ?PR?_WR_EEPROM?EEPROM

?PR?VARIABLE_INICIO?MAIN                         -----    -----      -----    -----      -----    -----
  +--> ?PR?_RD_EEPROM?EEPROM

?PR?SECUENCIA_INICIO_EXPEDIDOR?VERIFI...         -----    -----      -----    -----      0001H    0001H
  +--> ?PR?_INICIALIZA?LINTECH
  +--> ?PR?TRAMA_VALIDACION_P_N?VERIFICADOR
  +--> ?CO?VERIFICADOR
  +--> ?PR?_DEBUG_TXT_TIBBO?TIBBO
  +--> ?PR?_DEBUGBUFFERMF?TIBBO
  +--> ?PR?DWLOAD_EEPROM?LINTECH

?PR?_INICIALIZA?LINTECH                          -----    -----      -----    -----      0002H    000CH
  +--> ?CO?LINTECH
  +--> ?PR?_DEBUG_TXT_TIBBO?TIBBO
  +--> ?PR?_DEBUGBUFFERMF?TIBBO
  +--> ?PR?_ESCRIBIRCADENASOFT_BUFFER?MAIN

?PR?_DEBUG_TXT_TIBBO?TIBBO                       -----    -----      -----    -----      004EH    0004H
  +--> ?PR?_DEBUG_CHR_TIBBO?TIBBO
  +--> ?CO?TIBBO
  +--> ?PR?_TX_AUX?TIBBO

BL51 BANKED LINKER/LOCATER V6.22.2.0                                                  05/31/2021  13:02:58  PAGE 14


?PR?_DEBUG_CHR_TIBBO?TIBBO                       -----    -----      -----    -----      -----    -----
  +--> ?PR?_TX_AUX?TIBBO

?PR?_DEBUGBUFFERMF?TIBBO                         -----    -----      -----    -----      0027H    0006H
  +--> ?CO?TIBBO
  +--> ?PR?_DEBUG_TXT_TIBBO?TIBBO
  +--> ?PR?_DEBUG_CHR_TIBBO?TIBBO
  +--> ?PR?_TX_AUX?TIBBO

?PR?_ESCRIBIRCADENASOFT_BUFFER?MAIN              -----    -----      -----    -----      0027H    0006H
  +--> ?PR?_PUTCHAR?MAIN

?PR?TRAMA_VALIDACION_P_N?VERIFICADOR             -----    -----      -----    -----      -----    -----
  +--> ?CO?VERIFICADOR
  +--> ?PR?_DEBUG_TXT_TIBBO?TIBBO

?PR?DWLOAD_EEPROM?LINTECH                        -----    -----      -----    -----      0002H    0016H
  +--> ?CO?LINTECH
  +--> ?PR?_DEBUG_TXT_TIBBO?TIBBO
  +--> ?PR?_DEBUGBUFFERMF?TIBBO
  +--> ?PR?_ESCRIBIRCADENASOFT_BUFFER?MAIN

?PR?RX_MONITOR?MONITOR                           -----    -----      -----    -----      0009H    000DH
  +--> ?PR?_RECIBE_CMD_MONITOR?MONITOR
  +--> ?PR?_DEBUG_MONITOR?TIBBO
  +--> ?PR?_VALIDA_TRAMA_MONITOR?MONITOR

?PR?_RECIBE_CMD_MONITOR?MONITOR                  -----    -----      -----    -----      0016H    0009H
  +--> ?PR?RX_DATA?TIBBO

?PR?RX_DATA?TIBBO                                -----    -----      -----    -----      -----    -----
  +--> ?PR?TIME_MBIT?TIBBO
  +--> ?PR?TIME_BIT?TIBBO

?PR?_DEBUG_MONITOR?TIBBO                         -----    -----      -----    -----      0016H    0004H
  +--> ?PR?DEBUG_DIVIDIR_TEXTO?TIBBO
  +--> ?CO?TIBBO
  +--> ?PR?_DEBUG_TXT_TIBBO?TIBBO

?PR?DEBUG_DIVIDIR_TEXTO?TIBBO                    -----    -----      -----    -----      -----    -----
  +--> ?CO?TIBBO
  +--> ?PR?_DEBUG_TXT_TIBBO?TIBBO

?PR?_VALIDA_TRAMA_MONITOR?MONITOR                -----    -----      -----    -----      0016H    0006H
  +--> ?PR?_DELAY_10MS?DELAY
  +--> ?PR?_TX_AUX?TIBBO

?PR?_DELAY_10MS?DELAY                            -----    -----      -----    -----      001CH    0004H
  +--> ?PR?_DELAY_1MS?DELAY

?PR?_SECUENCIAEXPEDIDORMF?VERIFICADOR            -----    -----      -----    -----      0001H    0001H
  +--> ?PR?_CHECK_STATUS?LINTECH
  +--> ?PR?_LOAD_SECUENCIA_EXPEDIDOR?VERIFIC...
  +--> ?PR?RX_MONITOR?MONITOR
  +--> ?PR?_RTA_CMD_TRANSPORTE?VERIFICADOR
  +--> ?PR?_MOV_CARD?LINTECH
  +--> ?PR?_CARD_INSERCION?LINTECH
BL51 BANKED LINKER/LOCATER V6.22.2.0                                                  05/31/2021  13:02:58  PAGE 15


  +--> ?PR?AUT_CARD_CHECK_STATUS?LINTECH
  +--> ?PR?LOADVERIFY_EEPROM?LINTECH
  +--> ?PR?_RD_MF?LINTECH
  +--> ?PR?_WR_MF?LINTECH
  +--> ?PR?ANALIZA_CARD_MOUNT_RF?VERIFICADOR
  +--> ?PR?DWLOAD_EEPROM?LINTECH
  +--> ?PR?ENTREGA_CARD_CAPTURA?VERIFICADOR
  +--> ?PR?_SEND_PTO_PARALELO?VERIFICADOR
  +--> ?PR?_WAIT_PLACA?VERIFICADOR
  +--> ?PR?UNIQUE_IDENTIFIER_UID?LINTECH
  +--> ?PR?_PREGUNTA_LPR?VERIFICADOR
  +--> ?PR?PREGUNTA_PLACA?VERIFICADOR
  +--> ?PR?_VALIDA_TIPO_TARJETA?VERIFICADOR
  +--> ?PR?POWER_OFF?LINTECH
  +--> ?PR?CLAVE_SEGURIDAD_S2?LINTECH
  +--> ?PR?_RESPONDE_REELECTURA_TARJETA_SECT...
  +--> ?PR?RESPONDE_ESTADO_SENSORES_TRANSPOR...
  +--> ?PR?RESPONDE_TIPO_TARJETA?VERIFICADOR
  +--> ?PR?_RESPONDE_LECTURA_TARJETA_SECTOR1...
  +--> ?PR?_RESPONDE_LECTURA_TARJETA_SECTOR1...
  +--> ?PR?_RESPONDE_LECTURA_TARJETA_SECTOR1...
  +--> ?PR?_RESPONDE_WRITE_TARJETA_SECTOR1_B...
  +--> ?PR?_RESPONDE_WRITE_TARJETA_SECTOR2_B...
  +--> ?PR?_RESPONDE_WRITE_TARJETA_SECTOR1_B...
  +--> ?PR?_RESPONDE_WRITE_TARJETA_SECTOR1_B...
  +--> ?PR?_DISPARO_LOCK_ENTRADA_VEHICULO?VE...
  +--> ?PR?_RESPUESTA_SEGUNDA_CLAVE?VERIFICADOR
  +--> ?PR?ANALIZA_PRESENCIA_MENSUAL?VERIFIC...
  +--> ?PR?_ANALIZA_UID_CARD?VERIFICADOR
  +--> ?PR?ANALIZA_PRESENCIA_ROTACION?VERIFI...
  +--> ?CO?VERIFICADOR
  +--> ?PR?_DEBUG_TXT_TIBBO?TIBBO

?PR?_CHECK_STATUS?LINTECH                        -----    -----      -----    -----      0002H    000BH
  +--> ?CO?LINTECH
  +--> ?PR?_DEBUG_TXT_TIBBO?TIBBO
  +--> ?PR?_DEBUGBUFFERMF?TIBBO
  +--> ?PR?_ESCRIBIRCADENASOFT_BUFFER?MAIN

?PR?_LOAD_SECUENCIA_EXPEDIDOR?VERIFIC...         -----    -----      -----    -----      0002H    0009H

?PR?_RTA_CMD_TRANSPORTE?VERIFICADOR              -----    -----      -----    -----      0002H    0005H
  +--> ?PR?TRAMA_VALIDACION_P_N?VERIFICADOR
  +--> ?CO?VERIFICADOR
  +--> ?PR?_DEBUG_TXT_TIBBO?TIBBO
  +--> ?PR?_DEBUGBUFFERMF?TIBBO
  +--> ?PR?ERROR_RX_PTO?VERIFICADOR

?PR?ERROR_RX_PTO?VERIFICADOR                     -----    -----      -----    -----      0007H    0001H
  +--> ?CO?VERIFICADOR
  +--> ?PR?_DEBUG_TXT_TIBBO?TIBBO
  +--> ?PR?_DEBUG_CHR_TIBBO?TIBBO
  +--> ?PR?_DELAY_10MS?DELAY

?PR?_MOV_CARD?LINTECH                            -----    -----      -----    -----      0002H    000CH
  +--> ?CO?LINTECH
  +--> ?PR?_DEBUG_TXT_TIBBO?TIBBO
BL51 BANKED LINKER/LOCATER V6.22.2.0                                                  05/31/2021  13:02:58  PAGE 16


  +--> ?PR?_DEBUGBUFFERMF?TIBBO
  +--> ?PR?_ESCRIBIRCADENASOFT_BUFFER?MAIN

?PR?_CARD_INSERCION?LINTECH                      -----    -----      -----    -----      0002H    000AH
  +--> ?CO?LINTECH
  +--> ?PR?_DEBUG_TXT_TIBBO?TIBBO
  +--> ?PR?_DEBUGBUFFERMF?TIBBO
  +--> ?PR?_ESCRIBIRCADENASOFT_BUFFER?MAIN

?PR?AUT_CARD_CHECK_STATUS?LINTECH                -----    -----      -----    -----      0002H    000BH
  +--> ?CO?LINTECH
  +--> ?PR?_DEBUG_TXT_TIBBO?TIBBO
  +--> ?PR?_DEBUGBUFFERMF?TIBBO
  +--> ?PR?_ESCRIBIRCADENASOFT_BUFFER?MAIN

?PR?LOADVERIFY_EEPROM?LINTECH                    -----    -----      -----    -----      0002H    0010H
  +--> ?CO?LINTECH
  +--> ?PR?_DEBUG_TXT_TIBBO?TIBBO
  +--> ?PR?_DEBUGBUFFERMF?TIBBO
  +--> ?PR?_ESCRIBIRCADENASOFT_BUFFER?MAIN

?PR?_RD_MF?LINTECH                               -----    -----      -----    -----      0002H    0012H
  +--> ?CO?LINTECH
  +--> ?PR?_DEBUG_TXT_TIBBO?TIBBO
  +--> ?PR?_DEBUG_CHR_TIBBO?TIBBO
  +--> ?PR?_DEBUGBUFFERMF?TIBBO
  +--> ?PR?_ESCRIBIRCADENASOFT_BUFFER?MAIN

?PR?_WR_MF?LINTECH                               -----    -----      -----    -----      0002H    0025H
  +--> ?CO?LINTECH
  +--> ?PR?_DEBUG_TXT_TIBBO?TIBBO
  +--> ?PR?_DEBUG_CHR_TIBBO?TIBBO
  +--> ?PR?_DEBUGBUFFERMF?TIBBO
  +--> ?PR?_ESCRIBIRCADENASOFT_BUFFER?MAIN

?PR?ANALIZA_CARD_MOUNT_RF?VERIFICADOR            -----    -----      -----    -----      0002H    0001H
  +--> ?CO?VERIFICADOR
  +--> ?PR?_DEBUG_TXT_TIBBO?TIBBO

?PR?ENTREGA_CARD_CAPTURA?VERIFICADOR             -----    -----      -----    -----      0002H    0001H
  +--> ?CO?VERIFICADOR
  +--> ?PR?_DEBUG_TXT_TIBBO?TIBBO
  +--> ?PR?SEL_SENSOR2?IO_SENSORES
  +--> ?PR?VALIDASENSOR?IO_SENSORES
  +--> ?PR?VALIDA_SENSOR1_AUTO?IO_SENSORES

?PR?VALIDA_SENSOR1_AUTO?IO_SENSORES              -----    -----      -----    -----      0011H    0001H
  +--> ?PR?SEL_SENSOR1?IO_SENSORES
  +--> ?PR?SEL_AUTO?IO_SENSORES
  +--> ?CO?IO_SENSORES
  +--> ?PR?_DEBUG_TXT_TIBBO?TIBBO
  +--> ?PR?BOTTON?IO_SENSORES

?PR?BOTTON?IO_SENSORES                           -----    -----      -----    -----      -----    -----
  +--> ?PR?SEL_PULSA?IO_SENSORES
  +--> ?CO?IO_SENSORES
  +--> ?PR?_DEBUG_TXT_TIBBO?TIBBO
BL51 BANKED LINKER/LOCATER V6.22.2.0                                                  05/31/2021  13:02:58  PAGE 17



?PR?_SEND_PTO_PARALELO?VERIFICADOR               -----    -----      -----    -----      0002H    0007H
  +--> ?PR?_ARMAR_TRAMA_PTO_PARALELO_EXPEDID...
  +--> ?PR?_ARMAR_TRAMA_PTO_PARALELO_EXPEDID...
  +--> ?PR?INCREMENTE_TICKET?EEPROM
  +--> ?PR?_SEND_PORT?PTO_PARALELO
  +--> ?CO?VERIFICADOR
  +--> ?PR?_DEBUG_TXT_TIBBO?TIBBO
  +--> ?PR?_DEBUGBUFFERMF?TIBBO
  +--> ?PR?CLEAR_PLACA?MONITOR

?PR?_ARMAR_TRAMA_PTO_PARALELO_EXPEDID...         -----    -----      -----    -----      0009H    0006H
  +--> ?PR?_BCD_HEX?CLOCK
  +--> ?PR?_RD_EEPROM?EEPROM

?PR?_ARMAR_TRAMA_PTO_PARALELO_EXPEDID...         -----    -----      -----    -----      0009H    0012H
  +--> ?PR?LEE_NO_TICKET?EEPROM
  +--> ?PR?_STRCAT?STRCAT
  +--> ?PR?_STRLEN?STRLEN
  +--> ?PR?_BCD_HEX?CLOCK
  +--> ?PR?_RD_EEPROM?EEPROM

?PR?LEE_NO_TICKET?EEPROM                         -----    -----      -----    -----      0043H    000BH
  +--> ?PR?READ_EEPROM_TICKET?EEPROM
  +--> ?CO?EEPROM
  +--> ?PR?PRINTF?PRINTF
  +--> ?PR?_STRLEN?STRLEN
  +--> ?PR?_DEBUG_TXT_TIBBO?TIBBO

?PR?READ_EEPROM_TICKET?EEPROM                    -----    -----      -----    -----      004EH    0007H
  +--> ?PR?_RD_EEPROM?EEPROM

?PR?INCREMENTE_TICKET?EEPROM                     -----    -----      -----    -----      0009H    000BH
  +--> ?PR?READ_EEPROM_TICKET?EEPROM
  +--> ?CO?EEPROM
  +--> ?PR?PRINTF?PRINTF
  +--> ?PR?_WRITE_EEPROM_TICKET?EEPROM

?PR?_WRITE_EEPROM_TICKET?EEPROM                  -----    -----      -----    -----      0015H    000BH
  +--> ?CO?EEPROM
  +--> ?PR?_DEBUG_TXT_TIBBO?TIBBO
  +--> ?PR?_ATOL?ATOL
  +--> ?PR?_DEBUG_CHR_TIBBO?TIBBO
  +--> ?PR?_WR_EEPROM?EEPROM

?PR?_ATOL?ATOL                                   0020H.0  0000H.1    -----    -----      0020H    0007H
  +--> ?PR?_ISSPACE?ISSPACE
  +--> ?PR?_ISDIGIT?ISDIGIT

?PR?_SEND_PORT?PTO_PARALELO                      -----    -----      -----    -----      0016H    000AH
  +--> ?PR?PULSO_BUS?PTO_PARALELO
  +--> ?PR?_DELAY_20US?DELAY

?PR?PULSO_BUS?PTO_PARALELO                       -----    -----      -----    -----      -----    -----
  +--> ?PR?_DELAY_20US?DELAY

?PR?_WAIT_PLACA?VERIFICADOR                      -----    -----      -----    -----      0002H    0007H
BL51 BANKED LINKER/LOCATER V6.22.2.0                                                  05/31/2021  13:02:58  PAGE 18


  +--> ?CO?VERIFICADOR
  +--> ?PR?_DEBUG_TXT_TIBBO?TIBBO
  +--> ?PR?RX_MONITOR?MONITOR
  +--> ?PR?_RESPUESTA_PLACA_CANCEL?VERIFICADOR

?PR?_RESPUESTA_PLACA_CANCEL?VERIFICADOR          -----    -----      -----    -----      0009H    000AH
  +--> ?CO?VERIFICADOR
  +--> ?PR?_DEBUG_TXT_TIBBO?TIBBO
  +--> ?PR?_ARMAR_TRAMA_TARJETA_SECTOR1_BLOQ...

?PR?_ARMAR_TRAMA_TARJETA_SECTOR1_BLOQ...         -----    -----      -----    -----      0013H    0004H
  +--> ?PR?CLEAR_PLACA?MONITOR
  +--> ?PR?_RD_EEPROM?EEPROM

?PR?UNIQUE_IDENTIFIER_UID?LINTECH                -----    -----      -----    -----      0002H    000BH
  +--> ?CO?LINTECH
  +--> ?PR?_DEBUG_TXT_TIBBO?TIBBO
  +--> ?PR?_DEBUGBUFFERMF?TIBBO
  +--> ?PR?_ESCRIBIRCADENASOFT_BUFFER?MAIN

?PR?_PREGUNTA_LPR?VERIFICADOR                    -----    -----      -----    -----      0002H    0003H
  +--> ?CO?VERIFICADOR
  +--> ?PR?_DEBUG_TXT_TIBBO?TIBBO
  +--> ?PR?_HORA_ENTRADA_VEHICULO?CLOCK
  +--> ?PR?_RD_EEPROM?EEPROM
  +--> ?PR?_ARMAR_TRAMA_MONITOR?VERIFICADOR

?PR?_HORA_ENTRADA_VEHICULO?CLOCK                 -----    -----      -----    -----      0005H    0003H
  +--> ?PR?_LEE_CLK?CLOCK

?PR?_ARMAR_TRAMA_MONITOR?VERIFICADOR             -----    -----      -----    -----      0005H    000FH
  +--> ?PR?DIR_BOARD_MONITOR?IO_SENSORES
  +--> ?PR?LEE_NO_TICKET?EEPROM
  +--> ?PR?_STRCAT?STRCAT
  +--> ?PR?_BYTEHEX_DECIMAL?CLOCK
  +--> ?PR?_STRLEN?STRLEN
  +--> ?PR?_TWO_BYTEHEX_DECIMAL?CLOCK

?PR?DIR_BOARD_MONITOR?IO_SENSORES                -----    -----      -----    -----      -----    -----
  +--> ?PR?_RD_EEPROM?EEPROM

?PR?_BYTEHEX_DECIMAL?CLOCK                       -----    -----      -----    -----      0014H    0001H

?PR?_TWO_BYTEHEX_DECIMAL?CLOCK                   -----    -----      -----    -----      0014H    000CH
  +--> ?PR?_POW?POW

?PR?_POW?POW                                     -----    -----      -----    -----      0020H    000AH
  +--> ?PR?LOG?LOG
  +--> ?PR?EXP?EXP

?PR?LOG?LOG                                      0020H.0  0000H.1    -----    -----      002AH    0004H

?PR?PREGUNTA_PLACA?VERIFICADOR                   -----    -----      -----    -----      0002H    0001H
  +--> ?CO?VERIFICADOR
  +--> ?PR?_DEBUG_TXT_TIBBO?TIBBO
  +--> ?PR?_RD_EEPROM?EEPROM

BL51 BANKED LINKER/LOCATER V6.22.2.0                                                  05/31/2021  13:02:58  PAGE 19


?PR?_VALIDA_TIPO_TARJETA?VERIFICADOR             -----    -----      -----    -----      0002H    0007H
  +--> ?CO?VERIFICADOR
  +--> ?PR?_DEBUG_TXT_TIBBO?TIBBO
  +--> ?PR?_RD_EEPROM?EEPROM
  +--> ?PR?_TARJETA_MENSUAL?VERIFICADOR
  +--> ?PR?_SEND_PORTERR?PTO_PARALELO
  +--> ?PR?_PANTALLALCD?PANTALLAS
  +--> ?PR?CAPTURA_EXPULSA?VERIFICADOR
  +--> ?PR?_TARJETA_ROTACION?VERIFICADOR

?PR?_TARJETA_MENSUAL?VERIFICADOR                 -----    -----      -----    -----      0009H    0007H
  +--> ?PR?_HORARIOS?VERIFICADOR
  +--> ?PR?_CHECK_FECHAOUT?CLOCK
  +--> ?PR?_VALIDA_VEHICULO_CARD_MENSUAL?VER...
  +--> ?PR?CAPTURA_EXPULSA?VERIFICADOR
  +--> ?CO?VERIFICADOR
  +--> ?PR?_DEBUG_TXT_TIBBO?TIBBO
  +--> ?PR?_ARMAR_TRAMA_TARJETA_SECTOR1_BLOQ...
  +--> ?PR?_SEND_PORTERR?PTO_PARALELO
  +--> ?PR?_PANTALLALCD?PANTALLAS

?PR?_HORARIOS?VERIFICADOR                        -----    -----      -----    -----      0010H    0013H
  +--> ?PR?ADDR_HORARIOS?PROG
  +--> ?PR?_RD_EEPROM?EEPROM
  +--> ?PR?_LEE_CLK?CLOCK
  +--> ?CO?VERIFICADOR
  +--> ?PR?_DEBUG_TXT_TIBBO?TIBBO
  +--> ?PR?_DEBUG_CHR_TIBBO?TIBBO
  +--> ?PR?_BLOQUE_HORARIO?VERIFICADOR
  +--> ?PR?_PANTALLALCD?PANTALLAS

?PR?_BLOQUE_HORARIO?VERIFICADOR                  -----    -----      -----    -----      0023H    0007H
  +--> ?CO?VERIFICADOR
  +--> ?PR?_DEBUG_TXT_TIBBO?TIBBO
  +--> ?PR?_LEE_CLK?CLOCK
  +--> ?PR?_DEBUG_CHR_TIBBO?TIBBO
  +--> ?PR?_HORA_MAXIMA?VERIFICADOR
  +--> ?PR?_EN_HORARIO?VERIFICADOR
  +--> ?PR?_RD_EEPROM?EEPROM
  +--> ?PR?_SEND_PORTERR?PTO_PARALELO
  +--> ?PR?_PANTALLALCD?PANTALLAS

?PR?_HORA_MAXIMA?VERIFICADOR                     -----    -----      -----    -----      002FH    0008H
  +--> ?PR?_RD_EEPROM?EEPROM
  +--> ?PR?_DEBUG_CHR_TIBBO?TIBBO
  +--> ?CO?VERIFICADOR
  +--> ?PR?_DEBUG_TXT_TIBBO?TIBBO

?PR?_EN_HORARIO?VERIFICADOR                      -----    -----      -----    -----      002AH    0005H
  +--> ?CO?VERIFICADOR
  +--> ?PR?_DEBUG_TXT_TIBBO?TIBBO
  +--> ?PR?_HORA_MAXIMA?VERIFICADOR

?PR?_SEND_PORTERR?PTO_PARALELO                   -----    -----      -----    -----      002AH    0006H
  +--> ?PR?PULSO_BUS?PTO_PARALELO
  +--> ?PR?_DELAY_20US?DELAY

BL51 BANKED LINKER/LOCATER V6.22.2.0                                                  05/31/2021  13:02:58  PAGE 20


?PR?_PANTALLALCD?PANTALLAS                       -----    -----      -----    -----      002AH    000AH
  +--> ?CO?PANTALLAS
  +--> ?PR?_LCD_TXT?PANTALLAS
  +--> ?PR?_STRLEN?STRLEN
  +--> ?PR?_TX_CHRLCD?PANTALLAS
  +--> ?PR?_RASPBERRY_DATA?PANTALLAS

?PR?_LCD_TXT?PANTALLAS                           -----    -----      -----    -----      0043H    0005H
  +--> ?PR?_TX_CHRLCD?PANTALLAS

?PR?_TX_CHRLCD?PANTALLAS                         -----    -----      -----    -----      0048H    0002H
  +--> ?PR?_PUTCHAR?MAIN

?PR?_RASPBERRY_DATA?PANTALLAS                    -----    -----      -----    -----      0043H    0006H
  +--> ?PR?_STRLEN?STRLEN
  +--> ?PR?_PUTCHAR?MAIN

?PR?_VALIDA_VEHICULO_CARD_MENSUAL?VER...         -----    -----      -----    -----      0010H    0004H
  +--> ?CO?VERIFICADOR
  +--> ?PR?_DEBUG_TXT_TIBBO?TIBBO
  +--> ?PR?_RD_EEPROM?EEPROM
  +--> ?PR?_SEND_PORTERR?PTO_PARALELO

?PR?_ARMAR_TRAMA_TARJETA_SECTOR1_BLOQ...         -----    -----      -----    -----      0010H    0006H
  +--> ?PR?_BCD_HEX?CLOCK
  +--> ?PR?DIR_BOARD?IO_SENSORES

?PR?DIR_BOARD?IO_SENSORES                        -----    -----      -----    -----      0032H    0001H
  +--> ?PR?SEL_DIR1?IO_SENSORES
  +--> ?PR?SEL_DIR2?IO_SENSORES
  +--> ?PR?_RD_EEPROM?EEPROM

?PR?_TARJETA_ROTACION?VERIFICADOR                -----    -----      -----    -----      0009H    0006H
  +--> ?PR?_ARMAR_TRAMA_TARJETA_SECTOR1_BLOQ...

?PR?POWER_OFF?LINTECH                            -----    -----      -----    -----      0002H    000BH
  +--> ?CO?LINTECH
  +--> ?PR?_DEBUG_TXT_TIBBO?TIBBO
  +--> ?PR?_DEBUGBUFFERMF?TIBBO
  +--> ?PR?_ESCRIBIRCADENASOFT_BUFFER?MAIN

?PR?CLAVE_SEGURIDAD_S2?LINTECH                   -----    -----      -----    -----      0002H    0016H
  +--> ?CO?LINTECH
  +--> ?PR?_DEBUG_TXT_TIBBO?TIBBO
  +--> ?PR?_DEBUGBUFFERMF?TIBBO
  +--> ?PR?_ESCRIBIRCADENASOFT_BUFFER?MAIN

?PR?_RESPONDE_REELECTURA_TARJETA_SECT...         -----    -----      -----    -----      0002H    000AH
  +--> ?CO?VERIFICADOR
  +--> ?PR?_DEBUG_TXT_TIBBO?TIBBO
  +--> ?PR?_DEBUGBUFFERMF?TIBBO
  +--> ?PR?_ARMAR_TRAMA_TARJETA_SECTOR1_BLOQ...

?PR?_ARMAR_TRAMA_TARJETA_SECTOR1_BLOQ...         -----    -----      -----    -----      000CH    0003H
  +--> ?PR?LEE_NO_TICKET?EEPROM

?PR?RESPONDE_ESTADO_SENSORES_TRANSPOR...         -----    -----      -----    -----      0002H    0001H
BL51 BANKED LINKER/LOCATER V6.22.2.0                                                  05/31/2021  13:02:58  PAGE 21


  +--> ?CO?VERIFICADOR
  +--> ?PR?_DEBUG_TXT_TIBBO?TIBBO
  +--> ?PR?_SEND_PORTERR?PTO_PARALELO
  +--> ?PR?INGRESO_VEHICULO?VERIFICADOR

?PR?INGRESO_VEHICULO?VERIFICADOR                 -----    -----      -----    -----      -----    -----
  +--> ?PR?VALIDASENSORESPASO?IO_SENSORES
  +--> ?PR?_RD_EEPROM?EEPROM
  +--> ?CO?VERIFICADOR
  +--> ?PR?_DEBUG_TXT_TIBBO?TIBBO
  +--> ?PR?_PANTALLALCD?PANTALLAS
  +--> ?PR?BOTTON?IO_SENSORES

?PR?VALIDASENSORESPASO?IO_SENSORES               -----    -----      -----    -----      0010H    0001H
  +--> ?PR?SEL_SENSOR2?IO_SENSORES
  +--> ?PR?VALIDASENSOR?IO_SENSORES
  +--> ?PR?VALIDA_SENSOR1_AUTO?IO_SENSORES
  +--> ?CO?IO_SENSORES
  +--> ?PR?_DEBUG_TXT_TIBBO?TIBBO

?PR?RESPONDE_TIPO_TARJETA?VERIFICADOR            -----    -----      -----    -----      0002H    0001H
  +--> ?CO?VERIFICADOR
  +--> ?PR?_DEBUG_TXT_TIBBO?TIBBO
  +--> ?PR?_SEND_PORTERR?PTO_PARALELO
  +--> ?PR?_PANTALLALCD?PANTALLAS
  +--> ?PR?CAPTURA_EXPULSA?VERIFICADOR

?PR?_RESPONDE_LECTURA_TARJETA_SECTOR1...         -----    -----      -----    -----      0002H    0016H
  +--> ?CO?VERIFICADOR
  +--> ?PR?_DEBUG_TXT_TIBBO?TIBBO
  +--> ?PR?_DEBUGBUFFERMF?TIBBO
  +--> ?PR?_RD_EEPROM?EEPROM
  +--> ?PR?_DEBUG_HEXDEC?TIBBO
  +--> ?PR?_DEBUG_CHR_TIBBO?TIBBO
  +--> ?PR?_SEND_PORTERR?PTO_PARALELO
  +--> ?PR?_PANTALLALCD?PANTALLAS
  +--> ?PR?CAPTURA_EXPULSA?VERIFICADOR

?PR?_DEBUG_HEXDEC?TIBBO                          -----    -----      -----    -----      0018H    0002H
  +--> ?PR?_TX_AUX?TIBBO

?PR?_RESPONDE_LECTURA_TARJETA_SECTOR1...         -----    -----      -----    -----      0002H    0004H
  +--> ?CO?VERIFICADOR
  +--> ?PR?_DEBUG_TXT_TIBBO?TIBBO
  +--> ?PR?CAPTURA_EXPULSA?VERIFICADOR

?PR?_RESPONDE_LECTURA_TARJETA_SECTOR1...         -----    -----      -----    -----      0002H    0015H
  +--> ?CO?VERIFICADOR
  +--> ?PR?_DEBUG_TXT_TIBBO?TIBBO
  +--> ?PR?_DEBUGBUFFERMF?TIBBO
  +--> ?PR?_DEBUG_CHR_TIBBO?TIBBO
  +--> ?PR?CAPTURA_EXPULSA?VERIFICADOR

?PR?_RESPONDE_WRITE_TARJETA_SECTOR1_B...         -----    -----      -----    -----      0002H    0007H
  +--> ?CO?VERIFICADOR
  +--> ?PR?_DEBUG_TXT_TIBBO?TIBBO
  +--> ?PR?_DEBUGBUFFERMF?TIBBO
BL51 BANKED LINKER/LOCATER V6.22.2.0                                                  05/31/2021  13:02:58  PAGE 22



?PR?_RESPONDE_WRITE_TARJETA_SECTOR2_B...         -----    -----      -----    -----      0002H    0003H
  +--> ?CO?VERIFICADOR
  +--> ?PR?_DEBUG_TXT_TIBBO?TIBBO
  +--> ?PR?_DEBUGBUFFERMF?TIBBO

?PR?_RESPONDE_WRITE_TARJETA_SECTOR1_B...         -----    -----      -----    -----      0002H    0003H
  +--> ?CO?VERIFICADOR
  +--> ?PR?_DEBUG_TXT_TIBBO?TIBBO
  +--> ?PR?_DEBUGBUFFERMF?TIBBO

?PR?_RESPONDE_WRITE_TARJETA_SECTOR1_B...         -----    -----      -----    -----      0002H    0003H
  +--> ?CO?VERIFICADOR
  +--> ?PR?_DEBUG_TXT_TIBBO?TIBBO
  +--> ?PR?_DEBUGBUFFERMF?TIBBO

?PR?_DISPARO_LOCK_ENTRADA_VEHICULO?VE...         -----    -----      -----    -----      0002H    0004H
  +--> ?CO?VERIFICADOR
  +--> ?PR?_DEBUG_TXT_TIBBO?TIBBO
  +--> ?PR?_SEND_PORTERR?PTO_PARALELO
  +--> ?PR?_PANTALLALCD_LINEA_2?PANTALLAS
  +--> ?PR?VALIDA_SENSOR1_AUTO?IO_SENSORES
  +--> ?PR?_PANTALLALCD?PANTALLAS

?PR?_PANTALLALCD_LINEA_2?PANTALLAS               -----    -----      -----    -----      0010H    0033H
  +--> ?CO?PANTALLAS
  +--> ?PR?_LCD_TXT?PANTALLAS
  +--> ?PR?_STRLEN?STRLEN
  +--> ?PR?_TX_CHRLCD?PANTALLAS
  +--> ?PR?_RASPBERRY_DATA?PANTALLAS
  +--> ?PR?LEE_NO_TICKET?EEPROM
  +--> ?PR?_STRCAT?STRCAT

?PR?_RESPUESTA_SEGUNDA_CLAVE?VERIFICADOR         -----    -----      -----    -----      0002H    0006H
  +--> ?CO?VERIFICADOR
  +--> ?PR?_DEBUG_TXT_TIBBO?TIBBO
  +--> ?PR?_DEBUGBUFFERMF?TIBBO
  +--> ?PR?_ARMAR_TRAMA_PLACA?VERIFICADOR

?PR?_ARMAR_TRAMA_PLACA?VERIFICADOR               -----    -----      -----    -----      0008H    0003H
  +--> ?PR?_STRLEN?STRLEN

?PR?ANALIZA_PRESENCIA_MENSUAL?VERIFIC...         -----    -----      -----    -----      0002H    0001H
  +--> ?PR?VALIDASENSORESPASO?IO_SENSORES
  +--> ?PR?_SEND_PORTERR?PTO_PARALELO
  +--> ?PR?_PANTALLALCD?PANTALLAS

?PR?_ANALIZA_UID_CARD?VERIFICADOR                -----    -----      -----    -----      0002H    0015H
  +--> ?CO?VERIFICADOR
  +--> ?PR?_DEBUG_TXT_TIBBO?TIBBO
  +--> ?PR?_DEBUGBUFFERMF?TIBBO
  +--> ?PR?_DEBUG_CHR_TIBBO?TIBBO

?PR?ANALIZA_PRESENCIA_ROTACION?VERIFI...         -----    -----      -----    -----      0002H    0001H
  +--> ?PR?VALIDASENSORESPASO?IO_SENSORES
  +--> ?PR?_SEND_PORTERR?PTO_PARALELO
  +--> ?PR?_PANTALLALCD?PANTALLAS
BL51 BANKED LINKER/LOCATER V6.22.2.0                                                  05/31/2021  13:02:58  PAGE 23



?PR?_RECIBE_PORT?PTO_PARALELO                    -----    -----      -----    -----      0001H    0008H
  +--> ?PR?OFF_TIMER0_INTERRUP?MAIN
  +--> ?PR?ON_TIMER0_INTERRUP?MAIN

?PR?_DEBUG_PTO_PARALELO?TIBBO                    -----    -----      -----    -----      0001H    0004H
  +--> ?CO?TIBBO
  +--> ?PR?_DEBUG_TXT_TIBBO?TIBBO
  +--> ?PR?_DEBUGBUFFERMF?TIBBO
  +--> ?PR?DEBUG_DIVIDIR_TEXTO?TIBBO

?PR?_VALIDA_TRAMA_PTO?ACCESCAN                   -----    -----      -----    -----      0001H    000FH
  +--> ?PR?_VALIDAR_CLK?CLOCK
  +--> ?PR?_BLOCK_WRITE_CLOCK_ASCII?CLOCK
  +--> ?PR?RELOJ_PANTALLA_LCD?PANTALLAS
  +--> ?PR?_PANTALLALCD?PANTALLAS
  +--> ?CO?ACCESCAN
  +--> ?PR?_DEBUG_TXT_TIBBO?TIBBO
  +--> ?PR?_BYTEHEX_DECIMAL?CLOCK
  +--> ?PR?_TWO_BYTEHEX_DECIMAL?CLOCK
  +--> ?PR?VALIDASENSORESPASO?IO_SENSORES
  +--> ?PR?_CMD_LPR_SALIDA_WIEGAND?ACCESCAN
  +--> ?PR?_PANTALLALCD_LINEA_2?PANTALLAS
  +--> ?PR?_GRABA_SERIE?EEPROM

?PR?_BLOCK_WRITE_CLOCK_ASCII?CLOCK               -----    -----      -----    -----      0010H    0003H
  +--> ?CO?CLOCK
  +--> ?PR?_DEBUG_TXT_TIBBO?TIBBO
  +--> ?PR?_TWO_ONE?CLOCK
  +--> ?PR?_WR_CLK?CLOCK

?PR?_WR_CLK?CLOCK                                -----    -----      -----    -----      0013H    0002H
  +--> ?PR?_DELAY_20US?DELAY
  +--> ?PR?_EB_CLK?CLOCK

?PR?RELOJ_PANTALLA_LCD?PANTALLAS                 -----    -----      -----    -----      0010H    000DH
  +--> ?CO?PANTALLAS
  +--> ?PR?_BLOCK_READ_CLOCK?CLOCK
  +--> ?PR?_LCD_TXT_NUM_CHAR?PANTALLAS
  +--> ?PR?_BLOCK_READ_CLOCK_ASCII_RASBERRY?...
  +--> ?PR?_STRCAT?STRCAT
  +--> ?PR?_RASPBERRY_DATA?PANTALLAS

?PR?_BLOCK_READ_CLOCK?CLOCK                      -----    -----      -----    -----      001DH    0003H
  +--> ?PR?_LEE_CLK?CLOCK

?PR?_LCD_TXT_NUM_CHAR?PANTALLAS                  -----    -----      -----    -----      001DH    0006H
  +--> ?PR?_TX_CHRLCD?PANTALLAS

?PR?_BLOCK_READ_CLOCK_ASCII_RASBERRY?...         -----    -----      -----    -----      001DH    0003H
  +--> ?PR?_LEE_CLK?CLOCK

?PR?_CMD_LPR_SALIDA_WIEGAND?ACCESCAN             -----    -----      -----    -----      0010H    0022H
  +--> ?PR?DIR_BOARD?IO_SENSORES
  +--> ?PR?_BLOCK_READ_CLOCK_ASCII?CLOCK
  +--> ?PR?_MONITOR_CHR?ACCESCAN

BL51 BANKED LINKER/LOCATER V6.22.2.0                                                  05/31/2021  13:02:58  PAGE 24


?PR?_MONITOR_CHR?ACCESCAN                        -----    -----      -----    -----      0032H    0005H
  +--> ?PR?_TX_AUX?TIBBO

?PR?_GRABA_SERIE?EEPROM                          -----    -----      -----    -----      0010H    0005H
  +--> ?CO?EEPROM
  +--> ?PR?_DEBUG_TXT_TIBBO?TIBBO
  +--> ?PR?_WRITE_EEPROM_TICKET?EEPROM
  +--> ?PR?_WR_EEPROM?EEPROM

?PR?MSJ_LCD_INFORMATIVO?IO_SENSORES              -----    -----      -----    -----      0001H    0001H
  +--> ?PR?SEL_FUNCION?IO_SENSORES
  +--> ?PR?VALIDASENSOR_CERO?IO_SENSORES
  +--> ?PR?LOAD_AND_SEND_INFO_RELOJ?PTO_PARA...
  +--> ?PR?VALIDASENSOR?IO_SENSORES
  +--> ?PR?_DELAY_10MS?DELAY
  +--> ?PR?LOAD_AND_SEND_ID_COD?PTO_PARALELO

?PR?LOAD_AND_SEND_INFO_RELOJ?PTO_PARA...         -----    -----      -----    -----      0002H    000BH
  +--> ?PR?_BLOCK_READ_CLOCK?CLOCK
  +--> ?PR?_LEE_CLK?CLOCK
  +--> ?CO?PTO_PARALELO
  +--> ?PR?_DEBUG_TXT_TIBBO?TIBBO
  +--> ?PR?_DEBUGBUFFERMF?TIBBO
  +--> ?PR?DEBUG_DIVIDIR_TEXTO?TIBBO
  +--> ?PR?_SEND_PORT?PTO_PARALELO

?PR?LOAD_AND_SEND_ID_COD?PTO_PARALELO            -----    -----      -----    -----      0002H    0014H
  +--> ?PR?_RD_EEPROM?EEPROM
  +--> ?CO?PTO_PARALELO
  +--> ?PR?PRINTF?PRINTF
  +--> ?PR?_STRCAT?STRCAT
  +--> ?PR?_STRLEN?STRLEN
  +--> ?PR?_DEBUG_TXT_TIBBO?TIBBO
  +--> ?PR?_DEBUGBUFFERMF?TIBBO
  +--> ?PR?DEBUG_DIVIDIR_TEXTO?TIBBO
  +--> ?PR?_SEND_PORT?PTO_PARALELO



SYMBOL TABLE OF MODULE:  .\Objects\expedidor_v_01_raspberry (MAIN)

  VALUE           TYPE          NAME
  ----------------------------------

  -------         MODULE        MAIN
  C:0000H         SYMBOL        _ICE_DUMMY_
  D:0080H         PUBLIC        P0
  D:0090H         PUBLIC        P1
  C:BC64H         PUBLIC        timer0_int
  D:00B0H         PUBLIC        P3
  B:00A8H.7       PUBLIC        EA
  C:C0AAH         PUBLIC        off_Timer0_Interrup
  X:0171H         PUBLIC        ValTimeOutCom
  X:0172H         PUBLIC        Buffer_Rta_Lintech
  X:01A4H         PUBLIC        Timer_wait
  B:0021H.1       PUBLIC        pto_paraleo
  X:01A5H         PUBLIC        g_cContByteRx
BL51 BANKED LINKER/LOCATER V6.22.2.0                                                  05/31/2021  13:02:58  PAGE 25


  B:0080H.0       PUBLIC        rx_ip
  C:ABBCH         PUBLIC        main
  X:01A6H         PUBLIC        Timer_tivo
  B:0080H.3       PUBLIC        Atascado_GP0_PIN_3
  C:B325H         PUBLIC        variable_inicio
  B:0090H.7       PUBLIC        lock
  I:0023H         PUBLIC        rbuf
  C:C09BH         PUBLIC        on_Timer0_Interrup
  I:0055H         PUBLIC        tbuf
  B:0090H.1       PUBLIC        DataIn
  D:0089H         PUBLIC        TMOD
  X:01A8H         PUBLIC        USE_LPR
  X:01A9H         PUBLIC        Debug_Tibbo
  X:01AAH         PUBLIC        Raspberry
  X:01ABH         PUBLIC        SIN_COBRO
  X:01ADH         PUBLIC        Tipo_Vehiculo
  B:00B0H.3       PUBLIC        busy
  C:BFFCH         PUBLIC        ini_timer
  B:00A8H.1       PUBLIC        ET0
  B:0088H.5       PUBLIC        TF0
  D:008CH         PUBLIC        TH0
  X:01AEH         PUBLIC        ACK
  X:01AFH         PUBLIC        g_cEstadoComSoft
  D:008AH         PUBLIC        TL0
  B:0088H.4       PUBLIC        TR0
  C:C00CH         PUBLIC        inicia_board
  X:01B0H         PUBLIC        T_GRACIA
  B:0080H.7       PUBLIC        sel_com
  X:01B2H         PUBLIC        STX_LINTECH
  C:C02BH         PUBLIC        _getkey
  X:01B3H         PUBLIC        ETX
  C:B5C1H         PUBLIC        _EscribirCadenaSoft_buffer
  B:0021H.2       PUBLIC        buffer_ready
  C:B89DH         PUBLIC        _putchar
  B:0021H.3       PUBLIC        placa_ready
  -------         PROC          TIMER0_INT
  C:BC64H         LINE#         16
  C:BC6AH         LINE#         19
  C:BC70H         LINE#         20
  C:BC75H         LINE#         21
  C:BC75H         LINE#         22
  C:BC7BH         LINE#         23
  C:BC7BH         LINE#         25
  C:BC89H         LINE#         26
  C:BC8BH         LINE#         28
  -------         ENDPROC       TIMER0_INT
  -------         PROC          INI_TIMER
  C:BFFCH         LINE#         31
  C:BFFCH         LINE#         32
  C:BFFCH         LINE#         34
  C:C004H         LINE#         36
  C:C007H         LINE#         37
  C:C009H         LINE#         38
  C:C00BH         LINE#         40
  -------         ENDPROC       INI_TIMER
  -------         PROC          ON_TIMER0_INTERRUP
  C:C09BH         LINE#         43
BL51 BANKED LINKER/LOCATER V6.22.2.0                                                  05/31/2021  13:02:58  PAGE 26


  C:C09BH         LINE#         44
  C:C09BH         LINE#         45
  C:C09DH         LINE#         46
  C:C09FH         LINE#         48
  -------         ENDPROC       ON_TIMER0_INTERRUP
  -------         PROC          OFF_TIMER0_INTERRUP
  C:C0AAH         LINE#         51
  C:C0AAH         LINE#         52
  C:C0AAH         LINE#         53
  C:C0ACH         LINE#         55
  -------         ENDPROC       OFF_TIMER0_INTERRUP
  -------         PROC          _GETKEY
  -------         DO            
  D:0006H         SYMBOL        k
  -------         ENDDO         
  C:C02BH         LINE#         63
  C:C02BH         LINE#         64
  C:C02BH         LINE#         68
  C:C02BH         LINE#         69
  C:C02EH         LINE#         70
  C:C02EH         LINE#         71
  C:C036H         LINE#         73
  C:C036H         LINE#         74
  -------         ENDPROC       _GETKEY
  -------         PROC          _PUTCHAR
  X:00A7H         SYMBOL        c
  -------         DO            
  X:00A8H         SYMBOL        i
  -------         ENDDO         
  C:B89DH         LINE#         78
  C:B8A2H         LINE#         79
  C:B8A2H         LINE#         82
  C:B8B1H         LINE#         83
  C:B8B1H         LINE#         84
  C:B8C7H         LINE#         85
  C:B8C7H         LINE#         87
  C:B8D5H         LINE#         88
  C:B8D5H         LINE#         90
  C:B8DAH         LINE#         91
  -------         ENDPROC       _PUTCHAR
  -------         PROC          _ESCRIBIRCADENASOFT_BUFFER
  X:0027H         SYMBOL        buffer
  X:002AH         SYMBOL        tamano_cadena
  -------         DO            
  X:002BH         SYMBOL        i
  X:002CH         SYMBOL        d
  -------         ENDDO         
  C:B5C1H         LINE#         95
  C:B5CFH         LINE#         96
  C:B5CFH         LINE#         98
  C:B5DDH         LINE#         99
  C:B5DDH         LINE#         100
  C:B5F4H         LINE#         101
  C:B5FEH         LINE#         102
  C:B606H         LINE#         103
  -------         ENDPROC       _ESCRIBIRCADENASOFT_BUFFER
  -------         PROC          INICIA_BOARD
BL51 BANKED LINKER/LOCATER V6.22.2.0                                                  05/31/2021  13:02:58  PAGE 27


  C:C00CH         LINE#         108
  C:C00CH         LINE#         109
  C:C00CH         LINE#         110
  C:C00FH         LINE#         111
  C:C012H         LINE#         112
  C:C015H         LINE#         113
  C:C017H         LINE#         114
  C:C019H         LINE#         115
  C:C01BH         LINE#         117
  -------         ENDPROC       INICIA_BOARD
  -------         PROC          VARIABLE_INICIO
  C:B325H         LINE#         122
  C:B325H         LINE#         123
  C:B325H         LINE#         126
  C:B336H         LINE#         127
  C:B347H         LINE#         128
  C:B355H         LINE#         129
  C:B363H         LINE#         130
  C:B371H         LINE#         132
  -------         ENDPROC       VARIABLE_INICIO
  -------         PROC          MAIN
  -------         DO            
  X:0148H         SYMBOL        buffer
  X:0170H         SYMBOL        Estado_Comunicacion_Secuencia_MF
  X:0000H         SYMBOL        Length_trama
  -------         ENDDO         
  C:ABBCH         LINE#         140
  C:ABBCH         LINE#         141
  C:ABBCH         LINE#         148
  C:ABBFH         LINE#         149
  C:ABC2H         LINE#         150
  C:ABC5H         LINE#         151
  C:ABC8H         LINE#         152
  C:ABCBH         LINE#         153
  C:ABCDH         LINE#         155
  C:ABD0H         LINE#         156
  C:ABD7H         LINE#         157
  C:ABDAH         LINE#         159
  C:ABDFH         LINE#         161
  C:ABE2H         LINE#         163
  C:ABE5H         LINE#         164
  C:ABE5H         LINE#         165
  C:ABE8H         LINE#         166
  C:ABE8H         LINE#         169
  C:ABEBH         LINE#         170
  C:ABF1H         LINE#         171
  C:ABF7H         LINE#         173
  C:ABF7H         LINE#         174
  C:ABF7H         LINE#         177
  C:ABFAH         LINE#         178
  C:ABFAH         LINE#         179
  C:ABFDH         LINE#         180
  C:ABFDH         LINE#         184
  C:AC0AH         LINE#         189
  C:AC10H         LINE#         190
  C:AC10H         LINE#         192
  C:AC1FH         LINE#         195
BL51 BANKED LINKER/LOCATER V6.22.2.0                                                  05/31/2021  13:02:58  PAGE 28


  C:AC28H         LINE#         196
  C:AC36H         LINE#         201
  C:AC36H         LINE#         202
  C:AC39H         LINE#         206
  -------         ENDPROC       MAIN
  -------         ENDMOD        MAIN

  -------         MODULE        ACCESCAN
  C:0000H         SYMBOL        _ICE_DUMMY_
  D:0080H         PUBLIC        P0
  D:0090H         PUBLIC        P1
  B:0080H.2       PUBLIC        led_err_imp
  C:B75CH         PUBLIC        _Monitor_chr
  B:0080H.3       PUBLIC        Atascado_GP0_PIN_3
  B:0090H.7       PUBLIC        lock
  C:3F09H         PUBLIC        _Valida_Trama_Pto
  C:8922H         PUBLIC        _Cmd_LPR_Salida_wiegand
  -------         PROC          _VALIDA_TRAMA_PTO
  X:0001H         SYMBOL        buffer
  X:0004H         SYMBOL        length_trama
  -------         DO            
  X:0218H         SYMBOL        cont
  X:0005H         SYMBOL        buff
  -------         ENDDO         
  C:3F09H         LINE#         106
  C:3F17H         LINE#         107
  C:3F17H         LINE#         113
  C:3F4DH         LINE#         114
  C:3F4DH         LINE#         115
  C:3F62H         LINE#         116
  C:3F62H         LINE#         117
  C:3F75H         LINE#         119
  C:3F78H         LINE#         121
  C:3F78H         LINE#         123
  C:3F78H         LINE#         126
  C:3F8AH         LINE#         127
  C:3F8AH         LINE#         128
  C:3F8CH         LINE#         129
  C:3F8FH         LINE#         131
  C:3FA1H         LINE#         132
  C:3FA1H         LINE#         133
  C:3FA3H         LINE#         134
  C:3FA6H         LINE#         136
  C:3FB8H         LINE#         137
  C:3FB8H         LINE#         138
  C:3FBAH         LINE#         139
  C:3FBDH         LINE#         141
  C:3FD7H         LINE#         142
  C:3FD7H         LINE#         143
  C:3FD9H         LINE#         144
  C:3FDCH         LINE#         146
  C:3FF6H         LINE#         147
  C:3FF6H         LINE#         148
  C:3FF8H         LINE#         149
  C:3FFBH         LINE#         151
  C:400DH         LINE#         152
  C:400DH         LINE#         153
BL51 BANKED LINKER/LOCATER V6.22.2.0                                                  05/31/2021  13:02:58  PAGE 29


  C:4013H         LINE#         154
  C:4020H         LINE#         155
  C:4020H         LINE#         156
  C:4025H         LINE#         157
  C:4027H         LINE#         158
  C:402CH         LINE#         159
  C:402EH         LINE#         160
  C:4030H         LINE#         161
  C:4034H         LINE#         162
  C:4034H         LINE#         163
  C:4035H         LINE#         165
  C:404DH         LINE#         166
  C:404DH         LINE#         168
  C:405AH         LINE#         169
  C:405AH         LINE#         170
  C:405CH         LINE#         171
  C:405EH         LINE#         172
  C:4060H         LINE#         173
  C:4062H         LINE#         174
  C:4062H         LINE#         176
  C:4088H         LINE#         177
  C:4088H         LINE#         178
  C:408CH         LINE#         179
  C:4091H         LINE#         180
  C:409AH         LINE#         181
  C:409FH         LINE#         182
  C:409FH         LINE#         185
  C:40A0H         LINE#         187
  C:40BAH         LINE#         188
  C:40BAH         LINE#         189
  C:40BCH         LINE#         190
  C:40BFH         LINE#         192
  C:40D9H         LINE#         193
  C:40D9H         LINE#         194
  C:40DBH         LINE#         195
  C:40DEH         LINE#         197
  C:40F8H         LINE#         198
  C:40F8H         LINE#         199
  C:40FAH         LINE#         200
  C:40FCH         LINE#         202
  C:4116H         LINE#         203
  C:4116H         LINE#         204
  C:4118H         LINE#         205
  C:411AH         LINE#         208
  C:4134H         LINE#         209
  C:4134H         LINE#         210
  C:4136H         LINE#         211
  C:4138H         LINE#         215
  C:4152H         LINE#         216
  C:4152H         LINE#         217
  C:4154H         LINE#         218
  C:4156H         LINE#         221
  C:4170H         LINE#         222
  C:4170H         LINE#         223
  C:4175H         LINE#         224
  C:4175H         LINE#         227
  C:41A6H         LINE#         228
BL51 BANKED LINKER/LOCATER V6.22.2.0                                                  05/31/2021  13:02:58  PAGE 30


  C:41A6H         LINE#         229
  C:41AEH         LINE#         230
  C:41B7H         LINE#         231
  C:41BAH         LINE#         234
  C:41EBH         LINE#         235
  C:41EBH         LINE#         237
  C:41F3H         LINE#         238
  C:41FCH         LINE#         239
  C:41FFH         LINE#         242
  C:423FH         LINE#         243
  C:423FH         LINE#         245
  C:4254H         LINE#         246
  C:425AH         LINE#         247
  C:4284H         LINE#         250
  C:428CH         LINE#         251
  C:428CH         LINE#         254
  C:4293H         LINE#         255
  C:4293H         LINE#         256
  C:4298H         LINE#         257
  C:4298H         LINE#         258
  C:429AH         LINE#         260
  C:429AH         LINE#         261
  C:42A3H         LINE#         262
  C:42ABH         LINE#         263
  C:42ABH         LINE#         267
  C:42ADH         LINE#         270
  C:42ADH         LINE#         278
  C:42B5H         LINE#         282
  C:42B5H         LINE#         283
  C:42B7H         LINE#         285
  C:42EFH         LINE#         286
  C:42EFH         LINE#         287
  C:42F7H         LINE#         288
  C:4303H         LINE#         289
  C:4303H         LINE#         291
  C:4330H         LINE#         292
  C:4330H         LINE#         293
  C:433FH         LINE#         295
  C:433FH         LINE#         297
  -------         ENDPROC       _VALIDA_TRAMA_PTO
  -------         PROC          _MONITOR_CHR
  X:0032H         SYMBOL        str
  X:0035H         SYMBOL        num_char
  -------         DO            
  X:0036H         SYMBOL        j
  -------         ENDDO         
  C:B75CH         LINE#         452
  C:B76AH         LINE#         453
  C:B76AH         LINE#         455
  C:B778H         LINE#         456
  C:B778H         LINE#         457
  C:B78AH         LINE#         458
  C:B794H         LINE#         459
  C:B79CH         LINE#         460
  -------         ENDPROC       _MONITOR_CHR
  -------         PROC          _CMD_LPR_SALIDA_WIEGAND
  X:0010H         SYMBOL        buffer
BL51 BANKED LINKER/LOCATER V6.22.2.0                                                  05/31/2021  13:02:58  PAGE 31


  -------         DO            
  X:0013H         SYMBOL        Buffer_Lpr
  X:0031H         SYMBOL        j
  -------         ENDDO         
  C:8922H         LINE#         465
  C:892DH         LINE#         466
  C:892DH         LINE#         468
  C:8933H         LINE#         469
  C:8938H         LINE#         470
  C:8940H         LINE#         471
  C:8944H         LINE#         472
  C:894DH         LINE#         473
  C:894DH         LINE#         474
  C:895EH         LINE#         475
  C:8960H         LINE#         477
  C:8960H         LINE#         478
  C:8971H         LINE#         479
  C:8971H         LINE#         483
  C:8988H         LINE#         484
  C:8988H         LINE#         485
  C:8997H         LINE#         486
  C:89A1H         LINE#         488
  C:89A9H         LINE#         489
  C:89BDH         LINE#         491
  C:89CDH         LINE#         492
  C:89DEH         LINE#         493
  C:89EBH         LINE#         497
  -------         ENDPROC       _CMD_LPR_SALIDA_WIEGAND
  -------         ENDMOD        ACCESCAN

  -------         MODULE        CLOCK
  C:0000H         SYMBOL        _ICE_DUMMY_
  C:B7D1H         PUBLIC        _two_one
  D:0090H         PUBLIC        P1
  C:77BCH         PUBLIC        _validar_clk
  C:BCBCH         PUBLIC        _wr_clk
  C:8D2CH         PUBLIC        _check_fechaOut
  C:5FAEH         PUBLIC        _Block_read_clock_ascii_rasberry
  B:00D0H.7       PUBLIC        CY
  C:0003H         PUBLIC        p_ck
  C:A113H         PUBLIC        _hex_ascii
  C:ADABH         PUBLIC        _hora_entrada_vehiculo
  X:0219H         PUBLIC        data_clk
  C:C05DH         PUBLIC        cond_ini_clock
  C:8DF5H         PUBLIC        _Block_read_Clock
  B:0090H.4       PUBLIC        sck
  C:9A4CH         PUBLIC        _Block_read_Clock_Hex
  C:6680H         PUBLIC        _Block_read_clock_ascii
  C:B935H         PUBLIC        _hex_bcd
  C:BED3H         PUBLIC        _bcd_hex
  C:B109H         PUBLIC        _ByteHex_Decimal
  C:A23FH         PUBLIC        _lee_clk
  B:0090H.5       PUBLIC        io
  C:9C3BH         PUBLIC        _Block_write_clock_ascii
  B:0090H.6       PUBLIC        rst
  C:B85EH         PUBLIC        _eb_clk
  C:469CH         PUBLIC        _Two_ByteHex_Decimal
BL51 BANKED LINKER/LOCATER V6.22.2.0                                                  05/31/2021  13:02:58  PAGE 32


  -------         PROC          P_CK
  C:0003H         LINE#         69
  C:0003H         LINE#         70
  C:0003H         LINE#         71
  C:0005H         LINE#         72
  C:0008H         LINE#         73
  C:000AH         LINE#         74
  -------         ENDPROC       P_CK
  -------         PROC          _EB_CLK
  X:00B4H         SYMBOL        dir_clk
  -------         DO            
  X:00B5H         SYMBOL        nbits
  -------         ENDDO         
  C:B85EH         LINE#         76
  C:B863H         LINE#         78
  C:B868H         LINE#         79
  C:B868H         LINE#         80
  C:B871H         LINE#         81
  C:B874H         LINE#         82
  C:B874H         LINE#         83
  C:B876H         LINE#         84
  C:B878H         LINE#         86
  C:B878H         LINE#         87
  C:B87AH         LINE#         88
  C:B87AH         LINE#         89
  C:B87DH         LINE#         90
  C:B89CH         LINE#         91
  -------         ENDPROC       _EB_CLK
  C:A235H         SYMBOL        L?0084
  -------         PROC          L?0083
  -------         ENDPROC       L?0083
  C:A235H         SYMBOL        L?0084
  -------         PROC          _LEE_CLK
  X:00B1H         SYMBOL        dir_clk
  -------         DO            
  X:00B2H         SYMBOL        nbits
  -------         ENDDO         
  C:A23FH         LINE#         93
  C:A244H         LINE#         95
  C:A246H         LINE#         96
  C:A24DH         LINE#         97
  C:A255H         LINE#         98
  C:A26EH         LINE#         99
  C:A26EH         LINE#         100
  C:A271H         LINE#         101
  C:A271H         LINE#         102
  C:A278H         LINE#         103
  C:A282H         LINE#         104
  C:A287H         LINE#         105
  C:A287H         LINE#         106
  C:A287H         LINE#         107
  C:A28AH         LINE#         108
  C:A28AH         LINE#         109
  C:A291H         LINE#         110
  C:A2A2H         LINE#         111
  C:A2A2H         LINE#         112
  C:A2AAH         LINE#         113
BL51 BANKED LINKER/LOCATER V6.22.2.0                                                  05/31/2021  13:02:58  PAGE 33


  C:A2AAH         LINE#         114
  C:A2AAH         LINE#         115
  C:A2ADH         LINE#         116
  C:A2BDH         LINE#         117
  C:A2BFH         LINE#         118
  C:A2C4H         LINE#         119
  -------         ENDPROC       _LEE_CLK
  -------         PROC          _WR_CLK
  X:0013H         SYMBOL        dir_clk
  X:0014H         SYMBOL        byte
  C:BCBCH         LINE#         121
  C:BCC4H         LINE#         122
  C:BCC6H         LINE#         123
  C:BCCDH         LINE#         124
  C:BCD5H         LINE#         125
  C:BCDEH         LINE#         126
  C:BCE1H         LINE#         127
  C:BCE3H         LINE#         129
  -------         ENDPROC       _WR_CLK
  C:B79DH         SYMBOL        L?0079
  C:B7BBH         SYMBOL        L?0080
  -------         PROC          L?0078
  -------         ENDPROC       L?0078
  C:B79DH         SYMBOL        L?0079
  C:B7BBH         SYMBOL        L?0080
  -------         PROC          _TWO_ONE
  D:0007H         SYMBOL        byte_h
  D:0005H         SYMBOL        byte_l
  -------         DO            
  D:0007H         SYMBOL        byte_out
  -------         ENDDO         
  C:B7D1H         LINE#         131
  C:B7D1H         LINE#         132
  C:B7D1H         LINE#         134
  C:B7D4H         LINE#         135
  C:B7D8H         LINE#         136
  C:B7DBH         LINE#         137
  C:B7DDH         LINE#         138
  C:B7DDH         LINE#         139
  -------         ENDPROC       _TWO_ONE
  -------         PROC          _VALIDAR_CLK
  D:0001H         SYMBOL        datos_clock
  -------         DO            
  D:0007H         SYMBOL        validador
  -------         ENDDO         
  C:77BCH         LINE#         143
  C:77BCH         LINE#         144
  C:77BCH         LINE#         145
  C:77BEH         LINE#         148
  C:77D3H         LINE#         149
  C:77D3H         LINE#         151
  C:77EBH         LINE#         152
  C:77EBH         LINE#         154
  C:7803H         LINE#         155
  C:7803H         LINE#         156
  C:781BH         LINE#         157
  C:781BH         LINE#         158
BL51 BANKED LINKER/LOCATER V6.22.2.0                                                  05/31/2021  13:02:58  PAGE 34


  C:7833H         LINE#         159
  C:7833H         LINE#         160
  C:7848H         LINE#         161
  C:7848H         LINE#         162
  C:785AH         LINE#         163
  C:785AH         LINE#         164
  C:786CH         LINE#         165
  C:786CH         LINE#         166
  C:787EH         LINE#         167
  C:787EH         LINE#         168
  C:7890H         LINE#         169
  C:7890H         LINE#         170
  C:78A2H         LINE#         171
  C:78A2H         LINE#         172
  C:78B2H         LINE#         173
  C:78B2H         LINE#         174
  C:78B2H         LINE#         175
  C:78B2H         LINE#         176
  C:78B3H         LINE#         178
  C:78B3H         LINE#         179
  C:78B5H         LINE#         180
  C:78B5H         LINE#         181
  C:78B6H         LINE#         183
  C:78B6H         LINE#         184
  C:78B8H         LINE#         186
  C:78B8H         LINE#         187
  C:78B9H         LINE#         189
  C:78B9H         LINE#         190
  C:78BBH         LINE#         192
  C:78BBH         LINE#         194
  C:78BCH         LINE#         196
  C:78BCH         LINE#         197
  C:78BEH         LINE#         199
  C:78BEH         LINE#         200
  C:78BFH         LINE#         202
  C:78BFH         LINE#         203
  C:78C1H         LINE#         205
  C:78C1H         LINE#         206
  C:78C2H         LINE#         208
  C:78C2H         LINE#         209
  C:78C4H         LINE#         211
  C:78C4H         LINE#         212
  C:78C5H         LINE#         214
  C:78C5H         LINE#         215
  C:78C7H         LINE#         217
  C:78C7H         LINE#         218
  C:78C7H         LINE#         220
  C:78C8H         LINE#         222
  C:78C8H         LINE#         223
  C:78CAH         LINE#         225
  C:78CAH         LINE#         227
  C:78CBH         LINE#         230
  C:78CBH         LINE#         231
  C:78CDH         LINE#         233
  C:78CDH         LINE#         235
  C:78CEH         LINE#         238
  C:78CEH         LINE#         239
BL51 BANKED LINKER/LOCATER V6.22.2.0                                                  05/31/2021  13:02:58  PAGE 35


  C:78D0H         LINE#         241
  C:78D0H         LINE#         243
  C:78D0H         LINE#         245
  -------         ENDPROC       _VALIDAR_CLK
  -------         PROC          _BLOCK_WRITE_CLOCK_ASCII
  X:0010H         SYMBOL        datos_clock
  -------         DO            
  D:0007H         SYMBOL        temp
  -------         ENDDO         
  C:9C3BH         LINE#         251
  C:9C46H         LINE#         253
  C:9C46H         LINE#         256
  C:9C4FH         LINE#         257
  C:9C58H         LINE#         259
  C:9C62H         LINE#         260
  C:9C62H         LINE#         261
  C:9C62H         LINE#         262
  C:9C62H         LINE#         264
  C:9C6CH         LINE#         265
  C:9C76H         LINE#         266
  C:9C80H         LINE#         267
  C:9C80H         LINE#         268
  C:9C80H         LINE#         269
  C:9C80H         LINE#         271
  C:9C8AH         LINE#         272
  C:9C8AH         LINE#         273
  C:9C8AH         LINE#         274
  C:9C8AH         LINE#         276
  C:9C94H         LINE#         277
  C:9C94H         LINE#         278
  C:9C94H         LINE#         279
  C:9C94H         LINE#         281
  C:9C9EH         LINE#         282
  C:9C9EH         LINE#         283
  C:9C9EH         LINE#         284
  C:9C9EH         LINE#         286
  C:9CA8H         LINE#         287
  C:9CB2H         LINE#         288
  C:9CBCH         LINE#         289
  C:9CC6H         LINE#         291
  C:9CD6H         LINE#         292
  -------         ENDPROC       _BLOCK_WRITE_CLOCK_ASCII
  -------         PROC          _BCD_HEX
  D:0007H         SYMBOL        l_data
  -------         DO            
  D:0006H         SYMBOL        temp
  D:0005H         SYMBOL        j
  -------         ENDDO         
  C:BED3H         LINE#         298
  C:BED3H         LINE#         299
  C:BED3H         LINE#         301
  C:BED5H         LINE#         302
  C:BED9H         LINE#         303
  C:BEDCH         LINE#         304
  C:BEDEH         LINE#         305
  C:BEDEH         LINE#         306
  C:BEE2H         LINE#         307
BL51 BANKED LINKER/LOCATER V6.22.2.0                                                  05/31/2021  13:02:58  PAGE 36


  C:BEE9H         LINE#         308
  C:BEE9H         LINE#         309
  C:BEEDH         LINE#         310
  C:BEF0H         LINE#         311
  C:BEF0H         LINE#         312
  C:BEF0H         LINE#         313
  -------         ENDPROC       _BCD_HEX
  C:B926H         SYMBOL        L?0082
  -------         PROC          L?0081
  -------         ENDPROC       L?0081
  C:B926H         SYMBOL        L?0082
  -------         PROC          _HEX_BCD
  D:0007H         SYMBOL        byte
  -------         DO            
  D:0006H         SYMBOL        nibble_h
  D:0005H         SYMBOL        nibble_l
  D:0004H         SYMBOL        k
  D:0007H         SYMBOL        byte_out
  -------         ENDDO         
  C:B935H         LINE#         317
  C:B935H         LINE#         318
  C:B935H         LINE#         323
  C:B937H         LINE#         324
  C:B938H         LINE#         326
  C:B93EH         LINE#         327
  C:B93EH         LINE#         328
  C:B93FH         LINE#         329
  C:B944H         LINE#         330
  C:B944H         LINE#         331
  C:B945H         LINE#         332
  C:B946H         LINE#         333
  C:B946H         LINE#         334
  C:B949H         LINE#         335
  C:B94DH         LINE#         336
  C:B950H         LINE#         337
  C:B953H         LINE#         338
  C:B955H         LINE#         339
  C:B955H         LINE#         341
  -------         ENDPROC       _HEX_BCD
  -------         PROC          _HEX_ASCII
  X:005DH         SYMBOL        datos
  X:0060H         SYMBOL        fecha_asii
  -------         DO            
  D:0007H         SYMBOL        dato
  -------         ENDDO         
  C:A113H         LINE#         342
  C:A11EH         LINE#         343
  C:A11EH         LINE#         347
  C:A121H         LINE#         348
  C:A139H         LINE#         349
  C:A14EH         LINE#         350
  C:A14EH         LINE#         352
  C:A151H         LINE#         353
  C:A16CH         LINE#         354
  C:A174H         LINE#         355
  C:A174H         LINE#         357
  C:A177H         LINE#         358
BL51 BANKED LINKER/LOCATER V6.22.2.0                                                  05/31/2021  13:02:58  PAGE 37


  C:A192H         LINE#         359
  C:A19DH         LINE#         361
  -------         ENDPROC       _HEX_ASCII
  -------         PROC          _BYTEHEX_DECIMAL
  D:0001H         SYMBOL        buffer
  D:0005H         SYMBOL        valorhex
  -------         DO            
  X:0014H         SYMBOL        numero
  D:0007H         SYMBOL        centena
  D:0006H         SYMBOL        decena
  -------         ENDDO         
  C:B109H         LINE#         369
  C:B109H         LINE#         370
  C:B109H         LINE#         373
  C:B10BH         LINE#         374
  C:B10CH         LINE#         375
  C:B111H         LINE#         377
  C:B11EH         LINE#         378
  C:B11EH         LINE#         379
  C:B122H         LINE#         380
  C:B123H         LINE#         381
  C:B125H         LINE#         382
  C:B12BH         LINE#         383
  C:B132H         LINE#         384
  C:B13FH         LINE#         385
  C:B13FH         LINE#         386
  C:B143H         LINE#         387
  C:B144H         LINE#         388
  C:B146H         LINE#         389
  C:B14CH         LINE#         390
  C:B153H         LINE#         391
  C:B15CH         LINE#         392
  C:B163H         LINE#         393
  -------         ENDPROC       _BYTEHEX_DECIMAL
  -------         PROC          _TWO_BYTEHEX_DECIMAL
  X:0014H         SYMBOL        buffer
  X:0017H         SYMBOL        id_h
  X:0018H         SYMBOL        id_l
  -------         DO            
  X:0019H         SYMBOL        valor
  D:0006H         SYMBOL        numero
  X:001BH         SYMBOL        temp
  X:001CH         SYMBOL        dmil
  X:001DH         SYMBOL        mil
  X:001EH         SYMBOL        centena
  X:001FH         SYMBOL        decena
  -------         ENDDO         
  C:469CH         LINE#         400
  C:46AAH         LINE#         401
  C:46AAH         LINE#         405
  C:46B1H         LINE#         406
  C:46B5H         LINE#         407
  C:46B7H         LINE#         408
  C:46B9H         LINE#         409
  C:46BBH         LINE#         412
  C:46C0H         LINE#         413
  C:46C3H         LINE#         414
BL51 BANKED LINKER/LOCATER V6.22.2.0                                                  05/31/2021  13:02:58  PAGE 38


  C:46C9H         LINE#         416
  C:4724H         LINE#         417
  C:472CH         LINE#         418
  C:472FH         LINE#         419
  C:478AH         LINE#         421
  C:4792H         LINE#         422
  C:4795H         LINE#         423
  C:479BH         LINE#         424
  C:47F6H         LINE#         425
  C:47FEH         LINE#         426
  C:4801H         LINE#         427
  C:485CH         LINE#         428
  C:485CH         LINE#         430
  C:4865H         LINE#         431
  C:4865H         LINE#         432
  C:486DH         LINE#         433
  C:4873H         LINE#         434
  C:4875H         LINE#         435
  C:488BH         LINE#         436
  C:4895H         LINE#         437
  C:489EH         LINE#         438
  C:489EH         LINE#         439
  C:48A6H         LINE#         440
  C:48ACH         LINE#         441
  C:48AEH         LINE#         442
  C:48C4H         LINE#         443
  C:48CEH         LINE#         444
  C:48D7H         LINE#         445
  C:48D7H         LINE#         446
  C:48DFH         LINE#         447
  C:48E5H         LINE#         448
  C:48E7H         LINE#         449
  C:48FDH         LINE#         450
  C:4907H         LINE#         451
  C:4910H         LINE#         452
  C:4910H         LINE#         453
  C:4918H         LINE#         454
  C:491EH         LINE#         455
  C:4920H         LINE#         456
  C:4936H         LINE#         457
  C:4940H         LINE#         458
  C:4953H         LINE#         459
  C:495DH         LINE#         460
  -------         ENDPROC       _TWO_BYTEHEX_DECIMAL
  -------         PROC          _BLOCK_READ_CLOCK_ASCII
  X:0051H         SYMBOL        datos_clock
  -------         DO            
  D:0007H         SYMBOL        dato
  -------         ENDDO         
  C:6680H         LINE#         466
  C:6683H         LINE#         467
  C:6683H         LINE#         473
  C:6686H         LINE#         474
  C:669EH         LINE#         475
  C:66A8H         LINE#         476
  C:66BDH         LINE#         477
  C:66C7H         LINE#         480
BL51 BANKED LINKER/LOCATER V6.22.2.0                                                  05/31/2021  13:02:58  PAGE 39


  C:66CCH         LINE#         481
  C:66E4H         LINE#         482
  C:66EEH         LINE#         483
  C:6703H         LINE#         484
  C:670DH         LINE#         487
  C:6712H         LINE#         488
  C:672AH         LINE#         489
  C:6734H         LINE#         490
  C:6749H         LINE#         491
  C:6753H         LINE#         495
  C:6758H         LINE#         496
  C:6770H         LINE#         497
  C:677AH         LINE#         498
  C:678FH         LINE#         499
  C:6799H         LINE#         502
  C:679EH         LINE#         503
  C:67B6H         LINE#         504
  C:67C0H         LINE#         505
  C:67D5H         LINE#         506
  C:67DFH         LINE#         507
  -------         ENDPROC       _BLOCK_READ_CLOCK_ASCII
  -------         PROC          _BLOCK_READ_CLOCK_ASCII_RASBERRY
  X:001DH         SYMBOL        datos_clock
  -------         DO            
  D:0007H         SYMBOL        dato
  -------         ENDDO         
  C:5FAEH         LINE#         510
  C:5FB9H         LINE#         511
  C:5FB9H         LINE#         516
  C:5FBEH         LINE#         517
  C:5FD6H         LINE#         518
  C:5FE0H         LINE#         519
  C:5FF5H         LINE#         520
  C:5FFFH         LINE#         523
  C:6004H         LINE#         524
  C:601CH         LINE#         525
  C:6026H         LINE#         526
  C:603BH         LINE#         527
  C:6045H         LINE#         531
  C:604AH         LINE#         532
  C:6062H         LINE#         533
  C:606CH         LINE#         534
  C:6081H         LINE#         535
  C:608BH         LINE#         540
  C:6090H         LINE#         541
  C:60A8H         LINE#         542
  C:60B2H         LINE#         543
  C:60C7H         LINE#         544
  C:60D1H         LINE#         547
  C:60D6H         LINE#         548
  C:60EEH         LINE#         549
  C:60F8H         LINE#         550
  C:610DH         LINE#         551
  C:6117H         LINE#         552
  C:6127H         LINE#         553
  C:6131H         LINE#         556
  C:6136H         LINE#         557
BL51 BANKED LINKER/LOCATER V6.22.2.0                                                  05/31/2021  13:02:58  PAGE 40


  C:614EH         LINE#         558
  C:6158H         LINE#         559
  C:616DH         LINE#         561
  C:6177H         LINE#         562
  -------         ENDPROC       _BLOCK_READ_CLOCK_ASCII_RASBERRY
  -------         PROC          _BLOCK_READ_CLOCK_HEX
  X:00AEH         SYMBOL        datos_clock
  C:9A4CH         LINE#         566
  C:9A4FH         LINE#         567
  C:9A4FH         LINE#         570
  C:9A64H         LINE#         571
  C:9A6EH         LINE#         573
  C:9A85H         LINE#         574
  C:9A8FH         LINE#         576
  C:9AA6H         LINE#         577
  C:9AB0H         LINE#         579
  C:9AC7H         LINE#         580
  C:9AD1H         LINE#         582
  C:9AE8H         LINE#         583
  -------         ENDPROC       _BLOCK_READ_CLOCK_HEX
  -------         PROC          _HORA_ENTRADA_VEHICULO
  X:0005H         SYMBOL        Atributos_Expedidor
  C:ADABH         LINE#         586
  C:ADAEH         LINE#         587
  C:ADAEH         LINE#         589
  C:ADC3H         LINE#         590
  C:ADDAH         LINE#         591
  C:ADF1H         LINE#         592
  C:AE08H         LINE#         593
  -------         ENDPROC       _HORA_ENTRADA_VEHICULO
  -------         PROC          _BLOCK_READ_CLOCK
  X:001DH         SYMBOL        datos_clock
  C:8DF5H         LINE#         599
  C:8DF8H         LINE#         600
  C:8DF8H         LINE#         602
  C:8E0AH         LINE#         603
  C:8E14H         LINE#         605
  C:8E28H         LINE#         606
  C:8E32H         LINE#         608
  C:8E46H         LINE#         609
  C:8E50H         LINE#         611
  C:8E64H         LINE#         612
  C:8E6EH         LINE#         614
  C:8E82H         LINE#         615
  C:8E8CH         LINE#         617
  C:8EA0H         LINE#         618
  C:8EAAH         LINE#         619
  -------         ENDPROC       _BLOCK_READ_CLOCK
  -------         PROC          COND_INI_CLOCK
  C:C05DH         LINE#         622
  C:C05DH         LINE#         623
  C:C05DH         LINE#         624
  C:C05FH         LINE#         625
  C:C061H         LINE#         626
  C:C063H         LINE#         627
  -------         ENDPROC       COND_INI_CLOCK
  -------         PROC          _CHECK_FECHAOUT
BL51 BANKED LINKER/LOCATER V6.22.2.0                                                  05/31/2021  13:02:58  PAGE 41


  X:009CH         SYMBOL        buffer
  -------         DO            
  X:009FH         SYMBOL        fecha_inicio
  X:00A3H         SYMBOL        fecha_fin
  X:00A7H         SYMBOL        datos_clk
  X:00ADH         SYMBOL        temp
  -------         ENDDO         
  C:8D2CH         LINE#         637
  C:8D37H         LINE#         638
  C:8D37H         LINE#         644
  C:8D40H         LINE#         645
  C:8D6FH         LINE#         646
  C:8DC2H         LINE#         649
  C:8DE2H         LINE#         650
  C:8DE2H         LINE#         651
  C:8DE8H         LINE#         652
  C:8DEAH         LINE#         654
  C:8DEAH         LINE#         655
  C:8DEFH         LINE#         656
  C:8DEFH         LINE#         660
  C:8DF4H         LINE#         661
  -------         ENDPROC       _CHECK_FECHAOUT
  -------         ENDMOD        CLOCK

  -------         MODULE        DELAY
  C:0000H         SYMBOL        _ICE_DUMMY_
  C:BA83H         PUBLIC        _Delay_10ms
  C:BF90H         PUBLIC        _Delay_20us
  C:BEF1H         PUBLIC        _Delay_1ms
  C:C0ADH         PUBLIC        Delay
  -------         PROC          _DELAY_20US
  D:0006H         SYMBOL        cntd_us
  -------         DO            
  D:0004H         SYMBOL        i
  -------         ENDDO         
  C:BF90H         LINE#         20
  C:BF90H         LINE#         21
  C:BF90H         LINE#         24
  C:BF9AH         LINE#         26
  C:BFA1H         LINE#         27
  -------         ENDPROC       _DELAY_20US
  -------         PROC          _DELAY_1MS
  D:0002H         SYMBOL        cntd_ms
  -------         DO            
  D:0082H         SYMBOL        i
  -------         ENDDO         
  C:BEF1H         LINE#         38
  C:BEF5H         LINE#         39
  C:BEF5H         LINE#         41
  C:BF0BH         LINE#         42
  -------         ENDPROC       _DELAY_1MS
  -------         PROC          _DELAY_10MS
  X:001CH         SYMBOL        cntd_10ms
  -------         DO            
  X:001EH         SYMBOL        i
  -------         ENDDO         
  C:BA83H         LINE#         54
BL51 BANKED LINKER/LOCATER V6.22.2.0                                                  05/31/2021  13:02:58  PAGE 42


  C:BA8BH         LINE#         55
  C:BA8BH         LINE#         57
  C:BABCH         LINE#         58
  -------         ENDPROC       _DELAY_10MS
  -------         PROC          DELAY
  C:C0ADH         LINE#         60
  C:C0ADH         LINE#         62
  -------         ENDPROC       DELAY
  -------         ENDMOD        DELAY

  -------         MODULE        EEPROM
  C:0000H         SYMBOL        _ICE_DUMMY_
  D:0090H         PUBLIC        P1
  C:83D3H         PUBLIC        _Write_EEprom_Ticket
  C:AE90H         PUBLIC        _EscribirMemoria
  X:020DH         PUBLIC        l_chr
  C:BE58H         PUBLIC        ackd
  B:0021H.6       PUBLIC        memory_flag
  B:00D0H.7       PUBLIC        CY
  C:C095H         PUBLIC        p_me
  C:BFAAH         PUBLIC        start
  B:0090H.2       PUBLIC        sda
  C:BE78H         PUBLIC        ack_lect
  B:0090H.3       PUBLIC        scl
  C:B95AH         PUBLIC        _rd_eeprom
  C:C037H         PUBLIC        stop
  X:020EH         PUBLIC        l_data_eeprom
  C:B292H         PUBLIC        _wr_eeprom
  C:B041H         PUBLIC        _LeerMemoria
  C:BB9BH         PUBLIC        Incremente_Ticket
  X:020FH         PUBLIC        byte_rd
  C:8C62H         PUBLIC        Read_EEprom_Ticket
  C:BDF0H         PUBLIC        _e_d_m
  C:8ACBH         PUBLIC        _graba_serie
  C:B3BFH         PUBLIC        Lee_No_Ticket
  C:B372H         PUBLIC        l_d_m
  -------         PROC          L?0057
  -------         ENDPROC       L?0057
  -------         PROC          ACKD
  -------         DO            
  D:0006H         SYMBOL        i
  -------         ENDDO         
  C:BE58H         LINE#         35
  C:BE58H         LINE#         36
  C:BE58H         LINE#         38
  C:BE5AH         LINE#         39
  C:BE5CH         LINE#         40
  C:BE5EH         LINE#         41
  C:BE61H         LINE#         42
  C:BE61H         LINE#         43
  C:BE64H         LINE#         44
  C:BE64H         LINE#         45
  C:BE66H         LINE#         46
  C:BE68H         LINE#         48
  C:BE69H         LINE#         49
  C:BE69H         LINE#         50
  C:BE74H         LINE#         52
BL51 BANKED LINKER/LOCATER V6.22.2.0                                                  05/31/2021  13:02:58  PAGE 43


  C:BE74H         LINE#         53
  C:BE74H         LINE#         55
  C:BE74H         LINE#         56
  -------         ENDPROC       ACKD
  -------         PROC          L?0061
  -------         ENDPROC       L?0061
  -------         PROC          ACK_LECT
  -------         DO            
  D:0006H         SYMBOL        i
  -------         ENDDO         
  C:BE78H         LINE#         59
  C:BE78H         LINE#         60
  C:BE78H         LINE#         62
  C:BE7AH         LINE#         63
  C:BE7CH         LINE#         64
  C:BE7EH         LINE#         65
  C:BE81H         LINE#         66
  C:BE81H         LINE#         67
  C:BE84H         LINE#         68
  C:BE84H         LINE#         69
  C:BE86H         LINE#         70
  C:BE88H         LINE#         71
  C:BE89H         LINE#         72
  C:BE89H         LINE#         73
  C:BE94H         LINE#         74
  -------         ENDPROC       ACK_LECT
  -------         PROC          P_ME
  C:C095H         LINE#         76
  C:C095H         LINE#         77
  C:C095H         LINE#         78
  C:C097H         LINE#         79
  C:C098H         LINE#         80
  C:C09AH         LINE#         81
  -------         ENDPROC       P_ME
  -------         PROC          _E_D_M
  D:0007H         SYMBOL        a_serial_eeprom
  -------         DO            
  D:0006H         SYMBOL        nbits
  -------         ENDDO         
  C:BDF0H         LINE#         83
  C:BDF0H         LINE#         84
  C:BDF0H         LINE#         86
  C:BDFCH         LINE#         87
  C:BDFCH         LINE#         88
  C:BE00H         LINE#         89
  C:BE03H         LINE#         90
  C:BE03H         LINE#         91
  C:BE05H         LINE#         92
  C:BE07H         LINE#         94
  C:BE07H         LINE#         95
  C:BE09H         LINE#         96
  C:BE09H         LINE#         97
  C:BE0BH         LINE#         98
  C:BE0EH         LINE#         99
  C:BE11H         LINE#         101
  -------         ENDPROC       _E_D_M
  -------         PROC          L?0058
BL51 BANKED LINKER/LOCATER V6.22.2.0                                                  05/31/2021  13:02:58  PAGE 44


  -------         ENDPROC       L?0058
  -------         PROC          START
  C:BFAAH         LINE#         103
  C:BFAAH         LINE#         104
  C:BFAAH         LINE#         105
  C:BFACH         LINE#         106
  C:BFAEH         LINE#         107
  C:BFAFH         LINE#         108
  C:BFB1H         LINE#         109
  C:BFB3H         LINE#         111
  -------         ENDPROC       START
  -------         PROC          STOP
  C:C037H         LINE#         113
  C:C037H         LINE#         114
  C:C037H         LINE#         115
  C:C039H         LINE#         116
  C:C03BH         LINE#         117
  C:C03CH         LINE#         118
  C:C03EH         LINE#         119
  C:C040H         LINE#         121
  -------         ENDPROC       STOP
  -------         PROC          L_D_M
  -------         DO            
  D:0003H         SYMBOL        nbits
  -------         ENDDO         
  C:B372H         LINE#         123
  C:B372H         LINE#         124
  C:B372H         LINE#         126
  C:B37FH         LINE#         127
  C:B37FH         LINE#         128
  C:B381H         LINE#         129
  C:B384H         LINE#         130
  C:B384H         LINE#         131
  C:B38BH         LINE#         132
  C:B394H         LINE#         133
  C:B394H         LINE#         134
  C:B398H         LINE#         135
  C:B39AH         LINE#         136
  C:B39AH         LINE#         137
  C:B39AH         LINE#         138
  C:B39DH         LINE#         139
  C:B39DH         LINE#         140
  C:B3A4H         LINE#         141
  C:B3AEH         LINE#         142
  C:B3AEH         LINE#         143
  C:B3B2H         LINE#         144
  C:B3B4H         LINE#         145
  C:B3B4H         LINE#         146
  C:B3B4H         LINE#         147
  C:B3B7H         LINE#         148
  C:B3B9H         LINE#         149
  C:B3BEH         LINE#         150
  -------         ENDPROC       L_D_M
  -------         PROC          L?0056
  -------         ENDPROC       L?0056
  -------         PROC          _WR_EEPROM
  D:0002H         SYMBOL        control
BL51 BANKED LINKER/LOCATER V6.22.2.0                                                  05/31/2021  13:02:58  PAGE 45


  D:0004H         SYMBOL        Dir
  D:0003H         SYMBOL        data_eeprom
  -------         DO            
  D:0005H         SYMBOL        dir_h
  D:0001H         SYMBOL        dir_l
  -------         ENDDO         
  C:B292H         LINE#         156
  C:B294H         LINE#         157
  C:B294H         LINE#         159
  C:B298H         LINE#         160
  C:B298H         LINE#         161
  C:B298H         LINE#         164
  C:B298H         LINE#         165
  C:B298H         LINE#         167
  C:B29BH         LINE#         168
  C:B29DH         LINE#         169
  C:B2A0H         LINE#         170
  C:B2A2H         LINE#         171
  C:B2A5H         LINE#         172
  C:B2AAH         LINE#         173
  C:B2ADH         LINE#         174
  C:B2B2H         LINE#         175
  C:B2B5H         LINE#         176
  C:B2B8H         LINE#         177
  C:B2BFH         LINE#         179
  C:B2C1H         LINE#         180
  C:B2C3H         LINE#         181
  C:B2CAH         LINE#         182
  -------         ENDPROC       _WR_EEPROM
  C:B956H         SYMBOL        L?0060
  -------         PROC          L?0059
  -------         ENDPROC       L?0059
  C:B956H         SYMBOL        L?0060
  -------         PROC          _RD_EEPROM
  D:0003H         SYMBOL        control
  D:0004H         SYMBOL        Dir
  -------         DO            
  D:0005H         SYMBOL        dir_h
  D:0002H         SYMBOL        dir_l
  -------         ENDDO         
  C:B95AH         LINE#         220
  C:B95CH         LINE#         221
  C:B95CH         LINE#         224
  C:B960H         LINE#         225
  C:B960H         LINE#         226
  C:B960H         LINE#         228
  C:B960H         LINE#         229
  C:B960H         LINE#         231
  C:B963H         LINE#         232
  C:B965H         LINE#         233
  C:B968H         LINE#         234
  C:B96AH         LINE#         235
  C:B96DH         LINE#         236
  C:B972H         LINE#         237
  C:B975H         LINE#         238
  C:B978H         LINE#         239
  C:B97EH         LINE#         240
BL51 BANKED LINKER/LOCATER V6.22.2.0                                                  05/31/2021  13:02:58  PAGE 46


  C:B981H         LINE#         241
  C:B983H         LINE#         242
  C:B986H         LINE#         243
  C:B989H         LINE#         244
  C:B98BH         LINE#         245
  C:B98DH         LINE#         246
  C:B992H         LINE#         247
  -------         ENDPROC       _RD_EEPROM
  -------         PROC          _GRABA_SERIE
  X:0010H         SYMBOL        buffer
  -------         DO            
  X:0013H         SYMBOL        j
  X:0014H         SYMBOL        error
  -------         ENDDO         
  C:8ACBH         LINE#         254
  C:8AD6H         LINE#         255
  C:8AD6H         LINE#         258
  C:8ADBH         LINE#         263
  C:8AEDH         LINE#         265
  C:8B00H         LINE#         266
  C:8B00H         LINE#         267
  C:8B29H         LINE#         268
  C:8B29H         LINE#         269
  C:8B2FH         LINE#         271
  C:8B38H         LINE#         272
  C:8B46H         LINE#         273
  C:8B4FH         LINE#         274
  C:8B4FH         LINE#         276
  C:8B57H         LINE#         280
  C:8B5DH         LINE#         281
  C:8B5DH         LINE#         282
  C:8B6BH         LINE#         284
  C:8B6BH         LINE#         286
  C:8B6BH         LINE#         287
  C:8B75H         LINE#         288
  C:8B80H         LINE#         289
  C:8B8BH         LINE#         290
  C:8B96H         LINE#         292
  C:8B96H         LINE#         293
  -------         ENDPROC       _GRABA_SERIE
  -------         PROC          _WRITE_EEPROM_TICKET
  X:0015H         SYMBOL        buffer
  -------         DO            
  X:0018H         SYMBOL        cod_3
  X:0019H         SYMBOL        cod_2
  X:001AH         SYMBOL        cod_1
  X:001BH         SYMBOL        cod_0
  X:001CH         SYMBOL        Noticket
  D:0004H         SYMBOL        Bnoticket
  -------         ENDDO         
  C:83D3H         LINE#         294
  C:83DEH         LINE#         295
  C:83DEH         LINE#         297
  C:83E6H         LINE#         298
  C:83EFH         LINE#         299
  C:83FDH         LINE#         300
  C:8406H         LINE#         301
BL51 BANKED LINKER/LOCATER V6.22.2.0                                                  05/31/2021  13:02:58  PAGE 47


  C:841AH         LINE#         303
  C:8423H         LINE#         304
  C:8436H         LINE#         305
  C:843BH         LINE#         306
  C:843EH         LINE#         308
  C:8451H         LINE#         309
  C:8456H         LINE#         310
  C:8459H         LINE#         312
  C:846CH         LINE#         313
  C:8471H         LINE#         314
  C:8474H         LINE#         316
  C:8480H         LINE#         317
  C:8483H         LINE#         318
  C:848CH         LINE#         320
  C:849AH         LINE#         321
  C:84A8H         LINE#         322
  C:84B6H         LINE#         323
  -------         ENDPROC       _WRITE_EEPROM_TICKET
  -------         PROC          LEE_NO_TICKET
  -------         DO            
  D:0004H         SYMBOL        Noticket
  X:0043H         SYMBOL        Lee_No_Ticket
  D:0007H         SYMBOL        num_chr
  -------         ENDDO         
  C:B3BFH         LINE#         328
  C:B3BFH         LINE#         329
  C:B3BFH         LINE#         333
  C:B3C2H         LINE#         334
  C:B3DDH         LINE#         335
  C:B3E6H         LINE#         336
  C:B3F2H         LINE#         337
  C:B3FBH         LINE#         338
  C:B404H         LINE#         339
  C:B40AH         LINE#         340
  -------         ENDPROC       LEE_NO_TICKET
  -------         PROC          READ_EEPROM_TICKET
  -------         DO            
  D:0001H         SYMBOL        cod3
  X:004EH         SYMBOL        cod2
  X:004FH         SYMBOL        cod1
  X:0050H         SYMBOL        cod0
  X:0051H         SYMBOL        Noticket
  -------         ENDDO         
  C:8C62H         LINE#         344
  C:8C62H         LINE#         345
  C:8C62H         LINE#         347
  C:8C6CH         LINE#         348
  C:8C73H         LINE#         349
  C:8C7DH         LINE#         350
  C:8C8BH         LINE#         351
  C:8C95H         LINE#         353
  C:8CB5H         LINE#         354
  C:8CDAH         LINE#         355
  C:8CFFH         LINE#         356
  C:8D1DH         LINE#         357
  C:8D2BH         LINE#         358
  -------         ENDPROC       READ_EEPROM_TICKET
BL51 BANKED LINKER/LOCATER V6.22.2.0                                                  05/31/2021  13:02:58  PAGE 48


  -------         PROC          INCREMENTE_TICKET
  -------         DO            
  D:0004H         SYMBOL        Noticket
  X:0009H         SYMBOL        Lee_No_Ticket
  -------         ENDDO         
  C:BB9BH         LINE#         362
  C:BB9BH         LINE#         363
  C:BB9BH         LINE#         367
  C:BB9EH         LINE#         368
  C:BBABH         LINE#         369
  C:BBC6H         LINE#         370
  -------         ENDPROC       INCREMENTE_TICKET
  -------         PROC          _LEERMEMORIA
  X:009CH         SYMBOL        addres
  X:009EH         SYMBOL        res
  -------         DO            
  D:0007H         SYMBOL        i
  -------         ENDDO         
  C:B041H         LINE#         376
  C:B052H         LINE#         377
  C:B052H         LINE#         379
  C:B052H         LINE#         380
  C:B06EH         LINE#         381
  C:B07DH         LINE#         382
  C:B08BH         LINE#         383
  C:B095H         LINE#         384
  C:B098H         LINE#         385
  -------         ENDPROC       _LEERMEMORIA
  -------         PROC          _ESCRIBIRMEMORIA
  X:005DH         SYMBOL        addres
  X:005FH         SYMBOL        res
  C:AE90H         LINE#         387
  C:AEA1H         LINE#         388
  C:AEA1H         LINE#         391
  C:AEB1H         LINE#         392
  C:AEB8H         LINE#         393
  C:AEBBH         LINE#         395
  C:AEC9H         LINE#         396
  C:AED3H         LINE#         397
  C:AED5H         LINE#         398
  C:AED8H         LINE#         399
  C:AEE6H         LINE#         400
  C:AEF0H         LINE#         401
  -------         ENDPROC       _ESCRIBIRMEMORIA
  -------         ENDMOD        EEPROM

  -------         MODULE        IO_SENSORES
  C:0000H         SYMBOL        _ICE_DUMMY_
  D:0090H         PUBLIC        P1
  D:00B0H         PUBLIC        P3
  C:B6D7H         PUBLIC        Dir_board
  B:0021H.7       PUBLIC        PULSADOR_BOTTON
  C:C072H         PUBLIC        sel_Pulsa
  B:0090H.1       PUBLIC        DataIn
  C:BF52H         PUBLIC        Dir_Board_Monitor
  C:C06BH         PUBLIC        sel_Auto
  C:BAF7H         PUBLIC        ValidaSensoresPaso
BL51 BANKED LINKER/LOCATER V6.22.2.0                                                  05/31/2021  13:02:58  PAGE 49


  B:00B0H.3       PUBLIC        busy
  C:BE95H         PUBLIC        ValidaSensor
  C:C080H         PUBLIC        sel_Sensor1
  C:C079H         PUBLIC        sel_Sensor2
  C:BE12H         PUBLIC        ValidaSensor_cero
  C:B220H         PUBLIC        Valida_Sensor1_Auto
  B:00B0H.5       PUBLIC        sel_A
  B:00B0H.6       PUBLIC        sel_B
  B:00B0H.7       PUBLIC        sel_C
  C:A7ACH         PUBLIC        msj_lcd_informativo
  C:C087H         PUBLIC        sel_Dir1
  C:C08EH         PUBLIC        sel_Dir2
  C:BFB4H         PUBLIC        Botton
  C:C064H         PUBLIC        sel_Funcion
  -------         PROC          SEL_FUNCION
  C:C064H         LINE#         33
  C:C064H         LINE#         34
  C:C064H         LINE#         35
  C:C066H         LINE#         36
  C:C068H         LINE#         37
  C:C06AH         LINE#         38
  -------         ENDPROC       SEL_FUNCION
  -------         PROC          SEL_AUTO
  C:C06BH         LINE#         40
  C:C06BH         LINE#         41
  C:C06BH         LINE#         42
  C:C06DH         LINE#         43
  C:C06FH         LINE#         44
  C:C071H         LINE#         45
  -------         ENDPROC       SEL_AUTO
  -------         PROC          SEL_PULSA
  C:C072H         LINE#         47
  C:C072H         LINE#         48
  C:C072H         LINE#         49
  C:C074H         LINE#         50
  C:C076H         LINE#         51
  C:C078H         LINE#         52
  -------         ENDPROC       SEL_PULSA
  -------         PROC          SEL_SENSOR2
  C:C079H         LINE#         55
  C:C079H         LINE#         56
  C:C079H         LINE#         57
  C:C07BH         LINE#         58
  C:C07DH         LINE#         59
  C:C07FH         LINE#         60
  -------         ENDPROC       SEL_SENSOR2
  -------         PROC          SEL_SENSOR1
  C:C080H         LINE#         62
  C:C080H         LINE#         63
  C:C080H         LINE#         64
  C:C082H         LINE#         65
  C:C084H         LINE#         66
  C:C086H         LINE#         67
  -------         ENDPROC       SEL_SENSOR1
  -------         PROC          SEL_DIR1
  C:C087H         LINE#         69
  C:C087H         LINE#         70
BL51 BANKED LINKER/LOCATER V6.22.2.0                                                  05/31/2021  13:02:58  PAGE 50


  C:C087H         LINE#         71
  C:C089H         LINE#         72
  C:C08BH         LINE#         73
  C:C08DH         LINE#         74
  -------         ENDPROC       SEL_DIR1
  -------         PROC          SEL_DIR2
  C:C08EH         LINE#         76
  C:C08EH         LINE#         77
  C:C08EH         LINE#         78
  C:C090H         LINE#         79
  C:C092H         LINE#         80
  C:C094H         LINE#         81
  -------         ENDPROC       SEL_DIR2
  -------         PROC          BOTTON
  C:BFB4H         LINE#         82
  C:BFB4H         LINE#         83
  C:BFB4H         LINE#         84
  C:BFB7H         LINE#         85
  C:BFBAH         LINE#         86
  C:BFBAH         LINE#         87
  C:BFC3H         LINE#         88
  C:BFC5H         LINE#         89
  C:BFC5H         LINE#         91
  -------         ENDPROC       BOTTON
  -------         PROC          VALIDASENSOR
  -------         DO            
  D:0007H         SYMBOL        Valido
  D:0004H         SYMBOL        Tmin
  -------         ENDDO         
  C:BE95H         LINE#         93
  C:BE95H         LINE#         94
  C:BE95H         LINE#         96
  C:BE97H         LINE#         97
  C:BE9BH         LINE#         98
  C:BEA6H         LINE#         99
  C:BEA6H         LINE#         100
  C:BEABH         LINE#         101
  C:BEAFH         LINE#         102
  C:BEAFH         LINE#         103
  C:BEB1H         LINE#         104
  C:BEB1H         LINE#         105
  C:BEB3H         LINE#         106
  C:BEB3H         LINE#         107
  -------         ENDPROC       VALIDASENSOR
  -------         PROC          VALIDASENSOR_CERO
  -------         DO            
  D:0007H         SYMBOL        Valido
  D:0004H         SYMBOL        Tmin
  -------         ENDDO         
  C:BE12H         LINE#         108
  C:BE12H         LINE#         109
  C:BE12H         LINE#         111
  C:BE14H         LINE#         112
  C:BE18H         LINE#         113
  C:BE27H         LINE#         114
  C:BE27H         LINE#         115
  C:BE2CH         LINE#         116
BL51 BANKED LINKER/LOCATER V6.22.2.0                                                  05/31/2021  13:02:58  PAGE 51


  C:BE30H         LINE#         117
  C:BE30H         LINE#         118
  C:BE31H         LINE#         119
  C:BE31H         LINE#         120
  C:BE33H         LINE#         121
  C:BE33H         LINE#         122
  -------         ENDPROC       VALIDASENSOR_CERO
  -------         PROC          DIR_BOARD
  -------         DO            
  X:0032H         SYMBOL        Board
  D:0007H         SYMBOL        Board_High
  -------         ENDDO         
  C:B6D7H         LINE#         126
  C:B6D7H         LINE#         127
  C:B6D7H         LINE#         128
  C:B6DDH         LINE#         130
  C:B6E0H         LINE#         131
  C:B6E3H         LINE#         132
  C:B6E3H         LINE#         133
  C:B6E6H         LINE#         134
  C:B6E6H         LINE#         135
  C:B6E9H         LINE#         136
  C:B6ECH         LINE#         137
  C:B6ECH         LINE#         138
  C:B6F3H         LINE#         139
  C:B6F3H         LINE#         140
  C:B6FBH         LINE#         141
  C:B6FBH         LINE#         142
  C:B703H         LINE#         144
  C:B706H         LINE#         145
  C:B706H         LINE#         146
  C:B70CH         LINE#         147
  C:B70CH         LINE#         148
  C:B70EH         LINE#         149
  C:B710H         LINE#         150
  C:B712H         LINE#         151
  C:B712H         LINE#         153
  C:B712H         LINE#         154
  C:B719H         LINE#         155
  -------         ENDPROC       DIR_BOARD
  -------         PROC          DIR_BOARD_MONITOR
  -------         DO            
  D:0007H         SYMBOL        Board_High
  -------         ENDDO         
  C:BF52H         LINE#         156
  C:BF52H         LINE#         157
  C:BF52H         LINE#         160
  C:BF5BH         LINE#         161
  C:BF5EH         LINE#         162
  C:BF5EH         LINE#         163
  C:BF61H         LINE#         164
  C:BF61H         LINE#         165
  C:BF63H         LINE#         166
  C:BF63H         LINE#         167
  C:BF63H         LINE#         168
  C:BF67H         LINE#         169
  -------         ENDPROC       DIR_BOARD_MONITOR
BL51 BANKED LINKER/LOCATER V6.22.2.0                                                  05/31/2021  13:02:58  PAGE 52


  -------         PROC          VALIDA_SENSOR1_AUTO
  -------         DO            
  X:0011H         SYMBOL        sensor
  -------         ENDDO         
  C:B220H         LINE#         173
  C:B220H         LINE#         174
  C:B220H         LINE#         176
  C:B223H         LINE#         177
  C:B226H         LINE#         178
  C:B229H         LINE#         179
  C:B22EH         LINE#         180
  C:B22EH         LINE#         181
  C:B235H         LINE#         182
  C:B239H         LINE#         183
  C:B239H         LINE#         184
  C:B239H         LINE#         185
  C:B23BH         LINE#         187
  C:B23BH         LINE#         188
  C:B242H         LINE#         189
  C:B247H         LINE#         190
  C:B247H         LINE#         191
  C:B247H         LINE#         192
  C:B247H         LINE#         195
  C:B249H         LINE#         197
  C:B24CH         LINE#         198
  C:B251H         LINE#         199
  C:B251H         LINE#         201
  C:B258H         LINE#         202
  C:B25EH         LINE#         203
  C:B264H         LINE#         204
  C:B267H         LINE#         205
  C:B269H         LINE#         207
  C:B269H         LINE#         208
  C:B270H         LINE#         209
  C:B275H         LINE#         210
  C:B275H         LINE#         213
  C:B275H         LINE#         215
  C:B27AH         LINE#         216
  -------         ENDPROC       VALIDA_SENSOR1_AUTO
  -------         PROC          VALIDASENSORESPASO
  -------         DO            
  X:0010H         SYMBOL        sensor
  -------         ENDDO         
  C:BAF7H         LINE#         221
  C:BAF7H         LINE#         222
  C:BAF7H         LINE#         224
  C:BAFAH         LINE#         225
  C:BAFDH         LINE#         226
  C:BAFDH         LINE#         227
  C:BB0BH         LINE#         228
  C:BB0BH         LINE#         229
  C:BB13H         LINE#         231
  C:BB15H         LINE#         233
  C:BB15H         LINE#         234
  C:BB1BH         LINE#         235
  C:BB1DH         LINE#         236
  C:BB1DH         LINE#         237
BL51 BANKED LINKER/LOCATER V6.22.2.0                                                  05/31/2021  13:02:58  PAGE 53


  C:BB1DH         LINE#         238
  C:BB1DH         LINE#         239
  C:BB26H         LINE#         240
  C:BB29H         LINE#         241
  C:BB29H         LINE#         242
  C:BB2EH         LINE#         243
  -------         ENDPROC       VALIDASENSORESPASO
  -------         PROC          MSJ_LCD_INFORMATIVO
  -------         DO            
  X:0216H         SYMBOL        contador
  X:0001H         SYMBOL        info
  X:0217H         SYMBOL        toggle
  -------         ENDDO         
  C:A7ACH         LINE#         253
  C:A7ACH         LINE#         254
  C:A7ACH         LINE#         256
  C:A7B1H         LINE#         258
  C:A7B7H         LINE#         259
  C:A7C1H         LINE#         260
  C:A7C1H         LINE#         261
  C:A7C3H         LINE#         262
  C:A7C6H         LINE#         263
  C:A7CFH         LINE#         264
  C:A7CFH         LINE#         265
  C:A7D9H         LINE#         266
  C:A7D9H         LINE#         267
  C:A7E5H         LINE#         268
  C:A7E5H         LINE#         269
  C:A7E8H         LINE#         270
  C:A7E8H         LINE#         271
  C:A7EAH         LINE#         272
  C:A7EDH         LINE#         273
  C:A7F3H         LINE#         274
  C:A7F3H         LINE#         275
  C:A801H         LINE#         276
  C:A801H         LINE#         277
  C:A807H         LINE#         278
  C:A807H         LINE#         279
  C:A809H         LINE#         280
  C:A817H         LINE#         281
  C:A817H         LINE#         282
  C:A81AH         LINE#         283
  C:A81AH         LINE#         284
  C:A81CH         LINE#         285
  C:A81FH         LINE#         286
  C:A824H         LINE#         287
  C:A824H         LINE#         288
  C:A824H         LINE#         289
  C:A824H         LINE#         290
  C:A824H         LINE#         291
  C:A827H         LINE#         292
  C:A82AH         LINE#         293
  C:A82AH         LINE#         294
  C:A82FH         LINE#         295
  C:A82FH         LINE#         296
  C:A82FH         LINE#         297
  -------         ENDPROC       MSJ_LCD_INFORMATIVO
BL51 BANKED LINKER/LOCATER V6.22.2.0                                                  05/31/2021  13:02:58  PAGE 54


  -------         ENDMOD        IO_SENSORES

  -------         MODULE        PANTALLAS
  C:0000H         SYMBOL        _ICE_DUMMY_
  D:0080H         PUBLIC        P0
  C:AC3BH         PUBLIC        Reloj_Pantalla_Lcd
  C:2776H         PUBLIC        _PantallaLCD
  C:B69BH         PUBLIC        _LCD_txt
  C:A941H         PUBLIC        _Raspberry_data
  C:BD3DH         PUBLIC        _tx_chrlcd
  C:356BH         SYMBOL        _?ix1000
  C:3571H         SYMBOL        _?ix1001
  C:3577H         SYMBOL        _?ix1002
  C:359FH         SYMBOL        _?ix1003
  C:B607H         PUBLIC        _LCD_txt_num_char
  C:4C23H         PUBLIC        _PantallaLCD_LINEA_2
  B:0098H.4       PUBLIC        REN
  B:0080H.7       PUBLIC        sel_com
  -------         PROC          _PANTALLALCD
  X:002AH         SYMBOL        cod_msg
  -------         DO            
  X:002BH         SYMBOL        Ini_LCD_Line_one
  X:0031H         SYMBOL        num_chr
  X:0032H         SYMBOL        msjpantalla
  -------         ENDDO         
  C:2776H         LINE#         96
  C:277BH         LINE#         97
  C:277BH         LINE#         99
  C:278EH         LINE#         104
  C:2795H         LINE#         108
  C:2797H         LINE#         110
  C:27A0H         LINE#         111
  C:27A0H         LINE#         112
  C:27AAH         LINE#         114
  C:2806H         LINE#         115
  C:2806H         LINE#         117
  C:2806H         LINE#         118
  C:2814H         LINE#         119
  C:281AH         LINE#         120
  C:281DH         LINE#         121
  C:2823H         LINE#         122
  C:2826H         LINE#         124
  C:2826H         LINE#         126
  C:2834H         LINE#         127
  C:283AH         LINE#         128
  C:283DH         LINE#         129
  C:2843H         LINE#         130
  C:2846H         LINE#         132
  C:2846H         LINE#         134
  C:2854H         LINE#         135
  C:285AH         LINE#         136
  C:285DH         LINE#         137
  C:2863H         LINE#         138
  C:2866H         LINE#         139
  C:2866H         LINE#         140
  C:2874H         LINE#         141
  C:287AH         LINE#         142
BL51 BANKED LINKER/LOCATER V6.22.2.0                                                  05/31/2021  13:02:58  PAGE 55


  C:287DH         LINE#         143
  C:2883H         LINE#         144
  C:2886H         LINE#         145
  C:2886H         LINE#         146
  C:2894H         LINE#         147
  C:289AH         LINE#         148
  C:289DH         LINE#         149
  C:28A3H         LINE#         150
  C:28A6H         LINE#         151
  C:28A6H         LINE#         152
  C:28B4H         LINE#         153
  C:28BAH         LINE#         154
  C:28BDH         LINE#         155
  C:28C3H         LINE#         156
  C:28C6H         LINE#         157
  C:28C6H         LINE#         159
  C:28D4H         LINE#         160
  C:28DAH         LINE#         161
  C:28DDH         LINE#         162
  C:28E3H         LINE#         163
  C:28E6H         LINE#         164
  C:28E6H         LINE#         170
  C:28E6H         LINE#         171
  C:28F4H         LINE#         172
  C:28FAH         LINE#         173
  C:28FDH         LINE#         174
  C:2903H         LINE#         175
  C:2906H         LINE#         176
  C:2906H         LINE#         177
  C:2914H         LINE#         178
  C:291AH         LINE#         179
  C:291DH         LINE#         180
  C:2923H         LINE#         181
  C:2926H         LINE#         183
  C:2926H         LINE#         184
  C:2934H         LINE#         185
  C:293AH         LINE#         186
  C:293DH         LINE#         187
  C:2943H         LINE#         188
  C:2946H         LINE#         190
  C:2946H         LINE#         191
  C:2954H         LINE#         192
  C:295AH         LINE#         193
  C:295DH         LINE#         194
  C:2963H         LINE#         195
  C:2966H         LINE#         200
  C:2966H         LINE#         202
  C:2974H         LINE#         203
  C:297AH         LINE#         204
  C:297DH         LINE#         205
  C:2983H         LINE#         206
  C:2986H         LINE#         208
  C:2986H         LINE#         210
  C:2994H         LINE#         211
  C:299AH         LINE#         212
  C:299DH         LINE#         213
  C:29A3H         LINE#         214
BL51 BANKED LINKER/LOCATER V6.22.2.0                                                  05/31/2021  13:02:58  PAGE 56


  C:29A6H         LINE#         216
  C:29A6H         LINE#         217
  C:29B4H         LINE#         218
  C:29BAH         LINE#         219
  C:29BDH         LINE#         220
  C:29C3H         LINE#         221
  C:29C6H         LINE#         223
  C:29C6H         LINE#         225
  C:29D4H         LINE#         226
  C:29DAH         LINE#         227
  C:29DDH         LINE#         228
  C:29E3H         LINE#         229
  C:29E6H         LINE#         231
  C:29E6H         LINE#         233
  C:29F4H         LINE#         234
  C:29FAH         LINE#         235
  C:29FDH         LINE#         236
  C:2A03H         LINE#         237
  C:2A06H         LINE#         239
  C:2A06H         LINE#         240
  C:2A14H         LINE#         241
  C:2A1AH         LINE#         242
  C:2A1DH         LINE#         243
  C:2A23H         LINE#         244
  C:2A26H         LINE#         246
  C:2A26H         LINE#         247
  C:2A34H         LINE#         248
  C:2A3AH         LINE#         249
  C:2A3DH         LINE#         250
  C:2A43H         LINE#         251
  C:2A46H         LINE#         253
  C:2A46H         LINE#         255
  C:2A54H         LINE#         256
  C:2A5AH         LINE#         257
  C:2A5DH         LINE#         258
  C:2A63H         LINE#         259
  C:2A66H         LINE#         261
  C:2A66H         LINE#         262
  C:2A74H         LINE#         263
  C:2A7AH         LINE#         264
  C:2A7DH         LINE#         265
  C:2A83H         LINE#         266
  C:2A86H         LINE#         267
  C:2A86H         LINE#         268
  C:2A94H         LINE#         269
  C:2A9AH         LINE#         270
  C:2A9DH         LINE#         271
  C:2AA3H         LINE#         272
  C:2AA6H         LINE#         273
  C:2AA6H         LINE#         274
  C:2AB4H         LINE#         275
  C:2ABAH         LINE#         276
  C:2ABDH         LINE#         277
  C:2AC3H         LINE#         278
  C:2AC6H         LINE#         279
  C:2AC6H         LINE#         280
  C:2AD4H         LINE#         281
BL51 BANKED LINKER/LOCATER V6.22.2.0                                                  05/31/2021  13:02:58  PAGE 57


  C:2AD7H         LINE#         282
  C:2ADDH         LINE#         283
  C:2ADFH         LINE#         287
  C:2ADFH         LINE#         288
  C:2AEDH         LINE#         289
  C:2AF3H         LINE#         290
  C:2AF6H         LINE#         291
  C:2AFCH         LINE#         292
  C:2AFEH         LINE#         293
  C:2AFEH         LINE#         294
  C:2B0CH         LINE#         295
  C:2B12H         LINE#         296
  C:2B15H         LINE#         297
  C:2B1BH         LINE#         298
  C:2B1DH         LINE#         299
  C:2B1DH         LINE#         300
  C:2B2BH         LINE#         301
  C:2B31H         LINE#         302
  C:2B34H         LINE#         303
  C:2B3FH         LINE#         304
  C:2B3FH         LINE#         313
  C:2B3FH         LINE#         315
  C:2B3FH         LINE#         316
  C:2B3FH         LINE#         317
  C:2B41H         LINE#         319
  C:2B42H         LINE#         321
  C:2B42H         LINE#         322
  C:2B44H         LINE#         323
  C:2BB2H         LINE#         324
  C:2BB2H         LINE#         327
  C:2BB2H         LINE#         328
  C:2BC6H         LINE#         329
  C:2BC6H         LINE#         331
  C:2BC9H         LINE#         332
  C:2BC9H         LINE#         335
  C:2BDDH         LINE#         336
  C:2BDDH         LINE#         337
  C:2BE0H         LINE#         339
  C:2BE0H         LINE#         340
  C:2BF4H         LINE#         341
  C:2BF4H         LINE#         343
  C:2BF7H         LINE#         344
  C:2BF7H         LINE#         345
  C:2C0BH         LINE#         346
  C:2C0BH         LINE#         348
  C:2C0EH         LINE#         349
  C:2C0EH         LINE#         350
  C:2C22H         LINE#         351
  C:2C22H         LINE#         353
  C:2C25H         LINE#         354
  C:2C25H         LINE#         355
  C:2C39H         LINE#         356
  C:2C39H         LINE#         358
  C:2C3CH         LINE#         359
  C:2C3CH         LINE#         360
  C:2C50H         LINE#         361
  C:2C50H         LINE#         363
BL51 BANKED LINKER/LOCATER V6.22.2.0                                                  05/31/2021  13:02:58  PAGE 58


  C:2C53H         LINE#         364
  C:2C53H         LINE#         365
  C:2C67H         LINE#         366
  C:2C67H         LINE#         368
  C:2C6AH         LINE#         369
  C:2C6AH         LINE#         370
  C:2C7EH         LINE#         371
  C:2C7EH         LINE#         373
  C:2C81H         LINE#         374
  C:2C81H         LINE#         375
  C:2C95H         LINE#         376
  C:2C95H         LINE#         378
  C:2C98H         LINE#         380
  C:2C98H         LINE#         381
  C:2CACH         LINE#         382
  C:2CACH         LINE#         384
  C:2CAFH         LINE#         386
  C:2CAFH         LINE#         387
  C:2CC3H         LINE#         388
  C:2CC3H         LINE#         390
  C:2CC6H         LINE#         392
  C:2CC6H         LINE#         393
  C:2CDAH         LINE#         394
  C:2CDAH         LINE#         396
  C:2CDDH         LINE#         400
  C:2CDDH         LINE#         401
  C:2CF1H         LINE#         402
  C:2CF1H         LINE#         404
  C:2CF4H         LINE#         406
  C:2CF4H         LINE#         407
  C:2D08H         LINE#         408
  C:2D08H         LINE#         410
  C:2D0BH         LINE#         412
  C:2D0BH         LINE#         413
  C:2D1FH         LINE#         414
  C:2D1FH         LINE#         417
  C:2D22H         LINE#         418
  C:2D22H         LINE#         419
  C:2D36H         LINE#         420
  C:2D36H         LINE#         422
  C:2D39H         LINE#         423
  C:2D39H         LINE#         424
  C:2D4DH         LINE#         425
  C:2D4DH         LINE#         427
  C:2D50H         LINE#         428
  C:2D50H         LINE#         429
  C:2D64H         LINE#         430
  C:2D64H         LINE#         432
  C:2D67H         LINE#         433
  C:2D67H         LINE#         434
  C:2D7BH         LINE#         435
  C:2D7BH         LINE#         437
  C:2D7EH         LINE#         439
  C:2D7EH         LINE#         440
  C:2D92H         LINE#         441
  C:2D92H         LINE#         443
  C:2D95H         LINE#         445
BL51 BANKED LINKER/LOCATER V6.22.2.0                                                  05/31/2021  13:02:58  PAGE 59


  C:2D95H         LINE#         446
  C:2DA9H         LINE#         447
  C:2DA9H         LINE#         449
  C:2DACH         LINE#         450
  C:2DACH         LINE#         451
  C:2DC0H         LINE#         452
  C:2DC0H         LINE#         454
  C:2DC3H         LINE#         455
  C:2DC3H         LINE#         456
  C:2DD7H         LINE#         457
  C:2DD7H         LINE#         459
  C:2DDAH         LINE#         460
  C:2DDAH         LINE#         461
  C:2DEEH         LINE#         462
  C:2DEEH         LINE#         464
  C:2DF1H         LINE#         466
  C:2DF1H         LINE#         467
  C:2E05H         LINE#         468
  C:2E05H         LINE#         470
  C:2E08H         LINE#         471
  C:2E08H         LINE#         472
  C:2E1CH         LINE#         473
  C:2E1CH         LINE#         475
  C:2E1FH         LINE#         476
  C:2E1FH         LINE#         477
  C:2E33H         LINE#         478
  C:2E33H         LINE#         480
  C:2E35H         LINE#         482
  C:2E35H         LINE#         483
  C:2E49H         LINE#         484
  C:2E49H         LINE#         486
  C:2E4BH         LINE#         489
  C:2E4BH         LINE#         490
  C:2E5FH         LINE#         491
  C:2E5FH         LINE#         493
  C:2E61H         LINE#         494
  C:2E61H         LINE#         495
  C:2E75H         LINE#         496
  C:2E75H         LINE#         498
  C:2E77H         LINE#         499
  C:2E77H         LINE#         500
  C:2E8BH         LINE#         501
  C:2E8BH         LINE#         502
  C:2E8DH         LINE#         504
  C:2E8DH         LINE#         505
  C:2EA4H         LINE#         506
  C:2EB3H         LINE#         507
  C:2EB3H         LINE#         512
  C:2EB3H         LINE#         513
  C:2EB3H         LINE#         514
  C:2EB3H         LINE#         516
  C:2EBAH         LINE#         517
  C:2EBCH         LINE#         518
  C:2EBCH         LINE#         522
  -------         ENDPROC       _PANTALLALCD
  -------         PROC          _PANTALLALCD_LINEA_2
  X:0010H         SYMBOL        cod_msg
BL51 BANKED LINKER/LOCATER V6.22.2.0                                                  05/31/2021  13:02:58  PAGE 60


  X:0011H         SYMBOL        buffer
  -------         DO            
  X:0014H         SYMBOL        Ini_LCD_Line_one
  X:001AH         SYMBOL        num_chr
  X:001BH         SYMBOL        msjpantalla
  -------         ENDDO         
  C:4C23H         LINE#         523
  C:4C31H         LINE#         524
  C:4C31H         LINE#         526
  C:4C44H         LINE#         528
  C:4C57H         LINE#         535
  C:4C59H         LINE#         537
  C:4C62H         LINE#         538
  C:4C62H         LINE#         541
  C:4C70H         LINE#         542
  C:4C70H         LINE#         544
  C:4C70H         LINE#         545
  C:4C73H         LINE#         546
  C:4C81H         LINE#         547
  C:4C96H         LINE#         548
  C:4C9CH         LINE#         549
  C:4CA2H         LINE#         550
  C:4CA8H         LINE#         551
  C:4CA8H         LINE#         552
  C:4CAAH         LINE#         553
  C:4CAAH         LINE#         554
  C:4CADH         LINE#         555
  C:4CBBH         LINE#         556
  C:4CD0H         LINE#         557
  C:4CD6H         LINE#         558
  C:4CDCH         LINE#         559
  C:4CE7H         LINE#         560
  C:4CF7H         LINE#         561
  C:4CF7H         LINE#         565
  C:4CF7H         LINE#         567
  C:4CF7H         LINE#         569
  C:4CF7H         LINE#         570
  C:4CF9H         LINE#         571
  C:4CFAH         LINE#         573
  C:4CFAH         LINE#         574
  C:4CFCH         LINE#         576
  C:4D24H         LINE#         577
  C:4D24H         LINE#         578
  C:4D24H         LINE#         581
  C:4D30H         LINE#         583
  C:4D30H         LINE#         585
  C:4D30H         LINE#         588
  C:4D30H         LINE#         591
  C:4D33H         LINE#         593
  C:4D33H         LINE#         594
  C:4D3FH         LINE#         595
  C:4D3FH         LINE#         596
  C:4D3FH         LINE#         597
  C:4D3FH         LINE#         598
  C:4D3FH         LINE#         599
  C:4D3FH         LINE#         601
  C:4D42H         LINE#         602
BL51 BANKED LINKER/LOCATER V6.22.2.0                                                  05/31/2021  13:02:58  PAGE 61


  C:4D42H         LINE#         604
  C:4D4EH         LINE#         605
  C:4D51H         LINE#         606
  C:4D54H         LINE#         607
  C:4D54H         LINE#         609
  C:4D5DH         LINE#         611
  C:4D5DH         LINE#         612
  C:4D5FH         LINE#         614
  C:4D5FH         LINE#         616
  C:4D70H         LINE#         618
  C:4D73H         LINE#         620
  C:4D73H         LINE#         621
  C:4D7EH         LINE#         622
  C:4D7EH         LINE#         623
  C:4D85H         LINE#         625
  C:4D9BH         LINE#         627
  C:4DB2H         LINE#         628
  C:4DB5H         LINE#         630
  C:4DB5H         LINE#         631
  C:4DBCH         LINE#         633
  C:4DBCH         LINE#         634
  C:4DBCH         LINE#         637
  C:4DBFH         LINE#         638
  C:4DBFH         LINE#         639
  C:4DCEH         LINE#         640
  C:4DECH         LINE#         641
  C:4E03H         LINE#         643
  C:4E03H         LINE#         645
  C:4E06H         LINE#         646
  C:4E06H         LINE#         647
  C:4E15H         LINE#         648
  C:4E28H         LINE#         649
  C:4E42H         LINE#         650
  C:4E60H         LINE#         651
  C:4E77H         LINE#         652
  C:4E77H         LINE#         654
  C:4E79H         LINE#         655
  C:4E79H         LINE#         656
  C:4E88H         LINE#         657
  C:4EA6H         LINE#         658
  C:4EBDH         LINE#         659
  C:4EC0H         LINE#         660
  C:4EC0H         LINE#         661
  C:4EC0H         LINE#         663
  C:4EC0H         LINE#         664
  C:4EC0H         LINE#         666
  C:4EC5H         LINE#         667
  C:4EC7H         LINE#         668
  C:4EC7H         LINE#         669
  -------         ENDPROC       _PANTALLALCD_LINEA_2
  C:BD34H         SYMBOL        L?0176
  C:BD37H         SYMBOL        L?0177
  C:BD38H         SYMBOL        L?0178
  -------         PROC          L?0175
  -------         ENDPROC       L?0175
  C:BD34H         SYMBOL        L?0176
  C:BD37H         SYMBOL        L?0177
BL51 BANKED LINKER/LOCATER V6.22.2.0                                                  05/31/2021  13:02:58  PAGE 62


  C:BD38H         SYMBOL        L?0178
  -------         PROC          _TX_CHRLCD
  D:0007H         SYMBOL        data_com
  X:0048H         SYMBOL        enable_char_add
  -------         DO            
  X:0049H         SYMBOL        d
  -------         ENDDO         
  C:BD3DH         LINE#         675
  C:BD42H         LINE#         676
  C:BD42H         LINE#         678
  C:BD4AH         LINE#         679
  C:BD5AH         LINE#         681
  -------         ENDPROC       _TX_CHRLCD
  -------         PROC          L?0181
  -------         ENDPROC       L?0181
  -------         PROC          _LCD_TXT
  X:0043H         SYMBOL        msg
  X:0046H         SYMBOL        enable_char_add
  -------         DO            
  X:0047H         SYMBOL        i
  -------         ENDDO         
  C:B69BH         LINE#         688
  C:B6A9H         LINE#         689
  C:B6A9H         LINE#         692
  C:B6C6H         LINE#         693
  C:B6C6H         LINE#         694
  C:B6CEH         LINE#         695
  C:B6D6H         LINE#         696
  -------         ENDPROC       _LCD_TXT
  -------         PROC          _LCD_TXT_NUM_CHAR
  X:001DH         SYMBOL        msg
  X:0020H         SYMBOL        length_char
  X:0021H         SYMBOL        enable_char_add
  -------         DO            
  X:0022H         SYMBOL        i
  -------         ENDDO         
  C:B607H         LINE#         703
  C:B615H         LINE#         704
  C:B615H         LINE#         707
  C:B628H         LINE#         708
  C:B628H         LINE#         709
  C:B644H         LINE#         710
  C:B64CH         LINE#         711
  -------         ENDPROC       _LCD_TXT_NUM_CHAR
  C:A93BH         SYMBOL        L?0180
  -------         PROC          L?0179
  -------         ENDPROC       L?0179
  C:A93BH         SYMBOL        L?0180
  -------         PROC          _RASPBERRY_DATA
  X:0043H         SYMBOL        msjpantalla
  -------         DO            
  X:0046H         SYMBOL        i
  X:0047H         SYMBOL        lenth_cadena
  X:0048H         SYMBOL        d
  -------         ENDDO         
  C:A941H         LINE#         713
  C:A94CH         LINE#         714
BL51 BANKED LINKER/LOCATER V6.22.2.0                                                  05/31/2021  13:02:58  PAGE 63


  C:A94CH         LINE#         721
  C:A954H         LINE#         723
  C:A966H         LINE#         724
  C:A966H         LINE#         726
  C:A978H         LINE#         727
  C:A978H         LINE#         728
  C:A97DH         LINE#         729
  C:A99BH         LINE#         731
  C:A9A3H         LINE#         734
  C:A9B5H         LINE#         735
  C:A9B5H         LINE#         737
  C:A9BAH         LINE#         739
  -------         ENDPROC       _RASPBERRY_DATA
  -------         PROC          RELOJ_PANTALLA_LCD
  -------         DO            
  X:0010H         SYMBOL        Ini_Clock_LCD
  -------         ENDDO         
  C:AC3BH         LINE#         747
  C:AC3BH         LINE#         748
  C:AC3BH         LINE#         750
  C:AC4EH         LINE#         752
  C:AC54H         LINE#         753
  C:AC54H         LINE#         754
  C:AC56H         LINE#         755
  C:AC5FH         LINE#         759
  C:AC61H         LINE#         760
  C:AC71H         LINE#         762
  C:AC73H         LINE#         763
  C:AC75H         LINE#         765
  C:AC76H         LINE#         767
  C:AC76H         LINE#         768
  C:AC78H         LINE#         769
  C:AC7DH         LINE#         770
  C:AC8CH         LINE#         772
  C:AC95H         LINE#         773
  C:ACACH         LINE#         774
  C:ACB5H         LINE#         777
  C:ACB7H         LINE#         778
  C:ACB7H         LINE#         779
  -------         ENDPROC       RELOJ_PANTALLA_LCD
  -------         ENDMOD        PANTALLAS

  -------         MODULE        PROG
  C:0000H         SYMBOL        _ICE_DUMMY_
  C:59EFH         PUBLIC        Prog_fecha_vencimiento
  C:6BF0H         PUBLIC        Prog_Sin_Cobro
  C:76A3H         PUBLIC        _Ver_Horario_Desde_Hasta
  C:7CEFH         PUBLIC        Prog_debug
  C:7FE3H         PUBLIC        Prog_AntiPassBack
  C:A2D8H         PUBLIC        _GetOption
  X:01B8H         PUBLIC        validacion
  C:81DBH         PUBLIC        Prog_Validar_Tipo_Vehiculo_Mensual
  X:01C3H         PUBLIC        cursor
  C:7589H         PUBLIC        _Prog_Horarios_on_off
  C:9F49H         PUBLIC        Show
  C:4340H         PUBLIC        Ver_Prog
  C:BBCFH         PUBLIC        Addr_Horarios
BL51 BANKED LINKER/LOCATER V6.22.2.0                                                  05/31/2021  13:02:58  PAGE 64


  C:962EH         PUBLIC        prog_id_cliente
  C:B722H         PUBLIC        _ValidarClave
  C:53C1H         PUBLIC        menu
  C:7DEBH         PUBLIC        Prog_Use_Lpr
  C:B0A7H         PUBLIC        _ListaComandos
  C:12F7H         SYMBOL        _?ix1000
  C:1302H         SYMBOL        _?ix1001
  C:1312H         SYMBOL        _?ix1002
  C:1322H         SYMBOL        _?ix1003
  C:1326H         SYMBOL        _?ix1004
  C:6AABH         PUBLIC        Prog_Horarios
  C:132AH         SYMBOL        _?ix1005
  C:82D7H         PUBLIC        Prog_Apb_Mensual
  C:9040H         PUBLIC        Prog_tarjeta_automatica_o_boton
  C:55EDH         PUBLIC        _hash_id
  C:496CH         PUBLIC        _Prog_Horario_dias
  C:93FDH         PUBLIC        Prog_tiempo_gracia
  C:AA44H         PUBLIC        _IngresaDato
  X:01D7H         PUBLIC        comandos
  C:B4EBH         PUBLIC        First_Clave
  C:BF24H         PUBLIC        DisplayCursor
  C:80DFH         PUBLIC        Prog_Placa
  C:9340H         PUBLIC        prog_cod_park
  C:6FA8H         PUBLIC        Ver_Horario
  C:7461H         PUBLIC        _Ver_Horario_dias
  C:57F5H         PUBLIC        _Prog_Horario_Desde_Hasta
  C:7EE7H         PUBLIC        tipo_pantalla
  C:8692H         PUBLIC        Prog_Address_High_Board
  C:B7E4H         PUBLIC        _GetCMD
  -------         PROC          _HASH_ID
  X:005DH         SYMBOL        clave
  -------         DO            
  X:0060H         SYMBOL        len_clave
  X:0061H         SYMBOL        i
  X:01B4H         SYMBOL        temp
  X:01B6H         SYMBOL        temp1
  X:0062H         SYMBOL        aleatorio
  X:006DH         SYMBOL        suma
  X:007DH         SYMBOL        xxor
  X:008DH         SYMBOL        usuario1
  X:0098H         SYMBOL        vencimiento_password
  -------         ENDDO         
  C:55EDH         LINE#         121
  C:55F8H         LINE#         122
  C:55F8H         LINE#         125
  C:560BH         LINE#         127
  C:561EH         LINE#         128
  C:5631H         LINE#         132
  C:563EH         LINE#         133
  C:565AH         LINE#         135
  C:565AH         LINE#         136
  C:565EH         LINE#         137
  C:5660H         LINE#         139
  C:5660H         LINE#         140
  C:5667H         LINE#         141
  C:5667H         LINE#         142
  C:567AH         LINE#         143
BL51 BANKED LINKER/LOCATER V6.22.2.0                                                  05/31/2021  13:02:58  PAGE 65


  C:568EH         LINE#         144
  C:568EH         LINE#         145
  C:56BAH         LINE#         146
  C:56C5H         LINE#         147
  C:56D2H         LINE#         148
  C:56F0H         LINE#         149
  C:56FBH         LINE#         150
  C:5708H         LINE#         151
  C:572CH         LINE#         152
  C:5734H         LINE#         153
  C:5734H         LINE#         154
  C:5739H         LINE#         155
  C:5739H         LINE#         156
  C:5752H         LINE#         157
  C:5752H         LINE#         158
  C:575EH         LINE#         160
  C:575EH         LINE#         161
  C:576DH         LINE#         162
  C:576DH         LINE#         163
  C:5779H         LINE#         164
  C:5779H         LINE#         165
  C:5792H         LINE#         166
  C:5792H         LINE#         167
  C:579DH         LINE#         168
  C:579DH         LINE#         169
  C:57B6H         LINE#         170
  C:57B6H         LINE#         171
  C:57C1H         LINE#         172
  C:57C1H         LINE#         173
  C:57D6H         LINE#         175
  C:57DFH         LINE#         176
  C:57EEH         LINE#         178
  C:57F4H         LINE#         179
  -------         ENDPROC       _HASH_ID
  -------         PROC          _LISTACOMANDOS
  X:0046H         SYMBOL        cmd
  -------         DO            
  X:0049H         SYMBOL        buf
  X:004CH         SYMBOL        i
  -------         ENDDO         
  C:B0A7H         LINE#         186
  C:B0B2H         LINE#         187
  C:B0B2H         LINE#         191
  C:B0C5H         LINE#         192
  C:B0C5H         LINE#         193
  C:B0DDH         LINE#         194
  C:B0F8H         LINE#         195
  C:B0FEH         LINE#         196
  C:B106H         LINE#         198
  C:B108H         LINE#         199
  -------         ENDPROC       _LISTACOMANDOS
  -------         PROC          L?0274
  -------         ENDPROC       L?0274
  -------         PROC          _VALIDARCLAVE
  X:005DH         SYMBOL        buffer
  -------         DO            
  X:0060H         SYMBOL        buf
BL51 BANKED LINKER/LOCATER V6.22.2.0                                                  05/31/2021  13:02:58  PAGE 66


  -------         ENDDO         
  C:B722H         LINE#         205
  C:B72DH         LINE#         206
  C:B72DH         LINE#         209
  C:B73CH         LINE#         210
  C:B757H         LINE#         211
  C:B759H         LINE#         214
  C:B75BH         LINE#         215
  -------         ENDPROC       _VALIDARCLAVE
  -------         PROC          L?0275
  -------         ENDPROC       L?0275
  -------         PROC          _GETCMD
  X:005DH         SYMBOL        in
  -------         DO            
  X:0060H         SYMBOL        tokens
  -------         ENDDO         
  C:B7E4H         LINE#         222
  C:B7EFH         LINE#         223
  C:B7EFH         LINE#         224
  C:B802H         LINE#         225
  -------         ENDPROC       _GETCMD
  -------         PROC          L?0273
  -------         ENDPROC       L?0273
  -------         PROC          _GETOPTION
  X:0046H         SYMBOL        in
  -------         DO            
  X:0049H         SYMBOL        tokensSpace
  X:004DH         SYMBOL        tokensQuote
  -------         ENDDO         
  C:A2D8H         LINE#         231
  C:A2E3H         LINE#         232
  C:A2E3H         LINE#         233
  C:A2F6H         LINE#         234
  C:A309H         LINE#         237
  C:A31BH         LINE#         238
  C:A327H         LINE#         241
  C:A32EH         LINE#         242
  C:A33BH         LINE#         244
  C:A354H         LINE#         245
  -------         ENDPROC       _GETOPTION
  -------         PROC          DISPLAYCURSOR
  C:BF24H         LINE#         250
  C:BF24H         LINE#         251
  C:BF24H         LINE#         252
  -------         ENDPROC       DISPLAYCURSOR
  C:AA40H         SYMBOL        L?0272
  -------         PROC          L?0271
  -------         ENDPROC       L?0271
  C:AA40H         SYMBOL        L?0272
  -------         PROC          _INGRESADATO
  X:0071H         SYMBOL        buffer
  X:0074H         SYMBOL        modo
  -------         DO            
  D:0006H         SYMBOL        i
  -------         ENDDO         
  C:AA44H         LINE#         259
  C:AA52H         LINE#         260
BL51 BANKED LINKER/LOCATER V6.22.2.0                                                  05/31/2021  13:02:58  PAGE 67


  C:AA52H         LINE#         265
  C:AA52H         LINE#         266
  C:AA64H         LINE#         267
  C:AA6AH         LINE#         268
  C:AA6AH         LINE#         269
  C:AA85H         LINE#         270
  C:AA87H         LINE#         272
  C:AA87H         LINE#         273
  C:AA8CH         LINE#         274
  C:AA8CH         LINE#         275
  C:AA9DH         LINE#         276
  C:AAA7H         LINE#         277
  C:AAB6H         LINE#         279
  C:AABBH         LINE#         283
  -------         ENDPROC       _INGRESADATO
  -------         PROC          PROG_ID_CLIENTE
  -------         DO            
  X:0046H         SYMBOL        buffer
  X:0050H         SYMBOL        dataee
  -------         ENDDO         
  C:962EH         LINE#         300
  C:962EH         LINE#         301
  C:962EH         LINE#         305
  C:9640H         LINE#         306
  C:965DH         LINE#         308
  C:9674H         LINE#         310
  C:967DH         LINE#         311
  C:9684H         LINE#         312
  C:9695H         LINE#         313
  C:969EH         LINE#         315
  C:96B0H         LINE#         316
  C:96CDH         LINE#         317
  -------         ENDPROC       PROG_ID_CLIENTE
  -------         PROC          PROG_COD_PARK
  -------         DO            
  X:0046H         SYMBOL        buffer
  X:0050H         SYMBOL        dataee
  -------         ENDDO         
  C:9340H         LINE#         322
  C:9340H         LINE#         323
  C:9340H         LINE#         327
  C:9353H         LINE#         328
  C:9370H         LINE#         330
  C:9387H         LINE#         332
  C:9390H         LINE#         333
  C:939BH         LINE#         334
  C:93ACH         LINE#         335
  C:93B6H         LINE#         337
  C:93C9H         LINE#         338
  C:93E6H         LINE#         339
  -------         ENDPROC       PROG_COD_PARK
  -------         PROC          PROG_TIEMPO_GRACIA
  -------         DO            
  X:0046H         SYMBOL        buffer
  X:0050H         SYMBOL        dataee
  -------         ENDDO         
  C:93FDH         LINE#         344
BL51 BANKED LINKER/LOCATER V6.22.2.0                                                  05/31/2021  13:02:58  PAGE 68


  C:93FDH         LINE#         345
  C:93FDH         LINE#         349
  C:9410H         LINE#         350
  C:942DH         LINE#         352
  C:9444H         LINE#         354
  C:944DH         LINE#         355
  C:9458H         LINE#         356
  C:9469H         LINE#         357
  C:9473H         LINE#         359
  C:9486H         LINE#         360
  C:94A3H         LINE#         361
  -------         ENDPROC       PROG_TIEMPO_GRACIA
  -------         PROC          PROG_SIN_COBRO
  -------         DO            
  X:0046H         SYMBOL        buffer
  X:0050H         SYMBOL        dataee
  -------         ENDDO         
  C:6BF0H         LINE#         367
  C:6BF0H         LINE#         368
  C:6BF0H         LINE#         374
  C:6C03H         LINE#         375
  C:6C20H         LINE#         376
  C:6C2AH         LINE#         377
  C:6C2AH         LINE#         378
  C:6C3DH         LINE#         379
  C:6C3FH         LINE#         380
  C:6C4BH         LINE#         381
  C:6C4BH         LINE#         382
  C:6C5EH         LINE#         383
  C:6C60H         LINE#         385
  C:6C60H         LINE#         386
  C:6C77H         LINE#         387
  C:6C77H         LINE#         389
  C:6C80H         LINE#         390
  C:6C8BH         LINE#         391
  C:6C9CH         LINE#         392
  C:6CA6H         LINE#         394
  C:6CB9H         LINE#         395
  C:6CD6H         LINE#         396
  C:6CE0H         LINE#         397
  C:6CE0H         LINE#         398
  C:6CF3H         LINE#         399
  C:6CF5H         LINE#         400
  C:6D01H         LINE#         401
  C:6D01H         LINE#         402
  C:6D14H         LINE#         403
  C:6D16H         LINE#         405
  C:6D16H         LINE#         406
  C:6D2DH         LINE#         407
  C:6D2DH         LINE#         409
  -------         ENDPROC       PROG_SIN_COBRO
  -------         PROC          PROG_DEBUG
  -------         DO            
  X:0046H         SYMBOL        buffer
  X:0050H         SYMBOL        dataee
  -------         ENDDO         
  C:7CEFH         LINE#         415
BL51 BANKED LINKER/LOCATER V6.22.2.0                                                  05/31/2021  13:02:58  PAGE 69


  C:7CEFH         LINE#         416
  C:7CEFH         LINE#         421
  C:7D02H         LINE#         422
  C:7D1FH         LINE#         423
  C:7D29H         LINE#         424
  C:7D29H         LINE#         425
  C:7D3CH         LINE#         426
  C:7D3EH         LINE#         428
  C:7D3EH         LINE#         429
  C:7D55H         LINE#         430
  C:7D55H         LINE#         432
  C:7D5EH         LINE#         433
  C:7D69H         LINE#         434
  C:7D7AH         LINE#         435
  C:7D84H         LINE#         437
  C:7D97H         LINE#         438
  C:7DB4H         LINE#         439
  C:7DBEH         LINE#         440
  C:7DBEH         LINE#         441
  C:7DD1H         LINE#         442
  C:7DD3H         LINE#         444
  C:7DD3H         LINE#         445
  C:7DEAH         LINE#         446
  C:7DEAH         LINE#         447
  -------         ENDPROC       PROG_DEBUG
  -------         PROC          PROG_USE_LPR
  -------         DO            
  X:0046H         SYMBOL        buffer
  X:0050H         SYMBOL        dataee
  -------         ENDDO         
  C:7DEBH         LINE#         452
  C:7DEBH         LINE#         453
  C:7DEBH         LINE#         458
  C:7DFEH         LINE#         459
  C:7E1BH         LINE#         460
  C:7E25H         LINE#         461
  C:7E25H         LINE#         462
  C:7E38H         LINE#         463
  C:7E3AH         LINE#         465
  C:7E3AH         LINE#         466
  C:7E51H         LINE#         467
  C:7E51H         LINE#         469
  C:7E5AH         LINE#         470
  C:7E65H         LINE#         471
  C:7E76H         LINE#         472
  C:7E80H         LINE#         474
  C:7E93H         LINE#         475
  C:7EB0H         LINE#         476
  C:7EBAH         LINE#         477
  C:7EBAH         LINE#         478
  C:7ECDH         LINE#         479
  C:7ECFH         LINE#         481
  C:7ECFH         LINE#         482
  C:7EE6H         LINE#         483
  C:7EE6H         LINE#         484
  -------         ENDPROC       PROG_USE_LPR
  -------         PROC          TIPO_PANTALLA
BL51 BANKED LINKER/LOCATER V6.22.2.0                                                  05/31/2021  13:02:58  PAGE 70


  -------         DO            
  X:0046H         SYMBOL        buffer
  X:0050H         SYMBOL        dataee
  -------         ENDDO         
  C:7EE7H         LINE#         491
  C:7EE7H         LINE#         492
  C:7EE7H         LINE#         497
  C:7EFAH         LINE#         498
  C:7F17H         LINE#         499
  C:7F21H         LINE#         500
  C:7F21H         LINE#         501
  C:7F34H         LINE#         502
  C:7F36H         LINE#         504
  C:7F36H         LINE#         505
  C:7F4DH         LINE#         506
  C:7F4DH         LINE#         508
  C:7F56H         LINE#         509
  C:7F61H         LINE#         510
  C:7F72H         LINE#         511
  C:7F7CH         LINE#         513
  C:7F8FH         LINE#         514
  C:7FACH         LINE#         515
  C:7FB6H         LINE#         516
  C:7FB6H         LINE#         517
  C:7FC9H         LINE#         518
  C:7FCBH         LINE#         520
  C:7FCBH         LINE#         521
  C:7FE2H         LINE#         522
  C:7FE2H         LINE#         524
  -------         ENDPROC       TIPO_PANTALLA
  -------         PROC          PROG_TARJETA_AUTOMATICA_O_BOTON
  -------         DO            
  X:0046H         SYMBOL        buffer
  X:0050H         SYMBOL        dataee
  -------         ENDDO         
  C:9040H         LINE#         525
  C:9040H         LINE#         526
  C:9040H         LINE#         531
  C:9053H         LINE#         532
  C:9070H         LINE#         533
  C:907CH         LINE#         534
  C:907CH         LINE#         535
  C:9080H         LINE#         536
  C:9082H         LINE#         538
  C:9082H         LINE#         539
  C:9089H         LINE#         540
  C:9089H         LINE#         542
  C:9092H         LINE#         543
  C:909DH         LINE#         544
  C:90AEH         LINE#         545
  C:90B8H         LINE#         547
  C:90CBH         LINE#         548
  C:90E8H         LINE#         549
  C:90F4H         LINE#         550
  C:90F4H         LINE#         551
  C:90F8H         LINE#         552
  C:90FAH         LINE#         554
BL51 BANKED LINKER/LOCATER V6.22.2.0                                                  05/31/2021  13:02:58  PAGE 71


  C:90FAH         LINE#         555
  C:9101H         LINE#         556
  C:9101H         LINE#         557
  -------         ENDPROC       PROG_TARJETA_AUTOMATICA_O_BOTON
  -------         PROC          PROG_ANTIPASSBACK
  -------         DO            
  X:0046H         SYMBOL        buffer
  X:0050H         SYMBOL        dataee
  -------         ENDDO         
  C:7FE3H         LINE#         558
  C:7FE3H         LINE#         559
  C:7FE3H         LINE#         564
  C:7FF6H         LINE#         565
  C:8013H         LINE#         566
  C:801DH         LINE#         567
  C:801DH         LINE#         568
  C:8030H         LINE#         569
  C:8032H         LINE#         571
  C:8032H         LINE#         572
  C:8049H         LINE#         573
  C:8049H         LINE#         575
  C:8052H         LINE#         576
  C:805DH         LINE#         577
  C:806EH         LINE#         578
  C:8078H         LINE#         580
  C:808BH         LINE#         581
  C:80A8H         LINE#         582
  C:80B2H         LINE#         583
  C:80B2H         LINE#         584
  C:80C5H         LINE#         585
  C:80C7H         LINE#         587
  C:80C7H         LINE#         588
  C:80DEH         LINE#         589
  C:80DEH         LINE#         590
  -------         ENDPROC       PROG_ANTIPASSBACK
  -------         PROC          PROG_PLACA
  -------         DO            
  X:0046H         SYMBOL        buffer
  X:0050H         SYMBOL        dataee
  -------         ENDDO         
  C:80DFH         LINE#         591
  C:80DFH         LINE#         592
  C:80DFH         LINE#         597
  C:80F2H         LINE#         598
  C:810FH         LINE#         599
  C:8119H         LINE#         600
  C:8119H         LINE#         601
  C:812CH         LINE#         602
  C:812EH         LINE#         604
  C:812EH         LINE#         605
  C:8145H         LINE#         606
  C:8145H         LINE#         608
  C:814EH         LINE#         609
  C:8159H         LINE#         610
  C:816AH         LINE#         611
  C:8174H         LINE#         613
  C:8187H         LINE#         614
BL51 BANKED LINKER/LOCATER V6.22.2.0                                                  05/31/2021  13:02:58  PAGE 72


  C:81A4H         LINE#         615
  C:81AEH         LINE#         616
  C:81AEH         LINE#         617
  C:81C1H         LINE#         618
  C:81C3H         LINE#         620
  C:81C3H         LINE#         621
  C:81DAH         LINE#         622
  C:81DAH         LINE#         623
  -------         ENDPROC       PROG_PLACA
  -------         PROC          PROG_ADDRESS_HIGH_BOARD
  -------         DO            
  X:0046H         SYMBOL        buffer
  X:0050H         SYMBOL        dataee
  -------         ENDDO         
  C:8692H         LINE#         624
  C:8692H         LINE#         625
  C:8692H         LINE#         630
  C:86A5H         LINE#         631
  C:86C2H         LINE#         632
  C:86CCH         LINE#         633
  C:86CCH         LINE#         634
  C:86D0H         LINE#         635
  C:86D2H         LINE#         637
  C:86D2H         LINE#         638
  C:86E9H         LINE#         639
  C:86E9H         LINE#         641
  C:86F2H         LINE#         642
  C:86FDH         LINE#         643
  C:870EH         LINE#         644
  C:8718H         LINE#         646
  C:872BH         LINE#         647
  C:8748H         LINE#         648
  C:8752H         LINE#         649
  C:8752H         LINE#         650
  C:8756H         LINE#         651
  C:8758H         LINE#         653
  C:8758H         LINE#         654
  C:876FH         LINE#         655
  C:876FH         LINE#         656
  -------         ENDPROC       PROG_ADDRESS_HIGH_BOARD
  -------         PROC          ADDR_HORARIOS
  -------         DO            
  X:0074H         SYMBOL        ee_addr_horario
  -------         ENDDO         
  C:BBCFH         LINE#         658
  C:BBCFH         LINE#         659
  C:BBCFH         LINE#         662
  C:BBD5H         LINE#         663
  C:BBD9H         LINE#         664
  C:BBDDH         LINE#         665
  C:BBE1H         LINE#         666
  C:BBE5H         LINE#         667
  C:BBE9H         LINE#         668
  C:BBEDH         LINE#         669
  C:BBF1H         LINE#         670
  C:BBF5H         LINE#         671
  C:BBF9H         LINE#         672
BL51 BANKED LINKER/LOCATER V6.22.2.0                                                  05/31/2021  13:02:58  PAGE 73


  C:BBFCH         LINE#         673
  C:BC02H         LINE#         674
  -------         ENDPROC       ADDR_HORARIOS
  -------         PROC          _PROG_HORARIOS_ON_OFF
  X:0061H         SYMBOL        addr
  -------         DO            
  X:0063H         SYMBOL        buffer
  X:006DH         SYMBOL        dataee
  X:006FH         SYMBOL        habilitado
  -------         ENDDO         
  C:7589H         LINE#         675
  C:7593H         LINE#         676
  C:7593H         LINE#         679
  C:75A2H         LINE#         680
  C:75BFH         LINE#         681
  C:75C9H         LINE#         682
  C:75C9H         LINE#         683
  C:75DCH         LINE#         684
  C:75DEH         LINE#         686
  C:75DEH         LINE#         687
  C:75F5H         LINE#         688
  C:75F5H         LINE#         689
  C:75FEH         LINE#         690
  C:7609H         LINE#         691
  C:761AH         LINE#         692
  C:7629H         LINE#         694
  C:7640H         LINE#         695
  C:765DH         LINE#         696
  C:766AH         LINE#         697
  C:766AH         LINE#         698
  C:766DH         LINE#         699
  C:7680H         LINE#         700
  C:7682H         LINE#         702
  C:7682H         LINE#         703
  C:7687H         LINE#         704
  C:769CH         LINE#         705
  C:769CH         LINE#         706
  C:76A2H         LINE#         707
  -------         ENDPROC       _PROG_HORARIOS_ON_OFF
  -------         PROC          _PROG_HORARIO_DESDE_HASTA
  X:0061H         SYMBOL        addr
  -------         DO            
  X:0063H         SYMBOL        buffer
  D:0007H         SYMBOL        dataee
  -------         ENDDO         
  C:57F5H         LINE#         708
  C:57FDH         LINE#         709
  C:57FDH         LINE#         714
  C:5806H         LINE#         715
  C:5809H         LINE#         716
  C:5812H         LINE#         717
  C:582AH         LINE#         718
  C:583DH         LINE#         719
  C:584BH         LINE#         720
  C:5863H         LINE#         721
  C:5876H         LINE#         722
  C:5884H         LINE#         723
BL51 BANKED LINKER/LOCATER V6.22.2.0                                                  05/31/2021  13:02:58  PAGE 74


  C:589CH         LINE#         724
  C:58AFH         LINE#         725
  C:58BDH         LINE#         726
  C:58D5H         LINE#         727
  C:58E8H         LINE#         728
  C:58F6H         LINE#         732
  C:58FFH         LINE#         733
  C:5902H         LINE#         735
  C:590BH         LINE#         737
  C:5923H         LINE#         738
  C:5936H         LINE#         739
  C:5944H         LINE#         740
  C:595CH         LINE#         741
  C:596FH         LINE#         742
  C:597DH         LINE#         743
  C:5995H         LINE#         744
  C:59A8H         LINE#         745
  C:59B6H         LINE#         746
  C:59CEH         LINE#         747
  C:59E1H         LINE#         748
  -------         ENDPROC       _PROG_HORARIO_DESDE_HASTA
  -------         PROC          _VER_HORARIO_DESDE_HASTA
  X:0074H         SYMBOL        addr
  -------         DO            
  D:0007H         SYMBOL        dataee
  -------         ENDDO         
  C:76A3H         LINE#         750
  C:76ABH         LINE#         751
  C:76ABH         LINE#         753
  C:76B4H         LINE#         754
  C:76C7H         LINE#         755
  C:76D5H         LINE#         756
  C:76E8H         LINE#         757
  C:76F6H         LINE#         758
  C:7709H         LINE#         759
  C:7717H         LINE#         760
  C:772AH         LINE#         761
  C:7738H         LINE#         763
  C:774BH         LINE#         764
  C:7759H         LINE#         766
  C:776CH         LINE#         767
  C:777AH         LINE#         769
  C:778DH         LINE#         770
  C:779BH         LINE#         772
  C:77AEH         LINE#         773
  -------         ENDPROC       _VER_HORARIO_DESDE_HASTA
  -------         PROC          _PROG_HORARIO_DIAS
  X:0061H         SYMBOL        addr
  -------         DO            
  X:0063H         SYMBOL        buffer
  X:006DH         SYMBOL        dataee
  X:006EH         SYMBOL        j
  X:006FH         SYMBOL        temp
  -------         ENDDO         
  C:496CH         LINE#         775
  C:4974H         LINE#         776
  C:4974H         LINE#         780
BL51 BANKED LINKER/LOCATER V6.22.2.0                                                  05/31/2021  13:02:58  PAGE 75


  C:497DH         LINE#         781
  C:4986H         LINE#         782
  C:498FH         LINE#         783
  C:499AH         LINE#         786
  C:49A3H         LINE#         788
  C:49B9H         LINE#         789
  C:49B9H         LINE#         791
  C:49CCH         LINE#         792
  C:49CCH         LINE#         793
  C:49D5H         LINE#         795
  C:49EAH         LINE#         796
  C:4A02H         LINE#         797
  C:4A0FH         LINE#         798
  C:4A0FH         LINE#         800
  C:4A25H         LINE#         801
  C:4A25H         LINE#         802
  C:4A2EH         LINE#         803
  C:4A43H         LINE#         804
  C:4A5BH         LINE#         805
  C:4A68H         LINE#         806
  C:4A68H         LINE#         808
  C:4A7EH         LINE#         809
  C:4A7EH         LINE#         810
  C:4A87H         LINE#         811
  C:4A9CH         LINE#         812
  C:4AB4H         LINE#         813
  C:4AC1H         LINE#         814
  C:4AC1H         LINE#         816
  C:4AD7H         LINE#         817
  C:4AD7H         LINE#         818
  C:4AE0H         LINE#         819
  C:4AF5H         LINE#         820
  C:4B0DH         LINE#         821
  C:4B1AH         LINE#         822
  C:4B1AH         LINE#         824
  C:4B30H         LINE#         825
  C:4B30H         LINE#         826
  C:4B39H         LINE#         827
  C:4B4EH         LINE#         828
  C:4B66H         LINE#         829
  C:4B73H         LINE#         830
  C:4B73H         LINE#         832
  C:4B89H         LINE#         833
  C:4B89H         LINE#         834
  C:4B92H         LINE#         835
  C:4BA7H         LINE#         836
  C:4BBFH         LINE#         837
  C:4BCCH         LINE#         838
  C:4BCCH         LINE#         840
  C:4BE2H         LINE#         841
  C:4BE2H         LINE#         842
  C:4BEBH         LINE#         843
  C:4BFAH         LINE#         844
  C:4C0CH         LINE#         845
  C:4C19H         LINE#         846
  C:4C19H         LINE#         847
  C:4C22H         LINE#         849
BL51 BANKED LINKER/LOCATER V6.22.2.0                                                  05/31/2021  13:02:58  PAGE 76


  -------         ENDPROC       _PROG_HORARIO_DIAS
  -------         PROC          _VER_HORARIO_DIAS
  X:0074H         SYMBOL        addr
  -------         DO            
  X:0076H         SYMBOL        dataee
  -------         ENDDO         
  C:7461H         LINE#         850
  C:7469H         LINE#         851
  C:7469H         LINE#         854
  C:7479H         LINE#         855
  C:747FH         LINE#         856
  C:747FH         LINE#         857
  C:7483H         LINE#         858
  C:7485H         LINE#         860
  C:7485H         LINE#         861
  C:748CH         LINE#         862
  C:748CH         LINE#         865
  C:74A4H         LINE#         866
  C:74AAH         LINE#         867
  C:74AAH         LINE#         868
  C:74AEH         LINE#         869
  C:74B0H         LINE#         871
  C:74B0H         LINE#         872
  C:74B7H         LINE#         873
  C:74B7H         LINE#         876
  C:74CFH         LINE#         877
  C:74D5H         LINE#         878
  C:74D5H         LINE#         879
  C:74D9H         LINE#         880
  C:74DBH         LINE#         882
  C:74DBH         LINE#         883
  C:74E2H         LINE#         884
  C:74E2H         LINE#         886
  C:74FAH         LINE#         887
  C:7500H         LINE#         888
  C:7500H         LINE#         889
  C:7504H         LINE#         890
  C:7506H         LINE#         892
  C:7506H         LINE#         893
  C:750DH         LINE#         894
  C:750DH         LINE#         896
  C:7525H         LINE#         897
  C:752BH         LINE#         898
  C:752BH         LINE#         899
  C:752FH         LINE#         900
  C:7531H         LINE#         902
  C:7531H         LINE#         903
  C:7538H         LINE#         904
  C:7538H         LINE#         907
  C:7550H         LINE#         908
  C:7556H         LINE#         909
  C:7556H         LINE#         910
  C:755AH         LINE#         911
  C:755CH         LINE#         913
  C:755CH         LINE#         914
  C:7563H         LINE#         915
  C:7563H         LINE#         917
BL51 BANKED LINKER/LOCATER V6.22.2.0                                                  05/31/2021  13:02:58  PAGE 77


  C:7575H         LINE#         918
  C:757BH         LINE#         919
  C:757BH         LINE#         920
  C:757FH         LINE#         921
  C:7581H         LINE#         923
  C:7581H         LINE#         924
  C:7588H         LINE#         925
  C:7588H         LINE#         926
  -------         ENDPROC       _VER_HORARIO_DIAS
  -------         PROC          PROG_HORARIOS
  -------         DO            
  X:0046H         SYMBOL        buffer
  X:0050H         SYMBOL        ee_addr_horario
  X:005BH         SYMBOL        addr
  X:005DH         SYMBOL        temp
  X:005FH         SYMBOL        dataee
  X:0060H         SYMBOL        j
  -------         ENDDO         
  C:6AABH         LINE#         927
  C:6AABH         LINE#         928
  C:6AABH         LINE#         937
  C:6AB7H         LINE#         941
  C:6AC0H         LINE#         942
  C:6ACBH         LINE#         944
  C:6ADAH         LINE#         948
  C:6AF0H         LINE#         949
  C:6AF6H         LINE#         953
  C:6B04H         LINE#         954
  C:6B0CH         LINE#         955
  C:6B0CH         LINE#         957
  C:6B1BH         LINE#         958
  C:6B2FH         LINE#         959
  C:6B2FH         LINE#         960
  C:6B43H         LINE#         961
  C:6B4BH         LINE#         963
  C:6B5BH         LINE#         966
  C:6B5EH         LINE#         970
  C:6B69H         LINE#         973
  C:6B72H         LINE#         974
  C:6B7DH         LINE#         975
  C:6B8CH         LINE#         976
  C:6B9FH         LINE#         978
  C:6BB7H         LINE#         979
  C:6BD1H         LINE#         980
  C:6BD9H         LINE#         981
  C:6BD9H         LINE#         983
  C:6BE7H         LINE#         984
  C:6BEFH         LINE#         985
  C:6BEFH         LINE#         986
  C:6BEFH         LINE#         988
  -------         ENDPROC       PROG_HORARIOS
  -------         PROC          PROG_VALIDAR_TIPO_VEHICULO_MENSUAL
  -------         DO            
  X:0046H         SYMBOL        buffer
  X:0050H         SYMBOL        dataee
  -------         ENDDO         
  C:81DBH         LINE#         989
BL51 BANKED LINKER/LOCATER V6.22.2.0                                                  05/31/2021  13:02:58  PAGE 78


  C:81DBH         LINE#         990
  C:81DBH         LINE#         995
  C:81EEH         LINE#         996
  C:820BH         LINE#         997
  C:8215H         LINE#         998
  C:8215H         LINE#         999
  C:8228H         LINE#         1000
  C:822AH         LINE#         1002
  C:822AH         LINE#         1003
  C:8241H         LINE#         1004
  C:8241H         LINE#         1006
  C:824AH         LINE#         1007
  C:8255H         LINE#         1008
  C:8266H         LINE#         1009
  C:8270H         LINE#         1011
  C:8283H         LINE#         1012
  C:82A0H         LINE#         1013
  C:82AAH         LINE#         1014
  C:82AAH         LINE#         1015
  C:82BDH         LINE#         1016
  C:82BFH         LINE#         1018
  C:82BFH         LINE#         1019
  C:82D6H         LINE#         1020
  C:82D6H         LINE#         1021
  -------         ENDPROC       PROG_VALIDAR_TIPO_VEHICULO_MENSUAL
  -------         PROC          PROG_APB_MENSUAL
  -------         DO            
  X:0046H         SYMBOL        buffer
  X:0050H         SYMBOL        dataee
  -------         ENDDO         
  C:82D7H         LINE#         1022
  C:82D7H         LINE#         1023
  C:82D7H         LINE#         1028
  C:82EAH         LINE#         1029
  C:8307H         LINE#         1030
  C:8311H         LINE#         1031
  C:8311H         LINE#         1032
  C:8324H         LINE#         1033
  C:8326H         LINE#         1035
  C:8326H         LINE#         1036
  C:833DH         LINE#         1037
  C:833DH         LINE#         1039
  C:8346H         LINE#         1040
  C:8351H         LINE#         1041
  C:8362H         LINE#         1042
  C:836CH         LINE#         1044
  C:837FH         LINE#         1045
  C:839CH         LINE#         1046
  C:83A6H         LINE#         1047
  C:83A6H         LINE#         1048
  C:83B9H         LINE#         1049
  C:83BBH         LINE#         1051
  C:83BBH         LINE#         1052
  C:83D2H         LINE#         1053
  C:83D2H         LINE#         1054
  -------         ENDPROC       PROG_APB_MENSUAL
  -------         PROC          PROG_FECHA_VENCIMIENTO
BL51 BANKED LINKER/LOCATER V6.22.2.0                                                  05/31/2021  13:02:58  PAGE 79


  -------         DO            
  X:0046H         SYMBOL        buffer
  X:0051H         SYMBOL        cmd
  X:0054H         SYMBOL        fecha
  X:005BH         SYMBOL        dataee
  -------         ENDDO         
  C:59EFH         LINE#         1056
  C:59EFH         LINE#         1057
  C:59EFH         LINE#         1064
  C:59FCH         LINE#         1065
  C:5A13H         LINE#         1068
  C:5A2AH         LINE#         1070
  C:5A2AH         LINE#         1071
  C:5A33H         LINE#         1072
  C:5A40H         LINE#         1073
  C:5A57H         LINE#         1074
  C:5A69H         LINE#         1075
  C:5A72H         LINE#         1080
  C:5A7DH         LINE#         1081
  C:5A91H         LINE#         1082
  C:5A9EH         LINE#         1084
  C:5AA7H         LINE#         1087
  C:5AB0H         LINE#         1088
  C:5ABBH         LINE#         1089
  C:5AD2H         LINE#         1091
  C:5ADAH         LINE#         1092
  C:5AE2H         LINE#         1093
  C:5AE5H         LINE#         1095
  C:5AF6H         LINE#         1096
  C:5B07H         LINE#         1098
  C:5B16H         LINE#         1099
  C:5B1EH         LINE#         1100
  C:5B26H         LINE#         1101
  C:5B29H         LINE#         1102
  C:5B3AH         LINE#         1103
  C:5B4BH         LINE#         1104
  C:5B5AH         LINE#         1105
  C:5B62H         LINE#         1106
  C:5B6AH         LINE#         1107
  C:5B6DH         LINE#         1108
  C:5B7EH         LINE#         1109
  C:5B8FH         LINE#         1110
  C:5B9EH         LINE#         1111
  C:5BA9H         LINE#         1113
  C:5BB6H         LINE#         1115
  C:5BCDH         LINE#         1116
  -------         ENDPROC       PROG_FECHA_VENCIMIENTO
  -------         PROC          VER_HORARIO
  -------         DO            
  X:0059H         SYMBOL        buffer
  X:0063H         SYMBOL        ee_addr_horario
  X:006EH         SYMBOL        conta
  X:006FH         SYMBOL        addr
  X:0071H         SYMBOL        temp
  X:0073H         SYMBOL        dataee
  -------         ENDDO         
  C:6FA8H         LINE#         1119
BL51 BANKED LINKER/LOCATER V6.22.2.0                                                  05/31/2021  13:02:58  PAGE 80


  C:6FA8H         LINE#         1120
  C:6FA8H         LINE#         1129
  C:6FB4H         LINE#         1130
  C:6FCAH         LINE#         1131
  C:6FCAH         LINE#         1133
  C:6FDAH         LINE#         1136
  C:6FF3H         LINE#         1137
  C:6FF9H         LINE#         1140
  C:7007H         LINE#         1141
  C:7016H         LINE#         1142
  C:7030H         LINE#         1143
  C:703BH         LINE#         1144
  C:703BH         LINE#         1145
  C:7044H         LINE#         1147
  C:704DH         LINE#         1148
  C:705DH         LINE#         1149
  C:7060H         LINE#         1151
  C:706BH         LINE#         1152
  C:7083H         LINE#         1153
  C:709DH         LINE#         1154
  C:70A7H         LINE#         1155
  C:70A7H         LINE#         1156
  C:70AEH         LINE#         1158
  C:70BCH         LINE#         1159
  C:70C4H         LINE#         1160
  C:70C6H         LINE#         1162
  C:70C6H         LINE#         1163
  C:70CAH         LINE#         1164
  C:70CAH         LINE#         1165
  C:70CCH         LINE#         1167
  C:70CCH         LINE#         1168
  C:70D5H         LINE#         1169
  C:70D5H         LINE#         1171
  C:70DEH         LINE#         1174
  -------         ENDPROC       VER_HORARIO
  -------         PROC          VER_PROG
  -------         DO            
  X:0046H         SYMBOL        buffer
  X:0050H         SYMBOL        dataee
  X:0052H         SYMBOL        fecha
  -------         ENDDO         
  C:4340H         LINE#         1175
  C:4340H         LINE#         1176
  C:4340H         LINE#         1182
  C:4352H         LINE#         1183
  C:436FH         LINE#         1185
  C:4386H         LINE#         1187
  C:4399H         LINE#         1188
  C:43B6H         LINE#         1190
  C:43CDH         LINE#         1192
  C:43E0H         LINE#         1193
  C:43FDH         LINE#         1194
  C:440BH         LINE#         1195
  C:440BH         LINE#         1196
  C:440FH         LINE#         1197
  C:4411H         LINE#         1199
  C:4411H         LINE#         1200
BL51 BANKED LINKER/LOCATER V6.22.2.0                                                  05/31/2021  13:02:58  PAGE 81


  C:4418H         LINE#         1201
  C:4418H         LINE#         1203
  C:442BH         LINE#         1204
  C:4448H         LINE#         1205
  C:4454H         LINE#         1206
  C:4454H         LINE#         1207
  C:4458H         LINE#         1208
  C:445AH         LINE#         1210
  C:445AH         LINE#         1211
  C:4461H         LINE#         1212
  C:4461H         LINE#         1214
  C:4474H         LINE#         1215
  C:4491H         LINE#         1216
  C:449DH         LINE#         1217
  C:449DH         LINE#         1218
  C:44A1H         LINE#         1219
  C:44A3H         LINE#         1221
  C:44A3H         LINE#         1222
  C:44AAH         LINE#         1223
  C:44AAH         LINE#         1225
  C:44BDH         LINE#         1226
  C:44DAH         LINE#         1227
  C:44E6H         LINE#         1228
  C:44E6H         LINE#         1229
  C:44EAH         LINE#         1230
  C:44ECH         LINE#         1232
  C:44ECH         LINE#         1233
  C:44F3H         LINE#         1234
  C:44F3H         LINE#         1236
  C:4506H         LINE#         1237
  C:4523H         LINE#         1238
  C:452FH         LINE#         1239
  C:452FH         LINE#         1240
  C:4533H         LINE#         1241
  C:4535H         LINE#         1243
  C:4535H         LINE#         1244
  C:453CH         LINE#         1245
  C:453CH         LINE#         1247
  C:454FH         LINE#         1248
  C:456CH         LINE#         1249
  C:4578H         LINE#         1250
  C:4578H         LINE#         1251
  C:457CH         LINE#         1252
  C:457EH         LINE#         1254
  C:457EH         LINE#         1255
  C:4585H         LINE#         1256
  C:4585H         LINE#         1259
  C:4598H         LINE#         1260
  C:45B5H         LINE#         1262
  C:45CCH         LINE#         1264
  C:45CFH         LINE#         1268
  C:45E2H         LINE#         1269
  C:45FFH         LINE#         1270
  C:460BH         LINE#         1271
  C:460BH         LINE#         1272
  C:460FH         LINE#         1273
  C:4611H         LINE#         1275
BL51 BANKED LINKER/LOCATER V6.22.2.0                                                  05/31/2021  13:02:58  PAGE 82


  C:4611H         LINE#         1276
  C:4618H         LINE#         1277
  C:4618H         LINE#         1279
  C:462BH         LINE#         1280
  C:4648H         LINE#         1281
  C:4654H         LINE#         1282
  C:4654H         LINE#         1283
  C:4658H         LINE#         1284
  C:465AH         LINE#         1286
  C:465AH         LINE#         1287
  C:4661H         LINE#         1288
  C:4661H         LINE#         1290
  C:466EH         LINE#         1292
  C:4685H         LINE#         1293
  -------         ENDPROC       VER_PROG
  -------         PROC          SHOW
  C:9F49H         LINE#         1299
  C:9F49H         LINE#         1300
  C:9F49H         LINE#         1301
  C:9F52H         LINE#         1302
  C:9F5BH         LINE#         1303
  C:9F64H         LINE#         1304
  C:9F6DH         LINE#         1305
  C:9F76H         LINE#         1306
  C:9F7FH         LINE#         1307
  C:9F88H         LINE#         1308
  C:9F91H         LINE#         1309
  C:9F9AH         LINE#         1310
  C:9FA3H         LINE#         1311
  C:9FACH         LINE#         1312
  C:9FB5H         LINE#         1313
  C:9FBEH         LINE#         1314
  C:9FC7H         LINE#         1315
  C:9FD0H         LINE#         1316
  C:9FD9H         LINE#         1317
  -------         ENDPROC       SHOW
  -------         PROC          FIRST_CLAVE
  -------         DO            
  X:0046H         SYMBOL        clave
  -------         ENDDO         
  C:B4EBH         LINE#         1324
  C:B4EBH         LINE#         1325
  C:B4EBH         LINE#         1329
  C:B4F4H         LINE#         1330
  C:B4F9H         LINE#         1331
  C:B50BH         LINE#         1332
  C:B518H         LINE#         1333
  C:B51EH         LINE#         1334
  C:B521H         LINE#         1335
  C:B524H         LINE#         1336
  C:B526H         LINE#         1338
  -------         ENDPROC       FIRST_CLAVE
  -------         PROC          MENU
  -------         DO            
  X:0001H         SYMBOL        cmd
  X:0004H         SYMBOL        option1
  X:0007H         SYMBOL        option2
BL51 BANKED LINKER/LOCATER V6.22.2.0                                                  05/31/2021  13:02:58  PAGE 83


  X:000AH         SYMBOL        opt_buffer
  X:0032H         SYMBOL        buffer
  -------         ENDDO         
  C:53C1H         LINE#         1342
  C:53C1H         LINE#         1343
  C:53C1H         LINE#         1352
  C:53CAH         LINE#         1357
  C:53D6H         LINE#         1358
  C:53D6H         LINE#         1359
  C:53D9H         LINE#         1360
  C:53E3H         LINE#         1363
  C:53E3H         LINE#         1365
  C:53E3H         LINE#         1366
  C:53ECH         LINE#         1367
  C:53F9H         LINE#         1368
  C:53FEH         LINE#         1369
  C:5414H         LINE#         1370
  C:5426H         LINE#         1371
  C:542FH         LINE#         1376
  C:543AH         LINE#         1377
  C:5448H         LINE#         1378
  C:5455H         LINE#         1380
  C:545EH         LINE#         1384
  C:5461H         LINE#         1385
  C:5461H         LINE#         1386
  C:5461H         LINE#         1387
  C:5464H         LINE#         1390
  C:546FH         LINE#         1391
  C:547DH         LINE#         1392
  C:5491H         LINE#         1393
  C:54A5H         LINE#         1398
  C:54BBH         LINE#         1399
  C:54BBH         LINE#         1401
  C:54CAH         LINE#         1402
  C:54CCH         LINE#         1403
  C:54DCH         LINE#         1404
  C:54DCH         LINE#         1406
  C:54EBH         LINE#         1407
  C:5509H         LINE#         1408
  C:5509H         LINE#         1414
  C:551CH         LINE#         1415
  C:551CH         LINE#         1416
  C:5565H         LINE#         1417
  C:5565H         LINE#         1418
  C:5565H         LINE#         1419
  C:5568H         LINE#         1421
  C:556BH         LINE#         1423
  C:556BH         LINE#         1424
  C:556EH         LINE#         1425
  C:5571H         LINE#         1426
  C:5571H         LINE#         1427
  C:5574H         LINE#         1428
  C:5577H         LINE#         1429
  C:5577H         LINE#         1430
  C:557AH         LINE#         1431
  C:557DH         LINE#         1432
  C:557DH         LINE#         1433
BL51 BANKED LINKER/LOCATER V6.22.2.0                                                  05/31/2021  13:02:58  PAGE 84


  C:5580H         LINE#         1434
  C:5583H         LINE#         1435
  C:5583H         LINE#         1436
  C:5586H         LINE#         1437
  C:5589H         LINE#         1438
  C:5589H         LINE#         1439
  C:558CH         LINE#         1440
  C:558FH         LINE#         1441
  C:558FH         LINE#         1442
  C:5592H         LINE#         1443
  C:5595H         LINE#         1444
  C:5595H         LINE#         1445
  C:5598H         LINE#         1446
  C:559BH         LINE#         1447
  C:559BH         LINE#         1448
  C:559EH         LINE#         1449
  C:55A1H         LINE#         1450
  C:55A1H         LINE#         1451
  C:55A4H         LINE#         1452
  C:55A7H         LINE#         1453
  C:55A7H         LINE#         1454
  C:55AAH         LINE#         1455
  C:55ADH         LINE#         1456
  C:55ADH         LINE#         1457
  C:55B0H         LINE#         1458
  C:55B3H         LINE#         1459
  C:55B3H         LINE#         1460
  C:55B6H         LINE#         1461
  C:55B9H         LINE#         1462
  C:55B9H         LINE#         1463
  C:55BCH         LINE#         1464
  C:55BFH         LINE#         1465
  C:55BFH         LINE#         1466
  C:55C2H         LINE#         1467
  C:55C5H         LINE#         1468
  C:55C5H         LINE#         1470
  C:55C5H         LINE#         1471
  C:55C5H         LINE#         1472
  C:55C8H         LINE#         1473
  C:55CBH         LINE#         1476
  C:55CBH         LINE#         1477
  C:55E9H         LINE#         1478
  C:55ECH         LINE#         1479
  C:55ECH         LINE#         1480
  C:55ECH         LINE#         1481
  C:55ECH         LINE#         1482
  -------         ENDPROC       MENU
  -------         ENDMOD        PROG

  -------         MODULE        PTO_PARALELO
  C:0000H         SYMBOL        _ICE_DUMMY_
  D:0080H         PUBLIC        P0
  D:00A0H         PUBLIC        P2
  D:00B0H         PUBLIC        P3
  B:0080H.2       PUBLIC        led_err_imp
  C:6E6CH         PUBLIC        load_and_send_id_cod
  C:9FE2H         PUBLIC        _recibe_port
BL51 BANKED LINKER/LOCATER V6.22.2.0                                                  05/31/2021  13:02:58  PAGE 85


  B:00B0H.2       PUBLIC        ready
  B:0080H.6       PUBLIC        rx_in_data
  C:BFC6H         PUBLIC        Pulso_Bus
  C:A58EH         PUBLIC        _send_portERR
  B:00B0H.3       PUBLIC        busy
  C:B40BH         PUBLIC        load_and_send_info_reloj
  C:9799H         PUBLIC        _send_port
  B:00B0H.4       PUBLIC        port_clk
  C:C041H         PUBLIC        cond_ini_pto
  -------         PROC          _RECIBE_PORT
  X:0001H         SYMBOL        buffer_port
  -------         DO            
  D:0006H         SYMBOL        count
  X:0004H         SYMBOL        time_out
  X:0005H         SYMBOL        num_data
  X:0006H         SYMBOL        T_ANCHO
  X:0008H         SYMBOL        data_temp
  -------         ENDDO         
  C:9FE2H         LINE#         60
  C:9FEDH         LINE#         61
  C:9FEDH         LINE#         65
  C:9FF6H         LINE#         66
  C:9FF9H         LINE#         69
  C:9FFCH         LINE#         70
  C:9FFCH         LINE#         72
  C:9FFFH         LINE#         73
  C:A004H         LINE#         74
  C:A006H         LINE#         75
  C:A00AH         LINE#         76
  C:A00CH         LINE#         79
  C:A011H         LINE#         80
  C:A01AH         LINE#         81
  C:A01AH         LINE#         82
  C:A01DH         LINE#         83
  C:A01DH         LINE#         85
  C:A022H         LINE#         86
  C:A026H         LINE#         87
  C:A026H         LINE#         88
  C:A028H         LINE#         89
  C:A02AH         LINE#         90
  C:A02AH         LINE#         91
  C:A02AH         LINE#         93
  C:A02AH         LINE#         94
  C:A037H         LINE#         95
  C:A037H         LINE#         97
  C:A03AH         LINE#         98
  C:A03AH         LINE#         100
  C:A040H         LINE#         102
  C:A042H         LINE#         103
  C:A056H         LINE#         104
  C:A060H         LINE#         105
  C:A066H         LINE#         106
  C:A06CH         LINE#         107
  C:A06EH         LINE#         108
  C:A06EH         LINE#         109
  C:A06EH         LINE#         110
  C:A06EH         LINE#         113
BL51 BANKED LINKER/LOCATER V6.22.2.0                                                  05/31/2021  13:02:58  PAGE 86


  C:A070H         LINE#         114
  C:A072H         LINE#         115
  C:A072H         LINE#         116
  C:A075H         LINE#         118
  C:A07AH         LINE#         119
  -------         ENDPROC       _RECIBE_PORT
  -------         PROC          _SEND_PORT
  X:0016H         SYMBOL        buffer_port
  X:0019H         SYMBOL        length_char
  -------         DO            
  X:001AH         SYMBOL        cont
  X:001EH         SYMBOL        timeOut
  X:001FH         SYMBOL        length
  -------         ENDDO         
  C:9799H         LINE#         126
  C:97A7H         LINE#         127
  C:97A7H         LINE#         132
  C:97ABH         LINE#         134
  C:97ADH         LINE#         135
  C:97AFH         LINE#         136
  C:97B1H         LINE#         137
  C:97B6H         LINE#         138
  C:97B8H         LINE#         139
  C:97C2H         LINE#         141
  C:97CBH         LINE#         142
  C:97CBH         LINE#         143
  C:97CDH         LINE#         144
  C:97CFH         LINE#         145
  C:97F3H         LINE#         146
  C:9807H         LINE#         147
  C:9807H         LINE#         148
  C:980AH         LINE#         149
  C:980CH         LINE#         150
  C:980CH         LINE#         151
  C:980EH         LINE#         152
  C:9817H         LINE#         153
  C:9817H         LINE#         157
  C:9817H         LINE#         159
  C:9827H         LINE#         160
  C:982AH         LINE#         161
  C:9834H         LINE#         163
  C:983AH         LINE#         164
  C:983DH         LINE#         166
  C:983DH         LINE#         168
  C:9840H         LINE#         169
  C:9842H         LINE#         170
  C:9844H         LINE#         171
  C:9846H         LINE#         172
  -------         ENDPROC       _SEND_PORT
  -------         PROC          PULSO_BUS
  C:BFC6H         LINE#         180
  C:BFC6H         LINE#         181
  C:BFC6H         LINE#         182
  C:BFC8H         LINE#         183
  C:BFCFH         LINE#         184
  C:BFD1H         LINE#         185
  -------         ENDPROC       PULSO_BUS
BL51 BANKED LINKER/LOCATER V6.22.2.0                                                  05/31/2021  13:02:58  PAGE 87


  -------         PROC          _SEND_PORTERR
  X:002AH         SYMBOL        cod_err
  -------         DO            
  X:002BH         SYMBOL        timeOut
  X:002CH         SYMBOL        cont
  -------         ENDDO         
  C:A58EH         LINE#         190
  C:A594H         LINE#         191
  C:A594H         LINE#         195
  C:A596H         LINE#         196
  C:A598H         LINE#         197
  C:A59BH         LINE#         198
  C:A5A3H         LINE#         200
  C:A5A5H         LINE#         201
  C:A5A7H         LINE#         202
  C:A5B0H         LINE#         203
  C:A5B0H         LINE#         204
  C:A5D2H         LINE#         205
  C:A5E6H         LINE#         206
  C:A5E6H         LINE#         207
  C:A5EBH         LINE#         208
  C:A5EBH         LINE#         209
  C:A5EDH         LINE#         210
  C:A5F6H         LINE#         211
  C:A5F6H         LINE#         212
  C:A5FCH         LINE#         213
  C:A5FFH         LINE#         214
  C:A5FFH         LINE#         215
  C:A601H         LINE#         216
  C:A603H         LINE#         217
  C:A605H         LINE#         219
  C:A608H         LINE#         221
  C:A60FH         LINE#         222
  -------         ENDPROC       _SEND_PORTERR
  -------         PROC          COND_INI_PTO
  C:C041H         LINE#         228
  C:C041H         LINE#         229
  C:C041H         LINE#         231
  C:C043H         LINE#         232
  C:C045H         LINE#         233
  C:C047H         LINE#         234
  C:C04AH         LINE#         235
  -------         ENDPROC       COND_INI_PTO
  -------         PROC          LOAD_AND_SEND_INFO_RELOJ
  -------         DO            
  X:0002H         SYMBOL        buffer_info
  -------         ENDDO         
  C:B40BH         LINE#         240
  C:B40BH         LINE#         241
  C:B40BH         LINE#         244
  C:B411H         LINE#         246
  C:B415H         LINE#         249
  C:B41EH         LINE#         251
  C:B428H         LINE#         252
  C:B42CH         LINE#         253
  C:B42FH         LINE#         254
  C:B438H         LINE#         255
BL51 BANKED LINKER/LOCATER V6.22.2.0                                                  05/31/2021  13:02:58  PAGE 88


  C:B449H         LINE#         256
  C:B44CH         LINE#         257
  -------         ENDPROC       LOAD_AND_SEND_INFO_RELOJ
  -------         PROC          LOAD_AND_SEND_ID_COD
  -------         DO            
  X:0002H         SYMBOL        buffer_info
  X:000DH         SYMBOL        buf
  X:0011H         SYMBOL        i
  X:0012H         SYMBOL        ID_CLIENTE
  X:0014H         SYMBOL        COD_PARK
  -------         ENDDO         
  C:6E6CH         LINE#         264
  C:6E6CH         LINE#         265
  C:6E6CH         LINE#         273
  C:6E7CH         LINE#         275
  C:6E8DH         LINE#         277
  C:6E93H         LINE#         278
  C:6E97H         LINE#         279
  C:6E9AH         LINE#         281
  C:6EC0H         LINE#         282
  C:6ED7H         LINE#         285
  C:6EEEH         LINE#         288
  C:6F14H         LINE#         289
  C:6F2BH         LINE#         291
  C:6F42H         LINE#         292
  C:6F50H         LINE#         293
  C:6F61H         LINE#         294
  C:6F74H         LINE#         295
  C:6F7AH         LINE#         296
  C:6F83H         LINE#         297
  C:6F97H         LINE#         298
  C:6F9AH         LINE#         299
  -------         ENDPROC       LOAD_AND_SEND_ID_COD
  -------         ENDMOD        PTO_PARALELO

  -------         MODULE        TIBBO
  C:0000H         SYMBOL        _ICE_DUMMY_
  C:B64DH         PUBLIC        _Debug_HexDec
  C:B4ADH         PUBLIC        _Debug_txt_Tibbo
  D:0080H         PUBLIC        P0
  D:0090H         PUBLIC        P1
  B:0090H.0       PUBLIC        txd2
  B:00A8H.7       PUBLIC        EA
  C:B45AH         PUBLIC        _tx_aux
  B:0080H.0       PUBLIC        rx_ip
  C:C04BH         PUBLIC        Debug_Dividir_texto
  C:C0A5H         PUBLIC        cond_ini_tibbo
  C:BF3BH         PUBLIC        time_mbit
  C:A616H         PUBLIC        rx_Data
  C:BEBAH         PUBLIC        time_bit
  C:B81EH         PUBLIC        _Debug_pto_paralelo
  C:B993H         PUBLIC        _Debug_monitor
  C:A830H         PUBLIC        _DebugBufferMF
  C:B533H         PUBLIC        _Debug_chr_Tibbo
  C:BEB4H         SYMBOL        L?0067
  -------         PROC          L?0066
  -------         ENDPROC       L?0066
BL51 BANKED LINKER/LOCATER V6.22.2.0                                                  05/31/2021  13:02:58  PAGE 89


  C:BEB4H         SYMBOL        L?0067
  -------         PROC          TIME_BIT
  -------         DO            
  D:0007H         SYMBOL        j
  -------         ENDDO         
  C:BEBAH         LINE#         20
  C:BEBAH         LINE#         21
  C:BEBAH         LINE#         24
  C:BEC6H         LINE#         25
  C:BEC6H         LINE#         26
  C:BEC7H         LINE#         27
  C:BEC8H         LINE#         28
  C:BEC9H         LINE#         29
  C:BECAH         LINE#         30
  C:BECBH         LINE#         31
  C:BECCH         LINE#         32
  C:BECDH         LINE#         33
  C:BECEH         LINE#         34
  C:BECFH         LINE#         39
  C:BED2H         LINE#         40
  -------         ENDPROC       TIME_BIT
  -------         PROC          TIME_MBIT
  -------         DO            
  D:0007H         SYMBOL        j
  -------         ENDDO         
  C:BF3BH         LINE#         43
  C:BF3BH         LINE#         44
  C:BF3BH         LINE#         46
  C:BF47H         LINE#         47
  C:BF47H         LINE#         48
  C:BF48H         LINE#         49
  C:BF49H         LINE#         50
  C:BF4AH         LINE#         51
  C:BF4BH         LINE#         52
  C:BF4CH         LINE#         53
  C:BF4DH         LINE#         54
  C:BF4EH         LINE#         55
  C:BF51H         LINE#         57
  -------         ENDPROC       TIME_MBIT
  -------         PROC          L?0070
  -------         ENDPROC       L?0070
  -------         PROC          _TX_AUX
  D:0006H         SYMBOL        caracter
  -------         DO            
  D:0004H         SYMBOL        j
  D:0005H         SYMBOL        temporal
  D:0006H         SYMBOL        bitTX
  -------         ENDDO         
  C:B45AH         LINE#         62
  C:B45CH         LINE#         63
  C:B45CH         LINE#         66
  C:B45EH         LINE#         67
  C:B460H         LINE#         68
  C:B463H         LINE#         69
  C:B464H         LINE#         70
  C:B465H         LINE#         71
  C:B467H         LINE#         72
BL51 BANKED LINKER/LOCATER V6.22.2.0                                                  05/31/2021  13:02:58  PAGE 90


  C:B46BH         LINE#         73
  C:B46DH         LINE#         74
  C:B46DH         LINE#         75
  C:B46FH         LINE#         76
  C:B471H         LINE#         78
  C:B471H         LINE#         79
  C:B473H         LINE#         80
  C:B473H         LINE#         81
  C:B476H         LINE#         82
  C:B482H         LINE#         83
  C:B482H         LINE#         84
  C:B486H         LINE#         85
  C:B489H         LINE#         86
  C:B48BH         LINE#         87
  C:B48BH         LINE#         88
  C:B48DH         LINE#         89
  C:B48FH         LINE#         91
  C:B48FH         LINE#         92
  C:B491H         LINE#         93
  C:B491H         LINE#         94
  C:B494H         LINE#         95
  C:B497H         LINE#         96
  C:B499H         LINE#         97
  C:B49CH         LINE#         98
  C:B49FH         LINE#         100
  C:B4A1H         LINE#         101
  -------         ENDPROC       _TX_AUX
  -------         PROC          _DEBUG_HEXDEC
  D:0007H         SYMBOL        xfc
  -------         DO            
  X:0018H         SYMBOL        valor
  D:0006H         SYMBOL        centena
  D:0003H         SYMBOL        decena
  D:0002H         SYMBOL        unidad
  -------         ENDDO         
  C:B64DH         LINE#         104
  C:B64DH         LINE#         105
  C:B64DH         LINE#         108
  C:B654H         LINE#         110
  C:B655H         LINE#         111
  C:B656H         LINE#         112
  C:B657H         LINE#         113
  C:B65FH         LINE#         114
  C:B65FH         LINE#         115
  C:B669H         LINE#         116
  C:B669H         LINE#         117
  C:B66DH         LINE#         118
  C:B66EH         LINE#         119
  C:B670H         LINE#         120
  C:B67AH         LINE#         121
  C:B67AH         LINE#         122
  C:B67EH         LINE#         123
  C:B67FH         LINE#         124
  C:B681H         LINE#         125
  C:B683H         LINE#         126
  C:B687H         LINE#         127
  C:B68BH         LINE#         128
BL51 BANKED LINKER/LOCATER V6.22.2.0                                                  05/31/2021  13:02:58  PAGE 91


  C:B692H         LINE#         130
  C:B692H         LINE#         131
  -------         ENDPROC       _DEBUG_HEXDEC
  -------         PROC          _DEBUG_CHR_TIBBO
  D:0003H         SYMBOL        Dat
  -------         DO            
  D:0007H         SYMBOL        temp
  -------         ENDDO         
  C:B533H         LINE#         136
  C:B535H         LINE#         137
  C:B535H         LINE#         139
  C:B53DH         LINE#         140
  C:B53DH         LINE#         141
  C:B544H         LINE#         142
  C:B557H         LINE#         144
  C:B55AH         LINE#         146
  C:B55EH         LINE#         147
  C:B571H         LINE#         148
  C:B574H         LINE#         149
  C:B579H         LINE#         151
  C:B579H         LINE#         152
  -------         ENDPROC       _DEBUG_CHR_TIBBO
  -------         PROC          _DEBUGBUFFERMF
  X:0027H         SYMBOL        str
  X:002AH         SYMBOL        num_char
  X:002BH         SYMBOL        io
  -------         DO            
  X:002CH         SYMBOL        j
  -------         ENDDO         
  C:A830H         LINE#         160
  C:A83EH         LINE#         161
  C:A83EH         LINE#         165
  C:A846H         LINE#         166
  C:A846H         LINE#         167
  C:A855H         LINE#         168
  C:A855H         LINE#         169
  C:A85BH         LINE#         170
  C:A85DH         LINE#         171
  C:A86AH         LINE#         172
  C:A86AH         LINE#         173
  C:A873H         LINE#         174
  C:A873H         LINE#         176
  C:A885H         LINE#         177
  C:A885H         LINE#         178
  C:A897H         LINE#         179
  C:A8A1H         LINE#         180
  C:A8A9H         LINE#         181
  C:A8AEH         LINE#         182
  C:A8B3H         LINE#         183
  C:A8B3H         LINE#         185
  -------         ENDPROC       _DEBUGBUFFERMF
  C:B4A7H         SYMBOL        L?0069
  -------         PROC          L?0068
  -------         ENDPROC       L?0068
  C:B4A7H         SYMBOL        L?0069
  -------         PROC          _DEBUG_TXT_TIBBO
  X:004EH         SYMBOL        str
BL51 BANKED LINKER/LOCATER V6.22.2.0                                                  05/31/2021  13:02:58  PAGE 92


  -------         DO            
  X:0051H         SYMBOL        i
  -------         ENDDO         
  C:B4ADH         LINE#         190
  C:B4B8H         LINE#         191
  C:B4B8H         LINE#         193
  C:B4BBH         LINE#         195
  C:B4C3H         LINE#         196
  C:B4C3H         LINE#         197
  C:B4DFH         LINE#         198
  C:B4DFH         LINE#         199
  C:B4E2H         LINE#         200
  C:B4EAH         LINE#         202
  C:B4EAH         LINE#         203
  -------         ENDPROC       _DEBUG_TXT_TIBBO
  -------         PROC          DEBUG_DIVIDIR_TEXTO
  C:C04BH         LINE#         205
  C:C04BH         LINE#         206
  C:C04BH         LINE#         207
  -------         ENDPROC       DEBUG_DIVIDIR_TEXTO
  -------         PROC          RX_DATA
  -------         DO            
  D:0006H         SYMBOL        temporal
  -------         ENDDO         
  C:A616H         LINE#         213
  C:A616H         LINE#         214
  C:A616H         LINE#         217
  C:A618H         LINE#         218
  C:A61BH         LINE#         220
  C:A61EH         LINE#         222
  C:A62AH         LINE#         223
  C:A62AH         LINE#         225
  C:A62DH         LINE#         227
  C:A639H         LINE#         228
  C:A639H         LINE#         230
  C:A63CH         LINE#         232
  C:A648H         LINE#         233
  C:A648H         LINE#         235
  C:A64BH         LINE#         237
  C:A657H         LINE#         238
  C:A657H         LINE#         240
  C:A65AH         LINE#         242
  C:A666H         LINE#         243
  C:A666H         LINE#         245
  C:A669H         LINE#         247
  C:A675H         LINE#         248
  C:A675H         LINE#         250
  C:A678H         LINE#         252
  C:A684H         LINE#         253
  C:A684H         LINE#         255
  C:A687H         LINE#         256
  C:A695H         LINE#         258
  C:A698H         LINE#         259
  C:A69BH         LINE#         260
  C:A69BH         LINE#         261
  C:A69BH         LINE#         264
  C:A69DH         LINE#         266
BL51 BANKED LINKER/LOCATER V6.22.2.0                                                  05/31/2021  13:02:58  PAGE 93


  -------         ENDPROC       RX_DATA
  -------         PROC          COND_INI_TIBBO
  C:C0A5H         LINE#         284
  C:C0A5H         LINE#         285
  C:C0A5H         LINE#         287
  C:C0A7H         LINE#         288
  C:C0A9H         LINE#         289
  -------         ENDPROC       COND_INI_TIBBO
  -------         PROC          _DEBUG_PTO_PARALELO
  X:0001H         SYMBOL        buffer
  X:0004H         SYMBOL        Length_trama
  C:B81EH         LINE#         290
  C:B82CH         LINE#         291
  C:B82CH         LINE#         293
  C:B835H         LINE#         294
  C:B84CH         LINE#         295
  C:B855H         LINE#         296
  C:B858H         LINE#         297
  C:B85BH         LINE#         298
  -------         ENDPROC       _DEBUG_PTO_PARALELO
  -------         PROC          _DEBUG_MONITOR
  X:0016H         SYMBOL        buffer
  X:0019H         SYMBOL        Length_trama
  C:B993H         LINE#         301
  C:B9A1H         LINE#         302
  C:B9A1H         LINE#         303
  C:B9A4H         LINE#         304
  C:B9ADH         LINE#         305
  C:B9BBH         LINE#         306
  C:B9BEH         LINE#         307
  C:B9C7H         LINE#         308
  C:B9CAH         LINE#         309
  C:B9CDH         LINE#         310
  -------         ENDPROC       _DEBUG_MONITOR
  -------         ENDMOD        TIBBO

  -------         MODULE        UART
  C:0000H         SYMBOL        _ICE_DUMMY_
  C:BD5BH         PUBLIC        com_getchar
  C:BFD8H         PUBLIC        com_rbuflen
  C:BFEAH         PUBLIC        com_tbuflen
  B:00A8H.4       PUBLIC        ES
  B:0098H.0       PUBLIC        RI
  C:BA48H         PUBLIC        _com_putchar
  B:0098H.1       PUBLIC        TI
  B:0021H.4       PUBLIC        aSk
  B:00B8H.4       PUBLIC        PS
  D:000DH         SYMBOL        r_in
  D:000EH         SYMBOL        r_out
  D:000FH         SYMBOL        t_in
  D:0010H         SYMBOL        t_out
  D:0099H         PUBLIC        SBUF
  D:0087H         PUBLIC        PCON
  D:0089H         PUBLIC        TMOD
  B:0021H.5       SYMBOL        ti_restart
  B:00A8H.3       PUBLIC        ET1
  D:008DH         PUBLIC        TH1
BL51 BANKED LINKER/LOCATER V6.22.2.0                                                  05/31/2021  13:02:58  PAGE 94


  B:0098H.7       PUBLIC        SM0
  B:0098H.6       PUBLIC        SM1
  D:008BH         PUBLIC        TL1
  B:0098H.5       PUBLIC        SM2
  B:0088H.6       PUBLIC        TR1
  C:BC92H         PUBLIC        com_initialize
  X:0212H         PUBLIC        cnt__ask_off
  B:0098H.4       PUBLIC        REN
  C:BCE4H         PUBLIC        com_baudrate
  C:6186H         SYMBOL        com_isr
  -------         PROC          COM_ISR
  -------         DO            
  X:0210H         SYMBOL        cDatoRx
  D:0006H         SYMBOL        k
  D:0007H         SYMBOL        bcc
  X:0211H         SYMBOL        num_datos
  -------         ENDDO         
  C:6186H         LINE#         95
  C:619BH         LINE#         103
  C:61A1H         LINE#         104
  C:61A1H         LINE#         106
  C:61A3H         LINE#         107
  C:61A9H         LINE#         108
  C:61B9H         LINE#         109
  C:61B9H         LINE#         110
  C:61C4H         LINE#         111
  C:61C6H         LINE#         113
  C:61C6H         LINE#         114
  C:61D6H         LINE#         115
  C:61D6H         LINE#         116
  C:61DBH         LINE#         117
  C:61DBH         LINE#         118
  C:61F2H         LINE#         119
  C:61F2H         LINE#         123
  C:61F2H         LINE#         126
  C:6201H         LINE#         127
  C:6201H         LINE#         128
  C:6203H         LINE#         129
  C:620BH         LINE#         130
  C:6210H         LINE#         132
  C:6210H         LINE#         133
  C:6213H         LINE#         137
  C:6213H         LINE#         138
  C:6213H         LINE#         139
  C:622BH         LINE#         140
  C:623AH         LINE#         141
  C:623AH         LINE#         142
  C:623AH         LINE#         143
  C:623CH         LINE#         145
  C:623CH         LINE#         146
  C:623EH         LINE#         147
  C:623EH         LINE#         148
  C:623EH         LINE#         149
  C:6241H         LINE#         153
  C:6241H         LINE#         155
  C:624AH         LINE#         156
  C:624AH         LINE#         158
BL51 BANKED LINKER/LOCATER V6.22.2.0                                                  05/31/2021  13:02:58  PAGE 95


  C:6250H         LINE#         159
  C:6263H         LINE#         160
  C:6263H         LINE#         161
  C:6266H         LINE#         163
  C:6266H         LINE#         164
  C:627BH         LINE#         165
  C:6281H         LINE#         166
  C:6281H         LINE#         168
  C:6284H         LINE#         172
  C:6284H         LINE#         174
  C:629CH         LINE#         175
  C:62A2H         LINE#         176
  C:62A5H         LINE#         177
  C:62A5H         LINE#         178
  C:62BDH         LINE#         179
  C:62BDH         LINE#         180
  C:62BEH         LINE#         181
  C:62CBH         LINE#         182
  C:62CBH         LINE#         183
  C:62D8H         LINE#         184
  C:62DBH         LINE#         185
  C:62E9H         LINE#         186
  C:62E9H         LINE#         187
  C:62EBH         LINE#         188
  C:62F0H         LINE#         189
  C:62F2H         LINE#         190
  C:62F6H         LINE#         192
  C:62F8H         LINE#         194
  C:62F8H         LINE#         195
  C:62F8H         LINE#         196
  C:62F8H         LINE#         197
  C:62FAH         LINE#         199
  C:62FAH         LINE#         200
  C:62FAH         LINE#         201
  C:62FAH         LINE#         203
  C:62FCH         LINE#         205
  C:62FCH         LINE#         206
  C:6302H         LINE#         207
  C:6302H         LINE#         209
  C:6304H         LINE#         214
  C:6304H         LINE#         215
  C:6309H         LINE#         216
  C:6309H         LINE#         217
  C:6309H         LINE#         218
  C:6309H         LINE#         223
  C:630CH         LINE#         224
  C:630CH         LINE#         225
  C:630EH         LINE#         227
  C:6314H         LINE#         228
  C:6314H         LINE#         229
  C:631EH         LINE#         231
  C:6320H         LINE#         232
  C:6322H         LINE#         233
  C:6324H         LINE#         235
  C:6324H         LINE#         236
  C:6326H         LINE#         237
  C:6326H         LINE#         238
BL51 BANKED LINKER/LOCATER V6.22.2.0                                                  05/31/2021  13:02:58  PAGE 96


  C:6326H         LINE#         240
  -------         ENDPROC       COM_ISR
  -------         PROC          COM_INITIALIZE
  C:BC92H         LINE#         256
  C:BC99H         LINE#         257
  C:BC99H         LINE#         261
  C:BC9CH         LINE#         266
  C:BC9FH         LINE#         267
  C:BCA1H         LINE#         269
  C:BCA3H         LINE#         270
  C:BCA5H         LINE#         275
  C:BCA9H         LINE#         276
  C:BCABH         LINE#         277
  C:BCADH         LINE#         279
  C:BCAFH         LINE#         280
  C:BCB1H         LINE#         281
  C:BCB3H         LINE#         283
  C:BCB5H         LINE#         284
  C:BCB7H         LINE#         285
  -------         ENDPROC       COM_INITIALIZE
  -------         PROC          COM_BAUDRATE
  C:BCE4H         LINE#         291
  C:BCEBH         LINE#         293
  C:BCEBH         LINE#         297
  C:BCEDH         LINE#         298
  C:BCF0H         LINE#         299
  C:BCF2H         LINE#         304
  C:BCF4H         LINE#         305
  C:BCF6H         LINE#         307
  C:BCF9H         LINE#         309
  C:BCFCH         LINE#         310
  C:BCFFH         LINE#         312
  C:BD02H         LINE#         313
  C:BD05H         LINE#         314
  C:BD07H         LINE#         315
  -------         ENDPROC       COM_BAUDRATE
  -------         PROC          _COM_PUTCHAR
  X:00AAH         SYMBOL        c
  C:BA48H         LINE#         321
  C:BA54H         LINE#         322
  C:BA54H         LINE#         326
  C:BA61H         LINE#         327
  C:BA65H         LINE#         333
  C:BA73H         LINE#         335
  C:BA75H         LINE#         337
  C:BA78H         LINE#         338
  C:BA78H         LINE#         339
  C:BA7AH         LINE#         340
  C:BA7CH         LINE#         341
  C:BA7CH         LINE#         343
  C:BA7EH         LINE#         344
  -------         ENDPROC       _COM_PUTCHAR
  -------         PROC          COM_GETCHAR
  C:BD5BH         LINE#         350
  C:BD62H         LINE#         351
  C:BD62H         LINE#         352
  C:BD68H         LINE#         353
BL51 BANKED LINKER/LOCATER V6.22.2.0                                                  05/31/2021  13:02:58  PAGE 97


  C:BD6EH         LINE#         355
  C:BD7CH         LINE#         356
  -------         ENDPROC       COM_GETCHAR
  -------         PROC          COM_RBUFLEN
  C:BFD8H         LINE#         362
  C:BFDFH         LINE#         363
  C:BFDFH         LINE#         364
  C:BFE5H         LINE#         365
  -------         ENDPROC       COM_RBUFLEN
  -------         PROC          COM_TBUFLEN
  C:BFEAH         LINE#         371
  C:BFF1H         LINE#         372
  C:BFF1H         LINE#         373
  C:BFF7H         LINE#         374
  -------         ENDPROC       COM_TBUFLEN
  -------         ENDMOD        UART

  -------         MODULE        LINTECH
  C:0000H         SYMBOL        _ICE_DUMMY_
  C:9CDCH         PUBLIC        _Inicializa
  C:8F7DH         PUBLIC        _RD_MF
  C:99A3H         PUBLIC        Dwload_EEprom
  C:A1A4H         PUBLIC        _Card_Insercion
  C:84C4H         PUBLIC        _Mov_Card
  C:7BEFH         PUBLIC        _WR_MF
  C:A475H         PUBLIC        LoadVerify_EEprom
  C:A69EH         PUBLIC        Unique_Identifier_UID
  C:AB3CH         PUBLIC        Power_off
  C:A726H         PUBLIC        _Check_Status
  C:98F9H         PUBLIC        Clave_Seguridad_S2
  C:AABCH         PUBLIC        Aut_Card_check_Status
  -------         PROC          _INICIALIZA
  X:0002H         SYMBOL        TipoMovimiento
  -------         DO            
  D:0003H         SYMBOL        j
  X:0003H         SYMBOL        bcc
  X:0004H         SYMBOL        g_scArrTxComSoft
  -------         ENDDO         
  C:9CDCH         LINE#         68
  C:9CE1H         LINE#         69
  C:9CE1H         LINE#         72
  C:9CE4H         LINE#         73
  C:9CFAH         LINE#         74
  C:9CFAH         LINE#         76
  C:9D03H         LINE#         78
  C:9D09H         LINE#         79
  C:9D0CH         LINE#         80
  C:9D0EH         LINE#         81
  C:9D12H         LINE#         82
  C:9D16H         LINE#         83
  C:9D1AH         LINE#         84
  C:9D22H         LINE#         85
  C:9D26H         LINE#         86
  C:9D32H         LINE#         87
  C:9D32H         LINE#         88
  C:9D46H         LINE#         89
  C:9D49H         LINE#         90
BL51 BANKED LINKER/LOCATER V6.22.2.0                                                  05/31/2021  13:02:58  PAGE 98


  C:9D51H         LINE#         91
  C:9D53H         LINE#         92
  C:9D58H         LINE#         93
  C:9D67H         LINE#         94
  C:9D72H         LINE#         95
  C:9D78H         LINE#         96
  C:9D78H         LINE#         97
  -------         ENDPROC       _INICIALIZA
  -------         PROC          _CHECK_STATUS
  X:0002H         SYMBOL        Detalle
  -------         DO            
  D:0006H         SYMBOL        j
  D:0007H         SYMBOL        bcc
  X:0003H         SYMBOL        g_scArrTxComSoft
  -------         ENDDO         
  C:A726H         LINE#         109
  C:A72BH         LINE#         110
  C:A72BH         LINE#         114
  C:A731H         LINE#         115
  C:A731H         LINE#         116
  C:A735H         LINE#         117
  C:A737H         LINE#         119
  C:A737H         LINE#         120
  C:A73EH         LINE#         121
  C:A73EH         LINE#         122
  C:A740H         LINE#         124
  C:A746H         LINE#         125
  C:A749H         LINE#         126
  C:A74BH         LINE#         127
  C:A74FH         LINE#         128
  C:A753H         LINE#         129
  C:A757H         LINE#         130
  C:A75FH         LINE#         131
  C:A763H         LINE#         132
  C:A76FH         LINE#         133
  C:A76FH         LINE#         134
  C:A77CH         LINE#         135
  C:A77FH         LINE#         136
  C:A784H         LINE#         137
  C:A786H         LINE#         138
  C:A78BH         LINE#         139
  C:A79AH         LINE#         140
  C:A7A5H         LINE#         141
  C:A7ABH         LINE#         142
  -------         ENDPROC       _CHECK_STATUS
  -------         PROC          _CARD_INSERCION
  D:0007H         SYMBOL        Tipo
  -------         DO            
  D:0006H         SYMBOL        j
  D:0007H         SYMBOL        bcc
  X:0002H         SYMBOL        g_scArrTxComSoft
  -------         ENDDO         
  C:A1A4H         LINE#         152
  C:A1A4H         LINE#         153
  C:A1A4H         LINE#         156
  C:A1B1H         LINE#         157
  C:A1B1H         LINE#         158
BL51 BANKED LINKER/LOCATER V6.22.2.0                                                  05/31/2021  13:02:58  PAGE 99


  C:A1B8H         LINE#         159
  C:A1BEH         LINE#         160
  C:A1C0H         LINE#         162
  C:A1C0H         LINE#         164
  C:A1C7H         LINE#         165
  C:A1CDH         LINE#         167
  C:A1CDH         LINE#         169
  C:A1CFH         LINE#         171
  C:A1D5H         LINE#         172
  C:A1D8H         LINE#         173
  C:A1DAH         LINE#         174
  C:A1DEH         LINE#         175
  C:A1E2H         LINE#         176
  C:A1E6H         LINE#         178
  C:A1ECH         LINE#         179
  C:A1F8H         LINE#         180
  C:A1F8H         LINE#         181
  C:A205H         LINE#         182
  C:A208H         LINE#         184
  C:A20DH         LINE#         186
  C:A20FH         LINE#         187
  C:A214H         LINE#         188
  C:A223H         LINE#         189
  C:A22EH         LINE#         190
  C:A234H         LINE#         191
  -------         ENDPROC       _CARD_INSERCION
  -------         PROC          _MOV_CARD
  X:0002H         SYMBOL        Posicion
  -------         DO            
  D:0003H         SYMBOL        j
  X:0003H         SYMBOL        bcc
  X:0004H         SYMBOL        g_scArrTxComSoft
  -------         ENDDO         
  C:84C4H         LINE#         202
  C:84C9H         LINE#         203
  C:84C9H         LINE#         206
  C:84CCH         LINE#         208
  C:84ECH         LINE#         209
  C:84ECH         LINE#         210
  C:84F3H         LINE#         211
  C:84F3H         LINE#         212
  C:84F9H         LINE#         213
  C:84FBH         LINE#         214
  C:8502H         LINE#         215
  C:8502H         LINE#         216
  C:8508H         LINE#         217
  C:850AH         LINE#         218
  C:8511H         LINE#         219
  C:8511H         LINE#         220
  C:8517H         LINE#         221
  C:8519H         LINE#         222
  C:8520H         LINE#         223
  C:8520H         LINE#         224
  C:8526H         LINE#         225
  C:8528H         LINE#         226
  C:852FH         LINE#         227
  C:852FH         LINE#         228
BL51 BANKED LINKER/LOCATER V6.22.2.0                                                  05/31/2021  13:02:58  PAGE 100


  C:8538H         LINE#         229
  C:8538H         LINE#         231
  C:853EH         LINE#         232
  C:8541H         LINE#         233
  C:8543H         LINE#         234
  C:8547H         LINE#         235
  C:854BH         LINE#         236
  C:854FH         LINE#         237
  C:8557H         LINE#         238
  C:855BH         LINE#         239
  C:8567H         LINE#         240
  C:8567H         LINE#         241
  C:857BH         LINE#         242
  C:857EH         LINE#         243
  C:8586H         LINE#         244
  C:8588H         LINE#         245
  C:858DH         LINE#         246
  C:859CH         LINE#         247
  C:85A7H         LINE#         248
  C:85ADH         LINE#         249
  C:85ADH         LINE#         251
  -------         ENDPROC       _MOV_CARD
  -------         PROC          AUT_CARD_CHECK_STATUS
  -------         DO            
  D:0003H         SYMBOL        j
  X:0002H         SYMBOL        bcc
  X:0003H         SYMBOL        g_scArrTxComSoft
  -------         ENDDO         
  C:AABCH         LINE#         257
  C:AABCH         LINE#         258
  C:AABCH         LINE#         261
  C:AAC1H         LINE#         263
  C:AACAH         LINE#         265
  C:AAD0H         LINE#         266
  C:AAD3H         LINE#         267
  C:AAD5H         LINE#         268
  C:AAD9H         LINE#         269
  C:AADDH         LINE#         270
  C:AAE1H         LINE#         271
  C:AAE5H         LINE#         272
  C:AAE9H         LINE#         273
  C:AAF5H         LINE#         274
  C:AAF5H         LINE#         275
  C:AB09H         LINE#         276
  C:AB0CH         LINE#         277
  C:AB14H         LINE#         278
  C:AB16H         LINE#         279
  C:AB1BH         LINE#         280
  C:AB2AH         LINE#         281
  C:AB35H         LINE#         282
  C:AB3BH         LINE#         283
  -------         ENDPROC       AUT_CARD_CHECK_STATUS
  -------         PROC          CLAVE_SEGURIDAD_S2
  -------         DO            
  D:0003H         SYMBOL        j
  X:0002H         SYMBOL        bcc
  X:0003H         SYMBOL        g_scArrTxComSoft
BL51 BANKED LINKER/LOCATER V6.22.2.0                                                  05/31/2021  13:02:58  PAGE 101


  -------         ENDDO         
  C:98F9H         LINE#         286
  C:98F9H         LINE#         287
  C:98F9H         LINE#         290
  C:98FEH         LINE#         291
  C:9907H         LINE#         294
  C:990DH         LINE#         295
  C:9910H         LINE#         296
  C:9912H         LINE#         297
  C:9916H         LINE#         298
  C:991AH         LINE#         299
  C:991EH         LINE#         300
  C:9922H         LINE#         301
  C:9925H         LINE#         302
  C:9929H         LINE#         303
  C:992CH         LINE#         304
  C:9930H         LINE#         306
  C:9934H         LINE#         308
  C:9938H         LINE#         309
  C:993CH         LINE#         310
  C:9940H         LINE#         311
  C:9944H         LINE#         312
  C:9948H         LINE#         313
  C:994CH         LINE#         316
  C:9950H         LINE#         318
  C:995CH         LINE#         319
  C:995CH         LINE#         320
  C:9970H         LINE#         321
  C:9973H         LINE#         322
  C:997BH         LINE#         323
  C:997DH         LINE#         324
  C:9982H         LINE#         325
  C:9991H         LINE#         326
  C:999CH         LINE#         327
  C:99A2H         LINE#         330
  -------         ENDPROC       CLAVE_SEGURIDAD_S2
  -------         PROC          DWLOAD_EEPROM
  -------         DO            
  D:0003H         SYMBOL        j
  X:0002H         SYMBOL        bcc
  X:0003H         SYMBOL        g_scArrTxComSoft
  -------         ENDDO         
  C:99A3H         LINE#         335
  C:99A3H         LINE#         336
  C:99A3H         LINE#         339
  C:99A8H         LINE#         340
  C:99B1H         LINE#         342
  C:99B7H         LINE#         343
  C:99BAH         LINE#         344
  C:99BCH         LINE#         345
  C:99C0H         LINE#         346
  C:99C4H         LINE#         347
  C:99C8H         LINE#         348
  C:99CCH         LINE#         349
  C:99CFH         LINE#         350
  C:99D3H         LINE#         351
  C:99D6H         LINE#         352
BL51 BANKED LINKER/LOCATER V6.22.2.0                                                  05/31/2021  13:02:58  PAGE 102


  C:99D9H         LINE#         353
  C:99DDH         LINE#         354
  C:99E1H         LINE#         355
  C:99E5H         LINE#         356
  C:99E9H         LINE#         357
  C:99EDH         LINE#         358
  C:99F1H         LINE#         359
  C:99F5H         LINE#         360
  C:99F9H         LINE#         362
  C:9A05H         LINE#         363
  C:9A05H         LINE#         364
  C:9A19H         LINE#         365
  C:9A1CH         LINE#         366
  C:9A24H         LINE#         367
  C:9A26H         LINE#         368
  C:9A2BH         LINE#         369
  C:9A3AH         LINE#         370
  C:9A45H         LINE#         371
  C:9A4BH         LINE#         372
  -------         ENDPROC       DWLOAD_EEPROM
  -------         PROC          LOADVERIFY_EEPROM
  -------         DO            
  D:0003H         SYMBOL        j
  X:0002H         SYMBOL        bcc
  X:0003H         SYMBOL        g_scArrTxComSoft
  -------         ENDDO         
  C:A475H         LINE#         378
  C:A475H         LINE#         379
  C:A475H         LINE#         382
  C:A47AH         LINE#         383
  C:A483H         LINE#         386
  C:A489H         LINE#         387
  C:A48CH         LINE#         388
  C:A48EH         LINE#         389
  C:A492H         LINE#         390
  C:A496H         LINE#         391
  C:A49AH         LINE#         392
  C:A49EH         LINE#         393
  C:A4A1H         LINE#         394
  C:A4A5H         LINE#         395
  C:A4A8H         LINE#         396
  C:A4ABH         LINE#         397
  C:A4AFH         LINE#         402
  C:A4BBH         LINE#         403
  C:A4BBH         LINE#         404
  C:A4CFH         LINE#         405
  C:A4D2H         LINE#         406
  C:A4DAH         LINE#         407
  C:A4DCH         LINE#         408
  C:A4E1H         LINE#         409
  C:A4F0H         LINE#         410
  C:A4FBH         LINE#         411
  C:A501H         LINE#         413
  -------         ENDPROC       LOADVERIFY_EEPROM
  -------         PROC          _RD_MF
  X:0002H         SYMBOL        Sector
  X:0003H         SYMBOL        Bloque
BL51 BANKED LINKER/LOCATER V6.22.2.0                                                  05/31/2021  13:02:58  PAGE 103


  -------         DO            
  D:0003H         SYMBOL        j
  X:0004H         SYMBOL        bcc
  X:0005H         SYMBOL        g_scArrTxComSoft
  -------         ENDDO         
  C:8F7DH         LINE#         419
  C:8F85H         LINE#         420
  C:8F85H         LINE#         424
  C:8F88H         LINE#         426
  C:8F91H         LINE#         427
  C:8F99H         LINE#         429
  C:8FA2H         LINE#         430
  C:8FAAH         LINE#         431
  C:8FB3H         LINE#         434
  C:8FB9H         LINE#         435
  C:8FBCH         LINE#         436
  C:8FBEH         LINE#         437
  C:8FC2H         LINE#         438
  C:8FC6H         LINE#         439
  C:8FCAH         LINE#         440
  C:8FCEH         LINE#         441
  C:8FD1H         LINE#         442
  C:8FD5H         LINE#         443
  C:8FDDH         LINE#         444
  C:8FE5H         LINE#         445
  C:8FE9H         LINE#         446
  C:8FEDH         LINE#         448
  C:8FF9H         LINE#         449
  C:8FF9H         LINE#         450
  C:900DH         LINE#         451
  C:9010H         LINE#         452
  C:9018H         LINE#         455
  C:901AH         LINE#         456
  C:901FH         LINE#         457
  C:902EH         LINE#         458
  C:9039H         LINE#         459
  C:903FH         LINE#         461
  -------         ENDPROC       _RD_MF
  -------         PROC          _WR_MF
  X:0002H         SYMBOL        Sector
  X:0003H         SYMBOL        Bloque
  X:0004H         SYMBOL        buffer
  -------         DO            
  D:0005H         SYMBOL        j
  X:0007H         SYMBOL        bcc
  X:0008H         SYMBOL        g_scArrTxComSoft
  -------         ENDDO         
  C:7BEFH         LINE#         468
  C:7C00H         LINE#         470
  C:7C00H         LINE#         473
  C:7C03H         LINE#         475
  C:7C0CH         LINE#         476
  C:7C14H         LINE#         478
  C:7C1DH         LINE#         479
  C:7C25H         LINE#         480
  C:7C2EH         LINE#         482
  C:7C34H         LINE#         483
BL51 BANKED LINKER/LOCATER V6.22.2.0                                                  05/31/2021  13:02:58  PAGE 104


  C:7C37H         LINE#         484
  C:7C39H         LINE#         485
  C:7C3DH         LINE#         487
  C:7C41H         LINE#         488
  C:7C45H         LINE#         489
  C:7C49H         LINE#         490
  C:7C4CH         LINE#         491
  C:7C50H         LINE#         492
  C:7C58H         LINE#         493
  C:7C60H         LINE#         494
  C:7C64H         LINE#         496
  C:7C70H         LINE#         497
  C:7C70H         LINE#         498
  C:7C90H         LINE#         499
  C:7C93H         LINE#         501
  C:7C99H         LINE#         503
  C:7CA5H         LINE#         504
  C:7CA5H         LINE#         505
  C:7CBCH         LINE#         506
  C:7CBFH         LINE#         507
  C:7CC7H         LINE#         510
  C:7CC9H         LINE#         511
  C:7CCEH         LINE#         512
  C:7CDDH         LINE#         513
  C:7CE8H         LINE#         514
  C:7CEEH         LINE#         516
  -------         ENDPROC       _WR_MF
  -------         PROC          UNIQUE_IDENTIFIER_UID
  -------         DO            
  D:0003H         SYMBOL        j
  X:0002H         SYMBOL        bcc
  X:0003H         SYMBOL        g_scArrTxComSoft
  -------         ENDDO         
  C:A69EH         LINE#         521
  C:A69EH         LINE#         522
  C:A69EH         LINE#         525
  C:A6A3H         LINE#         527
  C:A6ACH         LINE#         529
  C:A6B2H         LINE#         530
  C:A6B5H         LINE#         531
  C:A6B7H         LINE#         532
  C:A6BBH         LINE#         533
  C:A6BFH         LINE#         534
  C:A6C3H         LINE#         535
  C:A6C7H         LINE#         536
  C:A6CBH         LINE#         537
  C:A6CFH         LINE#         538
  C:A6D3H         LINE#         539
  C:A6DFH         LINE#         540
  C:A6DFH         LINE#         541
  C:A6F3H         LINE#         542
  C:A6F6H         LINE#         543
  C:A6FEH         LINE#         544
  C:A700H         LINE#         545
  C:A705H         LINE#         546
  C:A714H         LINE#         547
  C:A71FH         LINE#         548
BL51 BANKED LINKER/LOCATER V6.22.2.0                                                  05/31/2021  13:02:58  PAGE 105


  C:A725H         LINE#         549
  -------         ENDPROC       UNIQUE_IDENTIFIER_UID
  -------         PROC          POWER_OFF
  -------         DO            
  D:0003H         SYMBOL        j
  X:0002H         SYMBOL        bcc
  X:0003H         SYMBOL        g_scArrTxComSoft
  -------         ENDDO         
  C:AB3CH         LINE#         550
  C:AB3CH         LINE#         551
  C:AB3CH         LINE#         554
  C:AB41H         LINE#         556
  C:AB4AH         LINE#         558
  C:AB50H         LINE#         559
  C:AB53H         LINE#         560
  C:AB55H         LINE#         561
  C:AB59H         LINE#         562
  C:AB5DH         LINE#         563
  C:AB61H         LINE#         564
  C:AB65H         LINE#         565
  C:AB69H         LINE#         566
  C:AB75H         LINE#         567
  C:AB75H         LINE#         568
  C:AB89H         LINE#         569
  C:AB8CH         LINE#         570
  C:AB94H         LINE#         571
  C:AB96H         LINE#         572
  C:AB9BH         LINE#         573
  C:ABAAH         LINE#         574
  C:ABB5H         LINE#         575
  C:ABBBH         LINE#         578
  -------         ENDPROC       POWER_OFF
  -------         ENDMOD        LINTECH

  -------         MODULE        VERIFICADOR
  C:0000H         SYMBOL        _ICE_DUMMY_
  D:0080H         PUBLIC        P0
  C:BD81H         PUBLIC        Analiza_Presencia_Mensual
  C:AF6BH         PUBLIC        Ingreso_Vehiculo
  D:0090H         PUBLIC        P1
  C:BD0CH         PUBLIC        _Armar_Trama_Tarjeta_Sector1_Bloque0
  D:00B0H         PUBLIC        P3
  C:6339H         PUBLIC        _Valida_Tipo_Tarjeta
  C:B9ECH         PUBLIC        _Load_Secuencia_Expedidor
  C:5BE4H         PUBLIC        _Armar_Trama_Tarjeta_Sector1_Bloque2
  C:516BH         PUBLIC        _Armar_Trama_Pto_Paralelo_Expedidor
  C:8EB9H         PUBLIC        _Tarjeta_Mensual
  C:BDCDH         PUBLIC        Analiza_Presencia_rotacion
  C:A355H         PUBLIC        _Disparo_Lock_Entrada_Vehiculo
  C:BC34H         PUBLIC        Pregunta_Placa
  C:A07BH         PUBLIC        _Valida_Vehiculo_Card_Mensual
  C:BABDH         PUBLIC        Analiza_card_mount_rf
  C:B1C4H         PUBLIC        _Armar_Trama_Placa
  C:8B97H         PUBLIC        _rta_cmd_transporte
  C:C054H         PUBLIC        Captura_Expulsa
  C:4EC8H         PUBLIC        _Armar_Trama_Monitor
  C:6D2EH         PUBLIC        Secuencia_inicio_expedidor
BL51 BANKED LINKER/LOCATER V6.22.2.0                                                  05/31/2021  13:02:58  PAGE 106


  C:884BH         PUBLIC        _Analiza_Uid_Card
  B:0080H.0       PUBLIC        rx_ip
  C:7AECH         PUBLIC        _Bloque_Horario
  B:0080H.3       PUBLIC        Atascado_GP0_PIN_3
  B:0090H.7       PUBLIC        lock
  C:9B97H         PUBLIC        _Armar_Trama_Tarjeta_Sector1_Bloque1_Camcel
  C:9E15H         PUBLIC        _Responde_Lectura_Tarjeta_Sector1_Bloque0
  C:9282H         PUBLIC        error_rx_pto
  C:5DCFH         PUBLIC        _Responde_Lectura_Tarjeta_Sector1_Bloque1
  C:720DH         PUBLIC        _Responde_Lectura_Tarjeta_Sector1_Bloque2
  C:9D79H         PUBLIC        _Respuesta_Placa_Cancel
  B:0090H.1       PUBLIC        DataIn
  C:9AF2H         PUBLIC        _Send_Pto_Paralelo
  C:B8DBH         PUBLIC        Trama_Validacion_P_N
  B:0022H.0       PUBLIC        MenSual
  C:70DFH         PUBLIC        _Armar_Trama_Pto_Paralelo_Expedidor_Mensual
  C:78D1H         PUBLIC        _Horarios
  C:984DH         PUBLIC        _Hora_Maxima
  C:6954H         PUBLIC        _Responde_ReeLectura_Tarjeta_Sector1_Bloque2
  C:35ACH         PUBLIC        _SecuenciaExpedidorMF
  C:B2D1H         PUBLIC        _Pregunta_Lpr
  C:96E4H         PUBLIC        _Wait_Placa
  C:ACB8H         PUBLIC        Responde_Estado_Sensores_Transporte
  C:A3E5H         PUBLIC        Entrega_Card_Captura
  C:B167H         PUBLIC        _Respuesta_Segunda_clave
  X:0147H         SYMBOL        Estado
  C:BB65H         PUBLIC        _Responde_Write_Tarjeta_Sector1_Bloque0
  C:BB2FH         PUBLIC        _Responde_Write_Tarjeta_Sector1_Bloque1
  C:B57AH         PUBLIC        _Responde_Write_Tarjeta_Sector2_Bloque0
  C:AEFFH         PUBLIC        _Responde_Write_Tarjeta_Sector1_Bloque2
  C:AE1FH         PUBLIC        _En_Horario
  C:AD34H         PUBLIC        Responde_Tipo_Tarjeta
  C:BC03H         PUBLIC        _Tarjeta_Rotacion
  -------         PROC          CAPTURA_EXPULSA
  -------         DO            
  D:0007H         SYMBOL        Estado_expedidor
  -------         ENDDO         
  C:C054H         LINE#         541
  C:C054H         LINE#         542
  C:C054H         LINE#         546
  C:C057H         LINE#         547
  C:C057H         LINE#         548
  C:C059H         LINE#         549
  C:C05AH         LINE#         551
  C:C05AH         LINE#         553
  C:C05CH         LINE#         554
  C:C05CH         LINE#         557
  C:C05CH         LINE#         558
  -------         ENDPROC       CAPTURA_EXPULSA
  -------         PROC          TRAMA_VALIDACION_P_N
  -------         DO            
  D:0007H         SYMBOL        Trama_Validacion_P_N
  -------         ENDDO         
  C:B8DBH         LINE#         569
  C:B8DBH         LINE#         570
  C:B8DBH         LINE#         571
  C:B8DDH         LINE#         573
BL51 BANKED LINKER/LOCATER V6.22.2.0                                                  05/31/2021  13:02:58  PAGE 107


  C:B8F3H         LINE#         574
  C:B8F3H         LINE#         575
  C:B8F6H         LINE#         576
  C:B8F6H         LINE#         577
  C:B8F8H         LINE#         580
  C:B900H         LINE#         581
  C:B900H         LINE#         583
  C:B902H         LINE#         585
  C:B903H         LINE#         586
  C:B907H         LINE#         587
  C:B907H         LINE#         589
  C:B909H         LINE#         591
  C:B90AH         LINE#         593
  C:B90AH         LINE#         594
  C:B913H         LINE#         595
  C:B915H         LINE#         597
  C:B915H         LINE#         598
  C:B916H         LINE#         600
  C:B916H         LINE#         602
  C:B918H         LINE#         604
  C:B918H         LINE#         606
  C:B918H         LINE#         608
  C:B918H         LINE#         609
  -------         ENDPROC       TRAMA_VALIDACION_P_N
  -------         PROC          ERROR_RX_PTO
  -------         DO            
  X:00B7H         SYMBOL        cnt_espera_ask_on
  X:0007H         SYMBOL        error_rx_pto
  -------         ENDDO         
  C:9282H         LINE#         633
  C:9282H         LINE#         634
  C:9282H         LINE#         637
  C:9288H         LINE#         641
  C:9291H         LINE#         642
  C:9299H         LINE#         643
  C:92A2H         LINE#         644
  C:92AAH         LINE#         645
  C:92B3H         LINE#         646
  C:92B6H         LINE#         648
  C:92B6H         LINE#         649
  C:92BCH         LINE#         650
  C:92C6H         LINE#         651
  C:92C6H         LINE#         652
  C:92CFH         LINE#         653
  C:92D1H         LINE#         654
  C:92D8H         LINE#         655
  C:92DDH         LINE#         656
  C:92E3H         LINE#         657
  C:92E8H         LINE#         658
  C:92EAH         LINE#         659
  C:92F1H         LINE#         660
  C:92F7H         LINE#         661
  C:92F7H         LINE#         663
  C:92F7H         LINE#         664
  C:92FCH         LINE#         665
  C:92FCH         LINE#         666
  C:92FCH         LINE#         667
BL51 BANKED LINKER/LOCATER V6.22.2.0                                                  05/31/2021  13:02:58  PAGE 108


  C:92FEH         LINE#         669
  C:92FEH         LINE#         670
  C:930CH         LINE#         671
  C:931FH         LINE#         672
  C:931FH         LINE#         673
  C:9320H         LINE#         675
  C:9326H         LINE#         676
  C:932AH         LINE#         677
  C:932CH         LINE#         678
  C:932CH         LINE#         679
  C:932EH         LINE#         681
  C:932EH         LINE#         682
  C:932FH         LINE#         683
  C:9334H         LINE#         684
  C:933AH         LINE#         685
  C:933AH         LINE#         686
  C:933AH         LINE#         687
  C:933FH         LINE#         688
  -------         ENDPROC       ERROR_RX_PTO
  -------         PROC          _RTA_CMD_TRANSPORTE
  X:0002H         SYMBOL        secuencia_Expedidor
  -------         DO            
  X:0005H         SYMBOL        temp
  X:0006H         SYMBOL        EstadoComSeqMF
  -------         ENDDO         
  C:8B97H         LINE#         704
  C:8BA2H         LINE#         705
  C:8BA2H         LINE#         711
  C:8BAFH         LINE#         712
  C:8BAFH         LINE#         713
  C:8BB7H         LINE#         714
  C:8BB7H         LINE#         715
  C:8BC5H         LINE#         716
  C:8BC8H         LINE#         717
  C:8BCEH         LINE#         718
  C:8BCEH         LINE#         719
  C:8BD7H         LINE#         720
  C:8BEBH         LINE#         721
  C:8BFCH         LINE#         723
  C:8BFEH         LINE#         725
  C:8BFEH         LINE#         728
  C:8C16H         LINE#         729
  C:8C16H         LINE#         730
  C:8C21H         LINE#         731
  C:8C23H         LINE#         733
  C:8C23H         LINE#         734
  C:8C31H         LINE#         735
  C:8C31H         LINE#         736
  C:8C31H         LINE#         737
  C:8C33H         LINE#         739
  C:8C33H         LINE#         741
  C:8C47H         LINE#         742
  C:8C5CH         LINE#         743
  C:8C5CH         LINE#         744
  C:8C61H         LINE#         745
  -------         ENDPROC       _RTA_CMD_TRANSPORTE
  -------         PROC          ANALIZA_PRESENCIA_MENSUAL
BL51 BANKED LINKER/LOCATER V6.22.2.0                                                  05/31/2021  13:02:58  PAGE 109


  -------         DO            
  X:0002H         SYMBOL        Estado_expedidor
  -------         ENDDO         
  C:BD81H         LINE#         749
  C:BD81H         LINE#         750
  C:BD81H         LINE#         754
  C:BD87H         LINE#         755
  C:BD87H         LINE#         756
  C:BD89H         LINE#         757
  C:BD8FH         LINE#         758
  C:BD91H         LINE#         760
  C:BD91H         LINE#         762
  C:BD96H         LINE#         763
  C:BD9BH         LINE#         764
  C:BDA1H         LINE#         765
  C:BDA1H         LINE#         766
  C:BDA6H         LINE#         767
  -------         ENDPROC       ANALIZA_PRESENCIA_MENSUAL
  -------         PROC          ANALIZA_CARD_MOUNT_RF
  -------         DO            
  X:0002H         SYMBOL        Estado_expedidor
  -------         ENDDO         
  C:BABDH         LINE#         771
  C:BABDH         LINE#         772
  C:BABDH         LINE#         774
  C:BAC3H         LINE#         775
  C:BACAH         LINE#         776
  C:BACAH         LINE#         778
  C:BAD3H         LINE#         780
  C:BAD9H         LINE#         781
  C:BADBH         LINE#         782
  C:BAE2H         LINE#         784
  C:BAE2H         LINE#         785
  C:BAEBH         LINE#         786
  C:BAF1H         LINE#         787
  C:BAF1H         LINE#         790
  C:BAF6H         LINE#         791
  -------         ENDPROC       ANALIZA_CARD_MOUNT_RF
  -------         PROC          ANALIZA_PRESENCIA_ROTACION
  -------         DO            
  X:0002H         SYMBOL        Estado_expedidor
  -------         ENDDO         
  C:BDCDH         LINE#         795
  C:BDCDH         LINE#         796
  C:BDCDH         LINE#         798
  C:BDD3H         LINE#         799
  C:BDD3H         LINE#         801
  C:BDD9H         LINE#         802
  C:BDDBH         LINE#         804
  C:BDDBH         LINE#         806
  C:BDE0H         LINE#         807
  C:BDE5H         LINE#         808
  C:BDEAH         LINE#         810
  C:BDEAH         LINE#         811
  C:BDEFH         LINE#         812
  -------         ENDPROC       ANALIZA_PRESENCIA_ROTACION
  -------         PROC          _ANALIZA_UID_CARD
BL51 BANKED LINKER/LOCATER V6.22.2.0                                                  05/31/2021  13:02:58  PAGE 110


  X:0002H         SYMBOL        Atributos_Expedidor
  -------         DO            
  X:0005H         SYMBOL        Estado_expedidor
  D:0007H         SYMBOL        temp
  X:0006H         SYMBOL        buffer_UID
  -------         ENDDO         
  C:884BH         LINE#         816
  C:8856H         LINE#         817
  C:8856H         LINE#         821
  C:8866H         LINE#         822
  C:8866H         LINE#         824
  C:8872H         LINE#         825
  C:8872H         LINE#         826
  C:888AH         LINE#         828
  C:888DH         LINE#         830
  C:8896H         LINE#         831
  C:88A7H         LINE#         834
  C:88B0H         LINE#         835
  C:88B8H         LINE#         836
  C:88C0H         LINE#         837
  C:88C8H         LINE#         838
  C:88D0H         LINE#         839
  C:88D9H         LINE#         841
  C:88F0H         LINE#         842
  C:88FAH         LINE#         843
  C:8904H         LINE#         844
  C:890EH         LINE#         845
  C:8914H         LINE#         846
  C:8916H         LINE#         848
  C:8916H         LINE#         849
  C:891CH         LINE#         850
  C:891CH         LINE#         851
  C:8921H         LINE#         852
  -------         ENDPROC       _ANALIZA_UID_CARD
  -------         PROC          INGRESO_VEHICULO
  -------         DO            
  D:0007H         SYMBOL        CardAutomatic
  X:00B9H         SYMBOL        pulseboton
  -------         ENDDO         
  C:AF6BH         LINE#         856
  C:AF6BH         LINE#         857
  C:AF6BH         LINE#         862
  C:AF71H         LINE#         863
  C:AF71H         LINE#         864
  C:AF7AH         LINE#         866
  C:AF7FH         LINE#         867
  C:AF7FH         LINE#         868
  C:AF88H         LINE#         870
  C:AF88H         LINE#         871
  C:AF8AH         LINE#         873
  C:AF8AH         LINE#         875
  C:AF97H         LINE#         876
  C:AF9CH         LINE#         877
  C:AFA1H         LINE#         878
  C:AFA3H         LINE#         880
  C:AFA3H         LINE#         881
  C:AFA9H         LINE#         884
BL51 BANKED LINKER/LOCATER V6.22.2.0                                                  05/31/2021  13:02:58  PAGE 111


  C:AFA9H         LINE#         885
  C:AFACH         LINE#         886
  C:AFAFH         LINE#         887
  C:AFAFH         LINE#         888
  C:AFB1H         LINE#         889
  C:AFB6H         LINE#         890
  C:AFBCH         LINE#         891
  C:AFBEH         LINE#         893
  C:AFBEH         LINE#         894
  C:AFC3H         LINE#         895
  C:AFC9H         LINE#         896
  C:AFC9H         LINE#         899
  C:AFC9H         LINE#         900
  C:AFCBH         LINE#         902
  C:AFCBH         LINE#         904
  C:AFD0H         LINE#         905
  C:AFD0H         LINE#         906
  C:AFD5H         LINE#         907
  -------         ENDPROC       INGRESO_VEHICULO
  -------         PROC          RESPONDE_ESTADO_SENSORES_TRANSPORTE
  -------         DO            
  X:0002H         SYMBOL        Estado_expedidor
  -------         ENDDO         
  C:ACB8H         LINE#         914
  C:ACB8H         LINE#         915
  C:ACB8H         LINE#         918
  C:ACC1H         LINE#         920
  C:ACC9H         LINE#         921
  C:ACC9H         LINE#         923
  C:ACD4H         LINE#         924
  C:ACD4H         LINE#         925
  C:ACD8H         LINE#         926
  C:ACD8H         LINE#         927
  C:ACE1H         LINE#         928
  C:ACE6H         LINE#         930
  C:ACE6H         LINE#         931
  C:ACE8H         LINE#         933
  C:ACE8H         LINE#         935
  C:ACF0H         LINE#         937
  C:ACF0H         LINE#         938
  C:ACF2H         LINE#         940
  C:ACF2H         LINE#         942
  C:ACFBH         LINE#         944
  C:AD00H         LINE#         947
  C:AD00H         LINE#         948
  C:AD00H         LINE#         949
  C:AD02H         LINE#         950
  C:AD09H         LINE#         951
  C:AD09H         LINE#         953
  C:AD0FH         LINE#         955
  C:AD0FH         LINE#         956
  C:AD11H         LINE#         957
  C:AD18H         LINE#         959
  C:AD18H         LINE#         960
  C:AD21H         LINE#         961
  C:AD27H         LINE#         962
  C:AD29H         LINE#         964
BL51 BANKED LINKER/LOCATER V6.22.2.0                                                  05/31/2021  13:02:58  PAGE 112


  C:AD29H         LINE#         965
  C:AD2EH         LINE#         966
  C:AD2EH         LINE#         967
  C:AD33H         LINE#         968
  -------         ENDPROC       RESPONDE_ESTADO_SENSORES_TRANSPORTE
  -------         PROC          RESPONDE_TIPO_TARJETA
  -------         DO            
  X:0002H         SYMBOL        Estado_expedidor
  -------         ENDDO         
  C:AD34H         LINE#         984
  C:AD34H         LINE#         985
  C:AD34H         LINE#         988
  C:AD3DH         LINE#         990
  C:AD45H         LINE#         991
  C:AD45H         LINE#         992
  C:AD50H         LINE#         993
  C:AD50H         LINE#         994
  C:AD59H         LINE#         995
  C:AD5FH         LINE#         996
  C:AD5FH         LINE#         997
  C:AD62H         LINE#         998
  C:AD64H         LINE#         1000
  C:AD64H         LINE#         1001
  C:AD67H         LINE#         1002
  C:AD67H         LINE#         1003
  C:AD69H         LINE#         1005
  C:AD69H         LINE#         1006
  C:AD70H         LINE#         1007
  C:AD70H         LINE#         1009
  C:AD76H         LINE#         1011
  C:AD76H         LINE#         1012
  C:AD76H         LINE#         1014
  C:AD76H         LINE#         1016
  C:AD78H         LINE#         1018
  C:AD78H         LINE#         1019
  C:AD78H         LINE#         1020
  C:AD78H         LINE#         1021
  C:AD78H         LINE#         1022
  C:AD78H         LINE#         1023
  C:AD7AH         LINE#         1025
  C:AD7AH         LINE#         1026
  C:AD81H         LINE#         1027
  C:AD81H         LINE#         1030
  C:AD8AH         LINE#         1032
  C:AD8FH         LINE#         1033
  C:AD94H         LINE#         1035
  C:AD9CH         LINE#         1038
  C:AD9EH         LINE#         1040
  C:AD9EH         LINE#         1041
  C:ADA0H         LINE#         1042
  C:ADA5H         LINE#         1043
  C:ADA5H         LINE#         1044
  C:ADA5H         LINE#         1046
  C:ADAAH         LINE#         1047
  -------         ENDPROC       RESPONDE_TIPO_TARJETA
  -------         PROC          _RESPONDE_LECTURA_TARJETA_SECTOR1_BLOQUE1
  X:0002H         SYMBOL        Atributos_Expedidor
BL51 BANKED LINKER/LOCATER V6.22.2.0                                                  05/31/2021  13:02:58  PAGE 113


  -------         DO            
  D:0007H         SYMBOL        temp
  X:0005H         SYMBOL        Estado_expedidor
  X:0006H         SYMBOL        buffer_S1_B1
  X:0017H         SYMBOL        ID_CLIENTE
  D:0007H         SYMBOL        COD_PARK
  X:00BAH         SYMBOL        falla
  -------         ENDDO         
  C:5DCFH         LINE#         1059
  C:5DDAH         LINE#         1060
  C:5DDAH         LINE#         1067
  C:5DE3H         LINE#         1071
  C:5DF3H         LINE#         1072
  C:5DF3H         LINE#         1074
  C:5DFFH         LINE#         1075
  C:5DFFH         LINE#         1076
  C:5E17H         LINE#         1078
  C:5E1AH         LINE#         1081
  C:5E23H         LINE#         1082
  C:5E34H         LINE#         1083
  C:5E41H         LINE#         1084
  C:5E4AH         LINE#         1087
  C:5E69H         LINE#         1088
  C:5E69H         LINE#         1090
  C:5E72H         LINE#         1091
  C:5E7AH         LINE#         1092
  C:5E83H         LINE#         1094
  C:5E8CH         LINE#         1095
  C:5E94H         LINE#         1096
  C:5E9DH         LINE#         1098
  C:5EA6H         LINE#         1099
  C:5EAEH         LINE#         1100
  C:5EB7H         LINE#         1102
  C:5EC0H         LINE#         1103
  C:5EC8H         LINE#         1104
  C:5ED1H         LINE#         1106
  C:5EDAH         LINE#         1107
  C:5EE2H         LINE#         1108
  C:5EEBH         LINE#         1110
  C:5F02H         LINE#         1112
  C:5F0CH         LINE#         1113
  C:5F16H         LINE#         1114
  C:5F20H         LINE#         1116
  C:5F25H         LINE#         1117
  C:5F38H         LINE#         1118
  C:5F3DH         LINE#         1119
  C:5F43H         LINE#         1121
  C:5F45H         LINE#         1123
  C:5F45H         LINE#         1124
  C:5F4AH         LINE#         1125
  C:5F53H         LINE#         1126
  C:5F58H         LINE#         1127
  C:5F5AH         LINE#         1128
  C:5F5AH         LINE#         1129
  C:5F5AH         LINE#         1130
  C:5F5CH         LINE#         1132
  C:5F5CH         LINE#         1134
BL51 BANKED LINKER/LOCATER V6.22.2.0                                                  05/31/2021  13:02:58  PAGE 114


  C:5F64H         LINE#         1135
  C:5F64H         LINE#         1136
  C:5F6AH         LINE#         1137
  C:5F6AH         LINE#         1138
  C:5F77H         LINE#         1140
  C:5F77H         LINE#         1141
  C:5F80H         LINE#         1142
  C:5F86H         LINE#         1144
  C:5F88H         LINE#         1146
  C:5F88H         LINE#         1147
  C:5F8DH         LINE#         1148
  C:5F96H         LINE#         1149
  C:5F9BH         LINE#         1150
  C:5FA0H         LINE#         1151
  C:5FA8H         LINE#         1152
  C:5FA8H         LINE#         1153
  C:5FA8H         LINE#         1155
  C:5FADH         LINE#         1156
  -------         ENDPROC       _RESPONDE_LECTURA_TARJETA_SECTOR1_BLOQUE1
  -------         PROC          _RESPONDE_LECTURA_TARJETA_SECTOR1_BLOQUE2
  X:0002H         SYMBOL        Atributos_Expedidor
  -------         DO            
  D:0007H         SYMBOL        temp
  X:0005H         SYMBOL        Estado_expedidor
  X:0006H         SYMBOL        buffer_S1_B2
  -------         ENDDO         
  C:720DH         LINE#         1161
  C:7218H         LINE#         1162
  C:7218H         LINE#         1168
  C:7221H         LINE#         1172
  C:7231H         LINE#         1173
  C:7231H         LINE#         1175
  C:723DH         LINE#         1176
  C:723DH         LINE#         1177
  C:7255H         LINE#         1178
  C:7258H         LINE#         1179
  C:7261H         LINE#         1180
  C:7272H         LINE#         1184
  C:727BH         LINE#         1185
  C:7288H         LINE#         1186
  C:72A4H         LINE#         1187
  C:72ADH         LINE#         1189
  C:72B6H         LINE#         1191
  C:72D2H         LINE#         1192
  C:72DCH         LINE#         1193
  C:72E5H         LINE#         1196
  C:72EEH         LINE#         1197
  C:72F6H         LINE#         1198
  C:72FFH         LINE#         1202
  C:7316H         LINE#         1205
  C:7322H         LINE#         1206
  C:7328H         LINE#         1209
  C:732AH         LINE#         1211
  C:732AH         LINE#         1212
  C:7332H         LINE#         1213
  C:7332H         LINE#         1214
  C:7337H         LINE#         1215
BL51 BANKED LINKER/LOCATER V6.22.2.0                                                  05/31/2021  13:02:58  PAGE 115


  -------         ENDPROC       _RESPONDE_LECTURA_TARJETA_SECTOR1_BLOQUE2
  -------         PROC          _RESPONDE_LECTURA_TARJETA_SECTOR1_BLOQUE0
  X:0002H         SYMBOL        Nombre_Mensual
  -------         DO            
  D:0007H         SYMBOL        temp
  X:0005H         SYMBOL        Estado_expedidor
  -------         ENDDO         
  C:9E15H         LINE#         1217
  C:9E20H         LINE#         1218
  C:9E20H         LINE#         1224
  C:9E29H         LINE#         1228
  C:9E36H         LINE#         1229
  C:9E36H         LINE#         1231
  C:9E42H         LINE#         1232
  C:9E42H         LINE#         1233
  C:9E62H         LINE#         1234
  C:9E65H         LINE#         1235
  C:9E79H         LINE#         1236
  C:9E82H         LINE#         1237
  C:9E90H         LINE#         1238
  C:9E99H         LINE#         1239
  C:9E9FH         LINE#         1242
  C:9EA1H         LINE#         1244
  C:9EA1H         LINE#         1245
  C:9EA9H         LINE#         1246
  C:9EA9H         LINE#         1247
  C:9EAEH         LINE#         1248
  -------         ENDPROC       _RESPONDE_LECTURA_TARJETA_SECTOR1_BLOQUE0
  -------         PROC          _RESPONDE_REELECTURA_TARJETA_SECTOR1_BLOQUE2
  X:0002H         SYMBOL        lectura_anterior
  X:0005H         SYMBOL        Atributos_Expedidor
  -------         DO            
  D:0007H         SYMBOL        temp
  X:0008H         SYMBOL        Estado_expedidor
  X:0009H         SYMBOL        reelectura
  X:00BBH         SYMBOL        error_lectura
  -------         ENDDO         
  C:6954H         LINE#         1249
  C:695FH         LINE#         1250
  C:695FH         LINE#         1256
  C:6968H         LINE#         1259
  C:6978H         LINE#         1260
  C:6978H         LINE#         1262
  C:6984H         LINE#         1263
  C:6984H         LINE#         1264
  C:69A4H         LINE#         1265
  C:69A7H         LINE#         1266
  C:69BBH         LINE#         1267
  C:69C4H         LINE#         1268
  C:69DAH         LINE#         1269
  C:69E3H         LINE#         1271
  C:6A07H         LINE#         1272
  C:6A07H         LINE#         1273
  C:6A0BH         LINE#         1274
  C:6A14H         LINE#         1275
  C:6A1DH         LINE#         1276
  C:6A2DH         LINE#         1277
BL51 BANKED LINKER/LOCATER V6.22.2.0                                                  05/31/2021  13:02:58  PAGE 116


  C:6A3FH         LINE#         1278
  C:6A4DH         LINE#         1279
  C:6A4DH         LINE#         1280
  C:6A4FH         LINE#         1282
  C:6A4FH         LINE#         1283
  C:6A55H         LINE#         1284
  C:6A65H         LINE#         1285
  C:6A65H         LINE#         1286
  C:6A68H         LINE#         1287
  C:6A6EH         LINE#         1289
  C:6A70H         LINE#         1291
  C:6A70H         LINE#         1292
  C:6A73H         LINE#         1293
  C:6A7CH         LINE#         1294
  C:6A8CH         LINE#         1295
  C:6A9FH         LINE#         1296
  C:6AA5H         LINE#         1298
  C:6AA5H         LINE#         1299
  C:6AA5H         LINE#         1301
  C:6AA5H         LINE#         1302
  C:6AAAH         LINE#         1303
  -------         ENDPROC       _RESPONDE_REELECTURA_TARJETA_SECTOR1_BLOQUE2
  -------         PROC          _RESPONDE_WRITE_TARJETA_SECTOR1_BLOQUE1
  X:0002H         SYMBOL        Buffer_Write_MF
  -------         DO            
  D:0007H         SYMBOL        Estado_expedidor
  -------         ENDDO         
  C:BB2FH         LINE#         1304
  C:BB3AH         LINE#         1305
  C:BB3AH         LINE#         1307
  C:BB43H         LINE#         1308
  C:BB4CH         LINE#         1309
  C:BB62H         LINE#         1310
  C:BB64H         LINE#         1311
  C:BB64H         LINE#         1312
  -------         ENDPROC       _RESPONDE_WRITE_TARJETA_SECTOR1_BLOQUE1
  -------         PROC          _RESPONDE_WRITE_TARJETA_SECTOR1_BLOQUE2
  X:0002H         SYMBOL        Atributos_Expedidor
  X:0005H         SYMBOL        Buffer_Write_MF
  -------         DO            
  X:0008H         SYMBOL        Estado_expedidor
  -------         ENDDO         
  C:AEFFH         LINE#         1313
  C:AF0AH         LINE#         1314
  C:AF0AH         LINE#         1316
  C:AF13H         LINE#         1317
  C:AF1CH         LINE#         1318
  C:AF32H         LINE#         1319
  C:AF35H         LINE#         1320
  C:AF35H         LINE#         1321
  C:AF3BH         LINE#         1327
  C:AF3DH         LINE#         1329
  C:AF3DH         LINE#         1330
  C:AF4DH         LINE#         1331
  C:AF5FH         LINE#         1332
  C:AF65H         LINE#         1334
  C:AF65H         LINE#         1335
BL51 BANKED LINKER/LOCATER V6.22.2.0                                                  05/31/2021  13:02:58  PAGE 117


  C:AF6AH         LINE#         1336
  -------         ENDPROC       _RESPONDE_WRITE_TARJETA_SECTOR1_BLOQUE2
  -------         PROC          _RESPONDE_WRITE_TARJETA_SECTOR1_BLOQUE0
  X:0002H         SYMBOL        Buffer_Write_MF
  C:BB65H         LINE#         1339
  C:BB70H         LINE#         1340
  C:BB70H         LINE#         1342
  C:BB79H         LINE#         1343
  C:BB82H         LINE#         1344
  C:BB98H         LINE#         1346
  C:BB9AH         LINE#         1347
  -------         ENDPROC       _RESPONDE_WRITE_TARJETA_SECTOR1_BLOQUE0
  -------         PROC          _RESPONDE_WRITE_TARJETA_SECTOR2_BLOQUE0
  X:0002H         SYMBOL        Buffer_Write_MF
  C:B57AH         LINE#         1350
  C:B585H         LINE#         1351
  C:B585H         LINE#         1353
  C:B58EH         LINE#         1354
  C:B597H         LINE#         1355
  C:B5A0H         LINE#         1356
  C:B5A9H         LINE#         1357
  C:B5BEH         LINE#         1358
  C:B5C0H         LINE#         1359
  -------         ENDPROC       _RESPONDE_WRITE_TARJETA_SECTOR2_BLOQUE0
  -------         PROC          _PREGUNTA_LPR
  X:0002H         SYMBOL        Atributos_Expedidor
  -------         DO            
  D:0007H         SYMBOL        Estado_expedidor
  -------         ENDDO         
  C:B2D1H         LINE#         1363
  C:B2DCH         LINE#         1364
  C:B2DCH         LINE#         1366
  C:B2E5H         LINE#         1367
  C:B2F3H         LINE#         1368
  C:B301H         LINE#         1369
  C:B301H         LINE#         1371
  C:B312H         LINE#         1372
  C:B31EH         LINE#         1373
  C:B31EH         LINE#         1374
  C:B322H         LINE#         1375
  C:B322H         LINE#         1376
  C:B322H         LINE#         1379
  C:B324H         LINE#         1381
  C:B324H         LINE#         1382
  -------         ENDPROC       _PREGUNTA_LPR
  -------         PROC          PREGUNTA_PLACA
  -------         DO            
  X:0002H         SYMBOL        Estado_expedidor
  -------         ENDDO         
  C:BC34H         LINE#         1384
  C:BC34H         LINE#         1385
  C:BC34H         LINE#         1387
  C:BC3DH         LINE#         1388
  C:BC4CH         LINE#         1389
  C:BC4CH         LINE#         1391
  C:BC4FH         LINE#         1392
  C:BC54H         LINE#         1393
BL51 BANKED LINKER/LOCATER V6.22.2.0                                                  05/31/2021  13:02:58  PAGE 118


  C:BC59H         LINE#         1394
  C:BC5BH         LINE#         1396
  C:BC5BH         LINE#         1397
  C:BC5EH         LINE#         1398
  C:BC5EH         LINE#         1399
  C:BC63H         LINE#         1400
  -------         ENDPROC       PREGUNTA_PLACA
  -------         PROC          _RESPUESTA_SEGUNDA_CLAVE
  X:0002H         SYMBOL        Atributos_Expedidor
  X:0005H         SYMBOL        Buffer_Write_MF
  C:B167H         LINE#         1401
  C:B172H         LINE#         1402
  C:B172H         LINE#         1404
  C:B17BH         LINE#         1405
  C:B191H         LINE#         1408
  C:B1A1H         LINE#         1409
  C:B1B3H         LINE#         1410
  C:B1C1H         LINE#         1412
  C:B1C3H         LINE#         1413
  -------         ENDPROC       _RESPUESTA_SEGUNDA_CLAVE
  -------         PROC          _RESPUESTA_PLACA_CANCEL
  X:0009H         SYMBOL        Atributos_Expedidor
  X:000CH         SYMBOL        Buffer_Write_MF
  -------         DO            
  X:000FH         SYMBOL        Estado_expedidor
  X:0010H         SYMBOL        Cancel
  -------         ENDDO         
  C:9D79H         LINE#         1414
  C:9D84H         LINE#         1415
  C:9D84H         LINE#         1417
  C:9D92H         LINE#         1418
  C:9D9BH         LINE#         1419
  C:9DA4H         LINE#         1420
  C:9DADH         LINE#         1422
  C:9DC8H         LINE#         1423
  C:9DC8H         LINE#         1424
  C:9DD8H         LINE#         1425
  C:9DEBH         LINE#         1426
  C:9DF9H         LINE#         1427
  C:9DFFH         LINE#         1428
  C:9E01H         LINE#         1430
  C:9E01H         LINE#         1431
  C:9E07H         LINE#         1432
  C:9E07H         LINE#         1433
  C:9E0AH         LINE#         1434
  C:9E0CH         LINE#         1436
  C:9E0CH         LINE#         1438
  C:9E0FH         LINE#         1439
  C:9E0FH         LINE#         1440
  C:9E0FH         LINE#         1441
  C:9E14H         LINE#         1442
  -------         ENDPROC       _RESPUESTA_PLACA_CANCEL
  -------         PROC          _ARMAR_TRAMA_TARJETA_SECTOR1_BLOQUE1_CAMCEL
  X:0013H         SYMBOL        Buffer_Write_MF
  -------         DO            
  X:0016H         SYMBOL        ID_CLIENTE
  D:0007H         SYMBOL        COD_PARK
BL51 BANKED LINKER/LOCATER V6.22.2.0                                                  05/31/2021  13:02:58  PAGE 119


  -------         ENDDO         
  C:9B97H         LINE#         1445
  C:9BA2H         LINE#         1446
  C:9BA2H         LINE#         1450
  C:9BA5H         LINE#         1451
  C:9BB2H         LINE#         1452
  C:9BBBH         LINE#         1454
  C:9BCBH         LINE#         1455
  C:9BDDH         LINE#         1456
  C:9BE4H         LINE#         1457
  C:9BEEH         LINE#         1458
  C:9BF5H         LINE#         1459
  C:9BFCH         LINE#         1460
  C:9C03H         LINE#         1461
  C:9C0AH         LINE#         1462
  C:9C11H         LINE#         1463
  C:9C18H         LINE#         1464
  C:9C1FH         LINE#         1465
  C:9C26H         LINE#         1466
  C:9C2DH         LINE#         1467
  C:9C34H         LINE#         1468
  -------         ENDPROC       _ARMAR_TRAMA_TARJETA_SECTOR1_BLOQUE1_CAMCEL
  -------         PROC          _ARMAR_TRAMA_TARJETA_SECTOR1_BLOQUE2
  X:0010H         SYMBOL        Atributos_Expedidor
  X:0013H         SYMBOL        Buffer_Write_MF
  C:5BE4H         LINE#         1474
  C:5BEFH         LINE#         1475
  C:5BEFH         LINE#         1480
  C:5C13H         LINE#         1481
  C:5C3AH         LINE#         1482
  C:5C61H         LINE#         1483
  C:5C88H         LINE#         1484
  C:5CAFH         LINE#         1487
  C:5CB6H         LINE#         1488
  C:5CBDH         LINE#         1489
  C:5CC4H         LINE#         1491
  C:5CD9H         LINE#         1492
  C:5CD9H         LINE#         1493
  C:5CF0H         LINE#         1494
  C:5D09H         LINE#         1495
  C:5D09H         LINE#         1496
  C:5D0CH         LINE#         1500
  C:5D0CH         LINE#         1502
  C:5D3BH         LINE#         1503
  C:5D6AH         LINE#         1505
  C:5D82H         LINE#         1506
  C:5D82H         LINE#         1507
  C:5D8FH         LINE#         1508
  C:5D91H         LINE#         1510
  C:5D91H         LINE#         1511
  C:5DA1H         LINE#         1512
  C:5DA1H         LINE#         1513
  C:5DA1H         LINE#         1515
  C:5DB3H         LINE#         1516
  C:5DBAH         LINE#         1517
  C:5DC1H         LINE#         1518
  C:5DC8H         LINE#         1519
BL51 BANKED LINKER/LOCATER V6.22.2.0                                                  05/31/2021  13:02:58  PAGE 120


  -------         ENDPROC       _ARMAR_TRAMA_TARJETA_SECTOR1_BLOQUE2
  -------         PROC          _ARMAR_TRAMA_TARJETA_SECTOR1_BLOQUE0
  X:000CH         SYMBOL        Buffer_Write_MF
  C:BD0CH         LINE#         1521
  C:BD17H         LINE#         1522
  C:BD17H         LINE#         1524
  -------         ENDPROC       _ARMAR_TRAMA_TARJETA_SECTOR1_BLOQUE0
  -------         PROC          _ARMAR_TRAMA_PTO_PARALELO_EXPEDIDOR
  X:0009H         SYMBOL        Atributos_Expedidor
  X:000CH         SYMBOL        longitud_trama_pto_paralelo
  -------         DO            
  X:00BCH         SYMBOL        buffer
  X:000FH         SYMBOL        ticket
  X:001AH         SYMBOL        j
  -------         ENDDO         
  C:516BH         LINE#         1526
  C:5176H         LINE#         1527
  C:5176H         LINE#         1534
  C:517CH         LINE#         1535
  C:5180H         LINE#         1536
  C:5183H         LINE#         1537
  C:518FH         LINE#         1538
  C:51A6H         LINE#         1539
  C:51B4H         LINE#         1541
  C:51C5H         LINE#         1543
  C:51F1H         LINE#         1544
  C:521DH         LINE#         1545
  C:5249H         LINE#         1546
  C:5275H         LINE#         1547
  C:52A1H         LINE#         1548
  C:52B5H         LINE#         1558
  C:52C4H         LINE#         1559
  C:52C4H         LINE#         1560
  C:52CAH         LINE#         1561
  C:52CAH         LINE#         1562
  C:52E1H         LINE#         1563
  C:52F7H         LINE#         1564
  C:530DH         LINE#         1565
  C:5323H         LINE#         1566
  C:5339H         LINE#         1567
  C:534EH         LINE#         1568
  C:534EH         LINE#         1569
  C:5350H         LINE#         1571
  C:5350H         LINE#         1572
  C:5363H         LINE#         1573
  C:5363H         LINE#         1574
  C:5363H         LINE#         1575
  C:5365H         LINE#         1577
  C:5365H         LINE#         1578
  C:5379H         LINE#         1579
  C:538CH         LINE#         1580
  C:538CH         LINE#         1581
  C:539AH         LINE#         1582
  C:53A8H         LINE#         1583
  C:53BAH         LINE#         1585
  C:53C0H         LINE#         1586
  -------         ENDPROC       _ARMAR_TRAMA_PTO_PARALELO_EXPEDIDOR
BL51 BANKED LINKER/LOCATER V6.22.2.0                                                  05/31/2021  13:02:58  PAGE 121


  -------         PROC          _ARMAR_TRAMA_PTO_PARALELO_EXPEDIDOR_MENSUAL
  X:0009H         SYMBOL        Atributos_Expedidor
  X:000CH         SYMBOL        longitud_trama_pto_paralelo
  -------         DO            
  X:00D8H         SYMBOL        buffer
  -------         ENDDO         
  C:70DFH         LINE#         1587
  C:70EAH         LINE#         1588
  C:70EAH         LINE#         1594
  C:70F0H         LINE#         1595
  C:70F4H         LINE#         1596
  C:7109H         LINE#         1597
  C:7113H         LINE#         1598
  C:711DH         LINE#         1599
  C:7127H         LINE#         1603
  C:7138H         LINE#         1604
  C:7154H         LINE#         1605
  C:7170H         LINE#         1606
  C:718CH         LINE#         1607
  C:71A8H         LINE#         1617
  C:71B4H         LINE#         1618
  C:71B4H         LINE#         1620
  C:71BBH         LINE#         1621
  C:71BFH         LINE#         1622
  C:71C3H         LINE#         1623
  C:71C7H         LINE#         1624
  C:71CBH         LINE#         1625
  C:71CFH         LINE#         1627
  C:71CFH         LINE#         1629
  C:71E5H         LINE#         1630
  C:71E5H         LINE#         1631
  C:71E8H         LINE#         1632
  C:71EAH         LINE#         1634
  C:71EAH         LINE#         1635
  C:71EDH         LINE#         1636
  C:71EDH         LINE#         1638
  C:71F3H         LINE#         1639
  C:71F6H         LINE#         1640
  C:7206H         LINE#         1641
  C:720CH         LINE#         1642
  -------         ENDPROC       _ARMAR_TRAMA_PTO_PARALELO_EXPEDIDOR_MENSUAL
  -------         PROC          _ARMAR_TRAMA_MONITOR
  X:0005H         SYMBOL        Atributos_Expedidor
  -------         DO            
  X:00F4H         SYMBOL        buffer
  X:0008H         SYMBOL        ticket
  X:0013H         SYMBOL        j
  -------         ENDDO         
  C:4EC8H         LINE#         1643
  C:4ED3H         LINE#         1644
  C:4ED3H         LINE#         1650
  C:4ED8H         LINE#         1651
  C:4EDEH         LINE#         1652
  C:4EE6H         LINE#         1653
  C:4EEAH         LINE#         1654
  C:4EF3H         LINE#         1655
  C:4EF3H         LINE#         1656
BL51 BANKED LINKER/LOCATER V6.22.2.0                                                  05/31/2021  13:02:58  PAGE 122


  C:4EF6H         LINE#         1657
  C:4EF8H         LINE#         1659
  C:4EF8H         LINE#         1660
  C:4EFBH         LINE#         1661
  C:4EFBH         LINE#         1664
  C:4EFEH         LINE#         1665
  C:4EFEH         LINE#         1666
  C:4F03H         LINE#         1667
  C:4F0FH         LINE#         1668
  C:4F26H         LINE#         1669
  C:4F29H         LINE#         1671
  C:4F29H         LINE#         1672
  C:4F44H         LINE#         1673
  C:4F52H         LINE#         1674
  C:4F60H         LINE#         1675
  C:4F6CH         LINE#         1676
  C:4F7AH         LINE#         1677
  C:4FB3H         LINE#         1679
  C:4FB3H         LINE#         1680
  C:4FC1H         LINE#         1681
  C:4FD2H         LINE#         1684
  C:4FFEH         LINE#         1685
  C:501CH         LINE#         1688
  C:503DH         LINE#         1689
  C:505BH         LINE#         1692
  C:507CH         LINE#         1693
  C:509AH         LINE#         1696
  C:50BBH         LINE#         1697
  C:50D9H         LINE#         1700
  C:50FAH         LINE#         1701
  C:5118H         LINE#         1702
  C:512BH         LINE#         1705
  C:5139H         LINE#         1707
  C:5147H         LINE#         1708
  C:5154H         LINE#         1709
  C:5160H         LINE#         1710
  C:5165H         LINE#         1711
  C:516AH         LINE#         1712
  -------         ENDPROC       _ARMAR_TRAMA_MONITOR
  -------         PROC          _ARMAR_TRAMA_PLACA
  X:0008H         SYMBOL        Buffer_Write_MF
  -------         DO            
  D:0006H         SYMBOL        j
  D:0007H         SYMBOL        len_placa
  -------         ENDDO         
  C:B1C4H         LINE#         1713
  C:B1CFH         LINE#         1714
  C:B1CFH         LINE#         1717
  C:B1D8H         LINE#         1718
  C:B1DFH         LINE#         1719
  C:B1DFH         LINE#         1720
  C:B1F9H         LINE#         1721
  C:B1FCH         LINE#         1722
  C:B208H         LINE#         1723
  C:B208H         LINE#         1724
  C:B21CH         LINE#         1725
  C:B21FH         LINE#         1726
BL51 BANKED LINKER/LOCATER V6.22.2.0                                                  05/31/2021  13:02:58  PAGE 123


  -------         ENDPROC       _ARMAR_TRAMA_PLACA
  C:B9D0H         SYMBOL        L?0402
  -------         PROC          L?0401
  -------         ENDPROC       L?0401
  C:B9D0H         SYMBOL        L?0402
  -------         PROC          _LOAD_SECUENCIA_EXPEDIDOR
  D:0001H         SYMBOL        Secuencia_Expedidor
  D:0004H         SYMBOL        estadoactivo
  X:0007H         SYMBOL        estadoactual
  X:0009H         SYMBOL        estadofuturo
  C:B9ECH         LINE#         1727
  C:B9ECH         LINE#         1728
  C:B9ECH         LINE#         1729
  C:B9F3H         LINE#         1730
  C:B9FBH         LINE#         1731
  C:BA06H         LINE#         1732
  C:BA0CH         LINE#         1733
  -------         ENDPROC       _LOAD_SECUENCIA_EXPEDIDOR
  -------         PROC          _DISPARO_LOCK_ENTRADA_VEHICULO
  X:0002H         SYMBOL        Nombre_Mensual
  -------         DO            
  X:0005H         SYMBOL        Estado_expedidor
  X:010CH         SYMBOL        take_card
  -------         ENDDO         
  C:A355H         LINE#         1734
  C:A360H         LINE#         1735
  C:A360H         LINE#         1740
  C:A369H         LINE#         1744
  C:A370H         LINE#         1745
  C:A370H         LINE#         1747
  C:A379H         LINE#         1749
  C:A37FH         LINE#         1750
  C:A381H         LINE#         1751
  C:A386H         LINE#         1752
  C:A396H         LINE#         1753
  C:A39CH         LINE#         1756
  C:A39EH         LINE#         1757
  C:A3A6H         LINE#         1758
  C:A3A6H         LINE#         1759
  C:A3ACH         LINE#         1760
  C:A3ACH         LINE#         1761
  C:A3B9H         LINE#         1762
  C:A3BEH         LINE#         1763
  C:A3C3H         LINE#         1764
  C:A3C5H         LINE#         1766
  C:A3C5H         LINE#         1767
  C:A3CBH         LINE#         1769
  C:A3CBH         LINE#         1771
  C:A3D1H         LINE#         1772
  C:A3D7H         LINE#         1774
  C:A3D9H         LINE#         1776
  C:A3D9H         LINE#         1777
  C:A3DFH         LINE#         1778
  C:A3DFH         LINE#         1780
  C:A3DFH         LINE#         1785
  C:A3E4H         LINE#         1786
  -------         ENDPROC       _DISPARO_LOCK_ENTRADA_VEHICULO
BL51 BANKED LINKER/LOCATER V6.22.2.0                                                  05/31/2021  13:02:58  PAGE 124


  -------         PROC          _SEND_PTO_PARALELO
  X:0002H         SYMBOL        Atributos_Expedidor
  -------         DO            
  X:0005H         SYMBOL        Trama_Expedidor
  X:0008H         SYMBOL        leng_trama_pto
  -------         ENDDO         
  C:9AF2H         LINE#         1787
  C:9AFDH         LINE#         1788
  C:9AFDH         LINE#         1791
  C:9B00H         LINE#         1792
  C:9B00H         LINE#         1793
  C:9B27H         LINE#         1794
  C:9B29H         LINE#         1796
  C:9B29H         LINE#         1797
  C:9B50H         LINE#         1798
  C:9B53H         LINE#         1799
  C:9B53H         LINE#         1801
  C:9B64H         LINE#         1802
  C:9B6DH         LINE#         1803
  C:9B84H         LINE#         1807
  C:9B87H         LINE#         1808
  C:9B8DH         LINE#         1809
  C:9B92H         LINE#         1810
  C:9B94H         LINE#         1811
  C:9B96H         LINE#         1812
  -------         ENDPROC       _SEND_PTO_PARALELO
  -------         PROC          ENTREGA_CARD_CAPTURA
  -------         DO            
  X:0002H         SYMBOL        Estado_expedidor
  -------         ENDDO         
  C:A3E5H         LINE#         1816
  C:A3E5H         LINE#         1817
  C:A3E5H         LINE#         1821
  C:A3EEH         LINE#         1822
  C:A3F1H         LINE#         1823
  C:A3F4H         LINE#         1824
  C:A3F4H         LINE#         1825
  C:A3FEH         LINE#         1826
  C:A3FEH         LINE#         1827
  C:A400H         LINE#         1828
  C:A402H         LINE#         1829
  C:A40BH         LINE#         1830
  C:A40BH         LINE#         1831
  C:A40BH         LINE#         1833
  C:A40DH         LINE#         1835
  C:A40DH         LINE#         1836
  C:A413H         LINE#         1837
  C:A413H         LINE#         1839
  C:A419H         LINE#         1841
  C:A42CH         LINE#         1842
  C:A42CH         LINE#         1843
  C:A439H         LINE#         1844
  C:A439H         LINE#         1845
  C:A43BH         LINE#         1846
  C:A444H         LINE#         1848
  C:A446H         LINE#         1849
  C:A446H         LINE#         1850
BL51 BANKED LINKER/LOCATER V6.22.2.0                                                  05/31/2021  13:02:58  PAGE 125


  C:A448H         LINE#         1851
  C:A455H         LINE#         1852
  C:A455H         LINE#         1853
  C:A45BH         LINE#         1854
  C:A45BH         LINE#         1855
  C:A45BH         LINE#         1857
  C:A45DH         LINE#         1859
  C:A45DH         LINE#         1860
  C:A45FH         LINE#         1861
  C:A468H         LINE#         1862
  C:A46AH         LINE#         1863
  C:A46FH         LINE#         1864
  C:A46FH         LINE#         1865
  C:A46FH         LINE#         1867
  C:A474H         LINE#         1868
  -------         ENDPROC       ENTREGA_CARD_CAPTURA
  -------         PROC          _WAIT_PLACA
  X:0002H         SYMBOL        Atributos_Expedidor
  X:0005H         SYMBOL        Buffer_Write_MF
  -------         DO            
  X:0008H         SYMBOL        Estado_expedidor
  -------         ENDDO         
  C:96E4H         LINE#         1869
  C:96EFH         LINE#         1870
  C:96EFH         LINE#         1873
  C:96F8H         LINE#         1875
  C:970EH         LINE#         1876
  C:970EH         LINE#         1877
  C:9711H         LINE#         1878
  C:9711H         LINE#         1880
  C:9714H         LINE#         1881
  C:9714H         LINE#         1882
  C:9716H         LINE#         1884
  C:9719H         LINE#         1885
  C:9719H         LINE#         1886
  C:9741H         LINE#         1887
  C:9743H         LINE#         1890
  C:9743H         LINE#         1891
  C:9749H         LINE#         1892
  C:975CH         LINE#         1893
  C:975CH         LINE#         1894
  C:9769H         LINE#         1895
  C:9769H         LINE#         1896
  C:9778H         LINE#         1897
  C:977EH         LINE#         1898
  C:9780H         LINE#         1899
  C:978DH         LINE#         1900
  C:978DH         LINE#         1901
  C:9793H         LINE#         1902
  C:9793H         LINE#         1903
  C:9793H         LINE#         1904
  C:9793H         LINE#         1905
  C:9798H         LINE#         1906
  -------         ENDPROC       _WAIT_PLACA
  -------         PROC          _VALIDA_VEHICULO_CARD_MENSUAL
  X:0010H         SYMBOL        Atributos_Expedidor
  -------         DO            
BL51 BANKED LINKER/LOCATER V6.22.2.0                                                  05/31/2021  13:02:58  PAGE 126


  X:0013H         SYMBOL        Estado_expedidor
  -------         ENDDO         
  C:A07BH         LINE#         1907
  C:A086H         LINE#         1908
  C:A086H         LINE#         1911
  C:A08FH         LINE#         1912
  C:A0A4H         LINE#         1913
  C:A0A4H         LINE#         1914
  C:A0A8H         LINE#         1915
  C:A0AAH         LINE#         1917
  C:A0AAH         LINE#         1918
  C:A0B1H         LINE#         1919
  C:A0B1H         LINE#         1921
  C:A0BAH         LINE#         1922
  C:A0C8H         LINE#         1923
  C:A0C8H         LINE#         1924
  C:A0E1H         LINE#         1925
  C:A0E1H         LINE#         1926
  C:A0E7H         LINE#         1927
  C:A0E7H         LINE#         1928
  C:A0E9H         LINE#         1931
  C:A0E9H         LINE#         1932
  C:A0EEH         LINE#         1933
  C:A0F7H         LINE#         1934
  C:A0FCH         LINE#         1935
  C:A0FCH         LINE#         1936
  C:A0FEH         LINE#         1938
  C:A0FEH         LINE#         1939
  C:A107H         LINE#         1940
  C:A10DH         LINE#         1941
  C:A10DH         LINE#         1942
  C:A112H         LINE#         1943
  -------         ENDPROC       _VALIDA_VEHICULO_CARD_MENSUAL
  -------         PROC          _TARJETA_MENSUAL
  X:0009H         SYMBOL        Atributos_Expedidor
  X:000CH         SYMBOL        Buffer_Write_MF
  -------         DO            
  X:000FH         SYMBOL        Estado_expedidor
  -------         ENDDO         
  C:8EB9H         LINE#         1944
  C:8EC4H         LINE#         1945
  C:8EC4H         LINE#         1950
  C:8ECFH         LINE#         1951
  C:8ECFH         LINE#         1952
  C:8EEDH         LINE#         1953
  C:8EEDH         LINE#         1955
  C:8EFEH         LINE#         1956
  C:8EFEH         LINE#         1957
  C:8F06H         LINE#         1958
  C:8F08H         LINE#         1960
  C:8F08H         LINE#         1961
  C:8F11H         LINE#         1962
  C:8F21H         LINE#         1963
  C:8F34H         LINE#         1964
  C:8F54H         LINE#         1965
  C:8F5AH         LINE#         1966
  C:8F5AH         LINE#         1967
BL51 BANKED LINKER/LOCATER V6.22.2.0                                                  05/31/2021  13:02:58  PAGE 127


  C:8F5CH         LINE#         1969
  C:8F5CH         LINE#         1970
  C:8F61H         LINE#         1972
  C:8F66H         LINE#         1973
  C:8F6FH         LINE#         1974
  C:8F6FH         LINE#         1975
  C:8F6FH         LINE#         1976
  C:8F71H         LINE#         1978
  C:8F71H         LINE#         1980
  C:8F77H         LINE#         1981
  C:8F77H         LINE#         1982
  C:8F7CH         LINE#         1983
  -------         ENDPROC       _TARJETA_MENSUAL
  -------         PROC          _TARJETA_ROTACION
  D:0001H         SYMBOL        Atributos_Expedidor
  X:000CH         SYMBOL        Buffer_Write_MF
  C:BC03H         LINE#         1984
  C:BC03H         LINE#         1985
  C:BC03H         LINE#         1986
  C:BC08H         LINE#         1987
  C:BC11H         LINE#         1988
  C:BC31H         LINE#         1989
  C:BC33H         LINE#         1992
  -------         ENDPROC       _TARJETA_ROTACION
  -------         PROC          _VALIDA_TIPO_TARJETA
  X:0002H         SYMBOL        Atributos_Expedidor
  X:0005H         SYMBOL        Buffer_Write_MF
  -------         DO            
  X:0008H         SYMBOL        Estado_expedidor
  -------         ENDDO         
  C:6339H         LINE#         1993
  C:6344H         LINE#         1994
  C:6344H         LINE#         1996
  C:6351H         LINE#         1997
  C:6351H         LINE#         1998
  C:635AH         LINE#         1999
  C:6360H         LINE#         2000
  C:6360H         LINE#         2004
  C:636EH         LINE#         2005
  C:636EH         LINE#         2008
  C:638BH         LINE#         2009
  C:638BH         LINE#         2010
  C:63A8H         LINE#         2012
  C:63AAH         LINE#         2014
  C:63AAH         LINE#         2015
  C:63B3H         LINE#         2016
  C:63B5H         LINE#         2017
  C:63B5H         LINE#         2018
  C:63B5H         LINE#         2019
  C:63B8H         LINE#         2022
  C:63B8H         LINE#         2023
  C:63C1H         LINE#         2025
  C:63E4H         LINE#         2026
  C:63E4H         LINE#         2027
  C:63E7H         LINE#         2029
  C:63E7H         LINE#         2030
  C:63ECH         LINE#         2031
BL51 BANKED LINKER/LOCATER V6.22.2.0                                                  05/31/2021  13:02:58  PAGE 128


  C:63F1H         LINE#         2032
  C:63F4H         LINE#         2033
  C:63F4H         LINE#         2034
  C:63F7H         LINE#         2035
  C:640FH         LINE#         2036
  C:640FH         LINE#         2038
  C:6418H         LINE#         2039
  C:641EH         LINE#         2040
  C:641EH         LINE#         2041
  C:642AH         LINE#         2042
  C:642AH         LINE#         2043
  C:6447H         LINE#         2045
  C:6447H         LINE#         2046
  C:6467H         LINE#         2047
  C:6469H         LINE#         2049
  C:6469H         LINE#         2050
  C:6472H         LINE#         2051
  C:6477H         LINE#         2052
  C:647CH         LINE#         2053
  C:647FH         LINE#         2054
  C:647FH         LINE#         2055
  C:6481H         LINE#         2057
  C:6481H         LINE#         2058
  C:648AH         LINE#         2059
  C:64ADH         LINE#         2060
  C:64ADH         LINE#         2061
  C:64AFH         LINE#         2063
  C:64AFH         LINE#         2065
  C:64B4H         LINE#         2066
  C:64B9H         LINE#         2067
  C:64BFH         LINE#         2068
  C:64BFH         LINE#         2069
  C:64C1H         LINE#         2071
  C:64C1H         LINE#         2072
  C:64CAH         LINE#         2073
  C:64CFH         LINE#         2075
  C:64D7H         LINE#         2076
  C:64D7H         LINE#         2078
  C:64DCH         LINE#         2079
  -------         ENDPROC       _VALIDA_TIPO_TARJETA
  -------         PROC          _HORARIOS
  X:0010H         SYMBOL        Atributos_Expedidor
  -------         DO            
  X:0013H         SYMBOL        Estado_Horario
  X:0014H         SYMBOL        Addr_horarios
  X:001FH         SYMBOL        dia_semana
  X:0020H         SYMBOL        EE_dia_semana
  X:0021H         SYMBOL        addr
  -------         ENDDO         
  C:78D1H         LINE#         2173
  C:78DCH         LINE#         2174
  C:78DCH         LINE#         2180
  C:78E7H         LINE#         2181
  C:78E7H         LINE#         2183
  C:78F3H         LINE#         2185
  C:7919H         LINE#         2189
  C:792CH         LINE#         2190
BL51 BANKED LINKER/LOCATER V6.22.2.0                                                  05/31/2021  13:02:58  PAGE 129


  C:792CH         LINE#         2192
  C:7936H         LINE#         2193
  C:793FH         LINE#         2194
  C:7947H         LINE#         2195
  C:7950H         LINE#         2198
  C:7975H         LINE#         2199
  C:797EH         LINE#         2200
  C:7986H         LINE#         2201
  C:798FH         LINE#         2203
  C:7999H         LINE#         2204
  C:7999H         LINE#         2206
  C:79A7H         LINE#         2207
  C:79A9H         LINE#         2209
  C:79A9H         LINE#         2211
  C:79B2H         LINE#         2212
  C:79B7H         LINE#         2213
  C:79B7H         LINE#         2214
  C:79B9H         LINE#         2216
  C:79B9H         LINE#         2218
  C:79BEH         LINE#         2219
  C:79C3H         LINE#         2220
  C:79C9H         LINE#         2222
  C:79C9H         LINE#         2224
  C:79CBH         LINE#         2226
  C:79CBH         LINE#         2227
  C:79D1H         LINE#         2229
  C:79DAH         LINE#         2230
  C:79DAH         LINE#         2231
  C:79DFH         LINE#         2232
  -------         ENDPROC       _HORARIOS
  -------         PROC          _HORA_MAXIMA
  X:002FH         SYMBOL        addr
  -------         DO            
  X:0031H         SYMBOL        Hora_High
  X:0032H         SYMBOL        Minuto_High
  X:0033H         SYMBOL        HoraIni
  X:0034H         SYMBOL        MinutoIni
  X:0035H         SYMBOL        Hora_Prog
  -------         ENDDO         
  C:984DH         LINE#         2233
  C:9855H         LINE#         2234
  C:9855H         LINE#         2239
  C:986AH         LINE#         2240
  C:988AH         LINE#         2241
  C:98A7H         LINE#         2242
  C:98C7H         LINE#         2243
  C:98CFH         LINE#         2244
  C:98D7H         LINE#         2245
  C:98E0H         LINE#         2247
  C:98F8H         LINE#         2248
  -------         ENDPROC       _HORA_MAXIMA
  -------         PROC          _EN_HORARIO
  X:002AH         SYMBOL        HoraNow
  D:0004H         SYMBOL        Hora_Prog
  X:002CH         SYMBOL        addr
  -------         DO            
  X:002EH         SYMBOL        Estado_Horario
BL51 BANKED LINKER/LOCATER V6.22.2.0                                                  05/31/2021  13:02:58  PAGE 130


  -------         ENDDO         
  C:AE1FH         LINE#         2249
  C:AE2DH         LINE#         2250
  C:AE2DH         LINE#         2253
  C:AE3AH         LINE#         2254
  C:AE3AH         LINE#         2257
  C:AE43H         LINE#         2258
  C:AE58H         LINE#         2261
  C:AE67H         LINE#         2262
  C:AE67H         LINE#         2264
  C:AE6EH         LINE#         2265
  C:AE74H         LINE#         2266
  C:AE76H         LINE#         2268
  C:AE76H         LINE#         2271
  C:AE7AH         LINE#         2272
  C:AE7AH         LINE#         2273
  C:AE7AH         LINE#         2275
  C:AE7CH         LINE#         2277
  C:AE7CH         LINE#         2280
  C:AE85H         LINE#         2281
  C:AE8AH         LINE#         2283
  C:AE8AH         LINE#         2284
  C:AE8FH         LINE#         2285
  -------         ENDPROC       _EN_HORARIO
  -------         PROC          _BLOQUE_HORARIO
  X:0023H         SYMBOL        addr
  -------         DO            
  X:0025H         SYMBOL        Estado_Horario
  X:0026H         SYMBOL        HoraNow
  X:0028H         SYMBOL        Hora_Prog
  -------         ENDDO         
  C:7AECH         LINE#         2287
  C:7AF4H         LINE#         2288
  C:7AF4H         LINE#         2294
  C:7AFDH         LINE#         2295
  C:7B05H         LINE#         2296
  C:7B0DH         LINE#         2297
  C:7B16H         LINE#         2298
  C:7B44H         LINE#         2303
  C:7B4DH         LINE#         2304
  C:7B62H         LINE#         2305
  C:7B7AH         LINE#         2306
  C:7B7CH         LINE#         2307
  C:7B7CH         LINE#         2310
  C:7B94H         LINE#         2311
  C:7B94H         LINE#         2312
  C:7B9DH         LINE#         2313
  C:7BB8H         LINE#         2314
  C:7BD6H         LINE#         2315
  C:7BD8H         LINE#         2317
  C:7BD8H         LINE#         2318
  C:7BDDH         LINE#         2319
  C:7BE2H         LINE#         2320
  C:7BE7H         LINE#         2321
  C:7BE7H         LINE#         2322
  C:7BE7H         LINE#         2324
  C:7BEEH         LINE#         2325
BL51 BANKED LINKER/LOCATER V6.22.2.0                                                  05/31/2021  13:02:58  PAGE 131


  -------         ENDPROC       _BLOQUE_HORARIO
  -------         PROC          SECUENCIA_INICIO_EXPEDIDOR
  -------         DO            
  X:0001H         SYMBOL        temp
  -------         ENDDO         
  C:6D2EH         LINE#         2334
  C:6D2EH         LINE#         2335
  C:6D2EH         LINE#         2337
  C:6D4EH         LINE#         2338
  C:6D4EH         LINE#         2339
  C:6D4EH         LINE#         2342
  C:6D53H         LINE#         2343
  C:6D59H         LINE#         2346
  C:6D5BH         LINE#         2347
  C:6D5BH         LINE#         2358
  C:6D5BH         LINE#         2360
  C:6D69H         LINE#         2361
  C:6D69H         LINE#         2362
  C:6D75H         LINE#         2363
  C:6D75H         LINE#         2364
  C:6D7BH         LINE#         2365
  C:6D7EH         LINE#         2366
  C:6D86H         LINE#         2367
  C:6D86H         LINE#         2368
  C:6D8DH         LINE#         2369
  C:6DA1H         LINE#         2370
  C:6DA1H         LINE#         2371
  C:6DA3H         LINE#         2373
  C:6DA3H         LINE#         2374
  C:6DAAH         LINE#         2375
  C:6DB0H         LINE#         2376
  C:6DB0H         LINE#         2377
  C:6DB3H         LINE#         2379
  C:6DB3H         LINE#         2380
  C:6DBCH         LINE#         2381
  C:6DD0H         LINE#         2382
  C:6DD6H         LINE#         2383
  C:6DD6H         LINE#         2384
  C:6DD9H         LINE#         2385
  C:6DD9H         LINE#         2391
  C:6DD9H         LINE#         2393
  C:6DDCH         LINE#         2394
  C:6DE2H         LINE#         2398
  C:6DE4H         LINE#         2399
  C:6DE4H         LINE#         2409
  C:6DE4H         LINE#         2411
  C:6DF2H         LINE#         2412
  C:6DF2H         LINE#         2413
  C:6DFEH         LINE#         2414
  C:6DFEH         LINE#         2415
  C:6E04H         LINE#         2416
  C:6E06H         LINE#         2417
  C:6E0EH         LINE#         2418
  C:6E0EH         LINE#         2419
  C:6E15H         LINE#         2420
  C:6E29H         LINE#         2421
  C:6E29H         LINE#         2422
BL51 BANKED LINKER/LOCATER V6.22.2.0                                                  05/31/2021  13:02:58  PAGE 132


  C:6E2BH         LINE#         2424
  C:6E2BH         LINE#         2425
  C:6E32H         LINE#         2426
  C:6E38H         LINE#         2427
  C:6E38H         LINE#         2428
  C:6E3AH         LINE#         2430
  C:6E3AH         LINE#         2431
  C:6E43H         LINE#         2432
  C:6E57H         LINE#         2433
  C:6E5CH         LINE#         2434
  C:6E5CH         LINE#         2436
  C:6E5EH         LINE#         2437
  C:6E5EH         LINE#         2443
  C:6E5EH         LINE#         2445
  C:6E64H         LINE#         2446
  C:6E64H         LINE#         2449
  C:6E64H         LINE#         2450
  C:6E6BH         LINE#         2451
  C:6E6BH         LINE#         2452
  C:6E6BH         LINE#         2453
  -------         ENDPROC       SECUENCIA_INICIO_EXPEDIDOR
  -------         PROC          _SECUENCIAEXPEDIDORMF
  X:0001H         SYMBOL        EstadoActivo
  -------         DO            
  X:010DH         SYMBOL        Buffer_Write_MF
  X:011EH         SYMBOL        Atributos_Expedidor
  X:0132H         SYMBOL        Secuencia_Expedidor
  X:0136H         SYMBOL        Nombre_Mensual
  -------         ENDDO         
  C:35ACH         LINE#         2463
  C:35B1H         LINE#         2464
  C:35B1H         LINE#         2470
  C:3614H         LINE#         2471
  C:3614H         LINE#         2474
  C:3614H         LINE#         2476
  C:3624H         LINE#         2477
  C:3624H         LINE#         2480
  C:3626H         LINE#         2481
  C:3628H         LINE#         2482
  C:362DH         LINE#         2483
  C:3635H         LINE#         2484
  C:363AH         LINE#         2485
  C:363DH         LINE#         2486
  C:363DH         LINE#         2487
  C:3643H         LINE#         2488
  C:3643H         LINE#         2489
  C:3646H         LINE#         2490
  C:3646H         LINE#         2491
  C:3646H         LINE#         2493
  C:3649H         LINE#         2494
  C:3649H         LINE#         2496
  C:3652H         LINE#         2497
  C:3655H         LINE#         2498
  C:3655H         LINE#         2499
  C:365AH         LINE#         2500
  C:367AH         LINE#         2501
  C:367DH         LINE#         2502
BL51 BANKED LINKER/LOCATER V6.22.2.0                                                  05/31/2021  13:02:58  PAGE 133


  C:367DH         LINE#         2503
  C:3682H         LINE#         2504
  C:368AH         LINE#         2505
  C:3690H         LINE#         2506
  C:3693H         LINE#         2507
  C:3693H         LINE#         2508
  C:3696H         LINE#         2509
  C:369EH         LINE#         2510
  C:36A4H         LINE#         2511
  C:36A7H         LINE#         2512
  C:36A7H         LINE#         2513
  C:36AAH         LINE#         2514
  C:36CFH         LINE#         2515
  C:36D5H         LINE#         2516
  C:36D7H         LINE#         2517
  C:36DAH         LINE#         2518
  C:36DAH         LINE#         2519
  C:36E5H         LINE#         2520
  C:36EDH         LINE#         2521
  C:36F3H         LINE#         2522
  C:36F6H         LINE#         2523
  C:36F6H         LINE#         2524
  C:3707H         LINE#         2525
  C:370FH         LINE#         2526
  C:3715H         LINE#         2527
  C:3718H         LINE#         2528
  C:3718H         LINE#         2529
  C:371DH         LINE#         2530
  C:373BH         LINE#         2531
  C:373EH         LINE#         2532
  C:373EH         LINE#         2533
  C:3743H         LINE#         2534
  C:3763H         LINE#         2535
  C:3766H         LINE#         2536
  C:3766H         LINE#         2537
  C:376BH         LINE#         2538
  C:376DH         LINE#         2539
  C:378BH         LINE#         2540
  C:378EH         LINE#         2541
  C:378EH         LINE#         2542
  C:3793H         LINE#         2543
  C:37B3H         LINE#         2544
  C:37B6H         LINE#         2545
  C:37B6H         LINE#         2546
  C:37C9H         LINE#         2547
  C:37C9H         LINE#         2548
  C:37CEH         LINE#         2549
  C:37D6H         LINE#         2550
  C:37DCH         LINE#         2551
  C:37DCH         LINE#         2552
  C:37DFH         LINE#         2553
  C:37DFH         LINE#         2554
  C:37F2H         LINE#         2555
  C:37F2H         LINE#         2556
  C:37F7H         LINE#         2557
  C:37FAH         LINE#         2558
  C:37FAH         LINE#         2559
BL51 BANKED LINKER/LOCATER V6.22.2.0                                                  05/31/2021  13:02:58  PAGE 134


  C:37FDH         LINE#         2560
  C:37FDH         LINE#         2561
  C:3800H         LINE#         2562
  C:3820H         LINE#         2563
  C:3823H         LINE#         2564
  C:3823H         LINE#         2565
  C:3825H         LINE#         2566
  C:3828H         LINE#         2567
  C:382BH         LINE#         2568
  C:382BH         LINE#         2569
  C:3834H         LINE#         2570
  C:3837H         LINE#         2571
  C:3837H         LINE#         2572
  C:384EH         LINE#         2573
  C:3851H         LINE#         2574
  C:3851H         LINE#         2575
  C:3854H         LINE#         2576
  C:385CH         LINE#         2577
  C:3862H         LINE#         2578
  C:3865H         LINE#         2579
  C:3865H         LINE#         2580
  C:386EH         LINE#         2581
  C:3871H         LINE#         2582
  C:3871H         LINE#         2583
  C:3873H         LINE#         2584
  C:3876H         LINE#         2585
  C:3879H         LINE#         2586
  C:3879H         LINE#         2587
  C:3890H         LINE#         2588
  C:3893H         LINE#         2589
  C:3893H         LINE#         2590
  C:3898H         LINE#         2591
  C:38A0H         LINE#         2592
  C:38A6H         LINE#         2593
  C:38A9H         LINE#         2594
  C:38A9H         LINE#         2595
  C:38ACH         LINE#         2596
  C:38CCH         LINE#         2597
  C:38CFH         LINE#         2598
  C:38CFH         LINE#         2599
  C:38D2H         LINE#         2600
  C:38F2H         LINE#         2601
  C:38F5H         LINE#         2602
  C:38F5H         LINE#         2603
  C:38F8H         LINE#         2604
  C:3900H         LINE#         2605
  C:3903H         LINE#         2606
  C:3905H         LINE#         2607
  C:3905H         LINE#         2609
  C:3910H         LINE#         2610
  C:3918H         LINE#         2611
  C:392CH         LINE#         2612
  C:392FH         LINE#         2616
  C:392FH         LINE#         2617
  C:3935H         LINE#         2618
  C:393BH         LINE#         2619
  C:393BH         LINE#         2620
BL51 BANKED LINKER/LOCATER V6.22.2.0                                                  05/31/2021  13:02:58  PAGE 135


  C:3943H         LINE#         2621
  C:3949H         LINE#         2623
  C:394CH         LINE#         2624
  C:3954H         LINE#         2625
  C:3954H         LINE#         2627
  C:3957H         LINE#         2628
  C:395AH         LINE#         2629
  C:3962H         LINE#         2630
  C:3962H         LINE#         2631
  C:3970H         LINE#         2632
  C:3970H         LINE#         2633
  C:3979H         LINE#         2634
  C:397CH         LINE#         2635
  C:3988H         LINE#         2636
  C:3988H         LINE#         2637
  C:3991H         LINE#         2638
  C:3994H         LINE#         2640
  C:3994H         LINE#         2641
  C:399DH         LINE#         2642
  C:399DH         LINE#         2643
  C:39A0H         LINE#         2644
  C:39A8H         LINE#         2645
  C:39A8H         LINE#         2646
  C:39B6H         LINE#         2647
  C:39B6H         LINE#         2648
  C:39CCH         LINE#         2649
  C:39CFH         LINE#         2650
  C:39DBH         LINE#         2651
  C:39DBH         LINE#         2652
  C:39E4H         LINE#         2653
  C:39E7H         LINE#         2654
  C:39F5H         LINE#         2655
  C:39F5H         LINE#         2656
  C:39FEH         LINE#         2657
  C:3A00H         LINE#         2659
  C:3A00H         LINE#         2660
  C:3A09H         LINE#         2661
  C:3A09H         LINE#         2662
  C:3A0BH         LINE#         2663
  C:3A13H         LINE#         2664
  C:3A13H         LINE#         2665
  C:3A1CH         LINE#         2666
  C:3A1EH         LINE#         2667
  C:3A26H         LINE#         2668
  C:3A26H         LINE#         2669
  C:3A3CH         LINE#         2670
  C:3A3EH         LINE#         2671
  C:3A46H         LINE#         2672
  C:3A46H         LINE#         2673
  C:3A49H         LINE#         2674
  C:3A4BH         LINE#         2676
  C:3A53H         LINE#         2677
  C:3A53H         LINE#         2678
  C:3A5CH         LINE#         2679
  C:3A5EH         LINE#         2682
  C:3A66H         LINE#         2683
  C:3A66H         LINE#         2684
BL51 BANKED LINKER/LOCATER V6.22.2.0                                                  05/31/2021  13:02:58  PAGE 136


  C:3A6EH         LINE#         2685
  C:3A70H         LINE#         2687
  C:3A70H         LINE#         2688
  C:3A79H         LINE#         2689
  C:3A79H         LINE#         2690
  C:3A7BH         LINE#         2691
  C:3A7BH         LINE#         2692
  C:3A80H         LINE#         2693
  C:3A80H         LINE#         2695
  C:3A80H         LINE#         2696
  C:3A85H         LINE#         2697
  -------         ENDPROC       _SECUENCIAEXPEDIDORMF
  -------         ENDMOD        VERIFICADOR

  -------         MODULE        MONITOR
  C:0000H         SYMBOL        _ICE_DUMMY_
  D:0080H         PUBLIC        P0
  D:0090H         PUBLIC        P1
  I:0011H         PUBLIC        placa
  C:BDA7H         PUBLIC        Rx_Monitor
  B:0080H.0       PUBLIC        rx_ip
  B:0090H.7       PUBLIC        lock
  C:9102H         PUBLIC        _recibe_cmd_Monitor
  C:BF0CH         PUBLIC        clear_placa
  C:94BAH         PUBLIC        _Valida_Trama_Monitor
  -------         PROC          _RECIBE_CMD_MONITOR
  X:0016H         SYMBOL        buffer_cmd
  -------         DO            
  X:0019H         SYMBOL        j
  X:001AH         SYMBOL        NumDatos
  X:001BH         SYMBOL        time_out
  X:001CH         SYMBOL        MaxChrRx
  X:001DH         SYMBOL        contador
  -------         ENDDO         
  C:9102H         LINE#         50
  C:910DH         LINE#         51
  C:910DH         LINE#         55
  C:9112H         LINE#         56
  C:9118H         LINE#         58
  C:9123H         LINE#         59
  C:9123H         LINE#         60
  C:9134H         LINE#         61
  C:9134H         LINE#         62
  C:913BH         LINE#         63
  C:913FH         LINE#         64
  C:9148H         LINE#         65
  C:9148H         LINE#         66
  C:9156H         LINE#         67
  C:916DH         LINE#         68
  C:916DH         LINE#         69
  C:9173H         LINE#         70
  C:9179H         LINE#         71
  C:9179H         LINE#         72
  C:917BH         LINE#         73
  C:9183H         LINE#         74
  C:9189H         LINE#         75
  C:919BH         LINE#         76
BL51 BANKED LINKER/LOCATER V6.22.2.0                                                  05/31/2021  13:02:58  PAGE 137


  C:91A5H         LINE#         77
  C:91AEH         LINE#         79
  C:91BDH         LINE#         82
  C:91BDH         LINE#         83
  C:91C2H         LINE#         84
  -------         ENDPROC       _RECIBE_CMD_MONITOR
  -------         PROC          _VALIDA_TRAMA_MONITOR
  X:0016H         SYMBOL        buffer
  D:0005H         SYMBOL        length_trama
  -------         DO            
  X:0019H         SYMBOL        j
  X:001AH         SYMBOL        p
  X:001BH         SYMBOL        cont
  -------         ENDDO         
  C:94BAH         LINE#         89
  C:94C5H         LINE#         90
  C:94C5H         LINE#         91
  C:94C8H         LINE#         92
  C:94CCH         LINE#         93
  C:94CFH         LINE#         94
  C:94D1H         LINE#         97
  C:94E5H         LINE#         98
  C:94E5H         LINE#         100
  C:94E7H         LINE#         102
  C:94EEH         LINE#         103
  C:94F3H         LINE#         106
  C:94F3H         LINE#         108
  C:950EH         LINE#         109
  C:950EH         LINE#         112
  C:950EH         LINE#         113
  C:952FH         LINE#         114
  C:9533H         LINE#         115
  C:9539H         LINE#         116
  C:954BH         LINE#         117
  C:9563H         LINE#         118
  C:956CH         LINE#         119
  C:956EH         LINE#         120
  C:9574H         LINE#         123
  C:9574H         LINE#         126
  -------         ENDPROC       _VALIDA_TRAMA_MONITOR
  -------         PROC          CLEAR_PLACA
  -------         DO            
  D:0007H         SYMBOL        i
  -------         ENDDO         
  C:BF0CH         LINE#         127
  C:BF0CH         LINE#         128
  C:BF0CH         LINE#         130
  C:BF18H         LINE#         131
  C:BF18H         LINE#         132
  C:BF1EH         LINE#         133
  C:BF21H         LINE#         134
  C:BF23H         LINE#         135
  -------         ENDPROC       CLEAR_PLACA
  -------         PROC          RX_MONITOR
  -------         DO            
  X:0009H         SYMBOL        Length_trama
  X:000AH         SYMBOL        buffer1
BL51 BANKED LINKER/LOCATER V6.22.2.0                                                  05/31/2021  13:02:58  PAGE 138


  -------         ENDDO         
  C:BDA7H         LINE#         136
  C:BDA7H         LINE#         137
  C:BDA7H         LINE#         140
  C:BDB6H         LINE#         141
  C:BDBFH         LINE#         142
  -------         ENDPROC       RX_MONITOR
  -------         ENDMOD        MONITOR

  -------         MODULE        ?C?FPADD
  C:1335H         PUBLIC        ?C?FPADD
  C:1331H         PUBLIC        ?C?FPSUB
  -------         ENDMOD        ?C?FPADD

  -------         MODULE        ?C?FPMUL
  C:1426H         PUBLIC        ?C?FPMUL
  -------         ENDMOD        ?C?FPMUL

  -------         MODULE        ?C?FCAST
  C:1536H         PUBLIC        ?C?FCASTC
  C:1531H         PUBLIC        ?C?FCASTI
  C:152CH         PUBLIC        ?C?FCASTL
  -------         ENDMOD        ?C?FCAST

  -------         MODULE        ?C?CASTF
  C:156AH         PUBLIC        ?C?CASTF
  -------         ENDMOD        ?C?CASTF

  -------         MODULE        PRINTF
  X:0077H         PUBLIC        ?_PRINTF?BYTE
  X:0077H         PUBLIC        ?_SPRINTF?BYTE
  C:3AF1H         PUBLIC        _PRINTF
  C:3AEBH         PUBLIC        _SPRINTF
  -------         ENDMOD        PRINTF

  -------         MODULE        POW
  X:0020H         PUBLIC        ?_pow?BYTE
  C:67EEH         PUBLIC        _pow
  -------         ENDMOD        POW

  -------         MODULE        ?C?CHKFLOAT
  C:15EBH         PUBLIC        ?C?CHKFLOAT
  -------         ENDMOD        ?C?CHKFLOAT

  -------         MODULE        ?C?FPCMP
  C:1607H         PUBLIC        ?C?FPCMP
  C:1605H         PUBLIC        ?C?FPCMP3
  -------         ENDMOD        ?C?FPCMP

  -------         MODULE        ?C?FPNEG
  C:167EH         PUBLIC        ?C?FPNEG
  -------         ENDMOD        ?C?FPNEG

  -------         MODULE        ?C?FPROUND
  C:168FH         PUBLIC        ?C?FPROUND
  -------         ENDMOD        ?C?FPROUND

BL51 BANKED LINKER/LOCATER V6.22.2.0                                                  05/31/2021  13:02:58  PAGE 139


  -------         MODULE        ?C?FPCONVERT
  C:16CCH         PUBLIC        ?C?FPCONVERT
  -------         ENDMOD        ?C?FPCONVERT

  -------         MODULE        EXP
  C:9EE7H         PUBLIC        _EXP
  -------         ENDMOD        EXP

  -------         MODULE        LOG
  C:736CH         PUBLIC        _LOG
  C:7368H         PUBLIC        _LOG10
  -------         ENDMOD        LOG

  -------         MODULE        ?C?FPDIV
  C:17D4H         PUBLIC        ?C?FPDIV
  -------         ENDMOD        ?C?FPDIV

  -------         MODULE        ?C?FTNPWR
  C:18A1H         PUBLIC        ?C?FTNPWR
  -------         ENDMOD        ?C?FTNPWR

  -------         MODULE        ?C?COPY
  C:19FEH         PUBLIC        ?C?COPY
  -------         ENDMOD        ?C?COPY

  -------         MODULE        ?C?CLDPTR
  C:1A24H         PUBLIC        ?C?CLDPTR
  -------         ENDMOD        ?C?CLDPTR

  -------         MODULE        ?C?CLDOPTR
  C:1A3DH         PUBLIC        ?C?CLDOPTR
  -------         ENDMOD        ?C?CLDOPTR

  -------         MODULE        ?C?CSTPTR
  C:1A6AH         PUBLIC        ?C?CSTPTR
  -------         ENDMOD        ?C?CSTPTR

  -------         MODULE        ?C?CSTOPTR
  C:1A7CH         PUBLIC        ?C?CSTOPTR
  -------         ENDMOD        ?C?CSTOPTR

  -------         MODULE        ?C?IMUL
  C:1A9EH         PUBLIC        ?C?IMUL
  -------         ENDMOD        ?C?IMUL

  -------         MODULE        ?C?IILDX
  C:1AB0H         PUBLIC        ?C?IILDX
  -------         ENDMOD        ?C?IILDX

  -------         MODULE        ?C?LNEG
  C:1AC6H         PUBLIC        ?C?LNEG
  -------         ENDMOD        ?C?LNEG

  -------         MODULE        ?C?SLCMP
  C:1AD4H         PUBLIC        ?C?SLCMP
  -------         ENDMOD        ?C?SLCMP

BL51 BANKED LINKER/LOCATER V6.22.2.0                                                  05/31/2021  13:02:58  PAGE 140


  -------         MODULE        ?C?ULCMP
  C:1AEAH         PUBLIC        ?C?ULCMP
  -------         ENDMOD        ?C?ULCMP

  -------         MODULE        ?C?ULSHR
  C:1AFBH         PUBLIC        ?C?ULSHR
  -------         ENDMOD        ?C?ULSHR

  -------         MODULE        ?C?LSHL
  C:1B0EH         PUBLIC        ?C?LSHL
  -------         ENDMOD        ?C?LSHL

  -------         MODULE        ?C?LLDCODE
  C:1B21H         PUBLIC        ?C?LLDCODE
  -------         ENDMOD        ?C?LLDCODE

  -------         MODULE        ?C?LLDXDATA0
  C:1B31H         PUBLIC        ?C?LLDXDATA0
  -------         ENDMOD        ?C?LLDXDATA0

  -------         MODULE        ?C?LLDCODE0
  C:1B3DH         PUBLIC        ?C?LLDCODE0
  -------         ENDMOD        ?C?LLDCODE0

  -------         MODULE        ?C?LSTXDATA
  C:1B4DH         PUBLIC        ?C?LSTXDATA
  -------         ENDMOD        ?C?LSTXDATA

  -------         MODULE        ?C?LSTKXDATA
  C:1B59H         PUBLIC        ?C?LSTKXDATA
  -------         ENDMOD        ?C?LSTKXDATA

  -------         MODULE        ?C?PLDIXDATA
  C:1B8AH         PUBLIC        ?C?PLDIXDATA
  -------         ENDMOD        ?C?PLDIXDATA

  -------         MODULE        ?C?PSTXDATA
  C:1BA1H         PUBLIC        ?C?PSTXDATA
  -------         ENDMOD        ?C?PSTXDATA

  -------         MODULE        ?C?CCASE
  C:1BAAH         PUBLIC        ?C?CCASE
  -------         ENDMOD        ?C?CCASE

  -------         MODULE        STRCAT
  X:0046H         PUBLIC        ?_strcat?BYTE
  C:AFD6H         PUBLIC        _strcat
  -------         ENDMOD        STRCAT

  -------         MODULE        ?C?STRCMP
  C:1D4EH         PUBLIC        ?C?STRCMP
  -------         ENDMOD        ?C?STRCMP

  -------         MODULE        ?C?STRCPY
  C:1E37H         PUBLIC        ?C?STRCPY
  -------         ENDMOD        ?C?STRCPY

BL51 BANKED LINKER/LOCATER V6.22.2.0                                                  05/31/2021  13:02:58  PAGE 141


  -------         MODULE        STRLEN
  C:000EH         PUBLIC        _STRLEN
  -------         ENDMOD        STRLEN

  -------         MODULE        STRTOK
  X:0064H         PUBLIC        ?_strtok?BYTE
  C:85AEH         PUBLIC        _strtok
  -------         ENDMOD        STRTOK

  -------         MODULE        ATOL
  C:79E0H         PUBLIC        _atol
  -------         ENDMOD        ATOL

  -------         MODULE        ATOI
  C:8770H         PUBLIC        _atoi
  -------         ENDMOD        ATOI

  -------         MODULE        ?C?ILDIX
  C:1E54H         PUBLIC        ?C?ILDIX
  -------         ENDMOD        ?C?ILDIX

  -------         MODULE        ?C?LMUL
  C:1E6AH         PUBLIC        ?C?LMUL
  -------         ENDMOD        ?C?LMUL

  -------         MODULE        ISDIGIT
  C:C01CH         PUBLIC        _isdigit
  -------         ENDMOD        ISDIGIT

  -------         MODULE        ISSPACE
  C:BF7CH         PUBLIC        _isspace
  -------         ENDMOD        ISSPACE

  -------         MODULE        STRSPN
  X:006AH         PUBLIC        ?_strspn?BYTE
  C:A8B4H         PUBLIC        _strspn
  -------         ENDMOD        STRSPN

  -------         MODULE        STRPBRK
  X:006AH         PUBLIC        ?_strpbrk?BYTE
  C:A9BBH         PUBLIC        _strpbrk
  -------         ENDMOD        STRPBRK

Program Size: data=99.1 xdata=538 code=49326
LINK/LOCATE RUN COMPLETE.  0 WARNING(S),  0 ERROR(S)
