BL51 BANKED LINKER/LOCATER V6.22.2.0                                                    06/04/2021  16:31:58  PAGE 1


BL51 BANKED LINKER/LOCATER V6.22.2.0, INVOKED BY:
C:\KEIL_V5\C51\BIN\BL51.EXE .\Objects\main.obj, .\Objects\Accescan.obj, .\Objects\Clock.obj, .\Objects\delay.obj, .\Obje
>> cts\eeprom.obj, .\Objects\io_sensores.obj, .\Objects\pantallas.obj, .\Objects\prog.obj, .\Objects\pto_paralelo.obj, .
>> \Objects\tibbo.obj, .\Objects\uart.obj, .\Objects\lintech.obj, .\Objects\verificador.obj, .\Objects\Monitor.obj TO .\
>> Objects\expedidor_v_01_raspberry PRINT (.\Listings\expedidor_v_01_raspberry.m51) RAMSIZE (256)


MEMORY MODEL: LARGE WITH FLOATING POINT ARITHMETIC


INPUT MODULES INCLUDED:
  .\Objects\main.obj (MAIN)
  .\Objects\Accescan.obj (ACCESCAN)
  .\Objects\Clock.obj (CLOCK)
  .\Objects\delay.obj (DELAY)
  .\Objects\eeprom.obj (EEPROM)
  .\Objects\io_sensores.obj (IO_SENSORES)
  .\Objects\pantallas.obj (PANTALLAS)
  .\Objects\prog.obj (PROG)
  .\Objects\pto_paralelo.obj (PTO_PARALELO)
  .\Objects\tibbo.obj (TIBBO)
  .\Objects\uart.obj (UART)
  .\Objects\lintech.obj (LINTECH)
  .\Objects\verificador.obj (VERIFICADOR)
  .\Objects\Monitor.obj (MONITOR)
  C:\KEIL_V5\C51\LIB\C51FPL.LIB (?C?FPADD)
  C:\KEIL_V5\C51\LIB\C51FPL.LIB (?C?FPMUL)
  C:\KEIL_V5\C51\LIB\C51FPL.LIB (?C?FCAST)
  C:\KEIL_V5\C51\LIB\C51FPL.LIB (?C?CASTF)
  C:\KEIL_V5\C51\LIB\C51FPL.LIB (PRINTF)
  C:\KEIL_V5\C51\LIB\C51FPL.LIB (POW)
  C:\KEIL_V5\C51\LIB\C51FPL.LIB (?C?FPGETOPN)
  C:\KEIL_V5\C51\LIB\C51FPL.LIB (?C?CHKFLOAT)
  C:\KEIL_V5\C51\LIB\C51FPL.LIB (?C?FPCMP)
  C:\KEIL_V5\C51\LIB\C51FPL.LIB (?C?FPNEG)
  C:\KEIL_V5\C51\LIB\C51FPL.LIB (?C?FPROUND)
  C:\KEIL_V5\C51\LIB\C51FPL.LIB (?C?FPCONVERT)
  C:\KEIL_V5\C51\LIB\C51FPL.LIB (EXP)
  C:\KEIL_V5\C51\LIB\C51FPL.LIB (LOG)
  C:\KEIL_V5\C51\LIB\C51FPL.LIB (?C?FPDIV)
  C:\KEIL_V5\C51\LIB\C51FPL.LIB (?C?FTNPWR)
  C:\KEIL_V5\C51\LIB\C51FPL.LIB (?C?FPSERIES)
  C:\KEIL_V5\C51\LIB\C51L.LIB (?C_STARTUP)
  C:\KEIL_V5\C51\LIB\C51L.LIB (?C?COPY)
  C:\KEIL_V5\C51\LIB\C51L.LIB (?C?CLDPTR)
  C:\KEIL_V5\C51\LIB\C51L.LIB (?C?CLDOPTR)
  C:\KEIL_V5\C51\LIB\C51L.LIB (?C?CSTPTR)
  C:\KEIL_V5\C51\LIB\C51L.LIB (?C?CSTOPTR)
  C:\KEIL_V5\C51\LIB\C51L.LIB (?C?IMUL)
  C:\KEIL_V5\C51\LIB\C51L.LIB (?C?IILDX)
  C:\KEIL_V5\C51\LIB\C51L.LIB (?C?LNEG)
  C:\KEIL_V5\C51\LIB\C51L.LIB (?C?SLCMP)
  C:\KEIL_V5\C51\LIB\C51L.LIB (?C?ULCMP)
  C:\KEIL_V5\C51\LIB\C51L.LIB (?C?ULSHR)
  C:\KEIL_V5\C51\LIB\C51L.LIB (?C?LSHL)
  C:\KEIL_V5\C51\LIB\C51L.LIB (?C?LLDCODE)
  C:\KEIL_V5\C51\LIB\C51L.LIB (?C?LLDXDATA0)
  C:\KEIL_V5\C51\LIB\C51L.LIB (?C?LLDCODE0)
BL51 BANKED LINKER/LOCATER V6.22.2.0                                                  06/04/2021  16:31:58  PAGE 2


  C:\KEIL_V5\C51\LIB\C51L.LIB (?C?LSTXDATA)
  C:\KEIL_V5\C51\LIB\C51L.LIB (?C?LSTKXDATA)
  C:\KEIL_V5\C51\LIB\C51L.LIB (?C?PLDIXDATA)
  C:\KEIL_V5\C51\LIB\C51L.LIB (?C?PSTXDATA)
  C:\KEIL_V5\C51\LIB\C51L.LIB (?C?CCASE)
  C:\KEIL_V5\C51\LIB\C51L.LIB (STRCAT)
  C:\KEIL_V5\C51\LIB\C51L.LIB (?C?STRCMP)
  C:\KEIL_V5\C51\LIB\C51L.LIB (?C?STRCPY)
  C:\KEIL_V5\C51\LIB\C51L.LIB (STRLEN)
  C:\KEIL_V5\C51\LIB\C51L.LIB (STRTOK)
  C:\KEIL_V5\C51\LIB\C51L.LIB (ATOL)
  C:\KEIL_V5\C51\LIB\C51L.LIB (ATOI)
  C:\KEIL_V5\C51\LIB\C51L.LIB (?C_INIT)
  C:\KEIL_V5\C51\LIB\C51L.LIB (?C?ILDIX)
  C:\KEIL_V5\C51\LIB\C51L.LIB (?C?LMUL)
  C:\KEIL_V5\C51\LIB\C51L.LIB (ISDIGIT)
  C:\KEIL_V5\C51\LIB\C51L.LIB (ISSPACE)
  C:\KEIL_V5\C51\LIB\C51L.LIB (STRSPN)
  C:\KEIL_V5\C51\LIB\C51L.LIB (STRPBRK)


LINK MAP OF MODULE:  .\Objects\expedidor_v_01_raspberry (MAIN)


            TYPE    BASE      LENGTH    RELOCATION   SEGMENT NAME
            -----------------------------------------------------

            * * * * * * *   D A T A   M E M O R Y   * * * * * * *
            REG     0000H     0008H     ABSOLUTE     "REG BANK 0"
            DATA    0008H     0005H     UNIT         _DATA_GROUP_
            DATA    000DH     0004H     UNIT         ?DT?UART
            IDATA   0011H     0009H     UNIT         ?ID?MONITOR
                    001AH     0006H                  *** GAP ***
            BIT     0020H.0   0001H.1   UNIT         _BIT_GROUP_
            BIT     0021H.1   0000H.3   UNIT         ?BI?MAIN
            BIT     0021H.4   0000H.2   UNIT         ?BI?UART
            BIT     0021H.6   0000H.1   UNIT         ?BI?EEPROM
            BIT     0021H.7   0000H.1   UNIT         ?BI?IO_SENSORES
            BIT     0022H.0   0000H.1   UNIT         ?BI?VERIFICADOR
                    0022H.1   0000H.7                *** GAP ***
            IDATA   0023H     0046H     UNIT         ?ID?MAIN
            IDATA   0069H     0001H     UNIT         ?STACK

            * * * * * * *  X D A T A   M E M O R Y  * * * * * * *
            XDATA   0000H     00B7H     UNIT         _XDATA_GROUP_
            XDATA   00B7H     0091H     UNIT         ?XD?VERIFICADOR
            XDATA   0148H     006CH     UNIT         ?XD?MAIN
            XDATA   01B4H     0059H     UNIT         ?XD?PROG
            XDATA   020DH     0025H     UNIT         ?XD?_WR_MF?LINTECH
            XDATA   0232H     0016H     UNIT         ?XD?CLAVE_SEGURIDAD_S2?LINTECH
            XDATA   0248H     0016H     UNIT         ?XD?DWLOAD_EEPROM?LINTECH
            XDATA   025EH     0016H     UNIT         ?XD?_RESPONDE_LECTURA_TARJETA_SECTOR1_BLOQUE1?VERIFICADOR
            XDATA   0274H     0015H     UNIT         ?XD?_ANALIZA_UID_CARD?VERIFICADOR
            XDATA   0289H     0015H     UNIT         ?XD?_RESPONDE_LECTURA_TARJETA_SECTOR1_BLOQUE2?VERIFICADOR
            XDATA   029EH     0013H     UNIT         ?XD?_HORARIOS?VERIFICADOR
            XDATA   02B1H     0012H     UNIT         ?XD?_RD_MF?LINTECH
            XDATA   02C3H     0012H     UNIT         ?XD?_ARMAR_TRAMA_PTO_PARALELO_EXPEDIDOR?VERIFICADOR
BL51 BANKED LINKER/LOCATER V6.22.2.0                                                  06/04/2021  16:31:58  PAGE 3


            XDATA   02D5H     0010H     UNIT         ?XD?LOADVERIFY_EEPROM?LINTECH
            XDATA   02E5H     000FH     UNIT         ?XD?_ARMAR_TRAMA_MONITOR?VERIFICADOR
            XDATA   02F4H     000CH     UNIT         ?XD?_INICIALIZA?LINTECH
            XDATA   0300H     000CH     UNIT         ?XD?_MOV_CARD?LINTECH
            XDATA   030CH     000BH     UNIT         ?XD?INCREMENTE_TICKET?EEPROM
            XDATA   0317H     000BH     UNIT         ?XD?_CHECK_STATUS?LINTECH
            XDATA   0322H     000BH     UNIT         ?XD?AUT_CARD_CHECK_STATUS?LINTECH
            XDATA   032DH     000BH     UNIT         ?XD?UNIQUE_IDENTIFIER_UID?LINTECH
            XDATA   0338H     000BH     UNIT         ?XD?POWER_OFF?LINTECH
            XDATA   0343H     000AH     UNIT         ?XD?_CARD_INSERCION?LINTECH
            XDATA   034DH     000AH     UNIT         ?XD?_RESPONDE_REELECTURA_TARJETA_SECTOR1_BLOQUE2?VERIFICADOR
            XDATA   0357H     000AH     UNIT         ?XD?_RESPUESTA_PLACA_CANCEL?VERIFICADOR
            XDATA   0361H     0009H     UNIT         ?XD?_LOAD_SECUENCIA_EXPEDIDOR?VERIFICADOR
            XDATA   036AH     0008H     UNIT         ?XD?_HORA_MAXIMA?VERIFICADOR
            XDATA   0372H     0007H     UNIT         ?XD?_RESPONDE_WRITE_TARJETA_SECTOR1_BLOQUE2?VERIFICADOR
            XDATA   0379H     0007H     UNIT         ?XD?_SEND_PTO_PARALELO?VERIFICADOR
            XDATA   0380H     0007H     UNIT         ?XD?_WAIT_PLACA?VERIFICADOR
            XDATA   0387H     0007H     UNIT         ?XD?_TARJETA_MENSUAL?VERIFICADOR
            XDATA   038EH     0007H     UNIT         ?XD?_VALIDA_TIPO_TARJETA?VERIFICADOR
            XDATA   0395H     0007H     UNIT         ?XD?_BLOQUE_HORARIO?VERIFICADOR
            XDATA   039CH     0006H     UNIT         ?XD?_ESCRIBIRCADENASOFT_BUFFER?MAIN
            XDATA   03A2H     0006H     UNIT         ?XD?_SEND_PORTERR?PTO_PARALELO
            XDATA   03A8H     0006H     UNIT         ?XD?_RESPUESTA_SEGUNDA_CLAVE?VERIFICADOR
            XDATA   03AEH     0006H     UNIT         ?XD?_ARMAR_TRAMA_TARJETA_SECTOR1_BLOQUE2?VERIFICADOR
            XDATA   03B4H     0006H     UNIT         ?XD?_ARMAR_TRAMA_PTO_PARALELO_EXPEDIDOR_MENSUAL?VERIFICADOR
            XDATA   03BAH     0006H     UNIT         ?XD?_TARJETA_ROTACION?VERIFICADOR
            XDATA   03C0H     0005H     UNIT         ?XD?_RTA_CMD_TRANSPORTE?VERIFICADOR
            XDATA   03C5H     0005H     UNIT         ?XD?_EN_HORARIO?VERIFICADOR
            XDATA   03CAH     0004H     UNIT         ?XD?_RESPONDE_LECTURA_TARJETA_SECTOR1_BLOQUE0?VERIFICADOR
            XDATA   03CEH     0004H     UNIT         ?XD?_ARMAR_TRAMA_TARJETA_SECTOR1_BLOQUE1_CAMCEL?VERIFICADOR
            XDATA   03D2H     0004H     UNIT         ?XD?_DISPARO_LOCK_ENTRADA_VEHICULO?VERIFICADOR
            XDATA   03D6H     0004H     UNIT         ?XD?_VALIDA_VEHICULO_CARD_MENSUAL?VERIFICADOR
            XDATA   03DAH     0003H     UNIT         ?XD?_HORA_ENTRADA_VEHICULO?CLOCK
            XDATA   03DDH     0003H     UNIT         ?XD?EEPROM
            XDATA   03E0H     0003H     UNIT         ?XD?UART
            XDATA   03E3H     0003H     UNIT         ?XD?_RESPONDE_WRITE_TARJETA_SECTOR1_BLOQUE1?VERIFICADOR
            XDATA   03E6H     0003H     UNIT         ?XD?_RESPONDE_WRITE_TARJETA_SECTOR1_BLOQUE0?VERIFICADOR
            XDATA   03E9H     0003H     UNIT         ?XD?_RESPONDE_WRITE_TARJETA_SECTOR2_BLOQUE0?VERIFICADOR
            XDATA   03ECH     0003H     UNIT         ?XD?_PREGUNTA_LPR?VERIFICADOR
            XDATA   03EFH     0003H     UNIT         ?XD?_ARMAR_TRAMA_TARJETA_SECTOR1_BLOQUE0?VERIFICADOR
            XDATA   03F2H     0003H     UNIT         ?XD?_ARMAR_TRAMA_PLACA?VERIFICADOR
            XDATA   03F5H     0003H     UNIT         ?XD?STRTOK
            XDATA   03F8H     0002H     UNIT         ?XD?IO_SENSORES
            XDATA   03FAH     0002H     UNIT         ?XD?_DEBUG_HEXDEC?TIBBO
            XDATA   03FCH     0001H     UNIT         ?XD?ACCESCAN
            XDATA   03FDH     0001H     UNIT         ?XD?CLOCK
            XDATA   03FEH     0001H     UNIT         ?XD?ERROR_RX_PTO?VERIFICADOR
            XDATA   03FFH     0001H     UNIT         ?XD?ANALIZA_PRESENCIA_MENSUAL?VERIFICADOR
            XDATA   0400H     0001H     UNIT         ?XD?ANALIZA_CARD_MOUNT_RF?VERIFICADOR
            XDATA   0401H     0001H     UNIT         ?XD?ANALIZA_PRESENCIA_ROTACION?VERIFICADOR
            XDATA   0402H     0001H     UNIT         ?XD?RESPONDE_ESTADO_SENSORES_TRANSPORTE?VERIFICADOR
            XDATA   0403H     0001H     UNIT         ?XD?RESPONDE_TIPO_TARJETA?VERIFICADOR
            XDATA   0404H     0001H     UNIT         ?XD?PREGUNTA_PLACA?VERIFICADOR
            XDATA   0405H     0001H     UNIT         ?XD?ENTREGA_CARD_CAPTURA?VERIFICADOR
            XDATA   0406H     0001H     UNIT         ?XD?SECUENCIA_INICIO_EXPEDIDOR?VERIFICADOR
            XDATA   0407H     0001H     UNIT         ?XD?_SECUENCIAEXPEDIDORMF?VERIFICADOR

BL51 BANKED LINKER/LOCATER V6.22.2.0                                                  06/04/2021  16:31:58  PAGE 4


            * * * * * * *   C O D E   M E M O R Y   * * * * * * *
            CODE    0000H     0003H     ABSOLUTE     
            CODE    0003H     0008H     UNIT         ?PR?P_CK?CLOCK
            CODE    000BH     0003H     ABSOLUTE     
            CODE    000EH     0015H     UNIT         ?PR?_STRLEN?STRLEN
            CODE    0023H     0003H     ABSOLUTE     
            CODE    0026H     1308H     UNIT         ?CO?PROG
            CODE    132EH     0B8BH     UNIT         ?C?LIB_CODE
            CODE    1EB9H     08BDH     UNIT         ?CO?VERIFICADOR
            CODE    2776H     0747H     UNIT         ?PR?_PANTALLALCD?PANTALLAS
            CODE    2EBDH     06EFH     UNIT         ?CO?PANTALLAS
            CODE    35ACH     0524H     UNIT         ?PR?_VALIDA_TRAMA_PTO?ACCESCAN
            CODE    3AD0H     04DAH     UNIT         ?PR?_SECUENCIAEXPEDIDORMF?VERIFICADOR
            CODE    3FAAH     0483H     UNIT         ?PR?PRINTF?PRINTF
            CODE    442DH     035CH     UNIT         ?PR?VER_PROG?PROG
            CODE    4789H     02D0H     UNIT         ?PR?_TWO_BYTEHEX_DECIMAL?CLOCK
            CODE    4A59H     02B7H     UNIT         ?PR?_PROG_HORARIO_DIAS?PROG
            CODE    4D10H     02A5H     UNIT         ?PR?_PANTALLALCD_LINEA_2?PANTALLAS
            CODE    4FB5H     02A3H     UNIT         ?PR?_ARMAR_TRAMA_MONITOR?VERIFICADOR
            CODE    5258H     0256H     UNIT         ?PR?_ARMAR_TRAMA_PTO_PARALELO_EXPEDIDOR?VERIFICADOR
            CODE    54AEH     022CH     UNIT         ?PR?MENU?PROG
            CODE    56DAH     0208H     UNIT         ?PR?_HASH_ID?PROG
            CODE    58E2H     01FAH     UNIT         ?PR?_PROG_HORARIO_DESDE_HASTA?PROG
            CODE    5ADCH     01F5H     UNIT         ?PR?PROG_FECHA_VENCIMIENTO?PROG
            CODE    5CD1H     01EBH     UNIT         ?PR?_ARMAR_TRAMA_TARJETA_SECTOR1_BLOQUE2?VERIFICADOR
            CODE    5EBCH     01DFH     UNIT         ?PR?_RESPONDE_LECTURA_TARJETA_SECTOR1_BLOQUE1?VERIFICADOR
            CODE    609BH     01D8H     UNIT         ?PR?_BLOCK_READ_CLOCK_ASCII_RASBERRY?CLOCK
            CODE    6273H     01B3H     UNIT         ?PR?COM_ISR?UART
            CODE    6426H     01A4H     UNIT         ?PR?_VALIDA_TIPO_TARJETA?VERIFICADOR
            CODE    65CAH     01A3H     UNIT         ?CO?LINTECH
            CODE    676DH     016EH     UNIT         ?PR?_BLOCK_READ_CLOCK_ASCII?CLOCK
            CODE    68DBH     0166H     UNIT         ?PR?_POW?POW
            CODE    6A41H     0157H     UNIT         ?PR?_RESPONDE_REELECTURA_TARJETA_SECTOR1_BLOQUE2?VERIFICADOR
            CODE    6B98H     0145H     UNIT         ?PR?PROG_HORARIOS?PROG
            CODE    6CDDH     013EH     UNIT         ?PR?PROG_SIN_COBRO?PROG
            CODE    6E1BH     013EH     UNIT         ?PR?SECUENCIA_INICIO_EXPEDIDOR?VERIFICADOR
            CODE    6F59H     013CH     UNIT         ?PR?LOAD_AND_SEND_ID_COD?PTO_PARALELO
            CODE    7095H     0137H     UNIT         ?PR?VER_HORARIO?PROG
            CODE    71CCH     012EH     UNIT         ?PR?_ARMAR_TRAMA_PTO_PARALELO_EXPEDIDOR_MENSUAL?VERIFICADOR
            CODE    72FAH     012BH     UNIT         ?PR?_RESPONDE_LECTURA_TARJETA_SECTOR1_BLOQUE2?VERIFICADOR
            CODE    7425H     0129H     UNIT         ?PR?LOG?LOG
            CODE    754EH     0128H     UNIT         ?PR?_VER_HORARIO_DIAS?PROG
            CODE    7676H     011AH     UNIT         ?PR?_PROG_HORARIOS_ON_OFF?PROG
            CODE    7790H     0119H     UNIT         ?PR?_VER_HORARIO_DESDE_HASTA?PROG
            CODE    78A9H     0115H     UNIT         ?PR?_VALIDAR_CLK?CLOCK
            CODE    79BEH     010FH     UNIT         ?PR?_HORARIOS?VERIFICADOR
            CODE    7ACDH     010CH     UNIT         ?PR?_ATOL?ATOL
            CODE    7BD9H     0103H     UNIT         ?PR?_BLOQUE_HORARIO?VERIFICADOR
            CODE    7CDCH     0100H     UNIT         ?PR?_WR_MF?LINTECH
            CODE    7DDCH     00FCH     UNIT         ?PR?PROG_DEBUG?PROG
            CODE    7ED8H     00FCH     UNIT         ?PR?PROG_USE_LPR?PROG
            CODE    7FD4H     00FCH     UNIT         ?PR?TIPO_PANTALLA?PROG
            CODE    80D0H     00FCH     UNIT         ?PR?PROG_ANTIPASSBACK?PROG
            CODE    81CCH     00FCH     UNIT         ?PR?PROG_PLACA?PROG
            CODE    82C8H     00FCH     UNIT         ?PR?PROG_VALIDAR_TIPO_VEHICULO_MENSUAL?PROG
            CODE    83C4H     00FCH     UNIT         ?PR?PROG_APB_MENSUAL?PROG
            CODE    84C0H     00F1H     UNIT         ?PR?_WRITE_EEPROM_TICKET?EEPROM
BL51 BANKED LINKER/LOCATER V6.22.2.0                                                  06/04/2021  16:31:58  PAGE 5


            CODE    85B1H     00EAH     UNIT         ?PR?_MOV_CARD?LINTECH
            CODE    869BH     00E4H     UNIT         ?PR?_STRTOK?STRTOK
            CODE    877FH     00DEH     UNIT         ?PR?PROG_ADDRESS_HIGH_BOARD?PROG
            CODE    885DH     00DBH     UNIT         ?PR?_ATOI?ATOI
            CODE    8938H     00D7H     UNIT         ?PR?_ANALIZA_UID_CARD?VERIFICADOR
            CODE    8A0FH     00D6H     UNIT         ?PR?_CMD_LPR_SALIDA_WIEGAND?ACCESCAN
            CODE    8AE5H     00D3H     UNIT         ?C_INITSEG
            CODE    8BB8H     00CCH     UNIT         ?PR?_GRABA_SERIE?EEPROM
            CODE    8C84H     00CBH     UNIT         ?PR?_RTA_CMD_TRANSPORTE?VERIFICADOR
            CODE    8D4FH     00CAH     UNIT         ?PR?READ_EEPROM_TICKET?EEPROM
            CODE    8E19H     00C9H     UNIT         ?PR?_CHECK_FECHAOUT?CLOCK
            CODE    8EE2H     00C4H     UNIT         ?PR?_BLOCK_READ_CLOCK?CLOCK
            CODE    8FA6H     00C4H     UNIT         ?PR?_TARJETA_MENSUAL?VERIFICADOR
            CODE    906AH     00C3H     UNIT         ?PR?_RD_MF?LINTECH
            CODE    912DH     00C2H     UNIT         ?PR?PROG_TARJETA_AUTOMATICA_O_BOTON?PROG
            CODE    91EFH     00C1H     UNIT         ?PR?_RECIBE_CMD_MONITOR?MONITOR
            CODE    92B0H     00BFH     UNIT         ?CO?IO_SENSORES
            CODE    936FH     00BEH     UNIT         ?PR?ERROR_RX_PTO?VERIFICADOR
            CODE    942DH     00BDH     UNIT         ?PR?PROG_COD_PARK?PROG
            CODE    94EAH     00BDH     UNIT         ?PR?PROG_TIEMPO_GRACIA?PROG
            CODE    95A7H     00BBH     UNIT         ?PR?_VALIDA_TRAMA_MONITOR?MONITOR
            CODE    9662H     00B9H     UNIT         ?CO?TIBBO
            CODE    971BH     00B6H     UNIT         ?PR?PROG_ID_CLIENTE?PROG
            CODE    97D1H     00B5H     UNIT         ?PR?_WAIT_PLACA?VERIFICADOR
            CODE    9886H     00B4H     UNIT         ?PR?_SEND_PORT?PTO_PARALELO
            CODE    993AH     00ACH     UNIT         ?PR?_HORA_MAXIMA?VERIFICADOR
            CODE    99E6H     00AAH     UNIT         ?PR?CLAVE_SEGURIDAD_S2?LINTECH
            CODE    9A90H     00A9H     UNIT         ?PR?DWLOAD_EEPROM?LINTECH
            CODE    9B39H     00A6H     UNIT         ?PR?_BLOCK_READ_CLOCK_HEX?CLOCK
            CODE    9BDFH     00A5H     UNIT         ?PR?_SEND_PTO_PARALELO?VERIFICADOR
            CODE    9C84H     00A4H     UNIT         ?PR?_ARMAR_TRAMA_TARJETA_SECTOR1_BLOQUE1_CAMCEL?VERIFICADOR
            CODE    9D28H     00A1H     UNIT         ?PR?_BLOCK_WRITE_CLOCK_ASCII?CLOCK
            CODE    9DC9H     009DH     UNIT         ?PR?_INICIALIZA?LINTECH
            CODE    9E66H     009CH     UNIT         ?PR?_RESPUESTA_PLACA_CANCEL?VERIFICADOR
            CODE    9F02H     009AH     UNIT         ?PR?_RESPONDE_LECTURA_TARJETA_SECTOR1_BLOQUE0?VERIFICADOR
            CODE    9F9CH     009AH     UNIT         ?PR?EXP?EXP
            CODE    A036H     0099H     UNIT         ?PR?SHOW?PROG
            CODE    A0CFH     0099H     UNIT         ?PR?_RECIBE_PORT?PTO_PARALELO
            CODE    A168H     0098H     UNIT         ?PR?_VALIDA_VEHICULO_CARD_MENSUAL?VERIFICADOR
            CODE    A200H     0091H     UNIT         ?PR?_HEX_ASCII?CLOCK
            CODE    A291H     0091H     UNIT         ?PR?_CARD_INSERCION?LINTECH
            CODE    A322H     0090H     UNIT         ?PR?_LEE_CLK?CLOCK
            CODE    A3B2H     0090H     UNIT         ?PR?_GETOPTION?PROG
            CODE    A442H     0090H     UNIT         ?PR?_DISPARO_LOCK_ENTRADA_VEHICULO?VERIFICADOR
            CODE    A4D2H     0090H     UNIT         ?PR?ENTREGA_CARD_CAPTURA?VERIFICADOR
            CODE    A562H     008DH     UNIT         ?PR?LOADVERIFY_EEPROM?LINTECH
            CODE    A5EFH     008CH     UNIT         ?C_C51STARTUP
            CODE    A67BH     0088H     UNIT         ?PR?_SEND_PORTERR?PTO_PARALELO
            CODE    A703H     0088H     UNIT         ?PR?RX_DATA?TIBBO
            CODE    A78BH     0088H     UNIT         ?PR?UNIQUE_IDENTIFIER_UID?LINTECH
            CODE    A813H     0086H     UNIT         ?PR?_CHECK_STATUS?LINTECH
            CODE    A899H     0084H     UNIT         ?PR?MSJ_LCD_INFORMATIVO?IO_SENSORES
            CODE    A91DH     0084H     UNIT         ?PR?_DEBUGBUFFERMF?TIBBO
            CODE    A9A1H     0084H     UNIT         ?PR?_STRSPN?STRSPN
            CODE    AA25H     0083H     UNIT         ?PR?_RASPBERRY_DATA?PANTALLAS
            CODE    AAA8H     0081H     UNIT         ?PR?_STRPBRK?STRPBRK
            CODE    AB29H     0080H     UNIT         ?PR?_INGRESADATO?PROG
BL51 BANKED LINKER/LOCATER V6.22.2.0                                                  06/04/2021  16:31:58  PAGE 6


            CODE    ABA9H     0080H     UNIT         ?PR?AUT_CARD_CHECK_STATUS?LINTECH
            CODE    AC29H     0080H     UNIT         ?PR?POWER_OFF?LINTECH
            CODE    ACA9H     007DH     UNIT         ?PR?RELOJ_PANTALLA_LCD?PANTALLAS
            CODE    AD26H     007CH     UNIT         ?PR?RESPONDE_ESTADO_SENSORES_TRANSPORTE?VERIFICADOR
            CODE    ADA2H     0077H     UNIT         ?PR?RESPONDE_TIPO_TARJETA?VERIFICADOR
            CODE    AE19H     0074H     UNIT         ?PR?_HORA_ENTRADA_VEHICULO?CLOCK
            CODE    AE8DH     0071H     UNIT         ?PR?_EN_HORARIO?VERIFICADOR
            CODE    AEFEH     006FH     UNIT         ?PR?_ESCRIBIRMEMORIA?EEPROM
            CODE    AF6DH     006CH     UNIT         ?PR?MAIN?MAIN
            CODE    AFD9H     006CH     UNIT         ?PR?_RESPONDE_WRITE_TARJETA_SECTOR1_BLOQUE2?VERIFICADOR
            CODE    B045H     006BH     UNIT         ?PR?INGRESO_VEHICULO?VERIFICADOR
            CODE    B0B0H     006BH     UNIT         ?PR?_STRCAT?STRCAT
            CODE    B11BH     0066H     UNIT         ?PR?_LEERMEMORIA?EEPROM
            CODE    B181H     0062H     UNIT         ?PR?_LISTACOMANDOS?PROG
            CODE    B1E3H     005EH     UNIT         ?PR?_BYTEHEX_DECIMAL?CLOCK
            CODE    B241H     005DH     UNIT         ?PR?_RESPUESTA_SEGUNDA_CLAVE?VERIFICADOR
            CODE    B29EH     005CH     UNIT         ?PR?_ARMAR_TRAMA_PLACA?VERIFICADOR
            CODE    B2FAH     005BH     UNIT         ?PR?VALIDA_SENSOR1_AUTO?IO_SENSORES
            CODE    B355H     0056H     UNIT         ?PR?_WR_EEPROM?EEPROM
            CODE    B3ABH     0054H     UNIT         ?PR?_PREGUNTA_LPR?VERIFICADOR
            CODE    B3FFH     004DH     UNIT         ?PR?L_D_M?EEPROM
            CODE    B44CH     004CH     UNIT         ?PR?LEE_NO_TICKET?EEPROM
            CODE    B498H     004CH     UNIT         ?PR?LOAD_AND_SEND_INFO_RELOJ?PTO_PARALELO
            CODE    B4E4H     004BH     UNIT         ?PR?_TX_AUX?TIBBO
            CODE    B52FH     0049H     UNIT         ?PR?_DEBUG_TXT_TIBBO?TIBBO
            CODE    B578H     0048H     UNIT         ?PR?FIRST_CLAVE?PROG
            CODE    B5C0H     0047H     UNIT         ?PR?_DEBUG_CHR_TIBBO?TIBBO
            CODE    B607H     0047H     UNIT         ?PR?_RESPONDE_WRITE_TARJETA_SECTOR2_BLOQUE0?VERIFICADOR
            CODE    B64EH     0046H     UNIT         ?PR?_ESCRIBIRCADENASOFT_BUFFER?MAIN
            CODE    B694H     0046H     UNIT         ?PR?_LCD_TXT_NUM_CHAR?PANTALLAS
            CODE    B6DAH     0046H     UNIT         ?PR?_DEBUG_HEXDEC?TIBBO
            CODE    B720H     0045H     UNIT         ?PR?VARIABLE_INICIO?MAIN
            CODE    B765H     0044H     UNIT         ?PR?_LCD_TXT?PANTALLAS
            CODE    B7A9H     0043H     UNIT         ?PR?DIR_BOARD?IO_SENSORES
            CODE    B7ECH     0042H     UNIT         ?PR?_VALIDARCLAVE?PROG
            CODE    B82EH     0041H     UNIT         ?PR?_MONITOR_CHR?ACCESCAN
            CODE    B86FH     0041H     UNIT         ?CO?ACCESCAN
            CODE    B8B0H     0041H     UNIT         ?PR?_TWO_ONE?CLOCK
            CODE    B8F1H     0040H     UNIT         ?PR?_GETCMD?PROG
            CODE    B931H     0040H     UNIT         ?PR?_DEBUG_PTO_PARALELO?TIBBO
            CODE    B971H     003FH     UNIT         ?PR?_EB_CLK?CLOCK
            CODE    B9B0H     003EH     UNIT         ?PR?_PUTCHAR?MAIN
            CODE    B9EEH     003EH     UNIT         ?PR?TRAMA_VALIDACION_P_N?VERIFICADOR
            CODE    BA2CH     003DH     UNIT         ?PR?_HEX_BCD?CLOCK
            CODE    BA69H     003DH     UNIT         ?PR?_RD_EEPROM?EEPROM
            CODE    BAA6H     003DH     UNIT         ?PR?_DEBUG_MONITOR?TIBBO
            CODE    BAE3H     003DH     UNIT         ?PR?_LOAD_SECUENCIA_EXPEDIDOR?VERIFICADOR
            CODE    BB20H     003BH     UNIT         ?CO?EEPROM
            CODE    BB5BH     003BH     UNIT         ?PR?_COM_PUTCHAR?UART
            CODE    BB96H     003AH     UNIT         ?PR?_DELAY_10MS?DELAY
            CODE    BBD0H     003AH     UNIT         ?PR?ANALIZA_CARD_MOUNT_RF?VERIFICADOR
            CODE    BC0AH     0038H     UNIT         ?PR?VALIDASENSORESPASO?IO_SENSORES
            CODE    BC42H     0036H     UNIT         ?PR?_RESPONDE_WRITE_TARJETA_SECTOR1_BLOQUE1?VERIFICADOR
            CODE    BC78H     0036H     UNIT         ?PR?_RESPONDE_WRITE_TARJETA_SECTOR1_BLOQUE0?VERIFICADOR
            CODE    BCAEH     0034H     UNIT         ?PR?_CALCULO_BCC?ACCESCAN
            CODE    BCE2H     0034H     UNIT         ?PR?INCREMENTE_TICKET?EEPROM
            CODE    BD16H     0034H     UNIT         ?PR?ADDR_HORARIOS?PROG
BL51 BANKED LINKER/LOCATER V6.22.2.0                                                  06/04/2021  16:31:58  PAGE 7


            CODE    BD4AH     0031H     UNIT         ?PR?_TARJETA_ROTACION?VERIFICADOR
            CODE    BD7BH     0030H     UNIT         ?PR?PREGUNTA_PLACA?VERIFICADOR
            CODE    BDABH     002EH     UNIT         ?PR?TIMER0_INT?MAIN
            CODE    BDD9H     002AH     UNIT         ?PR?COM_INITIALIZE?UART
            CODE    BE03H     0028H     UNIT         ?PR?_WR_CLK?CLOCK
            CODE    BE2BH     0028H     UNIT         ?PR?COM_BAUDRATE?UART
            CODE    BE53H     0028H     UNIT         ?PR?_ARMAR_TRAMA_TARJETA_SECTOR1_BLOQUE0?VERIFICADOR
            CODE    BE7BH     0027H     UNIT         ?PR?_TX_CHRLCD?PANTALLAS
            CODE    BEA2H     0026H     UNIT         ?PR?COM_GETCHAR?UART
            CODE    BEC8H     0026H     UNIT         ?PR?ANALIZA_PRESENCIA_MENSUAL?VERIFICADOR
            CODE    BEEEH     0026H     UNIT         ?PR?RX_MONITOR?MONITOR
            CODE    BF14H     0023H     UNIT         ?PR?ANALIZA_PRESENCIA_ROTACION?VERIFICADOR
            CODE    BF37H     0022H     UNIT         ?PR?_E_D_M?EEPROM
            CODE    BF59H     0022H     UNIT         ?PR?VALIDASENSOR_CERO?IO_SENSORES
            CODE    BF7BH     0021H     UNIT         ?CO?PTO_PARALELO
            CODE    BF9CH     0020H     UNIT         ?PR?ACKD?EEPROM
            CODE    BFBCH     0020H     UNIT         ?PR?ACK_LECT?EEPROM
            CODE    BFDCH     001FH     UNIT         ?PR?VALIDASENSOR?IO_SENSORES
            CODE    BFFBH     001FH     UNIT         ?PR?TIME_BIT?TIBBO
            CODE    C01AH     001EH     UNIT         ?PR?_BCD_HEX?CLOCK
            CODE    C038H     001BH     UNIT         ?PR?_DELAY_1MS?DELAY
            CODE    C053H     0018H     UNIT         ?PR?CLEAR_PLACA?MONITOR
            CODE    C06BH     0017H     UNIT         ?PR?DISPLAYCURSOR?PROG
            CODE    C082H     0017H     UNIT         ?PR?TIME_MBIT?TIBBO
            CODE    C099H     0016H     UNIT         ?PR?DIR_BOARD_MONITOR?IO_SENSORES
            CODE    C0AFH     0014H     UNIT         ?CO?CLOCK
            CODE    C0C3H     0014H     UNIT         ?PR?_ISSPACE?ISSPACE
            CODE    C0D7H     0012H     UNIT         ?PR?_DELAY_20US?DELAY
            CODE    C0E9H     0012H     UNIT         ?PR?START?EEPROM
            CODE    C0FBH     0012H     UNIT         ?PR?BOTTON?IO_SENSORES
            CODE    C10DH     0012H     UNIT         ?PR?PULSO_BUS?PTO_PARALELO
            CODE    C11FH     0012H     UNIT         ?PR?COM_RBUFLEN?UART
            CODE    C131H     0012H     UNIT         ?PR?COM_TBUFLEN?UART
            CODE    C143H     0010H     UNIT         ?PR?INI_TIMER?MAIN
            CODE    C153H     0010H     UNIT         ?PR?INICIA_BOARD?MAIN
            CODE    C163H     000FH     UNIT         ?PR?_ISDIGIT?ISDIGIT
            CODE    C172H     000CH     UNIT         ?PR?_GETKEY?MAIN
            CODE    C17EH     000AH     UNIT         ?PR?STOP?EEPROM
            CODE    C188H     000AH     UNIT         ?PR?COND_INI_PTO?PTO_PARALELO
            CODE    C192H     0009H     UNIT         ?PR?DEBUG_DIVIDIR_TEXTO?TIBBO
            CODE    C19BH     0009H     UNIT         ?PR?CAPTURA_EXPULSA?VERIFICADOR
            CODE    C1A4H     0007H     UNIT         ?PR?COND_INI_CLOCK?CLOCK
            CODE    C1ABH     0007H     UNIT         ?PR?SEL_FUNCION?IO_SENSORES
            CODE    C1B2H     0007H     UNIT         ?PR?SEL_AUTO?IO_SENSORES
            CODE    C1B9H     0007H     UNIT         ?PR?SEL_PULSA?IO_SENSORES
            CODE    C1C0H     0007H     UNIT         ?PR?SEL_SENSOR2?IO_SENSORES
            CODE    C1C7H     0007H     UNIT         ?PR?SEL_SENSOR1?IO_SENSORES
            CODE    C1CEH     0007H     UNIT         ?PR?SEL_DIR1?IO_SENSORES
            CODE    C1D5H     0007H     UNIT         ?PR?SEL_DIR2?IO_SENSORES
            CODE    C1DCH     0006H     UNIT         ?PR?P_ME?EEPROM
            CODE    C1E2H     0005H     UNIT         ?PR?ON_TIMER0_INTERRUP?MAIN
            CODE    C1E7H     0005H     UNIT         ?PR?COND_INI_TIBBO?TIBBO
            CODE    C1ECH     0003H     UNIT         ?PR?OFF_TIMER0_INTERRUP?MAIN
            CODE    C1EFH     0001H     UNIT         ?PR?DELAY?DELAY



BL51 BANKED LINKER/LOCATER V6.22.2.0                                                  06/04/2021  16:31:58  PAGE 8


OVERLAY MAP OF MODULE:   .\Objects\expedidor_v_01_raspberry (MAIN)


SEGMENT                                             BIT_GROUP          DATA_GROUP          XDATA_GROUP
  +--> CALLED SEGMENT                            START    LENGTH     START    LENGTH     START    LENGTH
--------------------------------------------------------------------------------------------------------
?C_C51STARTUP                                    -----    -----      -----    -----      -----    -----
  +--> ?PR?MAIN?MAIN
  +--> ?C_INITSEG

?PR?MAIN?MAIN                                    -----    -----      -----    -----      0000H    0001H
  +--> ?PR?INI_TIMER?MAIN
  +--> ?PR?ON_TIMER0_INTERRUP?MAIN
  +--> ?PR?COM_INITIALIZE?UART
  +--> ?PR?COM_BAUDRATE?UART
  +--> ?PR?INICIA_BOARD?MAIN
  +--> ?PR?TIME_BIT?TIBBO
  +--> ?PR?_DELAY_20US?DELAY
  +--> ?PR?TIME_MBIT?TIBBO
  +--> ?PR?_TX_AUX?TIBBO
  +--> ?PR?SEL_FUNCION?IO_SENSORES
  +--> ?PR?MENU?PROG
  +--> ?PR?VARIABLE_INICIO?MAIN
  +--> ?PR?RX_MONITOR?MONITOR
  +--> ?PR?_RECIBE_PORT?PTO_PARALELO
  +--> ?PR?_DEBUG_PTO_PARALELO?TIBBO
  +--> ?PR?_VALIDA_TRAMA_PTO?ACCESCAN
  +--> ?PR?MSJ_LCD_INFORMATIVO?IO_SENSORES

?PR?COM_INITIALIZE?UART                          -----    -----      -----    -----      -----    -----
  +--> ?PR?COM_BAUDRATE?UART

?PR?INICIA_BOARD?MAIN                            -----    -----      -----    -----      -----    -----
  +--> ?PR?COND_INI_TIBBO?TIBBO
  +--> ?PR?COND_INI_CLOCK?CLOCK
  +--> ?PR?COND_INI_PTO?PTO_PARALELO

?PR?_TX_AUX?TIBBO                                -----    -----      -----    -----      -----    -----
  +--> ?PR?TIME_BIT?TIBBO

?PR?MENU?PROG                                    -----    -----      -----    -----      0001H    0045H
  +--> ?CO?PROG
  +--> ?PR?PRINTF?PRINTF
  +--> ?PR?_RD_EEPROM?EEPROM
  +--> ?PR?FIRST_CLAVE?PROG
  +--> ?PR?_WR_EEPROM?EEPROM
  +--> ?PR?_LEERMEMORIA?EEPROM
  +--> ?PR?_HASH_ID?PROG
  +--> ?PR?_INGRESADATO?PROG
  +--> ?PR?_GETCMD?PROG
  +--> ?PR?_ESCRIBIRMEMORIA?EEPROM
  +--> ?PR?_VALIDARCLAVE?PROG
  +--> ?PR?DISPLAYCURSOR?PROG
  +--> ?PR?_STRLEN?STRLEN
  +--> ?PR?_GETOPTION?PROG
  +--> ?PR?_STRCAT?STRCAT
  +--> ?PR?_LISTACOMANDOS?PROG
BL51 BANKED LINKER/LOCATER V6.22.2.0                                                  06/04/2021  16:31:58  PAGE 9


  +--> ?PR?PROG_ID_CLIENTE?PROG
  +--> ?PR?PROG_COD_PARK?PROG
  +--> ?PR?PROG_TIEMPO_GRACIA?PROG
  +--> ?PR?PROG_SIN_COBRO?PROG
  +--> ?PR?PROG_DEBUG?PROG
  +--> ?PR?PROG_USE_LPR?PROG
  +--> ?PR?TIPO_PANTALLA?PROG
  +--> ?PR?PROG_TARJETA_AUTOMATICA_O_BOTON?PROG
  +--> ?PR?PROG_ANTIPASSBACK?PROG
  +--> ?PR?PROG_PLACA?PROG
  +--> ?PR?PROG_ADDRESS_HIGH_BOARD?PROG
  +--> ?PR?PROG_HORARIOS?PROG
  +--> ?PR?PROG_VALIDAR_TIPO_VEHICULO_MENSUA...
  +--> ?PR?PROG_APB_MENSUAL?PROG
  +--> ?PR?VER_PROG?PROG
  +--> ?PR?SHOW?PROG
  +--> ?PR?PROG_FECHA_VENCIMIENTO?PROG

?PR?PRINTF?PRINTF                                0020H.0  0001H.1    0008H    0005H      0077H    0030H
  +--> ?PR?_PUTCHAR?MAIN

?PR?_PUTCHAR?MAIN                                -----    -----      -----    -----      00A7H    0003H
  +--> ?PR?_COM_PUTCHAR?UART

?PR?_COM_PUTCHAR?UART                            -----    -----      -----    -----      00AAH    0001H
  +--> ?PR?COM_TBUFLEN?UART

?PR?_RD_EEPROM?EEPROM                            -----    -----      -----    -----      -----    -----
  +--> ?PR?START?EEPROM
  +--> ?PR?ACK_LECT?EEPROM
  +--> ?PR?_E_D_M?EEPROM
  +--> ?PR?ACKD?EEPROM
  +--> ?PR?L_D_M?EEPROM
  +--> ?PR?STOP?EEPROM

?PR?ACK_LECT?EEPROM                              -----    -----      -----    -----      -----    -----
  +--> ?PR?_E_D_M?EEPROM

?PR?_E_D_M?EEPROM                                -----    -----      -----    -----      -----    -----
  +--> ?PR?P_ME?EEPROM

?PR?ACKD?EEPROM                                  -----    -----      -----    -----      -----    -----
  +--> ?PR?_E_D_M?EEPROM

?PR?FIRST_CLAVE?PROG                             -----    -----      -----    -----      0046H    000BH
  +--> ?PR?_BLOCK_READ_CLOCK_ASCII?CLOCK
  +--> ?PR?_HASH_ID?PROG
  +--> ?PR?_ESCRIBIRMEMORIA?EEPROM

?PR?_BLOCK_READ_CLOCK_ASCII?CLOCK                -----    -----      -----    -----      0051H    0003H
  +--> ?PR?_LEE_CLK?CLOCK

?PR?_LEE_CLK?CLOCK                               -----    -----      -----    -----      00B1H    0003H
  +--> ?PR?_DELAY_20US?DELAY
  +--> ?PR?_EB_CLK?CLOCK
  +--> ?PR?P_CK?CLOCK

BL51 BANKED LINKER/LOCATER V6.22.2.0                                                  06/04/2021  16:31:58  PAGE 10


?PR?_EB_CLK?CLOCK                                -----    -----      -----    -----      00B4H    0003H
  +--> ?PR?P_CK?CLOCK

?PR?P_CK?CLOCK                                   -----    -----      -----    -----      -----    -----
  +--> ?PR?DELAY?DELAY

?PR?_HASH_ID?PROG                                -----    -----      -----    -----      005DH    003FH
  +--> ?CO?PROG
  +--> ?PR?_LEERMEMORIA?EEPROM
  +--> ?PR?_CHECK_FECHAOUT?CLOCK
  +--> ?PR?_STRLEN?STRLEN

?PR?_LEERMEMORIA?EEPROM                          -----    -----      -----    -----      009CH    0005H
  +--> ?PR?_RD_EEPROM?EEPROM

?PR?_CHECK_FECHAOUT?CLOCK                        -----    -----      -----    -----      009CH    0012H
  +--> ?PR?_BLOCK_READ_CLOCK_HEX?CLOCK

?PR?_BLOCK_READ_CLOCK_HEX?CLOCK                  -----    -----      -----    -----      00AEH    0003H
  +--> ?PR?_LEE_CLK?CLOCK
  +--> ?PR?_BCD_HEX?CLOCK

?PR?_ESCRIBIRMEMORIA?EEPROM                      -----    -----      -----    -----      005DH    0005H
  +--> ?PR?_WR_EEPROM?EEPROM

?PR?_WR_EEPROM?EEPROM                            -----    -----      -----    -----      -----    -----
  +--> ?PR?START?EEPROM
  +--> ?PR?ACKD?EEPROM
  +--> ?PR?_E_D_M?EEPROM
  +--> ?PR?STOP?EEPROM
  +--> ?PR?_DELAY_1MS?DELAY
  +--> ?PR?_DELAY_20US?DELAY

?PR?_DELAY_1MS?DELAY                             -----    -----      -----    -----      -----    -----
  +--> ?PR?_DELAY_20US?DELAY

?PR?_INGRESADATO?PROG                            -----    -----      -----    -----      0071H    0004H
  +--> ?PR?_GETKEY?MAIN
  +--> ?CO?PROG
  +--> ?PR?PRINTF?PRINTF
  +--> ?PR?_PUTCHAR?MAIN

?PR?_GETKEY?MAIN                                 -----    -----      -----    -----      -----    -----
  +--> ?PR?COM_GETCHAR?UART

?PR?COM_GETCHAR?UART                             -----    -----      -----    -----      -----    -----
  +--> ?PR?COM_RBUFLEN?UART

?PR?_GETCMD?PROG                                 -----    -----      -----    -----      005DH    0007H
  +--> ?CO?PROG
  +--> ?PR?_STRTOK?STRTOK

?PR?_STRTOK?STRTOK                               -----    -----      -----    -----      0064H    0006H
  +--> ?PR?_STRSPN?STRSPN
  +--> ?PR?_STRPBRK?STRPBRK

?PR?_STRSPN?STRSPN                               -----    -----      -----    -----      006AH    0008H
BL51 BANKED LINKER/LOCATER V6.22.2.0                                                  06/04/2021  16:31:58  PAGE 11



?PR?_STRPBRK?STRPBRK                             -----    -----      -----    -----      006AH    0009H

?PR?_VALIDARCLAVE?PROG                           -----    -----      -----    -----      005DH    000EH

?PR?DISPLAYCURSOR?PROG                           -----    -----      -----    -----      -----    -----
  +--> ?CO?PROG
  +--> ?PR?PRINTF?PRINTF

?PR?_GETOPTION?PROG                              -----    -----      -----    -----      0046H    000BH
  +--> ?CO?PROG
  +--> ?PR?_STRTOK?STRTOK

?PR?_STRCAT?STRCAT                               -----    -----      -----    -----      004CH    0009H

?PR?_LISTACOMANDOS?PROG                          -----    -----      -----    -----      0046H    0007H

?PR?PROG_ID_CLIENTE?PROG                         -----    -----      -----    -----      0046H    000CH
  +--> ?PR?_RD_EEPROM?EEPROM
  +--> ?CO?PROG
  +--> ?PR?PRINTF?PRINTF
  +--> ?PR?_INGRESADATO?PROG
  +--> ?PR?_ATOI?ATOI
  +--> ?PR?_WR_EEPROM?EEPROM

?PR?_ATOI?ATOI                                   0020H.0  0000H.1    -----    -----      0071H    0005H
  +--> ?PR?_ISSPACE?ISSPACE
  +--> ?PR?_ISDIGIT?ISDIGIT

?PR?PROG_COD_PARK?PROG                           -----    -----      -----    -----      0046H    000CH
  +--> ?PR?_RD_EEPROM?EEPROM
  +--> ?CO?PROG
  +--> ?PR?PRINTF?PRINTF
  +--> ?PR?_INGRESADATO?PROG
  +--> ?PR?_ATOI?ATOI
  +--> ?PR?_WR_EEPROM?EEPROM

?PR?PROG_TIEMPO_GRACIA?PROG                      -----    -----      -----    -----      0046H    000CH
  +--> ?PR?_RD_EEPROM?EEPROM
  +--> ?CO?PROG
  +--> ?PR?PRINTF?PRINTF
  +--> ?PR?_INGRESADATO?PROG
  +--> ?PR?_ATOI?ATOI
  +--> ?PR?_WR_EEPROM?EEPROM

?PR?PROG_SIN_COBRO?PROG                          -----    -----      -----    -----      0046H    000CH
  +--> ?PR?_RD_EEPROM?EEPROM
  +--> ?CO?PROG
  +--> ?PR?PRINTF?PRINTF
  +--> ?PR?_INGRESADATO?PROG
  +--> ?PR?_ATOI?ATOI
  +--> ?PR?_WR_EEPROM?EEPROM

?PR?PROG_DEBUG?PROG                              -----    -----      -----    -----      0046H    000CH
  +--> ?PR?_RD_EEPROM?EEPROM
  +--> ?CO?PROG
  +--> ?PR?PRINTF?PRINTF
BL51 BANKED LINKER/LOCATER V6.22.2.0                                                  06/04/2021  16:31:58  PAGE 12


  +--> ?PR?_INGRESADATO?PROG
  +--> ?PR?_ATOI?ATOI
  +--> ?PR?_WR_EEPROM?EEPROM

?PR?PROG_USE_LPR?PROG                            -----    -----      -----    -----      0046H    000CH
  +--> ?PR?_RD_EEPROM?EEPROM
  +--> ?CO?PROG
  +--> ?PR?PRINTF?PRINTF
  +--> ?PR?_INGRESADATO?PROG
  +--> ?PR?_ATOI?ATOI
  +--> ?PR?_WR_EEPROM?EEPROM

?PR?TIPO_PANTALLA?PROG                           -----    -----      -----    -----      0046H    000CH
  +--> ?PR?_RD_EEPROM?EEPROM
  +--> ?CO?PROG
  +--> ?PR?PRINTF?PRINTF
  +--> ?PR?_INGRESADATO?PROG
  +--> ?PR?_ATOI?ATOI
  +--> ?PR?_WR_EEPROM?EEPROM

?PR?PROG_TARJETA_AUTOMATICA_O_BOTON?PROG         -----    -----      -----    -----      0046H    000CH
  +--> ?PR?_RD_EEPROM?EEPROM
  +--> ?CO?PROG
  +--> ?PR?PRINTF?PRINTF
  +--> ?PR?_INGRESADATO?PROG
  +--> ?PR?_ATOI?ATOI
  +--> ?PR?_WR_EEPROM?EEPROM

?PR?PROG_ANTIPASSBACK?PROG                       -----    -----      -----    -----      0046H    000CH
  +--> ?PR?_RD_EEPROM?EEPROM
  +--> ?CO?PROG
  +--> ?PR?PRINTF?PRINTF
  +--> ?PR?_INGRESADATO?PROG
  +--> ?PR?_ATOI?ATOI
  +--> ?PR?_WR_EEPROM?EEPROM

?PR?PROG_PLACA?PROG                              -----    -----      -----    -----      0046H    000CH
  +--> ?PR?_RD_EEPROM?EEPROM
  +--> ?CO?PROG
  +--> ?PR?PRINTF?PRINTF
  +--> ?PR?_INGRESADATO?PROG
  +--> ?PR?_ATOI?ATOI
  +--> ?PR?_WR_EEPROM?EEPROM

?PR?PROG_ADDRESS_HIGH_BOARD?PROG                 -----    -----      -----    -----      0046H    000CH
  +--> ?PR?_RD_EEPROM?EEPROM
  +--> ?CO?PROG
  +--> ?PR?PRINTF?PRINTF
  +--> ?PR?_INGRESADATO?PROG
  +--> ?PR?_ATOI?ATOI
  +--> ?PR?_WR_EEPROM?EEPROM

?PR?PROG_HORARIOS?PROG                           -----    -----      -----    -----      0046H    001BH
  +--> ?PR?ADDR_HORARIOS?PROG
  +--> ?CO?PROG
  +--> ?PR?PRINTF?PRINTF
  +--> ?PR?_INGRESADATO?PROG
BL51 BANKED LINKER/LOCATER V6.22.2.0                                                  06/04/2021  16:31:58  PAGE 13


  +--> ?PR?_ATOI?ATOI
  +--> ?PR?_PROG_HORARIOS_ON_OFF?PROG
  +--> ?PR?_WR_EEPROM?EEPROM
  +--> ?PR?_PROG_HORARIO_DIAS?PROG
  +--> ?PR?_PROG_HORARIO_DESDE_HASTA?PROG
  +--> ?PR?_RD_EEPROM?EEPROM

?PR?ADDR_HORARIOS?PROG                           -----    -----      -----    -----      0074H    000BH

?PR?_PROG_HORARIOS_ON_OFF?PROG                   -----    -----      -----    -----      0061H    0010H
  +--> ?PR?_RD_EEPROM?EEPROM
  +--> ?CO?PROG
  +--> ?PR?PRINTF?PRINTF
  +--> ?PR?_INGRESADATO?PROG
  +--> ?PR?_ATOI?ATOI
  +--> ?PR?_WR_EEPROM?EEPROM

?PR?_PROG_HORARIO_DIAS?PROG                      -----    -----      -----    -----      0061H    000FH
  +--> ?CO?PROG
  +--> ?PR?PRINTF?PRINTF
  +--> ?PR?_INGRESADATO?PROG
  +--> ?PR?_WR_EEPROM?EEPROM
  +--> ?PR?_RD_EEPROM?EEPROM

?PR?_PROG_HORARIO_DESDE_HASTA?PROG               -----    -----      -----    -----      0061H    000CH
  +--> ?CO?PROG
  +--> ?PR?PRINTF?PRINTF
  +--> ?PR?_INGRESADATO?PROG
  +--> ?PR?_WR_EEPROM?EEPROM
  +--> ?PR?_RD_EEPROM?EEPROM

?PR?PROG_VALIDAR_TIPO_VEHICULO_MENSUA...         -----    -----      -----    -----      0046H    000CH
  +--> ?PR?_RD_EEPROM?EEPROM
  +--> ?CO?PROG
  +--> ?PR?PRINTF?PRINTF
  +--> ?PR?_INGRESADATO?PROG
  +--> ?PR?_ATOI?ATOI
  +--> ?PR?_WR_EEPROM?EEPROM

?PR?PROG_APB_MENSUAL?PROG                        -----    -----      -----    -----      0046H    000CH
  +--> ?PR?_RD_EEPROM?EEPROM
  +--> ?CO?PROG
  +--> ?PR?PRINTF?PRINTF
  +--> ?PR?_INGRESADATO?PROG
  +--> ?PR?_ATOI?ATOI
  +--> ?PR?_WR_EEPROM?EEPROM

?PR?VER_PROG?PROG                                -----    -----      -----    -----      0046H    0013H
  +--> ?PR?_RD_EEPROM?EEPROM
  +--> ?CO?PROG
  +--> ?PR?PRINTF?PRINTF
  +--> ?PR?VER_HORARIO?PROG
  +--> ?PR?_LEERMEMORIA?EEPROM
  +--> ?PR?_HEX_ASCII?CLOCK

?PR?VER_HORARIO?PROG                             -----    -----      -----    -----      0059H    001BH
  +--> ?PR?ADDR_HORARIOS?PROG
BL51 BANKED LINKER/LOCATER V6.22.2.0                                                  06/04/2021  16:31:58  PAGE 14


  +--> ?CO?PROG
  +--> ?PR?PRINTF?PRINTF
  +--> ?PR?_RD_EEPROM?EEPROM
  +--> ?PR?_VER_HORARIO_DIAS?PROG
  +--> ?PR?_VER_HORARIO_DESDE_HASTA?PROG

?PR?_VER_HORARIO_DIAS?PROG                       -----    -----      -----    -----      0074H    0003H
  +--> ?PR?_RD_EEPROM?EEPROM
  +--> ?CO?PROG
  +--> ?PR?PRINTF?PRINTF

?PR?_VER_HORARIO_DESDE_HASTA?PROG                -----    -----      -----    -----      0074H    0002H
  +--> ?CO?PROG
  +--> ?PR?PRINTF?PRINTF
  +--> ?PR?_RD_EEPROM?EEPROM

?PR?_HEX_ASCII?CLOCK                             -----    -----      -----    -----      005DH    0006H
  +--> ?PR?_HEX_BCD?CLOCK

?PR?SHOW?PROG                                    -----    -----      -----    -----      -----    -----
  +--> ?CO?PROG
  +--> ?PR?PRINTF?PRINTF

?PR?PROG_FECHA_VENCIMIENTO?PROG                  -----    -----      -----    -----      0046H    0017H
  +--> ?PR?_LEERMEMORIA?EEPROM
  +--> ?PR?_HEX_ASCII?CLOCK
  +--> ?CO?PROG
  +--> ?PR?PRINTF?PRINTF
  +--> ?PR?_HASH_ID?PROG
  +--> ?PR?_INGRESADATO?PROG
  +--> ?PR?_GETCMD?PROG
  +--> ?PR?_ESCRIBIRMEMORIA?EEPROM
  +--> ?PR?_VALIDARCLAVE?PROG
  +--> ?PR?_ATOI?ATOI
  +--> ?PR?_WR_EEPROM?EEPROM

?PR?VARIABLE_INICIO?MAIN                         -----    -----      -----    -----      -----    -----
  +--> ?PR?_RD_EEPROM?EEPROM

?PR?RX_MONITOR?MONITOR                           -----    -----      -----    -----      0001H    000DH
  +--> ?PR?_RECIBE_CMD_MONITOR?MONITOR
  +--> ?PR?_DEBUG_MONITOR?TIBBO
  +--> ?PR?_VALIDA_TRAMA_MONITOR?MONITOR

?PR?_RECIBE_CMD_MONITOR?MONITOR                  -----    -----      -----    -----      000EH    0009H
  +--> ?PR?RX_DATA?TIBBO

?PR?RX_DATA?TIBBO                                -----    -----      -----    -----      -----    -----
  +--> ?PR?TIME_MBIT?TIBBO
  +--> ?PR?TIME_BIT?TIBBO

?PR?_DEBUG_MONITOR?TIBBO                         -----    -----      -----    -----      000EH    0004H
  +--> ?PR?DEBUG_DIVIDIR_TEXTO?TIBBO
  +--> ?CO?TIBBO
  +--> ?PR?_DEBUG_TXT_TIBBO?TIBBO

?PR?DEBUG_DIVIDIR_TEXTO?TIBBO                    -----    -----      -----    -----      -----    -----
BL51 BANKED LINKER/LOCATER V6.22.2.0                                                  06/04/2021  16:31:58  PAGE 15


  +--> ?CO?TIBBO
  +--> ?PR?_DEBUG_TXT_TIBBO?TIBBO

?PR?_DEBUG_TXT_TIBBO?TIBBO                       -----    -----      -----    -----      0057H    0004H
  +--> ?PR?_DEBUG_CHR_TIBBO?TIBBO
  +--> ?CO?TIBBO
  +--> ?PR?_TX_AUX?TIBBO

?PR?_DEBUG_CHR_TIBBO?TIBBO                       -----    -----      -----    -----      -----    -----
  +--> ?PR?_TX_AUX?TIBBO

?PR?_VALIDA_TRAMA_MONITOR?MONITOR                -----    -----      -----    -----      000EH    0006H
  +--> ?PR?_DELAY_10MS?DELAY
  +--> ?PR?_TX_AUX?TIBBO

?PR?_DELAY_10MS?DELAY                            -----    -----      -----    -----      0014H    0004H
  +--> ?PR?_DELAY_1MS?DELAY

?PR?_RECIBE_PORT?PTO_PARALELO                    -----    -----      -----    -----      0001H    0008H
  +--> ?PR?OFF_TIMER0_INTERRUP?MAIN
  +--> ?PR?ON_TIMER0_INTERRUP?MAIN

?PR?_DEBUG_PTO_PARALELO?TIBBO                    -----    -----      -----    -----      0001H    0004H
  +--> ?CO?TIBBO
  +--> ?PR?_DEBUG_TXT_TIBBO?TIBBO
  +--> ?PR?_DEBUGBUFFERMF?TIBBO
  +--> ?PR?DEBUG_DIVIDIR_TEXTO?TIBBO

?PR?_DEBUGBUFFERMF?TIBBO                         -----    -----      -----    -----      0016H    0006H
  +--> ?CO?TIBBO
  +--> ?PR?_DEBUG_TXT_TIBBO?TIBBO
  +--> ?PR?_DEBUG_CHR_TIBBO?TIBBO
  +--> ?PR?_TX_AUX?TIBBO

?PR?_VALIDA_TRAMA_PTO?ACCESCAN                   -----    -----      -----    -----      0001H    0018H
  +--> ?CO?ACCESCAN
  +--> ?PR?_DEBUG_TXT_TIBBO?TIBBO
  +--> ?PR?_DEBUG_CHR_TIBBO?TIBBO
  +--> ?PR?_CALCULO_BCC?ACCESCAN
  +--> ?PR?_VALIDAR_CLK?CLOCK
  +--> ?PR?_BLOCK_WRITE_CLOCK_ASCII?CLOCK
  +--> ?PR?RELOJ_PANTALLA_LCD?PANTALLAS
  +--> ?PR?_SEND_PORT?PTO_PARALELO
  +--> ?PR?_PANTALLALCD?PANTALLAS
  +--> ?PR?_BYTEHEX_DECIMAL?CLOCK
  +--> ?PR?_TWO_BYTEHEX_DECIMAL?CLOCK
  +--> ?PR?VALIDASENSORESPASO?IO_SENSORES
  +--> ?PR?_CMD_LPR_SALIDA_WIEGAND?ACCESCAN
  +--> ?PR?_PANTALLALCD_LINEA_2?PANTALLAS
  +--> ?PR?_GRABA_SERIE?EEPROM

?PR?_CALCULO_BCC?ACCESCAN                        -----    -----      -----    -----      0019H    0004H

?PR?_BLOCK_WRITE_CLOCK_ASCII?CLOCK               -----    -----      -----    -----      0019H    0003H
  +--> ?CO?CLOCK
  +--> ?PR?_DEBUG_TXT_TIBBO?TIBBO
  +--> ?PR?_TWO_ONE?CLOCK
BL51 BANKED LINKER/LOCATER V6.22.2.0                                                  06/04/2021  16:31:58  PAGE 16


  +--> ?PR?_WR_CLK?CLOCK

?PR?_WR_CLK?CLOCK                                -----    -----      -----    -----      001CH    0002H
  +--> ?PR?_DELAY_20US?DELAY
  +--> ?PR?_EB_CLK?CLOCK

?PR?RELOJ_PANTALLA_LCD?PANTALLAS                 -----    -----      -----    -----      0019H    000DH
  +--> ?CO?PANTALLAS
  +--> ?PR?_BLOCK_READ_CLOCK?CLOCK
  +--> ?PR?_LCD_TXT_NUM_CHAR?PANTALLAS
  +--> ?PR?_BLOCK_READ_CLOCK_ASCII_RASBERRY?...
  +--> ?PR?_STRCAT?STRCAT
  +--> ?PR?_RASPBERRY_DATA?PANTALLAS

?PR?_BLOCK_READ_CLOCK?CLOCK                      -----    -----      -----    -----      0026H    0003H
  +--> ?PR?_LEE_CLK?CLOCK

?PR?_LCD_TXT_NUM_CHAR?PANTALLAS                  -----    -----      -----    -----      0026H    0006H
  +--> ?PR?_TX_CHRLCD?PANTALLAS

?PR?_TX_CHRLCD?PANTALLAS                         -----    -----      -----    -----      0051H    0002H
  +--> ?PR?_PUTCHAR?MAIN

?PR?_BLOCK_READ_CLOCK_ASCII_RASBERRY?...         -----    -----      -----    -----      0026H    0003H
  +--> ?PR?_LEE_CLK?CLOCK

?PR?_RASPBERRY_DATA?PANTALLAS                    -----    -----      -----    -----      004CH    0006H
  +--> ?PR?_STRLEN?STRLEN
  +--> ?PR?_PUTCHAR?MAIN

?PR?_SEND_PORT?PTO_PARALELO                      -----    -----      -----    -----      0019H    000AH
  +--> ?PR?PULSO_BUS?PTO_PARALELO
  +--> ?PR?_DELAY_20US?DELAY

?PR?PULSO_BUS?PTO_PARALELO                       -----    -----      -----    -----      -----    -----
  +--> ?PR?_DELAY_20US?DELAY

?PR?_PANTALLALCD?PANTALLAS                       -----    -----      -----    -----      0019H    000AH
  +--> ?CO?PANTALLAS
  +--> ?PR?_LCD_TXT?PANTALLAS
  +--> ?PR?_STRLEN?STRLEN
  +--> ?PR?_TX_CHRLCD?PANTALLAS
  +--> ?PR?_RASPBERRY_DATA?PANTALLAS

?PR?_LCD_TXT?PANTALLAS                           -----    -----      -----    -----      004CH    0005H
  +--> ?PR?_TX_CHRLCD?PANTALLAS

?PR?_BYTEHEX_DECIMAL?CLOCK                       -----    -----      -----    -----      0019H    0001H

?PR?_TWO_BYTEHEX_DECIMAL?CLOCK                   -----    -----      -----    -----      0019H    000CH
  +--> ?PR?_POW?POW

?PR?_POW?POW                                     -----    -----      -----    -----      0025H    000AH
  +--> ?PR?LOG?LOG
  +--> ?PR?EXP?EXP

?PR?LOG?LOG                                      0020H.0  0000H.1    -----    -----      002FH    0004H
BL51 BANKED LINKER/LOCATER V6.22.2.0                                                  06/04/2021  16:31:58  PAGE 17



?PR?VALIDASENSORESPASO?IO_SENSORES               -----    -----      -----    -----      0019H    0001H
  +--> ?PR?SEL_SENSOR2?IO_SENSORES
  +--> ?PR?VALIDASENSOR?IO_SENSORES
  +--> ?PR?VALIDA_SENSOR1_AUTO?IO_SENSORES
  +--> ?CO?IO_SENSORES
  +--> ?PR?_DEBUG_TXT_TIBBO?TIBBO

?PR?VALIDA_SENSOR1_AUTO?IO_SENSORES              -----    -----      -----    -----      001AH    0001H
  +--> ?PR?SEL_SENSOR1?IO_SENSORES
  +--> ?PR?SEL_AUTO?IO_SENSORES
  +--> ?CO?IO_SENSORES
  +--> ?PR?_DEBUG_TXT_TIBBO?TIBBO
  +--> ?PR?BOTTON?IO_SENSORES

?PR?BOTTON?IO_SENSORES                           -----    -----      -----    -----      -----    -----
  +--> ?PR?SEL_PULSA?IO_SENSORES
  +--> ?CO?IO_SENSORES
  +--> ?PR?_DEBUG_TXT_TIBBO?TIBBO

?PR?_CMD_LPR_SALIDA_WIEGAND?ACCESCAN             -----    -----      -----    -----      0019H    0022H
  +--> ?PR?DIR_BOARD?IO_SENSORES
  +--> ?PR?_BLOCK_READ_CLOCK_ASCII?CLOCK
  +--> ?PR?_MONITOR_CHR?ACCESCAN

?PR?DIR_BOARD?IO_SENSORES                        -----    -----      -----    -----      003BH    0001H
  +--> ?PR?SEL_DIR1?IO_SENSORES
  +--> ?PR?SEL_DIR2?IO_SENSORES
  +--> ?PR?_RD_EEPROM?EEPROM

?PR?_MONITOR_CHR?ACCESCAN                        -----    -----      -----    -----      003BH    0005H
  +--> ?PR?_TX_AUX?TIBBO

?PR?_PANTALLALCD_LINEA_2?PANTALLAS               -----    -----      -----    -----      0019H    0033H
  +--> ?CO?PANTALLAS
  +--> ?PR?_LCD_TXT?PANTALLAS
  +--> ?PR?_STRLEN?STRLEN
  +--> ?PR?_TX_CHRLCD?PANTALLAS
  +--> ?PR?_RASPBERRY_DATA?PANTALLAS
  +--> ?PR?LEE_NO_TICKET?EEPROM
  +--> ?PR?_STRCAT?STRCAT

?PR?LEE_NO_TICKET?EEPROM                         -----    -----      -----    -----      004CH    000BH
  +--> ?PR?READ_EEPROM_TICKET?EEPROM
  +--> ?CO?EEPROM
  +--> ?PR?PRINTF?PRINTF
  +--> ?PR?_STRLEN?STRLEN
  +--> ?PR?_DEBUG_TXT_TIBBO?TIBBO

?PR?READ_EEPROM_TICKET?EEPROM                    -----    -----      -----    -----      0057H    0007H
  +--> ?PR?_RD_EEPROM?EEPROM

?PR?_GRABA_SERIE?EEPROM                          -----    -----      -----    -----      0019H    0005H
  +--> ?CO?EEPROM
  +--> ?PR?_DEBUG_TXT_TIBBO?TIBBO
  +--> ?PR?_WRITE_EEPROM_TICKET?EEPROM
  +--> ?PR?_WR_EEPROM?EEPROM
BL51 BANKED LINKER/LOCATER V6.22.2.0                                                  06/04/2021  16:31:58  PAGE 18



?PR?_WRITE_EEPROM_TICKET?EEPROM                  -----    -----      -----    -----      001EH    000BH
  +--> ?CO?EEPROM
  +--> ?PR?_DEBUG_TXT_TIBBO?TIBBO
  +--> ?PR?_ATOL?ATOL
  +--> ?PR?_DEBUG_CHR_TIBBO?TIBBO
  +--> ?PR?_WR_EEPROM?EEPROM

?PR?_ATOL?ATOL                                   0020H.0  0000H.1    -----    -----      0029H    0007H
  +--> ?PR?_ISSPACE?ISSPACE
  +--> ?PR?_ISDIGIT?ISDIGIT

?PR?MSJ_LCD_INFORMATIVO?IO_SENSORES              -----    -----      -----    -----      0001H    0001H
  +--> ?PR?SEL_FUNCION?IO_SENSORES
  +--> ?PR?VALIDASENSOR_CERO?IO_SENSORES
  +--> ?PR?LOAD_AND_SEND_INFO_RELOJ?PTO_PARA...
  +--> ?PR?VALIDASENSOR?IO_SENSORES
  +--> ?PR?_DELAY_10MS?DELAY
  +--> ?PR?LOAD_AND_SEND_ID_COD?PTO_PARALELO

?PR?LOAD_AND_SEND_INFO_RELOJ?PTO_PARA...         -----    -----      -----    -----      0002H    000BH
  +--> ?PR?_BLOCK_READ_CLOCK?CLOCK
  +--> ?PR?_LEE_CLK?CLOCK
  +--> ?CO?PTO_PARALELO
  +--> ?PR?_DEBUG_TXT_TIBBO?TIBBO
  +--> ?PR?_DEBUGBUFFERMF?TIBBO
  +--> ?PR?DEBUG_DIVIDIR_TEXTO?TIBBO
  +--> ?PR?_SEND_PORT?PTO_PARALELO

?PR?LOAD_AND_SEND_ID_COD?PTO_PARALELO            -----    -----      -----    -----      0002H    0014H
  +--> ?PR?_RD_EEPROM?EEPROM
  +--> ?CO?PTO_PARALELO
  +--> ?PR?PRINTF?PRINTF
  +--> ?PR?_STRCAT?STRCAT
  +--> ?PR?_STRLEN?STRLEN
  +--> ?PR?_DEBUG_TXT_TIBBO?TIBBO
  +--> ?PR?_DEBUGBUFFERMF?TIBBO
  +--> ?PR?DEBUG_DIVIDIR_TEXTO?TIBBO
  +--> ?PR?_SEND_PORT?PTO_PARALELO



SYMBOL TABLE OF MODULE:  .\Objects\expedidor_v_01_raspberry (MAIN)

  VALUE           TYPE          NAME
  ----------------------------------

  -------         MODULE        MAIN
  C:0000H         SYMBOL        _ICE_DUMMY_
  D:0080H         PUBLIC        P0
  D:0090H         PUBLIC        P1
  C:BDABH         PUBLIC        timer0_int
  D:00B0H         PUBLIC        P3
  B:00A8H.7       PUBLIC        EA
  C:C1ECH         PUBLIC        off_Timer0_Interrup
  X:0171H         PUBLIC        ValTimeOutCom
  X:0172H         PUBLIC        Buffer_Rta_Lintech
BL51 BANKED LINKER/LOCATER V6.22.2.0                                                  06/04/2021  16:31:58  PAGE 19


  X:01A4H         PUBLIC        Timer_wait
  B:0021H.1       PUBLIC        pto_paraleo
  X:01A5H         PUBLIC        g_cContByteRx
  B:0080H.0       PUBLIC        rx_ip
  C:AF6DH         PUBLIC        main
  X:01A6H         PUBLIC        Timer_tivo
  B:0080H.3       PUBLIC        Atascado_GP0_PIN_3
  C:B720H         PUBLIC        variable_inicio
  B:0090H.7       PUBLIC        lock
  I:0023H         PUBLIC        rbuf
  C:C1E2H         PUBLIC        on_Timer0_Interrup
  I:0055H         PUBLIC        tbuf
  B:0090H.1       PUBLIC        DataIn
  D:0089H         PUBLIC        TMOD
  X:01A8H         PUBLIC        USE_LPR
  X:01A9H         PUBLIC        Debug_Tibbo
  X:01AAH         PUBLIC        Raspberry
  X:01ABH         PUBLIC        SIN_COBRO
  X:01ADH         PUBLIC        Tipo_Vehiculo
  B:00B0H.3       PUBLIC        busy
  C:C143H         PUBLIC        ini_timer
  B:00A8H.1       PUBLIC        ET0
  B:0088H.5       PUBLIC        TF0
  D:008CH         PUBLIC        TH0
  X:01AEH         PUBLIC        ACK
  X:01AFH         PUBLIC        g_cEstadoComSoft
  D:008AH         PUBLIC        TL0
  B:0088H.4       PUBLIC        TR0
  C:C153H         PUBLIC        inicia_board
  X:01B0H         PUBLIC        T_GRACIA
  B:0080H.7       PUBLIC        sel_com
  X:01B2H         PUBLIC        STX_LINTECH
  C:C172H         PUBLIC        _getkey
  X:01B3H         PUBLIC        ETX
  C:B64EH         PUBLIC        _EscribirCadenaSoft_buffer
  B:0021H.2       PUBLIC        buffer_ready
  C:B9B0H         PUBLIC        _putchar
  B:0021H.3       PUBLIC        placa_ready
  -------         PROC          TIMER0_INT
  C:BDABH         LINE#         16
  C:BDB1H         LINE#         19
  C:BDB7H         LINE#         20
  C:BDBCH         LINE#         21
  C:BDBCH         LINE#         22
  C:BDC2H         LINE#         23
  C:BDC2H         LINE#         25
  C:BDD0H         LINE#         26
  C:BDD2H         LINE#         28
  -------         ENDPROC       TIMER0_INT
  -------         PROC          INI_TIMER
  C:C143H         LINE#         31
  C:C143H         LINE#         32
  C:C143H         LINE#         34
  C:C14BH         LINE#         36
  C:C14EH         LINE#         37
  C:C150H         LINE#         38
  C:C152H         LINE#         40
BL51 BANKED LINKER/LOCATER V6.22.2.0                                                  06/04/2021  16:31:58  PAGE 20


  -------         ENDPROC       INI_TIMER
  -------         PROC          ON_TIMER0_INTERRUP
  C:C1E2H         LINE#         43
  C:C1E2H         LINE#         44
  C:C1E2H         LINE#         45
  C:C1E4H         LINE#         46
  C:C1E6H         LINE#         48
  -------         ENDPROC       ON_TIMER0_INTERRUP
  -------         PROC          OFF_TIMER0_INTERRUP
  C:C1ECH         LINE#         51
  C:C1ECH         LINE#         52
  C:C1ECH         LINE#         53
  C:C1EEH         LINE#         55
  -------         ENDPROC       OFF_TIMER0_INTERRUP
  -------         PROC          _GETKEY
  -------         DO            
  D:0006H         SYMBOL        k
  -------         ENDDO         
  C:C172H         LINE#         63
  C:C172H         LINE#         64
  C:C172H         LINE#         68
  C:C172H         LINE#         69
  C:C175H         LINE#         70
  C:C175H         LINE#         71
  C:C17DH         LINE#         73
  C:C17DH         LINE#         74
  -------         ENDPROC       _GETKEY
  -------         PROC          _PUTCHAR
  X:00A7H         SYMBOL        c
  -------         DO            
  X:00A8H         SYMBOL        i
  -------         ENDDO         
  C:B9B0H         LINE#         78
  C:B9B5H         LINE#         79
  C:B9B5H         LINE#         82
  C:B9C4H         LINE#         83
  C:B9C4H         LINE#         84
  C:B9DAH         LINE#         85
  C:B9DAH         LINE#         87
  C:B9E8H         LINE#         88
  C:B9E8H         LINE#         90
  C:B9EDH         LINE#         91
  -------         ENDPROC       _PUTCHAR
  -------         PROC          _ESCRIBIRCADENASOFT_BUFFER
  X:039CH         SYMBOL        buffer
  X:039FH         SYMBOL        tamano_cadena
  -------         DO            
  X:03A0H         SYMBOL        i
  X:03A1H         SYMBOL        d
  -------         ENDDO         
  C:B64EH         LINE#         95
  C:B65CH         LINE#         96
  C:B65CH         LINE#         98
  C:B66AH         LINE#         99
  C:B66AH         LINE#         100
  C:B681H         LINE#         101
  C:B68BH         LINE#         102
BL51 BANKED LINKER/LOCATER V6.22.2.0                                                  06/04/2021  16:31:58  PAGE 21


  C:B693H         LINE#         103
  -------         ENDPROC       _ESCRIBIRCADENASOFT_BUFFER
  -------         PROC          INICIA_BOARD
  C:C153H         LINE#         108
  C:C153H         LINE#         109
  C:C153H         LINE#         110
  C:C156H         LINE#         111
  C:C159H         LINE#         112
  C:C15CH         LINE#         113
  C:C15EH         LINE#         114
  C:C160H         LINE#         115
  C:C162H         LINE#         117
  -------         ENDPROC       INICIA_BOARD
  -------         PROC          VARIABLE_INICIO
  C:B720H         LINE#         122
  C:B720H         LINE#         123
  C:B720H         LINE#         126
  C:B731H         LINE#         127
  C:B742H         LINE#         129
  C:B750H         LINE#         130
  C:B75EH         LINE#         131
  C:B764H         LINE#         133
  -------         ENDPROC       VARIABLE_INICIO
  -------         PROC          MAIN
  -------         DO            
  X:0148H         SYMBOL        buffer
  X:0170H         SYMBOL        Estado_Comunicacion_Secuencia_MF
  X:0000H         SYMBOL        Length_trama
  -------         ENDDO         
  C:AF6DH         LINE#         141
  C:AF6DH         LINE#         142
  C:AF6DH         LINE#         149
  C:AF70H         LINE#         150
  C:AF73H         LINE#         151
  C:AF76H         LINE#         152
  C:AF79H         LINE#         153
  C:AF7CH         LINE#         154
  C:AF7EH         LINE#         156
  C:AF81H         LINE#         157
  C:AF88H         LINE#         158
  C:AF8BH         LINE#         160
  C:AF90H         LINE#         162
  C:AF93H         LINE#         164
  C:AF96H         LINE#         165
  C:AF96H         LINE#         166
  C:AF99H         LINE#         167
  C:AF99H         LINE#         170
  C:AF9CH         LINE#         172
  C:AFA2H         LINE#         174
  C:AFA2H         LINE#         175
  C:AFA2H         LINE#         178
  C:AFA5H         LINE#         179
  C:AFA5H         LINE#         180
  C:AFA8H         LINE#         181
  C:AFA8H         LINE#         190
  C:AFAEH         LINE#         191
  C:AFAEH         LINE#         193
BL51 BANKED LINKER/LOCATER V6.22.2.0                                                  06/04/2021  16:31:58  PAGE 22


  C:AFBDH         LINE#         196
  C:AFC6H         LINE#         197
  C:AFD4H         LINE#         202
  C:AFD4H         LINE#         203
  C:AFD7H         LINE#         207
  -------         ENDPROC       MAIN
  -------         ENDMOD        MAIN

  -------         MODULE        ACCESCAN
  C:0000H         SYMBOL        _ICE_DUMMY_
  D:0080H         PUBLIC        P0
  D:0090H         PUBLIC        P1
  B:0080H.2       PUBLIC        led_err_imp
  C:B82EH         PUBLIC        _Monitor_chr
  B:0080H.3       PUBLIC        Atascado_GP0_PIN_3
  B:0090H.7       PUBLIC        lock
  C:35ACH         PUBLIC        _Valida_Trama_Pto
  C:BCAEH         PUBLIC        _Calculo_bcc
  C:8A0FH         PUBLIC        _Cmd_LPR_Salida_wiegand
  -------         PROC          _VALIDA_TRAMA_PTO
  X:0001H         SYMBOL        buffer
  X:0004H         SYMBOL        length_trama
  -------         DO            
  X:03FCH         SYMBOL        cont
  X:0005H         SYMBOL        bcc
  X:0006H         SYMBOL        buff
  X:0011H         SYMBOL        buffer_port
  -------         ENDDO         
  C:35ACH         LINE#         110
  C:35BAH         LINE#         111
  C:35BAH         LINE#         114
  C:35BDH         LINE#         119
  C:3600H         LINE#         120
  C:3600H         LINE#         121
  C:3609H         LINE#         122
  C:361EH         LINE#         123
  C:3627H         LINE#         124
  C:363EH         LINE#         125
  C:3647H         LINE#         126
  C:364FH         LINE#         127
  C:3658H         LINE#         128
  C:3671H         LINE#         129
  C:3671H         LINE#         130
  C:367AH         LINE#         131
  C:3682H         LINE#         132
  C:368BH         LINE#         133
  C:36A4H         LINE#         134
  C:36A4H         LINE#         135
  C:36B7H         LINE#         137
  C:36BAH         LINE#         139
  C:36BAH         LINE#         142
  C:36BAH         LINE#         144
  C:36BAH         LINE#         145
  C:36C3H         LINE#         146
  C:36CAH         LINE#         147
  C:36D1H         LINE#         149
  C:36DBH         LINE#         151
BL51 BANKED LINKER/LOCATER V6.22.2.0                                                  06/04/2021  16:31:58  PAGE 23


  C:36E4H         LINE#         152
  C:36EDH         LINE#         153
  C:36F6H         LINE#         154
  C:36FFH         LINE#         155
  C:3708H         LINE#         156
  C:3708H         LINE#         159
  C:3708H         LINE#         162
  C:371AH         LINE#         163
  C:371AH         LINE#         164
  C:371CH         LINE#         165
  C:371FH         LINE#         167
  C:3731H         LINE#         168
  C:3731H         LINE#         169
  C:3733H         LINE#         170
  C:3736H         LINE#         172
  C:3748H         LINE#         173
  C:3748H         LINE#         174
  C:374AH         LINE#         175
  C:374DH         LINE#         177
  C:3767H         LINE#         178
  C:3767H         LINE#         179
  C:3769H         LINE#         180
  C:376CH         LINE#         182
  C:3786H         LINE#         183
  C:3786H         LINE#         184
  C:3788H         LINE#         185
  C:378BH         LINE#         187
  C:379DH         LINE#         188
  C:379DH         LINE#         189
  C:37A3H         LINE#         190
  C:37B0H         LINE#         191
  C:37B0H         LINE#         192
  C:37B5H         LINE#         193
  C:37B7H         LINE#         194
  C:37BCH         LINE#         195
  C:37BEH         LINE#         196
  C:37C0H         LINE#         197
  C:37C4H         LINE#         198
  C:37C4H         LINE#         199
  C:37C5H         LINE#         201
  C:37DDH         LINE#         202
  C:37DDH         LINE#         204
  C:37EAH         LINE#         205
  C:37EAH         LINE#         206
  C:37ECH         LINE#         207
  C:37EEH         LINE#         208
  C:37F0H         LINE#         209
  C:37F2H         LINE#         210
  C:37F2H         LINE#         212
  C:3818H         LINE#         213
  C:3818H         LINE#         214
  C:381CH         LINE#         215
  C:3821H         LINE#         216
  C:382AH         LINE#         217
  C:382FH         LINE#         218
  C:382FH         LINE#         221
  C:3830H         LINE#         223
BL51 BANKED LINKER/LOCATER V6.22.2.0                                                  06/04/2021  16:31:58  PAGE 24


  C:384AH         LINE#         224
  C:384AH         LINE#         225
  C:384CH         LINE#         226
  C:384FH         LINE#         228
  C:3869H         LINE#         229
  C:3869H         LINE#         230
  C:386BH         LINE#         231
  C:386EH         LINE#         233
  C:3888H         LINE#         234
  C:3888H         LINE#         235
  C:388AH         LINE#         236
  C:388CH         LINE#         238
  C:38A6H         LINE#         239
  C:38A6H         LINE#         240
  C:38A8H         LINE#         241
  C:38AAH         LINE#         244
  C:38C4H         LINE#         245
  C:38C4H         LINE#         246
  C:38C6H         LINE#         247
  C:38C8H         LINE#         251
  C:38E2H         LINE#         252
  C:38E2H         LINE#         253
  C:38E4H         LINE#         254
  C:38E6H         LINE#         257
  C:3900H         LINE#         258
  C:3900H         LINE#         259
  C:3905H         LINE#         260
  C:3905H         LINE#         263
  C:3936H         LINE#         264
  C:3936H         LINE#         265
  C:393EH         LINE#         266
  C:3947H         LINE#         267
  C:394AH         LINE#         270
  C:397BH         LINE#         271
  C:397BH         LINE#         273
  C:3983H         LINE#         274
  C:398CH         LINE#         275
  C:398FH         LINE#         278
  C:39CFH         LINE#         279
  C:39CFH         LINE#         281
  C:39E4H         LINE#         282
  C:39EAH         LINE#         283
  C:3A14H         LINE#         286
  C:3A1CH         LINE#         287
  C:3A1CH         LINE#         290
  C:3A23H         LINE#         291
  C:3A23H         LINE#         292
  C:3A28H         LINE#         293
  C:3A28H         LINE#         294
  C:3A2AH         LINE#         296
  C:3A2AH         LINE#         297
  C:3A33H         LINE#         298
  C:3A3BH         LINE#         299
  C:3A3BH         LINE#         303
  C:3A3DH         LINE#         306
  C:3A3DH         LINE#         314
  C:3A45H         LINE#         318
BL51 BANKED LINKER/LOCATER V6.22.2.0                                                  06/04/2021  16:31:58  PAGE 25


  C:3A45H         LINE#         319
  C:3A47H         LINE#         321
  C:3A7FH         LINE#         322
  C:3A7FH         LINE#         323
  C:3A87H         LINE#         324
  C:3A93H         LINE#         325
  C:3A93H         LINE#         327
  C:3AC0H         LINE#         328
  C:3AC0H         LINE#         329
  C:3ACFH         LINE#         331
  C:3ACFH         LINE#         333
  -------         ENDPROC       _VALIDA_TRAMA_PTO
  -------         PROC          _MONITOR_CHR
  X:003BH         SYMBOL        str
  X:003EH         SYMBOL        num_char
  -------         DO            
  X:003FH         SYMBOL        j
  -------         ENDDO         
  C:B82EH         LINE#         488
  C:B83CH         LINE#         489
  C:B83CH         LINE#         491
  C:B84AH         LINE#         492
  C:B84AH         LINE#         493
  C:B85CH         LINE#         494
  C:B866H         LINE#         495
  C:B86EH         LINE#         496
  -------         ENDPROC       _MONITOR_CHR
  -------         PROC          _CMD_LPR_SALIDA_WIEGAND
  X:0019H         SYMBOL        buffer
  -------         DO            
  X:001CH         SYMBOL        Buffer_Lpr
  X:003AH         SYMBOL        j
  -------         ENDDO         
  C:8A0FH         LINE#         501
  C:8A1AH         LINE#         502
  C:8A1AH         LINE#         504
  C:8A20H         LINE#         505
  C:8A25H         LINE#         506
  C:8A2DH         LINE#         507
  C:8A31H         LINE#         508
  C:8A3AH         LINE#         509
  C:8A3AH         LINE#         510
  C:8A4BH         LINE#         511
  C:8A4DH         LINE#         513
  C:8A4DH         LINE#         514
  C:8A5EH         LINE#         515
  C:8A5EH         LINE#         519
  C:8A75H         LINE#         520
  C:8A75H         LINE#         521
  C:8A84H         LINE#         522
  C:8A8EH         LINE#         524
  C:8A96H         LINE#         525
  C:8AAAH         LINE#         527
  C:8ABAH         LINE#         528
  C:8ACBH         LINE#         529
  C:8AD8H         LINE#         533
  -------         ENDPROC       _CMD_LPR_SALIDA_WIEGAND
BL51 BANKED LINKER/LOCATER V6.22.2.0                                                  06/04/2021  16:31:58  PAGE 26


  -------         PROC          _CALCULO_BCC
  X:0019H         SYMBOL        buffer
  X:001CH         SYMBOL        leng_trama
  -------         DO            
  D:0007H         SYMBOL        bcc
  D:0006H         SYMBOL        j
  -------         ENDDO         
  C:BCAEH         LINE#         535
  C:BCBCH         LINE#         536
  C:BCBCH         LINE#         537
  C:BCBEH         LINE#         540
  C:BCC9H         LINE#         541
  C:BCC9H         LINE#         542
  C:BCDEH         LINE#         543
  C:BCE1H         LINE#         544
  C:BCE1H         LINE#         545
  -------         ENDPROC       _CALCULO_BCC
  -------         ENDMOD        ACCESCAN

  -------         MODULE        CLOCK
  C:0000H         SYMBOL        _ICE_DUMMY_
  C:B8E4H         PUBLIC        _two_one
  D:0090H         PUBLIC        P1
  C:78A9H         PUBLIC        _validar_clk
  C:BE03H         PUBLIC        _wr_clk
  C:8E19H         PUBLIC        _check_fechaOut
  C:609BH         PUBLIC        _Block_read_clock_ascii_rasberry
  B:00D0H.7       PUBLIC        CY
  C:0003H         PUBLIC        p_ck
  C:A200H         PUBLIC        _hex_ascii
  C:AE19H         PUBLIC        _hora_entrada_vehiculo
  X:03FDH         PUBLIC        data_clk
  C:C1A4H         PUBLIC        cond_ini_clock
  C:8EE2H         PUBLIC        _Block_read_Clock
  B:0090H.4       PUBLIC        sck
  C:9B39H         PUBLIC        _Block_read_Clock_Hex
  C:676DH         PUBLIC        _Block_read_clock_ascii
  C:BA48H         PUBLIC        _hex_bcd
  C:C01AH         PUBLIC        _bcd_hex
  C:B1E3H         PUBLIC        _ByteHex_Decimal
  C:A32CH         PUBLIC        _lee_clk
  B:0090H.5       PUBLIC        io
  C:9D28H         PUBLIC        _Block_write_clock_ascii
  B:0090H.6       PUBLIC        rst
  C:B971H         PUBLIC        _eb_clk
  C:4789H         PUBLIC        _Two_ByteHex_Decimal
  -------         PROC          P_CK
  C:0003H         LINE#         69
  C:0003H         LINE#         70
  C:0003H         LINE#         71
  C:0005H         LINE#         72
  C:0008H         LINE#         73
  C:000AH         LINE#         74
  -------         ENDPROC       P_CK
  -------         PROC          _EB_CLK
  X:00B4H         SYMBOL        dir_clk
  -------         DO            
BL51 BANKED LINKER/LOCATER V6.22.2.0                                                  06/04/2021  16:31:58  PAGE 27


  X:00B5H         SYMBOL        nbits
  -------         ENDDO         
  C:B971H         LINE#         76
  C:B976H         LINE#         78
  C:B97BH         LINE#         79
  C:B97BH         LINE#         80
  C:B984H         LINE#         81
  C:B987H         LINE#         82
  C:B987H         LINE#         83
  C:B989H         LINE#         84
  C:B98BH         LINE#         86
  C:B98BH         LINE#         87
  C:B98DH         LINE#         88
  C:B98DH         LINE#         89
  C:B990H         LINE#         90
  C:B9AFH         LINE#         91
  -------         ENDPROC       _EB_CLK
  C:A322H         SYMBOL        L?0084
  -------         PROC          L?0083
  -------         ENDPROC       L?0083
  C:A322H         SYMBOL        L?0084
  -------         PROC          _LEE_CLK
  X:00B1H         SYMBOL        dir_clk
  -------         DO            
  X:00B2H         SYMBOL        nbits
  -------         ENDDO         
  C:A32CH         LINE#         93
  C:A331H         LINE#         95
  C:A333H         LINE#         96
  C:A33AH         LINE#         97
  C:A342H         LINE#         98
  C:A35BH         LINE#         99
  C:A35BH         LINE#         100
  C:A35EH         LINE#         101
  C:A35EH         LINE#         102
  C:A365H         LINE#         103
  C:A36FH         LINE#         104
  C:A374H         LINE#         105
  C:A374H         LINE#         106
  C:A374H         LINE#         107
  C:A377H         LINE#         108
  C:A377H         LINE#         109
  C:A37EH         LINE#         110
  C:A38FH         LINE#         111
  C:A38FH         LINE#         112
  C:A397H         LINE#         113
  C:A397H         LINE#         114
  C:A397H         LINE#         115
  C:A39AH         LINE#         116
  C:A3AAH         LINE#         117
  C:A3ACH         LINE#         118
  C:A3B1H         LINE#         119
  -------         ENDPROC       _LEE_CLK
  -------         PROC          _WR_CLK
  X:001CH         SYMBOL        dir_clk
  X:001DH         SYMBOL        byte
  C:BE03H         LINE#         121
BL51 BANKED LINKER/LOCATER V6.22.2.0                                                  06/04/2021  16:31:58  PAGE 28


  C:BE0BH         LINE#         122
  C:BE0DH         LINE#         123
  C:BE14H         LINE#         124
  C:BE1CH         LINE#         125
  C:BE25H         LINE#         126
  C:BE28H         LINE#         127
  C:BE2AH         LINE#         129
  -------         ENDPROC       _WR_CLK
  C:B8B0H         SYMBOL        L?0079
  C:B8CEH         SYMBOL        L?0080
  -------         PROC          L?0078
  -------         ENDPROC       L?0078
  C:B8B0H         SYMBOL        L?0079
  C:B8CEH         SYMBOL        L?0080
  -------         PROC          _TWO_ONE
  D:0007H         SYMBOL        byte_h
  D:0005H         SYMBOL        byte_l
  -------         DO            
  D:0007H         SYMBOL        byte_out
  -------         ENDDO         
  C:B8E4H         LINE#         131
  C:B8E4H         LINE#         132
  C:B8E4H         LINE#         134
  C:B8E7H         LINE#         135
  C:B8EBH         LINE#         136
  C:B8EEH         LINE#         137
  C:B8F0H         LINE#         138
  C:B8F0H         LINE#         139
  -------         ENDPROC       _TWO_ONE
  -------         PROC          _VALIDAR_CLK
  D:0001H         SYMBOL        datos_clock
  -------         DO            
  D:0007H         SYMBOL        validador
  -------         ENDDO         
  C:78A9H         LINE#         143
  C:78A9H         LINE#         144
  C:78A9H         LINE#         145
  C:78ABH         LINE#         148
  C:78C0H         LINE#         149
  C:78C0H         LINE#         151
  C:78D8H         LINE#         152
  C:78D8H         LINE#         154
  C:78F0H         LINE#         155
  C:78F0H         LINE#         156
  C:7908H         LINE#         157
  C:7908H         LINE#         158
  C:7920H         LINE#         159
  C:7920H         LINE#         160
  C:7935H         LINE#         161
  C:7935H         LINE#         162
  C:7947H         LINE#         163
  C:7947H         LINE#         164
  C:7959H         LINE#         165
  C:7959H         LINE#         166
  C:796BH         LINE#         167
  C:796BH         LINE#         168
  C:797DH         LINE#         169
BL51 BANKED LINKER/LOCATER V6.22.2.0                                                  06/04/2021  16:31:58  PAGE 29


  C:797DH         LINE#         170
  C:798FH         LINE#         171
  C:798FH         LINE#         172
  C:799FH         LINE#         173
  C:799FH         LINE#         174
  C:799FH         LINE#         175
  C:799FH         LINE#         176
  C:79A0H         LINE#         178
  C:79A0H         LINE#         179
  C:79A2H         LINE#         180
  C:79A2H         LINE#         181
  C:79A3H         LINE#         183
  C:79A3H         LINE#         184
  C:79A5H         LINE#         186
  C:79A5H         LINE#         187
  C:79A6H         LINE#         189
  C:79A6H         LINE#         190
  C:79A8H         LINE#         192
  C:79A8H         LINE#         194
  C:79A9H         LINE#         196
  C:79A9H         LINE#         197
  C:79ABH         LINE#         199
  C:79ABH         LINE#         200
  C:79ACH         LINE#         202
  C:79ACH         LINE#         203
  C:79AEH         LINE#         205
  C:79AEH         LINE#         206
  C:79AFH         LINE#         208
  C:79AFH         LINE#         209
  C:79B1H         LINE#         211
  C:79B1H         LINE#         212
  C:79B2H         LINE#         214
  C:79B2H         LINE#         215
  C:79B4H         LINE#         217
  C:79B4H         LINE#         218
  C:79B4H         LINE#         220
  C:79B5H         LINE#         222
  C:79B5H         LINE#         223
  C:79B7H         LINE#         225
  C:79B7H         LINE#         227
  C:79B8H         LINE#         230
  C:79B8H         LINE#         231
  C:79BAH         LINE#         233
  C:79BAH         LINE#         235
  C:79BBH         LINE#         238
  C:79BBH         LINE#         239
  C:79BDH         LINE#         241
  C:79BDH         LINE#         243
  C:79BDH         LINE#         245
  -------         ENDPROC       _VALIDAR_CLK
  -------         PROC          _BLOCK_WRITE_CLOCK_ASCII
  X:0019H         SYMBOL        datos_clock
  -------         DO            
  D:0007H         SYMBOL        temp
  -------         ENDDO         
  C:9D28H         LINE#         251
  C:9D33H         LINE#         253
BL51 BANKED LINKER/LOCATER V6.22.2.0                                                  06/04/2021  16:31:58  PAGE 30


  C:9D33H         LINE#         256
  C:9D3CH         LINE#         257
  C:9D45H         LINE#         259
  C:9D4FH         LINE#         260
  C:9D4FH         LINE#         261
  C:9D4FH         LINE#         262
  C:9D4FH         LINE#         264
  C:9D59H         LINE#         265
  C:9D63H         LINE#         266
  C:9D6DH         LINE#         267
  C:9D6DH         LINE#         268
  C:9D6DH         LINE#         269
  C:9D6DH         LINE#         271
  C:9D77H         LINE#         272
  C:9D77H         LINE#         273
  C:9D77H         LINE#         274
  C:9D77H         LINE#         276
  C:9D81H         LINE#         277
  C:9D81H         LINE#         278
  C:9D81H         LINE#         279
  C:9D81H         LINE#         281
  C:9D8BH         LINE#         282
  C:9D8BH         LINE#         283
  C:9D8BH         LINE#         284
  C:9D8BH         LINE#         286
  C:9D95H         LINE#         287
  C:9D9FH         LINE#         288
  C:9DA9H         LINE#         289
  C:9DB3H         LINE#         291
  C:9DC3H         LINE#         292
  -------         ENDPROC       _BLOCK_WRITE_CLOCK_ASCII
  -------         PROC          _BCD_HEX
  D:0007H         SYMBOL        l_data
  -------         DO            
  D:0006H         SYMBOL        temp
  D:0005H         SYMBOL        j
  -------         ENDDO         
  C:C01AH         LINE#         298
  C:C01AH         LINE#         299
  C:C01AH         LINE#         301
  C:C01CH         LINE#         302
  C:C020H         LINE#         303
  C:C023H         LINE#         304
  C:C025H         LINE#         305
  C:C025H         LINE#         306
  C:C029H         LINE#         307
  C:C030H         LINE#         308
  C:C030H         LINE#         309
  C:C034H         LINE#         310
  C:C037H         LINE#         311
  C:C037H         LINE#         312
  C:C037H         LINE#         313
  -------         ENDPROC       _BCD_HEX
  C:BA39H         SYMBOL        L?0082
  -------         PROC          L?0081
  -------         ENDPROC       L?0081
  C:BA39H         SYMBOL        L?0082
BL51 BANKED LINKER/LOCATER V6.22.2.0                                                  06/04/2021  16:31:58  PAGE 31


  -------         PROC          _HEX_BCD
  D:0007H         SYMBOL        byte
  -------         DO            
  D:0006H         SYMBOL        nibble_h
  D:0005H         SYMBOL        nibble_l
  D:0004H         SYMBOL        k
  D:0007H         SYMBOL        byte_out
  -------         ENDDO         
  C:BA48H         LINE#         317
  C:BA48H         LINE#         318
  C:BA48H         LINE#         323
  C:BA4AH         LINE#         324
  C:BA4BH         LINE#         326
  C:BA51H         LINE#         327
  C:BA51H         LINE#         328
  C:BA52H         LINE#         329
  C:BA57H         LINE#         330
  C:BA57H         LINE#         331
  C:BA58H         LINE#         332
  C:BA59H         LINE#         333
  C:BA59H         LINE#         334
  C:BA5CH         LINE#         335
  C:BA60H         LINE#         336
  C:BA63H         LINE#         337
  C:BA66H         LINE#         338
  C:BA68H         LINE#         339
  C:BA68H         LINE#         341
  -------         ENDPROC       _HEX_BCD
  -------         PROC          _HEX_ASCII
  X:005DH         SYMBOL        datos
  X:0060H         SYMBOL        fecha_asii
  -------         DO            
  D:0007H         SYMBOL        dato
  -------         ENDDO         
  C:A200H         LINE#         342
  C:A20BH         LINE#         343
  C:A20BH         LINE#         347
  C:A20EH         LINE#         348
  C:A226H         LINE#         349
  C:A23BH         LINE#         350
  C:A23BH         LINE#         352
  C:A23EH         LINE#         353
  C:A259H         LINE#         354
  C:A261H         LINE#         355
  C:A261H         LINE#         357
  C:A264H         LINE#         358
  C:A27FH         LINE#         359
  C:A28AH         LINE#         361
  -------         ENDPROC       _HEX_ASCII
  -------         PROC          _BYTEHEX_DECIMAL
  D:0001H         SYMBOL        buffer
  D:0005H         SYMBOL        valorhex
  -------         DO            
  X:0019H         SYMBOL        numero
  D:0007H         SYMBOL        centena
  D:0006H         SYMBOL        decena
  -------         ENDDO         
BL51 BANKED LINKER/LOCATER V6.22.2.0                                                  06/04/2021  16:31:58  PAGE 32


  C:B1E3H         LINE#         369
  C:B1E3H         LINE#         370
  C:B1E3H         LINE#         373
  C:B1E5H         LINE#         374
  C:B1E6H         LINE#         375
  C:B1EBH         LINE#         377
  C:B1F8H         LINE#         378
  C:B1F8H         LINE#         379
  C:B1FCH         LINE#         380
  C:B1FDH         LINE#         381
  C:B1FFH         LINE#         382
  C:B205H         LINE#         383
  C:B20CH         LINE#         384
  C:B219H         LINE#         385
  C:B219H         LINE#         386
  C:B21DH         LINE#         387
  C:B21EH         LINE#         388
  C:B220H         LINE#         389
  C:B226H         LINE#         390
  C:B22DH         LINE#         391
  C:B236H         LINE#         392
  C:B23DH         LINE#         393
  -------         ENDPROC       _BYTEHEX_DECIMAL
  -------         PROC          _TWO_BYTEHEX_DECIMAL
  X:0019H         SYMBOL        buffer
  X:001CH         SYMBOL        id_h
  X:001DH         SYMBOL        id_l
  -------         DO            
  X:001EH         SYMBOL        valor
  D:0006H         SYMBOL        numero
  X:0020H         SYMBOL        temp
  X:0021H         SYMBOL        dmil
  X:0022H         SYMBOL        mil
  X:0023H         SYMBOL        centena
  X:0024H         SYMBOL        decena
  -------         ENDDO         
  C:4789H         LINE#         400
  C:4797H         LINE#         401
  C:4797H         LINE#         405
  C:479EH         LINE#         406
  C:47A2H         LINE#         407
  C:47A4H         LINE#         408
  C:47A6H         LINE#         409
  C:47A8H         LINE#         412
  C:47ADH         LINE#         413
  C:47B0H         LINE#         414
  C:47B6H         LINE#         416
  C:4811H         LINE#         417
  C:4819H         LINE#         418
  C:481CH         LINE#         419
  C:4877H         LINE#         421
  C:487FH         LINE#         422
  C:4882H         LINE#         423
  C:4888H         LINE#         424
  C:48E3H         LINE#         425
  C:48EBH         LINE#         426
  C:48EEH         LINE#         427
BL51 BANKED LINKER/LOCATER V6.22.2.0                                                  06/04/2021  16:31:58  PAGE 33


  C:4949H         LINE#         428
  C:4949H         LINE#         430
  C:4952H         LINE#         431
  C:4952H         LINE#         432
  C:495AH         LINE#         433
  C:4960H         LINE#         434
  C:4962H         LINE#         435
  C:4978H         LINE#         436
  C:4982H         LINE#         437
  C:498BH         LINE#         438
  C:498BH         LINE#         439
  C:4993H         LINE#         440
  C:4999H         LINE#         441
  C:499BH         LINE#         442
  C:49B1H         LINE#         443
  C:49BBH         LINE#         444
  C:49C4H         LINE#         445
  C:49C4H         LINE#         446
  C:49CCH         LINE#         447
  C:49D2H         LINE#         448
  C:49D4H         LINE#         449
  C:49EAH         LINE#         450
  C:49F4H         LINE#         451
  C:49FDH         LINE#         452
  C:49FDH         LINE#         453
  C:4A05H         LINE#         454
  C:4A0BH         LINE#         455
  C:4A0DH         LINE#         456
  C:4A23H         LINE#         457
  C:4A2DH         LINE#         458
  C:4A40H         LINE#         459
  C:4A4AH         LINE#         460
  -------         ENDPROC       _TWO_BYTEHEX_DECIMAL
  -------         PROC          _BLOCK_READ_CLOCK_ASCII
  X:0051H         SYMBOL        datos_clock
  -------         DO            
  D:0007H         SYMBOL        dato
  -------         ENDDO         
  C:676DH         LINE#         466
  C:6770H         LINE#         467
  C:6770H         LINE#         473
  C:6773H         LINE#         474
  C:678BH         LINE#         475
  C:6795H         LINE#         476
  C:67AAH         LINE#         477
  C:67B4H         LINE#         480
  C:67B9H         LINE#         481
  C:67D1H         LINE#         482
  C:67DBH         LINE#         483
  C:67F0H         LINE#         484
  C:67FAH         LINE#         487
  C:67FFH         LINE#         488
  C:6817H         LINE#         489
  C:6821H         LINE#         490
  C:6836H         LINE#         491
  C:6840H         LINE#         495
  C:6845H         LINE#         496
BL51 BANKED LINKER/LOCATER V6.22.2.0                                                  06/04/2021  16:31:58  PAGE 34


  C:685DH         LINE#         497
  C:6867H         LINE#         498
  C:687CH         LINE#         499
  C:6886H         LINE#         502
  C:688BH         LINE#         503
  C:68A3H         LINE#         504
  C:68ADH         LINE#         505
  C:68C2H         LINE#         506
  C:68CCH         LINE#         507
  -------         ENDPROC       _BLOCK_READ_CLOCK_ASCII
  -------         PROC          _BLOCK_READ_CLOCK_ASCII_RASBERRY
  X:0026H         SYMBOL        datos_clock
  -------         DO            
  D:0007H         SYMBOL        dato
  -------         ENDDO         
  C:609BH         LINE#         510
  C:60A6H         LINE#         511
  C:60A6H         LINE#         516
  C:60ABH         LINE#         517
  C:60C3H         LINE#         518
  C:60CDH         LINE#         519
  C:60E2H         LINE#         520
  C:60ECH         LINE#         523
  C:60F1H         LINE#         524
  C:6109H         LINE#         525
  C:6113H         LINE#         526
  C:6128H         LINE#         527
  C:6132H         LINE#         531
  C:6137H         LINE#         532
  C:614FH         LINE#         533
  C:6159H         LINE#         534
  C:616EH         LINE#         535
  C:6178H         LINE#         540
  C:617DH         LINE#         541
  C:6195H         LINE#         542
  C:619FH         LINE#         543
  C:61B4H         LINE#         544
  C:61BEH         LINE#         547
  C:61C3H         LINE#         548
  C:61DBH         LINE#         549
  C:61E5H         LINE#         550
  C:61FAH         LINE#         551
  C:6204H         LINE#         552
  C:6214H         LINE#         553
  C:621EH         LINE#         556
  C:6223H         LINE#         557
  C:623BH         LINE#         558
  C:6245H         LINE#         559
  C:625AH         LINE#         561
  C:6264H         LINE#         562
  -------         ENDPROC       _BLOCK_READ_CLOCK_ASCII_RASBERRY
  -------         PROC          _BLOCK_READ_CLOCK_HEX
  X:00AEH         SYMBOL        datos_clock
  C:9B39H         LINE#         566
  C:9B3CH         LINE#         567
  C:9B3CH         LINE#         570
  C:9B51H         LINE#         571
BL51 BANKED LINKER/LOCATER V6.22.2.0                                                  06/04/2021  16:31:58  PAGE 35


  C:9B5BH         LINE#         573
  C:9B72H         LINE#         574
  C:9B7CH         LINE#         576
  C:9B93H         LINE#         577
  C:9B9DH         LINE#         579
  C:9BB4H         LINE#         580
  C:9BBEH         LINE#         582
  C:9BD5H         LINE#         583
  -------         ENDPROC       _BLOCK_READ_CLOCK_HEX
  -------         PROC          _HORA_ENTRADA_VEHICULO
  X:03DAH         SYMBOL        Atributos_Expedidor
  C:AE19H         LINE#         586
  C:AE1CH         LINE#         587
  C:AE1CH         LINE#         589
  C:AE31H         LINE#         590
  C:AE48H         LINE#         591
  C:AE5FH         LINE#         592
  C:AE76H         LINE#         593
  -------         ENDPROC       _HORA_ENTRADA_VEHICULO
  -------         PROC          _BLOCK_READ_CLOCK
  X:0026H         SYMBOL        datos_clock
  C:8EE2H         LINE#         599
  C:8EE5H         LINE#         600
  C:8EE5H         LINE#         602
  C:8EF7H         LINE#         603
  C:8F01H         LINE#         605
  C:8F15H         LINE#         606
  C:8F1FH         LINE#         608
  C:8F33H         LINE#         609
  C:8F3DH         LINE#         611
  C:8F51H         LINE#         612
  C:8F5BH         LINE#         614
  C:8F6FH         LINE#         615
  C:8F79H         LINE#         617
  C:8F8DH         LINE#         618
  C:8F97H         LINE#         619
  -------         ENDPROC       _BLOCK_READ_CLOCK
  -------         PROC          COND_INI_CLOCK
  C:C1A4H         LINE#         622
  C:C1A4H         LINE#         623
  C:C1A4H         LINE#         624
  C:C1A6H         LINE#         625
  C:C1A8H         LINE#         626
  C:C1AAH         LINE#         627
  -------         ENDPROC       COND_INI_CLOCK
  -------         PROC          _CHECK_FECHAOUT
  X:009CH         SYMBOL        buffer
  -------         DO            
  X:009FH         SYMBOL        fecha_inicio
  X:00A3H         SYMBOL        fecha_fin
  X:00A7H         SYMBOL        datos_clk
  X:00ADH         SYMBOL        temp
  -------         ENDDO         
  C:8E19H         LINE#         637
  C:8E24H         LINE#         638
  C:8E24H         LINE#         644
  C:8E2DH         LINE#         645
BL51 BANKED LINKER/LOCATER V6.22.2.0                                                  06/04/2021  16:31:58  PAGE 36


  C:8E5CH         LINE#         646
  C:8EAFH         LINE#         649
  C:8ECFH         LINE#         650
  C:8ECFH         LINE#         651
  C:8ED5H         LINE#         652
  C:8ED7H         LINE#         654
  C:8ED7H         LINE#         655
  C:8EDCH         LINE#         656
  C:8EDCH         LINE#         660
  C:8EE1H         LINE#         661
  -------         ENDPROC       _CHECK_FECHAOUT
  -------         ENDMOD        CLOCK

  -------         MODULE        DELAY
  C:0000H         SYMBOL        _ICE_DUMMY_
  C:BB96H         PUBLIC        _Delay_10ms
  C:C0D7H         PUBLIC        _Delay_20us
  C:C038H         PUBLIC        _Delay_1ms
  C:C1EFH         PUBLIC        Delay
  -------         PROC          _DELAY_20US
  D:0006H         SYMBOL        cntd_us
  -------         DO            
  D:0004H         SYMBOL        i
  -------         ENDDO         
  C:C0D7H         LINE#         20
  C:C0D7H         LINE#         21
  C:C0D7H         LINE#         24
  C:C0E1H         LINE#         26
  C:C0E8H         LINE#         27
  -------         ENDPROC       _DELAY_20US
  -------         PROC          _DELAY_1MS
  D:0002H         SYMBOL        cntd_ms
  -------         DO            
  D:0082H         SYMBOL        i
  -------         ENDDO         
  C:C038H         LINE#         38
  C:C03CH         LINE#         39
  C:C03CH         LINE#         41
  C:C052H         LINE#         42
  -------         ENDPROC       _DELAY_1MS
  -------         PROC          _DELAY_10MS
  X:0014H         SYMBOL        cntd_10ms
  -------         DO            
  X:0016H         SYMBOL        i
  -------         ENDDO         
  C:BB96H         LINE#         54
  C:BB9EH         LINE#         55
  C:BB9EH         LINE#         57
  C:BBCFH         LINE#         58
  -------         ENDPROC       _DELAY_10MS
  -------         PROC          DELAY
  C:C1EFH         LINE#         60
  C:C1EFH         LINE#         62
  -------         ENDPROC       DELAY
  -------         ENDMOD        DELAY

  -------         MODULE        EEPROM
BL51 BANKED LINKER/LOCATER V6.22.2.0                                                  06/04/2021  16:31:58  PAGE 37


  C:0000H         SYMBOL        _ICE_DUMMY_
  D:0090H         PUBLIC        P1
  C:84C0H         PUBLIC        _Write_EEprom_Ticket
  C:AEFEH         PUBLIC        _EscribirMemoria
  X:03DDH         PUBLIC        l_chr
  C:BF9FH         PUBLIC        ackd
  B:0021H.6       PUBLIC        memory_flag
  B:00D0H.7       PUBLIC        CY
  C:C1DCH         PUBLIC        p_me
  C:C0F1H         PUBLIC        start
  B:0090H.2       PUBLIC        sda
  C:BFBFH         PUBLIC        ack_lect
  B:0090H.3       PUBLIC        scl
  C:BA6DH         PUBLIC        _rd_eeprom
  C:C17EH         PUBLIC        stop
  X:03DEH         PUBLIC        l_data_eeprom
  C:B36CH         PUBLIC        _wr_eeprom
  C:B11BH         PUBLIC        _LeerMemoria
  C:BCE2H         PUBLIC        Incremente_Ticket
  X:03DFH         PUBLIC        byte_rd
  C:8D4FH         PUBLIC        Read_EEprom_Ticket
  C:BF37H         PUBLIC        _e_d_m
  C:8BB8H         PUBLIC        _graba_serie
  C:B44CH         PUBLIC        Lee_No_Ticket
  C:B3FFH         PUBLIC        l_d_m
  -------         PROC          L?0057
  -------         ENDPROC       L?0057
  -------         PROC          ACKD
  -------         DO            
  D:0006H         SYMBOL        i
  -------         ENDDO         
  C:BF9FH         LINE#         35
  C:BF9FH         LINE#         36
  C:BF9FH         LINE#         38
  C:BFA1H         LINE#         39
  C:BFA3H         LINE#         40
  C:BFA5H         LINE#         41
  C:BFA8H         LINE#         42
  C:BFA8H         LINE#         43
  C:BFABH         LINE#         44
  C:BFABH         LINE#         45
  C:BFADH         LINE#         46
  C:BFAFH         LINE#         48
  C:BFB0H         LINE#         49
  C:BFB0H         LINE#         50
  C:BFBBH         LINE#         52
  C:BFBBH         LINE#         53
  C:BFBBH         LINE#         55
  C:BFBBH         LINE#         56
  -------         ENDPROC       ACKD
  -------         PROC          L?0061
  -------         ENDPROC       L?0061
  -------         PROC          ACK_LECT
  -------         DO            
  D:0006H         SYMBOL        i
  -------         ENDDO         
  C:BFBFH         LINE#         59
BL51 BANKED LINKER/LOCATER V6.22.2.0                                                  06/04/2021  16:31:58  PAGE 38


  C:BFBFH         LINE#         60
  C:BFBFH         LINE#         62
  C:BFC1H         LINE#         63
  C:BFC3H         LINE#         64
  C:BFC5H         LINE#         65
  C:BFC8H         LINE#         66
  C:BFC8H         LINE#         67
  C:BFCBH         LINE#         68
  C:BFCBH         LINE#         69
  C:BFCDH         LINE#         70
  C:BFCFH         LINE#         71
  C:BFD0H         LINE#         72
  C:BFD0H         LINE#         73
  C:BFDBH         LINE#         74
  -------         ENDPROC       ACK_LECT
  -------         PROC          P_ME
  C:C1DCH         LINE#         76
  C:C1DCH         LINE#         77
  C:C1DCH         LINE#         78
  C:C1DEH         LINE#         79
  C:C1DFH         LINE#         80
  C:C1E1H         LINE#         81
  -------         ENDPROC       P_ME
  -------         PROC          _E_D_M
  D:0007H         SYMBOL        a_serial_eeprom
  -------         DO            
  D:0006H         SYMBOL        nbits
  -------         ENDDO         
  C:BF37H         LINE#         83
  C:BF37H         LINE#         84
  C:BF37H         LINE#         86
  C:BF43H         LINE#         87
  C:BF43H         LINE#         88
  C:BF47H         LINE#         89
  C:BF4AH         LINE#         90
  C:BF4AH         LINE#         91
  C:BF4CH         LINE#         92
  C:BF4EH         LINE#         94
  C:BF4EH         LINE#         95
  C:BF50H         LINE#         96
  C:BF50H         LINE#         97
  C:BF52H         LINE#         98
  C:BF55H         LINE#         99
  C:BF58H         LINE#         101
  -------         ENDPROC       _E_D_M
  -------         PROC          L?0058
  -------         ENDPROC       L?0058
  -------         PROC          START
  C:C0F1H         LINE#         103
  C:C0F1H         LINE#         104
  C:C0F1H         LINE#         105
  C:C0F3H         LINE#         106
  C:C0F5H         LINE#         107
  C:C0F6H         LINE#         108
  C:C0F8H         LINE#         109
  C:C0FAH         LINE#         111
  -------         ENDPROC       START
BL51 BANKED LINKER/LOCATER V6.22.2.0                                                  06/04/2021  16:31:58  PAGE 39


  -------         PROC          STOP
  C:C17EH         LINE#         113
  C:C17EH         LINE#         114
  C:C17EH         LINE#         115
  C:C180H         LINE#         116
  C:C182H         LINE#         117
  C:C183H         LINE#         118
  C:C185H         LINE#         119
  C:C187H         LINE#         121
  -------         ENDPROC       STOP
  -------         PROC          L_D_M
  -------         DO            
  D:0003H         SYMBOL        nbits
  -------         ENDDO         
  C:B3FFH         LINE#         123
  C:B3FFH         LINE#         124
  C:B3FFH         LINE#         126
  C:B40CH         LINE#         127
  C:B40CH         LINE#         128
  C:B40EH         LINE#         129
  C:B411H         LINE#         130
  C:B411H         LINE#         131
  C:B418H         LINE#         132
  C:B421H         LINE#         133
  C:B421H         LINE#         134
  C:B425H         LINE#         135
  C:B427H         LINE#         136
  C:B427H         LINE#         137
  C:B427H         LINE#         138
  C:B42AH         LINE#         139
  C:B42AH         LINE#         140
  C:B431H         LINE#         141
  C:B43BH         LINE#         142
  C:B43BH         LINE#         143
  C:B43FH         LINE#         144
  C:B441H         LINE#         145
  C:B441H         LINE#         146
  C:B441H         LINE#         147
  C:B444H         LINE#         148
  C:B446H         LINE#         149
  C:B44BH         LINE#         150
  -------         ENDPROC       L_D_M
  -------         PROC          L?0056
  -------         ENDPROC       L?0056
  -------         PROC          _WR_EEPROM
  D:0002H         SYMBOL        control
  D:0004H         SYMBOL        Dir
  D:0003H         SYMBOL        data_eeprom
  -------         DO            
  D:0005H         SYMBOL        dir_h
  D:0001H         SYMBOL        dir_l
  -------         ENDDO         
  C:B36CH         LINE#         156
  C:B36EH         LINE#         157
  C:B36EH         LINE#         159
  C:B372H         LINE#         160
  C:B372H         LINE#         161
BL51 BANKED LINKER/LOCATER V6.22.2.0                                                  06/04/2021  16:31:58  PAGE 40


  C:B372H         LINE#         164
  C:B372H         LINE#         165
  C:B372H         LINE#         167
  C:B375H         LINE#         168
  C:B377H         LINE#         169
  C:B37AH         LINE#         170
  C:B37CH         LINE#         171
  C:B37FH         LINE#         172
  C:B384H         LINE#         173
  C:B387H         LINE#         174
  C:B38CH         LINE#         175
  C:B38FH         LINE#         176
  C:B392H         LINE#         177
  C:B399H         LINE#         179
  C:B39BH         LINE#         180
  C:B39DH         LINE#         181
  C:B3A4H         LINE#         182
  -------         ENDPROC       _WR_EEPROM
  C:BA69H         SYMBOL        L?0060
  -------         PROC          L?0059
  -------         ENDPROC       L?0059
  C:BA69H         SYMBOL        L?0060
  -------         PROC          _RD_EEPROM
  D:0003H         SYMBOL        control
  D:0004H         SYMBOL        Dir
  -------         DO            
  D:0005H         SYMBOL        dir_h
  D:0002H         SYMBOL        dir_l
  -------         ENDDO         
  C:BA6DH         LINE#         220
  C:BA6FH         LINE#         221
  C:BA6FH         LINE#         224
  C:BA73H         LINE#         225
  C:BA73H         LINE#         226
  C:BA73H         LINE#         228
  C:BA73H         LINE#         229
  C:BA73H         LINE#         231
  C:BA76H         LINE#         232
  C:BA78H         LINE#         233
  C:BA7BH         LINE#         234
  C:BA7DH         LINE#         235
  C:BA80H         LINE#         236
  C:BA85H         LINE#         237
  C:BA88H         LINE#         238
  C:BA8BH         LINE#         239
  C:BA91H         LINE#         240
  C:BA94H         LINE#         241
  C:BA96H         LINE#         242
  C:BA99H         LINE#         243
  C:BA9CH         LINE#         244
  C:BA9EH         LINE#         245
  C:BAA0H         LINE#         246
  C:BAA5H         LINE#         247
  -------         ENDPROC       _RD_EEPROM
  -------         PROC          _GRABA_SERIE
  X:0019H         SYMBOL        buffer
  -------         DO            
BL51 BANKED LINKER/LOCATER V6.22.2.0                                                  06/04/2021  16:31:58  PAGE 41


  X:001CH         SYMBOL        j
  X:001DH         SYMBOL        error
  -------         ENDDO         
  C:8BB8H         LINE#         254
  C:8BC3H         LINE#         255
  C:8BC3H         LINE#         258
  C:8BC8H         LINE#         263
  C:8BDAH         LINE#         265
  C:8BEDH         LINE#         266
  C:8BEDH         LINE#         267
  C:8C16H         LINE#         268
  C:8C16H         LINE#         269
  C:8C1CH         LINE#         271
  C:8C25H         LINE#         272
  C:8C33H         LINE#         273
  C:8C3CH         LINE#         274
  C:8C3CH         LINE#         276
  C:8C44H         LINE#         280
  C:8C4AH         LINE#         281
  C:8C4AH         LINE#         282
  C:8C58H         LINE#         284
  C:8C58H         LINE#         286
  C:8C58H         LINE#         287
  C:8C62H         LINE#         288
  C:8C6DH         LINE#         289
  C:8C78H         LINE#         290
  C:8C83H         LINE#         292
  C:8C83H         LINE#         293
  -------         ENDPROC       _GRABA_SERIE
  -------         PROC          _WRITE_EEPROM_TICKET
  X:001EH         SYMBOL        buffer
  -------         DO            
  X:0021H         SYMBOL        cod_3
  X:0022H         SYMBOL        cod_2
  X:0023H         SYMBOL        cod_1
  X:0024H         SYMBOL        cod_0
  X:0025H         SYMBOL        Noticket
  D:0004H         SYMBOL        Bnoticket
  -------         ENDDO         
  C:84C0H         LINE#         294
  C:84CBH         LINE#         295
  C:84CBH         LINE#         297
  C:84D3H         LINE#         298
  C:84DCH         LINE#         299
  C:84EAH         LINE#         300
  C:84F3H         LINE#         301
  C:8507H         LINE#         303
  C:8510H         LINE#         304
  C:8523H         LINE#         305
  C:8528H         LINE#         306
  C:852BH         LINE#         308
  C:853EH         LINE#         309
  C:8543H         LINE#         310
  C:8546H         LINE#         312
  C:8559H         LINE#         313
  C:855EH         LINE#         314
  C:8561H         LINE#         316
BL51 BANKED LINKER/LOCATER V6.22.2.0                                                  06/04/2021  16:31:58  PAGE 42


  C:856DH         LINE#         317
  C:8570H         LINE#         318
  C:8579H         LINE#         320
  C:8587H         LINE#         321
  C:8595H         LINE#         322
  C:85A3H         LINE#         323
  -------         ENDPROC       _WRITE_EEPROM_TICKET
  -------         PROC          LEE_NO_TICKET
  -------         DO            
  D:0004H         SYMBOL        Noticket
  X:004CH         SYMBOL        Lee_No_Ticket
  D:0007H         SYMBOL        num_chr
  -------         ENDDO         
  C:B44CH         LINE#         328
  C:B44CH         LINE#         329
  C:B44CH         LINE#         333
  C:B44FH         LINE#         334
  C:B46AH         LINE#         335
  C:B473H         LINE#         336
  C:B47FH         LINE#         337
  C:B488H         LINE#         338
  C:B491H         LINE#         339
  C:B497H         LINE#         340
  -------         ENDPROC       LEE_NO_TICKET
  -------         PROC          READ_EEPROM_TICKET
  -------         DO            
  D:0001H         SYMBOL        cod3
  X:0057H         SYMBOL        cod2
  X:0058H         SYMBOL        cod1
  X:0059H         SYMBOL        cod0
  X:005AH         SYMBOL        Noticket
  -------         ENDDO         
  C:8D4FH         LINE#         344
  C:8D4FH         LINE#         345
  C:8D4FH         LINE#         347
  C:8D59H         LINE#         348
  C:8D60H         LINE#         349
  C:8D6AH         LINE#         350
  C:8D78H         LINE#         351
  C:8D82H         LINE#         353
  C:8DA2H         LINE#         354
  C:8DC7H         LINE#         355
  C:8DECH         LINE#         356
  C:8E0AH         LINE#         357
  C:8E18H         LINE#         358
  -------         ENDPROC       READ_EEPROM_TICKET
  -------         PROC          INCREMENTE_TICKET
  -------         DO            
  D:0004H         SYMBOL        Noticket
  X:030CH         SYMBOL        Lee_No_Ticket
  -------         ENDDO         
  C:BCE2H         LINE#         362
  C:BCE2H         LINE#         363
  C:BCE2H         LINE#         367
  C:BCE5H         LINE#         368
  C:BCF2H         LINE#         369
  C:BD0DH         LINE#         370
BL51 BANKED LINKER/LOCATER V6.22.2.0                                                  06/04/2021  16:31:58  PAGE 43


  -------         ENDPROC       INCREMENTE_TICKET
  -------         PROC          _LEERMEMORIA
  X:009CH         SYMBOL        addres
  X:009EH         SYMBOL        res
  -------         DO            
  D:0007H         SYMBOL        i
  -------         ENDDO         
  C:B11BH         LINE#         376
  C:B12CH         LINE#         377
  C:B12CH         LINE#         379
  C:B12CH         LINE#         380
  C:B148H         LINE#         381
  C:B157H         LINE#         382
  C:B165H         LINE#         383
  C:B16FH         LINE#         384
  C:B172H         LINE#         385
  -------         ENDPROC       _LEERMEMORIA
  -------         PROC          _ESCRIBIRMEMORIA
  X:005DH         SYMBOL        addres
  X:005FH         SYMBOL        res
  C:AEFEH         LINE#         387
  C:AF0FH         LINE#         388
  C:AF0FH         LINE#         391
  C:AF1FH         LINE#         392
  C:AF26H         LINE#         393
  C:AF29H         LINE#         395
  C:AF37H         LINE#         396
  C:AF41H         LINE#         397
  C:AF43H         LINE#         398
  C:AF46H         LINE#         399
  C:AF54H         LINE#         400
  C:AF5EH         LINE#         401
  -------         ENDPROC       _ESCRIBIRMEMORIA
  -------         ENDMOD        EEPROM

  -------         MODULE        IO_SENSORES
  C:0000H         SYMBOL        _ICE_DUMMY_
  D:0090H         PUBLIC        P1
  D:00B0H         PUBLIC        P3
  C:B7A9H         PUBLIC        Dir_board
  B:0021H.7       PUBLIC        PULSADOR_BOTTON
  C:C1B9H         PUBLIC        sel_Pulsa
  B:0090H.1       PUBLIC        DataIn
  C:C099H         PUBLIC        Dir_Board_Monitor
  C:C1B2H         PUBLIC        sel_Auto
  C:BC0AH         PUBLIC        ValidaSensoresPaso
  B:00B0H.3       PUBLIC        busy
  C:BFDCH         PUBLIC        ValidaSensor
  C:C1C7H         PUBLIC        sel_Sensor1
  C:C1C0H         PUBLIC        sel_Sensor2
  C:BF59H         PUBLIC        ValidaSensor_cero
  C:B2FAH         PUBLIC        Valida_Sensor1_Auto
  B:00B0H.5       PUBLIC        sel_A
  B:00B0H.6       PUBLIC        sel_B
  B:00B0H.7       PUBLIC        sel_C
  C:A899H         PUBLIC        msj_lcd_informativo
  C:C1CEH         PUBLIC        sel_Dir1
BL51 BANKED LINKER/LOCATER V6.22.2.0                                                  06/04/2021  16:31:58  PAGE 44


  C:C1D5H         PUBLIC        sel_Dir2
  C:C0FBH         PUBLIC        Botton
  C:C1ABH         PUBLIC        sel_Funcion
  -------         PROC          SEL_FUNCION
  C:C1ABH         LINE#         33
  C:C1ABH         LINE#         34
  C:C1ABH         LINE#         35
  C:C1ADH         LINE#         36
  C:C1AFH         LINE#         37
  C:C1B1H         LINE#         38
  -------         ENDPROC       SEL_FUNCION
  -------         PROC          SEL_AUTO
  C:C1B2H         LINE#         40
  C:C1B2H         LINE#         41
  C:C1B2H         LINE#         42
  C:C1B4H         LINE#         43
  C:C1B6H         LINE#         44
  C:C1B8H         LINE#         45
  -------         ENDPROC       SEL_AUTO
  -------         PROC          SEL_PULSA
  C:C1B9H         LINE#         47
  C:C1B9H         LINE#         48
  C:C1B9H         LINE#         49
  C:C1BBH         LINE#         50
  C:C1BDH         LINE#         51
  C:C1BFH         LINE#         52
  -------         ENDPROC       SEL_PULSA
  -------         PROC          SEL_SENSOR2
  C:C1C0H         LINE#         55
  C:C1C0H         LINE#         56
  C:C1C0H         LINE#         57
  C:C1C2H         LINE#         58
  C:C1C4H         LINE#         59
  C:C1C6H         LINE#         60
  -------         ENDPROC       SEL_SENSOR2
  -------         PROC          SEL_SENSOR1
  C:C1C7H         LINE#         62
  C:C1C7H         LINE#         63
  C:C1C7H         LINE#         64
  C:C1C9H         LINE#         65
  C:C1CBH         LINE#         66
  C:C1CDH         LINE#         67
  -------         ENDPROC       SEL_SENSOR1
  -------         PROC          SEL_DIR1
  C:C1CEH         LINE#         69
  C:C1CEH         LINE#         70
  C:C1CEH         LINE#         71
  C:C1D0H         LINE#         72
  C:C1D2H         LINE#         73
  C:C1D4H         LINE#         74
  -------         ENDPROC       SEL_DIR1
  -------         PROC          SEL_DIR2
  C:C1D5H         LINE#         76
  C:C1D5H         LINE#         77
  C:C1D5H         LINE#         78
  C:C1D7H         LINE#         79
  C:C1D9H         LINE#         80
BL51 BANKED LINKER/LOCATER V6.22.2.0                                                  06/04/2021  16:31:58  PAGE 45


  C:C1DBH         LINE#         81
  -------         ENDPROC       SEL_DIR2
  -------         PROC          BOTTON
  C:C0FBH         LINE#         82
  C:C0FBH         LINE#         83
  C:C0FBH         LINE#         84
  C:C0FEH         LINE#         85
  C:C101H         LINE#         86
  C:C101H         LINE#         87
  C:C10AH         LINE#         88
  C:C10CH         LINE#         89
  C:C10CH         LINE#         91
  -------         ENDPROC       BOTTON
  -------         PROC          VALIDASENSOR
  -------         DO            
  D:0007H         SYMBOL        Valido
  D:0004H         SYMBOL        Tmin
  -------         ENDDO         
  C:BFDCH         LINE#         93
  C:BFDCH         LINE#         94
  C:BFDCH         LINE#         96
  C:BFDEH         LINE#         97
  C:BFE2H         LINE#         98
  C:BFEDH         LINE#         99
  C:BFEDH         LINE#         100
  C:BFF2H         LINE#         101
  C:BFF6H         LINE#         102
  C:BFF6H         LINE#         103
  C:BFF8H         LINE#         104
  C:BFF8H         LINE#         105
  C:BFFAH         LINE#         106
  C:BFFAH         LINE#         107
  -------         ENDPROC       VALIDASENSOR
  -------         PROC          VALIDASENSOR_CERO
  -------         DO            
  D:0007H         SYMBOL        Valido
  D:0004H         SYMBOL        Tmin
  -------         ENDDO         
  C:BF59H         LINE#         108
  C:BF59H         LINE#         109
  C:BF59H         LINE#         111
  C:BF5BH         LINE#         112
  C:BF5FH         LINE#         113
  C:BF6EH         LINE#         114
  C:BF6EH         LINE#         115
  C:BF73H         LINE#         116
  C:BF77H         LINE#         117
  C:BF77H         LINE#         118
  C:BF78H         LINE#         119
  C:BF78H         LINE#         120
  C:BF7AH         LINE#         121
  C:BF7AH         LINE#         122
  -------         ENDPROC       VALIDASENSOR_CERO
  -------         PROC          DIR_BOARD
  -------         DO            
  X:003BH         SYMBOL        Board
  D:0007H         SYMBOL        Board_High
BL51 BANKED LINKER/LOCATER V6.22.2.0                                                  06/04/2021  16:31:58  PAGE 46


  -------         ENDDO         
  C:B7A9H         LINE#         126
  C:B7A9H         LINE#         127
  C:B7A9H         LINE#         128
  C:B7AFH         LINE#         130
  C:B7B2H         LINE#         131
  C:B7B5H         LINE#         132
  C:B7B5H         LINE#         133
  C:B7B8H         LINE#         134
  C:B7B8H         LINE#         135
  C:B7BBH         LINE#         136
  C:B7BEH         LINE#         137
  C:B7BEH         LINE#         138
  C:B7C5H         LINE#         139
  C:B7C5H         LINE#         140
  C:B7CDH         LINE#         141
  C:B7CDH         LINE#         142
  C:B7D5H         LINE#         144
  C:B7D8H         LINE#         145
  C:B7D8H         LINE#         146
  C:B7DEH         LINE#         147
  C:B7DEH         LINE#         148
  C:B7E0H         LINE#         149
  C:B7E2H         LINE#         150
  C:B7E4H         LINE#         151
  C:B7E4H         LINE#         153
  C:B7E4H         LINE#         154
  C:B7EBH         LINE#         155
  -------         ENDPROC       DIR_BOARD
  -------         PROC          DIR_BOARD_MONITOR
  -------         DO            
  D:0007H         SYMBOL        Board_High
  -------         ENDDO         
  C:C099H         LINE#         156
  C:C099H         LINE#         157
  C:C099H         LINE#         160
  C:C0A2H         LINE#         161
  C:C0A5H         LINE#         162
  C:C0A5H         LINE#         163
  C:C0A8H         LINE#         164
  C:C0A8H         LINE#         165
  C:C0AAH         LINE#         166
  C:C0AAH         LINE#         167
  C:C0AAH         LINE#         168
  C:C0AEH         LINE#         169
  -------         ENDPROC       DIR_BOARD_MONITOR
  -------         PROC          VALIDA_SENSOR1_AUTO
  -------         DO            
  X:001AH         SYMBOL        sensor
  -------         ENDDO         
  C:B2FAH         LINE#         173
  C:B2FAH         LINE#         174
  C:B2FAH         LINE#         176
  C:B2FDH         LINE#         177
  C:B300H         LINE#         178
  C:B303H         LINE#         179
  C:B308H         LINE#         180
BL51 BANKED LINKER/LOCATER V6.22.2.0                                                  06/04/2021  16:31:58  PAGE 47


  C:B308H         LINE#         181
  C:B30FH         LINE#         182
  C:B313H         LINE#         183
  C:B313H         LINE#         184
  C:B313H         LINE#         185
  C:B315H         LINE#         187
  C:B315H         LINE#         188
  C:B31CH         LINE#         189
  C:B321H         LINE#         190
  C:B321H         LINE#         191
  C:B321H         LINE#         192
  C:B321H         LINE#         195
  C:B323H         LINE#         197
  C:B326H         LINE#         198
  C:B32BH         LINE#         199
  C:B32BH         LINE#         201
  C:B332H         LINE#         202
  C:B338H         LINE#         203
  C:B33EH         LINE#         204
  C:B341H         LINE#         205
  C:B343H         LINE#         207
  C:B343H         LINE#         208
  C:B34AH         LINE#         209
  C:B34FH         LINE#         210
  C:B34FH         LINE#         213
  C:B34FH         LINE#         215
  C:B354H         LINE#         216
  -------         ENDPROC       VALIDA_SENSOR1_AUTO
  -------         PROC          VALIDASENSORESPASO
  -------         DO            
  X:0019H         SYMBOL        sensor
  -------         ENDDO         
  C:BC0AH         LINE#         221
  C:BC0AH         LINE#         222
  C:BC0AH         LINE#         224
  C:BC0DH         LINE#         225
  C:BC10H         LINE#         226
  C:BC10H         LINE#         227
  C:BC1EH         LINE#         228
  C:BC1EH         LINE#         229
  C:BC26H         LINE#         231
  C:BC28H         LINE#         233
  C:BC28H         LINE#         234
  C:BC2EH         LINE#         235
  C:BC30H         LINE#         236
  C:BC30H         LINE#         237
  C:BC30H         LINE#         238
  C:BC30H         LINE#         239
  C:BC39H         LINE#         240
  C:BC3CH         LINE#         241
  C:BC3CH         LINE#         242
  C:BC41H         LINE#         243
  -------         ENDPROC       VALIDASENSORESPASO
  -------         PROC          MSJ_LCD_INFORMATIVO
  -------         DO            
  X:03F8H         SYMBOL        contador
  X:0001H         SYMBOL        info
BL51 BANKED LINKER/LOCATER V6.22.2.0                                                  06/04/2021  16:31:58  PAGE 48


  X:03F9H         SYMBOL        toggle
  -------         ENDDO         
  C:A899H         LINE#         253
  C:A899H         LINE#         254
  C:A899H         LINE#         256
  C:A89EH         LINE#         258
  C:A8A4H         LINE#         259
  C:A8AEH         LINE#         260
  C:A8AEH         LINE#         261
  C:A8B0H         LINE#         262
  C:A8B3H         LINE#         263
  C:A8BCH         LINE#         264
  C:A8BCH         LINE#         265
  C:A8C6H         LINE#         266
  C:A8C6H         LINE#         267
  C:A8D2H         LINE#         268
  C:A8D2H         LINE#         269
  C:A8D5H         LINE#         270
  C:A8D5H         LINE#         271
  C:A8D7H         LINE#         272
  C:A8DAH         LINE#         273
  C:A8E0H         LINE#         274
  C:A8E0H         LINE#         275
  C:A8EEH         LINE#         276
  C:A8EEH         LINE#         277
  C:A8F4H         LINE#         278
  C:A8F4H         LINE#         279
  C:A8F6H         LINE#         280
  C:A904H         LINE#         281
  C:A904H         LINE#         282
  C:A907H         LINE#         283
  C:A907H         LINE#         284
  C:A909H         LINE#         285
  C:A90CH         LINE#         286
  C:A911H         LINE#         287
  C:A911H         LINE#         288
  C:A911H         LINE#         289
  C:A911H         LINE#         290
  C:A911H         LINE#         291
  C:A914H         LINE#         292
  C:A917H         LINE#         293
  C:A917H         LINE#         294
  C:A91CH         LINE#         295
  C:A91CH         LINE#         296
  C:A91CH         LINE#         297
  -------         ENDPROC       MSJ_LCD_INFORMATIVO
  -------         ENDMOD        IO_SENSORES

  -------         MODULE        PANTALLAS
  C:0000H         SYMBOL        _ICE_DUMMY_
  D:0080H         PUBLIC        P0
  C:ACA9H         PUBLIC        Reloj_Pantalla_Lcd
  C:2776H         PUBLIC        _PantallaLCD
  C:B76DH         PUBLIC        _LCD_txt
  C:AA2EH         PUBLIC        _Raspberry_data
  C:BE84H         PUBLIC        _tx_chrlcd
  C:356BH         SYMBOL        _?ix1000
BL51 BANKED LINKER/LOCATER V6.22.2.0                                                  06/04/2021  16:31:58  PAGE 49


  C:3571H         SYMBOL        _?ix1001
  C:3577H         SYMBOL        _?ix1002
  C:359FH         SYMBOL        _?ix1003
  C:B694H         PUBLIC        _LCD_txt_num_char
  C:4D10H         PUBLIC        _PantallaLCD_LINEA_2
  B:0098H.4       PUBLIC        REN
  B:0080H.7       PUBLIC        sel_com
  -------         PROC          _PANTALLALCD
  X:0019H         SYMBOL        cod_msg
  -------         DO            
  X:001AH         SYMBOL        Ini_LCD_Line_one
  X:0020H         SYMBOL        num_chr
  X:0021H         SYMBOL        msjpantalla
  -------         ENDDO         
  C:2776H         LINE#         96
  C:277BH         LINE#         97
  C:277BH         LINE#         99
  C:278EH         LINE#         104
  C:2795H         LINE#         108
  C:2797H         LINE#         110
  C:27A0H         LINE#         111
  C:27A0H         LINE#         112
  C:27AAH         LINE#         114
  C:2806H         LINE#         115
  C:2806H         LINE#         117
  C:2806H         LINE#         118
  C:2814H         LINE#         119
  C:281AH         LINE#         120
  C:281DH         LINE#         121
  C:2823H         LINE#         122
  C:2826H         LINE#         124
  C:2826H         LINE#         126
  C:2834H         LINE#         127
  C:283AH         LINE#         128
  C:283DH         LINE#         129
  C:2843H         LINE#         130
  C:2846H         LINE#         132
  C:2846H         LINE#         134
  C:2854H         LINE#         135
  C:285AH         LINE#         136
  C:285DH         LINE#         137
  C:2863H         LINE#         138
  C:2866H         LINE#         139
  C:2866H         LINE#         140
  C:2874H         LINE#         141
  C:287AH         LINE#         142
  C:287DH         LINE#         143
  C:2883H         LINE#         144
  C:2886H         LINE#         145
  C:2886H         LINE#         146
  C:2894H         LINE#         147
  C:289AH         LINE#         148
  C:289DH         LINE#         149
  C:28A3H         LINE#         150
  C:28A6H         LINE#         151
  C:28A6H         LINE#         152
  C:28B4H         LINE#         153
BL51 BANKED LINKER/LOCATER V6.22.2.0                                                  06/04/2021  16:31:58  PAGE 50


  C:28BAH         LINE#         154
  C:28BDH         LINE#         155
  C:28C3H         LINE#         156
  C:28C6H         LINE#         157
  C:28C6H         LINE#         159
  C:28D4H         LINE#         160
  C:28DAH         LINE#         161
  C:28DDH         LINE#         162
  C:28E3H         LINE#         163
  C:28E6H         LINE#         164
  C:28E6H         LINE#         170
  C:28E6H         LINE#         171
  C:28F4H         LINE#         172
  C:28FAH         LINE#         173
  C:28FDH         LINE#         174
  C:2903H         LINE#         175
  C:2906H         LINE#         176
  C:2906H         LINE#         177
  C:2914H         LINE#         178
  C:291AH         LINE#         179
  C:291DH         LINE#         180
  C:2923H         LINE#         181
  C:2926H         LINE#         183
  C:2926H         LINE#         184
  C:2934H         LINE#         185
  C:293AH         LINE#         186
  C:293DH         LINE#         187
  C:2943H         LINE#         188
  C:2946H         LINE#         190
  C:2946H         LINE#         191
  C:2954H         LINE#         192
  C:295AH         LINE#         193
  C:295DH         LINE#         194
  C:2963H         LINE#         195
  C:2966H         LINE#         200
  C:2966H         LINE#         202
  C:2974H         LINE#         203
  C:297AH         LINE#         204
  C:297DH         LINE#         205
  C:2983H         LINE#         206
  C:2986H         LINE#         208
  C:2986H         LINE#         210
  C:2994H         LINE#         211
  C:299AH         LINE#         212
  C:299DH         LINE#         213
  C:29A3H         LINE#         214
  C:29A6H         LINE#         216
  C:29A6H         LINE#         217
  C:29B4H         LINE#         218
  C:29BAH         LINE#         219
  C:29BDH         LINE#         220
  C:29C3H         LINE#         221
  C:29C6H         LINE#         223
  C:29C6H         LINE#         225
  C:29D4H         LINE#         226
  C:29DAH         LINE#         227
  C:29DDH         LINE#         228
BL51 BANKED LINKER/LOCATER V6.22.2.0                                                  06/04/2021  16:31:58  PAGE 51


  C:29E3H         LINE#         229
  C:29E6H         LINE#         231
  C:29E6H         LINE#         233
  C:29F4H         LINE#         234
  C:29FAH         LINE#         235
  C:29FDH         LINE#         236
  C:2A03H         LINE#         237
  C:2A06H         LINE#         239
  C:2A06H         LINE#         240
  C:2A14H         LINE#         241
  C:2A1AH         LINE#         242
  C:2A1DH         LINE#         243
  C:2A23H         LINE#         244
  C:2A26H         LINE#         246
  C:2A26H         LINE#         247
  C:2A34H         LINE#         248
  C:2A3AH         LINE#         249
  C:2A3DH         LINE#         250
  C:2A43H         LINE#         251
  C:2A46H         LINE#         253
  C:2A46H         LINE#         255
  C:2A54H         LINE#         256
  C:2A5AH         LINE#         257
  C:2A5DH         LINE#         258
  C:2A63H         LINE#         259
  C:2A66H         LINE#         261
  C:2A66H         LINE#         262
  C:2A74H         LINE#         263
  C:2A7AH         LINE#         264
  C:2A7DH         LINE#         265
  C:2A83H         LINE#         266
  C:2A86H         LINE#         267
  C:2A86H         LINE#         268
  C:2A94H         LINE#         269
  C:2A9AH         LINE#         270
  C:2A9DH         LINE#         271
  C:2AA3H         LINE#         272
  C:2AA6H         LINE#         273
  C:2AA6H         LINE#         274
  C:2AB4H         LINE#         275
  C:2ABAH         LINE#         276
  C:2ABDH         LINE#         277
  C:2AC3H         LINE#         278
  C:2AC6H         LINE#         279
  C:2AC6H         LINE#         280
  C:2AD4H         LINE#         281
  C:2AD7H         LINE#         282
  C:2ADDH         LINE#         283
  C:2ADFH         LINE#         287
  C:2ADFH         LINE#         288
  C:2AEDH         LINE#         289
  C:2AF3H         LINE#         290
  C:2AF6H         LINE#         291
  C:2AFCH         LINE#         292
  C:2AFEH         LINE#         293
  C:2AFEH         LINE#         294
  C:2B0CH         LINE#         295
BL51 BANKED LINKER/LOCATER V6.22.2.0                                                  06/04/2021  16:31:58  PAGE 52


  C:2B12H         LINE#         296
  C:2B15H         LINE#         297
  C:2B1BH         LINE#         298
  C:2B1DH         LINE#         299
  C:2B1DH         LINE#         300
  C:2B2BH         LINE#         301
  C:2B31H         LINE#         302
  C:2B34H         LINE#         303
  C:2B3FH         LINE#         304
  C:2B3FH         LINE#         313
  C:2B3FH         LINE#         315
  C:2B3FH         LINE#         316
  C:2B3FH         LINE#         317
  C:2B41H         LINE#         319
  C:2B42H         LINE#         321
  C:2B42H         LINE#         322
  C:2B44H         LINE#         323
  C:2BB2H         LINE#         324
  C:2BB2H         LINE#         327
  C:2BB2H         LINE#         328
  C:2BC6H         LINE#         329
  C:2BC6H         LINE#         331
  C:2BC9H         LINE#         332
  C:2BC9H         LINE#         335
  C:2BDDH         LINE#         336
  C:2BDDH         LINE#         337
  C:2BE0H         LINE#         339
  C:2BE0H         LINE#         340
  C:2BF4H         LINE#         341
  C:2BF4H         LINE#         343
  C:2BF7H         LINE#         344
  C:2BF7H         LINE#         345
  C:2C0BH         LINE#         346
  C:2C0BH         LINE#         348
  C:2C0EH         LINE#         349
  C:2C0EH         LINE#         350
  C:2C22H         LINE#         351
  C:2C22H         LINE#         353
  C:2C25H         LINE#         354
  C:2C25H         LINE#         355
  C:2C39H         LINE#         356
  C:2C39H         LINE#         358
  C:2C3CH         LINE#         359
  C:2C3CH         LINE#         360
  C:2C50H         LINE#         361
  C:2C50H         LINE#         363
  C:2C53H         LINE#         364
  C:2C53H         LINE#         365
  C:2C67H         LINE#         366
  C:2C67H         LINE#         368
  C:2C6AH         LINE#         369
  C:2C6AH         LINE#         370
  C:2C7EH         LINE#         371
  C:2C7EH         LINE#         373
  C:2C81H         LINE#         374
  C:2C81H         LINE#         375
  C:2C95H         LINE#         376
BL51 BANKED LINKER/LOCATER V6.22.2.0                                                  06/04/2021  16:31:58  PAGE 53


  C:2C95H         LINE#         378
  C:2C98H         LINE#         380
  C:2C98H         LINE#         381
  C:2CACH         LINE#         382
  C:2CACH         LINE#         384
  C:2CAFH         LINE#         386
  C:2CAFH         LINE#         387
  C:2CC3H         LINE#         388
  C:2CC3H         LINE#         390
  C:2CC6H         LINE#         392
  C:2CC6H         LINE#         393
  C:2CDAH         LINE#         394
  C:2CDAH         LINE#         396
  C:2CDDH         LINE#         400
  C:2CDDH         LINE#         401
  C:2CF1H         LINE#         402
  C:2CF1H         LINE#         404
  C:2CF4H         LINE#         406
  C:2CF4H         LINE#         407
  C:2D08H         LINE#         408
  C:2D08H         LINE#         410
  C:2D0BH         LINE#         412
  C:2D0BH         LINE#         413
  C:2D1FH         LINE#         414
  C:2D1FH         LINE#         417
  C:2D22H         LINE#         418
  C:2D22H         LINE#         419
  C:2D36H         LINE#         420
  C:2D36H         LINE#         422
  C:2D39H         LINE#         423
  C:2D39H         LINE#         424
  C:2D4DH         LINE#         425
  C:2D4DH         LINE#         427
  C:2D50H         LINE#         428
  C:2D50H         LINE#         429
  C:2D64H         LINE#         430
  C:2D64H         LINE#         432
  C:2D67H         LINE#         433
  C:2D67H         LINE#         434
  C:2D7BH         LINE#         435
  C:2D7BH         LINE#         437
  C:2D7EH         LINE#         439
  C:2D7EH         LINE#         440
  C:2D92H         LINE#         441
  C:2D92H         LINE#         443
  C:2D95H         LINE#         445
  C:2D95H         LINE#         446
  C:2DA9H         LINE#         447
  C:2DA9H         LINE#         449
  C:2DACH         LINE#         450
  C:2DACH         LINE#         451
  C:2DC0H         LINE#         452
  C:2DC0H         LINE#         454
  C:2DC3H         LINE#         455
  C:2DC3H         LINE#         456
  C:2DD7H         LINE#         457
  C:2DD7H         LINE#         459
BL51 BANKED LINKER/LOCATER V6.22.2.0                                                  06/04/2021  16:31:58  PAGE 54


  C:2DDAH         LINE#         460
  C:2DDAH         LINE#         461
  C:2DEEH         LINE#         462
  C:2DEEH         LINE#         464
  C:2DF1H         LINE#         466
  C:2DF1H         LINE#         467
  C:2E05H         LINE#         468
  C:2E05H         LINE#         470
  C:2E08H         LINE#         471
  C:2E08H         LINE#         472
  C:2E1CH         LINE#         473
  C:2E1CH         LINE#         475
  C:2E1FH         LINE#         476
  C:2E1FH         LINE#         477
  C:2E33H         LINE#         478
  C:2E33H         LINE#         480
  C:2E35H         LINE#         482
  C:2E35H         LINE#         483
  C:2E49H         LINE#         484
  C:2E49H         LINE#         486
  C:2E4BH         LINE#         489
  C:2E4BH         LINE#         490
  C:2E5FH         LINE#         491
  C:2E5FH         LINE#         493
  C:2E61H         LINE#         494
  C:2E61H         LINE#         495
  C:2E75H         LINE#         496
  C:2E75H         LINE#         498
  C:2E77H         LINE#         499
  C:2E77H         LINE#         500
  C:2E8BH         LINE#         501
  C:2E8BH         LINE#         502
  C:2E8DH         LINE#         504
  C:2E8DH         LINE#         505
  C:2EA4H         LINE#         506
  C:2EB3H         LINE#         507
  C:2EB3H         LINE#         512
  C:2EB3H         LINE#         513
  C:2EB3H         LINE#         514
  C:2EB3H         LINE#         516
  C:2EBAH         LINE#         517
  C:2EBCH         LINE#         518
  C:2EBCH         LINE#         522
  -------         ENDPROC       _PANTALLALCD
  -------         PROC          _PANTALLALCD_LINEA_2
  X:0019H         SYMBOL        cod_msg
  X:001AH         SYMBOL        buffer
  -------         DO            
  X:001DH         SYMBOL        Ini_LCD_Line_one
  X:0023H         SYMBOL        num_chr
  X:0024H         SYMBOL        msjpantalla
  -------         ENDDO         
  C:4D10H         LINE#         523
  C:4D1EH         LINE#         524
  C:4D1EH         LINE#         526
  C:4D31H         LINE#         528
  C:4D44H         LINE#         535
BL51 BANKED LINKER/LOCATER V6.22.2.0                                                  06/04/2021  16:31:58  PAGE 55


  C:4D46H         LINE#         537
  C:4D4FH         LINE#         538
  C:4D4FH         LINE#         541
  C:4D5DH         LINE#         542
  C:4D5DH         LINE#         544
  C:4D5DH         LINE#         545
  C:4D60H         LINE#         546
  C:4D6EH         LINE#         547
  C:4D83H         LINE#         548
  C:4D89H         LINE#         549
  C:4D8FH         LINE#         550
  C:4D95H         LINE#         551
  C:4D95H         LINE#         552
  C:4D97H         LINE#         553
  C:4D97H         LINE#         554
  C:4D9AH         LINE#         555
  C:4DA8H         LINE#         556
  C:4DBDH         LINE#         557
  C:4DC3H         LINE#         558
  C:4DC9H         LINE#         559
  C:4DD4H         LINE#         560
  C:4DE4H         LINE#         561
  C:4DE4H         LINE#         565
  C:4DE4H         LINE#         567
  C:4DE4H         LINE#         569
  C:4DE4H         LINE#         570
  C:4DE6H         LINE#         571
  C:4DE7H         LINE#         573
  C:4DE7H         LINE#         574
  C:4DE9H         LINE#         576
  C:4E11H         LINE#         577
  C:4E11H         LINE#         578
  C:4E11H         LINE#         581
  C:4E1DH         LINE#         583
  C:4E1DH         LINE#         585
  C:4E1DH         LINE#         588
  C:4E1DH         LINE#         591
  C:4E20H         LINE#         593
  C:4E20H         LINE#         594
  C:4E2CH         LINE#         595
  C:4E2CH         LINE#         596
  C:4E2CH         LINE#         597
  C:4E2CH         LINE#         598
  C:4E2CH         LINE#         599
  C:4E2CH         LINE#         601
  C:4E2FH         LINE#         602
  C:4E2FH         LINE#         604
  C:4E3BH         LINE#         605
  C:4E3EH         LINE#         606
  C:4E41H         LINE#         607
  C:4E41H         LINE#         609
  C:4E4AH         LINE#         611
  C:4E4AH         LINE#         612
  C:4E4CH         LINE#         614
  C:4E4CH         LINE#         616
  C:4E5DH         LINE#         618
  C:4E60H         LINE#         620
BL51 BANKED LINKER/LOCATER V6.22.2.0                                                  06/04/2021  16:31:58  PAGE 56


  C:4E60H         LINE#         621
  C:4E6BH         LINE#         622
  C:4E6BH         LINE#         623
  C:4E72H         LINE#         625
  C:4E88H         LINE#         627
  C:4E9FH         LINE#         628
  C:4EA2H         LINE#         630
  C:4EA2H         LINE#         631
  C:4EA9H         LINE#         633
  C:4EA9H         LINE#         634
  C:4EA9H         LINE#         637
  C:4EACH         LINE#         638
  C:4EACH         LINE#         639
  C:4EBBH         LINE#         640
  C:4ED9H         LINE#         641
  C:4EF0H         LINE#         643
  C:4EF0H         LINE#         645
  C:4EF3H         LINE#         646
  C:4EF3H         LINE#         647
  C:4F02H         LINE#         648
  C:4F15H         LINE#         649
  C:4F2FH         LINE#         650
  C:4F4DH         LINE#         651
  C:4F64H         LINE#         652
  C:4F64H         LINE#         654
  C:4F66H         LINE#         655
  C:4F66H         LINE#         656
  C:4F75H         LINE#         657
  C:4F93H         LINE#         658
  C:4FAAH         LINE#         659
  C:4FADH         LINE#         660
  C:4FADH         LINE#         661
  C:4FADH         LINE#         663
  C:4FADH         LINE#         664
  C:4FADH         LINE#         666
  C:4FB2H         LINE#         667
  C:4FB4H         LINE#         668
  C:4FB4H         LINE#         669
  -------         ENDPROC       _PANTALLALCD_LINEA_2
  C:BE7BH         SYMBOL        L?0176
  C:BE7EH         SYMBOL        L?0177
  C:BE7FH         SYMBOL        L?0178
  -------         PROC          L?0175
  -------         ENDPROC       L?0175
  C:BE7BH         SYMBOL        L?0176
  C:BE7EH         SYMBOL        L?0177
  C:BE7FH         SYMBOL        L?0178
  -------         PROC          _TX_CHRLCD
  D:0007H         SYMBOL        data_com
  X:0051H         SYMBOL        enable_char_add
  -------         DO            
  X:0052H         SYMBOL        d
  -------         ENDDO         
  C:BE84H         LINE#         675
  C:BE89H         LINE#         676
  C:BE89H         LINE#         678
  C:BE91H         LINE#         679
BL51 BANKED LINKER/LOCATER V6.22.2.0                                                  06/04/2021  16:31:58  PAGE 57


  C:BEA1H         LINE#         681
  -------         ENDPROC       _TX_CHRLCD
  -------         PROC          L?0181
  -------         ENDPROC       L?0181
  -------         PROC          _LCD_TXT
  X:004CH         SYMBOL        msg
  X:004FH         SYMBOL        enable_char_add
  -------         DO            
  X:0050H         SYMBOL        i
  -------         ENDDO         
  C:B76DH         LINE#         688
  C:B77BH         LINE#         689
  C:B77BH         LINE#         692
  C:B798H         LINE#         693
  C:B798H         LINE#         694
  C:B7A0H         LINE#         695
  C:B7A8H         LINE#         696
  -------         ENDPROC       _LCD_TXT
  -------         PROC          _LCD_TXT_NUM_CHAR
  X:0026H         SYMBOL        msg
  X:0029H         SYMBOL        length_char
  X:002AH         SYMBOL        enable_char_add
  -------         DO            
  X:002BH         SYMBOL        i
  -------         ENDDO         
  C:B694H         LINE#         703
  C:B6A2H         LINE#         704
  C:B6A2H         LINE#         707
  C:B6B5H         LINE#         708
  C:B6B5H         LINE#         709
  C:B6D1H         LINE#         710
  C:B6D9H         LINE#         711
  -------         ENDPROC       _LCD_TXT_NUM_CHAR
  C:AA28H         SYMBOL        L?0180
  -------         PROC          L?0179
  -------         ENDPROC       L?0179
  C:AA28H         SYMBOL        L?0180
  -------         PROC          _RASPBERRY_DATA
  X:004CH         SYMBOL        msjpantalla
  -------         DO            
  X:004FH         SYMBOL        i
  X:0050H         SYMBOL        lenth_cadena
  X:0051H         SYMBOL        d
  -------         ENDDO         
  C:AA2EH         LINE#         713
  C:AA39H         LINE#         714
  C:AA39H         LINE#         721
  C:AA41H         LINE#         723
  C:AA53H         LINE#         724
  C:AA53H         LINE#         726
  C:AA65H         LINE#         727
  C:AA65H         LINE#         728
  C:AA6AH         LINE#         729
  C:AA88H         LINE#         731
  C:AA90H         LINE#         734
  C:AAA2H         LINE#         735
  C:AAA2H         LINE#         737
BL51 BANKED LINKER/LOCATER V6.22.2.0                                                  06/04/2021  16:31:58  PAGE 58


  C:AAA7H         LINE#         739
  -------         ENDPROC       _RASPBERRY_DATA
  -------         PROC          RELOJ_PANTALLA_LCD
  -------         DO            
  X:0019H         SYMBOL        Ini_Clock_LCD
  -------         ENDDO         
  C:ACA9H         LINE#         747
  C:ACA9H         LINE#         748
  C:ACA9H         LINE#         750
  C:ACBCH         LINE#         752
  C:ACC2H         LINE#         753
  C:ACC2H         LINE#         754
  C:ACC4H         LINE#         755
  C:ACCDH         LINE#         759
  C:ACCFH         LINE#         760
  C:ACDFH         LINE#         762
  C:ACE1H         LINE#         763
  C:ACE3H         LINE#         765
  C:ACE4H         LINE#         767
  C:ACE4H         LINE#         768
  C:ACE6H         LINE#         769
  C:ACEBH         LINE#         770
  C:ACFAH         LINE#         772
  C:AD03H         LINE#         773
  C:AD1AH         LINE#         774
  C:AD23H         LINE#         777
  C:AD25H         LINE#         778
  C:AD25H         LINE#         779
  -------         ENDPROC       RELOJ_PANTALLA_LCD
  -------         ENDMOD        PANTALLAS

  -------         MODULE        PROG
  C:0000H         SYMBOL        _ICE_DUMMY_
  C:5ADCH         PUBLIC        Prog_fecha_vencimiento
  C:6CDDH         PUBLIC        Prog_Sin_Cobro
  C:7790H         PUBLIC        _Ver_Horario_Desde_Hasta
  C:7DDCH         PUBLIC        Prog_debug
  C:80D0H         PUBLIC        Prog_AntiPassBack
  C:A3C5H         PUBLIC        _GetOption
  X:01B8H         PUBLIC        validacion
  C:82C8H         PUBLIC        Prog_Validar_Tipo_Vehiculo_Mensual
  X:01C3H         PUBLIC        cursor
  C:7676H         PUBLIC        _Prog_Horarios_on_off
  C:A036H         PUBLIC        Show
  C:442DH         PUBLIC        Ver_Prog
  C:BD16H         PUBLIC        Addr_Horarios
  C:971BH         PUBLIC        prog_id_cliente
  C:B7F4H         PUBLIC        _ValidarClave
  C:54AEH         PUBLIC        menu
  C:7ED8H         PUBLIC        Prog_Use_Lpr
  C:B181H         PUBLIC        _ListaComandos
  C:12F7H         SYMBOL        _?ix1000
  C:1302H         SYMBOL        _?ix1001
  C:1312H         SYMBOL        _?ix1002
  C:1322H         SYMBOL        _?ix1003
  C:1326H         SYMBOL        _?ix1004
  C:6B98H         PUBLIC        Prog_Horarios
BL51 BANKED LINKER/LOCATER V6.22.2.0                                                  06/04/2021  16:31:58  PAGE 59


  C:132AH         SYMBOL        _?ix1005
  C:83C4H         PUBLIC        Prog_Apb_Mensual
  C:912DH         PUBLIC        Prog_tarjeta_automatica_o_boton
  C:56DAH         PUBLIC        _hash_id
  C:4A59H         PUBLIC        _Prog_Horario_dias
  C:94EAH         PUBLIC        Prog_tiempo_gracia
  C:AB31H         PUBLIC        _IngresaDato
  X:01D7H         PUBLIC        comandos
  C:B578H         PUBLIC        First_Clave
  C:C06BH         PUBLIC        DisplayCursor
  C:81CCH         PUBLIC        Prog_Placa
  C:942DH         PUBLIC        prog_cod_park
  C:7095H         PUBLIC        Ver_Horario
  C:754EH         PUBLIC        _Ver_Horario_dias
  C:58E2H         PUBLIC        _Prog_Horario_Desde_Hasta
  C:7FD4H         PUBLIC        tipo_pantalla
  C:877FH         PUBLIC        Prog_Address_High_Board
  C:B8F7H         PUBLIC        _GetCMD
  -------         PROC          _HASH_ID
  X:005DH         SYMBOL        clave
  -------         DO            
  X:0060H         SYMBOL        len_clave
  X:0061H         SYMBOL        i
  X:01B4H         SYMBOL        temp
  X:01B6H         SYMBOL        temp1
  X:0062H         SYMBOL        aleatorio
  X:006DH         SYMBOL        suma
  X:007DH         SYMBOL        xxor
  X:008DH         SYMBOL        usuario1
  X:0098H         SYMBOL        vencimiento_password
  -------         ENDDO         
  C:56DAH         LINE#         121
  C:56E5H         LINE#         122
  C:56E5H         LINE#         125
  C:56F8H         LINE#         127
  C:570BH         LINE#         128
  C:571EH         LINE#         132
  C:572BH         LINE#         133
  C:5747H         LINE#         135
  C:5747H         LINE#         136
  C:574BH         LINE#         137
  C:574DH         LINE#         139
  C:574DH         LINE#         140
  C:5754H         LINE#         141
  C:5754H         LINE#         142
  C:5767H         LINE#         143
  C:577BH         LINE#         144
  C:577BH         LINE#         145
  C:57A7H         LINE#         146
  C:57B2H         LINE#         147
  C:57BFH         LINE#         148
  C:57DDH         LINE#         149
  C:57E8H         LINE#         150
  C:57F5H         LINE#         151
  C:5819H         LINE#         152
  C:5821H         LINE#         153
  C:5821H         LINE#         154
BL51 BANKED LINKER/LOCATER V6.22.2.0                                                  06/04/2021  16:31:58  PAGE 60


  C:5826H         LINE#         155
  C:5826H         LINE#         156
  C:583FH         LINE#         157
  C:583FH         LINE#         158
  C:584BH         LINE#         160
  C:584BH         LINE#         161
  C:585AH         LINE#         162
  C:585AH         LINE#         163
  C:5866H         LINE#         164
  C:5866H         LINE#         165
  C:587FH         LINE#         166
  C:587FH         LINE#         167
  C:588AH         LINE#         168
  C:588AH         LINE#         169
  C:58A3H         LINE#         170
  C:58A3H         LINE#         171
  C:58AEH         LINE#         172
  C:58AEH         LINE#         173
  C:58C3H         LINE#         175
  C:58CCH         LINE#         176
  C:58DBH         LINE#         178
  C:58E1H         LINE#         179
  -------         ENDPROC       _HASH_ID
  -------         PROC          _LISTACOMANDOS
  X:0046H         SYMBOL        cmd
  -------         DO            
  X:0049H         SYMBOL        buf
  X:004CH         SYMBOL        i
  -------         ENDDO         
  C:B181H         LINE#         186
  C:B18CH         LINE#         187
  C:B18CH         LINE#         191
  C:B19FH         LINE#         192
  C:B19FH         LINE#         193
  C:B1B7H         LINE#         194
  C:B1D2H         LINE#         195
  C:B1D8H         LINE#         196
  C:B1E0H         LINE#         198
  C:B1E2H         LINE#         199
  -------         ENDPROC       _LISTACOMANDOS
  -------         PROC          L?0274
  -------         ENDPROC       L?0274
  -------         PROC          _VALIDARCLAVE
  X:005DH         SYMBOL        buffer
  -------         DO            
  X:0060H         SYMBOL        buf
  -------         ENDDO         
  C:B7F4H         LINE#         205
  C:B7FFH         LINE#         206
  C:B7FFH         LINE#         209
  C:B80EH         LINE#         210
  C:B829H         LINE#         211
  C:B82BH         LINE#         214
  C:B82DH         LINE#         215
  -------         ENDPROC       _VALIDARCLAVE
  -------         PROC          L?0275
  -------         ENDPROC       L?0275
BL51 BANKED LINKER/LOCATER V6.22.2.0                                                  06/04/2021  16:31:58  PAGE 61


  -------         PROC          _GETCMD
  X:005DH         SYMBOL        in
  -------         DO            
  X:0060H         SYMBOL        tokens
  -------         ENDDO         
  C:B8F7H         LINE#         222
  C:B902H         LINE#         223
  C:B902H         LINE#         224
  C:B915H         LINE#         225
  -------         ENDPROC       _GETCMD
  -------         PROC          L?0273
  -------         ENDPROC       L?0273
  -------         PROC          _GETOPTION
  X:0046H         SYMBOL        in
  -------         DO            
  X:0049H         SYMBOL        tokensSpace
  X:004DH         SYMBOL        tokensQuote
  -------         ENDDO         
  C:A3C5H         LINE#         231
  C:A3D0H         LINE#         232
  C:A3D0H         LINE#         233
  C:A3E3H         LINE#         234
  C:A3F6H         LINE#         237
  C:A408H         LINE#         238
  C:A414H         LINE#         241
  C:A41BH         LINE#         242
  C:A428H         LINE#         244
  C:A441H         LINE#         245
  -------         ENDPROC       _GETOPTION
  -------         PROC          DISPLAYCURSOR
  C:C06BH         LINE#         250
  C:C06BH         LINE#         251
  C:C06BH         LINE#         252
  -------         ENDPROC       DISPLAYCURSOR
  C:AB2DH         SYMBOL        L?0272
  -------         PROC          L?0271
  -------         ENDPROC       L?0271
  C:AB2DH         SYMBOL        L?0272
  -------         PROC          _INGRESADATO
  X:0071H         SYMBOL        buffer
  X:0074H         SYMBOL        modo
  -------         DO            
  D:0006H         SYMBOL        i
  -------         ENDDO         
  C:AB31H         LINE#         259
  C:AB3FH         LINE#         260
  C:AB3FH         LINE#         265
  C:AB3FH         LINE#         266
  C:AB51H         LINE#         267
  C:AB57H         LINE#         268
  C:AB57H         LINE#         269
  C:AB72H         LINE#         270
  C:AB74H         LINE#         272
  C:AB74H         LINE#         273
  C:AB79H         LINE#         274
  C:AB79H         LINE#         275
  C:AB8AH         LINE#         276
BL51 BANKED LINKER/LOCATER V6.22.2.0                                                  06/04/2021  16:31:58  PAGE 62


  C:AB94H         LINE#         277
  C:ABA3H         LINE#         279
  C:ABA8H         LINE#         283
  -------         ENDPROC       _INGRESADATO
  -------         PROC          PROG_ID_CLIENTE
  -------         DO            
  X:0046H         SYMBOL        buffer
  X:0050H         SYMBOL        dataee
  -------         ENDDO         
  C:971BH         LINE#         300
  C:971BH         LINE#         301
  C:971BH         LINE#         305
  C:972DH         LINE#         306
  C:974AH         LINE#         308
  C:9761H         LINE#         310
  C:976AH         LINE#         311
  C:9771H         LINE#         312
  C:9782H         LINE#         313
  C:978BH         LINE#         315
  C:979DH         LINE#         316
  C:97BAH         LINE#         317
  -------         ENDPROC       PROG_ID_CLIENTE
  -------         PROC          PROG_COD_PARK
  -------         DO            
  X:0046H         SYMBOL        buffer
  X:0050H         SYMBOL        dataee
  -------         ENDDO         
  C:942DH         LINE#         322
  C:942DH         LINE#         323
  C:942DH         LINE#         327
  C:9440H         LINE#         328
  C:945DH         LINE#         330
  C:9474H         LINE#         332
  C:947DH         LINE#         333
  C:9488H         LINE#         334
  C:9499H         LINE#         335
  C:94A3H         LINE#         337
  C:94B6H         LINE#         338
  C:94D3H         LINE#         339
  -------         ENDPROC       PROG_COD_PARK
  -------         PROC          PROG_TIEMPO_GRACIA
  -------         DO            
  X:0046H         SYMBOL        buffer
  X:0050H         SYMBOL        dataee
  -------         ENDDO         
  C:94EAH         LINE#         344
  C:94EAH         LINE#         345
  C:94EAH         LINE#         349
  C:94FDH         LINE#         350
  C:951AH         LINE#         352
  C:9531H         LINE#         354
  C:953AH         LINE#         355
  C:9545H         LINE#         356
  C:9556H         LINE#         357
  C:9560H         LINE#         359
  C:9573H         LINE#         360
  C:9590H         LINE#         361
BL51 BANKED LINKER/LOCATER V6.22.2.0                                                  06/04/2021  16:31:58  PAGE 63


  -------         ENDPROC       PROG_TIEMPO_GRACIA
  -------         PROC          PROG_SIN_COBRO
  -------         DO            
  X:0046H         SYMBOL        buffer
  X:0050H         SYMBOL        dataee
  -------         ENDDO         
  C:6CDDH         LINE#         367
  C:6CDDH         LINE#         368
  C:6CDDH         LINE#         374
  C:6CF0H         LINE#         375
  C:6D0DH         LINE#         376
  C:6D17H         LINE#         377
  C:6D17H         LINE#         378
  C:6D2AH         LINE#         379
  C:6D2CH         LINE#         380
  C:6D38H         LINE#         381
  C:6D38H         LINE#         382
  C:6D4BH         LINE#         383
  C:6D4DH         LINE#         385
  C:6D4DH         LINE#         386
  C:6D64H         LINE#         387
  C:6D64H         LINE#         389
  C:6D6DH         LINE#         390
  C:6D78H         LINE#         391
  C:6D89H         LINE#         392
  C:6D93H         LINE#         394
  C:6DA6H         LINE#         395
  C:6DC3H         LINE#         396
  C:6DCDH         LINE#         397
  C:6DCDH         LINE#         398
  C:6DE0H         LINE#         399
  C:6DE2H         LINE#         400
  C:6DEEH         LINE#         401
  C:6DEEH         LINE#         402
  C:6E01H         LINE#         403
  C:6E03H         LINE#         405
  C:6E03H         LINE#         406
  C:6E1AH         LINE#         407
  C:6E1AH         LINE#         409
  -------         ENDPROC       PROG_SIN_COBRO
  -------         PROC          PROG_DEBUG
  -------         DO            
  X:0046H         SYMBOL        buffer
  X:0050H         SYMBOL        dataee
  -------         ENDDO         
  C:7DDCH         LINE#         415
  C:7DDCH         LINE#         416
  C:7DDCH         LINE#         421
  C:7DEFH         LINE#         422
  C:7E0CH         LINE#         423
  C:7E16H         LINE#         424
  C:7E16H         LINE#         425
  C:7E29H         LINE#         426
  C:7E2BH         LINE#         428
  C:7E2BH         LINE#         429
  C:7E42H         LINE#         430
  C:7E42H         LINE#         432
BL51 BANKED LINKER/LOCATER V6.22.2.0                                                  06/04/2021  16:31:58  PAGE 64


  C:7E4BH         LINE#         433
  C:7E56H         LINE#         434
  C:7E67H         LINE#         435
  C:7E71H         LINE#         437
  C:7E84H         LINE#         438
  C:7EA1H         LINE#         439
  C:7EABH         LINE#         440
  C:7EABH         LINE#         441
  C:7EBEH         LINE#         442
  C:7EC0H         LINE#         444
  C:7EC0H         LINE#         445
  C:7ED7H         LINE#         446
  C:7ED7H         LINE#         447
  -------         ENDPROC       PROG_DEBUG
  -------         PROC          PROG_USE_LPR
  -------         DO            
  X:0046H         SYMBOL        buffer
  X:0050H         SYMBOL        dataee
  -------         ENDDO         
  C:7ED8H         LINE#         452
  C:7ED8H         LINE#         453
  C:7ED8H         LINE#         458
  C:7EEBH         LINE#         459
  C:7F08H         LINE#         460
  C:7F12H         LINE#         461
  C:7F12H         LINE#         462
  C:7F25H         LINE#         463
  C:7F27H         LINE#         465
  C:7F27H         LINE#         466
  C:7F3EH         LINE#         467
  C:7F3EH         LINE#         469
  C:7F47H         LINE#         470
  C:7F52H         LINE#         471
  C:7F63H         LINE#         472
  C:7F6DH         LINE#         474
  C:7F80H         LINE#         475
  C:7F9DH         LINE#         476
  C:7FA7H         LINE#         477
  C:7FA7H         LINE#         478
  C:7FBAH         LINE#         479
  C:7FBCH         LINE#         481
  C:7FBCH         LINE#         482
  C:7FD3H         LINE#         483
  C:7FD3H         LINE#         484
  -------         ENDPROC       PROG_USE_LPR
  -------         PROC          TIPO_PANTALLA
  -------         DO            
  X:0046H         SYMBOL        buffer
  X:0050H         SYMBOL        dataee
  -------         ENDDO         
  C:7FD4H         LINE#         491
  C:7FD4H         LINE#         492
  C:7FD4H         LINE#         497
  C:7FE7H         LINE#         498
  C:8004H         LINE#         499
  C:800EH         LINE#         500
  C:800EH         LINE#         501
BL51 BANKED LINKER/LOCATER V6.22.2.0                                                  06/04/2021  16:31:58  PAGE 65


  C:8021H         LINE#         502
  C:8023H         LINE#         504
  C:8023H         LINE#         505
  C:803AH         LINE#         506
  C:803AH         LINE#         508
  C:8043H         LINE#         509
  C:804EH         LINE#         510
  C:805FH         LINE#         511
  C:8069H         LINE#         513
  C:807CH         LINE#         514
  C:8099H         LINE#         515
  C:80A3H         LINE#         516
  C:80A3H         LINE#         517
  C:80B6H         LINE#         518
  C:80B8H         LINE#         520
  C:80B8H         LINE#         521
  C:80CFH         LINE#         522
  C:80CFH         LINE#         524
  -------         ENDPROC       TIPO_PANTALLA
  -------         PROC          PROG_TARJETA_AUTOMATICA_O_BOTON
  -------         DO            
  X:0046H         SYMBOL        buffer
  X:0050H         SYMBOL        dataee
  -------         ENDDO         
  C:912DH         LINE#         525
  C:912DH         LINE#         526
  C:912DH         LINE#         531
  C:9140H         LINE#         532
  C:915DH         LINE#         533
  C:9169H         LINE#         534
  C:9169H         LINE#         535
  C:916DH         LINE#         536
  C:916FH         LINE#         538
  C:916FH         LINE#         539
  C:9176H         LINE#         540
  C:9176H         LINE#         542
  C:917FH         LINE#         543
  C:918AH         LINE#         544
  C:919BH         LINE#         545
  C:91A5H         LINE#         547
  C:91B8H         LINE#         548
  C:91D5H         LINE#         549
  C:91E1H         LINE#         550
  C:91E1H         LINE#         551
  C:91E5H         LINE#         552
  C:91E7H         LINE#         554
  C:91E7H         LINE#         555
  C:91EEH         LINE#         556
  C:91EEH         LINE#         557
  -------         ENDPROC       PROG_TARJETA_AUTOMATICA_O_BOTON
  -------         PROC          PROG_ANTIPASSBACK
  -------         DO            
  X:0046H         SYMBOL        buffer
  X:0050H         SYMBOL        dataee
  -------         ENDDO         
  C:80D0H         LINE#         558
  C:80D0H         LINE#         559
BL51 BANKED LINKER/LOCATER V6.22.2.0                                                  06/04/2021  16:31:58  PAGE 66


  C:80D0H         LINE#         564
  C:80E3H         LINE#         565
  C:8100H         LINE#         566
  C:810AH         LINE#         567
  C:810AH         LINE#         568
  C:811DH         LINE#         569
  C:811FH         LINE#         571
  C:811FH         LINE#         572
  C:8136H         LINE#         573
  C:8136H         LINE#         575
  C:813FH         LINE#         576
  C:814AH         LINE#         577
  C:815BH         LINE#         578
  C:8165H         LINE#         580
  C:8178H         LINE#         581
  C:8195H         LINE#         582
  C:819FH         LINE#         583
  C:819FH         LINE#         584
  C:81B2H         LINE#         585
  C:81B4H         LINE#         587
  C:81B4H         LINE#         588
  C:81CBH         LINE#         589
  C:81CBH         LINE#         590
  -------         ENDPROC       PROG_ANTIPASSBACK
  -------         PROC          PROG_PLACA
  -------         DO            
  X:0046H         SYMBOL        buffer
  X:0050H         SYMBOL        dataee
  -------         ENDDO         
  C:81CCH         LINE#         591
  C:81CCH         LINE#         592
  C:81CCH         LINE#         597
  C:81DFH         LINE#         598
  C:81FCH         LINE#         599
  C:8206H         LINE#         600
  C:8206H         LINE#         601
  C:8219H         LINE#         602
  C:821BH         LINE#         604
  C:821BH         LINE#         605
  C:8232H         LINE#         606
  C:8232H         LINE#         608
  C:823BH         LINE#         609
  C:8246H         LINE#         610
  C:8257H         LINE#         611
  C:8261H         LINE#         613
  C:8274H         LINE#         614
  C:8291H         LINE#         615
  C:829BH         LINE#         616
  C:829BH         LINE#         617
  C:82AEH         LINE#         618
  C:82B0H         LINE#         620
  C:82B0H         LINE#         621
  C:82C7H         LINE#         622
  C:82C7H         LINE#         623
  -------         ENDPROC       PROG_PLACA
  -------         PROC          PROG_ADDRESS_HIGH_BOARD
  -------         DO            
BL51 BANKED LINKER/LOCATER V6.22.2.0                                                  06/04/2021  16:31:58  PAGE 67


  X:0046H         SYMBOL        buffer
  X:0050H         SYMBOL        dataee
  -------         ENDDO         
  C:877FH         LINE#         624
  C:877FH         LINE#         625
  C:877FH         LINE#         630
  C:8792H         LINE#         631
  C:87AFH         LINE#         632
  C:87B9H         LINE#         633
  C:87B9H         LINE#         634
  C:87BDH         LINE#         635
  C:87BFH         LINE#         637
  C:87BFH         LINE#         638
  C:87D6H         LINE#         639
  C:87D6H         LINE#         641
  C:87DFH         LINE#         642
  C:87EAH         LINE#         643
  C:87FBH         LINE#         644
  C:8805H         LINE#         646
  C:8818H         LINE#         647
  C:8835H         LINE#         648
  C:883FH         LINE#         649
  C:883FH         LINE#         650
  C:8843H         LINE#         651
  C:8845H         LINE#         653
  C:8845H         LINE#         654
  C:885CH         LINE#         655
  C:885CH         LINE#         656
  -------         ENDPROC       PROG_ADDRESS_HIGH_BOARD
  -------         PROC          ADDR_HORARIOS
  -------         DO            
  X:0074H         SYMBOL        ee_addr_horario
  -------         ENDDO         
  C:BD16H         LINE#         658
  C:BD16H         LINE#         659
  C:BD16H         LINE#         662
  C:BD1CH         LINE#         663
  C:BD20H         LINE#         664
  C:BD24H         LINE#         665
  C:BD28H         LINE#         666
  C:BD2CH         LINE#         667
  C:BD30H         LINE#         668
  C:BD34H         LINE#         669
  C:BD38H         LINE#         670
  C:BD3CH         LINE#         671
  C:BD40H         LINE#         672
  C:BD43H         LINE#         673
  C:BD49H         LINE#         674
  -------         ENDPROC       ADDR_HORARIOS
  -------         PROC          _PROG_HORARIOS_ON_OFF
  X:0061H         SYMBOL        addr
  -------         DO            
  X:0063H         SYMBOL        buffer
  X:006DH         SYMBOL        dataee
  X:006FH         SYMBOL        habilitado
  -------         ENDDO         
  C:7676H         LINE#         675
BL51 BANKED LINKER/LOCATER V6.22.2.0                                                  06/04/2021  16:31:58  PAGE 68


  C:7680H         LINE#         676
  C:7680H         LINE#         679
  C:768FH         LINE#         680
  C:76ACH         LINE#         681
  C:76B6H         LINE#         682
  C:76B6H         LINE#         683
  C:76C9H         LINE#         684
  C:76CBH         LINE#         686
  C:76CBH         LINE#         687
  C:76E2H         LINE#         688
  C:76E2H         LINE#         689
  C:76EBH         LINE#         690
  C:76F6H         LINE#         691
  C:7707H         LINE#         692
  C:7716H         LINE#         694
  C:772DH         LINE#         695
  C:774AH         LINE#         696
  C:7757H         LINE#         697
  C:7757H         LINE#         698
  C:775AH         LINE#         699
  C:776DH         LINE#         700
  C:776FH         LINE#         702
  C:776FH         LINE#         703
  C:7774H         LINE#         704
  C:7789H         LINE#         705
  C:7789H         LINE#         706
  C:778FH         LINE#         707
  -------         ENDPROC       _PROG_HORARIOS_ON_OFF
  -------         PROC          _PROG_HORARIO_DESDE_HASTA
  X:0061H         SYMBOL        addr
  -------         DO            
  X:0063H         SYMBOL        buffer
  D:0007H         SYMBOL        dataee
  -------         ENDDO         
  C:58E2H         LINE#         708
  C:58EAH         LINE#         709
  C:58EAH         LINE#         714
  C:58F3H         LINE#         715
  C:58F6H         LINE#         716
  C:58FFH         LINE#         717
  C:5917H         LINE#         718
  C:592AH         LINE#         719
  C:5938H         LINE#         720
  C:5950H         LINE#         721
  C:5963H         LINE#         722
  C:5971H         LINE#         723
  C:5989H         LINE#         724
  C:599CH         LINE#         725
  C:59AAH         LINE#         726
  C:59C2H         LINE#         727
  C:59D5H         LINE#         728
  C:59E3H         LINE#         732
  C:59ECH         LINE#         733
  C:59EFH         LINE#         735
  C:59F8H         LINE#         737
  C:5A10H         LINE#         738
  C:5A23H         LINE#         739
BL51 BANKED LINKER/LOCATER V6.22.2.0                                                  06/04/2021  16:31:58  PAGE 69


  C:5A31H         LINE#         740
  C:5A49H         LINE#         741
  C:5A5CH         LINE#         742
  C:5A6AH         LINE#         743
  C:5A82H         LINE#         744
  C:5A95H         LINE#         745
  C:5AA3H         LINE#         746
  C:5ABBH         LINE#         747
  C:5ACEH         LINE#         748
  -------         ENDPROC       _PROG_HORARIO_DESDE_HASTA
  -------         PROC          _VER_HORARIO_DESDE_HASTA
  X:0074H         SYMBOL        addr
  -------         DO            
  D:0007H         SYMBOL        dataee
  -------         ENDDO         
  C:7790H         LINE#         750
  C:7798H         LINE#         751
  C:7798H         LINE#         753
  C:77A1H         LINE#         754
  C:77B4H         LINE#         755
  C:77C2H         LINE#         756
  C:77D5H         LINE#         757
  C:77E3H         LINE#         758
  C:77F6H         LINE#         759
  C:7804H         LINE#         760
  C:7817H         LINE#         761
  C:7825H         LINE#         763
  C:7838H         LINE#         764
  C:7846H         LINE#         766
  C:7859H         LINE#         767
  C:7867H         LINE#         769
  C:787AH         LINE#         770
  C:7888H         LINE#         772
  C:789BH         LINE#         773
  -------         ENDPROC       _VER_HORARIO_DESDE_HASTA
  -------         PROC          _PROG_HORARIO_DIAS
  X:0061H         SYMBOL        addr
  -------         DO            
  X:0063H         SYMBOL        buffer
  X:006DH         SYMBOL        dataee
  X:006EH         SYMBOL        j
  X:006FH         SYMBOL        temp
  -------         ENDDO         
  C:4A59H         LINE#         775
  C:4A61H         LINE#         776
  C:4A61H         LINE#         780
  C:4A6AH         LINE#         781
  C:4A73H         LINE#         782
  C:4A7CH         LINE#         783
  C:4A87H         LINE#         786
  C:4A90H         LINE#         788
  C:4AA6H         LINE#         789
  C:4AA6H         LINE#         791
  C:4AB9H         LINE#         792
  C:4AB9H         LINE#         793
  C:4AC2H         LINE#         795
  C:4AD7H         LINE#         796
BL51 BANKED LINKER/LOCATER V6.22.2.0                                                  06/04/2021  16:31:58  PAGE 70


  C:4AEFH         LINE#         797
  C:4AFCH         LINE#         798
  C:4AFCH         LINE#         800
  C:4B12H         LINE#         801
  C:4B12H         LINE#         802
  C:4B1BH         LINE#         803
  C:4B30H         LINE#         804
  C:4B48H         LINE#         805
  C:4B55H         LINE#         806
  C:4B55H         LINE#         808
  C:4B6BH         LINE#         809
  C:4B6BH         LINE#         810
  C:4B74H         LINE#         811
  C:4B89H         LINE#         812
  C:4BA1H         LINE#         813
  C:4BAEH         LINE#         814
  C:4BAEH         LINE#         816
  C:4BC4H         LINE#         817
  C:4BC4H         LINE#         818
  C:4BCDH         LINE#         819
  C:4BE2H         LINE#         820
  C:4BFAH         LINE#         821
  C:4C07H         LINE#         822
  C:4C07H         LINE#         824
  C:4C1DH         LINE#         825
  C:4C1DH         LINE#         826
  C:4C26H         LINE#         827
  C:4C3BH         LINE#         828
  C:4C53H         LINE#         829
  C:4C60H         LINE#         830
  C:4C60H         LINE#         832
  C:4C76H         LINE#         833
  C:4C76H         LINE#         834
  C:4C7FH         LINE#         835
  C:4C94H         LINE#         836
  C:4CACH         LINE#         837
  C:4CB9H         LINE#         838
  C:4CB9H         LINE#         840
  C:4CCFH         LINE#         841
  C:4CCFH         LINE#         842
  C:4CD8H         LINE#         843
  C:4CE7H         LINE#         844
  C:4CF9H         LINE#         845
  C:4D06H         LINE#         846
  C:4D06H         LINE#         847
  C:4D0FH         LINE#         849
  -------         ENDPROC       _PROG_HORARIO_DIAS
  -------         PROC          _VER_HORARIO_DIAS
  X:0074H         SYMBOL        addr
  -------         DO            
  X:0076H         SYMBOL        dataee
  -------         ENDDO         
  C:754EH         LINE#         850
  C:7556H         LINE#         851
  C:7556H         LINE#         854
  C:7566H         LINE#         855
  C:756CH         LINE#         856
BL51 BANKED LINKER/LOCATER V6.22.2.0                                                  06/04/2021  16:31:58  PAGE 71


  C:756CH         LINE#         857
  C:7570H         LINE#         858
  C:7572H         LINE#         860
  C:7572H         LINE#         861
  C:7579H         LINE#         862
  C:7579H         LINE#         865
  C:7591H         LINE#         866
  C:7597H         LINE#         867
  C:7597H         LINE#         868
  C:759BH         LINE#         869
  C:759DH         LINE#         871
  C:759DH         LINE#         872
  C:75A4H         LINE#         873
  C:75A4H         LINE#         876
  C:75BCH         LINE#         877
  C:75C2H         LINE#         878
  C:75C2H         LINE#         879
  C:75C6H         LINE#         880
  C:75C8H         LINE#         882
  C:75C8H         LINE#         883
  C:75CFH         LINE#         884
  C:75CFH         LINE#         886
  C:75E7H         LINE#         887
  C:75EDH         LINE#         888
  C:75EDH         LINE#         889
  C:75F1H         LINE#         890
  C:75F3H         LINE#         892
  C:75F3H         LINE#         893
  C:75FAH         LINE#         894
  C:75FAH         LINE#         896
  C:7612H         LINE#         897
  C:7618H         LINE#         898
  C:7618H         LINE#         899
  C:761CH         LINE#         900
  C:761EH         LINE#         902
  C:761EH         LINE#         903
  C:7625H         LINE#         904
  C:7625H         LINE#         907
  C:763DH         LINE#         908
  C:7643H         LINE#         909
  C:7643H         LINE#         910
  C:7647H         LINE#         911
  C:7649H         LINE#         913
  C:7649H         LINE#         914
  C:7650H         LINE#         915
  C:7650H         LINE#         917
  C:7662H         LINE#         918
  C:7668H         LINE#         919
  C:7668H         LINE#         920
  C:766CH         LINE#         921
  C:766EH         LINE#         923
  C:766EH         LINE#         924
  C:7675H         LINE#         925
  C:7675H         LINE#         926
  -------         ENDPROC       _VER_HORARIO_DIAS
  -------         PROC          PROG_HORARIOS
  -------         DO            
BL51 BANKED LINKER/LOCATER V6.22.2.0                                                  06/04/2021  16:31:58  PAGE 72


  X:0046H         SYMBOL        buffer
  X:0050H         SYMBOL        ee_addr_horario
  X:005BH         SYMBOL        addr
  X:005DH         SYMBOL        temp
  X:005FH         SYMBOL        dataee
  X:0060H         SYMBOL        j
  -------         ENDDO         
  C:6B98H         LINE#         927
  C:6B98H         LINE#         928
  C:6B98H         LINE#         937
  C:6BA4H         LINE#         941
  C:6BADH         LINE#         942
  C:6BB8H         LINE#         944
  C:6BC7H         LINE#         948
  C:6BDDH         LINE#         949
  C:6BE3H         LINE#         953
  C:6BF1H         LINE#         954
  C:6BF9H         LINE#         955
  C:6BF9H         LINE#         957
  C:6C08H         LINE#         958
  C:6C1CH         LINE#         959
  C:6C1CH         LINE#         960
  C:6C30H         LINE#         961
  C:6C38H         LINE#         963
  C:6C48H         LINE#         966
  C:6C4BH         LINE#         970
  C:6C56H         LINE#         973
  C:6C5FH         LINE#         974
  C:6C6AH         LINE#         975
  C:6C79H         LINE#         976
  C:6C8CH         LINE#         978
  C:6CA4H         LINE#         979
  C:6CBEH         LINE#         980
  C:6CC6H         LINE#         981
  C:6CC6H         LINE#         983
  C:6CD4H         LINE#         984
  C:6CDCH         LINE#         985
  C:6CDCH         LINE#         986
  C:6CDCH         LINE#         988
  -------         ENDPROC       PROG_HORARIOS
  -------         PROC          PROG_VALIDAR_TIPO_VEHICULO_MENSUAL
  -------         DO            
  X:0046H         SYMBOL        buffer
  X:0050H         SYMBOL        dataee
  -------         ENDDO         
  C:82C8H         LINE#         989
  C:82C8H         LINE#         990
  C:82C8H         LINE#         995
  C:82DBH         LINE#         996
  C:82F8H         LINE#         997
  C:8302H         LINE#         998
  C:8302H         LINE#         999
  C:8315H         LINE#         1000
  C:8317H         LINE#         1002
  C:8317H         LINE#         1003
  C:832EH         LINE#         1004
  C:832EH         LINE#         1006
BL51 BANKED LINKER/LOCATER V6.22.2.0                                                  06/04/2021  16:31:58  PAGE 73


  C:8337H         LINE#         1007
  C:8342H         LINE#         1008
  C:8353H         LINE#         1009
  C:835DH         LINE#         1011
  C:8370H         LINE#         1012
  C:838DH         LINE#         1013
  C:8397H         LINE#         1014
  C:8397H         LINE#         1015
  C:83AAH         LINE#         1016
  C:83ACH         LINE#         1018
  C:83ACH         LINE#         1019
  C:83C3H         LINE#         1020
  C:83C3H         LINE#         1021
  -------         ENDPROC       PROG_VALIDAR_TIPO_VEHICULO_MENSUAL
  -------         PROC          PROG_APB_MENSUAL
  -------         DO            
  X:0046H         SYMBOL        buffer
  X:0050H         SYMBOL        dataee
  -------         ENDDO         
  C:83C4H         LINE#         1022
  C:83C4H         LINE#         1023
  C:83C4H         LINE#         1028
  C:83D7H         LINE#         1029
  C:83F4H         LINE#         1030
  C:83FEH         LINE#         1031
  C:83FEH         LINE#         1032
  C:8411H         LINE#         1033
  C:8413H         LINE#         1035
  C:8413H         LINE#         1036
  C:842AH         LINE#         1037
  C:842AH         LINE#         1039
  C:8433H         LINE#         1040
  C:843EH         LINE#         1041
  C:844FH         LINE#         1042
  C:8459H         LINE#         1044
  C:846CH         LINE#         1045
  C:8489H         LINE#         1046
  C:8493H         LINE#         1047
  C:8493H         LINE#         1048
  C:84A6H         LINE#         1049
  C:84A8H         LINE#         1051
  C:84A8H         LINE#         1052
  C:84BFH         LINE#         1053
  C:84BFH         LINE#         1054
  -------         ENDPROC       PROG_APB_MENSUAL
  -------         PROC          PROG_FECHA_VENCIMIENTO
  -------         DO            
  X:0046H         SYMBOL        buffer
  X:0051H         SYMBOL        cmd
  X:0054H         SYMBOL        fecha
  X:005BH         SYMBOL        dataee
  -------         ENDDO         
  C:5ADCH         LINE#         1056
  C:5ADCH         LINE#         1057
  C:5ADCH         LINE#         1064
  C:5AE9H         LINE#         1065
  C:5B00H         LINE#         1068
BL51 BANKED LINKER/LOCATER V6.22.2.0                                                  06/04/2021  16:31:58  PAGE 74


  C:5B17H         LINE#         1070
  C:5B17H         LINE#         1071
  C:5B20H         LINE#         1072
  C:5B2DH         LINE#         1073
  C:5B44H         LINE#         1074
  C:5B56H         LINE#         1075
  C:5B5FH         LINE#         1080
  C:5B6AH         LINE#         1081
  C:5B7EH         LINE#         1082
  C:5B8BH         LINE#         1084
  C:5B94H         LINE#         1087
  C:5B9DH         LINE#         1088
  C:5BA8H         LINE#         1089
  C:5BBFH         LINE#         1091
  C:5BC7H         LINE#         1092
  C:5BCFH         LINE#         1093
  C:5BD2H         LINE#         1095
  C:5BE3H         LINE#         1096
  C:5BF4H         LINE#         1098
  C:5C03H         LINE#         1099
  C:5C0BH         LINE#         1100
  C:5C13H         LINE#         1101
  C:5C16H         LINE#         1102
  C:5C27H         LINE#         1103
  C:5C38H         LINE#         1104
  C:5C47H         LINE#         1105
  C:5C4FH         LINE#         1106
  C:5C57H         LINE#         1107
  C:5C5AH         LINE#         1108
  C:5C6BH         LINE#         1109
  C:5C7CH         LINE#         1110
  C:5C8BH         LINE#         1111
  C:5C96H         LINE#         1113
  C:5CA3H         LINE#         1115
  C:5CBAH         LINE#         1116
  -------         ENDPROC       PROG_FECHA_VENCIMIENTO
  -------         PROC          VER_HORARIO
  -------         DO            
  X:0059H         SYMBOL        buffer
  X:0063H         SYMBOL        ee_addr_horario
  X:006EH         SYMBOL        conta
  X:006FH         SYMBOL        addr
  X:0071H         SYMBOL        temp
  X:0073H         SYMBOL        dataee
  -------         ENDDO         
  C:7095H         LINE#         1119
  C:7095H         LINE#         1120
  C:7095H         LINE#         1129
  C:70A1H         LINE#         1130
  C:70B7H         LINE#         1131
  C:70B7H         LINE#         1133
  C:70C7H         LINE#         1136
  C:70E0H         LINE#         1137
  C:70E6H         LINE#         1140
  C:70F4H         LINE#         1141
  C:7103H         LINE#         1142
  C:711DH         LINE#         1143
BL51 BANKED LINKER/LOCATER V6.22.2.0                                                  06/04/2021  16:31:58  PAGE 75


  C:7128H         LINE#         1144
  C:7128H         LINE#         1145
  C:7131H         LINE#         1147
  C:713AH         LINE#         1148
  C:714AH         LINE#         1149
  C:714DH         LINE#         1151
  C:7158H         LINE#         1152
  C:7170H         LINE#         1153
  C:718AH         LINE#         1154
  C:7194H         LINE#         1155
  C:7194H         LINE#         1156
  C:719BH         LINE#         1158
  C:71A9H         LINE#         1159
  C:71B1H         LINE#         1160
  C:71B3H         LINE#         1162
  C:71B3H         LINE#         1163
  C:71B7H         LINE#         1164
  C:71B7H         LINE#         1165
  C:71B9H         LINE#         1167
  C:71B9H         LINE#         1168
  C:71C2H         LINE#         1169
  C:71C2H         LINE#         1171
  C:71CBH         LINE#         1174
  -------         ENDPROC       VER_HORARIO
  -------         PROC          VER_PROG
  -------         DO            
  X:0046H         SYMBOL        buffer
  X:0050H         SYMBOL        dataee
  X:0052H         SYMBOL        fecha
  -------         ENDDO         
  C:442DH         LINE#         1175
  C:442DH         LINE#         1176
  C:442DH         LINE#         1182
  C:443FH         LINE#         1183
  C:445CH         LINE#         1185
  C:4473H         LINE#         1187
  C:4486H         LINE#         1188
  C:44A3H         LINE#         1190
  C:44BAH         LINE#         1192
  C:44CDH         LINE#         1193
  C:44EAH         LINE#         1194
  C:44F8H         LINE#         1195
  C:44F8H         LINE#         1196
  C:44FCH         LINE#         1197
  C:44FEH         LINE#         1199
  C:44FEH         LINE#         1200
  C:4505H         LINE#         1201
  C:4505H         LINE#         1203
  C:4518H         LINE#         1204
  C:4535H         LINE#         1205
  C:4541H         LINE#         1206
  C:4541H         LINE#         1207
  C:4545H         LINE#         1208
  C:4547H         LINE#         1210
  C:4547H         LINE#         1211
  C:454EH         LINE#         1212
  C:454EH         LINE#         1214
BL51 BANKED LINKER/LOCATER V6.22.2.0                                                  06/04/2021  16:31:58  PAGE 76


  C:4561H         LINE#         1215
  C:457EH         LINE#         1216
  C:458AH         LINE#         1217
  C:458AH         LINE#         1218
  C:458EH         LINE#         1219
  C:4590H         LINE#         1221
  C:4590H         LINE#         1222
  C:4597H         LINE#         1223
  C:4597H         LINE#         1225
  C:45AAH         LINE#         1226
  C:45C7H         LINE#         1227
  C:45D3H         LINE#         1228
  C:45D3H         LINE#         1229
  C:45D7H         LINE#         1230
  C:45D9H         LINE#         1232
  C:45D9H         LINE#         1233
  C:45E0H         LINE#         1234
  C:45E0H         LINE#         1236
  C:45F3H         LINE#         1237
  C:4610H         LINE#         1238
  C:461CH         LINE#         1239
  C:461CH         LINE#         1240
  C:4620H         LINE#         1241
  C:4622H         LINE#         1243
  C:4622H         LINE#         1244
  C:4629H         LINE#         1245
  C:4629H         LINE#         1247
  C:463CH         LINE#         1248
  C:4659H         LINE#         1249
  C:4665H         LINE#         1250
  C:4665H         LINE#         1251
  C:4669H         LINE#         1252
  C:466BH         LINE#         1254
  C:466BH         LINE#         1255
  C:4672H         LINE#         1256
  C:4672H         LINE#         1259
  C:4685H         LINE#         1260
  C:46A2H         LINE#         1262
  C:46B9H         LINE#         1264
  C:46BCH         LINE#         1268
  C:46CFH         LINE#         1269
  C:46ECH         LINE#         1270
  C:46F8H         LINE#         1271
  C:46F8H         LINE#         1272
  C:46FCH         LINE#         1273
  C:46FEH         LINE#         1275
  C:46FEH         LINE#         1276
  C:4705H         LINE#         1277
  C:4705H         LINE#         1279
  C:4718H         LINE#         1280
  C:4735H         LINE#         1281
  C:4741H         LINE#         1282
  C:4741H         LINE#         1283
  C:4745H         LINE#         1284
  C:4747H         LINE#         1286
  C:4747H         LINE#         1287
  C:474EH         LINE#         1288
BL51 BANKED LINKER/LOCATER V6.22.2.0                                                  06/04/2021  16:31:58  PAGE 77


  C:474EH         LINE#         1290
  C:475BH         LINE#         1292
  C:4772H         LINE#         1293
  -------         ENDPROC       VER_PROG
  -------         PROC          SHOW
  C:A036H         LINE#         1299
  C:A036H         LINE#         1300
  C:A036H         LINE#         1301
  C:A03FH         LINE#         1302
  C:A048H         LINE#         1303
  C:A051H         LINE#         1304
  C:A05AH         LINE#         1305
  C:A063H         LINE#         1306
  C:A06CH         LINE#         1307
  C:A075H         LINE#         1308
  C:A07EH         LINE#         1309
  C:A087H         LINE#         1310
  C:A090H         LINE#         1311
  C:A099H         LINE#         1312
  C:A0A2H         LINE#         1313
  C:A0ABH         LINE#         1314
  C:A0B4H         LINE#         1315
  C:A0BDH         LINE#         1316
  C:A0C6H         LINE#         1317
  -------         ENDPROC       SHOW
  -------         PROC          FIRST_CLAVE
  -------         DO            
  X:0046H         SYMBOL        clave
  -------         ENDDO         
  C:B578H         LINE#         1324
  C:B578H         LINE#         1325
  C:B578H         LINE#         1329
  C:B581H         LINE#         1330
  C:B586H         LINE#         1331
  C:B598H         LINE#         1332
  C:B5A5H         LINE#         1333
  C:B5ABH         LINE#         1334
  C:B5AEH         LINE#         1335
  C:B5B1H         LINE#         1336
  C:B5B3H         LINE#         1338
  -------         ENDPROC       FIRST_CLAVE
  -------         PROC          MENU
  -------         DO            
  X:0001H         SYMBOL        cmd
  X:0004H         SYMBOL        option1
  X:0007H         SYMBOL        option2
  X:000AH         SYMBOL        opt_buffer
  X:0032H         SYMBOL        buffer
  -------         ENDDO         
  C:54AEH         LINE#         1342
  C:54AEH         LINE#         1343
  C:54AEH         LINE#         1352
  C:54B7H         LINE#         1357
  C:54C3H         LINE#         1358
  C:54C3H         LINE#         1359
  C:54C6H         LINE#         1360
  C:54D0H         LINE#         1363
BL51 BANKED LINKER/LOCATER V6.22.2.0                                                  06/04/2021  16:31:58  PAGE 78


  C:54D0H         LINE#         1365
  C:54D0H         LINE#         1366
  C:54D9H         LINE#         1367
  C:54E6H         LINE#         1368
  C:54EBH         LINE#         1369
  C:5501H         LINE#         1370
  C:5513H         LINE#         1371
  C:551CH         LINE#         1376
  C:5527H         LINE#         1377
  C:5535H         LINE#         1378
  C:5542H         LINE#         1380
  C:554BH         LINE#         1384
  C:554EH         LINE#         1385
  C:554EH         LINE#         1386
  C:554EH         LINE#         1387
  C:5551H         LINE#         1390
  C:555CH         LINE#         1391
  C:556AH         LINE#         1392
  C:557EH         LINE#         1393
  C:5592H         LINE#         1398
  C:55A8H         LINE#         1399
  C:55A8H         LINE#         1401
  C:55B7H         LINE#         1402
  C:55B9H         LINE#         1403
  C:55C9H         LINE#         1404
  C:55C9H         LINE#         1406
  C:55D8H         LINE#         1407
  C:55F6H         LINE#         1408
  C:55F6H         LINE#         1414
  C:5609H         LINE#         1415
  C:5609H         LINE#         1416
  C:5652H         LINE#         1417
  C:5652H         LINE#         1418
  C:5652H         LINE#         1419
  C:5655H         LINE#         1421
  C:5658H         LINE#         1423
  C:5658H         LINE#         1424
  C:565BH         LINE#         1425
  C:565EH         LINE#         1426
  C:565EH         LINE#         1427
  C:5661H         LINE#         1428
  C:5664H         LINE#         1429
  C:5664H         LINE#         1430
  C:5667H         LINE#         1431
  C:566AH         LINE#         1432
  C:566AH         LINE#         1433
  C:566DH         LINE#         1434
  C:5670H         LINE#         1435
  C:5670H         LINE#         1436
  C:5673H         LINE#         1437
  C:5676H         LINE#         1438
  C:5676H         LINE#         1439
  C:5679H         LINE#         1440
  C:567CH         LINE#         1441
  C:567CH         LINE#         1442
  C:567FH         LINE#         1443
  C:5682H         LINE#         1444
BL51 BANKED LINKER/LOCATER V6.22.2.0                                                  06/04/2021  16:31:58  PAGE 79


  C:5682H         LINE#         1445
  C:5685H         LINE#         1446
  C:5688H         LINE#         1447
  C:5688H         LINE#         1448
  C:568BH         LINE#         1449
  C:568EH         LINE#         1450
  C:568EH         LINE#         1451
  C:5691H         LINE#         1452
  C:5694H         LINE#         1453
  C:5694H         LINE#         1454
  C:5697H         LINE#         1455
  C:569AH         LINE#         1456
  C:569AH         LINE#         1457
  C:569DH         LINE#         1458
  C:56A0H         LINE#         1459
  C:56A0H         LINE#         1460
  C:56A3H         LINE#         1461
  C:56A6H         LINE#         1462
  C:56A6H         LINE#         1463
  C:56A9H         LINE#         1464
  C:56ACH         LINE#         1465
  C:56ACH         LINE#         1466
  C:56AFH         LINE#         1467
  C:56B2H         LINE#         1468
  C:56B2H         LINE#         1470
  C:56B2H         LINE#         1471
  C:56B2H         LINE#         1472
  C:56B5H         LINE#         1473
  C:56B8H         LINE#         1476
  C:56B8H         LINE#         1477
  C:56D6H         LINE#         1478
  C:56D9H         LINE#         1479
  C:56D9H         LINE#         1480
  C:56D9H         LINE#         1481
  C:56D9H         LINE#         1482
  -------         ENDPROC       MENU
  -------         ENDMOD        PROG

  -------         MODULE        PTO_PARALELO
  C:0000H         SYMBOL        _ICE_DUMMY_
  D:0080H         PUBLIC        P0
  D:00A0H         PUBLIC        P2
  D:00B0H         PUBLIC        P3
  B:0080H.2       PUBLIC        led_err_imp
  C:6F59H         PUBLIC        load_and_send_id_cod
  C:A0CFH         PUBLIC        _recibe_port
  B:00B0H.2       PUBLIC        ready
  B:0080H.6       PUBLIC        rx_in_data
  C:C10DH         PUBLIC        Pulso_Bus
  C:A67BH         PUBLIC        _send_portERR
  B:00B0H.3       PUBLIC        busy
  C:B498H         PUBLIC        load_and_send_info_reloj
  C:9886H         PUBLIC        _send_port
  B:00B0H.4       PUBLIC        port_clk
  C:C188H         PUBLIC        cond_ini_pto
  -------         PROC          _RECIBE_PORT
  X:0001H         SYMBOL        buffer_port
BL51 BANKED LINKER/LOCATER V6.22.2.0                                                  06/04/2021  16:31:58  PAGE 80


  -------         DO            
  D:0006H         SYMBOL        count
  X:0004H         SYMBOL        time_out
  X:0005H         SYMBOL        num_data
  X:0006H         SYMBOL        T_ANCHO
  X:0008H         SYMBOL        data_temp
  -------         ENDDO         
  C:A0CFH         LINE#         60
  C:A0DAH         LINE#         61
  C:A0DAH         LINE#         65
  C:A0E3H         LINE#         66
  C:A0E6H         LINE#         69
  C:A0E9H         LINE#         70
  C:A0E9H         LINE#         72
  C:A0ECH         LINE#         73
  C:A0F1H         LINE#         74
  C:A0F3H         LINE#         75
  C:A0F7H         LINE#         76
  C:A0F9H         LINE#         79
  C:A0FEH         LINE#         80
  C:A107H         LINE#         81
  C:A107H         LINE#         82
  C:A10AH         LINE#         83
  C:A10AH         LINE#         85
  C:A10FH         LINE#         86
  C:A113H         LINE#         87
  C:A113H         LINE#         88
  C:A115H         LINE#         89
  C:A117H         LINE#         90
  C:A117H         LINE#         91
  C:A117H         LINE#         93
  C:A117H         LINE#         94
  C:A124H         LINE#         95
  C:A124H         LINE#         97
  C:A127H         LINE#         98
  C:A127H         LINE#         100
  C:A12DH         LINE#         102
  C:A12FH         LINE#         103
  C:A143H         LINE#         104
  C:A14DH         LINE#         105
  C:A153H         LINE#         106
  C:A159H         LINE#         107
  C:A15BH         LINE#         108
  C:A15BH         LINE#         109
  C:A15BH         LINE#         110
  C:A15BH         LINE#         113
  C:A15DH         LINE#         114
  C:A15FH         LINE#         115
  C:A15FH         LINE#         116
  C:A162H         LINE#         118
  C:A167H         LINE#         119
  -------         ENDPROC       _RECIBE_PORT
  -------         PROC          _SEND_PORT
  X:0019H         SYMBOL        buffer_port
  X:001CH         SYMBOL        length_char
  -------         DO            
  X:001DH         SYMBOL        cont
BL51 BANKED LINKER/LOCATER V6.22.2.0                                                  06/04/2021  16:31:58  PAGE 81


  X:0021H         SYMBOL        timeOut
  X:0022H         SYMBOL        length
  -------         ENDDO         
  C:9886H         LINE#         126
  C:9894H         LINE#         127
  C:9894H         LINE#         132
  C:9898H         LINE#         134
  C:989AH         LINE#         135
  C:989CH         LINE#         136
  C:989EH         LINE#         137
  C:98A3H         LINE#         138
  C:98A5H         LINE#         139
  C:98AFH         LINE#         141
  C:98B8H         LINE#         142
  C:98B8H         LINE#         143
  C:98BAH         LINE#         144
  C:98BCH         LINE#         145
  C:98E0H         LINE#         146
  C:98F4H         LINE#         147
  C:98F4H         LINE#         148
  C:98F7H         LINE#         149
  C:98F9H         LINE#         150
  C:98F9H         LINE#         151
  C:98FBH         LINE#         152
  C:9904H         LINE#         153
  C:9904H         LINE#         157
  C:9904H         LINE#         159
  C:9914H         LINE#         160
  C:9917H         LINE#         161
  C:9921H         LINE#         163
  C:9927H         LINE#         164
  C:992AH         LINE#         166
  C:992AH         LINE#         168
  C:992DH         LINE#         169
  C:992FH         LINE#         170
  C:9931H         LINE#         171
  C:9933H         LINE#         172
  -------         ENDPROC       _SEND_PORT
  -------         PROC          PULSO_BUS
  C:C10DH         LINE#         180
  C:C10DH         LINE#         181
  C:C10DH         LINE#         182
  C:C10FH         LINE#         183
  C:C116H         LINE#         184
  C:C118H         LINE#         185
  -------         ENDPROC       PULSO_BUS
  -------         PROC          _SEND_PORTERR
  X:03A2H         SYMBOL        cod_err
  -------         DO            
  X:03A3H         SYMBOL        timeOut
  X:03A4H         SYMBOL        cont
  -------         ENDDO         
  C:A67BH         LINE#         190
  C:A681H         LINE#         191
  C:A681H         LINE#         195
  C:A683H         LINE#         196
  C:A685H         LINE#         197
BL51 BANKED LINKER/LOCATER V6.22.2.0                                                  06/04/2021  16:31:58  PAGE 82


  C:A688H         LINE#         198
  C:A690H         LINE#         200
  C:A692H         LINE#         201
  C:A694H         LINE#         202
  C:A69DH         LINE#         203
  C:A69DH         LINE#         204
  C:A6BFH         LINE#         205
  C:A6D3H         LINE#         206
  C:A6D3H         LINE#         207
  C:A6D8H         LINE#         208
  C:A6D8H         LINE#         209
  C:A6DAH         LINE#         210
  C:A6E3H         LINE#         211
  C:A6E3H         LINE#         212
  C:A6E9H         LINE#         213
  C:A6ECH         LINE#         214
  C:A6ECH         LINE#         215
  C:A6EEH         LINE#         216
  C:A6F0H         LINE#         217
  C:A6F2H         LINE#         219
  C:A6F5H         LINE#         221
  C:A6FCH         LINE#         222
  -------         ENDPROC       _SEND_PORTERR
  -------         PROC          COND_INI_PTO
  C:C188H         LINE#         228
  C:C188H         LINE#         229
  C:C188H         LINE#         231
  C:C18AH         LINE#         232
  C:C18CH         LINE#         233
  C:C18EH         LINE#         234
  C:C191H         LINE#         235
  -------         ENDPROC       COND_INI_PTO
  -------         PROC          LOAD_AND_SEND_INFO_RELOJ
  -------         DO            
  X:0002H         SYMBOL        buffer_info
  -------         ENDDO         
  C:B498H         LINE#         240
  C:B498H         LINE#         241
  C:B498H         LINE#         244
  C:B49EH         LINE#         246
  C:B4A2H         LINE#         249
  C:B4ABH         LINE#         251
  C:B4B5H         LINE#         252
  C:B4B9H         LINE#         253
  C:B4BCH         LINE#         254
  C:B4C5H         LINE#         255
  C:B4D6H         LINE#         256
  C:B4D9H         LINE#         257
  -------         ENDPROC       LOAD_AND_SEND_INFO_RELOJ
  -------         PROC          LOAD_AND_SEND_ID_COD
  -------         DO            
  X:0002H         SYMBOL        buffer_info
  X:000DH         SYMBOL        buf
  X:0011H         SYMBOL        i
  X:0012H         SYMBOL        ID_CLIENTE
  X:0014H         SYMBOL        COD_PARK
  -------         ENDDO         
BL51 BANKED LINKER/LOCATER V6.22.2.0                                                  06/04/2021  16:31:58  PAGE 83


  C:6F59H         LINE#         264
  C:6F59H         LINE#         265
  C:6F59H         LINE#         273
  C:6F69H         LINE#         275
  C:6F7AH         LINE#         277
  C:6F80H         LINE#         278
  C:6F84H         LINE#         279
  C:6F87H         LINE#         281
  C:6FADH         LINE#         282
  C:6FC4H         LINE#         285
  C:6FDBH         LINE#         288
  C:7001H         LINE#         289
  C:7018H         LINE#         291
  C:702FH         LINE#         292
  C:703DH         LINE#         293
  C:704EH         LINE#         294
  C:7061H         LINE#         295
  C:7067H         LINE#         296
  C:7070H         LINE#         297
  C:7084H         LINE#         298
  C:7087H         LINE#         299
  -------         ENDPROC       LOAD_AND_SEND_ID_COD
  -------         ENDMOD        PTO_PARALELO

  -------         MODULE        TIBBO
  C:0000H         SYMBOL        _ICE_DUMMY_
  C:B6DAH         PUBLIC        _Debug_HexDec
  C:B53AH         PUBLIC        _Debug_txt_Tibbo
  D:0080H         PUBLIC        P0
  D:0090H         PUBLIC        P1
  B:0090H.0       PUBLIC        txd2
  B:00A8H.7       PUBLIC        EA
  C:B4E7H         PUBLIC        _tx_aux
  B:0080H.0       PUBLIC        rx_ip
  C:C192H         PUBLIC        Debug_Dividir_texto
  C:C1E7H         PUBLIC        cond_ini_tibbo
  C:C082H         PUBLIC        time_mbit
  C:A703H         PUBLIC        rx_Data
  C:C001H         PUBLIC        time_bit
  C:B931H         PUBLIC        _Debug_pto_paralelo
  C:BAA6H         PUBLIC        _Debug_monitor
  C:A91DH         PUBLIC        _DebugBufferMF
  C:B5C0H         PUBLIC        _Debug_chr_Tibbo
  C:BFFBH         SYMBOL        L?0067
  -------         PROC          L?0066
  -------         ENDPROC       L?0066
  C:BFFBH         SYMBOL        L?0067
  -------         PROC          TIME_BIT
  -------         DO            
  D:0007H         SYMBOL        j
  -------         ENDDO         
  C:C001H         LINE#         20
  C:C001H         LINE#         21
  C:C001H         LINE#         24
  C:C00DH         LINE#         25
  C:C00DH         LINE#         26
  C:C00EH         LINE#         27
BL51 BANKED LINKER/LOCATER V6.22.2.0                                                  06/04/2021  16:31:58  PAGE 84


  C:C00FH         LINE#         28
  C:C010H         LINE#         29
  C:C011H         LINE#         30
  C:C012H         LINE#         31
  C:C013H         LINE#         32
  C:C014H         LINE#         33
  C:C015H         LINE#         34
  C:C016H         LINE#         39
  C:C019H         LINE#         40
  -------         ENDPROC       TIME_BIT
  -------         PROC          TIME_MBIT
  -------         DO            
  D:0007H         SYMBOL        j
  -------         ENDDO         
  C:C082H         LINE#         43
  C:C082H         LINE#         44
  C:C082H         LINE#         46
  C:C08EH         LINE#         47
  C:C08EH         LINE#         48
  C:C08FH         LINE#         49
  C:C090H         LINE#         50
  C:C091H         LINE#         51
  C:C092H         LINE#         52
  C:C093H         LINE#         53
  C:C094H         LINE#         54
  C:C095H         LINE#         55
  C:C098H         LINE#         57
  -------         ENDPROC       TIME_MBIT
  -------         PROC          L?0070
  -------         ENDPROC       L?0070
  -------         PROC          _TX_AUX
  D:0006H         SYMBOL        caracter
  -------         DO            
  D:0004H         SYMBOL        j
  D:0005H         SYMBOL        temporal
  D:0006H         SYMBOL        bitTX
  -------         ENDDO         
  C:B4E7H         LINE#         62
  C:B4E9H         LINE#         63
  C:B4E9H         LINE#         66
  C:B4EBH         LINE#         67
  C:B4EDH         LINE#         68
  C:B4F0H         LINE#         69
  C:B4F1H         LINE#         70
  C:B4F2H         LINE#         71
  C:B4F4H         LINE#         72
  C:B4F8H         LINE#         73
  C:B4FAH         LINE#         74
  C:B4FAH         LINE#         75
  C:B4FCH         LINE#         76
  C:B4FEH         LINE#         78
  C:B4FEH         LINE#         79
  C:B500H         LINE#         80
  C:B500H         LINE#         81
  C:B503H         LINE#         82
  C:B50FH         LINE#         83
  C:B50FH         LINE#         84
BL51 BANKED LINKER/LOCATER V6.22.2.0                                                  06/04/2021  16:31:58  PAGE 85


  C:B513H         LINE#         85
  C:B516H         LINE#         86
  C:B518H         LINE#         87
  C:B518H         LINE#         88
  C:B51AH         LINE#         89
  C:B51CH         LINE#         91
  C:B51CH         LINE#         92
  C:B51EH         LINE#         93
  C:B51EH         LINE#         94
  C:B521H         LINE#         95
  C:B524H         LINE#         96
  C:B526H         LINE#         97
  C:B529H         LINE#         98
  C:B52CH         LINE#         100
  C:B52EH         LINE#         101
  -------         ENDPROC       _TX_AUX
  -------         PROC          _DEBUG_HEXDEC
  D:0007H         SYMBOL        xfc
  -------         DO            
  X:03FAH         SYMBOL        valor
  D:0006H         SYMBOL        centena
  D:0003H         SYMBOL        decena
  D:0002H         SYMBOL        unidad
  -------         ENDDO         
  C:B6DAH         LINE#         104
  C:B6DAH         LINE#         105
  C:B6DAH         LINE#         108
  C:B6E1H         LINE#         110
  C:B6E2H         LINE#         111
  C:B6E3H         LINE#         112
  C:B6E4H         LINE#         113
  C:B6ECH         LINE#         114
  C:B6ECH         LINE#         115
  C:B6F6H         LINE#         116
  C:B6F6H         LINE#         117
  C:B6FAH         LINE#         118
  C:B6FBH         LINE#         119
  C:B6FDH         LINE#         120
  C:B707H         LINE#         121
  C:B707H         LINE#         122
  C:B70BH         LINE#         123
  C:B70CH         LINE#         124
  C:B70EH         LINE#         125
  C:B710H         LINE#         126
  C:B714H         LINE#         127
  C:B718H         LINE#         128
  C:B71FH         LINE#         130
  C:B71FH         LINE#         131
  -------         ENDPROC       _DEBUG_HEXDEC
  -------         PROC          _DEBUG_CHR_TIBBO
  D:0003H         SYMBOL        Dat
  -------         DO            
  D:0007H         SYMBOL        temp
  -------         ENDDO         
  C:B5C0H         LINE#         136
  C:B5C2H         LINE#         137
  C:B5C2H         LINE#         139
BL51 BANKED LINKER/LOCATER V6.22.2.0                                                  06/04/2021  16:31:58  PAGE 86


  C:B5CAH         LINE#         140
  C:B5CAH         LINE#         141
  C:B5D1H         LINE#         142
  C:B5E4H         LINE#         144
  C:B5E7H         LINE#         146
  C:B5EBH         LINE#         147
  C:B5FEH         LINE#         148
  C:B601H         LINE#         149
  C:B606H         LINE#         151
  C:B606H         LINE#         152
  -------         ENDPROC       _DEBUG_CHR_TIBBO
  -------         PROC          _DEBUGBUFFERMF
  X:0016H         SYMBOL        str
  X:0019H         SYMBOL        num_char
  X:001AH         SYMBOL        io
  -------         DO            
  X:001BH         SYMBOL        j
  -------         ENDDO         
  C:A91DH         LINE#         160
  C:A92BH         LINE#         161
  C:A92BH         LINE#         165
  C:A933H         LINE#         166
  C:A933H         LINE#         167
  C:A942H         LINE#         168
  C:A942H         LINE#         169
  C:A948H         LINE#         170
  C:A94AH         LINE#         171
  C:A957H         LINE#         172
  C:A957H         LINE#         173
  C:A960H         LINE#         174
  C:A960H         LINE#         176
  C:A972H         LINE#         177
  C:A972H         LINE#         178
  C:A984H         LINE#         179
  C:A98EH         LINE#         180
  C:A996H         LINE#         181
  C:A99BH         LINE#         182
  C:A9A0H         LINE#         183
  C:A9A0H         LINE#         185
  -------         ENDPROC       _DEBUGBUFFERMF
  C:B534H         SYMBOL        L?0069
  -------         PROC          L?0068
  -------         ENDPROC       L?0068
  C:B534H         SYMBOL        L?0069
  -------         PROC          _DEBUG_TXT_TIBBO
  X:0057H         SYMBOL        str
  -------         DO            
  X:005AH         SYMBOL        i
  -------         ENDDO         
  C:B53AH         LINE#         190
  C:B545H         LINE#         191
  C:B545H         LINE#         193
  C:B548H         LINE#         195
  C:B550H         LINE#         196
  C:B550H         LINE#         197
  C:B56CH         LINE#         198
  C:B56CH         LINE#         199
BL51 BANKED LINKER/LOCATER V6.22.2.0                                                  06/04/2021  16:31:58  PAGE 87


  C:B56FH         LINE#         200
  C:B577H         LINE#         202
  C:B577H         LINE#         203
  -------         ENDPROC       _DEBUG_TXT_TIBBO
  -------         PROC          DEBUG_DIVIDIR_TEXTO
  C:C192H         LINE#         205
  C:C192H         LINE#         206
  C:C192H         LINE#         207
  -------         ENDPROC       DEBUG_DIVIDIR_TEXTO
  -------         PROC          RX_DATA
  -------         DO            
  D:0006H         SYMBOL        temporal
  -------         ENDDO         
  C:A703H         LINE#         213
  C:A703H         LINE#         214
  C:A703H         LINE#         217
  C:A705H         LINE#         218
  C:A708H         LINE#         220
  C:A70BH         LINE#         222
  C:A717H         LINE#         223
  C:A717H         LINE#         225
  C:A71AH         LINE#         227
  C:A726H         LINE#         228
  C:A726H         LINE#         230
  C:A729H         LINE#         232
  C:A735H         LINE#         233
  C:A735H         LINE#         235
  C:A738H         LINE#         237
  C:A744H         LINE#         238
  C:A744H         LINE#         240
  C:A747H         LINE#         242
  C:A753H         LINE#         243
  C:A753H         LINE#         245
  C:A756H         LINE#         247
  C:A762H         LINE#         248
  C:A762H         LINE#         250
  C:A765H         LINE#         252
  C:A771H         LINE#         253
  C:A771H         LINE#         255
  C:A774H         LINE#         256
  C:A782H         LINE#         258
  C:A785H         LINE#         259
  C:A788H         LINE#         260
  C:A788H         LINE#         261
  C:A788H         LINE#         264
  C:A78AH         LINE#         266
  -------         ENDPROC       RX_DATA
  -------         PROC          COND_INI_TIBBO
  C:C1E7H         LINE#         284
  C:C1E7H         LINE#         285
  C:C1E7H         LINE#         287
  C:C1E9H         LINE#         288
  C:C1EBH         LINE#         289
  -------         ENDPROC       COND_INI_TIBBO
  -------         PROC          _DEBUG_PTO_PARALELO
  X:0001H         SYMBOL        buffer
  X:0004H         SYMBOL        Length_trama
BL51 BANKED LINKER/LOCATER V6.22.2.0                                                  06/04/2021  16:31:58  PAGE 88


  C:B931H         LINE#         290
  C:B93FH         LINE#         291
  C:B93FH         LINE#         293
  C:B948H         LINE#         294
  C:B95FH         LINE#         295
  C:B968H         LINE#         296
  C:B96BH         LINE#         297
  C:B96EH         LINE#         298
  -------         ENDPROC       _DEBUG_PTO_PARALELO
  -------         PROC          _DEBUG_MONITOR
  X:000EH         SYMBOL        buffer
  X:0011H         SYMBOL        Length_trama
  C:BAA6H         LINE#         301
  C:BAB4H         LINE#         302
  C:BAB4H         LINE#         303
  C:BAB7H         LINE#         304
  C:BAC0H         LINE#         305
  C:BACEH         LINE#         306
  C:BAD1H         LINE#         307
  C:BADAH         LINE#         308
  C:BADDH         LINE#         309
  C:BAE0H         LINE#         310
  -------         ENDPROC       _DEBUG_MONITOR
  -------         ENDMOD        TIBBO

  -------         MODULE        UART
  C:0000H         SYMBOL        _ICE_DUMMY_
  C:BEA2H         PUBLIC        com_getchar
  C:C11FH         PUBLIC        com_rbuflen
  C:C131H         PUBLIC        com_tbuflen
  B:00A8H.4       PUBLIC        ES
  B:0098H.0       PUBLIC        RI
  C:BB5BH         PUBLIC        _com_putchar
  B:0098H.1       PUBLIC        TI
  B:0021H.4       PUBLIC        aSk
  B:00B8H.4       PUBLIC        PS
  D:000DH         SYMBOL        r_in
  D:000EH         SYMBOL        r_out
  D:000FH         SYMBOL        t_in
  D:0010H         SYMBOL        t_out
  D:0099H         PUBLIC        SBUF
  D:0087H         PUBLIC        PCON
  D:0089H         PUBLIC        TMOD
  B:0021H.5       SYMBOL        ti_restart
  B:00A8H.3       PUBLIC        ET1
  D:008DH         PUBLIC        TH1
  B:0098H.7       PUBLIC        SM0
  B:0098H.6       PUBLIC        SM1
  D:008BH         PUBLIC        TL1
  B:0098H.5       PUBLIC        SM2
  B:0088H.6       PUBLIC        TR1
  C:BDD9H         PUBLIC        com_initialize
  X:03E2H         PUBLIC        cnt__ask_off
  B:0098H.4       PUBLIC        REN
  C:BE2BH         PUBLIC        com_baudrate
  C:6273H         SYMBOL        com_isr
  -------         PROC          COM_ISR
BL51 BANKED LINKER/LOCATER V6.22.2.0                                                  06/04/2021  16:31:58  PAGE 89


  -------         DO            
  X:03E0H         SYMBOL        cDatoRx
  D:0006H         SYMBOL        k
  D:0007H         SYMBOL        bcc
  X:03E1H         SYMBOL        num_datos
  -------         ENDDO         
  C:6273H         LINE#         95
  C:6288H         LINE#         103
  C:628EH         LINE#         104
  C:628EH         LINE#         106
  C:6290H         LINE#         107
  C:6296H         LINE#         108
  C:62A6H         LINE#         109
  C:62A6H         LINE#         110
  C:62B1H         LINE#         111
  C:62B3H         LINE#         113
  C:62B3H         LINE#         114
  C:62C3H         LINE#         115
  C:62C3H         LINE#         116
  C:62C8H         LINE#         117
  C:62C8H         LINE#         118
  C:62DFH         LINE#         119
  C:62DFH         LINE#         123
  C:62DFH         LINE#         126
  C:62EEH         LINE#         127
  C:62EEH         LINE#         128
  C:62F0H         LINE#         129
  C:62F8H         LINE#         130
  C:62FDH         LINE#         132
  C:62FDH         LINE#         133
  C:6300H         LINE#         137
  C:6300H         LINE#         138
  C:6300H         LINE#         139
  C:6318H         LINE#         140
  C:6327H         LINE#         141
  C:6327H         LINE#         142
  C:6327H         LINE#         143
  C:6329H         LINE#         145
  C:6329H         LINE#         146
  C:632BH         LINE#         147
  C:632BH         LINE#         148
  C:632BH         LINE#         149
  C:632EH         LINE#         153
  C:632EH         LINE#         155
  C:6337H         LINE#         156
  C:6337H         LINE#         158
  C:633DH         LINE#         159
  C:6350H         LINE#         160
  C:6350H         LINE#         161
  C:6353H         LINE#         163
  C:6353H         LINE#         164
  C:6368H         LINE#         165
  C:636EH         LINE#         166
  C:636EH         LINE#         168
  C:6371H         LINE#         172
  C:6371H         LINE#         174
  C:6389H         LINE#         175
BL51 BANKED LINKER/LOCATER V6.22.2.0                                                  06/04/2021  16:31:58  PAGE 90


  C:638FH         LINE#         176
  C:6392H         LINE#         177
  C:6392H         LINE#         178
  C:63AAH         LINE#         179
  C:63AAH         LINE#         180
  C:63ABH         LINE#         181
  C:63B8H         LINE#         182
  C:63B8H         LINE#         183
  C:63C5H         LINE#         184
  C:63C8H         LINE#         185
  C:63D6H         LINE#         186
  C:63D6H         LINE#         187
  C:63D8H         LINE#         188
  C:63DDH         LINE#         189
  C:63DFH         LINE#         190
  C:63E3H         LINE#         192
  C:63E5H         LINE#         194
  C:63E5H         LINE#         195
  C:63E5H         LINE#         196
  C:63E5H         LINE#         197
  C:63E7H         LINE#         199
  C:63E7H         LINE#         200
  C:63E7H         LINE#         201
  C:63E7H         LINE#         203
  C:63E9H         LINE#         205
  C:63E9H         LINE#         206
  C:63EFH         LINE#         207
  C:63EFH         LINE#         209
  C:63F1H         LINE#         214
  C:63F1H         LINE#         215
  C:63F6H         LINE#         216
  C:63F6H         LINE#         217
  C:63F6H         LINE#         218
  C:63F6H         LINE#         223
  C:63F9H         LINE#         224
  C:63F9H         LINE#         225
  C:63FBH         LINE#         227
  C:6401H         LINE#         228
  C:6401H         LINE#         229
  C:640BH         LINE#         231
  C:640DH         LINE#         232
  C:640FH         LINE#         233
  C:6411H         LINE#         235
  C:6411H         LINE#         236
  C:6413H         LINE#         237
  C:6413H         LINE#         238
  C:6413H         LINE#         240
  -------         ENDPROC       COM_ISR
  -------         PROC          COM_INITIALIZE
  C:BDD9H         LINE#         256
  C:BDE0H         LINE#         257
  C:BDE0H         LINE#         261
  C:BDE3H         LINE#         266
  C:BDE6H         LINE#         267
  C:BDE8H         LINE#         269
  C:BDEAH         LINE#         270
  C:BDECH         LINE#         275
BL51 BANKED LINKER/LOCATER V6.22.2.0                                                  06/04/2021  16:31:58  PAGE 91


  C:BDF0H         LINE#         276
  C:BDF2H         LINE#         277
  C:BDF4H         LINE#         279
  C:BDF6H         LINE#         280
  C:BDF8H         LINE#         281
  C:BDFAH         LINE#         283
  C:BDFCH         LINE#         284
  C:BDFEH         LINE#         285
  -------         ENDPROC       COM_INITIALIZE
  -------         PROC          COM_BAUDRATE
  C:BE2BH         LINE#         291
  C:BE32H         LINE#         293
  C:BE32H         LINE#         297
  C:BE34H         LINE#         298
  C:BE37H         LINE#         299
  C:BE39H         LINE#         304
  C:BE3BH         LINE#         305
  C:BE3DH         LINE#         307
  C:BE40H         LINE#         309
  C:BE43H         LINE#         310
  C:BE46H         LINE#         312
  C:BE49H         LINE#         313
  C:BE4CH         LINE#         314
  C:BE4EH         LINE#         315
  -------         ENDPROC       COM_BAUDRATE
  -------         PROC          _COM_PUTCHAR
  X:00AAH         SYMBOL        c
  C:BB5BH         LINE#         321
  C:BB67H         LINE#         322
  C:BB67H         LINE#         326
  C:BB74H         LINE#         327
  C:BB78H         LINE#         333
  C:BB86H         LINE#         335
  C:BB88H         LINE#         337
  C:BB8BH         LINE#         338
  C:BB8BH         LINE#         339
  C:BB8DH         LINE#         340
  C:BB8FH         LINE#         341
  C:BB8FH         LINE#         343
  C:BB91H         LINE#         344
  -------         ENDPROC       _COM_PUTCHAR
  -------         PROC          COM_GETCHAR
  C:BEA2H         LINE#         350
  C:BEA9H         LINE#         351
  C:BEA9H         LINE#         352
  C:BEAFH         LINE#         353
  C:BEB5H         LINE#         355
  C:BEC3H         LINE#         356
  -------         ENDPROC       COM_GETCHAR
  -------         PROC          COM_RBUFLEN
  C:C11FH         LINE#         362
  C:C126H         LINE#         363
  C:C126H         LINE#         364
  C:C12CH         LINE#         365
  -------         ENDPROC       COM_RBUFLEN
  -------         PROC          COM_TBUFLEN
  C:C131H         LINE#         371
BL51 BANKED LINKER/LOCATER V6.22.2.0                                                  06/04/2021  16:31:58  PAGE 92


  C:C138H         LINE#         372
  C:C138H         LINE#         373
  C:C13EH         LINE#         374
  -------         ENDPROC       COM_TBUFLEN
  -------         ENDMOD        UART

  -------         MODULE        LINTECH
  C:0000H         SYMBOL        _ICE_DUMMY_
  C:9DC9H         PUBLIC        _Inicializa
  C:906AH         PUBLIC        _RD_MF
  C:9A90H         PUBLIC        Dwload_EEprom
  C:A291H         PUBLIC        _Card_Insercion
  C:85B1H         PUBLIC        _Mov_Card
  C:7CDCH         PUBLIC        _WR_MF
  C:A562H         PUBLIC        LoadVerify_EEprom
  C:A78BH         PUBLIC        Unique_Identifier_UID
  C:AC29H         PUBLIC        Power_off
  C:A813H         PUBLIC        _Check_Status
  C:99E6H         PUBLIC        Clave_Seguridad_S2
  C:ABA9H         PUBLIC        Aut_Card_check_Status
  -------         PROC          _INICIALIZA
  X:02F4H         SYMBOL        TipoMovimiento
  -------         DO            
  D:0003H         SYMBOL        j
  X:02F5H         SYMBOL        bcc
  X:02F6H         SYMBOL        g_scArrTxComSoft
  -------         ENDDO         
  C:9DC9H         LINE#         68
  C:9DCEH         LINE#         69
  C:9DCEH         LINE#         72
  C:9DD1H         LINE#         73
  C:9DE7H         LINE#         74
  C:9DE7H         LINE#         76
  C:9DF0H         LINE#         78
  C:9DF6H         LINE#         79
  C:9DF9H         LINE#         80
  C:9DFBH         LINE#         81
  C:9DFFH         LINE#         82
  C:9E03H         LINE#         83
  C:9E07H         LINE#         84
  C:9E0FH         LINE#         85
  C:9E13H         LINE#         86
  C:9E1FH         LINE#         87
  C:9E1FH         LINE#         88
  C:9E33H         LINE#         89
  C:9E36H         LINE#         90
  C:9E3EH         LINE#         91
  C:9E40H         LINE#         92
  C:9E45H         LINE#         93
  C:9E54H         LINE#         94
  C:9E5FH         LINE#         95
  C:9E65H         LINE#         96
  C:9E65H         LINE#         97
  -------         ENDPROC       _INICIALIZA
  -------         PROC          _CHECK_STATUS
  X:0317H         SYMBOL        Detalle
  -------         DO            
BL51 BANKED LINKER/LOCATER V6.22.2.0                                                  06/04/2021  16:31:58  PAGE 93


  D:0006H         SYMBOL        j
  D:0007H         SYMBOL        bcc
  X:0318H         SYMBOL        g_scArrTxComSoft
  -------         ENDDO         
  C:A813H         LINE#         109
  C:A818H         LINE#         110
  C:A818H         LINE#         114
  C:A81EH         LINE#         115
  C:A81EH         LINE#         116
  C:A822H         LINE#         117
  C:A824H         LINE#         119
  C:A824H         LINE#         120
  C:A82BH         LINE#         121
  C:A82BH         LINE#         122
  C:A82DH         LINE#         124
  C:A833H         LINE#         125
  C:A836H         LINE#         126
  C:A838H         LINE#         127
  C:A83CH         LINE#         128
  C:A840H         LINE#         129
  C:A844H         LINE#         130
  C:A84CH         LINE#         131
  C:A850H         LINE#         132
  C:A85CH         LINE#         133
  C:A85CH         LINE#         134
  C:A869H         LINE#         135
  C:A86CH         LINE#         136
  C:A871H         LINE#         137
  C:A873H         LINE#         138
  C:A878H         LINE#         139
  C:A887H         LINE#         140
  C:A892H         LINE#         141
  C:A898H         LINE#         142
  -------         ENDPROC       _CHECK_STATUS
  -------         PROC          _CARD_INSERCION
  D:0007H         SYMBOL        Tipo
  -------         DO            
  D:0006H         SYMBOL        j
  D:0007H         SYMBOL        bcc
  X:0343H         SYMBOL        g_scArrTxComSoft
  -------         ENDDO         
  C:A291H         LINE#         152
  C:A291H         LINE#         153
  C:A291H         LINE#         156
  C:A29EH         LINE#         157
  C:A29EH         LINE#         158
  C:A2A5H         LINE#         159
  C:A2ABH         LINE#         160
  C:A2ADH         LINE#         162
  C:A2ADH         LINE#         164
  C:A2B4H         LINE#         165
  C:A2BAH         LINE#         167
  C:A2BAH         LINE#         169
  C:A2BCH         LINE#         171
  C:A2C2H         LINE#         172
  C:A2C5H         LINE#         173
  C:A2C7H         LINE#         174
BL51 BANKED LINKER/LOCATER V6.22.2.0                                                  06/04/2021  16:31:58  PAGE 94


  C:A2CBH         LINE#         175
  C:A2CFH         LINE#         176
  C:A2D3H         LINE#         178
  C:A2D9H         LINE#         179
  C:A2E5H         LINE#         180
  C:A2E5H         LINE#         181
  C:A2F2H         LINE#         182
  C:A2F5H         LINE#         184
  C:A2FAH         LINE#         186
  C:A2FCH         LINE#         187
  C:A301H         LINE#         188
  C:A310H         LINE#         189
  C:A31BH         LINE#         190
  C:A321H         LINE#         191
  -------         ENDPROC       _CARD_INSERCION
  -------         PROC          _MOV_CARD
  X:0300H         SYMBOL        Posicion
  -------         DO            
  D:0003H         SYMBOL        j
  X:0301H         SYMBOL        bcc
  X:0302H         SYMBOL        g_scArrTxComSoft
  -------         ENDDO         
  C:85B1H         LINE#         202
  C:85B6H         LINE#         203
  C:85B6H         LINE#         206
  C:85B9H         LINE#         208
  C:85D9H         LINE#         209
  C:85D9H         LINE#         210
  C:85E0H         LINE#         211
  C:85E0H         LINE#         212
  C:85E6H         LINE#         213
  C:85E8H         LINE#         214
  C:85EFH         LINE#         215
  C:85EFH         LINE#         216
  C:85F5H         LINE#         217
  C:85F7H         LINE#         218
  C:85FEH         LINE#         219
  C:85FEH         LINE#         220
  C:8604H         LINE#         221
  C:8606H         LINE#         222
  C:860DH         LINE#         223
  C:860DH         LINE#         224
  C:8613H         LINE#         225
  C:8615H         LINE#         226
  C:861CH         LINE#         227
  C:861CH         LINE#         228
  C:8625H         LINE#         229
  C:8625H         LINE#         231
  C:862BH         LINE#         232
  C:862EH         LINE#         233
  C:8630H         LINE#         234
  C:8634H         LINE#         235
  C:8638H         LINE#         236
  C:863CH         LINE#         237
  C:8644H         LINE#         238
  C:8648H         LINE#         239
  C:8654H         LINE#         240
BL51 BANKED LINKER/LOCATER V6.22.2.0                                                  06/04/2021  16:31:58  PAGE 95


  C:8654H         LINE#         241
  C:8668H         LINE#         242
  C:866BH         LINE#         243
  C:8673H         LINE#         244
  C:8675H         LINE#         245
  C:867AH         LINE#         246
  C:8689H         LINE#         247
  C:8694H         LINE#         248
  C:869AH         LINE#         249
  C:869AH         LINE#         251
  -------         ENDPROC       _MOV_CARD
  -------         PROC          AUT_CARD_CHECK_STATUS
  -------         DO            
  D:0003H         SYMBOL        j
  X:0322H         SYMBOL        bcc
  X:0323H         SYMBOL        g_scArrTxComSoft
  -------         ENDDO         
  C:ABA9H         LINE#         257
  C:ABA9H         LINE#         258
  C:ABA9H         LINE#         261
  C:ABAEH         LINE#         263
  C:ABB7H         LINE#         265
  C:ABBDH         LINE#         266
  C:ABC0H         LINE#         267
  C:ABC2H         LINE#         268
  C:ABC6H         LINE#         269
  C:ABCAH         LINE#         270
  C:ABCEH         LINE#         271
  C:ABD2H         LINE#         272
  C:ABD6H         LINE#         273
  C:ABE2H         LINE#         274
  C:ABE2H         LINE#         275
  C:ABF6H         LINE#         276
  C:ABF9H         LINE#         277
  C:AC01H         LINE#         278
  C:AC03H         LINE#         279
  C:AC08H         LINE#         280
  C:AC17H         LINE#         281
  C:AC22H         LINE#         282
  C:AC28H         LINE#         283
  -------         ENDPROC       AUT_CARD_CHECK_STATUS
  -------         PROC          CLAVE_SEGURIDAD_S2
  -------         DO            
  D:0003H         SYMBOL        j
  X:0232H         SYMBOL        bcc
  X:0233H         SYMBOL        g_scArrTxComSoft
  -------         ENDDO         
  C:99E6H         LINE#         286
  C:99E6H         LINE#         287
  C:99E6H         LINE#         290
  C:99EBH         LINE#         291
  C:99F4H         LINE#         294
  C:99FAH         LINE#         295
  C:99FDH         LINE#         296
  C:99FFH         LINE#         297
  C:9A03H         LINE#         298
  C:9A07H         LINE#         299
BL51 BANKED LINKER/LOCATER V6.22.2.0                                                  06/04/2021  16:31:58  PAGE 96


  C:9A0BH         LINE#         300
  C:9A0FH         LINE#         301
  C:9A12H         LINE#         302
  C:9A16H         LINE#         303
  C:9A19H         LINE#         304
  C:9A1DH         LINE#         306
  C:9A21H         LINE#         308
  C:9A25H         LINE#         309
  C:9A29H         LINE#         310
  C:9A2DH         LINE#         311
  C:9A31H         LINE#         312
  C:9A35H         LINE#         313
  C:9A39H         LINE#         316
  C:9A3DH         LINE#         318
  C:9A49H         LINE#         319
  C:9A49H         LINE#         320
  C:9A5DH         LINE#         321
  C:9A60H         LINE#         322
  C:9A68H         LINE#         323
  C:9A6AH         LINE#         324
  C:9A6FH         LINE#         325
  C:9A7EH         LINE#         326
  C:9A89H         LINE#         327
  C:9A8FH         LINE#         330
  -------         ENDPROC       CLAVE_SEGURIDAD_S2
  -------         PROC          DWLOAD_EEPROM
  -------         DO            
  D:0003H         SYMBOL        j
  X:0248H         SYMBOL        bcc
  X:0249H         SYMBOL        g_scArrTxComSoft
  -------         ENDDO         
  C:9A90H         LINE#         335
  C:9A90H         LINE#         336
  C:9A90H         LINE#         339
  C:9A95H         LINE#         340
  C:9A9EH         LINE#         342
  C:9AA4H         LINE#         343
  C:9AA7H         LINE#         344
  C:9AA9H         LINE#         345
  C:9AADH         LINE#         346
  C:9AB1H         LINE#         347
  C:9AB5H         LINE#         348
  C:9AB9H         LINE#         349
  C:9ABCH         LINE#         350
  C:9AC0H         LINE#         351
  C:9AC3H         LINE#         352
  C:9AC6H         LINE#         353
  C:9ACAH         LINE#         354
  C:9ACEH         LINE#         355
  C:9AD2H         LINE#         356
  C:9AD6H         LINE#         357
  C:9ADAH         LINE#         358
  C:9ADEH         LINE#         359
  C:9AE2H         LINE#         360
  C:9AE6H         LINE#         362
  C:9AF2H         LINE#         363
  C:9AF2H         LINE#         364
BL51 BANKED LINKER/LOCATER V6.22.2.0                                                  06/04/2021  16:31:58  PAGE 97


  C:9B06H         LINE#         365
  C:9B09H         LINE#         366
  C:9B11H         LINE#         367
  C:9B13H         LINE#         368
  C:9B18H         LINE#         369
  C:9B27H         LINE#         370
  C:9B32H         LINE#         371
  C:9B38H         LINE#         372
  -------         ENDPROC       DWLOAD_EEPROM
  -------         PROC          LOADVERIFY_EEPROM
  -------         DO            
  D:0003H         SYMBOL        j
  X:02D5H         SYMBOL        bcc
  X:02D6H         SYMBOL        g_scArrTxComSoft
  -------         ENDDO         
  C:A562H         LINE#         378
  C:A562H         LINE#         379
  C:A562H         LINE#         382
  C:A567H         LINE#         383
  C:A570H         LINE#         386
  C:A576H         LINE#         387
  C:A579H         LINE#         388
  C:A57BH         LINE#         389
  C:A57FH         LINE#         390
  C:A583H         LINE#         391
  C:A587H         LINE#         392
  C:A58BH         LINE#         393
  C:A58EH         LINE#         394
  C:A592H         LINE#         395
  C:A595H         LINE#         396
  C:A598H         LINE#         397
  C:A59CH         LINE#         402
  C:A5A8H         LINE#         403
  C:A5A8H         LINE#         404
  C:A5BCH         LINE#         405
  C:A5BFH         LINE#         406
  C:A5C7H         LINE#         407
  C:A5C9H         LINE#         408
  C:A5CEH         LINE#         409
  C:A5DDH         LINE#         410
  C:A5E8H         LINE#         411
  C:A5EEH         LINE#         413
  -------         ENDPROC       LOADVERIFY_EEPROM
  -------         PROC          _RD_MF
  X:02B1H         SYMBOL        Sector
  X:02B2H         SYMBOL        Bloque
  -------         DO            
  D:0003H         SYMBOL        j
  X:02B3H         SYMBOL        bcc
  X:02B4H         SYMBOL        g_scArrTxComSoft
  -------         ENDDO         
  C:906AH         LINE#         419
  C:9072H         LINE#         420
  C:9072H         LINE#         424
  C:9075H         LINE#         426
  C:907EH         LINE#         427
  C:9086H         LINE#         429
BL51 BANKED LINKER/LOCATER V6.22.2.0                                                  06/04/2021  16:31:58  PAGE 98


  C:908FH         LINE#         430
  C:9097H         LINE#         431
  C:90A0H         LINE#         434
  C:90A6H         LINE#         435
  C:90A9H         LINE#         436
  C:90ABH         LINE#         437
  C:90AFH         LINE#         438
  C:90B3H         LINE#         439
  C:90B7H         LINE#         440
  C:90BBH         LINE#         441
  C:90BEH         LINE#         442
  C:90C2H         LINE#         443
  C:90CAH         LINE#         444
  C:90D2H         LINE#         445
  C:90D6H         LINE#         446
  C:90DAH         LINE#         448
  C:90E6H         LINE#         449
  C:90E6H         LINE#         450
  C:90FAH         LINE#         451
  C:90FDH         LINE#         452
  C:9105H         LINE#         455
  C:9107H         LINE#         456
  C:910CH         LINE#         457
  C:911BH         LINE#         458
  C:9126H         LINE#         459
  C:912CH         LINE#         461
  -------         ENDPROC       _RD_MF
  -------         PROC          _WR_MF
  X:020DH         SYMBOL        Sector
  X:020EH         SYMBOL        Bloque
  X:020FH         SYMBOL        buffer
  -------         DO            
  D:0005H         SYMBOL        j
  X:0212H         SYMBOL        bcc
  X:0213H         SYMBOL        g_scArrTxComSoft
  -------         ENDDO         
  C:7CDCH         LINE#         468
  C:7CEDH         LINE#         470
  C:7CEDH         LINE#         473
  C:7CF0H         LINE#         475
  C:7CF9H         LINE#         476
  C:7D01H         LINE#         478
  C:7D0AH         LINE#         479
  C:7D12H         LINE#         480
  C:7D1BH         LINE#         482
  C:7D21H         LINE#         483
  C:7D24H         LINE#         484
  C:7D26H         LINE#         485
  C:7D2AH         LINE#         487
  C:7D2EH         LINE#         488
  C:7D32H         LINE#         489
  C:7D36H         LINE#         490
  C:7D39H         LINE#         491
  C:7D3DH         LINE#         492
  C:7D45H         LINE#         493
  C:7D4DH         LINE#         494
  C:7D51H         LINE#         496
BL51 BANKED LINKER/LOCATER V6.22.2.0                                                  06/04/2021  16:31:58  PAGE 99


  C:7D5DH         LINE#         497
  C:7D5DH         LINE#         498
  C:7D7DH         LINE#         499
  C:7D80H         LINE#         501
  C:7D86H         LINE#         503
  C:7D92H         LINE#         504
  C:7D92H         LINE#         505
  C:7DA9H         LINE#         506
  C:7DACH         LINE#         507
  C:7DB4H         LINE#         510
  C:7DB6H         LINE#         511
  C:7DBBH         LINE#         512
  C:7DCAH         LINE#         513
  C:7DD5H         LINE#         514
  C:7DDBH         LINE#         516
  -------         ENDPROC       _WR_MF
  -------         PROC          UNIQUE_IDENTIFIER_UID
  -------         DO            
  D:0003H         SYMBOL        j
  X:032DH         SYMBOL        bcc
  X:032EH         SYMBOL        g_scArrTxComSoft
  -------         ENDDO         
  C:A78BH         LINE#         521
  C:A78BH         LINE#         522
  C:A78BH         LINE#         525
  C:A790H         LINE#         527
  C:A799H         LINE#         529
  C:A79FH         LINE#         530
  C:A7A2H         LINE#         531
  C:A7A4H         LINE#         532
  C:A7A8H         LINE#         533
  C:A7ACH         LINE#         534
  C:A7B0H         LINE#         535
  C:A7B4H         LINE#         536
  C:A7B8H         LINE#         537
  C:A7BCH         LINE#         538
  C:A7C0H         LINE#         539
  C:A7CCH         LINE#         540
  C:A7CCH         LINE#         541
  C:A7E0H         LINE#         542
  C:A7E3H         LINE#         543
  C:A7EBH         LINE#         544
  C:A7EDH         LINE#         545
  C:A7F2H         LINE#         546
  C:A801H         LINE#         547
  C:A80CH         LINE#         548
  C:A812H         LINE#         549
  -------         ENDPROC       UNIQUE_IDENTIFIER_UID
  -------         PROC          POWER_OFF
  -------         DO            
  D:0003H         SYMBOL        j
  X:0338H         SYMBOL        bcc
  X:0339H         SYMBOL        g_scArrTxComSoft
  -------         ENDDO         
  C:AC29H         LINE#         550
  C:AC29H         LINE#         551
  C:AC29H         LINE#         554
BL51 BANKED LINKER/LOCATER V6.22.2.0                                                  06/04/2021  16:31:58  PAGE 100


  C:AC2EH         LINE#         556
  C:AC37H         LINE#         558
  C:AC3DH         LINE#         559
  C:AC40H         LINE#         560
  C:AC42H         LINE#         561
  C:AC46H         LINE#         562
  C:AC4AH         LINE#         563
  C:AC4EH         LINE#         564
  C:AC52H         LINE#         565
  C:AC56H         LINE#         566
  C:AC62H         LINE#         567
  C:AC62H         LINE#         568
  C:AC76H         LINE#         569
  C:AC79H         LINE#         570
  C:AC81H         LINE#         571
  C:AC83H         LINE#         572
  C:AC88H         LINE#         573
  C:AC97H         LINE#         574
  C:ACA2H         LINE#         575
  C:ACA8H         LINE#         578
  -------         ENDPROC       POWER_OFF
  -------         ENDMOD        LINTECH

  -------         MODULE        VERIFICADOR
  C:0000H         SYMBOL        _ICE_DUMMY_
  D:0080H         PUBLIC        P0
  C:BEC8H         PUBLIC        Analiza_Presencia_Mensual
  C:B045H         PUBLIC        Ingreso_Vehiculo
  D:0090H         PUBLIC        P1
  C:BE53H         PUBLIC        _Armar_Trama_Tarjeta_Sector1_Bloque0
  D:00B0H         PUBLIC        P3
  C:6426H         PUBLIC        _Valida_Tipo_Tarjeta
  C:BAFFH         PUBLIC        _Load_Secuencia_Expedidor
  C:5CD1H         PUBLIC        _Armar_Trama_Tarjeta_Sector1_Bloque2
  C:5258H         PUBLIC        _Armar_Trama_Pto_Paralelo_Expedidor
  C:8FA6H         PUBLIC        _Tarjeta_Mensual
  C:BF14H         PUBLIC        Analiza_Presencia_rotacion
  C:A442H         PUBLIC        _Disparo_Lock_Entrada_Vehiculo
  C:BD7BH         PUBLIC        Pregunta_Placa
  C:A168H         PUBLIC        _Valida_Vehiculo_Card_Mensual
  C:BBD0H         PUBLIC        Analiza_card_mount_rf
  C:B29EH         PUBLIC        _Armar_Trama_Placa
  C:8C84H         PUBLIC        _rta_cmd_transporte
  C:C19BH         PUBLIC        Captura_Expulsa
  C:4FB5H         PUBLIC        _Armar_Trama_Monitor
  C:6E1BH         PUBLIC        Secuencia_inicio_expedidor
  C:8938H         PUBLIC        _Analiza_Uid_Card
  B:0080H.0       PUBLIC        rx_ip
  C:7BD9H         PUBLIC        _Bloque_Horario
  B:0080H.3       PUBLIC        Atascado_GP0_PIN_3
  B:0090H.7       PUBLIC        lock
  C:9C84H         PUBLIC        _Armar_Trama_Tarjeta_Sector1_Bloque1_Camcel
  C:9F02H         PUBLIC        _Responde_Lectura_Tarjeta_Sector1_Bloque0
  C:936FH         PUBLIC        error_rx_pto
  C:5EBCH         PUBLIC        _Responde_Lectura_Tarjeta_Sector1_Bloque1
  C:72FAH         PUBLIC        _Responde_Lectura_Tarjeta_Sector1_Bloque2
  C:9E66H         PUBLIC        _Respuesta_Placa_Cancel
BL51 BANKED LINKER/LOCATER V6.22.2.0                                                  06/04/2021  16:31:58  PAGE 101


  B:0090H.1       PUBLIC        DataIn
  C:9BDFH         PUBLIC        _Send_Pto_Paralelo
  C:B9EEH         PUBLIC        Trama_Validacion_P_N
  B:0022H.0       PUBLIC        MenSual
  C:71CCH         PUBLIC        _Armar_Trama_Pto_Paralelo_Expedidor_Mensual
  C:79BEH         PUBLIC        _Horarios
  C:993AH         PUBLIC        _Hora_Maxima
  C:6A41H         PUBLIC        _Responde_ReeLectura_Tarjeta_Sector1_Bloque2
  C:3AD0H         PUBLIC        _SecuenciaExpedidorMF
  C:B3ABH         PUBLIC        _Pregunta_Lpr
  C:97D1H         PUBLIC        _Wait_Placa
  C:AD26H         PUBLIC        Responde_Estado_Sensores_Transporte
  C:A4D2H         PUBLIC        Entrega_Card_Captura
  C:B241H         PUBLIC        _Respuesta_Segunda_clave
  X:0147H         SYMBOL        Estado
  C:BC78H         PUBLIC        _Responde_Write_Tarjeta_Sector1_Bloque0
  C:BC42H         PUBLIC        _Responde_Write_Tarjeta_Sector1_Bloque1
  C:B607H         PUBLIC        _Responde_Write_Tarjeta_Sector2_Bloque0
  C:AFD9H         PUBLIC        _Responde_Write_Tarjeta_Sector1_Bloque2
  C:AE8DH         PUBLIC        _En_Horario
  C:ADA2H         PUBLIC        Responde_Tipo_Tarjeta
  C:BD4AH         PUBLIC        _Tarjeta_Rotacion
  -------         PROC          CAPTURA_EXPULSA
  -------         DO            
  D:0007H         SYMBOL        Estado_expedidor
  -------         ENDDO         
  C:C19BH         LINE#         541
  C:C19BH         LINE#         542
  C:C19BH         LINE#         546
  C:C19EH         LINE#         547
  C:C19EH         LINE#         548
  C:C1A0H         LINE#         549
  C:C1A1H         LINE#         551
  C:C1A1H         LINE#         553
  C:C1A3H         LINE#         554
  C:C1A3H         LINE#         557
  C:C1A3H         LINE#         558
  -------         ENDPROC       CAPTURA_EXPULSA
  -------         PROC          TRAMA_VALIDACION_P_N
  -------         DO            
  D:0007H         SYMBOL        Trama_Validacion_P_N
  -------         ENDDO         
  C:B9EEH         LINE#         569
  C:B9EEH         LINE#         570
  C:B9EEH         LINE#         571
  C:B9F0H         LINE#         573
  C:BA06H         LINE#         574
  C:BA06H         LINE#         575
  C:BA09H         LINE#         576
  C:BA09H         LINE#         577
  C:BA0BH         LINE#         580
  C:BA13H         LINE#         581
  C:BA13H         LINE#         583
  C:BA15H         LINE#         585
  C:BA16H         LINE#         586
  C:BA1AH         LINE#         587
  C:BA1AH         LINE#         589
BL51 BANKED LINKER/LOCATER V6.22.2.0                                                  06/04/2021  16:31:58  PAGE 102


  C:BA1CH         LINE#         591
  C:BA1DH         LINE#         593
  C:BA1DH         LINE#         594
  C:BA26H         LINE#         595
  C:BA28H         LINE#         597
  C:BA28H         LINE#         598
  C:BA29H         LINE#         600
  C:BA29H         LINE#         602
  C:BA2BH         LINE#         604
  C:BA2BH         LINE#         606
  C:BA2BH         LINE#         608
  C:BA2BH         LINE#         609
  -------         ENDPROC       TRAMA_VALIDACION_P_N
  -------         PROC          ERROR_RX_PTO
  -------         DO            
  X:00B7H         SYMBOL        cnt_espera_ask_on
  X:03FEH         SYMBOL        error_rx_pto
  -------         ENDDO         
  C:936FH         LINE#         633
  C:936FH         LINE#         634
  C:936FH         LINE#         637
  C:9375H         LINE#         641
  C:937EH         LINE#         642
  C:9386H         LINE#         643
  C:938FH         LINE#         644
  C:9397H         LINE#         645
  C:93A0H         LINE#         646
  C:93A3H         LINE#         648
  C:93A3H         LINE#         649
  C:93A9H         LINE#         650
  C:93B3H         LINE#         651
  C:93B3H         LINE#         652
  C:93BCH         LINE#         653
  C:93BEH         LINE#         654
  C:93C5H         LINE#         655
  C:93CAH         LINE#         656
  C:93D0H         LINE#         657
  C:93D5H         LINE#         658
  C:93D7H         LINE#         659
  C:93DEH         LINE#         660
  C:93E4H         LINE#         661
  C:93E4H         LINE#         663
  C:93E4H         LINE#         664
  C:93E9H         LINE#         665
  C:93E9H         LINE#         666
  C:93E9H         LINE#         667
  C:93EBH         LINE#         669
  C:93EBH         LINE#         670
  C:93F9H         LINE#         671
  C:940CH         LINE#         672
  C:940CH         LINE#         673
  C:940DH         LINE#         675
  C:9413H         LINE#         676
  C:9417H         LINE#         677
  C:9419H         LINE#         678
  C:9419H         LINE#         679
  C:941BH         LINE#         681
BL51 BANKED LINKER/LOCATER V6.22.2.0                                                  06/04/2021  16:31:58  PAGE 103


  C:941BH         LINE#         682
  C:941CH         LINE#         683
  C:9421H         LINE#         684
  C:9427H         LINE#         685
  C:9427H         LINE#         686
  C:9427H         LINE#         687
  C:942CH         LINE#         688
  -------         ENDPROC       ERROR_RX_PTO
  -------         PROC          _RTA_CMD_TRANSPORTE
  X:03C0H         SYMBOL        secuencia_Expedidor
  -------         DO            
  X:03C3H         SYMBOL        temp
  X:03C4H         SYMBOL        EstadoComSeqMF
  -------         ENDDO         
  C:8C84H         LINE#         704
  C:8C8FH         LINE#         705
  C:8C8FH         LINE#         711
  C:8C9CH         LINE#         712
  C:8C9CH         LINE#         713
  C:8CA4H         LINE#         714
  C:8CA4H         LINE#         715
  C:8CB2H         LINE#         716
  C:8CB5H         LINE#         717
  C:8CBBH         LINE#         718
  C:8CBBH         LINE#         719
  C:8CC4H         LINE#         720
  C:8CD8H         LINE#         721
  C:8CE9H         LINE#         723
  C:8CEBH         LINE#         725
  C:8CEBH         LINE#         728
  C:8D03H         LINE#         729
  C:8D03H         LINE#         730
  C:8D0EH         LINE#         731
  C:8D10H         LINE#         733
  C:8D10H         LINE#         734
  C:8D1EH         LINE#         735
  C:8D1EH         LINE#         736
  C:8D1EH         LINE#         737
  C:8D20H         LINE#         739
  C:8D20H         LINE#         741
  C:8D34H         LINE#         742
  C:8D49H         LINE#         743
  C:8D49H         LINE#         744
  C:8D4EH         LINE#         745
  -------         ENDPROC       _RTA_CMD_TRANSPORTE
  -------         PROC          ANALIZA_PRESENCIA_MENSUAL
  -------         DO            
  X:03FFH         SYMBOL        Estado_expedidor
  -------         ENDDO         
  C:BEC8H         LINE#         749
  C:BEC8H         LINE#         750
  C:BEC8H         LINE#         754
  C:BECEH         LINE#         755
  C:BECEH         LINE#         756
  C:BED0H         LINE#         757
  C:BED6H         LINE#         758
  C:BED8H         LINE#         760
BL51 BANKED LINKER/LOCATER V6.22.2.0                                                  06/04/2021  16:31:58  PAGE 104


  C:BED8H         LINE#         762
  C:BEDDH         LINE#         763
  C:BEE2H         LINE#         764
  C:BEE8H         LINE#         765
  C:BEE8H         LINE#         766
  C:BEEDH         LINE#         767
  -------         ENDPROC       ANALIZA_PRESENCIA_MENSUAL
  -------         PROC          ANALIZA_CARD_MOUNT_RF
  -------         DO            
  X:0400H         SYMBOL        Estado_expedidor
  -------         ENDDO         
  C:BBD0H         LINE#         771
  C:BBD0H         LINE#         772
  C:BBD0H         LINE#         774
  C:BBD6H         LINE#         775
  C:BBDDH         LINE#         776
  C:BBDDH         LINE#         778
  C:BBE6H         LINE#         780
  C:BBECH         LINE#         781
  C:BBEEH         LINE#         782
  C:BBF5H         LINE#         784
  C:BBF5H         LINE#         785
  C:BBFEH         LINE#         786
  C:BC04H         LINE#         787
  C:BC04H         LINE#         790
  C:BC09H         LINE#         791
  -------         ENDPROC       ANALIZA_CARD_MOUNT_RF
  -------         PROC          ANALIZA_PRESENCIA_ROTACION
  -------         DO            
  X:0401H         SYMBOL        Estado_expedidor
  -------         ENDDO         
  C:BF14H         LINE#         795
  C:BF14H         LINE#         796
  C:BF14H         LINE#         798
  C:BF1AH         LINE#         799
  C:BF1AH         LINE#         801
  C:BF20H         LINE#         802
  C:BF22H         LINE#         804
  C:BF22H         LINE#         806
  C:BF27H         LINE#         807
  C:BF2CH         LINE#         808
  C:BF31H         LINE#         810
  C:BF31H         LINE#         811
  C:BF36H         LINE#         812
  -------         ENDPROC       ANALIZA_PRESENCIA_ROTACION
  -------         PROC          _ANALIZA_UID_CARD
  X:0274H         SYMBOL        Atributos_Expedidor
  -------         DO            
  X:0277H         SYMBOL        Estado_expedidor
  D:0007H         SYMBOL        temp
  X:0278H         SYMBOL        buffer_UID
  -------         ENDDO         
  C:8938H         LINE#         816
  C:8943H         LINE#         817
  C:8943H         LINE#         821
  C:8953H         LINE#         822
  C:8953H         LINE#         824
BL51 BANKED LINKER/LOCATER V6.22.2.0                                                  06/04/2021  16:31:58  PAGE 105


  C:895FH         LINE#         825
  C:895FH         LINE#         826
  C:8977H         LINE#         828
  C:897AH         LINE#         830
  C:8983H         LINE#         831
  C:8994H         LINE#         834
  C:899DH         LINE#         835
  C:89A5H         LINE#         836
  C:89ADH         LINE#         837
  C:89B5H         LINE#         838
  C:89BDH         LINE#         839
  C:89C6H         LINE#         841
  C:89DDH         LINE#         842
  C:89E7H         LINE#         843
  C:89F1H         LINE#         844
  C:89FBH         LINE#         845
  C:8A01H         LINE#         846
  C:8A03H         LINE#         848
  C:8A03H         LINE#         849
  C:8A09H         LINE#         850
  C:8A09H         LINE#         851
  C:8A0EH         LINE#         852
  -------         ENDPROC       _ANALIZA_UID_CARD
  -------         PROC          INGRESO_VEHICULO
  -------         DO            
  D:0007H         SYMBOL        CardAutomatic
  X:00B9H         SYMBOL        pulseboton
  -------         ENDDO         
  C:B045H         LINE#         856
  C:B045H         LINE#         857
  C:B045H         LINE#         862
  C:B04BH         LINE#         863
  C:B04BH         LINE#         864
  C:B054H         LINE#         866
  C:B059H         LINE#         867
  C:B059H         LINE#         868
  C:B062H         LINE#         870
  C:B062H         LINE#         871
  C:B064H         LINE#         873
  C:B064H         LINE#         875
  C:B071H         LINE#         876
  C:B076H         LINE#         877
  C:B07BH         LINE#         878
  C:B07DH         LINE#         880
  C:B07DH         LINE#         881
  C:B083H         LINE#         884
  C:B083H         LINE#         885
  C:B086H         LINE#         886
  C:B089H         LINE#         887
  C:B089H         LINE#         888
  C:B08BH         LINE#         889
  C:B090H         LINE#         890
  C:B096H         LINE#         891
  C:B098H         LINE#         893
  C:B098H         LINE#         894
  C:B09DH         LINE#         895
  C:B0A3H         LINE#         896
BL51 BANKED LINKER/LOCATER V6.22.2.0                                                  06/04/2021  16:31:58  PAGE 106


  C:B0A3H         LINE#         899
  C:B0A3H         LINE#         900
  C:B0A5H         LINE#         902
  C:B0A5H         LINE#         904
  C:B0AAH         LINE#         905
  C:B0AAH         LINE#         906
  C:B0AFH         LINE#         907
  -------         ENDPROC       INGRESO_VEHICULO
  -------         PROC          RESPONDE_ESTADO_SENSORES_TRANSPORTE
  -------         DO            
  X:0402H         SYMBOL        Estado_expedidor
  -------         ENDDO         
  C:AD26H         LINE#         914
  C:AD26H         LINE#         915
  C:AD26H         LINE#         918
  C:AD2FH         LINE#         920
  C:AD37H         LINE#         921
  C:AD37H         LINE#         923
  C:AD42H         LINE#         924
  C:AD42H         LINE#         925
  C:AD46H         LINE#         926
  C:AD46H         LINE#         927
  C:AD4FH         LINE#         928
  C:AD54H         LINE#         930
  C:AD54H         LINE#         931
  C:AD56H         LINE#         933
  C:AD56H         LINE#         935
  C:AD5EH         LINE#         937
  C:AD5EH         LINE#         938
  C:AD60H         LINE#         940
  C:AD60H         LINE#         942
  C:AD69H         LINE#         944
  C:AD6EH         LINE#         947
  C:AD6EH         LINE#         948
  C:AD6EH         LINE#         949
  C:AD70H         LINE#         950
  C:AD77H         LINE#         951
  C:AD77H         LINE#         953
  C:AD7DH         LINE#         955
  C:AD7DH         LINE#         956
  C:AD7FH         LINE#         957
  C:AD86H         LINE#         959
  C:AD86H         LINE#         960
  C:AD8FH         LINE#         961
  C:AD95H         LINE#         962
  C:AD97H         LINE#         964
  C:AD97H         LINE#         965
  C:AD9CH         LINE#         966
  C:AD9CH         LINE#         967
  C:ADA1H         LINE#         968
  -------         ENDPROC       RESPONDE_ESTADO_SENSORES_TRANSPORTE
  -------         PROC          RESPONDE_TIPO_TARJETA
  -------         DO            
  X:0403H         SYMBOL        Estado_expedidor
  -------         ENDDO         
  C:ADA2H         LINE#         984
  C:ADA2H         LINE#         985
BL51 BANKED LINKER/LOCATER V6.22.2.0                                                  06/04/2021  16:31:58  PAGE 107


  C:ADA2H         LINE#         988
  C:ADABH         LINE#         990
  C:ADB3H         LINE#         991
  C:ADB3H         LINE#         992
  C:ADBEH         LINE#         993
  C:ADBEH         LINE#         994
  C:ADC7H         LINE#         995
  C:ADCDH         LINE#         996
  C:ADCDH         LINE#         997
  C:ADD0H         LINE#         998
  C:ADD2H         LINE#         1000
  C:ADD2H         LINE#         1001
  C:ADD5H         LINE#         1002
  C:ADD5H         LINE#         1003
  C:ADD7H         LINE#         1005
  C:ADD7H         LINE#         1006
  C:ADDEH         LINE#         1007
  C:ADDEH         LINE#         1009
  C:ADE4H         LINE#         1011
  C:ADE4H         LINE#         1012
  C:ADE4H         LINE#         1014
  C:ADE4H         LINE#         1016
  C:ADE6H         LINE#         1018
  C:ADE6H         LINE#         1019
  C:ADE6H         LINE#         1020
  C:ADE6H         LINE#         1021
  C:ADE6H         LINE#         1022
  C:ADE6H         LINE#         1023
  C:ADE8H         LINE#         1025
  C:ADE8H         LINE#         1026
  C:ADEFH         LINE#         1027
  C:ADEFH         LINE#         1030
  C:ADF8H         LINE#         1032
  C:ADFDH         LINE#         1033
  C:AE02H         LINE#         1035
  C:AE0AH         LINE#         1038
  C:AE0CH         LINE#         1040
  C:AE0CH         LINE#         1041
  C:AE0EH         LINE#         1042
  C:AE13H         LINE#         1043
  C:AE13H         LINE#         1044
  C:AE13H         LINE#         1046
  C:AE18H         LINE#         1047
  -------         ENDPROC       RESPONDE_TIPO_TARJETA
  -------         PROC          _RESPONDE_LECTURA_TARJETA_SECTOR1_BLOQUE1
  X:025EH         SYMBOL        Atributos_Expedidor
  -------         DO            
  D:0007H         SYMBOL        temp
  X:0261H         SYMBOL        Estado_expedidor
  X:0262H         SYMBOL        buffer_S1_B1
  X:0273H         SYMBOL        ID_CLIENTE
  D:0007H         SYMBOL        COD_PARK
  X:00BAH         SYMBOL        falla
  -------         ENDDO         
  C:5EBCH         LINE#         1059
  C:5EC7H         LINE#         1060
  C:5EC7H         LINE#         1067
BL51 BANKED LINKER/LOCATER V6.22.2.0                                                  06/04/2021  16:31:58  PAGE 108


  C:5ED0H         LINE#         1071
  C:5EE0H         LINE#         1072
  C:5EE0H         LINE#         1074
  C:5EECH         LINE#         1075
  C:5EECH         LINE#         1076
  C:5F04H         LINE#         1078
  C:5F07H         LINE#         1081
  C:5F10H         LINE#         1082
  C:5F21H         LINE#         1083
  C:5F2EH         LINE#         1084
  C:5F37H         LINE#         1087
  C:5F56H         LINE#         1088
  C:5F56H         LINE#         1090
  C:5F5FH         LINE#         1091
  C:5F67H         LINE#         1092
  C:5F70H         LINE#         1094
  C:5F79H         LINE#         1095
  C:5F81H         LINE#         1096
  C:5F8AH         LINE#         1098
  C:5F93H         LINE#         1099
  C:5F9BH         LINE#         1100
  C:5FA4H         LINE#         1102
  C:5FADH         LINE#         1103
  C:5FB5H         LINE#         1104
  C:5FBEH         LINE#         1106
  C:5FC7H         LINE#         1107
  C:5FCFH         LINE#         1108
  C:5FD8H         LINE#         1110
  C:5FEFH         LINE#         1112
  C:5FF9H         LINE#         1113
  C:6003H         LINE#         1114
  C:600DH         LINE#         1116
  C:6012H         LINE#         1117
  C:6025H         LINE#         1118
  C:602AH         LINE#         1119
  C:6030H         LINE#         1121
  C:6032H         LINE#         1123
  C:6032H         LINE#         1124
  C:6037H         LINE#         1125
  C:6040H         LINE#         1126
  C:6045H         LINE#         1127
  C:6047H         LINE#         1128
  C:6047H         LINE#         1129
  C:6047H         LINE#         1130
  C:6049H         LINE#         1132
  C:6049H         LINE#         1134
  C:6051H         LINE#         1135
  C:6051H         LINE#         1136
  C:6057H         LINE#         1137
  C:6057H         LINE#         1138
  C:6064H         LINE#         1140
  C:6064H         LINE#         1141
  C:606DH         LINE#         1142
  C:6073H         LINE#         1144
  C:6075H         LINE#         1146
  C:6075H         LINE#         1147
  C:607AH         LINE#         1148
BL51 BANKED LINKER/LOCATER V6.22.2.0                                                  06/04/2021  16:31:58  PAGE 109


  C:6083H         LINE#         1149
  C:6088H         LINE#         1150
  C:608DH         LINE#         1151
  C:6095H         LINE#         1152
  C:6095H         LINE#         1153
  C:6095H         LINE#         1155
  C:609AH         LINE#         1156
  -------         ENDPROC       _RESPONDE_LECTURA_TARJETA_SECTOR1_BLOQUE1
  -------         PROC          _RESPONDE_LECTURA_TARJETA_SECTOR1_BLOQUE2
  X:0289H         SYMBOL        Atributos_Expedidor
  -------         DO            
  D:0007H         SYMBOL        temp
  X:028CH         SYMBOL        Estado_expedidor
  X:028DH         SYMBOL        buffer_S1_B2
  -------         ENDDO         
  C:72FAH         LINE#         1161
  C:7305H         LINE#         1162
  C:7305H         LINE#         1168
  C:730EH         LINE#         1172
  C:731EH         LINE#         1173
  C:731EH         LINE#         1175
  C:732AH         LINE#         1176
  C:732AH         LINE#         1177
  C:7342H         LINE#         1178
  C:7345H         LINE#         1179
  C:734EH         LINE#         1180
  C:735FH         LINE#         1184
  C:7368H         LINE#         1185
  C:7375H         LINE#         1186
  C:7391H         LINE#         1187
  C:739AH         LINE#         1189
  C:73A3H         LINE#         1191
  C:73BFH         LINE#         1192
  C:73C9H         LINE#         1193
  C:73D2H         LINE#         1196
  C:73DBH         LINE#         1197
  C:73E3H         LINE#         1198
  C:73ECH         LINE#         1202
  C:7403H         LINE#         1205
  C:740FH         LINE#         1206
  C:7415H         LINE#         1209
  C:7417H         LINE#         1211
  C:7417H         LINE#         1212
  C:741FH         LINE#         1213
  C:741FH         LINE#         1214
  C:7424H         LINE#         1215
  -------         ENDPROC       _RESPONDE_LECTURA_TARJETA_SECTOR1_BLOQUE2
  -------         PROC          _RESPONDE_LECTURA_TARJETA_SECTOR1_BLOQUE0
  X:03CAH         SYMBOL        Nombre_Mensual
  -------         DO            
  D:0007H         SYMBOL        temp
  X:03CDH         SYMBOL        Estado_expedidor
  -------         ENDDO         
  C:9F02H         LINE#         1217
  C:9F0DH         LINE#         1218
  C:9F0DH         LINE#         1224
  C:9F16H         LINE#         1228
BL51 BANKED LINKER/LOCATER V6.22.2.0                                                  06/04/2021  16:31:58  PAGE 110


  C:9F23H         LINE#         1229
  C:9F23H         LINE#         1231
  C:9F2FH         LINE#         1232
  C:9F2FH         LINE#         1233
  C:9F4FH         LINE#         1234
  C:9F52H         LINE#         1235
  C:9F66H         LINE#         1236
  C:9F6FH         LINE#         1237
  C:9F7DH         LINE#         1238
  C:9F86H         LINE#         1239
  C:9F8CH         LINE#         1242
  C:9F8EH         LINE#         1244
  C:9F8EH         LINE#         1245
  C:9F96H         LINE#         1246
  C:9F96H         LINE#         1247
  C:9F9BH         LINE#         1248
  -------         ENDPROC       _RESPONDE_LECTURA_TARJETA_SECTOR1_BLOQUE0
  -------         PROC          _RESPONDE_REELECTURA_TARJETA_SECTOR1_BLOQUE2
  X:034DH         SYMBOL        lectura_anterior
  X:0350H         SYMBOL        Atributos_Expedidor
  -------         DO            
  D:0007H         SYMBOL        temp
  X:0353H         SYMBOL        Estado_expedidor
  X:0354H         SYMBOL        reelectura
  X:00BBH         SYMBOL        error_lectura
  -------         ENDDO         
  C:6A41H         LINE#         1249
  C:6A4CH         LINE#         1250
  C:6A4CH         LINE#         1256
  C:6A55H         LINE#         1259
  C:6A65H         LINE#         1260
  C:6A65H         LINE#         1262
  C:6A71H         LINE#         1263
  C:6A71H         LINE#         1264
  C:6A91H         LINE#         1265
  C:6A94H         LINE#         1266
  C:6AA8H         LINE#         1267
  C:6AB1H         LINE#         1268
  C:6AC7H         LINE#         1269
  C:6AD0H         LINE#         1271
  C:6AF4H         LINE#         1272
  C:6AF4H         LINE#         1273
  C:6AF8H         LINE#         1274
  C:6B01H         LINE#         1275
  C:6B0AH         LINE#         1276
  C:6B1AH         LINE#         1277
  C:6B2CH         LINE#         1278
  C:6B3AH         LINE#         1279
  C:6B3AH         LINE#         1280
  C:6B3CH         LINE#         1282
  C:6B3CH         LINE#         1283
  C:6B42H         LINE#         1284
  C:6B52H         LINE#         1285
  C:6B52H         LINE#         1286
  C:6B55H         LINE#         1287
  C:6B5BH         LINE#         1289
  C:6B5DH         LINE#         1291
BL51 BANKED LINKER/LOCATER V6.22.2.0                                                  06/04/2021  16:31:58  PAGE 111


  C:6B5DH         LINE#         1292
  C:6B60H         LINE#         1293
  C:6B69H         LINE#         1294
  C:6B79H         LINE#         1295
  C:6B8CH         LINE#         1296
  C:6B92H         LINE#         1298
  C:6B92H         LINE#         1299
  C:6B92H         LINE#         1301
  C:6B92H         LINE#         1302
  C:6B97H         LINE#         1303
  -------         ENDPROC       _RESPONDE_REELECTURA_TARJETA_SECTOR1_BLOQUE2
  -------         PROC          _RESPONDE_WRITE_TARJETA_SECTOR1_BLOQUE1
  X:03E3H         SYMBOL        Buffer_Write_MF
  -------         DO            
  D:0007H         SYMBOL        Estado_expedidor
  -------         ENDDO         
  C:BC42H         LINE#         1304
  C:BC4DH         LINE#         1305
  C:BC4DH         LINE#         1307
  C:BC56H         LINE#         1308
  C:BC5FH         LINE#         1309
  C:BC75H         LINE#         1310
  C:BC77H         LINE#         1311
  C:BC77H         LINE#         1312
  -------         ENDPROC       _RESPONDE_WRITE_TARJETA_SECTOR1_BLOQUE1
  -------         PROC          _RESPONDE_WRITE_TARJETA_SECTOR1_BLOQUE2
  X:0372H         SYMBOL        Atributos_Expedidor
  X:0375H         SYMBOL        Buffer_Write_MF
  -------         DO            
  X:0378H         SYMBOL        Estado_expedidor
  -------         ENDDO         
  C:AFD9H         LINE#         1313
  C:AFE4H         LINE#         1314
  C:AFE4H         LINE#         1316
  C:AFEDH         LINE#         1317
  C:AFF6H         LINE#         1318
  C:B00CH         LINE#         1319
  C:B00FH         LINE#         1320
  C:B00FH         LINE#         1321
  C:B015H         LINE#         1327
  C:B017H         LINE#         1329
  C:B017H         LINE#         1330
  C:B027H         LINE#         1331
  C:B039H         LINE#         1332
  C:B03FH         LINE#         1334
  C:B03FH         LINE#         1335
  C:B044H         LINE#         1336
  -------         ENDPROC       _RESPONDE_WRITE_TARJETA_SECTOR1_BLOQUE2
  -------         PROC          _RESPONDE_WRITE_TARJETA_SECTOR1_BLOQUE0
  X:03E6H         SYMBOL        Buffer_Write_MF
  C:BC78H         LINE#         1339
  C:BC83H         LINE#         1340
  C:BC83H         LINE#         1342
  C:BC8CH         LINE#         1343
  C:BC95H         LINE#         1344
  C:BCABH         LINE#         1346
  C:BCADH         LINE#         1347
BL51 BANKED LINKER/LOCATER V6.22.2.0                                                  06/04/2021  16:31:58  PAGE 112


  -------         ENDPROC       _RESPONDE_WRITE_TARJETA_SECTOR1_BLOQUE0
  -------         PROC          _RESPONDE_WRITE_TARJETA_SECTOR2_BLOQUE0
  X:03E9H         SYMBOL        Buffer_Write_MF
  C:B607H         LINE#         1350
  C:B612H         LINE#         1351
  C:B612H         LINE#         1353
  C:B61BH         LINE#         1354
  C:B624H         LINE#         1355
  C:B62DH         LINE#         1356
  C:B636H         LINE#         1357
  C:B64BH         LINE#         1358
  C:B64DH         LINE#         1359
  -------         ENDPROC       _RESPONDE_WRITE_TARJETA_SECTOR2_BLOQUE0
  -------         PROC          _PREGUNTA_LPR
  X:03ECH         SYMBOL        Atributos_Expedidor
  -------         DO            
  D:0007H         SYMBOL        Estado_expedidor
  -------         ENDDO         
  C:B3ABH         LINE#         1363
  C:B3B6H         LINE#         1364
  C:B3B6H         LINE#         1366
  C:B3BFH         LINE#         1367
  C:B3CDH         LINE#         1368
  C:B3DBH         LINE#         1369
  C:B3DBH         LINE#         1371
  C:B3ECH         LINE#         1372
  C:B3F8H         LINE#         1373
  C:B3F8H         LINE#         1374
  C:B3FCH         LINE#         1375
  C:B3FCH         LINE#         1376
  C:B3FCH         LINE#         1379
  C:B3FEH         LINE#         1381
  C:B3FEH         LINE#         1382
  -------         ENDPROC       _PREGUNTA_LPR
  -------         PROC          PREGUNTA_PLACA
  -------         DO            
  X:0404H         SYMBOL        Estado_expedidor
  -------         ENDDO         
  C:BD7BH         LINE#         1384
  C:BD7BH         LINE#         1385
  C:BD7BH         LINE#         1387
  C:BD84H         LINE#         1388
  C:BD93H         LINE#         1389
  C:BD93H         LINE#         1391
  C:BD96H         LINE#         1392
  C:BD9BH         LINE#         1393
  C:BDA0H         LINE#         1394
  C:BDA2H         LINE#         1396
  C:BDA2H         LINE#         1397
  C:BDA5H         LINE#         1398
  C:BDA5H         LINE#         1399
  C:BDAAH         LINE#         1400
  -------         ENDPROC       PREGUNTA_PLACA
  -------         PROC          _RESPUESTA_SEGUNDA_CLAVE
  X:03A8H         SYMBOL        Atributos_Expedidor
  X:03ABH         SYMBOL        Buffer_Write_MF
  C:B241H         LINE#         1401
BL51 BANKED LINKER/LOCATER V6.22.2.0                                                  06/04/2021  16:31:58  PAGE 113


  C:B24CH         LINE#         1402
  C:B24CH         LINE#         1404
  C:B255H         LINE#         1405
  C:B26BH         LINE#         1408
  C:B27BH         LINE#         1409
  C:B28DH         LINE#         1410
  C:B29BH         LINE#         1412
  C:B29DH         LINE#         1413
  -------         ENDPROC       _RESPUESTA_SEGUNDA_CLAVE
  -------         PROC          _RESPUESTA_PLACA_CANCEL
  X:0357H         SYMBOL        Atributos_Expedidor
  X:035AH         SYMBOL        Buffer_Write_MF
  -------         DO            
  X:035DH         SYMBOL        Estado_expedidor
  X:035EH         SYMBOL        Cancel
  -------         ENDDO         
  C:9E66H         LINE#         1414
  C:9E71H         LINE#         1415
  C:9E71H         LINE#         1417
  C:9E7FH         LINE#         1418
  C:9E88H         LINE#         1419
  C:9E91H         LINE#         1420
  C:9E9AH         LINE#         1422
  C:9EB5H         LINE#         1423
  C:9EB5H         LINE#         1424
  C:9EC5H         LINE#         1425
  C:9ED8H         LINE#         1426
  C:9EE6H         LINE#         1427
  C:9EECH         LINE#         1428
  C:9EEEH         LINE#         1430
  C:9EEEH         LINE#         1431
  C:9EF4H         LINE#         1432
  C:9EF4H         LINE#         1433
  C:9EF7H         LINE#         1434
  C:9EF9H         LINE#         1436
  C:9EF9H         LINE#         1438
  C:9EFCH         LINE#         1439
  C:9EFCH         LINE#         1440
  C:9EFCH         LINE#         1441
  C:9F01H         LINE#         1442
  -------         ENDPROC       _RESPUESTA_PLACA_CANCEL
  -------         PROC          _ARMAR_TRAMA_TARJETA_SECTOR1_BLOQUE1_CAMCEL
  X:03CEH         SYMBOL        Buffer_Write_MF
  -------         DO            
  X:03D1H         SYMBOL        ID_CLIENTE
  D:0007H         SYMBOL        COD_PARK
  -------         ENDDO         
  C:9C84H         LINE#         1445
  C:9C8FH         LINE#         1446
  C:9C8FH         LINE#         1450
  C:9C92H         LINE#         1451
  C:9C9FH         LINE#         1452
  C:9CA8H         LINE#         1454
  C:9CB8H         LINE#         1455
  C:9CCAH         LINE#         1456
  C:9CD1H         LINE#         1457
  C:9CDBH         LINE#         1458
BL51 BANKED LINKER/LOCATER V6.22.2.0                                                  06/04/2021  16:31:58  PAGE 114


  C:9CE2H         LINE#         1459
  C:9CE9H         LINE#         1460
  C:9CF0H         LINE#         1461
  C:9CF7H         LINE#         1462
  C:9CFEH         LINE#         1463
  C:9D05H         LINE#         1464
  C:9D0CH         LINE#         1465
  C:9D13H         LINE#         1466
  C:9D1AH         LINE#         1467
  C:9D21H         LINE#         1468
  -------         ENDPROC       _ARMAR_TRAMA_TARJETA_SECTOR1_BLOQUE1_CAMCEL
  -------         PROC          _ARMAR_TRAMA_TARJETA_SECTOR1_BLOQUE2
  X:03AEH         SYMBOL        Atributos_Expedidor
  X:03B1H         SYMBOL        Buffer_Write_MF
  C:5CD1H         LINE#         1474
  C:5CDCH         LINE#         1475
  C:5CDCH         LINE#         1480
  C:5D00H         LINE#         1481
  C:5D27H         LINE#         1482
  C:5D4EH         LINE#         1483
  C:5D75H         LINE#         1484
  C:5D9CH         LINE#         1487
  C:5DA3H         LINE#         1488
  C:5DAAH         LINE#         1489
  C:5DB1H         LINE#         1491
  C:5DC6H         LINE#         1492
  C:5DC6H         LINE#         1493
  C:5DDDH         LINE#         1494
  C:5DF6H         LINE#         1495
  C:5DF6H         LINE#         1496
  C:5DF9H         LINE#         1500
  C:5DF9H         LINE#         1502
  C:5E28H         LINE#         1503
  C:5E57H         LINE#         1505
  C:5E6FH         LINE#         1506
  C:5E6FH         LINE#         1507
  C:5E7CH         LINE#         1508
  C:5E7EH         LINE#         1510
  C:5E7EH         LINE#         1511
  C:5E8EH         LINE#         1512
  C:5E8EH         LINE#         1513
  C:5E8EH         LINE#         1515
  C:5EA0H         LINE#         1516
  C:5EA7H         LINE#         1517
  C:5EAEH         LINE#         1518
  C:5EB5H         LINE#         1519
  -------         ENDPROC       _ARMAR_TRAMA_TARJETA_SECTOR1_BLOQUE2
  -------         PROC          _ARMAR_TRAMA_TARJETA_SECTOR1_BLOQUE0
  X:03EFH         SYMBOL        Buffer_Write_MF
  C:BE53H         LINE#         1521
  C:BE5EH         LINE#         1522
  C:BE5EH         LINE#         1524
  -------         ENDPROC       _ARMAR_TRAMA_TARJETA_SECTOR1_BLOQUE0
  -------         PROC          _ARMAR_TRAMA_PTO_PARALELO_EXPEDIDOR
  X:02C3H         SYMBOL        Atributos_Expedidor
  X:02C6H         SYMBOL        longitud_trama_pto_paralelo
  -------         DO            
BL51 BANKED LINKER/LOCATER V6.22.2.0                                                  06/04/2021  16:31:58  PAGE 115


  X:00BCH         SYMBOL        buffer
  X:02C9H         SYMBOL        ticket
  X:02D4H         SYMBOL        j
  -------         ENDDO         
  C:5258H         LINE#         1526
  C:5263H         LINE#         1527
  C:5263H         LINE#         1534
  C:5269H         LINE#         1535
  C:526DH         LINE#         1536
  C:5270H         LINE#         1537
  C:527CH         LINE#         1538
  C:5293H         LINE#         1539
  C:52A1H         LINE#         1541
  C:52B2H         LINE#         1543
  C:52DEH         LINE#         1544
  C:530AH         LINE#         1545
  C:5336H         LINE#         1546
  C:5362H         LINE#         1547
  C:538EH         LINE#         1548
  C:53A2H         LINE#         1558
  C:53B1H         LINE#         1559
  C:53B1H         LINE#         1560
  C:53B7H         LINE#         1561
  C:53B7H         LINE#         1562
  C:53CEH         LINE#         1563
  C:53E4H         LINE#         1564
  C:53FAH         LINE#         1565
  C:5410H         LINE#         1566
  C:5426H         LINE#         1567
  C:543BH         LINE#         1568
  C:543BH         LINE#         1569
  C:543DH         LINE#         1571
  C:543DH         LINE#         1572
  C:5450H         LINE#         1573
  C:5450H         LINE#         1574
  C:5450H         LINE#         1575
  C:5452H         LINE#         1577
  C:5452H         LINE#         1578
  C:5466H         LINE#         1579
  C:5479H         LINE#         1580
  C:5479H         LINE#         1581
  C:5487H         LINE#         1582
  C:5495H         LINE#         1583
  C:54A7H         LINE#         1585
  C:54ADH         LINE#         1586
  -------         ENDPROC       _ARMAR_TRAMA_PTO_PARALELO_EXPEDIDOR
  -------         PROC          _ARMAR_TRAMA_PTO_PARALELO_EXPEDIDOR_MENSUAL
  X:03B4H         SYMBOL        Atributos_Expedidor
  X:03B7H         SYMBOL        longitud_trama_pto_paralelo
  -------         DO            
  X:00D8H         SYMBOL        buffer
  -------         ENDDO         
  C:71CCH         LINE#         1587
  C:71D7H         LINE#         1588
  C:71D7H         LINE#         1594
  C:71DDH         LINE#         1595
  C:71E1H         LINE#         1596
BL51 BANKED LINKER/LOCATER V6.22.2.0                                                  06/04/2021  16:31:58  PAGE 116


  C:71F6H         LINE#         1597
  C:7200H         LINE#         1598
  C:720AH         LINE#         1599
  C:7214H         LINE#         1603
  C:7225H         LINE#         1604
  C:7241H         LINE#         1605
  C:725DH         LINE#         1606
  C:7279H         LINE#         1607
  C:7295H         LINE#         1617
  C:72A1H         LINE#         1618
  C:72A1H         LINE#         1620
  C:72A8H         LINE#         1621
  C:72ACH         LINE#         1622
  C:72B0H         LINE#         1623
  C:72B4H         LINE#         1624
  C:72B8H         LINE#         1625
  C:72BCH         LINE#         1627
  C:72BCH         LINE#         1629
  C:72D2H         LINE#         1630
  C:72D2H         LINE#         1631
  C:72D5H         LINE#         1632
  C:72D7H         LINE#         1634
  C:72D7H         LINE#         1635
  C:72DAH         LINE#         1636
  C:72DAH         LINE#         1638
  C:72E0H         LINE#         1639
  C:72E3H         LINE#         1640
  C:72F3H         LINE#         1641
  C:72F9H         LINE#         1642
  -------         ENDPROC       _ARMAR_TRAMA_PTO_PARALELO_EXPEDIDOR_MENSUAL
  -------         PROC          _ARMAR_TRAMA_MONITOR
  X:02E5H         SYMBOL        Atributos_Expedidor
  -------         DO            
  X:00F4H         SYMBOL        buffer
  X:02E8H         SYMBOL        ticket
  X:02F3H         SYMBOL        j
  -------         ENDDO         
  C:4FB5H         LINE#         1643
  C:4FC0H         LINE#         1644
  C:4FC0H         LINE#         1650
  C:4FC5H         LINE#         1651
  C:4FCBH         LINE#         1652
  C:4FD3H         LINE#         1653
  C:4FD7H         LINE#         1654
  C:4FE0H         LINE#         1655
  C:4FE0H         LINE#         1656
  C:4FE3H         LINE#         1657
  C:4FE5H         LINE#         1659
  C:4FE5H         LINE#         1660
  C:4FE8H         LINE#         1661
  C:4FE8H         LINE#         1664
  C:4FEBH         LINE#         1665
  C:4FEBH         LINE#         1666
  C:4FF0H         LINE#         1667
  C:4FFCH         LINE#         1668
  C:5013H         LINE#         1669
  C:5016H         LINE#         1671
BL51 BANKED LINKER/LOCATER V6.22.2.0                                                  06/04/2021  16:31:58  PAGE 117


  C:5016H         LINE#         1672
  C:5031H         LINE#         1673
  C:503FH         LINE#         1674
  C:504DH         LINE#         1675
  C:5059H         LINE#         1676
  C:5067H         LINE#         1677
  C:50A0H         LINE#         1679
  C:50A0H         LINE#         1680
  C:50AEH         LINE#         1681
  C:50BFH         LINE#         1684
  C:50EBH         LINE#         1685
  C:5109H         LINE#         1688
  C:512AH         LINE#         1689
  C:5148H         LINE#         1692
  C:5169H         LINE#         1693
  C:5187H         LINE#         1696
  C:51A8H         LINE#         1697
  C:51C6H         LINE#         1700
  C:51E7H         LINE#         1701
  C:5205H         LINE#         1702
  C:5218H         LINE#         1705
  C:5226H         LINE#         1707
  C:5234H         LINE#         1708
  C:5241H         LINE#         1709
  C:524DH         LINE#         1710
  C:5252H         LINE#         1711
  C:5257H         LINE#         1712
  -------         ENDPROC       _ARMAR_TRAMA_MONITOR
  -------         PROC          _ARMAR_TRAMA_PLACA
  X:03F2H         SYMBOL        Buffer_Write_MF
  -------         DO            
  D:0006H         SYMBOL        j
  D:0007H         SYMBOL        len_placa
  -------         ENDDO         
  C:B29EH         LINE#         1713
  C:B2A9H         LINE#         1714
  C:B2A9H         LINE#         1717
  C:B2B2H         LINE#         1718
  C:B2B9H         LINE#         1719
  C:B2B9H         LINE#         1720
  C:B2D3H         LINE#         1721
  C:B2D6H         LINE#         1722
  C:B2E2H         LINE#         1723
  C:B2E2H         LINE#         1724
  C:B2F6H         LINE#         1725
  C:B2F9H         LINE#         1726
  -------         ENDPROC       _ARMAR_TRAMA_PLACA
  C:BAE3H         SYMBOL        L?0402
  -------         PROC          L?0401
  -------         ENDPROC       L?0401
  C:BAE3H         SYMBOL        L?0402
  -------         PROC          _LOAD_SECUENCIA_EXPEDIDOR
  D:0001H         SYMBOL        Secuencia_Expedidor
  D:0004H         SYMBOL        estadoactivo
  X:0366H         SYMBOL        estadoactual
  X:0368H         SYMBOL        estadofuturo
  C:BAFFH         LINE#         1727
BL51 BANKED LINKER/LOCATER V6.22.2.0                                                  06/04/2021  16:31:58  PAGE 118


  C:BAFFH         LINE#         1728
  C:BAFFH         LINE#         1729
  C:BB06H         LINE#         1730
  C:BB0EH         LINE#         1731
  C:BB19H         LINE#         1732
  C:BB1FH         LINE#         1733
  -------         ENDPROC       _LOAD_SECUENCIA_EXPEDIDOR
  -------         PROC          _DISPARO_LOCK_ENTRADA_VEHICULO
  X:03D2H         SYMBOL        Nombre_Mensual
  -------         DO            
  X:03D5H         SYMBOL        Estado_expedidor
  X:010CH         SYMBOL        take_card
  -------         ENDDO         
  C:A442H         LINE#         1734
  C:A44DH         LINE#         1735
  C:A44DH         LINE#         1740
  C:A456H         LINE#         1744
  C:A45DH         LINE#         1745
  C:A45DH         LINE#         1747
  C:A466H         LINE#         1749
  C:A46CH         LINE#         1750
  C:A46EH         LINE#         1751
  C:A473H         LINE#         1752
  C:A483H         LINE#         1753
  C:A489H         LINE#         1756
  C:A48BH         LINE#         1757
  C:A493H         LINE#         1758
  C:A493H         LINE#         1759
  C:A499H         LINE#         1760
  C:A499H         LINE#         1761
  C:A4A6H         LINE#         1762
  C:A4ABH         LINE#         1763
  C:A4B0H         LINE#         1764
  C:A4B2H         LINE#         1766
  C:A4B2H         LINE#         1767
  C:A4B8H         LINE#         1769
  C:A4B8H         LINE#         1771
  C:A4BEH         LINE#         1772
  C:A4C4H         LINE#         1774
  C:A4C6H         LINE#         1776
  C:A4C6H         LINE#         1777
  C:A4CCH         LINE#         1778
  C:A4CCH         LINE#         1780
  C:A4CCH         LINE#         1785
  C:A4D1H         LINE#         1786
  -------         ENDPROC       _DISPARO_LOCK_ENTRADA_VEHICULO
  -------         PROC          _SEND_PTO_PARALELO
  X:0379H         SYMBOL        Atributos_Expedidor
  -------         DO            
  X:037CH         SYMBOL        Trama_Expedidor
  X:037FH         SYMBOL        leng_trama_pto
  -------         ENDDO         
  C:9BDFH         LINE#         1787
  C:9BEAH         LINE#         1788
  C:9BEAH         LINE#         1791
  C:9BEDH         LINE#         1792
  C:9BEDH         LINE#         1793
BL51 BANKED LINKER/LOCATER V6.22.2.0                                                  06/04/2021  16:31:58  PAGE 119


  C:9C14H         LINE#         1794
  C:9C16H         LINE#         1796
  C:9C16H         LINE#         1797
  C:9C3DH         LINE#         1798
  C:9C40H         LINE#         1799
  C:9C40H         LINE#         1801
  C:9C51H         LINE#         1802
  C:9C5AH         LINE#         1803
  C:9C71H         LINE#         1807
  C:9C74H         LINE#         1808
  C:9C7AH         LINE#         1809
  C:9C7FH         LINE#         1810
  C:9C81H         LINE#         1811
  C:9C83H         LINE#         1812
  -------         ENDPROC       _SEND_PTO_PARALELO
  -------         PROC          ENTREGA_CARD_CAPTURA
  -------         DO            
  X:0405H         SYMBOL        Estado_expedidor
  -------         ENDDO         
  C:A4D2H         LINE#         1816
  C:A4D2H         LINE#         1817
  C:A4D2H         LINE#         1821
  C:A4DBH         LINE#         1822
  C:A4DEH         LINE#         1823
  C:A4E1H         LINE#         1824
  C:A4E1H         LINE#         1825
  C:A4EBH         LINE#         1826
  C:A4EBH         LINE#         1827
  C:A4EDH         LINE#         1828
  C:A4EFH         LINE#         1829
  C:A4F8H         LINE#         1830
  C:A4F8H         LINE#         1831
  C:A4F8H         LINE#         1833
  C:A4FAH         LINE#         1835
  C:A4FAH         LINE#         1836
  C:A500H         LINE#         1837
  C:A500H         LINE#         1839
  C:A506H         LINE#         1841
  C:A519H         LINE#         1842
  C:A519H         LINE#         1843
  C:A526H         LINE#         1844
  C:A526H         LINE#         1845
  C:A528H         LINE#         1846
  C:A531H         LINE#         1848
  C:A533H         LINE#         1849
  C:A533H         LINE#         1850
  C:A535H         LINE#         1851
  C:A542H         LINE#         1852
  C:A542H         LINE#         1853
  C:A548H         LINE#         1854
  C:A548H         LINE#         1855
  C:A548H         LINE#         1857
  C:A54AH         LINE#         1859
  C:A54AH         LINE#         1860
  C:A54CH         LINE#         1861
  C:A555H         LINE#         1862
  C:A557H         LINE#         1863
BL51 BANKED LINKER/LOCATER V6.22.2.0                                                  06/04/2021  16:31:58  PAGE 120


  C:A55CH         LINE#         1864
  C:A55CH         LINE#         1865
  C:A55CH         LINE#         1867
  C:A561H         LINE#         1868
  -------         ENDPROC       ENTREGA_CARD_CAPTURA
  -------         PROC          _WAIT_PLACA
  X:0380H         SYMBOL        Atributos_Expedidor
  X:0383H         SYMBOL        Buffer_Write_MF
  -------         DO            
  X:0386H         SYMBOL        Estado_expedidor
  -------         ENDDO         
  C:97D1H         LINE#         1869
  C:97DCH         LINE#         1870
  C:97DCH         LINE#         1873
  C:97E5H         LINE#         1875
  C:97FBH         LINE#         1876
  C:97FBH         LINE#         1877
  C:97FEH         LINE#         1878
  C:97FEH         LINE#         1880
  C:9801H         LINE#         1881
  C:9801H         LINE#         1882
  C:9803H         LINE#         1884
  C:9806H         LINE#         1885
  C:9806H         LINE#         1886
  C:982EH         LINE#         1887
  C:9830H         LINE#         1890
  C:9830H         LINE#         1891
  C:9836H         LINE#         1892
  C:9849H         LINE#         1893
  C:9849H         LINE#         1894
  C:9856H         LINE#         1895
  C:9856H         LINE#         1896
  C:9865H         LINE#         1897
  C:986BH         LINE#         1898
  C:986DH         LINE#         1899
  C:987AH         LINE#         1900
  C:987AH         LINE#         1901
  C:9880H         LINE#         1902
  C:9880H         LINE#         1903
  C:9880H         LINE#         1904
  C:9880H         LINE#         1905
  C:9885H         LINE#         1906
  -------         ENDPROC       _WAIT_PLACA
  -------         PROC          _VALIDA_VEHICULO_CARD_MENSUAL
  X:03D6H         SYMBOL        Atributos_Expedidor
  -------         DO            
  X:03D9H         SYMBOL        Estado_expedidor
  -------         ENDDO         
  C:A168H         LINE#         1907
  C:A173H         LINE#         1908
  C:A173H         LINE#         1911
  C:A17CH         LINE#         1912
  C:A191H         LINE#         1913
  C:A191H         LINE#         1914
  C:A195H         LINE#         1915
  C:A197H         LINE#         1917
  C:A197H         LINE#         1918
BL51 BANKED LINKER/LOCATER V6.22.2.0                                                  06/04/2021  16:31:58  PAGE 121


  C:A19EH         LINE#         1919
  C:A19EH         LINE#         1921
  C:A1A7H         LINE#         1922
  C:A1B5H         LINE#         1923
  C:A1B5H         LINE#         1924
  C:A1CEH         LINE#         1925
  C:A1CEH         LINE#         1926
  C:A1D4H         LINE#         1927
  C:A1D4H         LINE#         1928
  C:A1D6H         LINE#         1931
  C:A1D6H         LINE#         1932
  C:A1DBH         LINE#         1933
  C:A1E4H         LINE#         1934
  C:A1E9H         LINE#         1935
  C:A1E9H         LINE#         1936
  C:A1EBH         LINE#         1938
  C:A1EBH         LINE#         1939
  C:A1F4H         LINE#         1940
  C:A1FAH         LINE#         1941
  C:A1FAH         LINE#         1942
  C:A1FFH         LINE#         1943
  -------         ENDPROC       _VALIDA_VEHICULO_CARD_MENSUAL
  -------         PROC          _TARJETA_MENSUAL
  X:0387H         SYMBOL        Atributos_Expedidor
  X:038AH         SYMBOL        Buffer_Write_MF
  -------         DO            
  X:038DH         SYMBOL        Estado_expedidor
  -------         ENDDO         
  C:8FA6H         LINE#         1944
  C:8FB1H         LINE#         1945
  C:8FB1H         LINE#         1950
  C:8FBCH         LINE#         1951
  C:8FBCH         LINE#         1952
  C:8FDAH         LINE#         1953
  C:8FDAH         LINE#         1955
  C:8FEBH         LINE#         1956
  C:8FEBH         LINE#         1957
  C:8FF3H         LINE#         1958
  C:8FF5H         LINE#         1960
  C:8FF5H         LINE#         1961
  C:8FFEH         LINE#         1962
  C:900EH         LINE#         1963
  C:9021H         LINE#         1964
  C:9041H         LINE#         1965
  C:9047H         LINE#         1966
  C:9047H         LINE#         1967
  C:9049H         LINE#         1969
  C:9049H         LINE#         1970
  C:904EH         LINE#         1972
  C:9053H         LINE#         1973
  C:905CH         LINE#         1974
  C:905CH         LINE#         1975
  C:905CH         LINE#         1976
  C:905EH         LINE#         1978
  C:905EH         LINE#         1980
  C:9064H         LINE#         1981
  C:9064H         LINE#         1982
BL51 BANKED LINKER/LOCATER V6.22.2.0                                                  06/04/2021  16:31:58  PAGE 122


  C:9069H         LINE#         1983
  -------         ENDPROC       _TARJETA_MENSUAL
  -------         PROC          _TARJETA_ROTACION
  D:0001H         SYMBOL        Atributos_Expedidor
  X:03BDH         SYMBOL        Buffer_Write_MF
  C:BD4AH         LINE#         1984
  C:BD4AH         LINE#         1985
  C:BD4AH         LINE#         1986
  C:BD4FH         LINE#         1987
  C:BD58H         LINE#         1988
  C:BD78H         LINE#         1989
  C:BD7AH         LINE#         1992
  -------         ENDPROC       _TARJETA_ROTACION
  -------         PROC          _VALIDA_TIPO_TARJETA
  X:038EH         SYMBOL        Atributos_Expedidor
  X:0391H         SYMBOL        Buffer_Write_MF
  -------         DO            
  X:0394H         SYMBOL        Estado_expedidor
  -------         ENDDO         
  C:6426H         LINE#         1993
  C:6431H         LINE#         1994
  C:6431H         LINE#         1996
  C:643EH         LINE#         1997
  C:643EH         LINE#         1998
  C:6447H         LINE#         1999
  C:644DH         LINE#         2000
  C:644DH         LINE#         2004
  C:645BH         LINE#         2005
  C:645BH         LINE#         2008
  C:6478H         LINE#         2009
  C:6478H         LINE#         2010
  C:6495H         LINE#         2012
  C:6497H         LINE#         2014
  C:6497H         LINE#         2015
  C:64A0H         LINE#         2016
  C:64A2H         LINE#         2017
  C:64A2H         LINE#         2018
  C:64A2H         LINE#         2019
  C:64A5H         LINE#         2022
  C:64A5H         LINE#         2023
  C:64AEH         LINE#         2025
  C:64D1H         LINE#         2026
  C:64D1H         LINE#         2027
  C:64D4H         LINE#         2029
  C:64D4H         LINE#         2030
  C:64D9H         LINE#         2031
  C:64DEH         LINE#         2032
  C:64E1H         LINE#         2033
  C:64E1H         LINE#         2034
  C:64E4H         LINE#         2035
  C:64FCH         LINE#         2036
  C:64FCH         LINE#         2038
  C:6505H         LINE#         2039
  C:650BH         LINE#         2040
  C:650BH         LINE#         2041
  C:6517H         LINE#         2042
  C:6517H         LINE#         2043
BL51 BANKED LINKER/LOCATER V6.22.2.0                                                  06/04/2021  16:31:58  PAGE 123


  C:6534H         LINE#         2045
  C:6534H         LINE#         2046
  C:6554H         LINE#         2047
  C:6556H         LINE#         2049
  C:6556H         LINE#         2050
  C:655FH         LINE#         2051
  C:6564H         LINE#         2052
  C:6569H         LINE#         2053
  C:656CH         LINE#         2054
  C:656CH         LINE#         2055
  C:656EH         LINE#         2057
  C:656EH         LINE#         2058
  C:6577H         LINE#         2059
  C:659AH         LINE#         2060
  C:659AH         LINE#         2061
  C:659CH         LINE#         2063
  C:659CH         LINE#         2065
  C:65A1H         LINE#         2066
  C:65A6H         LINE#         2067
  C:65ACH         LINE#         2068
  C:65ACH         LINE#         2069
  C:65AEH         LINE#         2071
  C:65AEH         LINE#         2072
  C:65B7H         LINE#         2073
  C:65BCH         LINE#         2075
  C:65C4H         LINE#         2076
  C:65C4H         LINE#         2078
  C:65C9H         LINE#         2079
  -------         ENDPROC       _VALIDA_TIPO_TARJETA
  -------         PROC          _HORARIOS
  X:029EH         SYMBOL        Atributos_Expedidor
  -------         DO            
  X:02A1H         SYMBOL        Estado_Horario
  X:02A2H         SYMBOL        Addr_horarios
  X:02ADH         SYMBOL        dia_semana
  X:02AEH         SYMBOL        EE_dia_semana
  X:02AFH         SYMBOL        addr
  -------         ENDDO         
  C:79BEH         LINE#         2173
  C:79C9H         LINE#         2174
  C:79C9H         LINE#         2180
  C:79D4H         LINE#         2181
  C:79D4H         LINE#         2183
  C:79E0H         LINE#         2185
  C:7A06H         LINE#         2189
  C:7A19H         LINE#         2190
  C:7A19H         LINE#         2192
  C:7A23H         LINE#         2193
  C:7A2CH         LINE#         2194
  C:7A34H         LINE#         2195
  C:7A3DH         LINE#         2198
  C:7A62H         LINE#         2199
  C:7A6BH         LINE#         2200
  C:7A73H         LINE#         2201
  C:7A7CH         LINE#         2203
  C:7A86H         LINE#         2204
  C:7A86H         LINE#         2206
BL51 BANKED LINKER/LOCATER V6.22.2.0                                                  06/04/2021  16:31:58  PAGE 124


  C:7A94H         LINE#         2207
  C:7A96H         LINE#         2209
  C:7A96H         LINE#         2211
  C:7A9FH         LINE#         2212
  C:7AA4H         LINE#         2213
  C:7AA4H         LINE#         2214
  C:7AA6H         LINE#         2216
  C:7AA6H         LINE#         2218
  C:7AABH         LINE#         2219
  C:7AB0H         LINE#         2220
  C:7AB6H         LINE#         2222
  C:7AB6H         LINE#         2224
  C:7AB8H         LINE#         2226
  C:7AB8H         LINE#         2227
  C:7ABEH         LINE#         2229
  C:7AC7H         LINE#         2230
  C:7AC7H         LINE#         2231
  C:7ACCH         LINE#         2232
  -------         ENDPROC       _HORARIOS
  -------         PROC          _HORA_MAXIMA
  X:036AH         SYMBOL        addr
  -------         DO            
  X:036CH         SYMBOL        Hora_High
  X:036DH         SYMBOL        Minuto_High
  X:036EH         SYMBOL        HoraIni
  X:036FH         SYMBOL        MinutoIni
  X:0370H         SYMBOL        Hora_Prog
  -------         ENDDO         
  C:993AH         LINE#         2233
  C:9942H         LINE#         2234
  C:9942H         LINE#         2239
  C:9957H         LINE#         2240
  C:9977H         LINE#         2241
  C:9994H         LINE#         2242
  C:99B4H         LINE#         2243
  C:99BCH         LINE#         2244
  C:99C4H         LINE#         2245
  C:99CDH         LINE#         2247
  C:99E5H         LINE#         2248
  -------         ENDPROC       _HORA_MAXIMA
  -------         PROC          _EN_HORARIO
  X:03C5H         SYMBOL        HoraNow
  D:0004H         SYMBOL        Hora_Prog
  X:03C7H         SYMBOL        addr
  -------         DO            
  X:03C9H         SYMBOL        Estado_Horario
  -------         ENDDO         
  C:AE8DH         LINE#         2249
  C:AE9BH         LINE#         2250
  C:AE9BH         LINE#         2253
  C:AEA8H         LINE#         2254
  C:AEA8H         LINE#         2257
  C:AEB1H         LINE#         2258
  C:AEC6H         LINE#         2261
  C:AED5H         LINE#         2262
  C:AED5H         LINE#         2264
  C:AEDCH         LINE#         2265
BL51 BANKED LINKER/LOCATER V6.22.2.0                                                  06/04/2021  16:31:58  PAGE 125


  C:AEE2H         LINE#         2266
  C:AEE4H         LINE#         2268
  C:AEE4H         LINE#         2271
  C:AEE8H         LINE#         2272
  C:AEE8H         LINE#         2273
  C:AEE8H         LINE#         2275
  C:AEEAH         LINE#         2277
  C:AEEAH         LINE#         2280
  C:AEF3H         LINE#         2281
  C:AEF8H         LINE#         2283
  C:AEF8H         LINE#         2284
  C:AEFDH         LINE#         2285
  -------         ENDPROC       _EN_HORARIO
  -------         PROC          _BLOQUE_HORARIO
  X:0395H         SYMBOL        addr
  -------         DO            
  X:0397H         SYMBOL        Estado_Horario
  X:0398H         SYMBOL        HoraNow
  X:039AH         SYMBOL        Hora_Prog
  -------         ENDDO         
  C:7BD9H         LINE#         2287
  C:7BE1H         LINE#         2288
  C:7BE1H         LINE#         2294
  C:7BEAH         LINE#         2295
  C:7BF2H         LINE#         2296
  C:7BFAH         LINE#         2297
  C:7C03H         LINE#         2298
  C:7C31H         LINE#         2303
  C:7C3AH         LINE#         2304
  C:7C4FH         LINE#         2305
  C:7C67H         LINE#         2306
  C:7C69H         LINE#         2307
  C:7C69H         LINE#         2310
  C:7C81H         LINE#         2311
  C:7C81H         LINE#         2312
  C:7C8AH         LINE#         2313
  C:7CA5H         LINE#         2314
  C:7CC3H         LINE#         2315
  C:7CC5H         LINE#         2317
  C:7CC5H         LINE#         2318
  C:7CCAH         LINE#         2319
  C:7CCFH         LINE#         2320
  C:7CD4H         LINE#         2321
  C:7CD4H         LINE#         2322
  C:7CD4H         LINE#         2324
  C:7CDBH         LINE#         2325
  -------         ENDPROC       _BLOQUE_HORARIO
  -------         PROC          SECUENCIA_INICIO_EXPEDIDOR
  -------         DO            
  X:0406H         SYMBOL        temp
  -------         ENDDO         
  C:6E1BH         LINE#         2334
  C:6E1BH         LINE#         2335
  C:6E1BH         LINE#         2337
  C:6E3BH         LINE#         2338
  C:6E3BH         LINE#         2339
  C:6E3BH         LINE#         2342
BL51 BANKED LINKER/LOCATER V6.22.2.0                                                  06/04/2021  16:31:58  PAGE 126


  C:6E40H         LINE#         2343
  C:6E46H         LINE#         2346
  C:6E48H         LINE#         2347
  C:6E48H         LINE#         2358
  C:6E48H         LINE#         2360
  C:6E56H         LINE#         2361
  C:6E56H         LINE#         2362
  C:6E62H         LINE#         2363
  C:6E62H         LINE#         2364
  C:6E68H         LINE#         2365
  C:6E6BH         LINE#         2366
  C:6E73H         LINE#         2367
  C:6E73H         LINE#         2368
  C:6E7AH         LINE#         2369
  C:6E8EH         LINE#         2370
  C:6E8EH         LINE#         2371
  C:6E90H         LINE#         2373
  C:6E90H         LINE#         2374
  C:6E97H         LINE#         2375
  C:6E9DH         LINE#         2376
  C:6E9DH         LINE#         2377
  C:6EA0H         LINE#         2379
  C:6EA0H         LINE#         2380
  C:6EA9H         LINE#         2381
  C:6EBDH         LINE#         2382
  C:6EC3H         LINE#         2383
  C:6EC3H         LINE#         2384
  C:6EC6H         LINE#         2385
  C:6EC6H         LINE#         2391
  C:6EC6H         LINE#         2393
  C:6EC9H         LINE#         2394
  C:6ECFH         LINE#         2398
  C:6ED1H         LINE#         2399
  C:6ED1H         LINE#         2409
  C:6ED1H         LINE#         2411
  C:6EDFH         LINE#         2412
  C:6EDFH         LINE#         2413
  C:6EEBH         LINE#         2414
  C:6EEBH         LINE#         2415
  C:6EF1H         LINE#         2416
  C:6EF3H         LINE#         2417
  C:6EFBH         LINE#         2418
  C:6EFBH         LINE#         2419
  C:6F02H         LINE#         2420
  C:6F16H         LINE#         2421
  C:6F16H         LINE#         2422
  C:6F18H         LINE#         2424
  C:6F18H         LINE#         2425
  C:6F1FH         LINE#         2426
  C:6F25H         LINE#         2427
  C:6F25H         LINE#         2428
  C:6F27H         LINE#         2430
  C:6F27H         LINE#         2431
  C:6F30H         LINE#         2432
  C:6F44H         LINE#         2433
  C:6F49H         LINE#         2434
  C:6F49H         LINE#         2436
BL51 BANKED LINKER/LOCATER V6.22.2.0                                                  06/04/2021  16:31:58  PAGE 127


  C:6F4BH         LINE#         2437
  C:6F4BH         LINE#         2443
  C:6F4BH         LINE#         2445
  C:6F51H         LINE#         2446
  C:6F51H         LINE#         2449
  C:6F51H         LINE#         2450
  C:6F58H         LINE#         2451
  C:6F58H         LINE#         2452
  C:6F58H         LINE#         2453
  -------         ENDPROC       SECUENCIA_INICIO_EXPEDIDOR
  -------         PROC          _SECUENCIAEXPEDIDORMF
  X:0407H         SYMBOL        EstadoActivo
  -------         DO            
  X:010DH         SYMBOL        Buffer_Write_MF
  X:011EH         SYMBOL        Atributos_Expedidor
  X:0132H         SYMBOL        Secuencia_Expedidor
  X:0136H         SYMBOL        Nombre_Mensual
  -------         ENDDO         
  C:3AD0H         LINE#         2463
  C:3AD5H         LINE#         2464
  C:3AD5H         LINE#         2470
  C:3B38H         LINE#         2471
  C:3B38H         LINE#         2474
  C:3B38H         LINE#         2476
  C:3B48H         LINE#         2477
  C:3B48H         LINE#         2480
  C:3B4AH         LINE#         2481
  C:3B4CH         LINE#         2482
  C:3B51H         LINE#         2483
  C:3B59H         LINE#         2484
  C:3B5EH         LINE#         2485
  C:3B61H         LINE#         2486
  C:3B61H         LINE#         2487
  C:3B67H         LINE#         2488
  C:3B67H         LINE#         2489
  C:3B6AH         LINE#         2490
  C:3B6AH         LINE#         2491
  C:3B6AH         LINE#         2493
  C:3B6DH         LINE#         2494
  C:3B6DH         LINE#         2496
  C:3B76H         LINE#         2497
  C:3B79H         LINE#         2498
  C:3B79H         LINE#         2499
  C:3B7EH         LINE#         2500
  C:3B9EH         LINE#         2501
  C:3BA1H         LINE#         2502
  C:3BA1H         LINE#         2503
  C:3BA6H         LINE#         2504
  C:3BAEH         LINE#         2505
  C:3BB4H         LINE#         2506
  C:3BB7H         LINE#         2507
  C:3BB7H         LINE#         2508
  C:3BBAH         LINE#         2509
  C:3BC2H         LINE#         2510
  C:3BC8H         LINE#         2511
  C:3BCBH         LINE#         2512
  C:3BCBH         LINE#         2513
BL51 BANKED LINKER/LOCATER V6.22.2.0                                                  06/04/2021  16:31:58  PAGE 128


  C:3BCEH         LINE#         2514
  C:3BF3H         LINE#         2515
  C:3BF9H         LINE#         2516
  C:3BFBH         LINE#         2517
  C:3BFEH         LINE#         2518
  C:3BFEH         LINE#         2519
  C:3C09H         LINE#         2520
  C:3C11H         LINE#         2521
  C:3C17H         LINE#         2522
  C:3C1AH         LINE#         2523
  C:3C1AH         LINE#         2524
  C:3C2BH         LINE#         2525
  C:3C33H         LINE#         2526
  C:3C39H         LINE#         2527
  C:3C3CH         LINE#         2528
  C:3C3CH         LINE#         2529
  C:3C41H         LINE#         2530
  C:3C5FH         LINE#         2531
  C:3C62H         LINE#         2532
  C:3C62H         LINE#         2533
  C:3C67H         LINE#         2534
  C:3C87H         LINE#         2535
  C:3C8AH         LINE#         2536
  C:3C8AH         LINE#         2537
  C:3C8FH         LINE#         2538
  C:3C91H         LINE#         2539
  C:3CAFH         LINE#         2540
  C:3CB2H         LINE#         2541
  C:3CB2H         LINE#         2542
  C:3CB7H         LINE#         2543
  C:3CD7H         LINE#         2544
  C:3CDAH         LINE#         2545
  C:3CDAH         LINE#         2546
  C:3CEDH         LINE#         2547
  C:3CEDH         LINE#         2548
  C:3CF2H         LINE#         2549
  C:3CFAH         LINE#         2550
  C:3D00H         LINE#         2551
  C:3D00H         LINE#         2552
  C:3D03H         LINE#         2553
  C:3D03H         LINE#         2554
  C:3D16H         LINE#         2555
  C:3D16H         LINE#         2556
  C:3D1BH         LINE#         2557
  C:3D1EH         LINE#         2558
  C:3D1EH         LINE#         2559
  C:3D21H         LINE#         2560
  C:3D21H         LINE#         2561
  C:3D24H         LINE#         2562
  C:3D44H         LINE#         2563
  C:3D47H         LINE#         2564
  C:3D47H         LINE#         2565
  C:3D49H         LINE#         2566
  C:3D4CH         LINE#         2567
  C:3D4FH         LINE#         2568
  C:3D4FH         LINE#         2569
  C:3D58H         LINE#         2570
BL51 BANKED LINKER/LOCATER V6.22.2.0                                                  06/04/2021  16:31:58  PAGE 129


  C:3D5BH         LINE#         2571
  C:3D5BH         LINE#         2572
  C:3D72H         LINE#         2573
  C:3D75H         LINE#         2574
  C:3D75H         LINE#         2575
  C:3D78H         LINE#         2576
  C:3D80H         LINE#         2577
  C:3D86H         LINE#         2578
  C:3D89H         LINE#         2579
  C:3D89H         LINE#         2580
  C:3D92H         LINE#         2581
  C:3D95H         LINE#         2582
  C:3D95H         LINE#         2583
  C:3D97H         LINE#         2584
  C:3D9AH         LINE#         2585
  C:3D9DH         LINE#         2586
  C:3D9DH         LINE#         2587
  C:3DB4H         LINE#         2588
  C:3DB7H         LINE#         2589
  C:3DB7H         LINE#         2590
  C:3DBCH         LINE#         2591
  C:3DC4H         LINE#         2592
  C:3DCAH         LINE#         2593
  C:3DCDH         LINE#         2594
  C:3DCDH         LINE#         2595
  C:3DD0H         LINE#         2596
  C:3DF0H         LINE#         2597
  C:3DF3H         LINE#         2598
  C:3DF3H         LINE#         2599
  C:3DF6H         LINE#         2600
  C:3E16H         LINE#         2601
  C:3E19H         LINE#         2602
  C:3E19H         LINE#         2603
  C:3E1CH         LINE#         2604
  C:3E24H         LINE#         2605
  C:3E27H         LINE#         2606
  C:3E29H         LINE#         2607
  C:3E29H         LINE#         2609
  C:3E34H         LINE#         2610
  C:3E3CH         LINE#         2611
  C:3E50H         LINE#         2612
  C:3E53H         LINE#         2616
  C:3E53H         LINE#         2617
  C:3E59H         LINE#         2618
  C:3E5FH         LINE#         2619
  C:3E5FH         LINE#         2620
  C:3E67H         LINE#         2621
  C:3E6DH         LINE#         2623
  C:3E70H         LINE#         2624
  C:3E78H         LINE#         2625
  C:3E78H         LINE#         2627
  C:3E7BH         LINE#         2628
  C:3E7EH         LINE#         2629
  C:3E86H         LINE#         2630
  C:3E86H         LINE#         2631
  C:3E94H         LINE#         2632
  C:3E94H         LINE#         2633
BL51 BANKED LINKER/LOCATER V6.22.2.0                                                  06/04/2021  16:31:58  PAGE 130


  C:3E9DH         LINE#         2634
  C:3EA0H         LINE#         2635
  C:3EACH         LINE#         2636
  C:3EACH         LINE#         2637
  C:3EB5H         LINE#         2638
  C:3EB8H         LINE#         2640
  C:3EB8H         LINE#         2641
  C:3EC1H         LINE#         2642
  C:3EC1H         LINE#         2643
  C:3EC4H         LINE#         2644
  C:3ECCH         LINE#         2645
  C:3ECCH         LINE#         2646
  C:3EDAH         LINE#         2647
  C:3EDAH         LINE#         2648
  C:3EF0H         LINE#         2649
  C:3EF3H         LINE#         2650
  C:3EFFH         LINE#         2651
  C:3EFFH         LINE#         2652
  C:3F08H         LINE#         2653
  C:3F0BH         LINE#         2654
  C:3F19H         LINE#         2655
  C:3F19H         LINE#         2656
  C:3F22H         LINE#         2657
  C:3F24H         LINE#         2659
  C:3F24H         LINE#         2660
  C:3F2DH         LINE#         2661
  C:3F2DH         LINE#         2662
  C:3F2FH         LINE#         2663
  C:3F37H         LINE#         2664
  C:3F37H         LINE#         2665
  C:3F40H         LINE#         2666
  C:3F42H         LINE#         2667
  C:3F4AH         LINE#         2668
  C:3F4AH         LINE#         2669
  C:3F60H         LINE#         2670
  C:3F62H         LINE#         2671
  C:3F6AH         LINE#         2672
  C:3F6AH         LINE#         2673
  C:3F6DH         LINE#         2674
  C:3F6FH         LINE#         2676
  C:3F77H         LINE#         2677
  C:3F77H         LINE#         2678
  C:3F80H         LINE#         2679
  C:3F82H         LINE#         2682
  C:3F8AH         LINE#         2683
  C:3F8AH         LINE#         2684
  C:3F92H         LINE#         2685
  C:3F94H         LINE#         2687
  C:3F94H         LINE#         2688
  C:3F9DH         LINE#         2689
  C:3F9DH         LINE#         2690
  C:3F9FH         LINE#         2691
  C:3F9FH         LINE#         2692
  C:3FA4H         LINE#         2693
  C:3FA4H         LINE#         2695
  C:3FA4H         LINE#         2696
  C:3FA9H         LINE#         2697
BL51 BANKED LINKER/LOCATER V6.22.2.0                                                  06/04/2021  16:31:58  PAGE 131


  -------         ENDPROC       _SECUENCIAEXPEDIDORMF
  -------         ENDMOD        VERIFICADOR

  -------         MODULE        MONITOR
  C:0000H         SYMBOL        _ICE_DUMMY_
  D:0080H         PUBLIC        P0
  D:0090H         PUBLIC        P1
  I:0011H         PUBLIC        placa
  C:BEEEH         PUBLIC        Rx_Monitor
  B:0080H.0       PUBLIC        rx_ip
  B:0090H.7       PUBLIC        lock
  C:91EFH         PUBLIC        _recibe_cmd_Monitor
  C:C053H         PUBLIC        clear_placa
  C:95A7H         PUBLIC        _Valida_Trama_Monitor
  -------         PROC          _RECIBE_CMD_MONITOR
  X:000EH         SYMBOL        buffer_cmd
  -------         DO            
  X:0011H         SYMBOL        j
  X:0012H         SYMBOL        NumDatos
  X:0013H         SYMBOL        time_out
  X:0014H         SYMBOL        MaxChrRx
  X:0015H         SYMBOL        contador
  -------         ENDDO         
  C:91EFH         LINE#         50
  C:91FAH         LINE#         51
  C:91FAH         LINE#         55
  C:91FFH         LINE#         56
  C:9205H         LINE#         58
  C:9210H         LINE#         59
  C:9210H         LINE#         60
  C:9221H         LINE#         61
  C:9221H         LINE#         62
  C:9228H         LINE#         63
  C:922CH         LINE#         64
  C:9235H         LINE#         65
  C:9235H         LINE#         66
  C:9243H         LINE#         67
  C:925AH         LINE#         68
  C:925AH         LINE#         69
  C:9260H         LINE#         70
  C:9266H         LINE#         71
  C:9266H         LINE#         72
  C:9268H         LINE#         73
  C:9270H         LINE#         74
  C:9276H         LINE#         75
  C:9288H         LINE#         76
  C:9292H         LINE#         77
  C:929BH         LINE#         79
  C:92AAH         LINE#         82
  C:92AAH         LINE#         83
  C:92AFH         LINE#         84
  -------         ENDPROC       _RECIBE_CMD_MONITOR
  -------         PROC          _VALIDA_TRAMA_MONITOR
  X:000EH         SYMBOL        buffer
  D:0005H         SYMBOL        length_trama
  -------         DO            
  X:0011H         SYMBOL        j
BL51 BANKED LINKER/LOCATER V6.22.2.0                                                  06/04/2021  16:31:58  PAGE 132


  X:0012H         SYMBOL        p
  X:0013H         SYMBOL        cont
  -------         ENDDO         
  C:95A7H         LINE#         89
  C:95B2H         LINE#         90
  C:95B2H         LINE#         91
  C:95B5H         LINE#         92
  C:95B9H         LINE#         93
  C:95BCH         LINE#         94
  C:95BEH         LINE#         97
  C:95D2H         LINE#         98
  C:95D2H         LINE#         100
  C:95D4H         LINE#         102
  C:95DBH         LINE#         103
  C:95E0H         LINE#         106
  C:95E0H         LINE#         108
  C:95FBH         LINE#         109
  C:95FBH         LINE#         112
  C:95FBH         LINE#         113
  C:961CH         LINE#         114
  C:9620H         LINE#         115
  C:9626H         LINE#         116
  C:9638H         LINE#         117
  C:9650H         LINE#         118
  C:9659H         LINE#         119
  C:965BH         LINE#         120
  C:9661H         LINE#         123
  C:9661H         LINE#         126
  -------         ENDPROC       _VALIDA_TRAMA_MONITOR
  -------         PROC          CLEAR_PLACA
  -------         DO            
  D:0007H         SYMBOL        i
  -------         ENDDO         
  C:C053H         LINE#         127
  C:C053H         LINE#         128
  C:C053H         LINE#         130
  C:C05FH         LINE#         131
  C:C05FH         LINE#         132
  C:C065H         LINE#         133
  C:C068H         LINE#         134
  C:C06AH         LINE#         135
  -------         ENDPROC       CLEAR_PLACA
  -------         PROC          RX_MONITOR
  -------         DO            
  X:0001H         SYMBOL        Length_trama
  X:0002H         SYMBOL        buffer1
  -------         ENDDO         
  C:BEEEH         LINE#         136
  C:BEEEH         LINE#         137
  C:BEEEH         LINE#         140
  C:BEFDH         LINE#         141
  C:BF06H         LINE#         142
  -------         ENDPROC       RX_MONITOR
  -------         ENDMOD        MONITOR

  -------         MODULE        ?C?FPADD
  C:1335H         PUBLIC        ?C?FPADD
BL51 BANKED LINKER/LOCATER V6.22.2.0                                                  06/04/2021  16:31:58  PAGE 133


  C:1331H         PUBLIC        ?C?FPSUB
  -------         ENDMOD        ?C?FPADD

  -------         MODULE        ?C?FPMUL
  C:1426H         PUBLIC        ?C?FPMUL
  -------         ENDMOD        ?C?FPMUL

  -------         MODULE        ?C?FCAST
  C:1536H         PUBLIC        ?C?FCASTC
  C:1531H         PUBLIC        ?C?FCASTI
  C:152CH         PUBLIC        ?C?FCASTL
  -------         ENDMOD        ?C?FCAST

  -------         MODULE        ?C?CASTF
  C:156AH         PUBLIC        ?C?CASTF
  -------         ENDMOD        ?C?CASTF

  -------         MODULE        PRINTF
  X:0077H         PUBLIC        ?_PRINTF?BYTE
  X:0077H         PUBLIC        ?_SPRINTF?BYTE
  C:4015H         PUBLIC        _PRINTF
  C:400FH         PUBLIC        _SPRINTF
  -------         ENDMOD        PRINTF

  -------         MODULE        POW
  X:0025H         PUBLIC        ?_pow?BYTE
  C:68DBH         PUBLIC        _pow
  -------         ENDMOD        POW

  -------         MODULE        ?C?CHKFLOAT
  C:15EBH         PUBLIC        ?C?CHKFLOAT
  -------         ENDMOD        ?C?CHKFLOAT

  -------         MODULE        ?C?FPCMP
  C:1607H         PUBLIC        ?C?FPCMP
  C:1605H         PUBLIC        ?C?FPCMP3
  -------         ENDMOD        ?C?FPCMP

  -------         MODULE        ?C?FPNEG
  C:167EH         PUBLIC        ?C?FPNEG
  -------         ENDMOD        ?C?FPNEG

  -------         MODULE        ?C?FPROUND
  C:168FH         PUBLIC        ?C?FPROUND
  -------         ENDMOD        ?C?FPROUND

  -------         MODULE        ?C?FPCONVERT
  C:16CCH         PUBLIC        ?C?FPCONVERT
  -------         ENDMOD        ?C?FPCONVERT

  -------         MODULE        EXP
  C:9FD4H         PUBLIC        _EXP
  -------         ENDMOD        EXP

  -------         MODULE        LOG
  C:7459H         PUBLIC        _LOG
  C:7455H         PUBLIC        _LOG10
BL51 BANKED LINKER/LOCATER V6.22.2.0                                                  06/04/2021  16:31:58  PAGE 134


  -------         ENDMOD        LOG

  -------         MODULE        ?C?FPDIV
  C:17D4H         PUBLIC        ?C?FPDIV
  -------         ENDMOD        ?C?FPDIV

  -------         MODULE        ?C?FTNPWR
  C:18A1H         PUBLIC        ?C?FTNPWR
  -------         ENDMOD        ?C?FTNPWR

  -------         MODULE        ?C?COPY
  C:19FEH         PUBLIC        ?C?COPY
  -------         ENDMOD        ?C?COPY

  -------         MODULE        ?C?CLDPTR
  C:1A24H         PUBLIC        ?C?CLDPTR
  -------         ENDMOD        ?C?CLDPTR

  -------         MODULE        ?C?CLDOPTR
  C:1A3DH         PUBLIC        ?C?CLDOPTR
  -------         ENDMOD        ?C?CLDOPTR

  -------         MODULE        ?C?CSTPTR
  C:1A6AH         PUBLIC        ?C?CSTPTR
  -------         ENDMOD        ?C?CSTPTR

  -------         MODULE        ?C?CSTOPTR
  C:1A7CH         PUBLIC        ?C?CSTOPTR
  -------         ENDMOD        ?C?CSTOPTR

  -------         MODULE        ?C?IMUL
  C:1A9EH         PUBLIC        ?C?IMUL
  -------         ENDMOD        ?C?IMUL

  -------         MODULE        ?C?IILDX
  C:1AB0H         PUBLIC        ?C?IILDX
  -------         ENDMOD        ?C?IILDX

  -------         MODULE        ?C?LNEG
  C:1AC6H         PUBLIC        ?C?LNEG
  -------         ENDMOD        ?C?LNEG

  -------         MODULE        ?C?SLCMP
  C:1AD4H         PUBLIC        ?C?SLCMP
  -------         ENDMOD        ?C?SLCMP

  -------         MODULE        ?C?ULCMP
  C:1AEAH         PUBLIC        ?C?ULCMP
  -------         ENDMOD        ?C?ULCMP

  -------         MODULE        ?C?ULSHR
  C:1AFBH         PUBLIC        ?C?ULSHR
  -------         ENDMOD        ?C?ULSHR

  -------         MODULE        ?C?LSHL
  C:1B0EH         PUBLIC        ?C?LSHL
  -------         ENDMOD        ?C?LSHL
BL51 BANKED LINKER/LOCATER V6.22.2.0                                                  06/04/2021  16:31:58  PAGE 135



  -------         MODULE        ?C?LLDCODE
  C:1B21H         PUBLIC        ?C?LLDCODE
  -------         ENDMOD        ?C?LLDCODE

  -------         MODULE        ?C?LLDXDATA0
  C:1B31H         PUBLIC        ?C?LLDXDATA0
  -------         ENDMOD        ?C?LLDXDATA0

  -------         MODULE        ?C?LLDCODE0
  C:1B3DH         PUBLIC        ?C?LLDCODE0
  -------         ENDMOD        ?C?LLDCODE0

  -------         MODULE        ?C?LSTXDATA
  C:1B4DH         PUBLIC        ?C?LSTXDATA
  -------         ENDMOD        ?C?LSTXDATA

  -------         MODULE        ?C?LSTKXDATA
  C:1B59H         PUBLIC        ?C?LSTKXDATA
  -------         ENDMOD        ?C?LSTKXDATA

  -------         MODULE        ?C?PLDIXDATA
  C:1B8AH         PUBLIC        ?C?PLDIXDATA
  -------         ENDMOD        ?C?PLDIXDATA

  -------         MODULE        ?C?PSTXDATA
  C:1BA1H         PUBLIC        ?C?PSTXDATA
  -------         ENDMOD        ?C?PSTXDATA

  -------         MODULE        ?C?CCASE
  C:1BAAH         PUBLIC        ?C?CCASE
  -------         ENDMOD        ?C?CCASE

  -------         MODULE        STRCAT
  X:004CH         PUBLIC        ?_strcat?BYTE
  C:B0B0H         PUBLIC        _strcat
  -------         ENDMOD        STRCAT

  -------         MODULE        ?C?STRCMP
  C:1D4EH         PUBLIC        ?C?STRCMP
  -------         ENDMOD        ?C?STRCMP

  -------         MODULE        ?C?STRCPY
  C:1E37H         PUBLIC        ?C?STRCPY
  -------         ENDMOD        ?C?STRCPY

  -------         MODULE        STRLEN
  C:000EH         PUBLIC        _STRLEN
  -------         ENDMOD        STRLEN

  -------         MODULE        STRTOK
  X:0064H         PUBLIC        ?_strtok?BYTE
  C:869BH         PUBLIC        _strtok
  -------         ENDMOD        STRTOK

  -------         MODULE        ATOL
  C:7ACDH         PUBLIC        _atol
BL51 BANKED LINKER/LOCATER V6.22.2.0                                                  06/04/2021  16:31:58  PAGE 136


  -------         ENDMOD        ATOL

  -------         MODULE        ATOI
  C:885DH         PUBLIC        _atoi
  -------         ENDMOD        ATOI

  -------         MODULE        ?C?ILDIX
  C:1E54H         PUBLIC        ?C?ILDIX
  -------         ENDMOD        ?C?ILDIX

  -------         MODULE        ?C?LMUL
  C:1E6AH         PUBLIC        ?C?LMUL
  -------         ENDMOD        ?C?LMUL

  -------         MODULE        ISDIGIT
  C:C163H         PUBLIC        _isdigit
  -------         ENDMOD        ISDIGIT

  -------         MODULE        ISSPACE
  C:C0C3H         PUBLIC        _isspace
  -------         ENDMOD        ISSPACE

  -------         MODULE        STRSPN
  X:006AH         PUBLIC        ?_strspn?BYTE
  C:A9A1H         PUBLIC        _strspn
  -------         ENDMOD        STRSPN

  -------         MODULE        STRPBRK
  X:006AH         PUBLIC        ?_strpbrk?BYTE
  C:AAA8H         PUBLIC        _strpbrk
  -------         ENDMOD        STRPBRK

*** WARNING L16: UNCALLED SEGMENT, IGNORED FOR OVERLAY PROCESS
    SEGMENT: ?PR?SECUENCIA_INICIO_EXPEDIDOR?VERIFICADOR

*** WARNING L16: UNCALLED SEGMENT, IGNORED FOR OVERLAY PROCESS
    SEGMENT: ?PR?_SECUENCIAEXPEDIDORMF?VERIFICADOR

Program Size: data=99.1 xdata=1032 code=49648
LINK/LOCATE RUN COMPLETE.  2 WARNING(S),  0 ERROR(S)
