BL51 BANKED LINKER/LOCATER V6.22.2.0                                                    08/20/2020  14:46:33  PAGE 1


BL51 BANKED LINKER/LOCATER V6.22.2.0, INVOKED BY:
C:\KEIL_V5\C51\BIN\BL51.EXE .\Objects\main.obj, .\Objects\Accescan.obj, .\Objects\Clock.obj, .\Objects\delay.obj, .\Obje
>> cts\eeprom.obj, .\Objects\io_sensores.obj, .\Objects\pantallas.obj, .\Objects\prog.obj, .\Objects\pto_paralelo.obj, .
>> \Objects\tibbo.obj, .\Objects\uart.obj, .\Objects\lintech.obj, .\Objects\verificador.obj, .\Objects\Monitor.obj TO .\
>> Objects\expedidor_v_01_raspberry PRINT (.\Listings\expedidor_v_01_raspberry.m51) RAMSIZE (256)


MEMORY MODEL: LARGE WITH FLOATING POINT ARITHMETIC


INPUT MODULES INCLUDED:
  .\Objects\main.obj (MAIN)
  .\Objects\Accescan.obj (ACCESCAN)
  .\Objects\Clock.obj (CLOCK)
  .\Objects\delay.obj (DELAY)
  .\Objects\eeprom.obj (EEPROM)
  .\Objects\io_sensores.obj (IO_SENSORES)
  .\Objects\pantallas.obj (PANTALLAS)
  .\Objects\prog.obj (PROG)
  .\Objects\pto_paralelo.obj (PTO_PARALELO)
  .\Objects\tibbo.obj (TIBBO)
  .\Objects\uart.obj (UART)
  .\Objects\lintech.obj (LINTECH)
  .\Objects\verificador.obj (VERIFICADOR)
  .\Objects\Monitor.obj (MONITOR)
  C:\KEIL_V5\C51\LIB\C51FPL.LIB (?C?FPADD)
  C:\KEIL_V5\C51\LIB\C51FPL.LIB (?C?FPMUL)
  C:\KEIL_V5\C51\LIB\C51FPL.LIB (?C?FCAST)
  C:\KEIL_V5\C51\LIB\C51FPL.LIB (?C?CASTF)
  C:\KEIL_V5\C51\LIB\C51FPL.LIB (PRINTF)
  C:\KEIL_V5\C51\LIB\C51FPL.LIB (POW)
  C:\KEIL_V5\C51\LIB\C51FPL.LIB (?C?FPGETOPN)
  C:\KEIL_V5\C51\LIB\C51FPL.LIB (?C?CHKFLOAT)
  C:\KEIL_V5\C51\LIB\C51FPL.LIB (?C?FPCMP)
  C:\KEIL_V5\C51\LIB\C51FPL.LIB (?C?FPNEG)
  C:\KEIL_V5\C51\LIB\C51FPL.LIB (?C?FPROUND)
  C:\KEIL_V5\C51\LIB\C51FPL.LIB (?C?FPCONVERT)
  C:\KEIL_V5\C51\LIB\C51FPL.LIB (EXP)
  C:\KEIL_V5\C51\LIB\C51FPL.LIB (LOG)
  C:\KEIL_V5\C51\LIB\C51FPL.LIB (?C?FPDIV)
  C:\KEIL_V5\C51\LIB\C51FPL.LIB (?C?FTNPWR)
  C:\KEIL_V5\C51\LIB\C51FPL.LIB (?C?FPSERIES)
  C:\KEIL_V5\C51\LIB\C51L.LIB (?C_STARTUP)
  C:\KEIL_V5\C51\LIB\C51L.LIB (?C?COPY)
  C:\KEIL_V5\C51\LIB\C51L.LIB (?C?CLDPTR)
  C:\KEIL_V5\C51\LIB\C51L.LIB (?C?CLDOPTR)
  C:\KEIL_V5\C51\LIB\C51L.LIB (?C?CSTPTR)
  C:\KEIL_V5\C51\LIB\C51L.LIB (?C?CSTOPTR)
  C:\KEIL_V5\C51\LIB\C51L.LIB (?C?IMUL)
  C:\KEIL_V5\C51\LIB\C51L.LIB (?C?IILDX)
  C:\KEIL_V5\C51\LIB\C51L.LIB (?C?LNEG)
  C:\KEIL_V5\C51\LIB\C51L.LIB (?C?SLCMP)
  C:\KEIL_V5\C51\LIB\C51L.LIB (?C?ULCMP)
  C:\KEIL_V5\C51\LIB\C51L.LIB (?C?ULSHR)
  C:\KEIL_V5\C51\LIB\C51L.LIB (?C?LSHL)
  C:\KEIL_V5\C51\LIB\C51L.LIB (?C?LLDCODE)
  C:\KEIL_V5\C51\LIB\C51L.LIB (?C?LLDXDATA0)
  C:\KEIL_V5\C51\LIB\C51L.LIB (?C?LLDCODE0)
BL51 BANKED LINKER/LOCATER V6.22.2.0                                                  08/20/2020  14:46:33  PAGE 2


  C:\KEIL_V5\C51\LIB\C51L.LIB (?C?LSTXDATA)
  C:\KEIL_V5\C51\LIB\C51L.LIB (?C?LSTKXDATA)
  C:\KEIL_V5\C51\LIB\C51L.LIB (?C?PLDIXDATA)
  C:\KEIL_V5\C51\LIB\C51L.LIB (?C?PSTXDATA)
  C:\KEIL_V5\C51\LIB\C51L.LIB (?C?CCASE)
  C:\KEIL_V5\C51\LIB\C51L.LIB (STRCAT)
  C:\KEIL_V5\C51\LIB\C51L.LIB (?C?STRCMP)
  C:\KEIL_V5\C51\LIB\C51L.LIB (?C?STRCPY)
  C:\KEIL_V5\C51\LIB\C51L.LIB (STRLEN)
  C:\KEIL_V5\C51\LIB\C51L.LIB (STRTOK)
  C:\KEIL_V5\C51\LIB\C51L.LIB (ATOL)
  C:\KEIL_V5\C51\LIB\C51L.LIB (ATOI)
  C:\KEIL_V5\C51\LIB\C51L.LIB (?C_INIT)
  C:\KEIL_V5\C51\LIB\C51L.LIB (?C?ILDIX)
  C:\KEIL_V5\C51\LIB\C51L.LIB (?C?LMUL)
  C:\KEIL_V5\C51\LIB\C51L.LIB (ISDIGIT)
  C:\KEIL_V5\C51\LIB\C51L.LIB (ISSPACE)
  C:\KEIL_V5\C51\LIB\C51L.LIB (STRSPN)
  C:\KEIL_V5\C51\LIB\C51L.LIB (STRPBRK)


LINK MAP OF MODULE:  .\Objects\expedidor_v_01_raspberry (MAIN)


            TYPE    BASE      LENGTH    RELOCATION   SEGMENT NAME
            -----------------------------------------------------

            * * * * * * *   D A T A   M E M O R Y   * * * * * * *
            REG     0000H     0008H     ABSOLUTE     "REG BANK 0"
            DATA    0008H     0005H     UNIT         _DATA_GROUP_
            DATA    000DH     0004H     UNIT         ?DT?UART
            IDATA   0011H     0009H     UNIT         ?ID?MONITOR
                    001AH     0006H                  *** GAP ***
            BIT     0020H.0   0001H.1   UNIT         _BIT_GROUP_
            BIT     0021H.1   0000H.2   UNIT         ?BI?MAIN
            BIT     0021H.3   0000H.2   UNIT         ?BI?UART
            BIT     0021H.5   0000H.1   UNIT         ?BI?EEPROM
            BIT     0021H.6   0000H.1   UNIT         ?BI?VERIFICADOR
                    0021H.7   0000H.1                *** GAP ***
            IDATA   0022H     0046H     UNIT         ?ID?MAIN
            IDATA   0068H     0028H     UNIT         ?ID?PANTALLAS
            IDATA   0090H     0001H     UNIT         ?STACK

            * * * * * * *  X D A T A   M E M O R Y  * * * * * * *
            XDATA   0000H     00B8H     UNIT         _XDATA_GROUP_
            XDATA   00B8H     008AH     UNIT         ?XD?VERIFICADOR
            XDATA   0142H     006BH     UNIT         ?XD?MAIN
            XDATA   01ADH     0059H     UNIT         ?XD?PROG
            XDATA   0206H     0003H     UNIT         ?XD?EEPROM
            XDATA   0209H     0003H     UNIT         ?XD?UART
            XDATA   020CH     0003H     UNIT         ?XD?STRTOK
            XDATA   020FH     0001H     UNIT         ?XD?ACCESCAN
            XDATA   0210H     0001H     UNIT         ?XD?CLOCK
            XDATA   0211H     0001H     UNIT         ?XD?IO_SENSORES

            * * * * * * *   C O D E   M E M O R Y   * * * * * * *
            CODE    0000H     0003H     ABSOLUTE     
BL51 BANKED LINKER/LOCATER V6.22.2.0                                                  08/20/2020  14:46:33  PAGE 3


            CODE    0003H     0008H     UNIT         ?PR?P_CK?CLOCK
            CODE    000BH     0003H     ABSOLUTE     
            CODE    000EH     0015H     UNIT         ?PR?_STRLEN?STRLEN
            CODE    0023H     0003H     ABSOLUTE     
            CODE    0026H     1308H     UNIT         ?CO?PROG
            CODE    132EH     0B8BH     UNIT         ?C?LIB_CODE
            CODE    1EB9H     072CH     UNIT         ?CO?VERIFICADOR
            CODE    25E5H     06BFH     UNIT         ?CO?PANTALLAS
            CODE    2CA4H     05D9H     UNIT         ?PR?_PANTALLALCD?PANTALLAS
            CODE    327DH     0483H     UNIT         ?PR?PRINTF?PRINTF
            CODE    3700H     0435H     UNIT         ?PR?_SECUENCIAEXPEDIDORMF?VERIFICADOR
            CODE    3B35H     035CH     UNIT         ?PR?VER_PROG?PROG
            CODE    3E91H     033EH     UNIT         ?PR?_VALIDA_TRAMA_PTO?ACCESCAN
            CODE    41CFH     02D0H     UNIT         ?PR?_TWO_BYTEHEX_DECIMAL?CLOCK
            CODE    449FH     02B7H     UNIT         ?PR?_PROG_HORARIO_DIAS?PROG
            CODE    4756H     022CH     UNIT         ?PR?MENU?PROG
            CODE    4982H     021EH     UNIT         ?PR?_PANTALLALCD_LINEA_2?PANTALLAS
            CODE    4BA0H     0208H     UNIT         ?PR?_HASH_ID?PROG
            CODE    4DA8H     01FAH     UNIT         ?PR?_PROG_HORARIO_DESDE_HASTA?PROG
            CODE    4FA2H     01F5H     UNIT         ?PR?PROG_FECHA_VENCIMIENTO?PROG
            CODE    5197H     01DFH     UNIT         ?PR?_RESPONDE_LECTURA_TARJETA_SECTOR1_BLOQUE1?VERIFICADOR
            CODE    5376H     01B3H     UNIT         ?PR?COM_ISR?UART
            CODE    5529H     01A5H     UNIT         ?PR?_VALIDA_TIPO_TARJETA?VERIFICADOR
            CODE    56CEH     0198H     UNIT         ?PR?ARMAR_TRAMA_PTO_PARALELO_EXPEDIDOR?VERIFICADOR
            CODE    5866H     017AH     UNIT         ?CO?LINTECH
            CODE    59E0H     016EH     UNIT         ?PR?_BLOCK_READ_CLOCK_ASCII?CLOCK
            CODE    5B4EH     0166H     UNIT         ?PR?_POW?POW
            CODE    5CB4H     0154H     UNIT         ?PR?_ARMAR_TRAMA_MONITOR?VERIFICADOR
            CODE    5E08H     0145H     UNIT         ?PR?PROG_HORARIOS?PROG
            CODE    5F4DH     0142H     UNIT         ?PR?_ARMAR_TRAMA_TARJETA_SECTOR1_BLOQUE2?VERIFICADOR
            CODE    608FH     013EH     UNIT         ?PR?PROG_SIN_COBRO?PROG
            CODE    61CDH     013EH     UNIT         ?PR?SECUENCIA_INICIO_EXPEDIDOR?VERIFICADOR
            CODE    630BH     0137H     UNIT         ?PR?VER_HORARIO?PROG
            CODE    6442H     012BH     UNIT         ?PR?_RESPONDE_LECTURA_TARJETA_SECTOR1_BLOQUE2?VERIFICADOR
            CODE    656DH     0129H     UNIT         ?PR?LOG?LOG
            CODE    6696H     0128H     UNIT         ?PR?_VER_HORARIO_DIAS?PROG
            CODE    67BEH     011CH     UNIT         ?PR?LOAD_AND_SEND_ID_COD?PTO_PARALELO
            CODE    68DAH     011AH     UNIT         ?PR?_PROG_HORARIOS_ON_OFF?PROG
            CODE    69F4H     0119H     UNIT         ?PR?_VER_HORARIO_DESDE_HASTA?PROG
            CODE    6B0DH     0115H     UNIT         ?PR?_VALIDAR_CLK?CLOCK
            CODE    6C22H     010FH     UNIT         ?PR?_HORARIOS?VERIFICADOR
            CODE    6D31H     010CH     UNIT         ?PR?_ATOL?ATOL
            CODE    6E3DH     0103H     UNIT         ?PR?_BLOQUE_HORARIO?VERIFICADOR
            CODE    6F40H     0100H     UNIT         ?PR?_WR_MF?LINTECH
            CODE    7040H     00FCH     UNIT         ?PR?PROG_DEBUG?PROG
            CODE    713CH     00FCH     UNIT         ?PR?PROG_USE_LPR?PROG
            CODE    7238H     00FCH     UNIT         ?PR?TIPO_PANTALLA?PROG
            CODE    7334H     00FCH     UNIT         ?PR?PROG_ANTIPASSBACK?PROG
            CODE    7430H     00FCH     UNIT         ?PR?PROG_PLACA?PROG
            CODE    752CH     00FCH     UNIT         ?PR?PROG_VALIDAR_TIPO_VEHICULO_MENSUAL?PROG
            CODE    7628H     00FCH     UNIT         ?PR?PROG_APB_MENSUAL?PROG
            CODE    7724H     00F1H     UNIT         ?PR?_WRITE_EEPROM_TICKET?EEPROM
            CODE    7815H     00EAH     UNIT         ?PR?_MOV_CARD?LINTECH
            CODE    78FFH     00E4H     UNIT         ?PR?_STRTOK?STRTOK
            CODE    79E3H     00DEH     UNIT         ?PR?PROG_ADDRESS_HIGH_BOARD?PROG
            CODE    7AC1H     00DBH     UNIT         ?PR?_ATOI?ATOI
            CODE    7B9CH     00D7H     UNIT         ?PR?_ANALIZA_UID_CARD?VERIFICADOR
BL51 BANKED LINKER/LOCATER V6.22.2.0                                                  08/20/2020  14:46:33  PAGE 4


            CODE    7C73H     00D6H     UNIT         ?PR?_CMD_LPR_SALIDA_WIEGAND?ACCESCAN
            CODE    7D49H     00CCH     UNIT         ?PR?_GRABA_SERIE?EEPROM
            CODE    7E15H     00CBH     UNIT         ?PR?_RTA_CMD_TRANSPORTE?VERIFICADOR
            CODE    7EE0H     00CAH     UNIT         ?PR?READ_EEPROM_TICKET?EEPROM
            CODE    7FAAH     00C9H     UNIT         ?PR?_CHECK_FECHAOUT?CLOCK
            CODE    8073H     00C4H     UNIT         ?PR?_BLOCK_READ_CLOCK?CLOCK
            CODE    8137H     00C4H     UNIT         ?PR?_TARJETA_MENSUAL?VERIFICADOR
            CODE    81FBH     00C3H     UNIT         ?PR?_RD_MF?LINTECH
            CODE    82BEH     00C2H     UNIT         ?PR?PROG_TARJETA_AUTOMATICA_O_BOTON?PROG
            CODE    8380H     00C1H     UNIT         ?PR?_ARMAR_TRAMA_PTO_PARALELO_EXPEDIDOR_MENSUAL?VERIFICADOR
            CODE    8441H     00C1H     UNIT         ?PR?_RECIBE_CMD_MONITOR?MONITOR
            CODE    8502H     00BFH     UNIT         ?C_INITSEG
            CODE    85C1H     00BEH     UNIT         ?PR?ERROR_RX_PTO?VERIFICADOR
            CODE    867FH     00BDH     UNIT         ?PR?PROG_COD_PARK?PROG
            CODE    873CH     00BDH     UNIT         ?PR?PROG_TIEMPO_GRACIA?PROG
            CODE    87F9H     00BAH     UNIT         ?CO?TIBBO
            CODE    88B3H     00B6H     UNIT         ?PR?PROG_ID_CLIENTE?PROG
            CODE    8969H     00B4H     UNIT         ?PR?_SEND_PORT?PTO_PARALELO
            CODE    8A1DH     00ADH     UNIT         ?CO?IO_SENSORES
            CODE    8ACAH     00ACH     UNIT         ?PR?_HORA_MAXIMA?VERIFICADOR
            CODE    8B76H     00AAH     UNIT         ?PR?CLAVE_SEGURIDAD_S2?LINTECH
            CODE    8C20H     00A9H     UNIT         ?PR?DWLOAD_EEPROM?LINTECH
            CODE    8CC9H     00A6H     UNIT         ?PR?_BLOCK_READ_CLOCK_HEX?CLOCK
            CODE    8D6FH     00A3H     UNIT         ?PR?_WAIT_PLACA?VERIFICADOR
            CODE    8E12H     009DH     UNIT         ?PR?_INICIALIZA?LINTECH
            CODE    8EAFH     009AH     UNIT         ?PR?_RESPONDE_LECTURA_TARJETA_SECTOR1_BLOQUE0?VERIFICADOR
            CODE    8F49H     009AH     UNIT         ?PR?EXP?EXP
            CODE    8FE3H     0099H     UNIT         ?PR?SHOW?PROG
            CODE    907CH     0099H     UNIT         ?PR?_RECIBE_PORT?PTO_PARALELO
            CODE    9115H     0098H     UNIT         ?PR?_VALIDA_VEHICULO_CARD_MENSUAL?VERIFICADOR
            CODE    91ADH     0095H     UNIT         ?PR?_VALIDA_TRAMA_MONITOR?MONITOR
            CODE    9242H     0091H     UNIT         ?PR?_HEX_ASCII?CLOCK
            CODE    92D3H     0091H     UNIT         ?PR?_CARD_INSERCION?LINTECH
            CODE    9364H     0091H     UNIT         ?PR?LOADVERIFY_EEPROM?LINTECH
            CODE    93F5H     0090H     UNIT         ?PR?_LEE_CLK?CLOCK
            CODE    9485H     0090H     UNIT         ?PR?_GETOPTION?PROG
            CODE    9515H     008FH     UNIT         ?PR?_BLOCK_WRITE_CLOCK_ASCII?CLOCK
            CODE    95A4H     008FH     UNIT         ?PR?_RESPONDE_WRITE_TARJETA_SECTOR1_BLOQUE2?VERIFICADOR
            CODE    9633H     008CH     UNIT         ?C_C51STARTUP
            CODE    96BFH     0088H     UNIT         ?PR?_SEND_PORTERR?PTO_PARALELO
            CODE    9747H     0088H     UNIT         ?PR?RX_DATA?TIBBO
            CODE    97CFH     0088H     UNIT         ?PR?UNIQUE_IDENTIFIER_UID?LINTECH
            CODE    9857H     0088H     UNIT         ?PR?_SEND_PTO_PARALELO?VERIFICADOR
            CODE    98DFH     0084H     UNIT         ?PR?_STRSPN?STRSPN
            CODE    9963H     0081H     UNIT         ?PR?MAIN?MAIN
            CODE    99E4H     0081H     UNIT         ?PR?_STRPBRK?STRPBRK
            CODE    9A65H     0080H     UNIT         ?PR?MSJ_LCD_INFORMATIVO?IO_SENSORES
            CODE    9AE5H     0080H     UNIT         ?PR?_INGRESADATO?PROG
            CODE    9B65H     0080H     UNIT         ?PR?AUT_CARD_CHECK_STATUS?LINTECH
            CODE    9BE5H     0080H     UNIT         ?PR?POWER_OFF?LINTECH
            CODE    9C65H     007CH     UNIT         ?PR?_CHECK_STATUS?LINTECH
            CODE    9CE1H     007CH     UNIT         ?PR?RESPONDE_ESTADO_SENSORES_TRANSPORTE?VERIFICADOR
            CODE    9D5DH     0079H     UNIT         ?PR?ENTREGA_CARD_CAPTURA?VERIFICADOR
            CODE    9DD6H     0073H     UNIT         ?PR?_DEBUGBUFFERMF?TIBBO
            CODE    9E49H     0071H     UNIT         ?PR?RESPONDE_TIPO_TARJETA?VERIFICADOR
            CODE    9EBAH     0071H     UNIT         ?PR?_EN_HORARIO?VERIFICADOR
            CODE    9F2BH     006FH     UNIT         ?PR?_ESCRIBIRMEMORIA?EEPROM
BL51 BANKED LINKER/LOCATER V6.22.2.0                                                  08/20/2020  14:46:33  PAGE 5


            CODE    9F9AH     006BH     UNIT         ?PR?_STRCAT?STRCAT
            CODE    A005H     0066H     UNIT         ?PR?_LEERMEMORIA?EEPROM
            CODE    A06BH     0066H     UNIT         ?PR?_DISPARO_LOCK_ENTRADA_VEHICULO?VERIFICADOR
            CODE    A0D1H     0062H     UNIT         ?PR?_LISTACOMANDOS?PROG
            CODE    A133H     0061H     UNIT         ?PR?_PREGUNTA_LPR?VERIFICADOR
            CODE    A194H     005EH     UNIT         ?PR?_BYTEHEX_DECIMAL?CLOCK
            CODE    A1F2H     005DH     UNIT         ?PR?_RESPUESTA_SEGUNDA_CLAVE?VERIFICADOR
            CODE    A24FH     005AH     UNIT         ?PR?RASPBERRY_DATA1?PANTALLAS
            CODE    A2A9H     0059H     UNIT         ?PR?INGRESO_VEHICULO?VERIFICADOR
            CODE    A302H     0058H     UNIT         ?PR?VALIDA_SENSOR1_AUTO?IO_SENSORES
            CODE    A35AH     0058H     UNIT         ?PR?_ARMAR_TRAMA_PLACA?VERIFICADOR
            CODE    A3B2H     0056H     UNIT         ?PR?_WR_EEPROM?EEPROM
            CODE    A408H     0055H     UNIT         ?PR?RELOJ_PANTALLA_LCD?PANTALLAS
            CODE    A45DH     004DH     UNIT         ?PR?VARIABLE_INICIO?MAIN
            CODE    A4AAH     004DH     UNIT         ?PR?L_D_M?EEPROM
            CODE    A4F7H     004CH     UNIT         ?PR?LEE_NO_TICKET?EEPROM
            CODE    A543H     004BH     UNIT         ?PR?_TX_AUX?TIBBO
            CODE    A58EH     0049H     UNIT         ?PR?_DEBUG_TXT_TIBBO?TIBBO
            CODE    A5D7H     0048H     UNIT         ?PR?FIRST_CLAVE?PROG
            CODE    A61FH     0047H     UNIT         ?PR?_DEBUG_CHR_TIBBO?TIBBO
            CODE    A666H     0047H     UNIT         ?PR?_RESPONDE_WRITE_TARJETA_SECTOR2_BLOQUE0?VERIFICADOR
            CODE    A6ADH     0046H     UNIT         ?PR?_ESCRIBIRCADENASOFT_BUFFER?MAIN
            CODE    A6F3H     0046H     UNIT         ?PR?_LCD_TXT_NUM_CHAR?PANTALLAS
            CODE    A739H     0046H     UNIT         ?PR?_DEBUG_HEXDEC?TIBBO
            CODE    A77FH     0044H     UNIT         ?PR?_LCD_TXT?PANTALLAS
            CODE    A7C3H     0043H     UNIT         ?PR?DIR_BOARD?IO_SENSORES
            CODE    A806H     0042H     UNIT         ?PR?_VALIDARCLAVE?PROG
            CODE    A848H     0041H     UNIT         ?PR?_MONITOR_CHR?ACCESCAN
            CODE    A889H     0041H     UNIT         ?PR?_TWO_ONE?CLOCK
            CODE    A8CAH     0040H     UNIT         ?PR?_GETCMD?PROG
            CODE    A90AH     003FH     UNIT         ?PR?_EB_CLK?CLOCK
            CODE    A949H     003EH     UNIT         ?PR?_PUTCHAR?MAIN
            CODE    A987H     003DH     UNIT         ?PR?_HEX_BCD?CLOCK
            CODE    A9C4H     003DH     UNIT         ?PR?_RD_EEPROM?EEPROM
            CODE    AA01H     003DH     UNIT         ?PR?_LOAD_SECUENCIA_EXPEDIDOR?VERIFICADOR
            CODE    AA3EH     003BH     UNIT         ?CO?EEPROM
            CODE    AA79H     003BH     UNIT         ?PR?_DEBUG_PTO_PARALELO?TIBBO
            CODE    AAB4H     003BH     UNIT         ?PR?_COM_PUTCHAR?UART
            CODE    AAEFH     003AH     UNIT         ?PR?_DELAY_10MS?DELAY
            CODE    AB29H     0038H     UNIT         ?PR?VALIDASENSORESPASO?IO_SENSORES
            CODE    AB61H     0036H     UNIT         ?PR?_RESPONDE_WRITE_TARJETA_SECTOR1_BLOQUE0?VERIFICADOR
            CODE    AB97H     0034H     UNIT         ?PR?INCREMENTE_TICKET?EEPROM
            CODE    ABCBH     0034H     UNIT         ?PR?ADDR_HORARIOS?PROG
            CODE    ABFFH     0033H     UNIT         ?PR?TRAMA_VALIDACION_P_N?VERIFICADOR
            CODE    AC32H     0032H     UNIT         ?PR?_DEBUG_MONITOR?TIBBO
            CODE    AC64H     0031H     UNIT         ?PR?_TARJETA_ROTACION?VERIFICADOR
            CODE    AC95H     002EH     UNIT         ?PR?TIMER0_INT?MAIN
            CODE    ACC3H     002CH     UNIT         ?PR?LOAD_AND_SEND_INFO_RELOJ?PTO_PARALELO
            CODE    ACEFH     002AH     UNIT         ?PR?COM_INITIALIZE?UART
            CODE    AD19H     0028H     UNIT         ?PR?_WR_CLK?CLOCK
            CODE    AD41H     0028H     UNIT         ?PR?COM_BAUDRATE?UART
            CODE    AD69H     0028H     UNIT         ?PR?_ARMAR_TRAMA_TARJETA_SECTOR1_BLOQUE0?VERIFICADOR
            CODE    AD91H     0027H     UNIT         ?PR?_TX_CHRLCD?PANTALLAS
            CODE    ADB8H     0026H     UNIT         ?PR?COM_GETCHAR?UART
            CODE    ADDEH     0026H     UNIT         ?PR?ANALIZA_PRESENCIA_MENSUAL?VERIFICADOR
            CODE    AE04H     0026H     UNIT         ?PR?RX_MONITOR?MONITOR
            CODE    AE2AH     0023H     UNIT         ?PR?ANALIZA_PRESENCIA_ROTACION?VERIFICADOR
BL51 BANKED LINKER/LOCATER V6.22.2.0                                                  08/20/2020  14:46:33  PAGE 6


            CODE    AE4DH     0022H     UNIT         ?PR?_E_D_M?EEPROM
            CODE    AE6FH     0020H     UNIT         ?PR?ACKD?EEPROM
            CODE    AE8FH     0020H     UNIT         ?PR?ACK_LECT?EEPROM
            CODE    AEAFH     001FH     UNIT         ?PR?VALIDASENSOR?IO_SENSORES
            CODE    AECEH     001FH     UNIT         ?PR?TIME_BIT?TIBBO
            CODE    AEEDH     001EH     UNIT         ?PR?_BCD_HEX?CLOCK
            CODE    AF0BH     001BH     UNIT         ?PR?_DELAY_1MS?DELAY
            CODE    AF26H     0018H     UNIT         ?PR?CLEAR_PLACA?MONITOR
            CODE    AF3EH     0017H     UNIT         ?PR?DISPLAYCURSOR?PROG
            CODE    AF55H     0017H     UNIT         ?PR?TIME_MBIT?TIBBO
            CODE    AF6CH     0014H     UNIT         ?PR?DEBUG_DIVIDIR_TEXTO?TIBBO
            CODE    AF80H     0014H     UNIT         ?PR?_ISSPACE?ISSPACE
            CODE    AF94H     0012H     UNIT         ?PR?_DELAY_20US?DELAY
            CODE    AFA6H     0012H     UNIT         ?PR?START?EEPROM
            CODE    AFB8H     0012H     UNIT         ?PR?PULSO_BUS?PTO_PARALELO
            CODE    AFCAH     0012H     UNIT         ?PR?COM_RBUFLEN?UART
            CODE    AFDCH     0012H     UNIT         ?PR?COM_TBUFLEN?UART
            CODE    AFEEH     0010H     UNIT         ?PR?INI_TIMER?MAIN
            CODE    AFFEH     0010H     UNIT         ?PR?INICIA_BOARD?MAIN
            CODE    B00EH     000FH     UNIT         ?PR?_ISDIGIT?ISDIGIT
            CODE    B01DH     000CH     UNIT         ?PR?_GETKEY?MAIN
            CODE    B029H     000AH     UNIT         ?PR?COND_INI_PTO?PTO_PARALELO
            CODE    B033H     0009H     UNIT         ?PR?STOP?EEPROM
            CODE    B03CH     0009H     UNIT         ?PR?CAPTURA_EXPULSA?VERIFICADOR
            CODE    B045H     0007H     UNIT         ?PR?COND_INI_CLOCK?CLOCK
            CODE    B04CH     0007H     UNIT         ?PR?SEL_FUNCION?IO_SENSORES
            CODE    B053H     0007H     UNIT         ?PR?SEL_AUTO?IO_SENSORES
            CODE    B05AH     0007H     UNIT         ?PR?SEL_PULSA?IO_SENSORES
            CODE    B061H     0007H     UNIT         ?PR?SEL_SENSOR2?IO_SENSORES
            CODE    B068H     0007H     UNIT         ?PR?SEL_SENSOR1?IO_SENSORES
            CODE    B06FH     0007H     UNIT         ?PR?SEL_DIR1?IO_SENSORES
            CODE    B076H     0007H     UNIT         ?PR?SEL_DIR2?IO_SENSORES
            CODE    B07DH     0006H     UNIT         ?PR?P_ME?EEPROM
            CODE    B083H     0005H     UNIT         ?PR?ON_TIMER0_INTERRUP?MAIN
            CODE    B088H     0005H     UNIT         ?CO?ACCESCAN
            CODE    B08DH     0005H     UNIT         ?PR?COND_INI_TIBBO?TIBBO
            CODE    B092H     0003H     UNIT         ?PR?OFF_TIMER0_INTERRUP?MAIN
            CODE    B095H     0003H     UNIT         ?CO?PTO_PARALELO
            CODE    B098H     0001H     UNIT         ?PR?DELAY?DELAY



OVERLAY MAP OF MODULE:   .\Objects\expedidor_v_01_raspberry (MAIN)


SEGMENT                                             BIT_GROUP          DATA_GROUP          XDATA_GROUP
  +--> CALLED SEGMENT                            START    LENGTH     START    LENGTH     START    LENGTH
--------------------------------------------------------------------------------------------------------
?C_C51STARTUP                                    -----    -----      -----    -----      -----    -----
  +--> ?PR?MAIN?MAIN
  +--> ?C_INITSEG

?PR?MAIN?MAIN                                    -----    -----      -----    -----      0000H    0002H
  +--> ?PR?INI_TIMER?MAIN
  +--> ?PR?ON_TIMER0_INTERRUP?MAIN
  +--> ?PR?COM_INITIALIZE?UART
  +--> ?PR?COM_BAUDRATE?UART
BL51 BANKED LINKER/LOCATER V6.22.2.0                                                  08/20/2020  14:46:33  PAGE 7


  +--> ?PR?INICIA_BOARD?MAIN
  +--> ?PR?TIME_BIT?TIBBO
  +--> ?PR?_DELAY_20US?DELAY
  +--> ?PR?TIME_MBIT?TIBBO
  +--> ?PR?_TX_AUX?TIBBO
  +--> ?PR?SEL_FUNCION?IO_SENSORES
  +--> ?PR?MENU?PROG
  +--> ?PR?VARIABLE_INICIO?MAIN
  +--> ?PR?SECUENCIA_INICIO_EXPEDIDOR?VERIFI...
  +--> ?PR?RX_MONITOR?MONITOR
  +--> ?PR?_SECUENCIAEXPEDIDORMF?VERIFICADOR
  +--> ?PR?_RECIBE_PORT?PTO_PARALELO
  +--> ?PR?_DEBUG_PTO_PARALELO?TIBBO
  +--> ?PR?_VALIDA_TRAMA_PTO?ACCESCAN
  +--> ?PR?MSJ_LCD_INFORMATIVO?IO_SENSORES

?PR?COM_INITIALIZE?UART                          -----    -----      -----    -----      -----    -----
  +--> ?PR?COM_BAUDRATE?UART

?PR?INICIA_BOARD?MAIN                            -----    -----      -----    -----      -----    -----
  +--> ?PR?COND_INI_TIBBO?TIBBO
  +--> ?PR?COND_INI_CLOCK?CLOCK
  +--> ?PR?COND_INI_PTO?PTO_PARALELO

?PR?_TX_AUX?TIBBO                                -----    -----      -----    -----      -----    -----
  +--> ?PR?TIME_BIT?TIBBO

?PR?MENU?PROG                                    -----    -----      -----    -----      0002H    0045H
  +--> ?CO?PROG
  +--> ?PR?PRINTF?PRINTF
  +--> ?PR?_RD_EEPROM?EEPROM
  +--> ?PR?FIRST_CLAVE?PROG
  +--> ?PR?_WR_EEPROM?EEPROM
  +--> ?PR?_LEERMEMORIA?EEPROM
  +--> ?PR?_HASH_ID?PROG
  +--> ?PR?_INGRESADATO?PROG
  +--> ?PR?_GETCMD?PROG
  +--> ?PR?_ESCRIBIRMEMORIA?EEPROM
  +--> ?PR?_VALIDARCLAVE?PROG
  +--> ?PR?DISPLAYCURSOR?PROG
  +--> ?PR?_STRLEN?STRLEN
  +--> ?PR?_GETOPTION?PROG
  +--> ?PR?_STRCAT?STRCAT
  +--> ?PR?_LISTACOMANDOS?PROG
  +--> ?PR?PROG_ID_CLIENTE?PROG
  +--> ?PR?PROG_COD_PARK?PROG
  +--> ?PR?PROG_TIEMPO_GRACIA?PROG
  +--> ?PR?PROG_SIN_COBRO?PROG
  +--> ?PR?PROG_DEBUG?PROG
  +--> ?PR?PROG_USE_LPR?PROG
  +--> ?PR?TIPO_PANTALLA?PROG
  +--> ?PR?PROG_TARJETA_AUTOMATICA_O_BOTON?PROG
  +--> ?PR?PROG_ANTIPASSBACK?PROG
  +--> ?PR?PROG_PLACA?PROG
  +--> ?PR?PROG_ADDRESS_HIGH_BOARD?PROG
  +--> ?PR?PROG_HORARIOS?PROG
  +--> ?PR?PROG_VALIDAR_TIPO_VEHICULO_MENSUA...
BL51 BANKED LINKER/LOCATER V6.22.2.0                                                  08/20/2020  14:46:33  PAGE 8


  +--> ?PR?PROG_APB_MENSUAL?PROG
  +--> ?PR?VER_PROG?PROG
  +--> ?PR?SHOW?PROG
  +--> ?PR?PROG_FECHA_VENCIMIENTO?PROG

?PR?PRINTF?PRINTF                                0020H.0  0001H.1    0008H    0005H      0078H    0030H
  +--> ?PR?_PUTCHAR?MAIN

?PR?_PUTCHAR?MAIN                                -----    -----      -----    -----      00A8H    0003H
  +--> ?PR?_COM_PUTCHAR?UART

?PR?_COM_PUTCHAR?UART                            -----    -----      -----    -----      00ABH    0001H
  +--> ?PR?COM_TBUFLEN?UART

?PR?_RD_EEPROM?EEPROM                            -----    -----      -----    -----      -----    -----
  +--> ?PR?START?EEPROM
  +--> ?PR?ACK_LECT?EEPROM
  +--> ?PR?_E_D_M?EEPROM
  +--> ?PR?ACKD?EEPROM
  +--> ?PR?L_D_M?EEPROM
  +--> ?PR?STOP?EEPROM

?PR?ACK_LECT?EEPROM                              -----    -----      -----    -----      -----    -----
  +--> ?PR?_E_D_M?EEPROM

?PR?_E_D_M?EEPROM                                -----    -----      -----    -----      -----    -----
  +--> ?PR?P_ME?EEPROM

?PR?ACKD?EEPROM                                  -----    -----      -----    -----      -----    -----
  +--> ?PR?_E_D_M?EEPROM

?PR?FIRST_CLAVE?PROG                             -----    -----      -----    -----      0047H    000BH
  +--> ?PR?_BLOCK_READ_CLOCK_ASCII?CLOCK
  +--> ?PR?_HASH_ID?PROG
  +--> ?PR?_ESCRIBIRMEMORIA?EEPROM

?PR?_BLOCK_READ_CLOCK_ASCII?CLOCK                -----    -----      -----    -----      0052H    0003H
  +--> ?PR?_LEE_CLK?CLOCK

?PR?_LEE_CLK?CLOCK                               -----    -----      -----    -----      00B2H    0003H
  +--> ?PR?_DELAY_20US?DELAY
  +--> ?PR?_EB_CLK?CLOCK
  +--> ?PR?P_CK?CLOCK

?PR?_EB_CLK?CLOCK                                -----    -----      -----    -----      00B5H    0003H
  +--> ?PR?P_CK?CLOCK

?PR?P_CK?CLOCK                                   -----    -----      -----    -----      -----    -----
  +--> ?PR?DELAY?DELAY

?PR?_HASH_ID?PROG                                -----    -----      -----    -----      005EH    003FH
  +--> ?CO?PROG
  +--> ?PR?_LEERMEMORIA?EEPROM
  +--> ?PR?_CHECK_FECHAOUT?CLOCK
  +--> ?PR?_STRLEN?STRLEN

?PR?_LEERMEMORIA?EEPROM                          -----    -----      -----    -----      009DH    0005H
BL51 BANKED LINKER/LOCATER V6.22.2.0                                                  08/20/2020  14:46:33  PAGE 9


  +--> ?PR?_RD_EEPROM?EEPROM

?PR?_CHECK_FECHAOUT?CLOCK                        -----    -----      -----    -----      009DH    0012H
  +--> ?PR?_BLOCK_READ_CLOCK_HEX?CLOCK

?PR?_BLOCK_READ_CLOCK_HEX?CLOCK                  -----    -----      -----    -----      00AFH    0003H
  +--> ?PR?_LEE_CLK?CLOCK
  +--> ?PR?_BCD_HEX?CLOCK

?PR?_ESCRIBIRMEMORIA?EEPROM                      -----    -----      -----    -----      005EH    0005H
  +--> ?PR?_WR_EEPROM?EEPROM

?PR?_WR_EEPROM?EEPROM                            -----    -----      -----    -----      -----    -----
  +--> ?PR?START?EEPROM
  +--> ?PR?ACKD?EEPROM
  +--> ?PR?_E_D_M?EEPROM
  +--> ?PR?STOP?EEPROM
  +--> ?PR?_DELAY_1MS?DELAY
  +--> ?PR?_DELAY_20US?DELAY

?PR?_DELAY_1MS?DELAY                             -----    -----      -----    -----      -----    -----
  +--> ?PR?_DELAY_20US?DELAY

?PR?_INGRESADATO?PROG                            -----    -----      -----    -----      0072H    0004H
  +--> ?PR?_GETKEY?MAIN
  +--> ?CO?PROG
  +--> ?PR?PRINTF?PRINTF
  +--> ?PR?_PUTCHAR?MAIN

?PR?_GETKEY?MAIN                                 -----    -----      -----    -----      -----    -----
  +--> ?PR?COM_GETCHAR?UART

?PR?COM_GETCHAR?UART                             -----    -----      -----    -----      -----    -----
  +--> ?PR?COM_RBUFLEN?UART

?PR?_GETCMD?PROG                                 -----    -----      -----    -----      005EH    0007H
  +--> ?CO?PROG
  +--> ?PR?_STRTOK?STRTOK

?PR?_STRTOK?STRTOK                               -----    -----      -----    -----      0065H    0006H
  +--> ?PR?_STRSPN?STRSPN
  +--> ?PR?_STRPBRK?STRPBRK

?PR?_STRSPN?STRSPN                               -----    -----      -----    -----      006BH    0008H

?PR?_STRPBRK?STRPBRK                             -----    -----      -----    -----      006BH    0009H

?PR?_VALIDARCLAVE?PROG                           -----    -----      -----    -----      005EH    000EH

?PR?DISPLAYCURSOR?PROG                           -----    -----      -----    -----      -----    -----
  +--> ?CO?PROG
  +--> ?PR?PRINTF?PRINTF

?PR?_GETOPTION?PROG                              -----    -----      -----    -----      0047H    000BH
  +--> ?CO?PROG
  +--> ?PR?_STRTOK?STRTOK

BL51 BANKED LINKER/LOCATER V6.22.2.0                                                  08/20/2020  14:46:33  PAGE 10


?PR?_STRCAT?STRCAT                               -----    -----      -----    -----      0047H    0009H

?PR?_LISTACOMANDOS?PROG                          -----    -----      -----    -----      0047H    0007H

?PR?PROG_ID_CLIENTE?PROG                         -----    -----      -----    -----      0047H    000CH
  +--> ?PR?_RD_EEPROM?EEPROM
  +--> ?CO?PROG
  +--> ?PR?PRINTF?PRINTF
  +--> ?PR?_INGRESADATO?PROG
  +--> ?PR?_ATOI?ATOI
  +--> ?PR?_WR_EEPROM?EEPROM

?PR?_ATOI?ATOI                                   0020H.0  0000H.1    -----    -----      0072H    0005H
  +--> ?PR?_ISSPACE?ISSPACE
  +--> ?PR?_ISDIGIT?ISDIGIT

?PR?PROG_COD_PARK?PROG                           -----    -----      -----    -----      0047H    000CH
  +--> ?PR?_RD_EEPROM?EEPROM
  +--> ?CO?PROG
  +--> ?PR?PRINTF?PRINTF
  +--> ?PR?_INGRESADATO?PROG
  +--> ?PR?_ATOI?ATOI
  +--> ?PR?_WR_EEPROM?EEPROM

?PR?PROG_TIEMPO_GRACIA?PROG                      -----    -----      -----    -----      0047H    000CH
  +--> ?PR?_RD_EEPROM?EEPROM
  +--> ?CO?PROG
  +--> ?PR?PRINTF?PRINTF
  +--> ?PR?_INGRESADATO?PROG
  +--> ?PR?_ATOI?ATOI
  +--> ?PR?_WR_EEPROM?EEPROM

?PR?PROG_SIN_COBRO?PROG                          -----    -----      -----    -----      0047H    000CH
  +--> ?PR?_RD_EEPROM?EEPROM
  +--> ?CO?PROG
  +--> ?PR?PRINTF?PRINTF
  +--> ?PR?_INGRESADATO?PROG
  +--> ?PR?_ATOI?ATOI
  +--> ?PR?_WR_EEPROM?EEPROM

?PR?PROG_DEBUG?PROG                              -----    -----      -----    -----      0047H    000CH
  +--> ?PR?_RD_EEPROM?EEPROM
  +--> ?CO?PROG
  +--> ?PR?PRINTF?PRINTF
  +--> ?PR?_INGRESADATO?PROG
  +--> ?PR?_ATOI?ATOI
  +--> ?PR?_WR_EEPROM?EEPROM

?PR?PROG_USE_LPR?PROG                            -----    -----      -----    -----      0047H    000CH
  +--> ?PR?_RD_EEPROM?EEPROM
  +--> ?CO?PROG
  +--> ?PR?PRINTF?PRINTF
  +--> ?PR?_INGRESADATO?PROG
  +--> ?PR?_ATOI?ATOI
  +--> ?PR?_WR_EEPROM?EEPROM

?PR?TIPO_PANTALLA?PROG                           -----    -----      -----    -----      0047H    000CH
BL51 BANKED LINKER/LOCATER V6.22.2.0                                                  08/20/2020  14:46:33  PAGE 11


  +--> ?PR?_RD_EEPROM?EEPROM
  +--> ?CO?PROG
  +--> ?PR?PRINTF?PRINTF
  +--> ?PR?_INGRESADATO?PROG
  +--> ?PR?_ATOI?ATOI
  +--> ?PR?_WR_EEPROM?EEPROM

?PR?PROG_TARJETA_AUTOMATICA_O_BOTON?PROG         -----    -----      -----    -----      0047H    000CH
  +--> ?PR?_RD_EEPROM?EEPROM
  +--> ?CO?PROG
  +--> ?PR?PRINTF?PRINTF
  +--> ?PR?_INGRESADATO?PROG
  +--> ?PR?_ATOI?ATOI
  +--> ?PR?_WR_EEPROM?EEPROM

?PR?PROG_ANTIPASSBACK?PROG                       -----    -----      -----    -----      0047H    000CH
  +--> ?PR?_RD_EEPROM?EEPROM
  +--> ?CO?PROG
  +--> ?PR?PRINTF?PRINTF
  +--> ?PR?_INGRESADATO?PROG
  +--> ?PR?_ATOI?ATOI
  +--> ?PR?_WR_EEPROM?EEPROM

?PR?PROG_PLACA?PROG                              -----    -----      -----    -----      0047H    000CH
  +--> ?PR?_RD_EEPROM?EEPROM
  +--> ?CO?PROG
  +--> ?PR?PRINTF?PRINTF
  +--> ?PR?_INGRESADATO?PROG
  +--> ?PR?_ATOI?ATOI
  +--> ?PR?_WR_EEPROM?EEPROM

?PR?PROG_ADDRESS_HIGH_BOARD?PROG                 -----    -----      -----    -----      0047H    000CH
  +--> ?PR?_RD_EEPROM?EEPROM
  +--> ?CO?PROG
  +--> ?PR?PRINTF?PRINTF
  +--> ?PR?_INGRESADATO?PROG
  +--> ?PR?_ATOI?ATOI
  +--> ?PR?_WR_EEPROM?EEPROM

?PR?PROG_HORARIOS?PROG                           -----    -----      -----    -----      0047H    001BH
  +--> ?PR?ADDR_HORARIOS?PROG
  +--> ?CO?PROG
  +--> ?PR?PRINTF?PRINTF
  +--> ?PR?_INGRESADATO?PROG
  +--> ?PR?_ATOI?ATOI
  +--> ?PR?_PROG_HORARIOS_ON_OFF?PROG
  +--> ?PR?_WR_EEPROM?EEPROM
  +--> ?PR?_PROG_HORARIO_DIAS?PROG
  +--> ?PR?_PROG_HORARIO_DESDE_HASTA?PROG
  +--> ?PR?_RD_EEPROM?EEPROM

?PR?ADDR_HORARIOS?PROG                           -----    -----      -----    -----      0075H    000BH

?PR?_PROG_HORARIOS_ON_OFF?PROG                   -----    -----      -----    -----      0062H    0010H
  +--> ?PR?_RD_EEPROM?EEPROM
  +--> ?CO?PROG
  +--> ?PR?PRINTF?PRINTF
BL51 BANKED LINKER/LOCATER V6.22.2.0                                                  08/20/2020  14:46:33  PAGE 12


  +--> ?PR?_INGRESADATO?PROG
  +--> ?PR?_ATOI?ATOI
  +--> ?PR?_WR_EEPROM?EEPROM

?PR?_PROG_HORARIO_DIAS?PROG                      -----    -----      -----    -----      0062H    000FH
  +--> ?CO?PROG
  +--> ?PR?PRINTF?PRINTF
  +--> ?PR?_INGRESADATO?PROG
  +--> ?PR?_WR_EEPROM?EEPROM
  +--> ?PR?_RD_EEPROM?EEPROM

?PR?_PROG_HORARIO_DESDE_HASTA?PROG               -----    -----      -----    -----      0062H    000CH
  +--> ?CO?PROG
  +--> ?PR?PRINTF?PRINTF
  +--> ?PR?_INGRESADATO?PROG
  +--> ?PR?_WR_EEPROM?EEPROM
  +--> ?PR?_RD_EEPROM?EEPROM

?PR?PROG_VALIDAR_TIPO_VEHICULO_MENSUA...         -----    -----      -----    -----      0047H    000CH
  +--> ?PR?_RD_EEPROM?EEPROM
  +--> ?CO?PROG
  +--> ?PR?PRINTF?PRINTF
  +--> ?PR?_INGRESADATO?PROG
  +--> ?PR?_ATOI?ATOI
  +--> ?PR?_WR_EEPROM?EEPROM

?PR?PROG_APB_MENSUAL?PROG                        -----    -----      -----    -----      0047H    000CH
  +--> ?PR?_RD_EEPROM?EEPROM
  +--> ?CO?PROG
  +--> ?PR?PRINTF?PRINTF
  +--> ?PR?_INGRESADATO?PROG
  +--> ?PR?_ATOI?ATOI
  +--> ?PR?_WR_EEPROM?EEPROM

?PR?VER_PROG?PROG                                -----    -----      -----    -----      0047H    0013H
  +--> ?PR?_RD_EEPROM?EEPROM
  +--> ?CO?PROG
  +--> ?PR?PRINTF?PRINTF
  +--> ?PR?VER_HORARIO?PROG
  +--> ?PR?_LEERMEMORIA?EEPROM
  +--> ?PR?_HEX_ASCII?CLOCK

?PR?VER_HORARIO?PROG                             -----    -----      -----    -----      005AH    001BH
  +--> ?PR?ADDR_HORARIOS?PROG
  +--> ?CO?PROG
  +--> ?PR?PRINTF?PRINTF
  +--> ?PR?_RD_EEPROM?EEPROM
  +--> ?PR?_VER_HORARIO_DIAS?PROG
  +--> ?PR?_VER_HORARIO_DESDE_HASTA?PROG

?PR?_VER_HORARIO_DIAS?PROG                       -----    -----      -----    -----      0075H    0003H
  +--> ?PR?_RD_EEPROM?EEPROM
  +--> ?CO?PROG
  +--> ?PR?PRINTF?PRINTF

?PR?_VER_HORARIO_DESDE_HASTA?PROG                -----    -----      -----    -----      0075H    0002H
  +--> ?CO?PROG
BL51 BANKED LINKER/LOCATER V6.22.2.0                                                  08/20/2020  14:46:33  PAGE 13


  +--> ?PR?PRINTF?PRINTF
  +--> ?PR?_RD_EEPROM?EEPROM

?PR?_HEX_ASCII?CLOCK                             -----    -----      -----    -----      005EH    0006H
  +--> ?PR?_HEX_BCD?CLOCK

?PR?SHOW?PROG                                    -----    -----      -----    -----      -----    -----
  +--> ?CO?PROG
  +--> ?PR?PRINTF?PRINTF

?PR?PROG_FECHA_VENCIMIENTO?PROG                  -----    -----      -----    -----      0047H    0017H
  +--> ?PR?_LEERMEMORIA?EEPROM
  +--> ?PR?_HEX_ASCII?CLOCK
  +--> ?CO?PROG
  +--> ?PR?PRINTF?PRINTF
  +--> ?PR?_HASH_ID?PROG
  +--> ?PR?_INGRESADATO?PROG
  +--> ?PR?_GETCMD?PROG
  +--> ?PR?_ESCRIBIRMEMORIA?EEPROM
  +--> ?PR?_VALIDARCLAVE?PROG
  +--> ?PR?_ATOI?ATOI
  +--> ?PR?_WR_EEPROM?EEPROM

?PR?VARIABLE_INICIO?MAIN                         -----    -----      -----    -----      -----    -----
  +--> ?PR?_RD_EEPROM?EEPROM

?PR?SECUENCIA_INICIO_EXPEDIDOR?VERIFI...         -----    -----      -----    -----      0002H    0001H
  +--> ?PR?_INICIALIZA?LINTECH
  +--> ?PR?TRAMA_VALIDACION_P_N?VERIFICADOR
  +--> ?CO?VERIFICADOR
  +--> ?PR?_DEBUG_TXT_TIBBO?TIBBO
  +--> ?PR?_DEBUGBUFFERMF?TIBBO
  +--> ?PR?DWLOAD_EEPROM?LINTECH

?PR?_INICIALIZA?LINTECH                          -----    -----      -----    -----      0003H    000CH
  +--> ?CO?LINTECH
  +--> ?PR?_DEBUG_TXT_TIBBO?TIBBO
  +--> ?PR?_DEBUGBUFFERMF?TIBBO
  +--> ?PR?_ESCRIBIRCADENASOFT_BUFFER?MAIN

?PR?_DEBUG_TXT_TIBBO?TIBBO                       -----    -----      -----    -----      0038H    0004H
  +--> ?PR?_DEBUG_CHR_TIBBO?TIBBO
  +--> ?CO?TIBBO
  +--> ?PR?_TX_AUX?TIBBO

?PR?_DEBUG_CHR_TIBBO?TIBBO                       -----    -----      -----    -----      -----    -----
  +--> ?PR?_TX_AUX?TIBBO

?PR?_DEBUGBUFFERMF?TIBBO                         -----    -----      -----    -----      0028H    0006H
  +--> ?CO?TIBBO
  +--> ?PR?_DEBUG_TXT_TIBBO?TIBBO
  +--> ?PR?_DEBUG_CHR_TIBBO?TIBBO
  +--> ?PR?_TX_AUX?TIBBO

?PR?_ESCRIBIRCADENASOFT_BUFFER?MAIN              -----    -----      -----    -----      0028H    0006H
  +--> ?PR?_PUTCHAR?MAIN

BL51 BANKED LINKER/LOCATER V6.22.2.0                                                  08/20/2020  14:46:33  PAGE 14


?PR?TRAMA_VALIDACION_P_N?VERIFICADOR             -----    -----      -----    -----      -----    -----
  +--> ?CO?VERIFICADOR
  +--> ?PR?_DEBUG_TXT_TIBBO?TIBBO

?PR?DWLOAD_EEPROM?LINTECH                        -----    -----      -----    -----      0003H    0016H
  +--> ?CO?LINTECH
  +--> ?PR?_DEBUG_TXT_TIBBO?TIBBO
  +--> ?PR?_DEBUGBUFFERMF?TIBBO
  +--> ?PR?_ESCRIBIRCADENASOFT_BUFFER?MAIN

?PR?RX_MONITOR?MONITOR                           -----    -----      -----    -----      0008H    000DH
  +--> ?PR?_RECIBE_CMD_MONITOR?MONITOR
  +--> ?PR?_DEBUG_MONITOR?TIBBO
  +--> ?PR?_VALIDA_TRAMA_MONITOR?MONITOR

?PR?_RECIBE_CMD_MONITOR?MONITOR                  -----    -----      -----    -----      0015H    0009H
  +--> ?PR?RX_DATA?TIBBO

?PR?RX_DATA?TIBBO                                -----    -----      -----    -----      -----    -----
  +--> ?PR?TIME_MBIT?TIBBO
  +--> ?PR?TIME_BIT?TIBBO

?PR?_DEBUG_MONITOR?TIBBO                         -----    -----      -----    -----      0015H    0004H
  +--> ?PR?DEBUG_DIVIDIR_TEXTO?TIBBO
  +--> ?CO?TIBBO
  +--> ?PR?_DEBUG_TXT_TIBBO?TIBBO

?PR?DEBUG_DIVIDIR_TEXTO?TIBBO                    -----    -----      -----    -----      -----    -----
  +--> ?CO?TIBBO
  +--> ?PR?_DEBUG_TXT_TIBBO?TIBBO

?PR?_VALIDA_TRAMA_MONITOR?MONITOR                -----    -----      -----    -----      0015H    0003H

?PR?_SECUENCIAEXPEDIDORMF?VERIFICADOR            -----    -----      -----    -----      0002H    0001H
  +--> ?PR?_CHECK_STATUS?LINTECH
  +--> ?PR?_LOAD_SECUENCIA_EXPEDIDOR?VERIFIC...
  +--> ?PR?_RTA_CMD_TRANSPORTE?VERIFICADOR
  +--> ?PR?RESPONDE_ESTADO_SENSORES_TRANSPOR...
  +--> ?PR?RESPONDE_TIPO_TARJETA?VERIFICADOR
  +--> ?PR?_RESPONDE_LECTURA_TARJETA_SECTOR1...
  +--> ?PR?_RESPONDE_LECTURA_TARJETA_SECTOR1...
  +--> ?PR?_RESPONDE_LECTURA_TARJETA_SECTOR1...
  +--> ?PR?_RESPONDE_WRITE_TARJETA_SECTOR1_B...
  +--> ?PR?_RESPONDE_WRITE_TARJETA_SECTOR2_B...
  +--> ?PR?_RESPONDE_WRITE_TARJETA_SECTOR1_B...
  +--> ?PR?_DISPARO_LOCK_ENTRADA_VEHICULO?VE...
  +--> ?PR?_RESPUESTA_SEGUNDA_CLAVE?VERIFICADOR
  +--> ?PR?ANALIZA_PRESENCIA_MENSUAL?VERIFIC...
  +--> ?PR?_ANALIZA_UID_CARD?VERIFICADOR
  +--> ?CO?VERIFICADOR
  +--> ?PR?_DEBUG_TXT_TIBBO?TIBBO
  +--> ?PR?_MOV_CARD?LINTECH
  +--> ?PR?_CARD_INSERCION?LINTECH
  +--> ?PR?AUT_CARD_CHECK_STATUS?LINTECH
  +--> ?PR?LOADVERIFY_EEPROM?LINTECH
  +--> ?PR?_RD_MF?LINTECH
  +--> ?PR?_WR_MF?LINTECH
BL51 BANKED LINKER/LOCATER V6.22.2.0                                                  08/20/2020  14:46:33  PAGE 15


  +--> ?PR?DWLOAD_EEPROM?LINTECH
  +--> ?PR?ENTREGA_CARD_CAPTURA?VERIFICADOR
  +--> ?PR?_SEND_PTO_PARALELO?VERIFICADOR
  +--> ?PR?_WAIT_PLACA?VERIFICADOR
  +--> ?PR?UNIQUE_IDENTIFIER_UID?LINTECH
  +--> ?PR?_PREGUNTA_LPR?VERIFICADOR
  +--> ?PR?_VALIDA_TIPO_TARJETA?VERIFICADOR
  +--> ?PR?ANALIZA_PRESENCIA_ROTACION?VERIFI...
  +--> ?PR?POWER_OFF?LINTECH

?PR?_CHECK_STATUS?LINTECH                        -----    -----      -----    -----      0003H    000BH
  +--> ?CO?LINTECH
  +--> ?PR?_DEBUG_TXT_TIBBO?TIBBO
  +--> ?PR?_DEBUGBUFFERMF?TIBBO
  +--> ?PR?_ESCRIBIRCADENASOFT_BUFFER?MAIN

?PR?_LOAD_SECUENCIA_EXPEDIDOR?VERIFIC...         -----    -----      -----    -----      0008H    0009H

?PR?_RTA_CMD_TRANSPORTE?VERIFICADOR              -----    -----      -----    -----      0003H    0005H
  +--> ?PR?TRAMA_VALIDACION_P_N?VERIFICADOR
  +--> ?CO?VERIFICADOR
  +--> ?PR?_DEBUG_TXT_TIBBO?TIBBO
  +--> ?PR?_DEBUGBUFFERMF?TIBBO
  +--> ?PR?ERROR_RX_PTO?VERIFICADOR

?PR?ERROR_RX_PTO?VERIFICADOR                     -----    -----      -----    -----      0008H    0001H
  +--> ?CO?VERIFICADOR
  +--> ?PR?_DEBUG_TXT_TIBBO?TIBBO
  +--> ?PR?_DEBUG_CHR_TIBBO?TIBBO
  +--> ?PR?_DELAY_10MS?DELAY

?PR?_DELAY_10MS?DELAY                            -----    -----      -----    -----      0009H    0004H
  +--> ?PR?_DELAY_1MS?DELAY

?PR?RESPONDE_ESTADO_SENSORES_TRANSPOR...         -----    -----      -----    -----      0003H    0001H
  +--> ?CO?VERIFICADOR
  +--> ?PR?_DEBUG_TXT_TIBBO?TIBBO
  +--> ?PR?_SEND_PORTERR?PTO_PARALELO
  +--> ?PR?INGRESO_VEHICULO?VERIFICADOR

?PR?_SEND_PORTERR?PTO_PARALELO                   -----    -----      -----    -----      002BH    0006H
  +--> ?PR?PULSO_BUS?PTO_PARALELO
  +--> ?PR?_DELAY_20US?DELAY

?PR?PULSO_BUS?PTO_PARALELO                       -----    -----      -----    -----      -----    -----
  +--> ?PR?_DELAY_20US?DELAY

?PR?INGRESO_VEHICULO?VERIFICADOR                 -----    -----      -----    -----      -----    -----
  +--> ?PR?VALIDASENSORESPASO?IO_SENSORES
  +--> ?PR?_RD_EEPROM?EEPROM
  +--> ?CO?VERIFICADOR
  +--> ?PR?_DEBUG_TXT_TIBBO?TIBBO
  +--> ?PR?_PANTALLALCD?PANTALLAS
  +--> ?PR?SEL_PULSA?IO_SENSORES

?PR?VALIDASENSORESPASO?IO_SENSORES               -----    -----      -----    -----      0011H    0001H
  +--> ?PR?SEL_SENSOR2?IO_SENSORES
BL51 BANKED LINKER/LOCATER V6.22.2.0                                                  08/20/2020  14:46:33  PAGE 16


  +--> ?PR?VALIDASENSOR?IO_SENSORES
  +--> ?PR?VALIDA_SENSOR1_AUTO?IO_SENSORES
  +--> ?CO?IO_SENSORES
  +--> ?PR?_DEBUG_TXT_TIBBO?TIBBO

?PR?VALIDA_SENSOR1_AUTO?IO_SENSORES              -----    -----      -----    -----      0012H    0001H
  +--> ?PR?SEL_SENSOR1?IO_SENSORES
  +--> ?PR?SEL_AUTO?IO_SENSORES
  +--> ?CO?IO_SENSORES
  +--> ?PR?_DEBUG_TXT_TIBBO?TIBBO

?PR?_PANTALLALCD?PANTALLAS                       -----    -----      -----    -----      002BH    0008H
  +--> ?CO?PANTALLAS
  +--> ?PR?_LCD_TXT?PANTALLAS
  +--> ?PR?_STRLEN?STRLEN
  +--> ?PR?_TX_CHRLCD?PANTALLAS
  +--> ?PR?RASPBERRY_DATA1?PANTALLAS

?PR?_LCD_TXT?PANTALLAS                           -----    -----      -----    -----      0033H    0005H
  +--> ?PR?_TX_CHRLCD?PANTALLAS

?PR?_TX_CHRLCD?PANTALLAS                         -----    -----      -----    -----      0038H    0002H
  +--> ?PR?_PUTCHAR?MAIN

?PR?RASPBERRY_DATA1?PANTALLAS                    -----    -----      -----    -----      0033H    0003H
  +--> ?PR?_STRLEN?STRLEN
  +--> ?PR?_PUTCHAR?MAIN

?PR?RESPONDE_TIPO_TARJETA?VERIFICADOR            -----    -----      -----    -----      0003H    0001H
  +--> ?CO?VERIFICADOR
  +--> ?PR?_DEBUG_TXT_TIBBO?TIBBO
  +--> ?PR?_SEND_PORTERR?PTO_PARALELO
  +--> ?PR?_PANTALLALCD?PANTALLAS
  +--> ?PR?CAPTURA_EXPULSA?VERIFICADOR

?PR?_RESPONDE_LECTURA_TARJETA_SECTOR1...         -----    -----      -----    -----      0003H    0016H
  +--> ?CO?VERIFICADOR
  +--> ?PR?_DEBUG_TXT_TIBBO?TIBBO
  +--> ?PR?_DEBUGBUFFERMF?TIBBO
  +--> ?PR?_RD_EEPROM?EEPROM
  +--> ?PR?_DEBUG_HEXDEC?TIBBO
  +--> ?PR?_DEBUG_CHR_TIBBO?TIBBO
  +--> ?PR?_SEND_PORTERR?PTO_PARALELO
  +--> ?PR?_PANTALLALCD?PANTALLAS
  +--> ?PR?CAPTURA_EXPULSA?VERIFICADOR

?PR?_DEBUG_HEXDEC?TIBBO                          -----    -----      -----    -----      0019H    0002H
  +--> ?PR?_TX_AUX?TIBBO

?PR?_RESPONDE_LECTURA_TARJETA_SECTOR1...         -----    -----      -----    -----      0003H    0004H
  +--> ?CO?VERIFICADOR
  +--> ?PR?_DEBUG_TXT_TIBBO?TIBBO
  +--> ?PR?CAPTURA_EXPULSA?VERIFICADOR

?PR?_RESPONDE_LECTURA_TARJETA_SECTOR1...         -----    -----      -----    -----      0003H    0015H
  +--> ?CO?VERIFICADOR
  +--> ?PR?_DEBUG_TXT_TIBBO?TIBBO
BL51 BANKED LINKER/LOCATER V6.22.2.0                                                  08/20/2020  14:46:33  PAGE 17


  +--> ?PR?_DEBUGBUFFERMF?TIBBO
  +--> ?PR?_DEBUG_CHR_TIBBO?TIBBO
  +--> ?PR?CAPTURA_EXPULSA?VERIFICADOR

?PR?_RESPONDE_WRITE_TARJETA_SECTOR1_B...         -----    -----      -----    -----      0003H    0007H
  +--> ?CO?VERIFICADOR
  +--> ?PR?_DEBUG_TXT_TIBBO?TIBBO
  +--> ?PR?_DEBUGBUFFERMF?TIBBO
  +--> ?PR?_ARMAR_TRAMA_TARJETA_SECTOR1_BLOQ...

?PR?_ARMAR_TRAMA_TARJETA_SECTOR1_BLOQ...         -----    -----      -----    -----      000AH    0003H
  +--> ?PR?LEE_NO_TICKET?EEPROM

?PR?LEE_NO_TICKET?EEPROM                         -----    -----      -----    -----      001CH    000BH
  +--> ?PR?READ_EEPROM_TICKET?EEPROM
  +--> ?CO?EEPROM
  +--> ?PR?PRINTF?PRINTF
  +--> ?PR?_STRLEN?STRLEN
  +--> ?PR?_DEBUG_TXT_TIBBO?TIBBO

?PR?READ_EEPROM_TICKET?EEPROM                    -----    -----      -----    -----      0027H    0007H
  +--> ?PR?_RD_EEPROM?EEPROM

?PR?_RESPONDE_WRITE_TARJETA_SECTOR2_B...         -----    -----      -----    -----      0003H    0003H
  +--> ?CO?VERIFICADOR
  +--> ?PR?_DEBUG_TXT_TIBBO?TIBBO
  +--> ?PR?_DEBUGBUFFERMF?TIBBO

?PR?_RESPONDE_WRITE_TARJETA_SECTOR1_B...         -----    -----      -----    -----      0003H    0003H
  +--> ?CO?VERIFICADOR
  +--> ?PR?_DEBUG_TXT_TIBBO?TIBBO
  +--> ?PR?_DEBUGBUFFERMF?TIBBO

?PR?_DISPARO_LOCK_ENTRADA_VEHICULO?VE...         -----    -----      -----    -----      0003H    0004H
  +--> ?CO?VERIFICADOR
  +--> ?PR?_DEBUG_TXT_TIBBO?TIBBO
  +--> ?PR?_PANTALLALCD?PANTALLAS
  +--> ?PR?_SEND_PORTERR?PTO_PARALELO
  +--> ?PR?_PANTALLALCD_LINEA_2?PANTALLAS
  +--> ?PR?VALIDA_SENSOR1_AUTO?IO_SENSORES

?PR?_PANTALLALCD_LINEA_2?PANTALLAS               -----    -----      -----    -----      0011H    000BH
  +--> ?CO?PANTALLAS
  +--> ?PR?_LCD_TXT?PANTALLAS
  +--> ?PR?_STRLEN?STRLEN
  +--> ?PR?_TX_CHRLCD?PANTALLAS
  +--> ?PR?RASPBERRY_DATA1?PANTALLAS
  +--> ?PR?LEE_NO_TICKET?EEPROM
  +--> ?PR?_STRCAT?STRCAT

?PR?_RESPUESTA_SEGUNDA_CLAVE?VERIFICADOR         -----    -----      -----    -----      0003H    0006H
  +--> ?CO?VERIFICADOR
  +--> ?PR?_DEBUG_TXT_TIBBO?TIBBO
  +--> ?PR?_DEBUGBUFFERMF?TIBBO
  +--> ?PR?_ARMAR_TRAMA_PLACA?VERIFICADOR

?PR?_ARMAR_TRAMA_PLACA?VERIFICADOR               -----    -----      -----    -----      0009H    0003H
BL51 BANKED LINKER/LOCATER V6.22.2.0                                                  08/20/2020  14:46:33  PAGE 18



?PR?ANALIZA_PRESENCIA_MENSUAL?VERIFIC...         -----    -----      -----    -----      0003H    0001H
  +--> ?PR?VALIDASENSORESPASO?IO_SENSORES
  +--> ?PR?_SEND_PORTERR?PTO_PARALELO
  +--> ?PR?_PANTALLALCD?PANTALLAS

?PR?_ANALIZA_UID_CARD?VERIFICADOR                -----    -----      -----    -----      0003H    0015H
  +--> ?CO?VERIFICADOR
  +--> ?PR?_DEBUG_TXT_TIBBO?TIBBO
  +--> ?PR?_DEBUGBUFFERMF?TIBBO
  +--> ?PR?_DEBUG_CHR_TIBBO?TIBBO

?PR?_MOV_CARD?LINTECH                            -----    -----      -----    -----      0003H    000CH
  +--> ?CO?LINTECH
  +--> ?PR?_DEBUG_TXT_TIBBO?TIBBO
  +--> ?PR?_DEBUGBUFFERMF?TIBBO
  +--> ?PR?_ESCRIBIRCADENASOFT_BUFFER?MAIN

?PR?_CARD_INSERCION?LINTECH                      -----    -----      -----    -----      0003H    000AH
  +--> ?CO?LINTECH
  +--> ?PR?_DEBUG_TXT_TIBBO?TIBBO
  +--> ?PR?_DEBUGBUFFERMF?TIBBO
  +--> ?PR?_ESCRIBIRCADENASOFT_BUFFER?MAIN

?PR?AUT_CARD_CHECK_STATUS?LINTECH                -----    -----      -----    -----      0003H    000BH
  +--> ?CO?LINTECH
  +--> ?PR?_DEBUG_TXT_TIBBO?TIBBO
  +--> ?PR?_DEBUGBUFFERMF?TIBBO
  +--> ?PR?_ESCRIBIRCADENASOFT_BUFFER?MAIN

?PR?LOADVERIFY_EEPROM?LINTECH                    -----    -----      -----    -----      0003H    0010H
  +--> ?CO?LINTECH
  +--> ?PR?_DEBUG_TXT_TIBBO?TIBBO
  +--> ?PR?_DEBUGBUFFERMF?TIBBO
  +--> ?PR?_ESCRIBIRCADENASOFT_BUFFER?MAIN

?PR?_RD_MF?LINTECH                               -----    -----      -----    -----      0003H    0012H
  +--> ?CO?LINTECH
  +--> ?PR?_DEBUG_TXT_TIBBO?TIBBO
  +--> ?PR?_DEBUG_CHR_TIBBO?TIBBO
  +--> ?PR?_DEBUGBUFFERMF?TIBBO
  +--> ?PR?_ESCRIBIRCADENASOFT_BUFFER?MAIN

?PR?_WR_MF?LINTECH                               -----    -----      -----    -----      0003H    0025H
  +--> ?CO?LINTECH
  +--> ?PR?_DEBUG_TXT_TIBBO?TIBBO
  +--> ?PR?_DEBUG_CHR_TIBBO?TIBBO
  +--> ?PR?_DEBUGBUFFERMF?TIBBO
  +--> ?PR?_ESCRIBIRCADENASOFT_BUFFER?MAIN

?PR?ENTREGA_CARD_CAPTURA?VERIFICADOR             -----    -----      -----    -----      0003H    0001H
  +--> ?CO?VERIFICADOR
  +--> ?PR?_DEBUG_TXT_TIBBO?TIBBO
  +--> ?PR?SEL_SENSOR2?IO_SENSORES
  +--> ?PR?VALIDASENSOR?IO_SENSORES
  +--> ?PR?VALIDA_SENSOR1_AUTO?IO_SENSORES

BL51 BANKED LINKER/LOCATER V6.22.2.0                                                  08/20/2020  14:46:33  PAGE 19


?PR?_SEND_PTO_PARALELO?VERIFICADOR               -----    -----      -----    -----      0003H    0003H
  +--> ?PR?_ARMAR_TRAMA_PTO_PARALELO_EXPEDID...
  +--> ?PR?ARMAR_TRAMA_PTO_PARALELO_EXPEDIDO...
  +--> ?PR?INCREMENTE_TICKET?EEPROM
  +--> ?PR?_STRLEN?STRLEN
  +--> ?PR?_SEND_PORT?PTO_PARALELO
  +--> ?CO?VERIFICADOR
  +--> ?PR?_DEBUG_TXT_TIBBO?TIBBO
  +--> ?PR?_DEBUGBUFFERMF?TIBBO
  +--> ?PR?CLEAR_PLACA?MONITOR

?PR?_ARMAR_TRAMA_PTO_PARALELO_EXPEDID...         -----    -----      -----    -----      0006H    0003H
  +--> ?PR?_BLOCK_READ_CLOCK_HEX?CLOCK
  +--> ?PR?_RD_EEPROM?EEPROM

?PR?ARMAR_TRAMA_PTO_PARALELO_EXPEDIDO...         -----    -----      -----    -----      0006H    000CH
  +--> ?PR?LEE_NO_TICKET?EEPROM
  +--> ?PR?_STRCAT?STRCAT
  +--> ?PR?_STRLEN?STRLEN
  +--> ?PR?_BLOCK_READ_CLOCK_HEX?CLOCK
  +--> ?PR?_RD_EEPROM?EEPROM

?PR?INCREMENTE_TICKET?EEPROM                     -----    -----      -----    -----      0006H    000BH
  +--> ?PR?READ_EEPROM_TICKET?EEPROM
  +--> ?CO?EEPROM
  +--> ?PR?PRINTF?PRINTF
  +--> ?PR?_WRITE_EEPROM_TICKET?EEPROM

?PR?_WRITE_EEPROM_TICKET?EEPROM                  -----    -----      -----    -----      0016H    000BH
  +--> ?CO?EEPROM
  +--> ?PR?_DEBUG_TXT_TIBBO?TIBBO
  +--> ?PR?_ATOL?ATOL
  +--> ?PR?_DEBUG_CHR_TIBBO?TIBBO
  +--> ?PR?_WR_EEPROM?EEPROM

?PR?_ATOL?ATOL                                   0020H.0  0000H.1    -----    -----      0021H    0007H
  +--> ?PR?_ISSPACE?ISSPACE
  +--> ?PR?_ISDIGIT?ISDIGIT

?PR?_SEND_PORT?PTO_PARALELO                      -----    -----      -----    -----      0016H    000AH
  +--> ?PR?PULSO_BUS?PTO_PARALELO
  +--> ?PR?_DELAY_20US?DELAY

?PR?_WAIT_PLACA?VERIFICADOR                      -----    -----      -----    -----      0003H    0005H
  +--> ?PR?RX_MONITOR?MONITOR
  +--> ?PR?CLAVE_SEGURIDAD_S2?LINTECH
  +--> ?PR?_LOAD_SECUENCIA_EXPEDIDOR?VERIFIC...

?PR?CLAVE_SEGURIDAD_S2?LINTECH                   -----    -----      -----    -----      0008H    0016H
  +--> ?CO?LINTECH
  +--> ?PR?_DEBUG_TXT_TIBBO?TIBBO
  +--> ?PR?_DEBUGBUFFERMF?TIBBO
  +--> ?PR?_ESCRIBIRCADENASOFT_BUFFER?MAIN

?PR?UNIQUE_IDENTIFIER_UID?LINTECH                -----    -----      -----    -----      0003H    000BH
  +--> ?CO?LINTECH
  +--> ?PR?_DEBUG_TXT_TIBBO?TIBBO
BL51 BANKED LINKER/LOCATER V6.22.2.0                                                  08/20/2020  14:46:33  PAGE 20


  +--> ?PR?_DEBUGBUFFERMF?TIBBO
  +--> ?PR?_ESCRIBIRCADENASOFT_BUFFER?MAIN

?PR?_PREGUNTA_LPR?VERIFICADOR                    -----    -----      -----    -----      0003H    0004H
  +--> ?PR?_RD_EEPROM?EEPROM
  +--> ?PR?_ARMAR_TRAMA_MONITOR?VERIFICADOR
  +--> ?PR?_DEBUG_TXT_TIBBO?TIBBO

?PR?_ARMAR_TRAMA_MONITOR?VERIFICADOR             -----    -----      -----    -----      0007H    000FH
  +--> ?PR?DIR_BOARD?IO_SENSORES
  +--> ?PR?LEE_NO_TICKET?EEPROM
  +--> ?PR?_STRCAT?STRCAT
  +--> ?PR?_BYTEHEX_DECIMAL?CLOCK
  +--> ?PR?_STRLEN?STRLEN
  +--> ?PR?_TWO_BYTEHEX_DECIMAL?CLOCK
  +--> ?PR?_BLOCK_READ_CLOCK_ASCII?CLOCK

?PR?DIR_BOARD?IO_SENSORES                        -----    -----      -----    -----      0033H    0001H
  +--> ?PR?SEL_DIR1?IO_SENSORES
  +--> ?PR?SEL_DIR2?IO_SENSORES
  +--> ?PR?_RD_EEPROM?EEPROM

?PR?_BYTEHEX_DECIMAL?CLOCK                       -----    -----      -----    -----      0016H    0001H

?PR?_TWO_BYTEHEX_DECIMAL?CLOCK                   -----    -----      -----    -----      0016H    000CH
  +--> ?PR?_POW?POW

?PR?_POW?POW                                     -----    -----      -----    -----      0022H    000AH
  +--> ?PR?LOG?LOG
  +--> ?PR?EXP?EXP

?PR?LOG?LOG                                      0020H.0  0000H.1    -----    -----      002CH    0004H

?PR?_VALIDA_TIPO_TARJETA?VERIFICADOR             -----    -----      -----    -----      0003H    0007H
  +--> ?CO?VERIFICADOR
  +--> ?PR?_DEBUG_TXT_TIBBO?TIBBO
  +--> ?PR?_RD_EEPROM?EEPROM
  +--> ?PR?_SEND_PORTERR?PTO_PARALELO
  +--> ?PR?_TARJETA_MENSUAL?VERIFICADOR
  +--> ?PR?_PANTALLALCD?PANTALLAS
  +--> ?PR?CAPTURA_EXPULSA?VERIFICADOR
  +--> ?PR?_TARJETA_ROTACION?VERIFICADOR

?PR?_TARJETA_MENSUAL?VERIFICADOR                 -----    -----      -----    -----      000AH    0007H
  +--> ?PR?_HORARIOS?VERIFICADOR
  +--> ?PR?_CHECK_FECHAOUT?CLOCK
  +--> ?PR?_VALIDA_VEHICULO_CARD_MENSUAL?VER...
  +--> ?PR?CAPTURA_EXPULSA?VERIFICADOR
  +--> ?CO?VERIFICADOR
  +--> ?PR?_DEBUG_TXT_TIBBO?TIBBO
  +--> ?PR?_ARMAR_TRAMA_TARJETA_SECTOR1_BLOQ...
  +--> ?PR?_SEND_PORTERR?PTO_PARALELO
  +--> ?PR?_PANTALLALCD?PANTALLAS

?PR?_HORARIOS?VERIFICADOR                        -----    -----      -----    -----      0011H    0013H
  +--> ?PR?ADDR_HORARIOS?PROG
  +--> ?PR?_RD_EEPROM?EEPROM
BL51 BANKED LINKER/LOCATER V6.22.2.0                                                  08/20/2020  14:46:33  PAGE 21


  +--> ?PR?_LEE_CLK?CLOCK
  +--> ?CO?VERIFICADOR
  +--> ?PR?_DEBUG_TXT_TIBBO?TIBBO
  +--> ?PR?_DEBUG_CHR_TIBBO?TIBBO
  +--> ?PR?_BLOQUE_HORARIO?VERIFICADOR
  +--> ?PR?_PANTALLALCD?PANTALLAS

?PR?_BLOQUE_HORARIO?VERIFICADOR                  -----    -----      -----    -----      0024H    0007H
  +--> ?CO?VERIFICADOR
  +--> ?PR?_DEBUG_TXT_TIBBO?TIBBO
  +--> ?PR?_LEE_CLK?CLOCK
  +--> ?PR?_DEBUG_CHR_TIBBO?TIBBO
  +--> ?PR?_HORA_MAXIMA?VERIFICADOR
  +--> ?PR?_EN_HORARIO?VERIFICADOR
  +--> ?PR?_RD_EEPROM?EEPROM
  +--> ?PR?_SEND_PORTERR?PTO_PARALELO
  +--> ?PR?_PANTALLALCD?PANTALLAS

?PR?_HORA_MAXIMA?VERIFICADOR                     -----    -----      -----    -----      0030H    0008H
  +--> ?PR?_RD_EEPROM?EEPROM
  +--> ?PR?_DEBUG_CHR_TIBBO?TIBBO
  +--> ?CO?VERIFICADOR
  +--> ?PR?_DEBUG_TXT_TIBBO?TIBBO

?PR?_EN_HORARIO?VERIFICADOR                      -----    -----      -----    -----      002BH    0005H
  +--> ?CO?VERIFICADOR
  +--> ?PR?_DEBUG_TXT_TIBBO?TIBBO
  +--> ?PR?_HORA_MAXIMA?VERIFICADOR

?PR?_VALIDA_VEHICULO_CARD_MENSUAL?VER...         -----    -----      -----    -----      0011H    0004H
  +--> ?CO?VERIFICADOR
  +--> ?PR?_DEBUG_TXT_TIBBO?TIBBO
  +--> ?PR?_RD_EEPROM?EEPROM
  +--> ?PR?_SEND_PORTERR?PTO_PARALELO

?PR?_ARMAR_TRAMA_TARJETA_SECTOR1_BLOQ...         -----    -----      -----    -----      0011H    0006H
  +--> ?PR?_BLOCK_READ_CLOCK_HEX?CLOCK
  +--> ?PR?DIR_BOARD?IO_SENSORES

?PR?_TARJETA_ROTACION?VERIFICADOR                -----    -----      -----    -----      000AH    0006H
  +--> ?PR?_ARMAR_TRAMA_TARJETA_SECTOR1_BLOQ...

?PR?ANALIZA_PRESENCIA_ROTACION?VERIFI...         -----    -----      -----    -----      0003H    0001H
  +--> ?PR?VALIDASENSORESPASO?IO_SENSORES
  +--> ?PR?_SEND_PORTERR?PTO_PARALELO
  +--> ?PR?_PANTALLALCD?PANTALLAS

?PR?POWER_OFF?LINTECH                            -----    -----      -----    -----      0003H    000BH
  +--> ?CO?LINTECH
  +--> ?PR?_DEBUG_TXT_TIBBO?TIBBO
  +--> ?PR?_DEBUGBUFFERMF?TIBBO
  +--> ?PR?_ESCRIBIRCADENASOFT_BUFFER?MAIN

?PR?_RECIBE_PORT?PTO_PARALELO                    -----    -----      -----    -----      0002H    0008H
  +--> ?PR?OFF_TIMER0_INTERRUP?MAIN
  +--> ?PR?ON_TIMER0_INTERRUP?MAIN

BL51 BANKED LINKER/LOCATER V6.22.2.0                                                  08/20/2020  14:46:33  PAGE 22


?PR?_DEBUG_PTO_PARALELO?TIBBO                    -----    -----      -----    -----      0002H    0004H
  +--> ?PR?DEBUG_DIVIDIR_TEXTO?TIBBO
  +--> ?CO?TIBBO
  +--> ?PR?_DEBUG_TXT_TIBBO?TIBBO
  +--> ?PR?_DEBUGBUFFERMF?TIBBO

?PR?_VALIDA_TRAMA_PTO?ACCESCAN                   -----    -----      -----    -----      0002H    000FH
  +--> ?PR?_VALIDAR_CLK?CLOCK
  +--> ?PR?_BLOCK_WRITE_CLOCK_ASCII?CLOCK
  +--> ?PR?RELOJ_PANTALLA_LCD?PANTALLAS
  +--> ?PR?_PANTALLALCD?PANTALLAS
  +--> ?CO?ACCESCAN
  +--> ?PR?_DEBUG_TXT_TIBBO?TIBBO
  +--> ?PR?_BYTEHEX_DECIMAL?CLOCK
  +--> ?PR?_TWO_BYTEHEX_DECIMAL?CLOCK
  +--> ?PR?VALIDASENSORESPASO?IO_SENSORES
  +--> ?PR?_CMD_LPR_SALIDA_WIEGAND?ACCESCAN
  +--> ?PR?_PANTALLALCD_LINEA_2?PANTALLAS
  +--> ?PR?_GRABA_SERIE?EEPROM

?PR?_BLOCK_WRITE_CLOCK_ASCII?CLOCK               -----    -----      -----    -----      0011H    0003H
  +--> ?PR?_TWO_ONE?CLOCK
  +--> ?PR?_WR_CLK?CLOCK

?PR?_WR_CLK?CLOCK                                -----    -----      -----    -----      0014H    0002H
  +--> ?PR?_DELAY_20US?DELAY
  +--> ?PR?_EB_CLK?CLOCK

?PR?RELOJ_PANTALLA_LCD?PANTALLAS                 -----    -----      -----    -----      0011H    000DH
  +--> ?CO?PANTALLAS
  +--> ?PR?_BLOCK_READ_CLOCK?CLOCK
  +--> ?PR?_LCD_TXT_NUM_CHAR?PANTALLAS
  +--> ?PR?RASPBERRY_DATA1?PANTALLAS

?PR?_BLOCK_READ_CLOCK?CLOCK                      -----    -----      -----    -----      001EH    0003H
  +--> ?PR?_LEE_CLK?CLOCK

?PR?_LCD_TXT_NUM_CHAR?PANTALLAS                  -----    -----      -----    -----      001EH    0006H
  +--> ?PR?_TX_CHRLCD?PANTALLAS

?PR?_CMD_LPR_SALIDA_WIEGAND?ACCESCAN             -----    -----      -----    -----      0011H    0022H
  +--> ?PR?DIR_BOARD?IO_SENSORES
  +--> ?PR?_BLOCK_READ_CLOCK_ASCII?CLOCK
  +--> ?PR?_MONITOR_CHR?ACCESCAN

?PR?_MONITOR_CHR?ACCESCAN                        -----    -----      -----    -----      0033H    0005H
  +--> ?PR?_TX_AUX?TIBBO

?PR?_GRABA_SERIE?EEPROM                          -----    -----      -----    -----      0011H    0005H
  +--> ?CO?EEPROM
  +--> ?PR?_DEBUG_TXT_TIBBO?TIBBO
  +--> ?PR?_WRITE_EEPROM_TICKET?EEPROM
  +--> ?PR?_WR_EEPROM?EEPROM

?PR?MSJ_LCD_INFORMATIVO?IO_SENSORES              -----    -----      -----    -----      0002H    0001H
  +--> ?PR?SEL_FUNCION?IO_SENSORES
  +--> ?PR?LOAD_AND_SEND_INFO_RELOJ?PTO_PARA...
BL51 BANKED LINKER/LOCATER V6.22.2.0                                                  08/20/2020  14:46:33  PAGE 23


  +--> ?PR?LOAD_AND_SEND_ID_COD?PTO_PARALELO
  +--> ?PR?_RD_EEPROM?EEPROM
  +--> ?PR?_SEND_PORTERR?PTO_PARALELO

?PR?LOAD_AND_SEND_INFO_RELOJ?PTO_PARA...         -----    -----      -----    -----      0003H    000BH
  +--> ?PR?_BLOCK_READ_CLOCK?CLOCK
  +--> ?PR?_LEE_CLK?CLOCK
  +--> ?PR?_SEND_PORT?PTO_PARALELO

?PR?LOAD_AND_SEND_ID_COD?PTO_PARALELO            -----    -----      -----    -----      0003H    0013H
  +--> ?PR?_RD_EEPROM?EEPROM
  +--> ?CO?PTO_PARALELO
  +--> ?PR?PRINTF?PRINTF
  +--> ?PR?_SEND_PORT?PTO_PARALELO



SYMBOL TABLE OF MODULE:  .\Objects\expedidor_v_01_raspberry (MAIN)

  VALUE           TYPE          NAME
  ----------------------------------

  -------         MODULE        MAIN
  C:0000H         SYMBOL        _ICE_DUMMY_
  D:0080H         PUBLIC        P0
  D:0090H         PUBLIC        P1
  C:AC95H         PUBLIC        timer0_int
  D:00B0H         PUBLIC        P3
  B:00A8H.7       PUBLIC        EA
  C:B092H         PUBLIC        off_Timer0_Interrup
  X:016AH         PUBLIC        ValTimeOutCom
  X:016BH         PUBLIC        Buffer_Rta_Lintech
  X:019DH         PUBLIC        Timer_wait
  X:019EH         PUBLIC        g_cContByteRx
  B:0080H.0       PUBLIC        rx_ip
  B:0080H.3       PUBLIC        Atascado
  C:9963H         PUBLIC        main
  X:019FH         PUBLIC        Timer_tivo
  C:A45DH         PUBLIC        variable_inicio
  B:0090H.7       PUBLIC        lock
  I:0022H         PUBLIC        rbuf
  C:B083H         PUBLIC        on_Timer0_Interrup
  I:0054H         PUBLIC        tbuf
  B:0090H.1       PUBLIC        DataIn
  D:0089H         PUBLIC        TMOD
  X:01A1H         PUBLIC        USE_LPR
  X:01A2H         PUBLIC        Debug_Tibbo
  X:01A3H         PUBLIC        Raspberry
  X:01A4H         PUBLIC        SIN_COBRO
  X:01A6H         PUBLIC        Tipo_Vehiculo
  B:00B0H.3       PUBLIC        busy
  C:AFEEH         PUBLIC        ini_timer
  B:00A8H.1       PUBLIC        ET0
  B:0088H.5       PUBLIC        TF0
  D:008CH         PUBLIC        TH0
  X:01A7H         PUBLIC        ACK
  X:01A8H         PUBLIC        g_cEstadoComSoft
BL51 BANKED LINKER/LOCATER V6.22.2.0                                                  08/20/2020  14:46:33  PAGE 24


  D:008AH         PUBLIC        TL0
  B:0088H.4       PUBLIC        TR0
  C:AFFEH         PUBLIC        inicia_board
  X:01A9H         PUBLIC        T_GRACIA
  B:0080H.7       PUBLIC        sel_com
  X:01ABH         PUBLIC        STX_LINTECH
  C:B01DH         PUBLIC        _getkey
  X:01ACH         PUBLIC        ETX
  C:A6ADH         PUBLIC        _EscribirCadenaSoft_buffer
  B:0021H.1       PUBLIC        buffer_ready
  C:A949H         PUBLIC        _putchar
  B:0021H.2       PUBLIC        placa_ready
  -------         PROC          TIMER0_INT
  C:AC95H         LINE#         16
  C:AC9BH         LINE#         19
  C:ACA1H         LINE#         20
  C:ACA6H         LINE#         21
  C:ACA6H         LINE#         22
  C:ACACH         LINE#         23
  C:ACACH         LINE#         25
  C:ACBAH         LINE#         26
  C:ACBCH         LINE#         28
  -------         ENDPROC       TIMER0_INT
  -------         PROC          INI_TIMER
  C:AFEEH         LINE#         31
  C:AFEEH         LINE#         32
  C:AFEEH         LINE#         34
  C:AFF6H         LINE#         36
  C:AFF9H         LINE#         37
  C:AFFBH         LINE#         38
  C:AFFDH         LINE#         40
  -------         ENDPROC       INI_TIMER
  -------         PROC          ON_TIMER0_INTERRUP
  C:B083H         LINE#         43
  C:B083H         LINE#         44
  C:B083H         LINE#         45
  C:B085H         LINE#         46
  C:B087H         LINE#         48
  -------         ENDPROC       ON_TIMER0_INTERRUP
  -------         PROC          OFF_TIMER0_INTERRUP
  C:B092H         LINE#         51
  C:B092H         LINE#         52
  C:B092H         LINE#         53
  C:B094H         LINE#         55
  -------         ENDPROC       OFF_TIMER0_INTERRUP
  -------         PROC          _GETKEY
  -------         DO            
  D:0006H         SYMBOL        k
  -------         ENDDO         
  C:B01DH         LINE#         63
  C:B01DH         LINE#         64
  C:B01DH         LINE#         68
  C:B01DH         LINE#         69
  C:B020H         LINE#         70
  C:B020H         LINE#         71
  C:B028H         LINE#         73
  C:B028H         LINE#         74
BL51 BANKED LINKER/LOCATER V6.22.2.0                                                  08/20/2020  14:46:33  PAGE 25


  -------         ENDPROC       _GETKEY
  -------         PROC          _PUTCHAR
  X:00A8H         SYMBOL        c
  -------         DO            
  X:00A9H         SYMBOL        i
  -------         ENDDO         
  C:A949H         LINE#         78
  C:A94EH         LINE#         79
  C:A94EH         LINE#         82
  C:A95DH         LINE#         83
  C:A95DH         LINE#         84
  C:A973H         LINE#         85
  C:A973H         LINE#         87
  C:A981H         LINE#         88
  C:A981H         LINE#         90
  C:A986H         LINE#         91
  -------         ENDPROC       _PUTCHAR
  -------         PROC          _ESCRIBIRCADENASOFT_BUFFER
  X:0028H         SYMBOL        buffer
  X:002BH         SYMBOL        tamano_cadena
  -------         DO            
  X:002CH         SYMBOL        i
  X:002DH         SYMBOL        d
  -------         ENDDO         
  C:A6ADH         LINE#         95
  C:A6BBH         LINE#         96
  C:A6BBH         LINE#         98
  C:A6C9H         LINE#         99
  C:A6C9H         LINE#         100
  C:A6E0H         LINE#         101
  C:A6EAH         LINE#         102
  C:A6F2H         LINE#         103
  -------         ENDPROC       _ESCRIBIRCADENASOFT_BUFFER
  -------         PROC          INICIA_BOARD
  C:AFFEH         LINE#         108
  C:AFFEH         LINE#         109
  C:AFFEH         LINE#         110
  C:B001H         LINE#         111
  C:B004H         LINE#         112
  C:B007H         LINE#         113
  C:B009H         LINE#         114
  C:B00BH         LINE#         115
  C:B00DH         LINE#         117
  -------         ENDPROC       INICIA_BOARD
  -------         PROC          VARIABLE_INICIO
  C:A45DH         LINE#         122
  C:A45DH         LINE#         123
  C:A45DH         LINE#         126
  C:A46EH         LINE#         127
  C:A47FH         LINE#         128
  C:A48DH         LINE#         129
  C:A49BH         LINE#         130
  C:A4A9H         LINE#         132
  -------         ENDPROC       VARIABLE_INICIO
  -------         PROC          MAIN
  -------         DO            
  X:0142H         SYMBOL        buffer
BL51 BANKED LINKER/LOCATER V6.22.2.0                                                  08/20/2020  14:46:33  PAGE 26


  X:0000H         SYMBOL        Estado_Comunicacion_Secuencia_MF
  X:0001H         SYMBOL        Length_trama
  -------         ENDDO         
  C:9963H         LINE#         140
  C:9963H         LINE#         141
  C:9963H         LINE#         144
  C:9968H         LINE#         148
  C:996BH         LINE#         149
  C:996EH         LINE#         150
  C:9971H         LINE#         151
  C:9974H         LINE#         152
  C:9977H         LINE#         153
  C:9979H         LINE#         155
  C:997CH         LINE#         156
  C:9983H         LINE#         157
  C:9986H         LINE#         159
  C:998BH         LINE#         161
  C:998EH         LINE#         163
  C:9991H         LINE#         164
  C:9991H         LINE#         165
  C:9994H         LINE#         166
  C:9994H         LINE#         169
  C:9997H         LINE#         170
  C:999DH         LINE#         171
  C:99A3H         LINE#         173
  C:99A3H         LINE#         174
  C:99A3H         LINE#         177
  C:99A6H         LINE#         178
  C:99A6H         LINE#         179
  C:99A9H         LINE#         180
  C:99A9H         LINE#         184
  C:99B6H         LINE#         189
  C:99B9H         LINE#         190
  C:99B9H         LINE#         192
  C:99C8H         LINE#         194
  C:99D1H         LINE#         196
  C:99DFH         LINE#         198
  C:99DFH         LINE#         199
  C:99E2H         LINE#         203
  -------         ENDPROC       MAIN
  -------         ENDMOD        MAIN

  -------         MODULE        ACCESCAN
  C:0000H         SYMBOL        _ICE_DUMMY_
  D:0080H         PUBLIC        P0
  D:0090H         PUBLIC        P1
  B:0080H.2       PUBLIC        led_err_imp
  C:A848H         PUBLIC        _Monitor_chr
  B:0080H.3       PUBLIC        Atascado
  B:0090H.7       PUBLIC        lock
  C:3E91H         PUBLIC        _Valida_Trama_Pto
  C:7C73H         PUBLIC        _Cmd_LPR_Salida_wiegand
  -------         PROC          _VALIDA_TRAMA_PTO
  X:0002H         SYMBOL        buffer
  X:0005H         SYMBOL        length_trama
  -------         DO            
  X:020FH         SYMBOL        cont
BL51 BANKED LINKER/LOCATER V6.22.2.0                                                  08/20/2020  14:46:33  PAGE 27


  X:0006H         SYMBOL        buff
  -------         ENDDO         
  C:3E91H         LINE#         85
  C:3E9FH         LINE#         86
  C:3E9FH         LINE#         92
  C:3ED5H         LINE#         93
  C:3ED5H         LINE#         94
  C:3EEAH         LINE#         95
  C:3EEAH         LINE#         96
  C:3EFDH         LINE#         98
  C:3F00H         LINE#         100
  C:3F00H         LINE#         102
  C:3F00H         LINE#         104
  C:3F12H         LINE#         105
  C:3F12H         LINE#         106
  C:3F18H         LINE#         107
  C:3F25H         LINE#         108
  C:3F25H         LINE#         109
  C:3F2AH         LINE#         110
  C:3F2CH         LINE#         111
  C:3F31H         LINE#         112
  C:3F33H         LINE#         113
  C:3F35H         LINE#         114
  C:3F39H         LINE#         115
  C:3F39H         LINE#         116
  C:3F3AH         LINE#         118
  C:3F52H         LINE#         119
  C:3F52H         LINE#         121
  C:3F5FH         LINE#         122
  C:3F5FH         LINE#         123
  C:3F61H         LINE#         124
  C:3F63H         LINE#         125
  C:3F65H         LINE#         126
  C:3F67H         LINE#         127
  C:3F67H         LINE#         129
  C:3F8DH         LINE#         130
  C:3F8DH         LINE#         131
  C:3F91H         LINE#         132
  C:3F96H         LINE#         133
  C:3F9FH         LINE#         134
  C:3FA4H         LINE#         135
  C:3FA4H         LINE#         138
  C:3FA5H         LINE#         141
  C:3FB7H         LINE#         142
  C:3FB7H         LINE#         143
  C:3FB9H         LINE#         144
  C:3FBCH         LINE#         146
  C:3FCEH         LINE#         147
  C:3FCEH         LINE#         148
  C:3FD0H         LINE#         149
  C:3FD3H         LINE#         151
  C:3FEDH         LINE#         152
  C:3FEDH         LINE#         153
  C:3FEFH         LINE#         154
  C:3FF2H         LINE#         157
  C:400CH         LINE#         158
  C:400CH         LINE#         159
BL51 BANKED LINKER/LOCATER V6.22.2.0                                                  08/20/2020  14:46:33  PAGE 28


  C:400EH         LINE#         160
  C:4010H         LINE#         163
  C:402AH         LINE#         164
  C:402AH         LINE#         165
  C:402CH         LINE#         166
  C:402EH         LINE#         170
  C:4048H         LINE#         171
  C:4048H         LINE#         172
  C:404AH         LINE#         173
  C:404CH         LINE#         176
  C:4066H         LINE#         177
  C:4066H         LINE#         178
  C:4068H         LINE#         179
  C:406AH         LINE#         181
  C:4084H         LINE#         182
  C:4084H         LINE#         183
  C:4089H         LINE#         184
  C:4089H         LINE#         186
  C:40B9H         LINE#         187
  C:40B9H         LINE#         188
  C:40C7H         LINE#         189
  C:40CAH         LINE#         192
  C:410DH         LINE#         193
  C:410DH         LINE#         195
  C:4122H         LINE#         196
  C:4128H         LINE#         197
  C:4152H         LINE#         200
  C:415AH         LINE#         201
  C:415AH         LINE#         204
  C:4161H         LINE#         205
  C:4161H         LINE#         206
  C:4166H         LINE#         207
  C:4166H         LINE#         208
  C:4168H         LINE#         210
  C:4168H         LINE#         211
  C:4171H         LINE#         212
  C:4179H         LINE#         213
  C:4179H         LINE#         218
  C:417BH         LINE#         221
  C:417BH         LINE#         224
  C:4182H         LINE#         225
  C:4182H         LINE#         226
  C:4187H         LINE#         227
  C:4187H         LINE#         228
  C:4192H         LINE#         232
  C:4192H         LINE#         233
  C:4192H         LINE#         235
  C:41BFH         LINE#         236
  C:41BFH         LINE#         237
  C:41CEH         LINE#         239
  C:41CEH         LINE#         241
  -------         ENDPROC       _VALIDA_TRAMA_PTO
  -------         PROC          _MONITOR_CHR
  X:0033H         SYMBOL        str
  X:0036H         SYMBOL        num_char
  -------         DO            
  X:0037H         SYMBOL        j
BL51 BANKED LINKER/LOCATER V6.22.2.0                                                  08/20/2020  14:46:33  PAGE 29


  -------         ENDDO         
  C:A848H         LINE#         396
  C:A856H         LINE#         397
  C:A856H         LINE#         399
  C:A864H         LINE#         400
  C:A864H         LINE#         401
  C:A876H         LINE#         402
  C:A880H         LINE#         403
  C:A888H         LINE#         404
  -------         ENDPROC       _MONITOR_CHR
  -------         PROC          _CMD_LPR_SALIDA_WIEGAND
  X:0011H         SYMBOL        buffer
  -------         DO            
  X:0014H         SYMBOL        Buffer_Lpr
  X:0032H         SYMBOL        j
  -------         ENDDO         
  C:7C73H         LINE#         409
  C:7C7EH         LINE#         410
  C:7C7EH         LINE#         412
  C:7C84H         LINE#         413
  C:7C89H         LINE#         414
  C:7C91H         LINE#         415
  C:7C95H         LINE#         416
  C:7C9EH         LINE#         417
  C:7C9EH         LINE#         418
  C:7CAFH         LINE#         419
  C:7CB1H         LINE#         421
  C:7CB1H         LINE#         422
  C:7CC2H         LINE#         423
  C:7CC2H         LINE#         427
  C:7CD9H         LINE#         428
  C:7CD9H         LINE#         429
  C:7CE8H         LINE#         430
  C:7CF2H         LINE#         432
  C:7CFAH         LINE#         433
  C:7D0EH         LINE#         435
  C:7D1EH         LINE#         436
  C:7D2FH         LINE#         437
  C:7D3CH         LINE#         441
  -------         ENDPROC       _CMD_LPR_SALIDA_WIEGAND
  -------         ENDMOD        ACCESCAN

  -------         MODULE        CLOCK
  C:0000H         SYMBOL        _ICE_DUMMY_
  C:A8BDH         PUBLIC        _two_one
  D:0090H         PUBLIC        P1
  C:6B0DH         PUBLIC        _validar_clk
  C:AD19H         PUBLIC        _wr_clk
  C:7FAAH         PUBLIC        _check_fechaOut
  B:00D0H.7       PUBLIC        CY
  C:0003H         PUBLIC        p_ck
  C:9242H         PUBLIC        _hex_ascii
  X:0210H         PUBLIC        data_clk
  C:B045H         PUBLIC        cond_ini_clock
  C:8073H         PUBLIC        _Block_read_Clock
  B:0090H.4       PUBLIC        sck
  C:8CC9H         PUBLIC        _Block_read_Clock_Hex
BL51 BANKED LINKER/LOCATER V6.22.2.0                                                  08/20/2020  14:46:33  PAGE 30


  C:59E0H         PUBLIC        _Block_read_clock_ascii
  C:A9A3H         PUBLIC        _hex_bcd
  C:AEEDH         PUBLIC        _bcd_hex
  C:A194H         PUBLIC        _ByteHex_Decimal
  C:93FFH         PUBLIC        _lee_clk
  B:0090H.5       PUBLIC        io
  C:9515H         PUBLIC        _Block_write_clock_ascii
  B:0090H.6       PUBLIC        rst
  C:A90AH         PUBLIC        _eb_clk
  C:41CFH         PUBLIC        _Two_ByteHex_Decimal
  -------         PROC          P_CK
  C:0003H         LINE#         48
  C:0003H         LINE#         49
  C:0003H         LINE#         50
  C:0005H         LINE#         51
  C:0008H         LINE#         52
  C:000AH         LINE#         53
  -------         ENDPROC       P_CK
  -------         PROC          _EB_CLK
  X:00B5H         SYMBOL        dir_clk
  -------         DO            
  X:00B6H         SYMBOL        nbits
  -------         ENDDO         
  C:A90AH         LINE#         55
  C:A90FH         LINE#         57
  C:A914H         LINE#         58
  C:A914H         LINE#         59
  C:A91DH         LINE#         60
  C:A920H         LINE#         61
  C:A920H         LINE#         62
  C:A922H         LINE#         63
  C:A924H         LINE#         65
  C:A924H         LINE#         66
  C:A926H         LINE#         67
  C:A926H         LINE#         68
  C:A929H         LINE#         69
  C:A948H         LINE#         70
  -------         ENDPROC       _EB_CLK
  C:93F5H         SYMBOL        L?0082
  -------         PROC          L?0081
  -------         ENDPROC       L?0081
  C:93F5H         SYMBOL        L?0082
  -------         PROC          _LEE_CLK
  X:00B2H         SYMBOL        dir_clk
  -------         DO            
  X:00B3H         SYMBOL        nbits
  -------         ENDDO         
  C:93FFH         LINE#         72
  C:9404H         LINE#         74
  C:9406H         LINE#         75
  C:940DH         LINE#         76
  C:9415H         LINE#         77
  C:942EH         LINE#         78
  C:942EH         LINE#         79
  C:9431H         LINE#         80
  C:9431H         LINE#         81
  C:9438H         LINE#         82
BL51 BANKED LINKER/LOCATER V6.22.2.0                                                  08/20/2020  14:46:33  PAGE 31


  C:9442H         LINE#         83
  C:9447H         LINE#         84
  C:9447H         LINE#         85
  C:9447H         LINE#         86
  C:944AH         LINE#         87
  C:944AH         LINE#         88
  C:9451H         LINE#         89
  C:9462H         LINE#         90
  C:9462H         LINE#         91
  C:946AH         LINE#         92
  C:946AH         LINE#         93
  C:946AH         LINE#         94
  C:946DH         LINE#         95
  C:947DH         LINE#         96
  C:947FH         LINE#         97
  C:9484H         LINE#         98
  -------         ENDPROC       _LEE_CLK
  -------         PROC          _WR_CLK
  X:0014H         SYMBOL        dir_clk
  X:0015H         SYMBOL        byte
  C:AD19H         LINE#         100
  C:AD21H         LINE#         101
  C:AD23H         LINE#         102
  C:AD2AH         LINE#         103
  C:AD32H         LINE#         104
  C:AD3BH         LINE#         105
  C:AD3EH         LINE#         106
  C:AD40H         LINE#         108
  -------         ENDPROC       _WR_CLK
  C:A889H         SYMBOL        L?0077
  C:A8A7H         SYMBOL        L?0078
  -------         PROC          L?0076
  -------         ENDPROC       L?0076
  C:A889H         SYMBOL        L?0077
  C:A8A7H         SYMBOL        L?0078
  -------         PROC          _TWO_ONE
  D:0007H         SYMBOL        byte_h
  D:0005H         SYMBOL        byte_l
  -------         DO            
  D:0007H         SYMBOL        byte_out
  -------         ENDDO         
  C:A8BDH         LINE#         110
  C:A8BDH         LINE#         111
  C:A8BDH         LINE#         113
  C:A8C0H         LINE#         114
  C:A8C4H         LINE#         115
  C:A8C7H         LINE#         116
  C:A8C9H         LINE#         117
  C:A8C9H         LINE#         118
  -------         ENDPROC       _TWO_ONE
  -------         PROC          _VALIDAR_CLK
  D:0001H         SYMBOL        datos_clock
  -------         DO            
  D:0007H         SYMBOL        validador
  -------         ENDDO         
  C:6B0DH         LINE#         122
  C:6B0DH         LINE#         123
BL51 BANKED LINKER/LOCATER V6.22.2.0                                                  08/20/2020  14:46:33  PAGE 32


  C:6B0DH         LINE#         124
  C:6B0FH         LINE#         127
  C:6B24H         LINE#         128
  C:6B24H         LINE#         130
  C:6B3CH         LINE#         131
  C:6B3CH         LINE#         133
  C:6B54H         LINE#         134
  C:6B54H         LINE#         135
  C:6B6CH         LINE#         136
  C:6B6CH         LINE#         137
  C:6B84H         LINE#         138
  C:6B84H         LINE#         139
  C:6B99H         LINE#         140
  C:6B99H         LINE#         141
  C:6BABH         LINE#         142
  C:6BABH         LINE#         143
  C:6BBDH         LINE#         144
  C:6BBDH         LINE#         145
  C:6BCFH         LINE#         146
  C:6BCFH         LINE#         147
  C:6BE1H         LINE#         148
  C:6BE1H         LINE#         149
  C:6BF3H         LINE#         150
  C:6BF3H         LINE#         151
  C:6C03H         LINE#         152
  C:6C03H         LINE#         153
  C:6C03H         LINE#         154
  C:6C03H         LINE#         155
  C:6C04H         LINE#         157
  C:6C04H         LINE#         158
  C:6C06H         LINE#         159
  C:6C06H         LINE#         160
  C:6C07H         LINE#         162
  C:6C07H         LINE#         163
  C:6C09H         LINE#         165
  C:6C09H         LINE#         166
  C:6C0AH         LINE#         168
  C:6C0AH         LINE#         169
  C:6C0CH         LINE#         171
  C:6C0CH         LINE#         173
  C:6C0DH         LINE#         175
  C:6C0DH         LINE#         176
  C:6C0FH         LINE#         178
  C:6C0FH         LINE#         179
  C:6C10H         LINE#         181
  C:6C10H         LINE#         182
  C:6C12H         LINE#         184
  C:6C12H         LINE#         185
  C:6C13H         LINE#         187
  C:6C13H         LINE#         188
  C:6C15H         LINE#         190
  C:6C15H         LINE#         191
  C:6C16H         LINE#         193
  C:6C16H         LINE#         194
  C:6C18H         LINE#         196
  C:6C18H         LINE#         197
  C:6C18H         LINE#         199
BL51 BANKED LINKER/LOCATER V6.22.2.0                                                  08/20/2020  14:46:33  PAGE 33


  C:6C19H         LINE#         201
  C:6C19H         LINE#         202
  C:6C1BH         LINE#         204
  C:6C1BH         LINE#         206
  C:6C1CH         LINE#         209
  C:6C1CH         LINE#         210
  C:6C1EH         LINE#         212
  C:6C1EH         LINE#         214
  C:6C1FH         LINE#         217
  C:6C1FH         LINE#         218
  C:6C21H         LINE#         220
  C:6C21H         LINE#         222
  C:6C21H         LINE#         224
  -------         ENDPROC       _VALIDAR_CLK
  -------         PROC          _BLOCK_WRITE_CLOCK_ASCII
  X:0011H         SYMBOL        datos_clock
  -------         DO            
  D:0007H         SYMBOL        temp
  -------         ENDDO         
  C:9515H         LINE#         230
  C:9520H         LINE#         232
  C:9520H         LINE#         237
  C:952AH         LINE#         238
  C:952AH         LINE#         239
  C:952AH         LINE#         240
  C:952AH         LINE#         242
  C:9534H         LINE#         243
  C:953EH         LINE#         244
  C:9548H         LINE#         245
  C:9548H         LINE#         246
  C:9548H         LINE#         247
  C:9548H         LINE#         249
  C:9552H         LINE#         250
  C:9552H         LINE#         251
  C:9552H         LINE#         252
  C:9552H         LINE#         254
  C:955CH         LINE#         255
  C:955CH         LINE#         256
  C:955CH         LINE#         257
  C:955CH         LINE#         259
  C:9566H         LINE#         260
  C:9566H         LINE#         261
  C:9566H         LINE#         262
  C:9566H         LINE#         264
  C:9570H         LINE#         265
  C:957AH         LINE#         266
  C:9584H         LINE#         267
  C:958EH         LINE#         269
  C:959EH         LINE#         270
  -------         ENDPROC       _BLOCK_WRITE_CLOCK_ASCII
  -------         PROC          _BCD_HEX
  D:0007H         SYMBOL        l_data
  -------         DO            
  D:0006H         SYMBOL        temp
  D:0005H         SYMBOL        j
  -------         ENDDO         
  C:AEEDH         LINE#         276
BL51 BANKED LINKER/LOCATER V6.22.2.0                                                  08/20/2020  14:46:33  PAGE 34


  C:AEEDH         LINE#         277
  C:AEEDH         LINE#         279
  C:AEEFH         LINE#         280
  C:AEF3H         LINE#         281
  C:AEF6H         LINE#         282
  C:AEF8H         LINE#         283
  C:AEF8H         LINE#         284
  C:AEFCH         LINE#         285
  C:AF03H         LINE#         286
  C:AF03H         LINE#         287
  C:AF07H         LINE#         288
  C:AF0AH         LINE#         289
  C:AF0AH         LINE#         290
  C:AF0AH         LINE#         291
  -------         ENDPROC       _BCD_HEX
  C:A994H         SYMBOL        L?0080
  -------         PROC          L?0079
  -------         ENDPROC       L?0079
  C:A994H         SYMBOL        L?0080
  -------         PROC          _HEX_BCD
  D:0007H         SYMBOL        byte
  -------         DO            
  D:0006H         SYMBOL        nibble_h
  D:0005H         SYMBOL        nibble_l
  D:0004H         SYMBOL        k
  D:0007H         SYMBOL        byte_out
  -------         ENDDO         
  C:A9A3H         LINE#         295
  C:A9A3H         LINE#         296
  C:A9A3H         LINE#         301
  C:A9A5H         LINE#         302
  C:A9A6H         LINE#         304
  C:A9ACH         LINE#         305
  C:A9ACH         LINE#         306
  C:A9ADH         LINE#         307
  C:A9B2H         LINE#         308
  C:A9B2H         LINE#         309
  C:A9B3H         LINE#         310
  C:A9B4H         LINE#         311
  C:A9B4H         LINE#         312
  C:A9B7H         LINE#         313
  C:A9BBH         LINE#         314
  C:A9BEH         LINE#         315
  C:A9C1H         LINE#         316
  C:A9C3H         LINE#         317
  C:A9C3H         LINE#         319
  -------         ENDPROC       _HEX_BCD
  -------         PROC          _HEX_ASCII
  X:005EH         SYMBOL        datos
  X:0061H         SYMBOL        fecha_asii
  -------         DO            
  D:0007H         SYMBOL        dato
  -------         ENDDO         
  C:9242H         LINE#         320
  C:924DH         LINE#         321
  C:924DH         LINE#         325
  C:9250H         LINE#         326
BL51 BANKED LINKER/LOCATER V6.22.2.0                                                  08/20/2020  14:46:33  PAGE 35


  C:9268H         LINE#         327
  C:927DH         LINE#         328
  C:927DH         LINE#         330
  C:9280H         LINE#         331
  C:929BH         LINE#         332
  C:92A3H         LINE#         333
  C:92A3H         LINE#         335
  C:92A6H         LINE#         336
  C:92C1H         LINE#         337
  C:92CCH         LINE#         339
  -------         ENDPROC       _HEX_ASCII
  -------         PROC          _BYTEHEX_DECIMAL
  D:0001H         SYMBOL        buffer
  D:0005H         SYMBOL        valorhex
  -------         DO            
  X:0016H         SYMBOL        numero
  D:0007H         SYMBOL        centena
  D:0006H         SYMBOL        decena
  -------         ENDDO         
  C:A194H         LINE#         347
  C:A194H         LINE#         348
  C:A194H         LINE#         351
  C:A196H         LINE#         352
  C:A197H         LINE#         353
  C:A19CH         LINE#         355
  C:A1A9H         LINE#         356
  C:A1A9H         LINE#         357
  C:A1ADH         LINE#         358
  C:A1AEH         LINE#         359
  C:A1B0H         LINE#         360
  C:A1B6H         LINE#         361
  C:A1BDH         LINE#         362
  C:A1CAH         LINE#         363
  C:A1CAH         LINE#         364
  C:A1CEH         LINE#         365
  C:A1CFH         LINE#         366
  C:A1D1H         LINE#         367
  C:A1D7H         LINE#         368
  C:A1DEH         LINE#         369
  C:A1E7H         LINE#         370
  C:A1EEH         LINE#         371
  -------         ENDPROC       _BYTEHEX_DECIMAL
  -------         PROC          _TWO_BYTEHEX_DECIMAL
  X:0016H         SYMBOL        buffer
  X:0019H         SYMBOL        id_h
  X:001AH         SYMBOL        id_l
  -------         DO            
  X:001BH         SYMBOL        valor
  D:0006H         SYMBOL        numero
  X:001DH         SYMBOL        temp
  X:001EH         SYMBOL        dmil
  X:001FH         SYMBOL        mil
  X:0020H         SYMBOL        centena
  X:0021H         SYMBOL        decena
  -------         ENDDO         
  C:41CFH         LINE#         378
  C:41DDH         LINE#         379
BL51 BANKED LINKER/LOCATER V6.22.2.0                                                  08/20/2020  14:46:33  PAGE 36


  C:41DDH         LINE#         383
  C:41E4H         LINE#         384
  C:41E8H         LINE#         385
  C:41EAH         LINE#         386
  C:41ECH         LINE#         387
  C:41EEH         LINE#         390
  C:41F3H         LINE#         391
  C:41F6H         LINE#         392
  C:41FCH         LINE#         394
  C:4257H         LINE#         395
  C:425FH         LINE#         396
  C:4262H         LINE#         397
  C:42BDH         LINE#         399
  C:42C5H         LINE#         400
  C:42C8H         LINE#         401
  C:42CEH         LINE#         402
  C:4329H         LINE#         403
  C:4331H         LINE#         404
  C:4334H         LINE#         405
  C:438FH         LINE#         406
  C:438FH         LINE#         408
  C:4398H         LINE#         409
  C:4398H         LINE#         410
  C:43A0H         LINE#         411
  C:43A6H         LINE#         412
  C:43A8H         LINE#         413
  C:43BEH         LINE#         414
  C:43C8H         LINE#         415
  C:43D1H         LINE#         416
  C:43D1H         LINE#         417
  C:43D9H         LINE#         418
  C:43DFH         LINE#         419
  C:43E1H         LINE#         420
  C:43F7H         LINE#         421
  C:4401H         LINE#         422
  C:440AH         LINE#         423
  C:440AH         LINE#         424
  C:4412H         LINE#         425
  C:4418H         LINE#         426
  C:441AH         LINE#         427
  C:4430H         LINE#         428
  C:443AH         LINE#         429
  C:4443H         LINE#         430
  C:4443H         LINE#         431
  C:444BH         LINE#         432
  C:4451H         LINE#         433
  C:4453H         LINE#         434
  C:4469H         LINE#         435
  C:4473H         LINE#         436
  C:4486H         LINE#         437
  C:4490H         LINE#         438
  -------         ENDPROC       _TWO_BYTEHEX_DECIMAL
  -------         PROC          _BLOCK_READ_CLOCK_ASCII
  X:0052H         SYMBOL        datos_clock
  -------         DO            
  D:0007H         SYMBOL        dato
  -------         ENDDO         
BL51 BANKED LINKER/LOCATER V6.22.2.0                                                  08/20/2020  14:46:33  PAGE 37


  C:59E0H         LINE#         444
  C:59E3H         LINE#         445
  C:59E3H         LINE#         451
  C:59E6H         LINE#         452
  C:59FEH         LINE#         453
  C:5A08H         LINE#         454
  C:5A1DH         LINE#         455
  C:5A27H         LINE#         458
  C:5A2CH         LINE#         459
  C:5A44H         LINE#         460
  C:5A4EH         LINE#         461
  C:5A63H         LINE#         462
  C:5A6DH         LINE#         465
  C:5A72H         LINE#         466
  C:5A8AH         LINE#         467
  C:5A94H         LINE#         468
  C:5AA9H         LINE#         469
  C:5AB3H         LINE#         473
  C:5AB8H         LINE#         474
  C:5AD0H         LINE#         475
  C:5ADAH         LINE#         476
  C:5AEFH         LINE#         477
  C:5AF9H         LINE#         480
  C:5AFEH         LINE#         481
  C:5B16H         LINE#         482
  C:5B20H         LINE#         483
  C:5B35H         LINE#         484
  C:5B3FH         LINE#         485
  -------         ENDPROC       _BLOCK_READ_CLOCK_ASCII
  -------         PROC          _BLOCK_READ_CLOCK_HEX
  X:00AFH         SYMBOL        datos_clock
  C:8CC9H         LINE#         489
  C:8CCCH         LINE#         490
  C:8CCCH         LINE#         493
  C:8CE1H         LINE#         494
  C:8CEBH         LINE#         496
  C:8D02H         LINE#         497
  C:8D0CH         LINE#         499
  C:8D23H         LINE#         500
  C:8D2DH         LINE#         502
  C:8D44H         LINE#         503
  C:8D4EH         LINE#         505
  C:8D65H         LINE#         506
  -------         ENDPROC       _BLOCK_READ_CLOCK_HEX
  -------         PROC          _BLOCK_READ_CLOCK
  X:001EH         SYMBOL        datos_clock
  C:8073H         LINE#         533
  C:8076H         LINE#         534
  C:8076H         LINE#         536
  C:8088H         LINE#         537
  C:8092H         LINE#         539
  C:80A6H         LINE#         540
  C:80B0H         LINE#         542
  C:80C4H         LINE#         543
  C:80CEH         LINE#         545
  C:80E2H         LINE#         546
  C:80ECH         LINE#         548
BL51 BANKED LINKER/LOCATER V6.22.2.0                                                  08/20/2020  14:46:33  PAGE 38


  C:8100H         LINE#         549
  C:810AH         LINE#         551
  C:811EH         LINE#         552
  C:8128H         LINE#         553
  -------         ENDPROC       _BLOCK_READ_CLOCK
  -------         PROC          COND_INI_CLOCK
  C:B045H         LINE#         556
  C:B045H         LINE#         557
  C:B045H         LINE#         558
  C:B047H         LINE#         559
  C:B049H         LINE#         560
  C:B04BH         LINE#         561
  -------         ENDPROC       COND_INI_CLOCK
  -------         PROC          _CHECK_FECHAOUT
  X:009DH         SYMBOL        buffer
  -------         DO            
  X:00A0H         SYMBOL        fecha_inicio
  X:00A4H         SYMBOL        fecha_fin
  X:00A8H         SYMBOL        datos_clk
  X:00AEH         SYMBOL        temp
  -------         ENDDO         
  C:7FAAH         LINE#         571
  C:7FB5H         LINE#         572
  C:7FB5H         LINE#         578
  C:7FBEH         LINE#         579
  C:7FEDH         LINE#         580
  C:8040H         LINE#         583
  C:8060H         LINE#         584
  C:8060H         LINE#         585
  C:8066H         LINE#         586
  C:8068H         LINE#         588
  C:8068H         LINE#         589
  C:806DH         LINE#         590
  C:806DH         LINE#         594
  C:8072H         LINE#         595
  -------         ENDPROC       _CHECK_FECHAOUT
  -------         ENDMOD        CLOCK

  -------         MODULE        DELAY
  C:0000H         SYMBOL        _ICE_DUMMY_
  C:AAEFH         PUBLIC        _Delay_10ms
  C:AF94H         PUBLIC        _Delay_20us
  C:AF0BH         PUBLIC        _Delay_1ms
  C:B098H         PUBLIC        Delay
  -------         PROC          _DELAY_20US
  D:0006H         SYMBOL        cntd_us
  -------         DO            
  D:0004H         SYMBOL        i
  -------         ENDDO         
  C:AF94H         LINE#         20
  C:AF94H         LINE#         21
  C:AF94H         LINE#         24
  C:AF9EH         LINE#         26
  C:AFA5H         LINE#         27
  -------         ENDPROC       _DELAY_20US
  -------         PROC          _DELAY_1MS
  D:0002H         SYMBOL        cntd_ms
BL51 BANKED LINKER/LOCATER V6.22.2.0                                                  08/20/2020  14:46:33  PAGE 39


  -------         DO            
  D:0082H         SYMBOL        i
  -------         ENDDO         
  C:AF0BH         LINE#         38
  C:AF0FH         LINE#         39
  C:AF0FH         LINE#         41
  C:AF25H         LINE#         42
  -------         ENDPROC       _DELAY_1MS
  -------         PROC          _DELAY_10MS
  X:0009H         SYMBOL        cntd_10ms
  -------         DO            
  X:000BH         SYMBOL        i
  -------         ENDDO         
  C:AAEFH         LINE#         54
  C:AAF7H         LINE#         55
  C:AAF7H         LINE#         57
  C:AB28H         LINE#         58
  -------         ENDPROC       _DELAY_10MS
  -------         PROC          DELAY
  C:B098H         LINE#         60
  C:B098H         LINE#         62
  -------         ENDPROC       DELAY
  -------         ENDMOD        DELAY

  -------         MODULE        EEPROM
  C:0000H         SYMBOL        _ICE_DUMMY_
  D:0090H         PUBLIC        P1
  C:7724H         PUBLIC        _Write_EEprom_Ticket
  C:9F2BH         PUBLIC        _EscribirMemoria
  X:0206H         PUBLIC        l_chr
  C:AE72H         PUBLIC        ackd
  B:0021H.5       PUBLIC        memory_flag
  B:00D0H.7       PUBLIC        CY
  C:B07DH         PUBLIC        p_me
  C:AFAEH         PUBLIC        start
  B:0090H.2       PUBLIC        sda
  C:AE92H         PUBLIC        ack_lect
  B:0090H.3       PUBLIC        scl
  C:A9C8H         PUBLIC        _rd_eeprom
  C:B033H         PUBLIC        stop
  X:0207H         PUBLIC        l_data_eeprom
  C:A3C9H         PUBLIC        _wr_eeprom
  C:A005H         PUBLIC        _LeerMemoria
  C:AB97H         PUBLIC        Incremente_Ticket
  X:0208H         PUBLIC        byte_rd
  C:7EE0H         PUBLIC        Read_EEprom_Ticket
  C:AE4DH         PUBLIC        _e_d_m
  C:7D49H         PUBLIC        _graba_serie
  C:A4F7H         PUBLIC        Lee_No_Ticket
  C:A4AAH         PUBLIC        l_d_m
  -------         PROC          L?0057
  -------         ENDPROC       L?0057
  -------         PROC          ACKD
  -------         DO            
  D:0006H         SYMBOL        i
  -------         ENDDO         
  C:AE72H         LINE#         35
BL51 BANKED LINKER/LOCATER V6.22.2.0                                                  08/20/2020  14:46:33  PAGE 40


  C:AE72H         LINE#         36
  C:AE72H         LINE#         38
  C:AE74H         LINE#         39
  C:AE76H         LINE#         40
  C:AE78H         LINE#         41
  C:AE7BH         LINE#         42
  C:AE7BH         LINE#         43
  C:AE7EH         LINE#         44
  C:AE7EH         LINE#         45
  C:AE80H         LINE#         46
  C:AE82H         LINE#         48
  C:AE83H         LINE#         49
  C:AE83H         LINE#         50
  C:AE8EH         LINE#         52
  C:AE8EH         LINE#         53
  C:AE8EH         LINE#         55
  C:AE8EH         LINE#         56
  -------         ENDPROC       ACKD
  -------         PROC          L?0061
  -------         ENDPROC       L?0061
  -------         PROC          ACK_LECT
  -------         DO            
  D:0006H         SYMBOL        i
  -------         ENDDO         
  C:AE92H         LINE#         59
  C:AE92H         LINE#         60
  C:AE92H         LINE#         62
  C:AE94H         LINE#         63
  C:AE96H         LINE#         64
  C:AE98H         LINE#         65
  C:AE9BH         LINE#         66
  C:AE9BH         LINE#         67
  C:AE9EH         LINE#         68
  C:AE9EH         LINE#         69
  C:AEA0H         LINE#         70
  C:AEA2H         LINE#         71
  C:AEA3H         LINE#         72
  C:AEA3H         LINE#         73
  C:AEAEH         LINE#         74
  -------         ENDPROC       ACK_LECT
  -------         PROC          P_ME
  C:B07DH         LINE#         76
  C:B07DH         LINE#         77
  C:B07DH         LINE#         78
  C:B07FH         LINE#         79
  C:B080H         LINE#         80
  C:B082H         LINE#         81
  -------         ENDPROC       P_ME
  -------         PROC          _E_D_M
  D:0007H         SYMBOL        a_serial_eeprom
  -------         DO            
  D:0006H         SYMBOL        nbits
  -------         ENDDO         
  C:AE4DH         LINE#         83
  C:AE4DH         LINE#         84
  C:AE4DH         LINE#         86
  C:AE59H         LINE#         87
BL51 BANKED LINKER/LOCATER V6.22.2.0                                                  08/20/2020  14:46:33  PAGE 41


  C:AE59H         LINE#         88
  C:AE5DH         LINE#         89
  C:AE60H         LINE#         90
  C:AE60H         LINE#         91
  C:AE62H         LINE#         92
  C:AE64H         LINE#         94
  C:AE64H         LINE#         95
  C:AE66H         LINE#         96
  C:AE66H         LINE#         97
  C:AE68H         LINE#         98
  C:AE6BH         LINE#         99
  C:AE6EH         LINE#         101
  -------         ENDPROC       _E_D_M
  -------         PROC          L?0058
  -------         ENDPROC       L?0058
  -------         PROC          START
  C:AFAEH         LINE#         103
  C:AFAEH         LINE#         104
  C:AFAEH         LINE#         105
  C:AFB0H         LINE#         106
  C:AFB2H         LINE#         107
  C:AFB3H         LINE#         108
  C:AFB5H         LINE#         109
  C:AFB7H         LINE#         111
  -------         ENDPROC       START
  -------         PROC          STOP
  C:B033H         LINE#         113
  C:B033H         LINE#         114
  C:B033H         LINE#         115
  C:B035H         LINE#         116
  C:B037H         LINE#         117
  C:B039H         LINE#         118
  C:B03BH         LINE#         120
  -------         ENDPROC       STOP
  -------         PROC          L_D_M
  -------         DO            
  D:0003H         SYMBOL        nbits
  -------         ENDDO         
  C:A4AAH         LINE#         122
  C:A4AAH         LINE#         123
  C:A4AAH         LINE#         125
  C:A4B7H         LINE#         126
  C:A4B7H         LINE#         127
  C:A4B9H         LINE#         128
  C:A4BCH         LINE#         129
  C:A4BCH         LINE#         130
  C:A4C3H         LINE#         131
  C:A4CCH         LINE#         132
  C:A4CCH         LINE#         133
  C:A4D0H         LINE#         134
  C:A4D2H         LINE#         135
  C:A4D2H         LINE#         136
  C:A4D2H         LINE#         137
  C:A4D5H         LINE#         138
  C:A4D5H         LINE#         139
  C:A4DCH         LINE#         140
  C:A4E6H         LINE#         141
BL51 BANKED LINKER/LOCATER V6.22.2.0                                                  08/20/2020  14:46:33  PAGE 42


  C:A4E6H         LINE#         142
  C:A4EAH         LINE#         143
  C:A4ECH         LINE#         144
  C:A4ECH         LINE#         145
  C:A4ECH         LINE#         146
  C:A4EFH         LINE#         147
  C:A4F1H         LINE#         148
  C:A4F6H         LINE#         149
  -------         ENDPROC       L_D_M
  -------         PROC          L?0056
  -------         ENDPROC       L?0056
  -------         PROC          _WR_EEPROM
  D:0002H         SYMBOL        control
  D:0004H         SYMBOL        Dir
  D:0003H         SYMBOL        data_eeprom
  -------         DO            
  D:0005H         SYMBOL        dir_h
  D:0001H         SYMBOL        dir_l
  -------         ENDDO         
  C:A3C9H         LINE#         155
  C:A3CBH         LINE#         156
  C:A3CBH         LINE#         158
  C:A3CFH         LINE#         159
  C:A3CFH         LINE#         160
  C:A3CFH         LINE#         163
  C:A3CFH         LINE#         164
  C:A3CFH         LINE#         166
  C:A3D2H         LINE#         167
  C:A3D4H         LINE#         168
  C:A3D7H         LINE#         169
  C:A3D9H         LINE#         170
  C:A3DCH         LINE#         171
  C:A3E1H         LINE#         172
  C:A3E4H         LINE#         173
  C:A3E9H         LINE#         174
  C:A3ECH         LINE#         175
  C:A3EFH         LINE#         176
  C:A3F6H         LINE#         178
  C:A3F8H         LINE#         179
  C:A3FAH         LINE#         180
  C:A401H         LINE#         181
  -------         ENDPROC       _WR_EEPROM
  C:A9C4H         SYMBOL        L?0060
  -------         PROC          L?0059
  -------         ENDPROC       L?0059
  C:A9C4H         SYMBOL        L?0060
  -------         PROC          _RD_EEPROM
  D:0003H         SYMBOL        control
  D:0004H         SYMBOL        Dir
  -------         DO            
  D:0005H         SYMBOL        dir_h
  D:0002H         SYMBOL        dir_l
  -------         ENDDO         
  C:A9C8H         LINE#         219
  C:A9CAH         LINE#         220
  C:A9CAH         LINE#         223
  C:A9CEH         LINE#         224
BL51 BANKED LINKER/LOCATER V6.22.2.0                                                  08/20/2020  14:46:33  PAGE 43


  C:A9CEH         LINE#         225
  C:A9CEH         LINE#         227
  C:A9CEH         LINE#         228
  C:A9CEH         LINE#         230
  C:A9D1H         LINE#         231
  C:A9D3H         LINE#         232
  C:A9D6H         LINE#         233
  C:A9D8H         LINE#         234
  C:A9DBH         LINE#         235
  C:A9E0H         LINE#         236
  C:A9E3H         LINE#         237
  C:A9E6H         LINE#         238
  C:A9ECH         LINE#         239
  C:A9EFH         LINE#         240
  C:A9F1H         LINE#         241
  C:A9F4H         LINE#         242
  C:A9F7H         LINE#         243
  C:A9F9H         LINE#         244
  C:A9FBH         LINE#         245
  C:AA00H         LINE#         246
  -------         ENDPROC       _RD_EEPROM
  -------         PROC          _GRABA_SERIE
  X:0011H         SYMBOL        buffer
  -------         DO            
  X:0014H         SYMBOL        j
  X:0015H         SYMBOL        error
  -------         ENDDO         
  C:7D49H         LINE#         253
  C:7D54H         LINE#         254
  C:7D54H         LINE#         257
  C:7D59H         LINE#         262
  C:7D6BH         LINE#         264
  C:7D7EH         LINE#         265
  C:7D7EH         LINE#         266
  C:7DA7H         LINE#         267
  C:7DA7H         LINE#         268
  C:7DADH         LINE#         270
  C:7DB6H         LINE#         271
  C:7DC4H         LINE#         272
  C:7DCDH         LINE#         273
  C:7DCDH         LINE#         275
  C:7DD5H         LINE#         279
  C:7DDBH         LINE#         280
  C:7DDBH         LINE#         281
  C:7DE9H         LINE#         283
  C:7DE9H         LINE#         285
  C:7DE9H         LINE#         286
  C:7DF3H         LINE#         287
  C:7DFEH         LINE#         288
  C:7E09H         LINE#         289
  C:7E14H         LINE#         291
  C:7E14H         LINE#         292
  -------         ENDPROC       _GRABA_SERIE
  -------         PROC          _WRITE_EEPROM_TICKET
  X:0016H         SYMBOL        buffer
  -------         DO            
  X:0019H         SYMBOL        cod_3
BL51 BANKED LINKER/LOCATER V6.22.2.0                                                  08/20/2020  14:46:33  PAGE 44


  X:001AH         SYMBOL        cod_2
  X:001BH         SYMBOL        cod_1
  X:001CH         SYMBOL        cod_0
  X:001DH         SYMBOL        Noticket
  D:0004H         SYMBOL        Bnoticket
  -------         ENDDO         
  C:7724H         LINE#         293
  C:772FH         LINE#         294
  C:772FH         LINE#         296
  C:7737H         LINE#         297
  C:7740H         LINE#         298
  C:774EH         LINE#         299
  C:7757H         LINE#         300
  C:776BH         LINE#         302
  C:7774H         LINE#         303
  C:7787H         LINE#         304
  C:778CH         LINE#         305
  C:778FH         LINE#         307
  C:77A2H         LINE#         308
  C:77A7H         LINE#         309
  C:77AAH         LINE#         311
  C:77BDH         LINE#         312
  C:77C2H         LINE#         313
  C:77C5H         LINE#         315
  C:77D1H         LINE#         316
  C:77D4H         LINE#         317
  C:77DDH         LINE#         319
  C:77EBH         LINE#         320
  C:77F9H         LINE#         321
  C:7807H         LINE#         322
  -------         ENDPROC       _WRITE_EEPROM_TICKET
  -------         PROC          LEE_NO_TICKET
  -------         DO            
  D:0004H         SYMBOL        Noticket
  X:001CH         SYMBOL        Lee_No_Ticket
  D:0007H         SYMBOL        num_chr
  -------         ENDDO         
  C:A4F7H         LINE#         327
  C:A4F7H         LINE#         328
  C:A4F7H         LINE#         332
  C:A4FAH         LINE#         333
  C:A515H         LINE#         334
  C:A51EH         LINE#         335
  C:A52AH         LINE#         336
  C:A533H         LINE#         337
  C:A53CH         LINE#         338
  C:A542H         LINE#         339
  -------         ENDPROC       LEE_NO_TICKET
  -------         PROC          READ_EEPROM_TICKET
  -------         DO            
  D:0001H         SYMBOL        cod3
  X:0027H         SYMBOL        cod2
  X:0028H         SYMBOL        cod1
  X:0029H         SYMBOL        cod0
  X:002AH         SYMBOL        Noticket
  -------         ENDDO         
  C:7EE0H         LINE#         343
BL51 BANKED LINKER/LOCATER V6.22.2.0                                                  08/20/2020  14:46:33  PAGE 45


  C:7EE0H         LINE#         344
  C:7EE0H         LINE#         346
  C:7EEAH         LINE#         347
  C:7EF1H         LINE#         348
  C:7EFBH         LINE#         349
  C:7F09H         LINE#         350
  C:7F13H         LINE#         352
  C:7F33H         LINE#         353
  C:7F58H         LINE#         354
  C:7F7DH         LINE#         355
  C:7F9BH         LINE#         356
  C:7FA9H         LINE#         357
  -------         ENDPROC       READ_EEPROM_TICKET
  -------         PROC          INCREMENTE_TICKET
  -------         DO            
  D:0004H         SYMBOL        Noticket
  X:0006H         SYMBOL        Lee_No_Ticket
  -------         ENDDO         
  C:AB97H         LINE#         361
  C:AB97H         LINE#         362
  C:AB97H         LINE#         366
  C:AB9AH         LINE#         367
  C:ABA7H         LINE#         368
  C:ABC2H         LINE#         369
  -------         ENDPROC       INCREMENTE_TICKET
  -------         PROC          _LEERMEMORIA
  X:009DH         SYMBOL        addres
  X:009FH         SYMBOL        res
  -------         DO            
  D:0007H         SYMBOL        i
  -------         ENDDO         
  C:A005H         LINE#         375
  C:A016H         LINE#         376
  C:A016H         LINE#         378
  C:A016H         LINE#         379
  C:A032H         LINE#         380
  C:A041H         LINE#         381
  C:A04FH         LINE#         382
  C:A059H         LINE#         383
  C:A05CH         LINE#         384
  -------         ENDPROC       _LEERMEMORIA
  -------         PROC          _ESCRIBIRMEMORIA
  X:005EH         SYMBOL        addres
  X:0060H         SYMBOL        res
  C:9F2BH         LINE#         386
  C:9F3CH         LINE#         387
  C:9F3CH         LINE#         390
  C:9F4CH         LINE#         391
  C:9F53H         LINE#         392
  C:9F56H         LINE#         394
  C:9F64H         LINE#         395
  C:9F6EH         LINE#         396
  C:9F70H         LINE#         397
  C:9F73H         LINE#         398
  C:9F81H         LINE#         399
  C:9F8BH         LINE#         400
  -------         ENDPROC       _ESCRIBIRMEMORIA
BL51 BANKED LINKER/LOCATER V6.22.2.0                                                  08/20/2020  14:46:33  PAGE 46


  -------         ENDMOD        EEPROM

  -------         MODULE        IO_SENSORES
  C:0000H         SYMBOL        _ICE_DUMMY_
  D:0090H         PUBLIC        P1
  D:00B0H         PUBLIC        P3
  C:A7C3H         PUBLIC        Dir_board
  C:B05AH         PUBLIC        sel_Pulsa
  B:0090H.1       PUBLIC        DataIn
  C:B053H         PUBLIC        sel_Auto
  C:AB29H         PUBLIC        ValidaSensoresPaso
  B:00B0H.3       PUBLIC        busy
  C:AEAFH         PUBLIC        ValidaSensor
  C:B068H         PUBLIC        sel_Sensor1
  C:B061H         PUBLIC        sel_Sensor2
  C:A302H         PUBLIC        Valida_Sensor1_Auto
  B:00B0H.5       PUBLIC        sel_A
  B:00B0H.6       PUBLIC        sel_B
  B:00B0H.7       PUBLIC        sel_C
  C:9A65H         PUBLIC        msj_lcd_informativo
  C:B06FH         PUBLIC        sel_Dir1
  C:B076H         PUBLIC        sel_Dir2
  C:B04CH         PUBLIC        sel_Funcion
  -------         PROC          SEL_FUNCION
  C:B04CH         LINE#         31
  C:B04CH         LINE#         32
  C:B04CH         LINE#         33
  C:B04EH         LINE#         34
  C:B050H         LINE#         35
  C:B052H         LINE#         36
  -------         ENDPROC       SEL_FUNCION
  -------         PROC          SEL_AUTO
  C:B053H         LINE#         38
  C:B053H         LINE#         39
  C:B053H         LINE#         40
  C:B055H         LINE#         41
  C:B057H         LINE#         42
  C:B059H         LINE#         43
  -------         ENDPROC       SEL_AUTO
  -------         PROC          SEL_PULSA
  C:B05AH         LINE#         45
  C:B05AH         LINE#         46
  C:B05AH         LINE#         47
  C:B05CH         LINE#         48
  C:B05EH         LINE#         49
  C:B060H         LINE#         50
  -------         ENDPROC       SEL_PULSA
  -------         PROC          SEL_SENSOR2
  C:B061H         LINE#         53
  C:B061H         LINE#         54
  C:B061H         LINE#         55
  C:B063H         LINE#         56
  C:B065H         LINE#         57
  C:B067H         LINE#         58
  -------         ENDPROC       SEL_SENSOR2
  -------         PROC          SEL_SENSOR1
  C:B068H         LINE#         60
BL51 BANKED LINKER/LOCATER V6.22.2.0                                                  08/20/2020  14:46:33  PAGE 47


  C:B068H         LINE#         61
  C:B068H         LINE#         62
  C:B06AH         LINE#         63
  C:B06CH         LINE#         64
  C:B06EH         LINE#         65
  -------         ENDPROC       SEL_SENSOR1
  -------         PROC          SEL_DIR1
  C:B06FH         LINE#         67
  C:B06FH         LINE#         68
  C:B06FH         LINE#         69
  C:B071H         LINE#         70
  C:B073H         LINE#         71
  C:B075H         LINE#         72
  -------         ENDPROC       SEL_DIR1
  -------         PROC          SEL_DIR2
  C:B076H         LINE#         74
  C:B076H         LINE#         75
  C:B076H         LINE#         76
  C:B078H         LINE#         77
  C:B07AH         LINE#         78
  C:B07CH         LINE#         79
  -------         ENDPROC       SEL_DIR2
  -------         PROC          VALIDASENSOR
  -------         DO            
  D:0007H         SYMBOL        Valido
  D:0004H         SYMBOL        Tmin
  -------         ENDDO         
  C:AEAFH         LINE#         81
  C:AEAFH         LINE#         82
  C:AEAFH         LINE#         84
  C:AEB1H         LINE#         85
  C:AEB5H         LINE#         86
  C:AEC0H         LINE#         87
  C:AEC0H         LINE#         88
  C:AEC5H         LINE#         89
  C:AEC9H         LINE#         90
  C:AEC9H         LINE#         91
  C:AECBH         LINE#         92
  C:AECBH         LINE#         93
  C:AECDH         LINE#         94
  C:AECDH         LINE#         95
  -------         ENDPROC       VALIDASENSOR
  -------         PROC          DIR_BOARD
  -------         DO            
  X:0033H         SYMBOL        Board
  D:0007H         SYMBOL        Board_High
  -------         ENDDO         
  C:A7C3H         LINE#         99
  C:A7C3H         LINE#         100
  C:A7C3H         LINE#         101
  C:A7C9H         LINE#         103
  C:A7CCH         LINE#         104
  C:A7CFH         LINE#         105
  C:A7CFH         LINE#         106
  C:A7D2H         LINE#         107
  C:A7D2H         LINE#         108
  C:A7D5H         LINE#         109
BL51 BANKED LINKER/LOCATER V6.22.2.0                                                  08/20/2020  14:46:33  PAGE 48


  C:A7D8H         LINE#         110
  C:A7D8H         LINE#         111
  C:A7DFH         LINE#         112
  C:A7DFH         LINE#         113
  C:A7E7H         LINE#         114
  C:A7E7H         LINE#         115
  C:A7EFH         LINE#         117
  C:A7F2H         LINE#         118
  C:A7F2H         LINE#         119
  C:A7F8H         LINE#         120
  C:A7F8H         LINE#         121
  C:A7FAH         LINE#         122
  C:A7FCH         LINE#         123
  C:A7FEH         LINE#         124
  C:A7FEH         LINE#         126
  C:A7FEH         LINE#         127
  C:A805H         LINE#         128
  -------         ENDPROC       DIR_BOARD
  -------         PROC          VALIDA_SENSOR1_AUTO
  -------         DO            
  X:0012H         SYMBOL        sensor
  -------         ENDDO         
  C:A302H         LINE#         132
  C:A302H         LINE#         133
  C:A302H         LINE#         135
  C:A305H         LINE#         136
  C:A308H         LINE#         137
  C:A30BH         LINE#         138
  C:A310H         LINE#         139
  C:A310H         LINE#         140
  C:A317H         LINE#         141
  C:A31BH         LINE#         142
  C:A31BH         LINE#         144
  C:A31DH         LINE#         146
  C:A31DH         LINE#         147
  C:A324H         LINE#         148
  C:A329H         LINE#         149
  C:A329H         LINE#         150
  C:A329H         LINE#         153
  C:A32BH         LINE#         155
  C:A32EH         LINE#         156
  C:A333H         LINE#         157
  C:A333H         LINE#         159
  C:A33AH         LINE#         160
  C:A340H         LINE#         161
  C:A346H         LINE#         162
  C:A348H         LINE#         164
  C:A348H         LINE#         165
  C:A34FH         LINE#         166
  C:A354H         LINE#         167
  C:A354H         LINE#         170
  C:A354H         LINE#         171
  C:A359H         LINE#         172
  -------         ENDPROC       VALIDA_SENSOR1_AUTO
  -------         PROC          VALIDASENSORESPASO
  -------         DO            
  X:0011H         SYMBOL        sensor
BL51 BANKED LINKER/LOCATER V6.22.2.0                                                  08/20/2020  14:46:33  PAGE 49


  -------         ENDDO         
  C:AB29H         LINE#         177
  C:AB29H         LINE#         178
  C:AB29H         LINE#         180
  C:AB2CH         LINE#         181
  C:AB2FH         LINE#         182
  C:AB2FH         LINE#         183
  C:AB3DH         LINE#         184
  C:AB3DH         LINE#         185
  C:AB45H         LINE#         187
  C:AB47H         LINE#         189
  C:AB47H         LINE#         190
  C:AB4DH         LINE#         191
  C:AB4FH         LINE#         192
  C:AB4FH         LINE#         193
  C:AB4FH         LINE#         194
  C:AB4FH         LINE#         195
  C:AB58H         LINE#         196
  C:AB5BH         LINE#         197
  C:AB5BH         LINE#         198
  C:AB60H         LINE#         199
  -------         ENDPROC       VALIDASENSORESPASO
  -------         PROC          MSJ_LCD_INFORMATIVO
  -------         DO            
  X:0002H         SYMBOL        info
  X:0211H         SYMBOL        toggle
  -------         ENDDO         
  C:9A65H         LINE#         209
  C:9A65H         LINE#         210
  C:9A65H         LINE#         211
  C:9A6AH         LINE#         213
  C:9A6DH         LINE#         214
  C:9A70H         LINE#         215
  C:9A70H         LINE#         216
  C:9A7CH         LINE#         217
  C:9A7CH         LINE#         218
  C:9A7FH         LINE#         219
  C:9A7FH         LINE#         220
  C:9A81H         LINE#         221
  C:9A84H         LINE#         222
  C:9A8AH         LINE#         223
  C:9A8AH         LINE#         224
  C:9A8CH         LINE#         225
  C:9A9AH         LINE#         226
  C:9A9AH         LINE#         227
  C:9A9DH         LINE#         228
  C:9A9DH         LINE#         229
  C:9A9FH         LINE#         230
  C:9AA2H         LINE#         231
  C:9AA8H         LINE#         232
  C:9AA8H         LINE#         233
  C:9AAAH         LINE#         234
  C:9AB8H         LINE#         235
  C:9AB8H         LINE#         236
  C:9ABBH         LINE#         237
  C:9ABBH         LINE#         238
  C:9ABDH         LINE#         239
BL51 BANKED LINKER/LOCATER V6.22.2.0                                                  08/20/2020  14:46:33  PAGE 50


  C:9ACBH         LINE#         240
  C:9ACBH         LINE#         241
  C:9ACDH         LINE#         242
  C:9AD4H         LINE#         244
  C:9AD9H         LINE#         245
  C:9AD9H         LINE#         247
  C:9AD9H         LINE#         249
  C:9AD9H         LINE#         251
  C:9ADCH         LINE#         252
  C:9ADFH         LINE#         253
  C:9ADFH         LINE#         254
  C:9AE4H         LINE#         255
  C:9AE4H         LINE#         257
  -------         ENDPROC       MSJ_LCD_INFORMATIVO
  -------         ENDMOD        IO_SENSORES

  -------         MODULE        PANTALLAS
  C:0000H         SYMBOL        _ICE_DUMMY_
  D:0080H         PUBLIC        P0
  C:A408H         PUBLIC        Reloj_Pantalla_Lcd
  C:2CA4H         PUBLIC        _PantallaLCD
  C:A787H         PUBLIC        _LCD_txt
  I:0068H         PUBLIC        msjpantalla
  C:AD9AH         PUBLIC        _tx_chrlcd
  C:2C8BH         SYMBOL        _?ix1000
  C:2C91H         SYMBOL        _?ix1001
  C:2C97H         SYMBOL        _?ix1002
  C:A6F3H         PUBLIC        _LCD_txt_num_char
  C:4982H         PUBLIC        _PantallaLCD_LINEA_2
  B:0098H.4       PUBLIC        REN
  B:0080H.7       PUBLIC        sel_com
  C:A25AH         PUBLIC        Raspberry_data1
  -------         PROC          _PANTALLALCD
  X:002BH         SYMBOL        cod_msg
  -------         DO            
  X:002CH         SYMBOL        Ini_LCD_Line_one
  X:0032H         SYMBOL        num_chr
  -------         ENDDO         
  C:2CA4H         LINE#         86
  C:2CA9H         LINE#         87
  C:2CA9H         LINE#         89
  C:2CBCH         LINE#         96
  C:2CBEH         LINE#         98
  C:2CC7H         LINE#         99
  C:2CC7H         LINE#         100
  C:2CD1H         LINE#         102
  C:2D2DH         LINE#         103
  C:2D2DH         LINE#         105
  C:2D2DH         LINE#         106
  C:2D3BH         LINE#         107
  C:2D41H         LINE#         108
  C:2D44H         LINE#         109
  C:2D4AH         LINE#         110
  C:2D4DH         LINE#         112
  C:2D4DH         LINE#         114
  C:2D5BH         LINE#         115
  C:2D61H         LINE#         116
BL51 BANKED LINKER/LOCATER V6.22.2.0                                                  08/20/2020  14:46:33  PAGE 51


  C:2D64H         LINE#         117
  C:2D6AH         LINE#         118
  C:2D6DH         LINE#         120
  C:2D6DH         LINE#         122
  C:2D7BH         LINE#         123
  C:2D81H         LINE#         124
  C:2D84H         LINE#         125
  C:2D8AH         LINE#         126
  C:2D8DH         LINE#         127
  C:2D8DH         LINE#         128
  C:2D9BH         LINE#         129
  C:2DA1H         LINE#         130
  C:2DA4H         LINE#         131
  C:2DAAH         LINE#         132
  C:2DADH         LINE#         133
  C:2DADH         LINE#         134
  C:2DBBH         LINE#         135
  C:2DC1H         LINE#         136
  C:2DC4H         LINE#         137
  C:2DCAH         LINE#         138
  C:2DCDH         LINE#         139
  C:2DCDH         LINE#         140
  C:2DDBH         LINE#         141
  C:2DE1H         LINE#         142
  C:2DE4H         LINE#         143
  C:2DEAH         LINE#         144
  C:2DEDH         LINE#         145
  C:2DEDH         LINE#         147
  C:2DFBH         LINE#         148
  C:2E01H         LINE#         149
  C:2E04H         LINE#         150
  C:2E0AH         LINE#         151
  C:2E0DH         LINE#         152
  C:2E0DH         LINE#         158
  C:2E0DH         LINE#         159
  C:2E1BH         LINE#         160
  C:2E21H         LINE#         161
  C:2E24H         LINE#         162
  C:2E2AH         LINE#         163
  C:2E2DH         LINE#         164
  C:2E2DH         LINE#         165
  C:2E3BH         LINE#         166
  C:2E41H         LINE#         167
  C:2E44H         LINE#         168
  C:2E4AH         LINE#         169
  C:2E4DH         LINE#         171
  C:2E4DH         LINE#         172
  C:2E5BH         LINE#         173
  C:2E61H         LINE#         174
  C:2E64H         LINE#         175
  C:2E6AH         LINE#         176
  C:2E6DH         LINE#         178
  C:2E6DH         LINE#         179
  C:2E7BH         LINE#         180
  C:2E81H         LINE#         181
  C:2E84H         LINE#         182
  C:2E8AH         LINE#         183
BL51 BANKED LINKER/LOCATER V6.22.2.0                                                  08/20/2020  14:46:33  PAGE 52


  C:2E8DH         LINE#         188
  C:2E8DH         LINE#         190
  C:2E9BH         LINE#         191
  C:2EA1H         LINE#         192
  C:2EA4H         LINE#         193
  C:2EAAH         LINE#         194
  C:2EADH         LINE#         196
  C:2EADH         LINE#         198
  C:2EBBH         LINE#         199
  C:2EC1H         LINE#         200
  C:2EC4H         LINE#         201
  C:2ECAH         LINE#         202
  C:2ECDH         LINE#         204
  C:2ECDH         LINE#         205
  C:2EDBH         LINE#         206
  C:2EE1H         LINE#         207
  C:2EE4H         LINE#         208
  C:2EEAH         LINE#         209
  C:2EEDH         LINE#         211
  C:2EEDH         LINE#         213
  C:2EFBH         LINE#         214
  C:2F01H         LINE#         215
  C:2F04H         LINE#         216
  C:2F0AH         LINE#         217
  C:2F0DH         LINE#         219
  C:2F0DH         LINE#         221
  C:2F1BH         LINE#         222
  C:2F21H         LINE#         223
  C:2F24H         LINE#         224
  C:2F2AH         LINE#         225
  C:2F2DH         LINE#         227
  C:2F2DH         LINE#         228
  C:2F3BH         LINE#         229
  C:2F41H         LINE#         230
  C:2F44H         LINE#         231
  C:2F4AH         LINE#         232
  C:2F4DH         LINE#         234
  C:2F4DH         LINE#         235
  C:2F5BH         LINE#         236
  C:2F61H         LINE#         237
  C:2F64H         LINE#         238
  C:2F6AH         LINE#         239
  C:2F6DH         LINE#         241
  C:2F6DH         LINE#         243
  C:2F7BH         LINE#         244
  C:2F81H         LINE#         245
  C:2F84H         LINE#         246
  C:2F8AH         LINE#         247
  C:2F8DH         LINE#         249
  C:2F8DH         LINE#         250
  C:2F9BH         LINE#         251
  C:2FA1H         LINE#         252
  C:2FA4H         LINE#         253
  C:2FAAH         LINE#         254
  C:2FADH         LINE#         255
  C:2FADH         LINE#         256
  C:2FBBH         LINE#         257
BL51 BANKED LINKER/LOCATER V6.22.2.0                                                  08/20/2020  14:46:33  PAGE 53


  C:2FC1H         LINE#         258
  C:2FC4H         LINE#         259
  C:2FCAH         LINE#         260
  C:2FCDH         LINE#         261
  C:2FCDH         LINE#         262
  C:2FDBH         LINE#         263
  C:2FE1H         LINE#         264
  C:2FE4H         LINE#         265
  C:2FEAH         LINE#         266
  C:2FEDH         LINE#         267
  C:2FEDH         LINE#         268
  C:2FFBH         LINE#         269
  C:2FFEH         LINE#         270
  C:3004H         LINE#         271
  C:3006H         LINE#         275
  C:3006H         LINE#         276
  C:3014H         LINE#         277
  C:301AH         LINE#         278
  C:301DH         LINE#         279
  C:3023H         LINE#         280
  C:3025H         LINE#         281
  C:3025H         LINE#         282
  C:3033H         LINE#         283
  C:3039H         LINE#         284
  C:303CH         LINE#         285
  C:3042H         LINE#         286
  C:3044H         LINE#         287
  C:3044H         LINE#         288
  C:3052H         LINE#         289
  C:3058H         LINE#         290
  C:305BH         LINE#         291
  C:3066H         LINE#         292
  C:3066H         LINE#         301
  C:3066H         LINE#         303
  C:3066H         LINE#         304
  C:3066H         LINE#         305
  C:3068H         LINE#         307
  C:3069H         LINE#         309
  C:3069H         LINE#         310
  C:306BH         LINE#         311
  C:30CDH         LINE#         312
  C:30CDH         LINE#         315
  C:30CDH         LINE#         316
  C:30D9H         LINE#         317
  C:30D9H         LINE#         319
  C:30DCH         LINE#         320
  C:30DCH         LINE#         323
  C:30E8H         LINE#         324
  C:30E8H         LINE#         325
  C:30EBH         LINE#         327
  C:30EBH         LINE#         328
  C:30F7H         LINE#         329
  C:30F7H         LINE#         331
  C:30FAH         LINE#         332
  C:30FAH         LINE#         333
  C:3106H         LINE#         334
  C:3106H         LINE#         336
BL51 BANKED LINKER/LOCATER V6.22.2.0                                                  08/20/2020  14:46:33  PAGE 54


  C:3109H         LINE#         337
  C:3109H         LINE#         338
  C:3115H         LINE#         339
  C:3115H         LINE#         341
  C:3118H         LINE#         342
  C:3118H         LINE#         343
  C:3124H         LINE#         344
  C:3124H         LINE#         346
  C:3127H         LINE#         347
  C:3127H         LINE#         348
  C:3133H         LINE#         349
  C:3133H         LINE#         351
  C:3136H         LINE#         352
  C:3136H         LINE#         353
  C:3142H         LINE#         354
  C:3142H         LINE#         356
  C:3145H         LINE#         358
  C:3145H         LINE#         359
  C:3151H         LINE#         360
  C:3151H         LINE#         362
  C:3154H         LINE#         364
  C:3154H         LINE#         365
  C:3160H         LINE#         366
  C:3160H         LINE#         368
  C:3163H         LINE#         370
  C:3163H         LINE#         371
  C:316FH         LINE#         372
  C:316FH         LINE#         374
  C:3172H         LINE#         376
  C:3172H         LINE#         377
  C:317EH         LINE#         378
  C:317EH         LINE#         380
  C:3181H         LINE#         384
  C:3181H         LINE#         385
  C:318DH         LINE#         386
  C:318DH         LINE#         388
  C:3190H         LINE#         390
  C:3190H         LINE#         391
  C:319CH         LINE#         392
  C:319CH         LINE#         394
  C:319FH         LINE#         396
  C:319FH         LINE#         397
  C:31ABH         LINE#         399
  C:31ABH         LINE#         400
  C:31AEH         LINE#         401
  C:31AEH         LINE#         402
  C:31BAH         LINE#         403
  C:31BAH         LINE#         405
  C:31BDH         LINE#         406
  C:31BDH         LINE#         407
  C:31C9H         LINE#         408
  C:31C9H         LINE#         410
  C:31CCH         LINE#         411
  C:31CCH         LINE#         412
  C:31D8H         LINE#         413
  C:31D8H         LINE#         415
  C:31DBH         LINE#         416
BL51 BANKED LINKER/LOCATER V6.22.2.0                                                  08/20/2020  14:46:33  PAGE 55


  C:31DBH         LINE#         417
  C:31E7H         LINE#         418
  C:31E7H         LINE#         420
  C:31EAH         LINE#         422
  C:31EAH         LINE#         423
  C:31F6H         LINE#         424
  C:31F6H         LINE#         426
  C:31F8H         LINE#         428
  C:31F8H         LINE#         429
  C:3204H         LINE#         430
  C:3204H         LINE#         432
  C:3206H         LINE#         433
  C:3206H         LINE#         434
  C:3212H         LINE#         435
  C:3212H         LINE#         437
  C:3214H         LINE#         438
  C:3214H         LINE#         439
  C:3220H         LINE#         440
  C:3220H         LINE#         442
  C:3222H         LINE#         443
  C:3222H         LINE#         444
  C:322EH         LINE#         445
  C:322EH         LINE#         447
  C:3230H         LINE#         449
  C:3230H         LINE#         450
  C:323CH         LINE#         451
  C:323CH         LINE#         453
  C:323EH         LINE#         454
  C:323EH         LINE#         455
  C:324AH         LINE#         456
  C:324AH         LINE#         458
  C:324CH         LINE#         459
  C:324CH         LINE#         460
  C:3258H         LINE#         461
  C:3258H         LINE#         463
  C:325AH         LINE#         468
  C:325AH         LINE#         469
  C:3266H         LINE#         470
  C:3266H         LINE#         472
  C:3268H         LINE#         473
  C:3268H         LINE#         474
  C:3277H         LINE#         475
  C:327AH         LINE#         477
  C:327AH         LINE#         485
  C:327AH         LINE#         486
  C:327AH         LINE#         487
  C:327AH         LINE#         488
  C:327CH         LINE#         489
  C:327CH         LINE#         493
  -------         ENDPROC       _PANTALLALCD
  -------         PROC          _PANTALLALCD_LINEA_2
  X:0011H         SYMBOL        cod_msg
  X:0012H         SYMBOL        buffer
  -------         DO            
  X:0015H         SYMBOL        Ini_LCD_Line_one
  X:001BH         SYMBOL        num_chr
  -------         ENDDO         
BL51 BANKED LINKER/LOCATER V6.22.2.0                                                  08/20/2020  14:46:33  PAGE 56


  C:4982H         LINE#         494
  C:4990H         LINE#         495
  C:4990H         LINE#         497
  C:49A3H         LINE#         505
  C:49A5H         LINE#         507
  C:49AEH         LINE#         508
  C:49AEH         LINE#         511
  C:49BCH         LINE#         512
  C:49BCH         LINE#         514
  C:49BCH         LINE#         515
  C:49BFH         LINE#         516
  C:49CDH         LINE#         517
  C:49E2H         LINE#         518
  C:49E8H         LINE#         519
  C:49EEH         LINE#         520
  C:49F4H         LINE#         521
  C:49F4H         LINE#         522
  C:49F6H         LINE#         523
  C:49F6H         LINE#         524
  C:49F9H         LINE#         525
  C:4A07H         LINE#         526
  C:4A1CH         LINE#         527
  C:4A22H         LINE#         528
  C:4A28H         LINE#         529
  C:4A33H         LINE#         530
  C:4A43H         LINE#         531
  C:4A43H         LINE#         535
  C:4A43H         LINE#         537
  C:4A43H         LINE#         539
  C:4A43H         LINE#         540
  C:4A45H         LINE#         541
  C:4A46H         LINE#         543
  C:4A46H         LINE#         544
  C:4A48H         LINE#         545
  C:4A62H         LINE#         546
  C:4A62H         LINE#         547
  C:4A62H         LINE#         549
  C:4A71H         LINE#         550
  C:4A71H         LINE#         551
  C:4A71H         LINE#         552
  C:4A71H         LINE#         555
  C:4A74H         LINE#         557
  C:4A74H         LINE#         558
  C:4A83H         LINE#         559
  C:4A96H         LINE#         560
  C:4AB0H         LINE#         561
  C:4AB0H         LINE#         562
  C:4AB0H         LINE#         563
  C:4AB0H         LINE#         565
  C:4AB3H         LINE#         566
  C:4AB3H         LINE#         568
  C:4AB7H         LINE#         569
  C:4ABAH         LINE#         570
  C:4ABDH         LINE#         571
  C:4ABDH         LINE#         573
  C:4AC6H         LINE#         575
  C:4AC6H         LINE#         576
BL51 BANKED LINKER/LOCATER V6.22.2.0                                                  08/20/2020  14:46:33  PAGE 57


  C:4AC8H         LINE#         578
  C:4AC8H         LINE#         580
  C:4ADCH         LINE#         582
  C:4ADFH         LINE#         584
  C:4ADFH         LINE#         585
  C:4AEAH         LINE#         586
  C:4AEAH         LINE#         587
  C:4AF1H         LINE#         589
  C:4B07H         LINE#         591
  C:4B1EH         LINE#         592
  C:4B20H         LINE#         594
  C:4B20H         LINE#         595
  C:4B27H         LINE#         597
  C:4B27H         LINE#         598
  C:4B27H         LINE#         601
  C:4B29H         LINE#         603
  C:4B29H         LINE#         604
  C:4B38H         LINE#         605
  C:4B4BH         LINE#         606
  C:4B65H         LINE#         607
  C:4B83H         LINE#         608
  C:4B9AH         LINE#         609
  C:4B9DH         LINE#         611
  C:4B9DH         LINE#         613
  C:4B9DH         LINE#         615
  C:4B9DH         LINE#         616
  C:4B9DH         LINE#         617
  C:4B9FH         LINE#         618
  C:4B9FH         LINE#         619
  -------         ENDPROC       _PANTALLALCD_LINEA_2
  C:AD91H         SYMBOL        L?0161
  C:AD94H         SYMBOL        L?0162
  C:AD95H         SYMBOL        L?0163
  -------         PROC          L?0160
  -------         ENDPROC       L?0160
  C:AD91H         SYMBOL        L?0161
  C:AD94H         SYMBOL        L?0162
  C:AD95H         SYMBOL        L?0163
  -------         PROC          _TX_CHRLCD
  D:0007H         SYMBOL        data_com
  X:0038H         SYMBOL        enable_char_add
  -------         DO            
  X:0039H         SYMBOL        d
  -------         ENDDO         
  C:AD9AH         LINE#         625
  C:AD9FH         LINE#         626
  C:AD9FH         LINE#         628
  C:ADA7H         LINE#         629
  C:ADB7H         LINE#         631
  -------         ENDPROC       _TX_CHRLCD
  -------         PROC          L?0165
  -------         ENDPROC       L?0165
  -------         PROC          _LCD_TXT
  X:0033H         SYMBOL        msg
  X:0036H         SYMBOL        enable_char_add
  -------         DO            
  X:0037H         SYMBOL        i
BL51 BANKED LINKER/LOCATER V6.22.2.0                                                  08/20/2020  14:46:33  PAGE 58


  -------         ENDDO         
  C:A787H         LINE#         638
  C:A795H         LINE#         639
  C:A795H         LINE#         642
  C:A7B2H         LINE#         643
  C:A7B2H         LINE#         644
  C:A7BAH         LINE#         645
  C:A7C2H         LINE#         646
  -------         ENDPROC       _LCD_TXT
  -------         PROC          _LCD_TXT_NUM_CHAR
  X:001EH         SYMBOL        msg
  X:0021H         SYMBOL        length_char
  X:0022H         SYMBOL        enable_char_add
  -------         DO            
  X:0023H         SYMBOL        i
  -------         ENDDO         
  C:A6F3H         LINE#         653
  C:A701H         LINE#         654
  C:A701H         LINE#         657
  C:A714H         LINE#         658
  C:A714H         LINE#         659
  C:A730H         LINE#         660
  C:A738H         LINE#         661
  -------         ENDPROC       _LCD_TXT_NUM_CHAR
  -------         PROC          L?0164
  -------         ENDPROC       L?0164
  -------         PROC          RASPBERRY_DATA1
  -------         DO            
  X:0033H         SYMBOL        i
  X:0034H         SYMBOL        lenth_cadena
  X:0035H         SYMBOL        d
  -------         ENDDO         
  C:A25AH         LINE#         689
  C:A25AH         LINE#         690
  C:A25AH         LINE#         695
  C:A268H         LINE#         697
  C:A27BH         LINE#         698
  C:A27BH         LINE#         699
  C:A289H         LINE#         701
  C:A291H         LINE#         702
  C:A2A3H         LINE#         703
  C:A2A3H         LINE#         705
  C:A2A8H         LINE#         708
  -------         ENDPROC       RASPBERRY_DATA1
  -------         PROC          RELOJ_PANTALLA_LCD
  -------         DO            
  X:0011H         SYMBOL        Ini_Clock_LCD
  -------         ENDDO         
  C:A408H         LINE#         715
  C:A408H         LINE#         716
  C:A408H         LINE#         718
  C:A41BH         LINE#         719
  C:A421H         LINE#         720
  C:A421H         LINE#         721
  C:A423H         LINE#         722
  C:A42CH         LINE#         726
  C:A42EH         LINE#         727
BL51 BANKED LINKER/LOCATER V6.22.2.0                                                  08/20/2020  14:46:33  PAGE 59


  C:A43EH         LINE#         729
  C:A440H         LINE#         730
  C:A442H         LINE#         732
  C:A443H         LINE#         734
  C:A443H         LINE#         735
  C:A445H         LINE#         736
  C:A44AH         LINE#         737
  C:A453H         LINE#         738
  C:A457H         LINE#         739
  C:A45AH         LINE#         741
  C:A45CH         LINE#         742
  C:A45CH         LINE#         743
  -------         ENDPROC       RELOJ_PANTALLA_LCD
  -------         ENDMOD        PANTALLAS

  -------         MODULE        PROG
  C:0000H         SYMBOL        _ICE_DUMMY_
  C:4FA2H         PUBLIC        Prog_fecha_vencimiento
  C:608FH         PUBLIC        Prog_Sin_Cobro
  C:69F4H         PUBLIC        _Ver_Horario_Desde_Hasta
  C:7040H         PUBLIC        Prog_debug
  C:7334H         PUBLIC        Prog_AntiPassBack
  C:9498H         PUBLIC        _GetOption
  X:01B1H         PUBLIC        validacion
  C:752CH         PUBLIC        Prog_Validar_Tipo_Vehiculo_Mensual
  X:01BCH         PUBLIC        cursor
  C:68DAH         PUBLIC        _Prog_Horarios_on_off
  C:8FE3H         PUBLIC        Show
  C:3B35H         PUBLIC        Ver_Prog
  C:ABCBH         PUBLIC        Addr_Horarios
  C:88B3H         PUBLIC        prog_id_cliente
  C:A80EH         PUBLIC        _ValidarClave
  C:4756H         PUBLIC        menu
  C:713CH         PUBLIC        Prog_Use_Lpr
  C:A0D1H         PUBLIC        _ListaComandos
  C:12F7H         SYMBOL        _?ix1000
  C:1302H         SYMBOL        _?ix1001
  C:1312H         SYMBOL        _?ix1002
  C:1322H         SYMBOL        _?ix1003
  C:1326H         SYMBOL        _?ix1004
  C:5E08H         PUBLIC        Prog_Horarios
  C:132AH         SYMBOL        _?ix1005
  C:7628H         PUBLIC        Prog_Apb_Mensual
  C:82BEH         PUBLIC        Prog_tarjeta_automatica_o_boton
  C:4BA0H         PUBLIC        _hash_id
  C:449FH         PUBLIC        _Prog_Horario_dias
  C:873CH         PUBLIC        Prog_tiempo_gracia
  C:9AEDH         PUBLIC        _IngresaDato
  X:01D0H         PUBLIC        comandos
  C:A5D7H         PUBLIC        First_Clave
  C:AF3EH         PUBLIC        DisplayCursor
  C:7430H         PUBLIC        Prog_Placa
  C:867FH         PUBLIC        prog_cod_park
  C:630BH         PUBLIC        Ver_Horario
  C:6696H         PUBLIC        _Ver_Horario_dias
  C:4DA8H         PUBLIC        _Prog_Horario_Desde_Hasta
  C:7238H         PUBLIC        tipo_pantalla
BL51 BANKED LINKER/LOCATER V6.22.2.0                                                  08/20/2020  14:46:33  PAGE 60


  C:79E3H         PUBLIC        Prog_Address_High_Board
  C:A8D0H         PUBLIC        _GetCMD
  -------         PROC          _HASH_ID
  X:005EH         SYMBOL        clave
  -------         DO            
  X:0061H         SYMBOL        len_clave
  X:0062H         SYMBOL        i
  X:01ADH         SYMBOL        temp
  X:01AFH         SYMBOL        temp1
  X:0063H         SYMBOL        aleatorio
  X:006EH         SYMBOL        suma
  X:007EH         SYMBOL        xxor
  X:008EH         SYMBOL        usuario1
  X:0099H         SYMBOL        vencimiento_password
  -------         ENDDO         
  C:4BA0H         LINE#         121
  C:4BABH         LINE#         122
  C:4BABH         LINE#         125
  C:4BBEH         LINE#         127
  C:4BD1H         LINE#         128
  C:4BE4H         LINE#         132
  C:4BF1H         LINE#         133
  C:4C0DH         LINE#         135
  C:4C0DH         LINE#         136
  C:4C11H         LINE#         137
  C:4C13H         LINE#         139
  C:4C13H         LINE#         140
  C:4C1AH         LINE#         141
  C:4C1AH         LINE#         142
  C:4C2DH         LINE#         143
  C:4C41H         LINE#         144
  C:4C41H         LINE#         145
  C:4C6DH         LINE#         146
  C:4C78H         LINE#         147
  C:4C85H         LINE#         148
  C:4CA3H         LINE#         149
  C:4CAEH         LINE#         150
  C:4CBBH         LINE#         151
  C:4CDFH         LINE#         152
  C:4CE7H         LINE#         153
  C:4CE7H         LINE#         154
  C:4CECH         LINE#         155
  C:4CECH         LINE#         156
  C:4D05H         LINE#         157
  C:4D05H         LINE#         158
  C:4D11H         LINE#         160
  C:4D11H         LINE#         161
  C:4D20H         LINE#         162
  C:4D20H         LINE#         163
  C:4D2CH         LINE#         164
  C:4D2CH         LINE#         165
  C:4D45H         LINE#         166
  C:4D45H         LINE#         167
  C:4D50H         LINE#         168
  C:4D50H         LINE#         169
  C:4D69H         LINE#         170
  C:4D69H         LINE#         171
BL51 BANKED LINKER/LOCATER V6.22.2.0                                                  08/20/2020  14:46:33  PAGE 61


  C:4D74H         LINE#         172
  C:4D74H         LINE#         173
  C:4D89H         LINE#         175
  C:4D92H         LINE#         176
  C:4DA1H         LINE#         178
  C:4DA7H         LINE#         179
  -------         ENDPROC       _HASH_ID
  -------         PROC          _LISTACOMANDOS
  X:0047H         SYMBOL        cmd
  -------         DO            
  X:004AH         SYMBOL        buf
  X:004DH         SYMBOL        i
  -------         ENDDO         
  C:A0D1H         LINE#         186
  C:A0DCH         LINE#         187
  C:A0DCH         LINE#         191
  C:A0EFH         LINE#         192
  C:A0EFH         LINE#         193
  C:A107H         LINE#         194
  C:A122H         LINE#         195
  C:A128H         LINE#         196
  C:A130H         LINE#         198
  C:A132H         LINE#         199
  -------         ENDPROC       _LISTACOMANDOS
  -------         PROC          L?0274
  -------         ENDPROC       L?0274
  -------         PROC          _VALIDARCLAVE
  X:005EH         SYMBOL        buffer
  -------         DO            
  X:0061H         SYMBOL        buf
  -------         ENDDO         
  C:A80EH         LINE#         205
  C:A819H         LINE#         206
  C:A819H         LINE#         209
  C:A828H         LINE#         210
  C:A843H         LINE#         211
  C:A845H         LINE#         214
  C:A847H         LINE#         215
  -------         ENDPROC       _VALIDARCLAVE
  -------         PROC          L?0275
  -------         ENDPROC       L?0275
  -------         PROC          _GETCMD
  X:005EH         SYMBOL        in
  -------         DO            
  X:0061H         SYMBOL        tokens
  -------         ENDDO         
  C:A8D0H         LINE#         222
  C:A8DBH         LINE#         223
  C:A8DBH         LINE#         224
  C:A8EEH         LINE#         225
  -------         ENDPROC       _GETCMD
  -------         PROC          L?0273
  -------         ENDPROC       L?0273
  -------         PROC          _GETOPTION
  X:0047H         SYMBOL        in
  -------         DO            
  X:004AH         SYMBOL        tokensSpace
BL51 BANKED LINKER/LOCATER V6.22.2.0                                                  08/20/2020  14:46:33  PAGE 62


  X:004EH         SYMBOL        tokensQuote
  -------         ENDDO         
  C:9498H         LINE#         231
  C:94A3H         LINE#         232
  C:94A3H         LINE#         233
  C:94B6H         LINE#         234
  C:94C9H         LINE#         237
  C:94DBH         LINE#         238
  C:94E7H         LINE#         241
  C:94EEH         LINE#         242
  C:94FBH         LINE#         244
  C:9514H         LINE#         245
  -------         ENDPROC       _GETOPTION
  -------         PROC          DISPLAYCURSOR
  C:AF3EH         LINE#         250
  C:AF3EH         LINE#         251
  C:AF3EH         LINE#         252
  -------         ENDPROC       DISPLAYCURSOR
  C:9AE9H         SYMBOL        L?0272
  -------         PROC          L?0271
  -------         ENDPROC       L?0271
  C:9AE9H         SYMBOL        L?0272
  -------         PROC          _INGRESADATO
  X:0072H         SYMBOL        buffer
  X:0075H         SYMBOL        modo
  -------         DO            
  D:0006H         SYMBOL        i
  -------         ENDDO         
  C:9AEDH         LINE#         259
  C:9AFBH         LINE#         260
  C:9AFBH         LINE#         265
  C:9AFBH         LINE#         266
  C:9B0DH         LINE#         267
  C:9B13H         LINE#         268
  C:9B13H         LINE#         269
  C:9B2EH         LINE#         270
  C:9B30H         LINE#         272
  C:9B30H         LINE#         273
  C:9B35H         LINE#         274
  C:9B35H         LINE#         275
  C:9B46H         LINE#         276
  C:9B50H         LINE#         277
  C:9B5FH         LINE#         279
  C:9B64H         LINE#         283
  -------         ENDPROC       _INGRESADATO
  -------         PROC          PROG_ID_CLIENTE
  -------         DO            
  X:0047H         SYMBOL        buffer
  X:0051H         SYMBOL        dataee
  -------         ENDDO         
  C:88B3H         LINE#         300
  C:88B3H         LINE#         301
  C:88B3H         LINE#         305
  C:88C5H         LINE#         306
  C:88E2H         LINE#         308
  C:88F9H         LINE#         310
  C:8902H         LINE#         311
BL51 BANKED LINKER/LOCATER V6.22.2.0                                                  08/20/2020  14:46:33  PAGE 63


  C:8909H         LINE#         312
  C:891AH         LINE#         313
  C:8923H         LINE#         315
  C:8935H         LINE#         316
  C:8952H         LINE#         317
  -------         ENDPROC       PROG_ID_CLIENTE
  -------         PROC          PROG_COD_PARK
  -------         DO            
  X:0047H         SYMBOL        buffer
  X:0051H         SYMBOL        dataee
  -------         ENDDO         
  C:867FH         LINE#         322
  C:867FH         LINE#         323
  C:867FH         LINE#         327
  C:8692H         LINE#         328
  C:86AFH         LINE#         330
  C:86C6H         LINE#         332
  C:86CFH         LINE#         333
  C:86DAH         LINE#         334
  C:86EBH         LINE#         335
  C:86F5H         LINE#         337
  C:8708H         LINE#         338
  C:8725H         LINE#         339
  -------         ENDPROC       PROG_COD_PARK
  -------         PROC          PROG_TIEMPO_GRACIA
  -------         DO            
  X:0047H         SYMBOL        buffer
  X:0051H         SYMBOL        dataee
  -------         ENDDO         
  C:873CH         LINE#         344
  C:873CH         LINE#         345
  C:873CH         LINE#         349
  C:874FH         LINE#         350
  C:876CH         LINE#         352
  C:8783H         LINE#         354
  C:878CH         LINE#         355
  C:8797H         LINE#         356
  C:87A8H         LINE#         357
  C:87B2H         LINE#         359
  C:87C5H         LINE#         360
  C:87E2H         LINE#         361
  -------         ENDPROC       PROG_TIEMPO_GRACIA
  -------         PROC          PROG_SIN_COBRO
  -------         DO            
  X:0047H         SYMBOL        buffer
  X:0051H         SYMBOL        dataee
  -------         ENDDO         
  C:608FH         LINE#         367
  C:608FH         LINE#         368
  C:608FH         LINE#         374
  C:60A2H         LINE#         375
  C:60BFH         LINE#         376
  C:60C9H         LINE#         377
  C:60C9H         LINE#         378
  C:60DCH         LINE#         379
  C:60DEH         LINE#         380
  C:60EAH         LINE#         381
BL51 BANKED LINKER/LOCATER V6.22.2.0                                                  08/20/2020  14:46:33  PAGE 64


  C:60EAH         LINE#         382
  C:60FDH         LINE#         383
  C:60FFH         LINE#         385
  C:60FFH         LINE#         386
  C:6116H         LINE#         387
  C:6116H         LINE#         389
  C:611FH         LINE#         390
  C:612AH         LINE#         391
  C:613BH         LINE#         392
  C:6145H         LINE#         394
  C:6158H         LINE#         395
  C:6175H         LINE#         396
  C:617FH         LINE#         397
  C:617FH         LINE#         398
  C:6192H         LINE#         399
  C:6194H         LINE#         400
  C:61A0H         LINE#         401
  C:61A0H         LINE#         402
  C:61B3H         LINE#         403
  C:61B5H         LINE#         405
  C:61B5H         LINE#         406
  C:61CCH         LINE#         407
  C:61CCH         LINE#         409
  -------         ENDPROC       PROG_SIN_COBRO
  -------         PROC          PROG_DEBUG
  -------         DO            
  X:0047H         SYMBOL        buffer
  X:0051H         SYMBOL        dataee
  -------         ENDDO         
  C:7040H         LINE#         415
  C:7040H         LINE#         416
  C:7040H         LINE#         421
  C:7053H         LINE#         422
  C:7070H         LINE#         423
  C:707AH         LINE#         424
  C:707AH         LINE#         425
  C:708DH         LINE#         426
  C:708FH         LINE#         428
  C:708FH         LINE#         429
  C:70A6H         LINE#         430
  C:70A6H         LINE#         432
  C:70AFH         LINE#         433
  C:70BAH         LINE#         434
  C:70CBH         LINE#         435
  C:70D5H         LINE#         437
  C:70E8H         LINE#         438
  C:7105H         LINE#         439
  C:710FH         LINE#         440
  C:710FH         LINE#         441
  C:7122H         LINE#         442
  C:7124H         LINE#         444
  C:7124H         LINE#         445
  C:713BH         LINE#         446
  C:713BH         LINE#         447
  -------         ENDPROC       PROG_DEBUG
  -------         PROC          PROG_USE_LPR
  -------         DO            
BL51 BANKED LINKER/LOCATER V6.22.2.0                                                  08/20/2020  14:46:33  PAGE 65


  X:0047H         SYMBOL        buffer
  X:0051H         SYMBOL        dataee
  -------         ENDDO         
  C:713CH         LINE#         452
  C:713CH         LINE#         453
  C:713CH         LINE#         458
  C:714FH         LINE#         459
  C:716CH         LINE#         460
  C:7176H         LINE#         461
  C:7176H         LINE#         462
  C:7189H         LINE#         463
  C:718BH         LINE#         465
  C:718BH         LINE#         466
  C:71A2H         LINE#         467
  C:71A2H         LINE#         469
  C:71ABH         LINE#         470
  C:71B6H         LINE#         471
  C:71C7H         LINE#         472
  C:71D1H         LINE#         474
  C:71E4H         LINE#         475
  C:7201H         LINE#         476
  C:720BH         LINE#         477
  C:720BH         LINE#         478
  C:721EH         LINE#         479
  C:7220H         LINE#         481
  C:7220H         LINE#         482
  C:7237H         LINE#         483
  C:7237H         LINE#         484
  -------         ENDPROC       PROG_USE_LPR
  -------         PROC          TIPO_PANTALLA
  -------         DO            
  X:0047H         SYMBOL        buffer
  X:0051H         SYMBOL        dataee
  -------         ENDDO         
  C:7238H         LINE#         491
  C:7238H         LINE#         492
  C:7238H         LINE#         497
  C:724BH         LINE#         498
  C:7268H         LINE#         499
  C:7272H         LINE#         500
  C:7272H         LINE#         501
  C:7285H         LINE#         502
  C:7287H         LINE#         504
  C:7287H         LINE#         505
  C:729EH         LINE#         506
  C:729EH         LINE#         508
  C:72A7H         LINE#         509
  C:72B2H         LINE#         510
  C:72C3H         LINE#         511
  C:72CDH         LINE#         513
  C:72E0H         LINE#         514
  C:72FDH         LINE#         515
  C:7307H         LINE#         516
  C:7307H         LINE#         517
  C:731AH         LINE#         518
  C:731CH         LINE#         520
  C:731CH         LINE#         521
BL51 BANKED LINKER/LOCATER V6.22.2.0                                                  08/20/2020  14:46:33  PAGE 66


  C:7333H         LINE#         522
  C:7333H         LINE#         524
  -------         ENDPROC       TIPO_PANTALLA
  -------         PROC          PROG_TARJETA_AUTOMATICA_O_BOTON
  -------         DO            
  X:0047H         SYMBOL        buffer
  X:0051H         SYMBOL        dataee
  -------         ENDDO         
  C:82BEH         LINE#         525
  C:82BEH         LINE#         526
  C:82BEH         LINE#         531
  C:82D1H         LINE#         532
  C:82EEH         LINE#         533
  C:82FAH         LINE#         534
  C:82FAH         LINE#         535
  C:82FEH         LINE#         536
  C:8300H         LINE#         538
  C:8300H         LINE#         539
  C:8307H         LINE#         540
  C:8307H         LINE#         542
  C:8310H         LINE#         543
  C:831BH         LINE#         544
  C:832CH         LINE#         545
  C:8336H         LINE#         547
  C:8349H         LINE#         548
  C:8366H         LINE#         549
  C:8372H         LINE#         550
  C:8372H         LINE#         551
  C:8376H         LINE#         552
  C:8378H         LINE#         554
  C:8378H         LINE#         555
  C:837FH         LINE#         556
  C:837FH         LINE#         557
  -------         ENDPROC       PROG_TARJETA_AUTOMATICA_O_BOTON
  -------         PROC          PROG_ANTIPASSBACK
  -------         DO            
  X:0047H         SYMBOL        buffer
  X:0051H         SYMBOL        dataee
  -------         ENDDO         
  C:7334H         LINE#         558
  C:7334H         LINE#         559
  C:7334H         LINE#         564
  C:7347H         LINE#         565
  C:7364H         LINE#         566
  C:736EH         LINE#         567
  C:736EH         LINE#         568
  C:7381H         LINE#         569
  C:7383H         LINE#         571
  C:7383H         LINE#         572
  C:739AH         LINE#         573
  C:739AH         LINE#         575
  C:73A3H         LINE#         576
  C:73AEH         LINE#         577
  C:73BFH         LINE#         578
  C:73C9H         LINE#         580
  C:73DCH         LINE#         581
  C:73F9H         LINE#         582
BL51 BANKED LINKER/LOCATER V6.22.2.0                                                  08/20/2020  14:46:33  PAGE 67


  C:7403H         LINE#         583
  C:7403H         LINE#         584
  C:7416H         LINE#         585
  C:7418H         LINE#         587
  C:7418H         LINE#         588
  C:742FH         LINE#         589
  C:742FH         LINE#         590
  -------         ENDPROC       PROG_ANTIPASSBACK
  -------         PROC          PROG_PLACA
  -------         DO            
  X:0047H         SYMBOL        buffer
  X:0051H         SYMBOL        dataee
  -------         ENDDO         
  C:7430H         LINE#         591
  C:7430H         LINE#         592
  C:7430H         LINE#         597
  C:7443H         LINE#         598
  C:7460H         LINE#         599
  C:746AH         LINE#         600
  C:746AH         LINE#         601
  C:747DH         LINE#         602
  C:747FH         LINE#         604
  C:747FH         LINE#         605
  C:7496H         LINE#         606
  C:7496H         LINE#         608
  C:749FH         LINE#         609
  C:74AAH         LINE#         610
  C:74BBH         LINE#         611
  C:74C5H         LINE#         613
  C:74D8H         LINE#         614
  C:74F5H         LINE#         615
  C:74FFH         LINE#         616
  C:74FFH         LINE#         617
  C:7512H         LINE#         618
  C:7514H         LINE#         620
  C:7514H         LINE#         621
  C:752BH         LINE#         622
  C:752BH         LINE#         623
  -------         ENDPROC       PROG_PLACA
  -------         PROC          PROG_ADDRESS_HIGH_BOARD
  -------         DO            
  X:0047H         SYMBOL        buffer
  X:0051H         SYMBOL        dataee
  -------         ENDDO         
  C:79E3H         LINE#         624
  C:79E3H         LINE#         625
  C:79E3H         LINE#         630
  C:79F6H         LINE#         631
  C:7A13H         LINE#         632
  C:7A1DH         LINE#         633
  C:7A1DH         LINE#         634
  C:7A21H         LINE#         635
  C:7A23H         LINE#         637
  C:7A23H         LINE#         638
  C:7A3AH         LINE#         639
  C:7A3AH         LINE#         641
  C:7A43H         LINE#         642
BL51 BANKED LINKER/LOCATER V6.22.2.0                                                  08/20/2020  14:46:33  PAGE 68


  C:7A4EH         LINE#         643
  C:7A5FH         LINE#         644
  C:7A69H         LINE#         646
  C:7A7CH         LINE#         647
  C:7A99H         LINE#         648
  C:7AA3H         LINE#         649
  C:7AA3H         LINE#         650
  C:7AA7H         LINE#         651
  C:7AA9H         LINE#         653
  C:7AA9H         LINE#         654
  C:7AC0H         LINE#         655
  C:7AC0H         LINE#         656
  -------         ENDPROC       PROG_ADDRESS_HIGH_BOARD
  -------         PROC          ADDR_HORARIOS
  -------         DO            
  X:0075H         SYMBOL        ee_addr_horario
  -------         ENDDO         
  C:ABCBH         LINE#         658
  C:ABCBH         LINE#         659
  C:ABCBH         LINE#         662
  C:ABD1H         LINE#         663
  C:ABD5H         LINE#         664
  C:ABD9H         LINE#         665
  C:ABDDH         LINE#         666
  C:ABE1H         LINE#         667
  C:ABE5H         LINE#         668
  C:ABE9H         LINE#         669
  C:ABEDH         LINE#         670
  C:ABF1H         LINE#         671
  C:ABF5H         LINE#         672
  C:ABF8H         LINE#         673
  C:ABFEH         LINE#         674
  -------         ENDPROC       ADDR_HORARIOS
  -------         PROC          _PROG_HORARIOS_ON_OFF
  X:0062H         SYMBOL        addr
  -------         DO            
  X:0064H         SYMBOL        buffer
  X:006EH         SYMBOL        dataee
  X:0070H         SYMBOL        habilitado
  -------         ENDDO         
  C:68DAH         LINE#         675
  C:68E4H         LINE#         676
  C:68E4H         LINE#         679
  C:68F3H         LINE#         680
  C:6910H         LINE#         681
  C:691AH         LINE#         682
  C:691AH         LINE#         683
  C:692DH         LINE#         684
  C:692FH         LINE#         686
  C:692FH         LINE#         687
  C:6946H         LINE#         688
  C:6946H         LINE#         689
  C:694FH         LINE#         690
  C:695AH         LINE#         691
  C:696BH         LINE#         692
  C:697AH         LINE#         694
  C:6991H         LINE#         695
BL51 BANKED LINKER/LOCATER V6.22.2.0                                                  08/20/2020  14:46:33  PAGE 69


  C:69AEH         LINE#         696
  C:69BBH         LINE#         697
  C:69BBH         LINE#         698
  C:69BEH         LINE#         699
  C:69D1H         LINE#         700
  C:69D3H         LINE#         702
  C:69D3H         LINE#         703
  C:69D8H         LINE#         704
  C:69EDH         LINE#         705
  C:69EDH         LINE#         706
  C:69F3H         LINE#         707
  -------         ENDPROC       _PROG_HORARIOS_ON_OFF
  -------         PROC          _PROG_HORARIO_DESDE_HASTA
  X:0062H         SYMBOL        addr
  -------         DO            
  X:0064H         SYMBOL        buffer
  D:0007H         SYMBOL        dataee
  -------         ENDDO         
  C:4DA8H         LINE#         708
  C:4DB0H         LINE#         709
  C:4DB0H         LINE#         714
  C:4DB9H         LINE#         715
  C:4DBCH         LINE#         716
  C:4DC5H         LINE#         717
  C:4DDDH         LINE#         718
  C:4DF0H         LINE#         719
  C:4DFEH         LINE#         720
  C:4E16H         LINE#         721
  C:4E29H         LINE#         722
  C:4E37H         LINE#         723
  C:4E4FH         LINE#         724
  C:4E62H         LINE#         725
  C:4E70H         LINE#         726
  C:4E88H         LINE#         727
  C:4E9BH         LINE#         728
  C:4EA9H         LINE#         732
  C:4EB2H         LINE#         733
  C:4EB5H         LINE#         735
  C:4EBEH         LINE#         737
  C:4ED6H         LINE#         738
  C:4EE9H         LINE#         739
  C:4EF7H         LINE#         740
  C:4F0FH         LINE#         741
  C:4F22H         LINE#         742
  C:4F30H         LINE#         743
  C:4F48H         LINE#         744
  C:4F5BH         LINE#         745
  C:4F69H         LINE#         746
  C:4F81H         LINE#         747
  C:4F94H         LINE#         748
  -------         ENDPROC       _PROG_HORARIO_DESDE_HASTA
  -------         PROC          _VER_HORARIO_DESDE_HASTA
  X:0075H         SYMBOL        addr
  -------         DO            
  D:0007H         SYMBOL        dataee
  -------         ENDDO         
  C:69F4H         LINE#         750
BL51 BANKED LINKER/LOCATER V6.22.2.0                                                  08/20/2020  14:46:33  PAGE 70


  C:69FCH         LINE#         751
  C:69FCH         LINE#         753
  C:6A05H         LINE#         754
  C:6A18H         LINE#         755
  C:6A26H         LINE#         756
  C:6A39H         LINE#         757
  C:6A47H         LINE#         758
  C:6A5AH         LINE#         759
  C:6A68H         LINE#         760
  C:6A7BH         LINE#         761
  C:6A89H         LINE#         763
  C:6A9CH         LINE#         764
  C:6AAAH         LINE#         766
  C:6ABDH         LINE#         767
  C:6ACBH         LINE#         769
  C:6ADEH         LINE#         770
  C:6AECH         LINE#         772
  C:6AFFH         LINE#         773
  -------         ENDPROC       _VER_HORARIO_DESDE_HASTA
  -------         PROC          _PROG_HORARIO_DIAS
  X:0062H         SYMBOL        addr
  -------         DO            
  X:0064H         SYMBOL        buffer
  X:006EH         SYMBOL        dataee
  X:006FH         SYMBOL        j
  X:0070H         SYMBOL        temp
  -------         ENDDO         
  C:449FH         LINE#         775
  C:44A7H         LINE#         776
  C:44A7H         LINE#         780
  C:44B0H         LINE#         781
  C:44B9H         LINE#         782
  C:44C2H         LINE#         783
  C:44CDH         LINE#         786
  C:44D6H         LINE#         788
  C:44ECH         LINE#         789
  C:44ECH         LINE#         791
  C:44FFH         LINE#         792
  C:44FFH         LINE#         793
  C:4508H         LINE#         795
  C:451DH         LINE#         796
  C:4535H         LINE#         797
  C:4542H         LINE#         798
  C:4542H         LINE#         800
  C:4558H         LINE#         801
  C:4558H         LINE#         802
  C:4561H         LINE#         803
  C:4576H         LINE#         804
  C:458EH         LINE#         805
  C:459BH         LINE#         806
  C:459BH         LINE#         808
  C:45B1H         LINE#         809
  C:45B1H         LINE#         810
  C:45BAH         LINE#         811
  C:45CFH         LINE#         812
  C:45E7H         LINE#         813
  C:45F4H         LINE#         814
BL51 BANKED LINKER/LOCATER V6.22.2.0                                                  08/20/2020  14:46:33  PAGE 71


  C:45F4H         LINE#         816
  C:460AH         LINE#         817
  C:460AH         LINE#         818
  C:4613H         LINE#         819
  C:4628H         LINE#         820
  C:4640H         LINE#         821
  C:464DH         LINE#         822
  C:464DH         LINE#         824
  C:4663H         LINE#         825
  C:4663H         LINE#         826
  C:466CH         LINE#         827
  C:4681H         LINE#         828
  C:4699H         LINE#         829
  C:46A6H         LINE#         830
  C:46A6H         LINE#         832
  C:46BCH         LINE#         833
  C:46BCH         LINE#         834
  C:46C5H         LINE#         835
  C:46DAH         LINE#         836
  C:46F2H         LINE#         837
  C:46FFH         LINE#         838
  C:46FFH         LINE#         840
  C:4715H         LINE#         841
  C:4715H         LINE#         842
  C:471EH         LINE#         843
  C:472DH         LINE#         844
  C:473FH         LINE#         845
  C:474CH         LINE#         846
  C:474CH         LINE#         847
  C:4755H         LINE#         849
  -------         ENDPROC       _PROG_HORARIO_DIAS
  -------         PROC          _VER_HORARIO_DIAS
  X:0075H         SYMBOL        addr
  -------         DO            
  X:0077H         SYMBOL        dataee
  -------         ENDDO         
  C:6696H         LINE#         850
  C:669EH         LINE#         851
  C:669EH         LINE#         854
  C:66AEH         LINE#         855
  C:66B4H         LINE#         856
  C:66B4H         LINE#         857
  C:66B8H         LINE#         858
  C:66BAH         LINE#         860
  C:66BAH         LINE#         861
  C:66C1H         LINE#         862
  C:66C1H         LINE#         865
  C:66D9H         LINE#         866
  C:66DFH         LINE#         867
  C:66DFH         LINE#         868
  C:66E3H         LINE#         869
  C:66E5H         LINE#         871
  C:66E5H         LINE#         872
  C:66ECH         LINE#         873
  C:66ECH         LINE#         876
  C:6704H         LINE#         877
  C:670AH         LINE#         878
BL51 BANKED LINKER/LOCATER V6.22.2.0                                                  08/20/2020  14:46:33  PAGE 72


  C:670AH         LINE#         879
  C:670EH         LINE#         880
  C:6710H         LINE#         882
  C:6710H         LINE#         883
  C:6717H         LINE#         884
  C:6717H         LINE#         886
  C:672FH         LINE#         887
  C:6735H         LINE#         888
  C:6735H         LINE#         889
  C:6739H         LINE#         890
  C:673BH         LINE#         892
  C:673BH         LINE#         893
  C:6742H         LINE#         894
  C:6742H         LINE#         896
  C:675AH         LINE#         897
  C:6760H         LINE#         898
  C:6760H         LINE#         899
  C:6764H         LINE#         900
  C:6766H         LINE#         902
  C:6766H         LINE#         903
  C:676DH         LINE#         904
  C:676DH         LINE#         907
  C:6785H         LINE#         908
  C:678BH         LINE#         909
  C:678BH         LINE#         910
  C:678FH         LINE#         911
  C:6791H         LINE#         913
  C:6791H         LINE#         914
  C:6798H         LINE#         915
  C:6798H         LINE#         917
  C:67AAH         LINE#         918
  C:67B0H         LINE#         919
  C:67B0H         LINE#         920
  C:67B4H         LINE#         921
  C:67B6H         LINE#         923
  C:67B6H         LINE#         924
  C:67BDH         LINE#         925
  C:67BDH         LINE#         926
  -------         ENDPROC       _VER_HORARIO_DIAS
  -------         PROC          PROG_HORARIOS
  -------         DO            
  X:0047H         SYMBOL        buffer
  X:0051H         SYMBOL        ee_addr_horario
  X:005CH         SYMBOL        addr
  X:005EH         SYMBOL        temp
  X:0060H         SYMBOL        dataee
  X:0061H         SYMBOL        j
  -------         ENDDO         
  C:5E08H         LINE#         927
  C:5E08H         LINE#         928
  C:5E08H         LINE#         937
  C:5E14H         LINE#         941
  C:5E1DH         LINE#         942
  C:5E28H         LINE#         944
  C:5E37H         LINE#         948
  C:5E4DH         LINE#         949
  C:5E53H         LINE#         953
BL51 BANKED LINKER/LOCATER V6.22.2.0                                                  08/20/2020  14:46:33  PAGE 73


  C:5E61H         LINE#         954
  C:5E69H         LINE#         955
  C:5E69H         LINE#         957
  C:5E78H         LINE#         958
  C:5E8CH         LINE#         959
  C:5E8CH         LINE#         960
  C:5EA0H         LINE#         961
  C:5EA8H         LINE#         963
  C:5EB8H         LINE#         966
  C:5EBBH         LINE#         970
  C:5EC6H         LINE#         973
  C:5ECFH         LINE#         974
  C:5EDAH         LINE#         975
  C:5EE9H         LINE#         976
  C:5EFCH         LINE#         978
  C:5F14H         LINE#         979
  C:5F2EH         LINE#         980
  C:5F36H         LINE#         981
  C:5F36H         LINE#         983
  C:5F44H         LINE#         984
  C:5F4CH         LINE#         985
  C:5F4CH         LINE#         986
  C:5F4CH         LINE#         988
  -------         ENDPROC       PROG_HORARIOS
  -------         PROC          PROG_VALIDAR_TIPO_VEHICULO_MENSUAL
  -------         DO            
  X:0047H         SYMBOL        buffer
  X:0051H         SYMBOL        dataee
  -------         ENDDO         
  C:752CH         LINE#         989
  C:752CH         LINE#         990
  C:752CH         LINE#         995
  C:753FH         LINE#         996
  C:755CH         LINE#         997
  C:7566H         LINE#         998
  C:7566H         LINE#         999
  C:7579H         LINE#         1000
  C:757BH         LINE#         1002
  C:757BH         LINE#         1003
  C:7592H         LINE#         1004
  C:7592H         LINE#         1006
  C:759BH         LINE#         1007
  C:75A6H         LINE#         1008
  C:75B7H         LINE#         1009
  C:75C1H         LINE#         1011
  C:75D4H         LINE#         1012
  C:75F1H         LINE#         1013
  C:75FBH         LINE#         1014
  C:75FBH         LINE#         1015
  C:760EH         LINE#         1016
  C:7610H         LINE#         1018
  C:7610H         LINE#         1019
  C:7627H         LINE#         1020
  C:7627H         LINE#         1021
  -------         ENDPROC       PROG_VALIDAR_TIPO_VEHICULO_MENSUAL
  -------         PROC          PROG_APB_MENSUAL
  -------         DO            
BL51 BANKED LINKER/LOCATER V6.22.2.0                                                  08/20/2020  14:46:33  PAGE 74


  X:0047H         SYMBOL        buffer
  X:0051H         SYMBOL        dataee
  -------         ENDDO         
  C:7628H         LINE#         1022
  C:7628H         LINE#         1023
  C:7628H         LINE#         1028
  C:763BH         LINE#         1029
  C:7658H         LINE#         1030
  C:7662H         LINE#         1031
  C:7662H         LINE#         1032
  C:7675H         LINE#         1033
  C:7677H         LINE#         1035
  C:7677H         LINE#         1036
  C:768EH         LINE#         1037
  C:768EH         LINE#         1039
  C:7697H         LINE#         1040
  C:76A2H         LINE#         1041
  C:76B3H         LINE#         1042
  C:76BDH         LINE#         1044
  C:76D0H         LINE#         1045
  C:76EDH         LINE#         1046
  C:76F7H         LINE#         1047
  C:76F7H         LINE#         1048
  C:770AH         LINE#         1049
  C:770CH         LINE#         1051
  C:770CH         LINE#         1052
  C:7723H         LINE#         1053
  C:7723H         LINE#         1054
  -------         ENDPROC       PROG_APB_MENSUAL
  -------         PROC          PROG_FECHA_VENCIMIENTO
  -------         DO            
  X:0047H         SYMBOL        buffer
  X:0052H         SYMBOL        cmd
  X:0055H         SYMBOL        fecha
  X:005CH         SYMBOL        dataee
  -------         ENDDO         
  C:4FA2H         LINE#         1056
  C:4FA2H         LINE#         1057
  C:4FA2H         LINE#         1064
  C:4FAFH         LINE#         1065
  C:4FC6H         LINE#         1068
  C:4FDDH         LINE#         1070
  C:4FDDH         LINE#         1071
  C:4FE6H         LINE#         1072
  C:4FF3H         LINE#         1073
  C:500AH         LINE#         1074
  C:501CH         LINE#         1075
  C:5025H         LINE#         1080
  C:5030H         LINE#         1081
  C:5044H         LINE#         1082
  C:5051H         LINE#         1084
  C:505AH         LINE#         1087
  C:5063H         LINE#         1088
  C:506EH         LINE#         1089
  C:5085H         LINE#         1091
  C:508DH         LINE#         1092
  C:5095H         LINE#         1093
BL51 BANKED LINKER/LOCATER V6.22.2.0                                                  08/20/2020  14:46:33  PAGE 75


  C:5098H         LINE#         1095
  C:50A9H         LINE#         1096
  C:50BAH         LINE#         1098
  C:50C9H         LINE#         1099
  C:50D1H         LINE#         1100
  C:50D9H         LINE#         1101
  C:50DCH         LINE#         1102
  C:50EDH         LINE#         1103
  C:50FEH         LINE#         1104
  C:510DH         LINE#         1105
  C:5115H         LINE#         1106
  C:511DH         LINE#         1107
  C:5120H         LINE#         1108
  C:5131H         LINE#         1109
  C:5142H         LINE#         1110
  C:5151H         LINE#         1111
  C:515CH         LINE#         1113
  C:5169H         LINE#         1115
  C:5180H         LINE#         1116
  -------         ENDPROC       PROG_FECHA_VENCIMIENTO
  -------         PROC          VER_HORARIO
  -------         DO            
  X:005AH         SYMBOL        buffer
  X:0064H         SYMBOL        ee_addr_horario
  X:006FH         SYMBOL        conta
  X:0070H         SYMBOL        addr
  X:0072H         SYMBOL        temp
  X:0074H         SYMBOL        dataee
  -------         ENDDO         
  C:630BH         LINE#         1119
  C:630BH         LINE#         1120
  C:630BH         LINE#         1129
  C:6317H         LINE#         1130
  C:632DH         LINE#         1131
  C:632DH         LINE#         1133
  C:633DH         LINE#         1136
  C:6356H         LINE#         1137
  C:635CH         LINE#         1140
  C:636AH         LINE#         1141
  C:6379H         LINE#         1142
  C:6393H         LINE#         1143
  C:639EH         LINE#         1144
  C:639EH         LINE#         1145
  C:63A7H         LINE#         1147
  C:63B0H         LINE#         1148
  C:63C0H         LINE#         1149
  C:63C3H         LINE#         1151
  C:63CEH         LINE#         1152
  C:63E6H         LINE#         1153
  C:6400H         LINE#         1154
  C:640AH         LINE#         1155
  C:640AH         LINE#         1156
  C:6411H         LINE#         1158
  C:641FH         LINE#         1159
  C:6427H         LINE#         1160
  C:6429H         LINE#         1162
  C:6429H         LINE#         1163
BL51 BANKED LINKER/LOCATER V6.22.2.0                                                  08/20/2020  14:46:33  PAGE 76


  C:642DH         LINE#         1164
  C:642DH         LINE#         1165
  C:642FH         LINE#         1167
  C:642FH         LINE#         1168
  C:6438H         LINE#         1169
  C:6438H         LINE#         1171
  C:6441H         LINE#         1174
  -------         ENDPROC       VER_HORARIO
  -------         PROC          VER_PROG
  -------         DO            
  X:0047H         SYMBOL        buffer
  X:0051H         SYMBOL        dataee
  X:0053H         SYMBOL        fecha
  -------         ENDDO         
  C:3B35H         LINE#         1175
  C:3B35H         LINE#         1176
  C:3B35H         LINE#         1182
  C:3B47H         LINE#         1183
  C:3B64H         LINE#         1185
  C:3B7BH         LINE#         1187
  C:3B8EH         LINE#         1188
  C:3BABH         LINE#         1190
  C:3BC2H         LINE#         1192
  C:3BD5H         LINE#         1193
  C:3BF2H         LINE#         1194
  C:3C00H         LINE#         1195
  C:3C00H         LINE#         1196
  C:3C04H         LINE#         1197
  C:3C06H         LINE#         1199
  C:3C06H         LINE#         1200
  C:3C0DH         LINE#         1201
  C:3C0DH         LINE#         1203
  C:3C20H         LINE#         1204
  C:3C3DH         LINE#         1205
  C:3C49H         LINE#         1206
  C:3C49H         LINE#         1207
  C:3C4DH         LINE#         1208
  C:3C4FH         LINE#         1210
  C:3C4FH         LINE#         1211
  C:3C56H         LINE#         1212
  C:3C56H         LINE#         1214
  C:3C69H         LINE#         1215
  C:3C86H         LINE#         1216
  C:3C92H         LINE#         1217
  C:3C92H         LINE#         1218
  C:3C96H         LINE#         1219
  C:3C98H         LINE#         1221
  C:3C98H         LINE#         1222
  C:3C9FH         LINE#         1223
  C:3C9FH         LINE#         1225
  C:3CB2H         LINE#         1226
  C:3CCFH         LINE#         1227
  C:3CDBH         LINE#         1228
  C:3CDBH         LINE#         1229
  C:3CDFH         LINE#         1230
  C:3CE1H         LINE#         1232
  C:3CE1H         LINE#         1233
BL51 BANKED LINKER/LOCATER V6.22.2.0                                                  08/20/2020  14:46:33  PAGE 77


  C:3CE8H         LINE#         1234
  C:3CE8H         LINE#         1236
  C:3CFBH         LINE#         1237
  C:3D18H         LINE#         1238
  C:3D24H         LINE#         1239
  C:3D24H         LINE#         1240
  C:3D28H         LINE#         1241
  C:3D2AH         LINE#         1243
  C:3D2AH         LINE#         1244
  C:3D31H         LINE#         1245
  C:3D31H         LINE#         1247
  C:3D44H         LINE#         1248
  C:3D61H         LINE#         1249
  C:3D6DH         LINE#         1250
  C:3D6DH         LINE#         1251
  C:3D71H         LINE#         1252
  C:3D73H         LINE#         1254
  C:3D73H         LINE#         1255
  C:3D7AH         LINE#         1256
  C:3D7AH         LINE#         1259
  C:3D8DH         LINE#         1260
  C:3DAAH         LINE#         1262
  C:3DC1H         LINE#         1264
  C:3DC4H         LINE#         1268
  C:3DD7H         LINE#         1269
  C:3DF4H         LINE#         1270
  C:3E00H         LINE#         1271
  C:3E00H         LINE#         1272
  C:3E04H         LINE#         1273
  C:3E06H         LINE#         1275
  C:3E06H         LINE#         1276
  C:3E0DH         LINE#         1277
  C:3E0DH         LINE#         1279
  C:3E20H         LINE#         1280
  C:3E3DH         LINE#         1281
  C:3E49H         LINE#         1282
  C:3E49H         LINE#         1283
  C:3E4DH         LINE#         1284
  C:3E4FH         LINE#         1286
  C:3E4FH         LINE#         1287
  C:3E56H         LINE#         1288
  C:3E56H         LINE#         1290
  C:3E63H         LINE#         1292
  C:3E7AH         LINE#         1293
  -------         ENDPROC       VER_PROG
  -------         PROC          SHOW
  C:8FE3H         LINE#         1299
  C:8FE3H         LINE#         1300
  C:8FE3H         LINE#         1301
  C:8FECH         LINE#         1302
  C:8FF5H         LINE#         1303
  C:8FFEH         LINE#         1304
  C:9007H         LINE#         1305
  C:9010H         LINE#         1306
  C:9019H         LINE#         1307
  C:9022H         LINE#         1308
  C:902BH         LINE#         1309
BL51 BANKED LINKER/LOCATER V6.22.2.0                                                  08/20/2020  14:46:33  PAGE 78


  C:9034H         LINE#         1310
  C:903DH         LINE#         1311
  C:9046H         LINE#         1312
  C:904FH         LINE#         1313
  C:9058H         LINE#         1314
  C:9061H         LINE#         1315
  C:906AH         LINE#         1316
  C:9073H         LINE#         1317
  -------         ENDPROC       SHOW
  -------         PROC          FIRST_CLAVE
  -------         DO            
  X:0047H         SYMBOL        clave
  -------         ENDDO         
  C:A5D7H         LINE#         1324
  C:A5D7H         LINE#         1325
  C:A5D7H         LINE#         1329
  C:A5E0H         LINE#         1330
  C:A5E5H         LINE#         1331
  C:A5F7H         LINE#         1332
  C:A604H         LINE#         1333
  C:A60AH         LINE#         1334
  C:A60DH         LINE#         1335
  C:A610H         LINE#         1336
  C:A612H         LINE#         1338
  -------         ENDPROC       FIRST_CLAVE
  -------         PROC          MENU
  -------         DO            
  X:0002H         SYMBOL        cmd
  X:0005H         SYMBOL        option1
  X:0008H         SYMBOL        option2
  X:000BH         SYMBOL        opt_buffer
  X:0033H         SYMBOL        buffer
  -------         ENDDO         
  C:4756H         LINE#         1342
  C:4756H         LINE#         1343
  C:4756H         LINE#         1352
  C:475FH         LINE#         1357
  C:476BH         LINE#         1358
  C:476BH         LINE#         1359
  C:476EH         LINE#         1360
  C:4778H         LINE#         1363
  C:4778H         LINE#         1365
  C:4778H         LINE#         1366
  C:4781H         LINE#         1367
  C:478EH         LINE#         1368
  C:4793H         LINE#         1369
  C:47A9H         LINE#         1370
  C:47BBH         LINE#         1371
  C:47C4H         LINE#         1376
  C:47CFH         LINE#         1377
  C:47DDH         LINE#         1378
  C:47EAH         LINE#         1380
  C:47F3H         LINE#         1384
  C:47F6H         LINE#         1385
  C:47F6H         LINE#         1386
  C:47F6H         LINE#         1387
  C:47F9H         LINE#         1390
BL51 BANKED LINKER/LOCATER V6.22.2.0                                                  08/20/2020  14:46:33  PAGE 79


  C:4804H         LINE#         1391
  C:4812H         LINE#         1392
  C:4826H         LINE#         1393
  C:483AH         LINE#         1398
  C:4850H         LINE#         1399
  C:4850H         LINE#         1401
  C:485FH         LINE#         1402
  C:4861H         LINE#         1403
  C:4871H         LINE#         1404
  C:4871H         LINE#         1406
  C:4880H         LINE#         1407
  C:489EH         LINE#         1408
  C:489EH         LINE#         1414
  C:48B1H         LINE#         1415
  C:48B1H         LINE#         1416
  C:48FAH         LINE#         1417
  C:48FAH         LINE#         1418
  C:48FAH         LINE#         1419
  C:48FDH         LINE#         1421
  C:4900H         LINE#         1423
  C:4900H         LINE#         1424
  C:4903H         LINE#         1425
  C:4906H         LINE#         1426
  C:4906H         LINE#         1427
  C:4909H         LINE#         1428
  C:490CH         LINE#         1429
  C:490CH         LINE#         1430
  C:490FH         LINE#         1431
  C:4912H         LINE#         1432
  C:4912H         LINE#         1433
  C:4915H         LINE#         1434
  C:4918H         LINE#         1435
  C:4918H         LINE#         1436
  C:491BH         LINE#         1437
  C:491EH         LINE#         1438
  C:491EH         LINE#         1439
  C:4921H         LINE#         1440
  C:4924H         LINE#         1441
  C:4924H         LINE#         1442
  C:4927H         LINE#         1443
  C:492AH         LINE#         1444
  C:492AH         LINE#         1445
  C:492DH         LINE#         1446
  C:4930H         LINE#         1447
  C:4930H         LINE#         1448
  C:4933H         LINE#         1449
  C:4936H         LINE#         1450
  C:4936H         LINE#         1451
  C:4939H         LINE#         1452
  C:493CH         LINE#         1453
  C:493CH         LINE#         1454
  C:493FH         LINE#         1455
  C:4942H         LINE#         1456
  C:4942H         LINE#         1457
  C:4945H         LINE#         1458
  C:4948H         LINE#         1459
  C:4948H         LINE#         1460
BL51 BANKED LINKER/LOCATER V6.22.2.0                                                  08/20/2020  14:46:33  PAGE 80


  C:494BH         LINE#         1461
  C:494EH         LINE#         1462
  C:494EH         LINE#         1463
  C:4951H         LINE#         1464
  C:4954H         LINE#         1465
  C:4954H         LINE#         1466
  C:4957H         LINE#         1467
  C:495AH         LINE#         1468
  C:495AH         LINE#         1470
  C:495AH         LINE#         1471
  C:495AH         LINE#         1472
  C:495DH         LINE#         1473
  C:4960H         LINE#         1476
  C:4960H         LINE#         1477
  C:497EH         LINE#         1478
  C:4981H         LINE#         1479
  C:4981H         LINE#         1480
  C:4981H         LINE#         1481
  C:4981H         LINE#         1482
  -------         ENDPROC       MENU
  -------         ENDMOD        PROG

  -------         MODULE        PTO_PARALELO
  C:0000H         SYMBOL        _ICE_DUMMY_
  D:0080H         PUBLIC        P0
  D:00A0H         PUBLIC        P2
  D:00B0H         PUBLIC        P3
  B:0080H.2       PUBLIC        led_err_imp
  C:67BEH         PUBLIC        load_and_send_id_cod
  C:907CH         PUBLIC        _recibe_port
  B:00B0H.2       PUBLIC        ready
  B:0080H.6       PUBLIC        rx_in_data
  C:AFB8H         PUBLIC        Pulso_Bus
  C:96BFH         PUBLIC        _send_portERR
  B:00B0H.3       PUBLIC        busy
  C:ACC3H         PUBLIC        load_and_send_info_reloj
  C:8969H         PUBLIC        _send_port
  B:00B0H.4       PUBLIC        port_clk
  C:B029H         PUBLIC        cond_ini_pto
  -------         PROC          _RECIBE_PORT
  X:0002H         SYMBOL        buffer_port
  -------         DO            
  D:0006H         SYMBOL        count
  X:0005H         SYMBOL        time_out
  X:0006H         SYMBOL        num_data
  X:0007H         SYMBOL        T_ANCHO
  X:0009H         SYMBOL        data_temp
  -------         ENDDO         
  C:907CH         LINE#         48
  C:9087H         LINE#         49
  C:9087H         LINE#         53
  C:9090H         LINE#         54
  C:9093H         LINE#         57
  C:9096H         LINE#         58
  C:9096H         LINE#         60
  C:9099H         LINE#         61
  C:909EH         LINE#         62
BL51 BANKED LINKER/LOCATER V6.22.2.0                                                  08/20/2020  14:46:33  PAGE 81


  C:90A0H         LINE#         63
  C:90A4H         LINE#         64
  C:90A6H         LINE#         67
  C:90ABH         LINE#         68
  C:90B4H         LINE#         69
  C:90B4H         LINE#         70
  C:90B7H         LINE#         71
  C:90B7H         LINE#         73
  C:90BCH         LINE#         74
  C:90C0H         LINE#         75
  C:90C0H         LINE#         76
  C:90C2H         LINE#         77
  C:90C4H         LINE#         78
  C:90C4H         LINE#         79
  C:90C4H         LINE#         81
  C:90C4H         LINE#         82
  C:90D1H         LINE#         83
  C:90D1H         LINE#         85
  C:90D4H         LINE#         86
  C:90D4H         LINE#         88
  C:90DAH         LINE#         90
  C:90DCH         LINE#         91
  C:90F0H         LINE#         92
  C:90FAH         LINE#         93
  C:9100H         LINE#         94
  C:9106H         LINE#         95
  C:9108H         LINE#         96
  C:9108H         LINE#         97
  C:9108H         LINE#         98
  C:9108H         LINE#         101
  C:910AH         LINE#         102
  C:910CH         LINE#         103
  C:910CH         LINE#         104
  C:910FH         LINE#         106
  C:9114H         LINE#         107
  -------         ENDPROC       _RECIBE_PORT
  -------         PROC          _SEND_PORT
  X:0016H         SYMBOL        buffer_port
  X:0019H         SYMBOL        length_char
  -------         DO            
  X:001AH         SYMBOL        cont
  X:001EH         SYMBOL        timeOut
  X:001FH         SYMBOL        length
  -------         ENDDO         
  C:8969H         LINE#         114
  C:8977H         LINE#         115
  C:8977H         LINE#         120
  C:897BH         LINE#         122
  C:897DH         LINE#         123
  C:897FH         LINE#         124
  C:8981H         LINE#         125
  C:8986H         LINE#         126
  C:8988H         LINE#         127
  C:8992H         LINE#         129
  C:899BH         LINE#         130
  C:899BH         LINE#         131
  C:899DH         LINE#         132
BL51 BANKED LINKER/LOCATER V6.22.2.0                                                  08/20/2020  14:46:33  PAGE 82


  C:899FH         LINE#         133
  C:89C3H         LINE#         134
  C:89D7H         LINE#         135
  C:89D7H         LINE#         136
  C:89DAH         LINE#         137
  C:89DCH         LINE#         138
  C:89DCH         LINE#         139
  C:89DEH         LINE#         140
  C:89E7H         LINE#         141
  C:89E7H         LINE#         145
  C:89E7H         LINE#         147
  C:89F7H         LINE#         148
  C:89FAH         LINE#         149
  C:8A04H         LINE#         151
  C:8A0AH         LINE#         152
  C:8A0DH         LINE#         154
  C:8A0DH         LINE#         156
  C:8A10H         LINE#         157
  C:8A12H         LINE#         158
  C:8A14H         LINE#         159
  C:8A16H         LINE#         160
  -------         ENDPROC       _SEND_PORT
  -------         PROC          PULSO_BUS
  C:AFB8H         LINE#         435
  C:AFB8H         LINE#         436
  C:AFB8H         LINE#         437
  C:AFBAH         LINE#         438
  C:AFC1H         LINE#         439
  C:AFC3H         LINE#         440
  -------         ENDPROC       PULSO_BUS
  -------         PROC          _SEND_PORTERR
  X:002BH         SYMBOL        cod_err
  -------         DO            
  X:002CH         SYMBOL        timeOut
  X:002DH         SYMBOL        cont
  -------         ENDDO         
  C:96BFH         LINE#         445
  C:96C5H         LINE#         446
  C:96C5H         LINE#         450
  C:96C7H         LINE#         451
  C:96C9H         LINE#         452
  C:96CCH         LINE#         453
  C:96D4H         LINE#         455
  C:96D6H         LINE#         456
  C:96D8H         LINE#         457
  C:96E1H         LINE#         458
  C:96E1H         LINE#         459
  C:9703H         LINE#         460
  C:9717H         LINE#         461
  C:9717H         LINE#         462
  C:971CH         LINE#         463
  C:971CH         LINE#         464
  C:971EH         LINE#         465
  C:9727H         LINE#         466
  C:9727H         LINE#         467
  C:972DH         LINE#         468
  C:9730H         LINE#         469
BL51 BANKED LINKER/LOCATER V6.22.2.0                                                  08/20/2020  14:46:33  PAGE 83


  C:9730H         LINE#         470
  C:9732H         LINE#         471
  C:9734H         LINE#         472
  C:9736H         LINE#         474
  C:9739H         LINE#         476
  C:9740H         LINE#         477
  -------         ENDPROC       _SEND_PORTERR
  -------         PROC          COND_INI_PTO
  C:B029H         LINE#         483
  C:B029H         LINE#         484
  C:B029H         LINE#         486
  C:B02BH         LINE#         487
  C:B02DH         LINE#         488
  C:B02FH         LINE#         489
  C:B032H         LINE#         490
  -------         ENDPROC       COND_INI_PTO
  -------         PROC          LOAD_AND_SEND_INFO_RELOJ
  -------         DO            
  X:0003H         SYMBOL        buffer_info
  -------         ENDDO         
  C:ACC3H         LINE#         495
  C:ACC3H         LINE#         496
  C:ACC3H         LINE#         499
  C:ACC9H         LINE#         501
  C:ACCDH         LINE#         503
  C:ACD6H         LINE#         504
  C:ACE0H         LINE#         505
  C:ACE4H         LINE#         509
  -------         ENDPROC       LOAD_AND_SEND_INFO_RELOJ
  -------         PROC          LOAD_AND_SEND_ID_COD
  -------         DO            
  X:0003H         SYMBOL        buffer_info
  X:000EH         SYMBOL        buf
  X:0012H         SYMBOL        i
  X:0013H         SYMBOL        k
  X:0014H         SYMBOL        ID_CLIENTE
  X:0015H         SYMBOL        COD_PARK
  -------         ENDDO         
  C:67BEH         LINE#         516
  C:67BEH         LINE#         517
  C:67BEH         LINE#         523
  C:67C3H         LINE#         524
  C:67CFH         LINE#         525
  C:67DDH         LINE#         526
  C:67E3H         LINE#         527
  C:67E7H         LINE#         528
  C:6806H         LINE#         529
  C:680CH         LINE#         530
  C:680CH         LINE#         531
  C:681DH         LINE#         532
  C:681DH         LINE#         533
  C:682CH         LINE#         534
  C:6832H         LINE#         535
  C:6834H         LINE#         536
  C:684CH         LINE#         538
  C:6854H         LINE#         541
  C:6873H         LINE#         543
BL51 BANKED LINKER/LOCATER V6.22.2.0                                                  08/20/2020  14:46:33  PAGE 84


  C:6878H         LINE#         544
  C:6878H         LINE#         545
  C:6889H         LINE#         546
  C:6889H         LINE#         547
  C:6898H         LINE#         548
  C:689EH         LINE#         549
  C:68B8H         LINE#         550
  C:68C0H         LINE#         553
  C:68D1H         LINE#         554
  -------         ENDPROC       LOAD_AND_SEND_ID_COD
  -------         ENDMOD        PTO_PARALELO

  -------         MODULE        TIBBO
  C:0000H         SYMBOL        _ICE_DUMMY_
  C:A739H         PUBLIC        _Debug_HexDec
  C:A599H         PUBLIC        _Debug_txt_Tibbo
  D:0080H         PUBLIC        P0
  D:0090H         PUBLIC        P1
  B:0090H.0       PUBLIC        txd2
  B:00A8H.7       PUBLIC        EA
  C:A546H         PUBLIC        _tx_aux
  B:0080H.0       PUBLIC        rx_ip
  C:AF77H         PUBLIC        Debug_Dividir_texto
  C:B08DH         PUBLIC        cond_ini_tibbo
  C:AF55H         PUBLIC        time_mbit
  C:9747H         PUBLIC        rx_Data
  C:AED4H         PUBLIC        time_bit
  C:AA79H         PUBLIC        _Debug_pto_paralelo
  C:AC32H         PUBLIC        _Debug_monitor
  C:9DD6H         PUBLIC        _DebugBufferMF
  C:A61FH         PUBLIC        _Debug_chr_Tibbo
  C:AECEH         SYMBOL        L?0066
  -------         PROC          L?0065
  -------         ENDPROC       L?0065
  C:AECEH         SYMBOL        L?0066
  -------         PROC          TIME_BIT
  -------         DO            
  D:0007H         SYMBOL        j
  -------         ENDDO         
  C:AED4H         LINE#         19
  C:AED4H         LINE#         20
  C:AED4H         LINE#         23
  C:AEE0H         LINE#         24
  C:AEE0H         LINE#         25
  C:AEE1H         LINE#         26
  C:AEE2H         LINE#         27
  C:AEE3H         LINE#         28
  C:AEE4H         LINE#         29
  C:AEE5H         LINE#         30
  C:AEE6H         LINE#         31
  C:AEE7H         LINE#         32
  C:AEE8H         LINE#         33
  C:AEE9H         LINE#         38
  C:AEECH         LINE#         39
  -------         ENDPROC       TIME_BIT
  -------         PROC          TIME_MBIT
  -------         DO            
BL51 BANKED LINKER/LOCATER V6.22.2.0                                                  08/20/2020  14:46:33  PAGE 85


  D:0007H         SYMBOL        j
  -------         ENDDO         
  C:AF55H         LINE#         42
  C:AF55H         LINE#         43
  C:AF55H         LINE#         45
  C:AF61H         LINE#         46
  C:AF61H         LINE#         47
  C:AF62H         LINE#         48
  C:AF63H         LINE#         49
  C:AF64H         LINE#         50
  C:AF65H         LINE#         51
  C:AF66H         LINE#         52
  C:AF67H         LINE#         53
  C:AF68H         LINE#         54
  C:AF6BH         LINE#         56
  -------         ENDPROC       TIME_MBIT
  -------         PROC          L?0070
  -------         ENDPROC       L?0070
  -------         PROC          _TX_AUX
  D:0006H         SYMBOL        caracter
  -------         DO            
  D:0004H         SYMBOL        j
  D:0005H         SYMBOL        temporal
  D:0006H         SYMBOL        bitTX
  -------         ENDDO         
  C:A546H         LINE#         61
  C:A548H         LINE#         62
  C:A548H         LINE#         65
  C:A54AH         LINE#         66
  C:A54CH         LINE#         67
  C:A54FH         LINE#         68
  C:A550H         LINE#         69
  C:A551H         LINE#         70
  C:A553H         LINE#         71
  C:A557H         LINE#         72
  C:A559H         LINE#         73
  C:A559H         LINE#         74
  C:A55BH         LINE#         75
  C:A55DH         LINE#         77
  C:A55DH         LINE#         78
  C:A55FH         LINE#         79
  C:A55FH         LINE#         80
  C:A562H         LINE#         81
  C:A56EH         LINE#         82
  C:A56EH         LINE#         83
  C:A572H         LINE#         84
  C:A575H         LINE#         85
  C:A577H         LINE#         86
  C:A577H         LINE#         87
  C:A579H         LINE#         88
  C:A57BH         LINE#         90
  C:A57BH         LINE#         91
  C:A57DH         LINE#         92
  C:A57DH         LINE#         93
  C:A580H         LINE#         94
  C:A583H         LINE#         95
  C:A585H         LINE#         96
BL51 BANKED LINKER/LOCATER V6.22.2.0                                                  08/20/2020  14:46:33  PAGE 86


  C:A588H         LINE#         97
  C:A58BH         LINE#         99
  C:A58DH         LINE#         100
  -------         ENDPROC       _TX_AUX
  -------         PROC          _DEBUG_HEXDEC
  D:0007H         SYMBOL        xfc
  -------         DO            
  X:0019H         SYMBOL        valor
  D:0006H         SYMBOL        centena
  D:0003H         SYMBOL        decena
  D:0002H         SYMBOL        unidad
  -------         ENDDO         
  C:A739H         LINE#         103
  C:A739H         LINE#         104
  C:A739H         LINE#         107
  C:A740H         LINE#         109
  C:A741H         LINE#         110
  C:A742H         LINE#         111
  C:A743H         LINE#         112
  C:A74BH         LINE#         113
  C:A74BH         LINE#         114
  C:A755H         LINE#         115
  C:A755H         LINE#         116
  C:A759H         LINE#         117
  C:A75AH         LINE#         118
  C:A75CH         LINE#         119
  C:A766H         LINE#         120
  C:A766H         LINE#         121
  C:A76AH         LINE#         122
  C:A76BH         LINE#         123
  C:A76DH         LINE#         124
  C:A76FH         LINE#         125
  C:A773H         LINE#         126
  C:A777H         LINE#         127
  C:A77EH         LINE#         129
  C:A77EH         LINE#         130
  -------         ENDPROC       _DEBUG_HEXDEC
  -------         PROC          _DEBUG_CHR_TIBBO
  D:0003H         SYMBOL        Dat
  -------         DO            
  D:0007H         SYMBOL        temp
  -------         ENDDO         
  C:A61FH         LINE#         135
  C:A621H         LINE#         136
  C:A621H         LINE#         138
  C:A629H         LINE#         139
  C:A629H         LINE#         140
  C:A630H         LINE#         141
  C:A643H         LINE#         143
  C:A646H         LINE#         145
  C:A64AH         LINE#         146
  C:A65DH         LINE#         147
  C:A660H         LINE#         148
  C:A665H         LINE#         150
  C:A665H         LINE#         151
  -------         ENDPROC       _DEBUG_CHR_TIBBO
  -------         PROC          _DEBUGBUFFERMF
BL51 BANKED LINKER/LOCATER V6.22.2.0                                                  08/20/2020  14:46:33  PAGE 87


  X:0028H         SYMBOL        str
  X:002BH         SYMBOL        num_char
  X:002CH         SYMBOL        io
  -------         DO            
  X:002DH         SYMBOL        j
  -------         ENDDO         
  C:9DD6H         LINE#         158
  C:9DE4H         LINE#         159
  C:9DE4H         LINE#         163
  C:9DECH         LINE#         164
  C:9DECH         LINE#         165
  C:9DFBH         LINE#         166
  C:9DFBH         LINE#         167
  C:9DFFH         LINE#         168
  C:9E08H         LINE#         169
  C:9E1AH         LINE#         170
  C:9E1AH         LINE#         171
  C:9E2CH         LINE#         172
  C:9E36H         LINE#         173
  C:9E3EH         LINE#         174
  C:9E43H         LINE#         175
  C:9E48H         LINE#         176
  C:9E48H         LINE#         178
  -------         ENDPROC       _DEBUGBUFFERMF
  C:A593H         SYMBOL        L?0068
  -------         PROC          L?0067
  -------         ENDPROC       L?0067
  C:A593H         SYMBOL        L?0068
  -------         PROC          _DEBUG_TXT_TIBBO
  X:0038H         SYMBOL        str
  -------         DO            
  X:003BH         SYMBOL        i
  -------         ENDDO         
  C:A599H         LINE#         183
  C:A5A4H         LINE#         184
  C:A5A4H         LINE#         186
  C:A5A7H         LINE#         188
  C:A5AFH         LINE#         189
  C:A5AFH         LINE#         190
  C:A5CBH         LINE#         191
  C:A5CBH         LINE#         192
  C:A5CEH         LINE#         193
  C:A5D6H         LINE#         195
  C:A5D6H         LINE#         196
  -------         ENDPROC       _DEBUG_TXT_TIBBO
  -------         PROC          L?0069
  -------         ENDPROC       L?0069
  -------         PROC          DEBUG_DIVIDIR_TEXTO
  C:AF77H         LINE#         198
  C:AF77H         LINE#         199
  C:AF77H         LINE#         200
  -------         ENDPROC       DEBUG_DIVIDIR_TEXTO
  -------         PROC          RX_DATA
  -------         DO            
  D:0006H         SYMBOL        temporal
  -------         ENDDO         
  C:9747H         LINE#         206
BL51 BANKED LINKER/LOCATER V6.22.2.0                                                  08/20/2020  14:46:33  PAGE 88


  C:9747H         LINE#         207
  C:9747H         LINE#         210
  C:9749H         LINE#         211
  C:974CH         LINE#         213
  C:974FH         LINE#         215
  C:975BH         LINE#         216
  C:975BH         LINE#         218
  C:975EH         LINE#         220
  C:976AH         LINE#         221
  C:976AH         LINE#         223
  C:976DH         LINE#         225
  C:9779H         LINE#         226
  C:9779H         LINE#         228
  C:977CH         LINE#         230
  C:9788H         LINE#         231
  C:9788H         LINE#         233
  C:978BH         LINE#         235
  C:9797H         LINE#         236
  C:9797H         LINE#         238
  C:979AH         LINE#         240
  C:97A6H         LINE#         241
  C:97A6H         LINE#         243
  C:97A9H         LINE#         245
  C:97B5H         LINE#         246
  C:97B5H         LINE#         248
  C:97B8H         LINE#         249
  C:97C6H         LINE#         251
  C:97C9H         LINE#         252
  C:97CCH         LINE#         253
  C:97CCH         LINE#         254
  C:97CCH         LINE#         257
  C:97CEH         LINE#         259
  -------         ENDPROC       RX_DATA
  -------         PROC          COND_INI_TIBBO
  C:B08DH         LINE#         277
  C:B08DH         LINE#         278
  C:B08DH         LINE#         280
  C:B08FH         LINE#         281
  C:B091H         LINE#         282
  -------         ENDPROC       COND_INI_TIBBO
  -------         PROC          _DEBUG_PTO_PARALELO
  X:0002H         SYMBOL        buffer
  X:0005H         SYMBOL        Length_trama
  C:AA79H         LINE#         283
  C:AA7CH         LINE#         284
  C:AA7CH         LINE#         285
  C:AA7FH         LINE#         286
  C:AA88H         LINE#         287
  C:AA9FH         LINE#         288
  C:AAA2H         LINE#         289
  C:AAABH         LINE#         290
  C:AAAEH         LINE#         291
  C:AAB1H         LINE#         292
  -------         ENDPROC       _DEBUG_PTO_PARALELO
  -------         PROC          _DEBUG_MONITOR
  X:0015H         SYMBOL        buffer
  X:0018H         SYMBOL        Length_trama
BL51 BANKED LINKER/LOCATER V6.22.2.0                                                  08/20/2020  14:46:33  PAGE 89


  C:AC32H         LINE#         295
  C:AC35H         LINE#         296
  C:AC35H         LINE#         297
  C:AC38H         LINE#         298
  C:AC41H         LINE#         299
  C:AC4FH         LINE#         300
  C:AC52H         LINE#         301
  C:AC5BH         LINE#         302
  C:AC5EH         LINE#         303
  C:AC61H         LINE#         304
  -------         ENDPROC       _DEBUG_MONITOR
  -------         ENDMOD        TIBBO

  -------         MODULE        UART
  C:0000H         SYMBOL        _ICE_DUMMY_
  C:ADB8H         PUBLIC        com_getchar
  C:AFCAH         PUBLIC        com_rbuflen
  C:AFDCH         PUBLIC        com_tbuflen
  B:00A8H.4       PUBLIC        ES
  B:0098H.0       PUBLIC        RI
  C:AAB4H         PUBLIC        _com_putchar
  B:0098H.1       PUBLIC        TI
  B:0021H.3       PUBLIC        aSk
  B:00B8H.4       PUBLIC        PS
  D:000DH         SYMBOL        r_in
  D:000EH         SYMBOL        r_out
  D:000FH         SYMBOL        t_in
  D:0010H         SYMBOL        t_out
  D:0099H         PUBLIC        SBUF
  D:0087H         PUBLIC        PCON
  D:0089H         PUBLIC        TMOD
  B:0021H.4       SYMBOL        ti_restart
  B:00A8H.3       PUBLIC        ET1
  D:008DH         PUBLIC        TH1
  B:0098H.7       PUBLIC        SM0
  B:0098H.6       PUBLIC        SM1
  D:008BH         PUBLIC        TL1
  B:0098H.5       PUBLIC        SM2
  B:0088H.6       PUBLIC        TR1
  C:ACEFH         PUBLIC        com_initialize
  X:020BH         PUBLIC        cnt__ask_off
  B:0098H.4       PUBLIC        REN
  C:AD41H         PUBLIC        com_baudrate
  C:5376H         SYMBOL        com_isr
  -------         PROC          COM_ISR
  -------         DO            
  X:0209H         SYMBOL        cDatoRx
  D:0006H         SYMBOL        k
  D:0007H         SYMBOL        bcc
  X:020AH         SYMBOL        num_datos
  -------         ENDDO         
  C:5376H         LINE#         96
  C:538BH         LINE#         104
  C:5391H         LINE#         105
  C:5391H         LINE#         107
  C:5393H         LINE#         108
  C:5399H         LINE#         109
BL51 BANKED LINKER/LOCATER V6.22.2.0                                                  08/20/2020  14:46:33  PAGE 90


  C:53A9H         LINE#         110
  C:53A9H         LINE#         111
  C:53B4H         LINE#         112
  C:53B6H         LINE#         114
  C:53B6H         LINE#         115
  C:53C6H         LINE#         116
  C:53C6H         LINE#         117
  C:53CBH         LINE#         118
  C:53CBH         LINE#         119
  C:53E2H         LINE#         120
  C:53E2H         LINE#         124
  C:53E2H         LINE#         127
  C:53F1H         LINE#         128
  C:53F1H         LINE#         129
  C:53F3H         LINE#         130
  C:53FBH         LINE#         131
  C:5400H         LINE#         133
  C:5400H         LINE#         134
  C:5403H         LINE#         138
  C:5403H         LINE#         139
  C:5403H         LINE#         140
  C:541BH         LINE#         141
  C:542AH         LINE#         142
  C:542AH         LINE#         143
  C:542AH         LINE#         144
  C:542CH         LINE#         146
  C:542CH         LINE#         147
  C:542EH         LINE#         148
  C:542EH         LINE#         149
  C:542EH         LINE#         150
  C:5431H         LINE#         154
  C:5431H         LINE#         156
  C:543AH         LINE#         157
  C:543AH         LINE#         159
  C:5440H         LINE#         160
  C:5453H         LINE#         161
  C:5453H         LINE#         162
  C:5456H         LINE#         164
  C:5456H         LINE#         165
  C:546BH         LINE#         166
  C:5471H         LINE#         167
  C:5471H         LINE#         169
  C:5474H         LINE#         173
  C:5474H         LINE#         175
  C:548CH         LINE#         176
  C:5492H         LINE#         177
  C:5495H         LINE#         178
  C:5495H         LINE#         179
  C:54ADH         LINE#         180
  C:54ADH         LINE#         181
  C:54AEH         LINE#         182
  C:54BBH         LINE#         183
  C:54BBH         LINE#         184
  C:54C8H         LINE#         185
  C:54CBH         LINE#         186
  C:54D9H         LINE#         187
  C:54D9H         LINE#         188
BL51 BANKED LINKER/LOCATER V6.22.2.0                                                  08/20/2020  14:46:33  PAGE 91


  C:54DBH         LINE#         189
  C:54E0H         LINE#         190
  C:54E2H         LINE#         191
  C:54E6H         LINE#         193
  C:54E8H         LINE#         195
  C:54E8H         LINE#         196
  C:54E8H         LINE#         197
  C:54E8H         LINE#         198
  C:54EAH         LINE#         200
  C:54EAH         LINE#         201
  C:54EAH         LINE#         202
  C:54EAH         LINE#         204
  C:54ECH         LINE#         206
  C:54ECH         LINE#         207
  C:54F2H         LINE#         208
  C:54F2H         LINE#         210
  C:54F4H         LINE#         215
  C:54F4H         LINE#         216
  C:54F9H         LINE#         217
  C:54F9H         LINE#         218
  C:54F9H         LINE#         219
  C:54F9H         LINE#         224
  C:54FCH         LINE#         225
  C:54FCH         LINE#         226
  C:54FEH         LINE#         228
  C:5504H         LINE#         229
  C:5504H         LINE#         230
  C:550EH         LINE#         232
  C:5510H         LINE#         233
  C:5512H         LINE#         234
  C:5514H         LINE#         236
  C:5514H         LINE#         237
  C:5516H         LINE#         238
  C:5516H         LINE#         239
  C:5516H         LINE#         241
  -------         ENDPROC       COM_ISR
  -------         PROC          COM_INITIALIZE
  C:ACEFH         LINE#         257
  C:ACF6H         LINE#         258
  C:ACF6H         LINE#         262
  C:ACF9H         LINE#         267
  C:ACFCH         LINE#         268
  C:ACFEH         LINE#         270
  C:AD00H         LINE#         271
  C:AD02H         LINE#         276
  C:AD06H         LINE#         277
  C:AD08H         LINE#         278
  C:AD0AH         LINE#         280
  C:AD0CH         LINE#         281
  C:AD0EH         LINE#         282
  C:AD10H         LINE#         284
  C:AD12H         LINE#         285
  C:AD14H         LINE#         286
  -------         ENDPROC       COM_INITIALIZE
  -------         PROC          COM_BAUDRATE
  C:AD41H         LINE#         292
  C:AD48H         LINE#         294
BL51 BANKED LINKER/LOCATER V6.22.2.0                                                  08/20/2020  14:46:33  PAGE 92


  C:AD48H         LINE#         298
  C:AD4AH         LINE#         299
  C:AD4DH         LINE#         300
  C:AD4FH         LINE#         305
  C:AD51H         LINE#         306
  C:AD53H         LINE#         308
  C:AD56H         LINE#         310
  C:AD59H         LINE#         311
  C:AD5CH         LINE#         313
  C:AD5FH         LINE#         314
  C:AD62H         LINE#         315
  C:AD64H         LINE#         316
  -------         ENDPROC       COM_BAUDRATE
  -------         PROC          _COM_PUTCHAR
  X:00ABH         SYMBOL        c
  C:AAB4H         LINE#         322
  C:AAC0H         LINE#         323
  C:AAC0H         LINE#         327
  C:AACDH         LINE#         328
  C:AAD1H         LINE#         334
  C:AADFH         LINE#         336
  C:AAE1H         LINE#         338
  C:AAE4H         LINE#         339
  C:AAE4H         LINE#         340
  C:AAE6H         LINE#         341
  C:AAE8H         LINE#         342
  C:AAE8H         LINE#         344
  C:AAEAH         LINE#         345
  -------         ENDPROC       _COM_PUTCHAR
  -------         PROC          COM_GETCHAR
  C:ADB8H         LINE#         351
  C:ADBFH         LINE#         352
  C:ADBFH         LINE#         353
  C:ADC5H         LINE#         354
  C:ADCBH         LINE#         356
  C:ADD9H         LINE#         357
  -------         ENDPROC       COM_GETCHAR
  -------         PROC          COM_RBUFLEN
  C:AFCAH         LINE#         363
  C:AFD1H         LINE#         364
  C:AFD1H         LINE#         365
  C:AFD7H         LINE#         366
  -------         ENDPROC       COM_RBUFLEN
  -------         PROC          COM_TBUFLEN
  C:AFDCH         LINE#         372
  C:AFE3H         LINE#         373
  C:AFE3H         LINE#         374
  C:AFE9H         LINE#         375
  -------         ENDPROC       COM_TBUFLEN
  -------         ENDMOD        UART

  -------         MODULE        LINTECH
  C:0000H         SYMBOL        _ICE_DUMMY_
  C:8E12H         PUBLIC        _Inicializa
  C:81FBH         PUBLIC        _RD_MF
  C:8C20H         PUBLIC        Dwload_EEprom
  C:92D3H         PUBLIC        _Card_Insercion
BL51 BANKED LINKER/LOCATER V6.22.2.0                                                  08/20/2020  14:46:33  PAGE 93


  C:7815H         PUBLIC        _Mov_Card
  C:6F40H         PUBLIC        _WR_MF
  C:9364H         PUBLIC        LoadVerify_EEprom
  C:97CFH         PUBLIC        Unique_Identifier_UID
  C:9BE5H         PUBLIC        Power_off
  C:9C65H         PUBLIC        _Check_Status
  C:8B76H         PUBLIC        Clave_Seguridad_S2
  C:9B65H         PUBLIC        Aut_Card_check_Status
  -------         PROC          _INICIALIZA
  X:0003H         SYMBOL        TipoMovimiento
  -------         DO            
  D:0003H         SYMBOL        j
  X:0004H         SYMBOL        bcc
  X:0005H         SYMBOL        g_scArrTxComSoft
  -------         ENDDO         
  C:8E12H         LINE#         66
  C:8E17H         LINE#         67
  C:8E17H         LINE#         70
  C:8E1AH         LINE#         71
  C:8E30H         LINE#         72
  C:8E30H         LINE#         74
  C:8E39H         LINE#         76
  C:8E3FH         LINE#         77
  C:8E42H         LINE#         78
  C:8E44H         LINE#         79
  C:8E48H         LINE#         80
  C:8E4CH         LINE#         81
  C:8E50H         LINE#         82
  C:8E58H         LINE#         83
  C:8E5CH         LINE#         84
  C:8E68H         LINE#         85
  C:8E68H         LINE#         86
  C:8E7CH         LINE#         87
  C:8E7FH         LINE#         88
  C:8E87H         LINE#         89
  C:8E89H         LINE#         90
  C:8E8EH         LINE#         91
  C:8E9DH         LINE#         92
  C:8EA8H         LINE#         93
  C:8EAEH         LINE#         94
  C:8EAEH         LINE#         95
  -------         ENDPROC       _INICIALIZA
  -------         PROC          _CHECK_STATUS
  X:0003H         SYMBOL        Detalle
  -------         DO            
  D:0006H         SYMBOL        j
  D:0007H         SYMBOL        bcc
  X:0004H         SYMBOL        g_scArrTxComSoft
  -------         ENDDO         
  C:9C65H         LINE#         107
  C:9C6AH         LINE#         108
  C:9C6AH         LINE#         111
  C:9C73H         LINE#         113
  C:9C75H         LINE#         115
  C:9C7BH         LINE#         116
  C:9C7EH         LINE#         117
  C:9C80H         LINE#         118
BL51 BANKED LINKER/LOCATER V6.22.2.0                                                  08/20/2020  14:46:33  PAGE 94


  C:9C84H         LINE#         119
  C:9C88H         LINE#         120
  C:9C8CH         LINE#         121
  C:9C94H         LINE#         122
  C:9C98H         LINE#         123
  C:9CA4H         LINE#         124
  C:9CA4H         LINE#         125
  C:9CB1H         LINE#         126
  C:9CB4H         LINE#         127
  C:9CB9H         LINE#         128
  C:9CBBH         LINE#         129
  C:9CC0H         LINE#         130
  C:9CCFH         LINE#         131
  C:9CDAH         LINE#         132
  C:9CE0H         LINE#         133
  -------         ENDPROC       _CHECK_STATUS
  -------         PROC          _CARD_INSERCION
  D:0007H         SYMBOL        Tipo
  -------         DO            
  D:0006H         SYMBOL        j
  D:0007H         SYMBOL        bcc
  X:0003H         SYMBOL        g_scArrTxComSoft
  -------         ENDDO         
  C:92D3H         LINE#         143
  C:92D3H         LINE#         144
  C:92D3H         LINE#         147
  C:92E0H         LINE#         148
  C:92E0H         LINE#         149
  C:92E7H         LINE#         150
  C:92EDH         LINE#         151
  C:92EFH         LINE#         153
  C:92EFH         LINE#         155
  C:92F6H         LINE#         156
  C:92FCH         LINE#         158
  C:92FCH         LINE#         160
  C:92FEH         LINE#         162
  C:9304H         LINE#         163
  C:9307H         LINE#         164
  C:9309H         LINE#         165
  C:930DH         LINE#         166
  C:9311H         LINE#         167
  C:9315H         LINE#         169
  C:931BH         LINE#         170
  C:9327H         LINE#         171
  C:9327H         LINE#         172
  C:9334H         LINE#         173
  C:9337H         LINE#         175
  C:933CH         LINE#         177
  C:933EH         LINE#         178
  C:9343H         LINE#         179
  C:9352H         LINE#         180
  C:935DH         LINE#         181
  C:9363H         LINE#         182
  -------         ENDPROC       _CARD_INSERCION
  -------         PROC          _MOV_CARD
  X:0003H         SYMBOL        Posicion
  -------         DO            
BL51 BANKED LINKER/LOCATER V6.22.2.0                                                  08/20/2020  14:46:33  PAGE 95


  D:0003H         SYMBOL        j
  X:0004H         SYMBOL        bcc
  X:0005H         SYMBOL        g_scArrTxComSoft
  -------         ENDDO         
  C:7815H         LINE#         193
  C:781AH         LINE#         194
  C:781AH         LINE#         197
  C:781DH         LINE#         199
  C:783DH         LINE#         200
  C:783DH         LINE#         201
  C:7844H         LINE#         202
  C:7844H         LINE#         203
  C:784AH         LINE#         204
  C:784CH         LINE#         205
  C:7853H         LINE#         206
  C:7853H         LINE#         207
  C:7859H         LINE#         208
  C:785BH         LINE#         209
  C:7862H         LINE#         210
  C:7862H         LINE#         211
  C:7868H         LINE#         212
  C:786AH         LINE#         213
  C:7871H         LINE#         214
  C:7871H         LINE#         215
  C:7877H         LINE#         216
  C:7879H         LINE#         217
  C:7880H         LINE#         218
  C:7880H         LINE#         219
  C:7889H         LINE#         220
  C:7889H         LINE#         222
  C:788FH         LINE#         223
  C:7892H         LINE#         224
  C:7894H         LINE#         225
  C:7898H         LINE#         226
  C:789CH         LINE#         227
  C:78A0H         LINE#         228
  C:78A8H         LINE#         229
  C:78ACH         LINE#         230
  C:78B8H         LINE#         231
  C:78B8H         LINE#         232
  C:78CCH         LINE#         233
  C:78CFH         LINE#         234
  C:78D7H         LINE#         235
  C:78D9H         LINE#         236
  C:78DEH         LINE#         237
  C:78EDH         LINE#         238
  C:78F8H         LINE#         239
  C:78FEH         LINE#         240
  C:78FEH         LINE#         242
  -------         ENDPROC       _MOV_CARD
  -------         PROC          AUT_CARD_CHECK_STATUS
  -------         DO            
  D:0003H         SYMBOL        j
  X:0003H         SYMBOL        bcc
  X:0004H         SYMBOL        g_scArrTxComSoft
  -------         ENDDO         
  C:9B65H         LINE#         248
BL51 BANKED LINKER/LOCATER V6.22.2.0                                                  08/20/2020  14:46:33  PAGE 96


  C:9B65H         LINE#         249
  C:9B65H         LINE#         252
  C:9B6AH         LINE#         254
  C:9B73H         LINE#         256
  C:9B79H         LINE#         257
  C:9B7CH         LINE#         258
  C:9B7EH         LINE#         259
  C:9B82H         LINE#         260
  C:9B86H         LINE#         261
  C:9B8AH         LINE#         262
  C:9B8EH         LINE#         263
  C:9B92H         LINE#         264
  C:9B9EH         LINE#         265
  C:9B9EH         LINE#         266
  C:9BB2H         LINE#         267
  C:9BB5H         LINE#         268
  C:9BBDH         LINE#         269
  C:9BBFH         LINE#         270
  C:9BC4H         LINE#         271
  C:9BD3H         LINE#         272
  C:9BDEH         LINE#         273
  C:9BE4H         LINE#         274
  -------         ENDPROC       AUT_CARD_CHECK_STATUS
  -------         PROC          CLAVE_SEGURIDAD_S2
  -------         DO            
  D:0003H         SYMBOL        j
  X:0008H         SYMBOL        bcc
  X:0009H         SYMBOL        g_scArrTxComSoft
  -------         ENDDO         
  C:8B76H         LINE#         277
  C:8B76H         LINE#         278
  C:8B76H         LINE#         281
  C:8B7BH         LINE#         282
  C:8B84H         LINE#         285
  C:8B8AH         LINE#         286
  C:8B8DH         LINE#         287
  C:8B8FH         LINE#         288
  C:8B93H         LINE#         289
  C:8B97H         LINE#         290
  C:8B9BH         LINE#         291
  C:8B9FH         LINE#         292
  C:8BA2H         LINE#         293
  C:8BA6H         LINE#         294
  C:8BA9H         LINE#         295
  C:8BADH         LINE#         297
  C:8BB1H         LINE#         299
  C:8BB5H         LINE#         300
  C:8BB9H         LINE#         301
  C:8BBDH         LINE#         302
  C:8BC1H         LINE#         303
  C:8BC5H         LINE#         304
  C:8BC9H         LINE#         307
  C:8BCDH         LINE#         309
  C:8BD9H         LINE#         310
  C:8BD9H         LINE#         311
  C:8BEDH         LINE#         312
  C:8BF0H         LINE#         313
BL51 BANKED LINKER/LOCATER V6.22.2.0                                                  08/20/2020  14:46:33  PAGE 97


  C:8BF8H         LINE#         314
  C:8BFAH         LINE#         315
  C:8BFFH         LINE#         316
  C:8C0EH         LINE#         317
  C:8C19H         LINE#         318
  C:8C1FH         LINE#         321
  -------         ENDPROC       CLAVE_SEGURIDAD_S2
  -------         PROC          DWLOAD_EEPROM
  -------         DO            
  D:0003H         SYMBOL        j
  X:0003H         SYMBOL        bcc
  X:0004H         SYMBOL        g_scArrTxComSoft
  -------         ENDDO         
  C:8C20H         LINE#         326
  C:8C20H         LINE#         327
  C:8C20H         LINE#         330
  C:8C25H         LINE#         331
  C:8C2EH         LINE#         333
  C:8C34H         LINE#         334
  C:8C37H         LINE#         335
  C:8C39H         LINE#         336
  C:8C3DH         LINE#         337
  C:8C41H         LINE#         338
  C:8C45H         LINE#         339
  C:8C49H         LINE#         340
  C:8C4CH         LINE#         341
  C:8C50H         LINE#         342
  C:8C53H         LINE#         343
  C:8C56H         LINE#         344
  C:8C5AH         LINE#         345
  C:8C5EH         LINE#         346
  C:8C62H         LINE#         347
  C:8C66H         LINE#         348
  C:8C6AH         LINE#         349
  C:8C6EH         LINE#         350
  C:8C72H         LINE#         351
  C:8C76H         LINE#         353
  C:8C82H         LINE#         354
  C:8C82H         LINE#         355
  C:8C96H         LINE#         356
  C:8C99H         LINE#         357
  C:8CA1H         LINE#         358
  C:8CA3H         LINE#         359
  C:8CA8H         LINE#         360
  C:8CB7H         LINE#         361
  C:8CC2H         LINE#         362
  C:8CC8H         LINE#         363
  -------         ENDPROC       DWLOAD_EEPROM
  -------         PROC          LOADVERIFY_EEPROM
  -------         DO            
  D:0003H         SYMBOL        j
  X:0003H         SYMBOL        bcc
  X:0004H         SYMBOL        g_scArrTxComSoft
  -------         ENDDO         
  C:9364H         LINE#         369
  C:9364H         LINE#         370
  C:9364H         LINE#         373
BL51 BANKED LINKER/LOCATER V6.22.2.0                                                  08/20/2020  14:46:33  PAGE 98


  C:9369H         LINE#         374
  C:9372H         LINE#         377
  C:9378H         LINE#         378
  C:937BH         LINE#         379
  C:937DH         LINE#         380
  C:9381H         LINE#         381
  C:9385H         LINE#         382
  C:9389H         LINE#         383
  C:938DH         LINE#         384
  C:9390H         LINE#         385
  C:9394H         LINE#         386
  C:9397H         LINE#         387
  C:939AH         LINE#         388
  C:939EH         LINE#         389
  C:93A2H         LINE#         393
  C:93AEH         LINE#         394
  C:93AEH         LINE#         395
  C:93C2H         LINE#         396
  C:93C5H         LINE#         397
  C:93CDH         LINE#         398
  C:93CFH         LINE#         399
  C:93D4H         LINE#         400
  C:93E3H         LINE#         401
  C:93EEH         LINE#         402
  C:93F4H         LINE#         404
  -------         ENDPROC       LOADVERIFY_EEPROM
  -------         PROC          _RD_MF
  X:0003H         SYMBOL        Sector
  X:0004H         SYMBOL        Bloque
  -------         DO            
  D:0003H         SYMBOL        j
  X:0005H         SYMBOL        bcc
  X:0006H         SYMBOL        g_scArrTxComSoft
  -------         ENDDO         
  C:81FBH         LINE#         410
  C:8203H         LINE#         411
  C:8203H         LINE#         415
  C:8206H         LINE#         417
  C:820FH         LINE#         418
  C:8217H         LINE#         420
  C:8220H         LINE#         421
  C:8228H         LINE#         422
  C:8231H         LINE#         425
  C:8237H         LINE#         426
  C:823AH         LINE#         427
  C:823CH         LINE#         428
  C:8240H         LINE#         429
  C:8244H         LINE#         430
  C:8248H         LINE#         431
  C:824CH         LINE#         432
  C:824FH         LINE#         433
  C:8253H         LINE#         434
  C:825BH         LINE#         435
  C:8263H         LINE#         436
  C:8267H         LINE#         437
  C:826BH         LINE#         439
  C:8277H         LINE#         440
BL51 BANKED LINKER/LOCATER V6.22.2.0                                                  08/20/2020  14:46:33  PAGE 99


  C:8277H         LINE#         441
  C:828BH         LINE#         442
  C:828EH         LINE#         443
  C:8296H         LINE#         446
  C:8298H         LINE#         447
  C:829DH         LINE#         448
  C:82ACH         LINE#         449
  C:82B7H         LINE#         450
  C:82BDH         LINE#         452
  -------         ENDPROC       _RD_MF
  -------         PROC          _WR_MF
  X:0003H         SYMBOL        Sector
  X:0004H         SYMBOL        Bloque
  X:0005H         SYMBOL        buffer
  -------         DO            
  D:0005H         SYMBOL        j
  X:0008H         SYMBOL        bcc
  X:0009H         SYMBOL        g_scArrTxComSoft
  -------         ENDDO         
  C:6F40H         LINE#         459
  C:6F51H         LINE#         461
  C:6F51H         LINE#         464
  C:6F54H         LINE#         466
  C:6F5DH         LINE#         467
  C:6F65H         LINE#         469
  C:6F6EH         LINE#         470
  C:6F76H         LINE#         471
  C:6F7FH         LINE#         473
  C:6F85H         LINE#         474
  C:6F88H         LINE#         475
  C:6F8AH         LINE#         476
  C:6F8EH         LINE#         478
  C:6F92H         LINE#         479
  C:6F96H         LINE#         480
  C:6F9AH         LINE#         481
  C:6F9DH         LINE#         482
  C:6FA1H         LINE#         483
  C:6FA9H         LINE#         484
  C:6FB1H         LINE#         485
  C:6FB5H         LINE#         487
  C:6FC1H         LINE#         488
  C:6FC1H         LINE#         489
  C:6FE1H         LINE#         490
  C:6FE4H         LINE#         492
  C:6FEAH         LINE#         494
  C:6FF6H         LINE#         495
  C:6FF6H         LINE#         496
  C:700DH         LINE#         497
  C:7010H         LINE#         498
  C:7018H         LINE#         501
  C:701AH         LINE#         502
  C:701FH         LINE#         503
  C:702EH         LINE#         504
  C:7039H         LINE#         505
  C:703FH         LINE#         507
  -------         ENDPROC       _WR_MF
  -------         PROC          UNIQUE_IDENTIFIER_UID
BL51 BANKED LINKER/LOCATER V6.22.2.0                                                  08/20/2020  14:46:33  PAGE 100


  -------         DO            
  D:0003H         SYMBOL        j
  X:0003H         SYMBOL        bcc
  X:0004H         SYMBOL        g_scArrTxComSoft
  -------         ENDDO         
  C:97CFH         LINE#         512
  C:97CFH         LINE#         513
  C:97CFH         LINE#         516
  C:97D4H         LINE#         518
  C:97DDH         LINE#         520
  C:97E3H         LINE#         521
  C:97E6H         LINE#         522
  C:97E8H         LINE#         523
  C:97ECH         LINE#         524
  C:97F0H         LINE#         525
  C:97F4H         LINE#         526
  C:97F8H         LINE#         527
  C:97FCH         LINE#         528
  C:9800H         LINE#         529
  C:9804H         LINE#         530
  C:9810H         LINE#         531
  C:9810H         LINE#         532
  C:9824H         LINE#         533
  C:9827H         LINE#         534
  C:982FH         LINE#         535
  C:9831H         LINE#         536
  C:9836H         LINE#         537
  C:9845H         LINE#         538
  C:9850H         LINE#         539
  C:9856H         LINE#         540
  -------         ENDPROC       UNIQUE_IDENTIFIER_UID
  -------         PROC          POWER_OFF
  -------         DO            
  D:0003H         SYMBOL        j
  X:0003H         SYMBOL        bcc
  X:0004H         SYMBOL        g_scArrTxComSoft
  -------         ENDDO         
  C:9BE5H         LINE#         541
  C:9BE5H         LINE#         542
  C:9BE5H         LINE#         545
  C:9BEAH         LINE#         547
  C:9BF3H         LINE#         549
  C:9BF9H         LINE#         550
  C:9BFCH         LINE#         551
  C:9BFEH         LINE#         552
  C:9C02H         LINE#         553
  C:9C06H         LINE#         554
  C:9C0AH         LINE#         555
  C:9C0EH         LINE#         556
  C:9C12H         LINE#         557
  C:9C1EH         LINE#         558
  C:9C1EH         LINE#         559
  C:9C32H         LINE#         560
  C:9C35H         LINE#         561
  C:9C3DH         LINE#         562
  C:9C3FH         LINE#         563
  C:9C44H         LINE#         564
BL51 BANKED LINKER/LOCATER V6.22.2.0                                                  08/20/2020  14:46:33  PAGE 101


  C:9C53H         LINE#         565
  C:9C5EH         LINE#         566
  C:9C64H         LINE#         569
  -------         ENDPROC       POWER_OFF
  -------         ENDMOD        LINTECH

  -------         MODULE        VERIFICADOR
  C:0000H         SYMBOL        _ICE_DUMMY_
  D:0080H         PUBLIC        P0
  C:ADDEH         PUBLIC        Analiza_Presencia_Mensual
  C:A2A9H         PUBLIC        Ingreso_Vehiculo
  D:0090H         PUBLIC        P1
  C:AD69H         PUBLIC        _Armar_Trama_Tarjeta_Sector1_Bloque0
  D:00B0H         PUBLIC        P3
  C:5529H         PUBLIC        _Valida_Tipo_Tarjeta
  C:AA1DH         PUBLIC        _Load_Secuencia_Expedidor
  C:5F4DH         PUBLIC        _Armar_Trama_Tarjeta_Sector1_Bloque2
  C:56CEH         PUBLIC        Armar_Trama_Pto_Paralelo_Expedidor
  C:8137H         PUBLIC        _Tarjeta_Mensual
  C:AE2AH         PUBLIC        Analiza_Presencia_rotacion
  C:A06BH         PUBLIC        _Disparo_Lock_Entrada_Vehiculo
  C:9115H         PUBLIC        _Valida_Vehiculo_Card_Mensual
  C:A35AH         PUBLIC        _Armar_Trama_Placa
  C:7E15H         PUBLIC        _rta_cmd_transporte
  C:B03CH         PUBLIC        Captura_Expulsa
  C:5CB4H         PUBLIC        _Armar_Trama_Monitor
  C:61CDH         PUBLIC        Secuencia_inicio_expedidor
  C:7B9CH         PUBLIC        _Analiza_Uid_Card
  B:0080H.0       PUBLIC        rx_ip
  C:6E3DH         PUBLIC        _Bloque_Horario
  B:0090H.7       PUBLIC        lock
  C:8EAFH         PUBLIC        _Responde_Lectura_Tarjeta_Sector1_Bloque0
  C:85C1H         PUBLIC        error_rx_pto
  C:5197H         PUBLIC        _Responde_Lectura_Tarjeta_Sector1_Bloque1
  C:6442H         PUBLIC        _Responde_Lectura_Tarjeta_Sector1_Bloque2
  B:0090H.1       PUBLIC        DataIn
  C:9857H         PUBLIC        _Send_Pto_Paralelo
  C:ABFFH         PUBLIC        Trama_Validacion_P_N
  B:0021H.6       PUBLIC        MenSual
  C:8380H         PUBLIC        _Armar_Trama_Pto_Paralelo_Expedidor_Mensual
  B:0080H.3       PUBLIC        Rele_Atasco
  C:6C22H         PUBLIC        _Horarios
  C:8ACAH         PUBLIC        _Hora_Maxima
  C:3700H         PUBLIC        _SecuenciaExpedidorMF
  C:A133H         PUBLIC        _Pregunta_Lpr
  C:8D6FH         PUBLIC        _Wait_Placa
  C:9CE1H         PUBLIC        Responde_Estado_Sensores_Transporte
  C:9D5DH         PUBLIC        Entrega_Card_Captura
  C:A1F2H         PUBLIC        _Respuesta_Segunda_clave
  X:0141H         SYMBOL        Estado
  C:AB61H         PUBLIC        _Responde_Write_Tarjeta_Sector1_Bloque0
  C:A666H         PUBLIC        _Responde_Write_Tarjeta_Sector2_Bloque0
  C:95A4H         PUBLIC        _Responde_Write_Tarjeta_Sector1_Bloque2
  C:9EBAH         PUBLIC        _En_Horario
  C:9E49H         PUBLIC        Responde_Tipo_Tarjeta
  C:AC64H         PUBLIC        _Tarjeta_Rotacion
  -------         PROC          CAPTURA_EXPULSA
BL51 BANKED LINKER/LOCATER V6.22.2.0                                                  08/20/2020  14:46:33  PAGE 102


  -------         DO            
  D:0007H         SYMBOL        Estado_expedidor
  -------         ENDDO         
  C:B03CH         LINE#         522
  C:B03CH         LINE#         523
  C:B03CH         LINE#         527
  C:B03FH         LINE#         528
  C:B03FH         LINE#         529
  C:B041H         LINE#         530
  C:B042H         LINE#         532
  C:B042H         LINE#         534
  C:B044H         LINE#         535
  C:B044H         LINE#         538
  C:B044H         LINE#         539
  -------         ENDPROC       CAPTURA_EXPULSA
  -------         PROC          TRAMA_VALIDACION_P_N
  -------         DO            
  D:0007H         SYMBOL        Trama_Validacion_P_N
  -------         ENDDO         
  C:ABFFH         LINE#         550
  C:ABFFH         LINE#         551
  C:ABFFH         LINE#         552
  C:AC01H         LINE#         554
  C:AC0CH         LINE#         555
  C:AC0CH         LINE#         556
  C:AC0FH         LINE#         557
  C:AC0FH         LINE#         558
  C:AC11H         LINE#         561
  C:AC19H         LINE#         562
  C:AC19H         LINE#         564
  C:AC1BH         LINE#         566
  C:AC1CH         LINE#         567
  C:AC20H         LINE#         568
  C:AC20H         LINE#         570
  C:AC22H         LINE#         572
  C:AC23H         LINE#         574
  C:AC23H         LINE#         575
  C:AC2CH         LINE#         576
  C:AC2EH         LINE#         578
  C:AC2EH         LINE#         579
  C:AC2FH         LINE#         581
  C:AC2FH         LINE#         583
  C:AC31H         LINE#         585
  C:AC31H         LINE#         587
  C:AC31H         LINE#         589
  C:AC31H         LINE#         590
  -------         ENDPROC       TRAMA_VALIDACION_P_N
  -------         PROC          ERROR_RX_PTO
  -------         DO            
  X:00B8H         SYMBOL        cnt_espera_ask_on
  X:0008H         SYMBOL        error_rx_pto
  -------         ENDDO         
  C:85C1H         LINE#         614
  C:85C1H         LINE#         615
  C:85C1H         LINE#         618
  C:85C7H         LINE#         622
  C:85D0H         LINE#         623
BL51 BANKED LINKER/LOCATER V6.22.2.0                                                  08/20/2020  14:46:33  PAGE 103


  C:85D8H         LINE#         624
  C:85E1H         LINE#         625
  C:85E9H         LINE#         626
  C:85F2H         LINE#         627
  C:85F5H         LINE#         629
  C:85F5H         LINE#         630
  C:85FBH         LINE#         631
  C:8605H         LINE#         632
  C:8605H         LINE#         633
  C:860EH         LINE#         634
  C:8610H         LINE#         635
  C:8617H         LINE#         636
  C:861CH         LINE#         637
  C:8622H         LINE#         638
  C:8627H         LINE#         639
  C:8629H         LINE#         640
  C:8630H         LINE#         641
  C:8636H         LINE#         642
  C:8636H         LINE#         644
  C:8636H         LINE#         645
  C:863BH         LINE#         646
  C:863BH         LINE#         647
  C:863BH         LINE#         648
  C:863DH         LINE#         650
  C:863DH         LINE#         651
  C:864BH         LINE#         652
  C:865EH         LINE#         653
  C:865EH         LINE#         654
  C:865FH         LINE#         656
  C:8665H         LINE#         657
  C:8669H         LINE#         658
  C:866BH         LINE#         659
  C:866BH         LINE#         660
  C:866DH         LINE#         662
  C:866DH         LINE#         663
  C:866EH         LINE#         664
  C:8673H         LINE#         665
  C:8679H         LINE#         666
  C:8679H         LINE#         667
  C:8679H         LINE#         668
  C:867EH         LINE#         669
  -------         ENDPROC       ERROR_RX_PTO
  -------         PROC          _RTA_CMD_TRANSPORTE
  X:0003H         SYMBOL        secuencia_Expedidor
  -------         DO            
  X:0006H         SYMBOL        temp
  X:0007H         SYMBOL        EstadoComSeqMF
  -------         ENDDO         
  C:7E15H         LINE#         685
  C:7E20H         LINE#         686
  C:7E20H         LINE#         691
  C:7E2DH         LINE#         692
  C:7E2DH         LINE#         693
  C:7E35H         LINE#         694
  C:7E35H         LINE#         695
  C:7E43H         LINE#         696
  C:7E46H         LINE#         697
BL51 BANKED LINKER/LOCATER V6.22.2.0                                                  08/20/2020  14:46:33  PAGE 104


  C:7E4CH         LINE#         698
  C:7E4CH         LINE#         699
  C:7E55H         LINE#         700
  C:7E69H         LINE#         701
  C:7E7AH         LINE#         702
  C:7E7CH         LINE#         704
  C:7E7CH         LINE#         707
  C:7E94H         LINE#         708
  C:7E94H         LINE#         709
  C:7E9FH         LINE#         710
  C:7EA1H         LINE#         712
  C:7EA1H         LINE#         713
  C:7EAFH         LINE#         714
  C:7EAFH         LINE#         715
  C:7EAFH         LINE#         716
  C:7EB1H         LINE#         718
  C:7EB1H         LINE#         720
  C:7EC5H         LINE#         721
  C:7EDAH         LINE#         722
  C:7EDAH         LINE#         723
  C:7EDFH         LINE#         724
  -------         ENDPROC       _RTA_CMD_TRANSPORTE
  -------         PROC          ANALIZA_PRESENCIA_MENSUAL
  -------         DO            
  X:0003H         SYMBOL        Estado_expedidor
  -------         ENDDO         
  C:ADDEH         LINE#         728
  C:ADDEH         LINE#         729
  C:ADDEH         LINE#         731
  C:ADE4H         LINE#         732
  C:ADE4H         LINE#         733
  C:ADE6H         LINE#         734
  C:ADECH         LINE#         735
  C:ADEEH         LINE#         737
  C:ADEEH         LINE#         739
  C:ADF3H         LINE#         740
  C:ADF8H         LINE#         741
  C:ADFEH         LINE#         743
  C:ADFEH         LINE#         744
  C:AE03H         LINE#         745
  -------         ENDPROC       ANALIZA_PRESENCIA_MENSUAL
  -------         PROC          ANALIZA_PRESENCIA_ROTACION
  -------         DO            
  X:0003H         SYMBOL        Estado_expedidor
  -------         ENDDO         
  C:AE2AH         LINE#         746
  C:AE2AH         LINE#         747
  C:AE2AH         LINE#         749
  C:AE30H         LINE#         750
  C:AE30H         LINE#         752
  C:AE36H         LINE#         753
  C:AE38H         LINE#         755
  C:AE38H         LINE#         757
  C:AE3DH         LINE#         758
  C:AE42H         LINE#         759
  C:AE47H         LINE#         761
  C:AE47H         LINE#         762
BL51 BANKED LINKER/LOCATER V6.22.2.0                                                  08/20/2020  14:46:33  PAGE 105


  C:AE4CH         LINE#         763
  -------         ENDPROC       ANALIZA_PRESENCIA_ROTACION
  -------         PROC          _ANALIZA_UID_CARD
  X:0003H         SYMBOL        Atributos_Expedidor
  -------         DO            
  X:0006H         SYMBOL        Estado_expedidor
  D:0007H         SYMBOL        temp
  X:0007H         SYMBOL        buffer_UID
  -------         ENDDO         
  C:7B9CH         LINE#         767
  C:7BA7H         LINE#         768
  C:7BA7H         LINE#         772
  C:7BB7H         LINE#         773
  C:7BB7H         LINE#         775
  C:7BC3H         LINE#         776
  C:7BC3H         LINE#         777
  C:7BDBH         LINE#         779
  C:7BDEH         LINE#         781
  C:7BE7H         LINE#         782
  C:7BF8H         LINE#         785
  C:7C01H         LINE#         786
  C:7C09H         LINE#         787
  C:7C11H         LINE#         788
  C:7C19H         LINE#         789
  C:7C21H         LINE#         790
  C:7C2AH         LINE#         792
  C:7C41H         LINE#         793
  C:7C4BH         LINE#         794
  C:7C55H         LINE#         795
  C:7C5FH         LINE#         796
  C:7C65H         LINE#         797
  C:7C67H         LINE#         799
  C:7C67H         LINE#         800
  C:7C6DH         LINE#         801
  C:7C6DH         LINE#         802
  C:7C72H         LINE#         803
  -------         ENDPROC       _ANALIZA_UID_CARD
  -------         PROC          INGRESO_VEHICULO
  -------         DO            
  D:0007H         SYMBOL        CardAutomatic
  X:00BAH         SYMBOL        pulseboton
  -------         ENDDO         
  C:A2A9H         LINE#         807
  C:A2A9H         LINE#         808
  C:A2A9H         LINE#         812
  C:A2AFH         LINE#         813
  C:A2AFH         LINE#         814
  C:A2B8H         LINE#         816
  C:A2BDH         LINE#         817
  C:A2BDH         LINE#         818
  C:A2C6H         LINE#         820
  C:A2C6H         LINE#         821
  C:A2C8H         LINE#         823
  C:A2C8H         LINE#         824
  C:A2CEH         LINE#         825
  C:A2D3H         LINE#         826
  C:A2D5H         LINE#         828
BL51 BANKED LINKER/LOCATER V6.22.2.0                                                  08/20/2020  14:46:33  PAGE 106


  C:A2D5H         LINE#         829
  C:A2DBH         LINE#         832
  C:A2DBH         LINE#         833
  C:A2DEH         LINE#         834
  C:A2E1H         LINE#         835
  C:A2E1H         LINE#         836
  C:A2EAH         LINE#         837
  C:A2EFH         LINE#         838
  C:A2F5H         LINE#         839
  C:A2F7H         LINE#         848
  C:A2F7H         LINE#         850
  C:A2FCH         LINE#         851
  C:A2FCH         LINE#         852
  C:A301H         LINE#         853
  -------         ENDPROC       INGRESO_VEHICULO
  -------         PROC          RESPONDE_ESTADO_SENSORES_TRANSPORTE
  -------         DO            
  X:0003H         SYMBOL        Estado_expedidor
  -------         ENDDO         
  C:9CE1H         LINE#         860
  C:9CE1H         LINE#         861
  C:9CE1H         LINE#         864
  C:9CEAH         LINE#         866
  C:9CF2H         LINE#         867
  C:9CF2H         LINE#         869
  C:9CFDH         LINE#         870
  C:9CFDH         LINE#         871
  C:9D01H         LINE#         872
  C:9D01H         LINE#         873
  C:9D0AH         LINE#         874
  C:9D0FH         LINE#         876
  C:9D0FH         LINE#         877
  C:9D11H         LINE#         879
  C:9D11H         LINE#         881
  C:9D19H         LINE#         883
  C:9D19H         LINE#         884
  C:9D1BH         LINE#         886
  C:9D1BH         LINE#         888
  C:9D24H         LINE#         890
  C:9D29H         LINE#         893
  C:9D29H         LINE#         894
  C:9D29H         LINE#         895
  C:9D2BH         LINE#         896
  C:9D32H         LINE#         897
  C:9D32H         LINE#         899
  C:9D38H         LINE#         901
  C:9D38H         LINE#         902
  C:9D3AH         LINE#         903
  C:9D41H         LINE#         905
  C:9D41H         LINE#         906
  C:9D4AH         LINE#         907
  C:9D50H         LINE#         908
  C:9D52H         LINE#         910
  C:9D52H         LINE#         911
  C:9D57H         LINE#         912
  C:9D57H         LINE#         913
  C:9D5CH         LINE#         914
BL51 BANKED LINKER/LOCATER V6.22.2.0                                                  08/20/2020  14:46:33  PAGE 107


  -------         ENDPROC       RESPONDE_ESTADO_SENSORES_TRANSPORTE
  -------         PROC          RESPONDE_TIPO_TARJETA
  -------         DO            
  X:0003H         SYMBOL        Estado_expedidor
  -------         ENDDO         
  C:9E49H         LINE#         930
  C:9E49H         LINE#         931
  C:9E49H         LINE#         934
  C:9E52H         LINE#         936
  C:9E5AH         LINE#         937
  C:9E5AH         LINE#         938
  C:9E5FH         LINE#         939
  C:9E5FH         LINE#         940
  C:9E68H         LINE#         941
  C:9E6EH         LINE#         942
  C:9E6EH         LINE#         943
  C:9E71H         LINE#         944
  C:9E73H         LINE#         946
  C:9E73H         LINE#         947
  C:9E76H         LINE#         948
  C:9E76H         LINE#         949
  C:9E78H         LINE#         951
  C:9E78H         LINE#         952
  C:9E7FH         LINE#         953
  C:9E7FH         LINE#         954
  C:9E85H         LINE#         955
  C:9E85H         LINE#         956
  C:9E85H         LINE#         958
  C:9E85H         LINE#         960
  C:9E87H         LINE#         962
  C:9E87H         LINE#         963
  C:9E87H         LINE#         964
  C:9E87H         LINE#         965
  C:9E87H         LINE#         966
  C:9E87H         LINE#         967
  C:9E89H         LINE#         969
  C:9E89H         LINE#         970
  C:9E90H         LINE#         971
  C:9E90H         LINE#         972
  C:9E99H         LINE#         974
  C:9E9EH         LINE#         975
  C:9EA3H         LINE#         977
  C:9EABH         LINE#         980
  C:9EADH         LINE#         982
  C:9EADH         LINE#         983
  C:9EAFH         LINE#         984
  C:9EB4H         LINE#         985
  C:9EB4H         LINE#         986
  C:9EB4H         LINE#         988
  C:9EB9H         LINE#         989
  -------         ENDPROC       RESPONDE_TIPO_TARJETA
  -------         PROC          _RESPONDE_LECTURA_TARJETA_SECTOR1_BLOQUE1
  X:0003H         SYMBOL        Atributos_Expedidor
  -------         DO            
  D:0007H         SYMBOL        temp
  X:0006H         SYMBOL        Estado_expedidor
  X:0007H         SYMBOL        buffer_S1_B1
BL51 BANKED LINKER/LOCATER V6.22.2.0                                                  08/20/2020  14:46:33  PAGE 108


  X:0018H         SYMBOL        ID_CLIENTE
  D:0007H         SYMBOL        COD_PARK
  X:00BBH         SYMBOL        falla
  -------         ENDDO         
  C:5197H         LINE#         1001
  C:51A2H         LINE#         1002
  C:51A2H         LINE#         1009
  C:51ABH         LINE#         1013
  C:51BBH         LINE#         1014
  C:51BBH         LINE#         1016
  C:51C7H         LINE#         1017
  C:51C7H         LINE#         1018
  C:51DFH         LINE#         1020
  C:51E2H         LINE#         1023
  C:51EBH         LINE#         1024
  C:51FCH         LINE#         1025
  C:5209H         LINE#         1026
  C:5212H         LINE#         1029
  C:5231H         LINE#         1030
  C:5231H         LINE#         1032
  C:523AH         LINE#         1033
  C:5242H         LINE#         1034
  C:524BH         LINE#         1036
  C:5254H         LINE#         1037
  C:525CH         LINE#         1038
  C:5265H         LINE#         1040
  C:526EH         LINE#         1041
  C:5276H         LINE#         1042
  C:527FH         LINE#         1044
  C:5288H         LINE#         1045
  C:5290H         LINE#         1046
  C:5299H         LINE#         1048
  C:52A2H         LINE#         1049
  C:52AAH         LINE#         1050
  C:52B3H         LINE#         1052
  C:52CAH         LINE#         1054
  C:52D4H         LINE#         1055
  C:52DEH         LINE#         1056
  C:52E8H         LINE#         1058
  C:52EDH         LINE#         1059
  C:5300H         LINE#         1060
  C:5305H         LINE#         1061
  C:530BH         LINE#         1063
  C:530DH         LINE#         1065
  C:530DH         LINE#         1066
  C:5312H         LINE#         1067
  C:531BH         LINE#         1068
  C:5320H         LINE#         1069
  C:5322H         LINE#         1070
  C:5322H         LINE#         1071
  C:5322H         LINE#         1072
  C:5324H         LINE#         1074
  C:5324H         LINE#         1076
  C:532CH         LINE#         1077
  C:532CH         LINE#         1078
  C:5332H         LINE#         1079
  C:5332H         LINE#         1080
BL51 BANKED LINKER/LOCATER V6.22.2.0                                                  08/20/2020  14:46:33  PAGE 109


  C:533FH         LINE#         1082
  C:533FH         LINE#         1083
  C:5348H         LINE#         1084
  C:534EH         LINE#         1086
  C:5350H         LINE#         1088
  C:5350H         LINE#         1089
  C:5355H         LINE#         1090
  C:535EH         LINE#         1091
  C:5363H         LINE#         1092
  C:5368H         LINE#         1093
  C:5370H         LINE#         1094
  C:5370H         LINE#         1095
  C:5370H         LINE#         1097
  C:5375H         LINE#         1098
  -------         ENDPROC       _RESPONDE_LECTURA_TARJETA_SECTOR1_BLOQUE1
  -------         PROC          _RESPONDE_LECTURA_TARJETA_SECTOR1_BLOQUE2
  X:0003H         SYMBOL        Atributos_Expedidor
  -------         DO            
  D:0007H         SYMBOL        temp
  X:0006H         SYMBOL        Estado_expedidor
  X:0007H         SYMBOL        buffer_S1_B2
  -------         ENDDO         
  C:6442H         LINE#         1103
  C:644DH         LINE#         1104
  C:644DH         LINE#         1110
  C:6456H         LINE#         1114
  C:6466H         LINE#         1115
  C:6466H         LINE#         1117
  C:6472H         LINE#         1118
  C:6472H         LINE#         1119
  C:648AH         LINE#         1120
  C:648DH         LINE#         1121
  C:6496H         LINE#         1122
  C:64A7H         LINE#         1126
  C:64B0H         LINE#         1127
  C:64BDH         LINE#         1128
  C:64D9H         LINE#         1129
  C:64E2H         LINE#         1131
  C:64EBH         LINE#         1133
  C:6507H         LINE#         1134
  C:6511H         LINE#         1135
  C:651AH         LINE#         1138
  C:6523H         LINE#         1139
  C:652BH         LINE#         1140
  C:6534H         LINE#         1144
  C:654BH         LINE#         1147
  C:6557H         LINE#         1148
  C:655DH         LINE#         1151
  C:655FH         LINE#         1153
  C:655FH         LINE#         1154
  C:6567H         LINE#         1155
  C:6567H         LINE#         1156
  C:656CH         LINE#         1157
  -------         ENDPROC       _RESPONDE_LECTURA_TARJETA_SECTOR1_BLOQUE2
  -------         PROC          _RESPONDE_LECTURA_TARJETA_SECTOR1_BLOQUE0
  X:0003H         SYMBOL        Nombre_Mensual
  -------         DO            
BL51 BANKED LINKER/LOCATER V6.22.2.0                                                  08/20/2020  14:46:33  PAGE 110


  D:0007H         SYMBOL        temp
  X:0006H         SYMBOL        Estado_expedidor
  -------         ENDDO         
  C:8EAFH         LINE#         1159
  C:8EBAH         LINE#         1160
  C:8EBAH         LINE#         1166
  C:8EC3H         LINE#         1170
  C:8ED0H         LINE#         1171
  C:8ED0H         LINE#         1173
  C:8EDCH         LINE#         1174
  C:8EDCH         LINE#         1175
  C:8EFCH         LINE#         1176
  C:8EFFH         LINE#         1177
  C:8F13H         LINE#         1178
  C:8F1CH         LINE#         1179
  C:8F2AH         LINE#         1180
  C:8F33H         LINE#         1181
  C:8F39H         LINE#         1184
  C:8F3BH         LINE#         1186
  C:8F3BH         LINE#         1187
  C:8F43H         LINE#         1188
  C:8F43H         LINE#         1189
  C:8F48H         LINE#         1190
  -------         ENDPROC       _RESPONDE_LECTURA_TARJETA_SECTOR1_BLOQUE0
  -------         PROC          _RESPONDE_WRITE_TARJETA_SECTOR1_BLOQUE2
  X:0003H         SYMBOL        Atributos_Expedidor
  X:0006H         SYMBOL        Buffer_Write_MF
  -------         DO            
  X:0009H         SYMBOL        Estado_expedidor
  -------         ENDDO         
  C:95A4H         LINE#         1191
  C:95AFH         LINE#         1192
  C:95AFH         LINE#         1194
  C:95B8H         LINE#         1195
  C:95C1H         LINE#         1196
  C:95D7H         LINE#         1197
  C:95E7H         LINE#         1198
  C:95E7H         LINE#         1199
  C:95EAH         LINE#         1200
  C:95FCH         LINE#         1201
  C:960AH         LINE#         1202
  C:9610H         LINE#         1203
  C:9612H         LINE#         1205
  C:9612H         LINE#         1206
  C:9615H         LINE#         1207
  C:9627H         LINE#         1208
  C:962DH         LINE#         1210
  C:962DH         LINE#         1211
  C:9632H         LINE#         1212
  -------         ENDPROC       _RESPONDE_WRITE_TARJETA_SECTOR1_BLOQUE2
  -------         PROC          _RESPONDE_WRITE_TARJETA_SECTOR1_BLOQUE0
  X:0003H         SYMBOL        Buffer_Write_MF
  C:AB61H         LINE#         1215
  C:AB6CH         LINE#         1216
  C:AB6CH         LINE#         1218
  C:AB75H         LINE#         1219
  C:AB7EH         LINE#         1220
BL51 BANKED LINKER/LOCATER V6.22.2.0                                                  08/20/2020  14:46:33  PAGE 111


  C:AB94H         LINE#         1222
  C:AB96H         LINE#         1223
  -------         ENDPROC       _RESPONDE_WRITE_TARJETA_SECTOR1_BLOQUE0
  -------         PROC          _PREGUNTA_LPR
  X:0003H         SYMBOL        Atributos_Expedidor
  -------         DO            
  X:0006H         SYMBOL        Estado_expedidor
  -------         ENDDO         
  C:A133H         LINE#         1226
  C:A13EH         LINE#         1227
  C:A13EH         LINE#         1229
  C:A14CH         LINE#         1230
  C:A14CH         LINE#         1232
  C:A15DH         LINE#         1233
  C:A169H         LINE#         1234
  C:A169H         LINE#         1235
  C:A16DH         LINE#         1236
  C:A16DH         LINE#         1237
  C:A16DH         LINE#         1239
  C:A17CH         LINE#         1240
  C:A17CH         LINE#         1242
  C:A17FH         LINE#         1243
  C:A184H         LINE#         1244
  C:A189H         LINE#         1245
  C:A18BH         LINE#         1247
  C:A18BH         LINE#         1248
  C:A18EH         LINE#         1249
  C:A18EH         LINE#         1250
  C:A193H         LINE#         1251
  -------         ENDPROC       _PREGUNTA_LPR
  -------         PROC          _RESPONDE_WRITE_TARJETA_SECTOR2_BLOQUE0
  X:0003H         SYMBOL        Buffer_Write_MF
  C:A666H         LINE#         1254
  C:A671H         LINE#         1255
  C:A671H         LINE#         1257
  C:A67AH         LINE#         1258
  C:A683H         LINE#         1259
  C:A68CH         LINE#         1260
  C:A695H         LINE#         1261
  C:A6AAH         LINE#         1262
  C:A6ACH         LINE#         1263
  -------         ENDPROC       _RESPONDE_WRITE_TARJETA_SECTOR2_BLOQUE0
  -------         PROC          _RESPUESTA_SEGUNDA_CLAVE
  X:0003H         SYMBOL        Atributos_Expedidor
  X:0006H         SYMBOL        Buffer_Write_MF
  C:A1F2H         LINE#         1264
  C:A1FDH         LINE#         1265
  C:A1FDH         LINE#         1266
  C:A206H         LINE#         1267
  C:A21CH         LINE#         1268
  C:A22CH         LINE#         1269
  C:A23EH         LINE#         1270
  C:A24CH         LINE#         1271
  C:A24EH         LINE#         1272
  -------         ENDPROC       _RESPUESTA_SEGUNDA_CLAVE
  -------         PROC          _ARMAR_TRAMA_TARJETA_SECTOR1_BLOQUE2
  X:0011H         SYMBOL        Atributos_Expedidor
BL51 BANKED LINKER/LOCATER V6.22.2.0                                                  08/20/2020  14:46:33  PAGE 112


  X:0014H         SYMBOL        Buffer_Write_MF
  C:5F4DH         LINE#         1284
  C:5F58H         LINE#         1285
  C:5F58H         LINE#         1289
  C:5F64H         LINE#         1293
  C:5F76H         LINE#         1294
  C:5F7DH         LINE#         1295
  C:5F84H         LINE#         1297
  C:5F99H         LINE#         1298
  C:5F99H         LINE#         1299
  C:5FB0H         LINE#         1300
  C:5FC9H         LINE#         1301
  C:5FC9H         LINE#         1302
  C:5FCCH         LINE#         1306
  C:5FCCH         LINE#         1308
  C:5FFBH         LINE#         1309
  C:602AH         LINE#         1311
  C:6042H         LINE#         1312
  C:6042H         LINE#         1313
  C:604FH         LINE#         1314
  C:6051H         LINE#         1316
  C:6051H         LINE#         1317
  C:6061H         LINE#         1318
  C:6061H         LINE#         1319
  C:6061H         LINE#         1321
  C:6073H         LINE#         1322
  C:607AH         LINE#         1323
  C:6081H         LINE#         1324
  C:6088H         LINE#         1325
  -------         ENDPROC       _ARMAR_TRAMA_TARJETA_SECTOR1_BLOQUE2
  -------         PROC          _ARMAR_TRAMA_TARJETA_SECTOR1_BLOQUE0
  X:000AH         SYMBOL        Buffer_Write_MF
  C:AD69H         LINE#         1327
  C:AD74H         LINE#         1328
  C:AD74H         LINE#         1330
  -------         ENDPROC       _ARMAR_TRAMA_TARJETA_SECTOR1_BLOQUE0
  -------         PROC          ARMAR_TRAMA_PTO_PARALELO_EXPEDIDOR
  -------         DO            
  X:00BCH         SYMBOL        buffer
  X:0006H         SYMBOL        ticket
  X:0011H         SYMBOL        j
  -------         ENDDO         
  C:56CEH         LINE#         1332
  C:56CEH         LINE#         1333
  C:56CEH         LINE#         1340
  C:56D4H         LINE#         1341
  C:56D8H         LINE#         1342
  C:56DBH         LINE#         1343
  C:56E7H         LINE#         1344
  C:56FEH         LINE#         1345
  C:570CH         LINE#         1347
  C:571DH         LINE#         1349
  C:572DH         LINE#         1350
  C:573FH         LINE#         1351
  C:574DH         LINE#         1352
  C:575BH         LINE#         1353
  C:5769H         LINE#         1354
BL51 BANKED LINKER/LOCATER V6.22.2.0                                                  08/20/2020  14:46:33  PAGE 113


  C:5777H         LINE#         1355
  C:5784H         LINE#         1357
  C:5793H         LINE#         1358
  C:5793H         LINE#         1359
  C:5796H         LINE#         1360
  C:5796H         LINE#         1361
  C:57AAH         LINE#         1362
  C:57B9H         LINE#         1363
  C:57C8H         LINE#         1364
  C:57D7H         LINE#         1365
  C:57E6H         LINE#         1366
  C:57F5H         LINE#         1367
  C:57FDH         LINE#         1368
  C:57FFH         LINE#         1370
  C:57FFH         LINE#         1371
  C:5810H         LINE#         1372
  C:5818H         LINE#         1373
  C:5818H         LINE#         1374
  C:581AH         LINE#         1376
  C:581AH         LINE#         1377
  C:582BH         LINE#         1378
  C:5837H         LINE#         1379
  C:5837H         LINE#         1380
  C:5845H         LINE#         1381
  C:5853H         LINE#         1382
  C:585FH         LINE#         1383
  C:5865H         LINE#         1384
  -------         ENDPROC       ARMAR_TRAMA_PTO_PARALELO_EXPEDIDOR
  -------         PROC          _ARMAR_TRAMA_PTO_PARALELO_EXPEDIDOR_MENSUAL
  X:0006H         SYMBOL        Atributos_Expedidor
  -------         DO            
  X:00D8H         SYMBOL        buffer
  -------         ENDDO         
  C:8380H         LINE#         1385
  C:838BH         LINE#         1386
  C:838BH         LINE#         1392
  C:8391H         LINE#         1393
  C:8395H         LINE#         1394
  C:83AAH         LINE#         1395
  C:83B4H         LINE#         1396
  C:83BEH         LINE#         1397
  C:83C8H         LINE#         1400
  C:83D1H         LINE#         1401
  C:83D8H         LINE#         1402
  C:83DDH         LINE#         1403
  C:83E2H         LINE#         1404
  C:83E7H         LINE#         1405
  C:83ECH         LINE#         1408
  C:83F8H         LINE#         1409
  C:83F8H         LINE#         1411
  C:83FFH         LINE#         1412
  C:8403H         LINE#         1413
  C:8407H         LINE#         1414
  C:840BH         LINE#         1415
  C:840FH         LINE#         1416
  C:8413H         LINE#         1418
  C:8413H         LINE#         1420
BL51 BANKED LINKER/LOCATER V6.22.2.0                                                  08/20/2020  14:46:33  PAGE 114


  C:8429H         LINE#         1421
  C:8429H         LINE#         1422
  C:842CH         LINE#         1423
  C:842EH         LINE#         1425
  C:842EH         LINE#         1426
  C:8431H         LINE#         1427
  C:8431H         LINE#         1429
  C:8437H         LINE#         1430
  C:843AH         LINE#         1431
  C:8440H         LINE#         1432
  -------         ENDPROC       _ARMAR_TRAMA_PTO_PARALELO_EXPEDIDOR_MENSUAL
  -------         PROC          _ARMAR_TRAMA_MONITOR
  X:0007H         SYMBOL        Atributos_Expedidor
  -------         DO            
  X:00F4H         SYMBOL        buffer
  X:000AH         SYMBOL        ticket
  X:0015H         SYMBOL        j
  -------         ENDDO         
  C:5CB4H         LINE#         1433
  C:5CBFH         LINE#         1434
  C:5CBFH         LINE#         1440
  C:5CC4H         LINE#         1441
  C:5CCAH         LINE#         1442
  C:5CD2H         LINE#         1443
  C:5CD6H         LINE#         1444
  C:5CDFH         LINE#         1445
  C:5CDFH         LINE#         1446
  C:5CE2H         LINE#         1447
  C:5CE4H         LINE#         1449
  C:5CE4H         LINE#         1450
  C:5CE7H         LINE#         1451
  C:5CE7H         LINE#         1454
  C:5CEAH         LINE#         1455
  C:5CEAH         LINE#         1456
  C:5CEFH         LINE#         1457
  C:5CFBH         LINE#         1458
  C:5D12H         LINE#         1459
  C:5D15H         LINE#         1461
  C:5D15H         LINE#         1462
  C:5D30H         LINE#         1463
  C:5D3EH         LINE#         1464
  C:5D4CH         LINE#         1465
  C:5D58H         LINE#         1466
  C:5D66H         LINE#         1467
  C:5D9FH         LINE#         1469
  C:5D9FH         LINE#         1470
  C:5DADH         LINE#         1471
  C:5DBBH         LINE#         1474
  C:5DC8H         LINE#         1475
  C:5DD6H         LINE#         1477
  C:5DE4H         LINE#         1478
  C:5DF1H         LINE#         1479
  C:5DFDH         LINE#         1480
  C:5E02H         LINE#         1481
  C:5E07H         LINE#         1482
  -------         ENDPROC       _ARMAR_TRAMA_MONITOR
  -------         PROC          _ARMAR_TRAMA_PLACA
BL51 BANKED LINKER/LOCATER V6.22.2.0                                                  08/20/2020  14:46:33  PAGE 115


  X:0009H         SYMBOL        Buffer_Write_MF
  -------         DO            
  D:0007H         SYMBOL        j
  -------         ENDDO         
  C:A35AH         LINE#         1483
  C:A365H         LINE#         1484
  C:A365H         LINE#         1487
  C:A371H         LINE#         1488
  C:A371H         LINE#         1489
  C:A38BH         LINE#         1490
  C:A38EH         LINE#         1491
  C:A39AH         LINE#         1492
  C:A39AH         LINE#         1493
  C:A3AEH         LINE#         1494
  C:A3B1H         LINE#         1495
  -------         ENDPROC       _ARMAR_TRAMA_PLACA
  C:AA01H         SYMBOL        L?0361
  C:AA0AH         SYMBOL        L?0362
  -------         PROC          L?0360
  -------         ENDPROC       L?0360
  C:AA01H         SYMBOL        L?0361
  C:AA0AH         SYMBOL        L?0362
  -------         PROC          _LOAD_SECUENCIA_EXPEDIDOR
  D:0001H         SYMBOL        Secuencia_Expedidor
  D:0004H         SYMBOL        estadoactivo
  X:000DH         SYMBOL        estadoactual
  X:000FH         SYMBOL        estadofuturo
  C:AA1DH         LINE#         1496
  C:AA1DH         LINE#         1497
  C:AA1DH         LINE#         1498
  C:AA24H         LINE#         1499
  C:AA2CH         LINE#         1500
  C:AA37H         LINE#         1501
  C:AA3DH         LINE#         1502
  -------         ENDPROC       _LOAD_SECUENCIA_EXPEDIDOR
  -------         PROC          _DISPARO_LOCK_ENTRADA_VEHICULO
  X:0003H         SYMBOL        Nombre_Mensual
  -------         DO            
  X:0006H         SYMBOL        Estado_expedidor
  -------         ENDDO         
  C:A06BH         LINE#         1503
  C:A076H         LINE#         1504
  C:A076H         LINE#         1506
  C:A07FH         LINE#         1508
  C:A084H         LINE#         1510
  C:A08BH         LINE#         1511
  C:A08BH         LINE#         1512
  C:A094H         LINE#         1513
  C:A096H         LINE#         1514
  C:A09BH         LINE#         1515
  C:A0ABH         LINE#         1516
  C:A0B1H         LINE#         1519
  C:A0B3H         LINE#         1520
  C:A0BAH         LINE#         1521
  C:A0BAH         LINE#         1522
  C:A0C3H         LINE#         1523
  C:A0C3H         LINE#         1524
BL51 BANKED LINKER/LOCATER V6.22.2.0                                                  08/20/2020  14:46:33  PAGE 116


  C:A0C6H         LINE#         1525
  C:A0C8H         LINE#         1527
  C:A0C8H         LINE#         1528
  C:A0CBH         LINE#         1529
  C:A0CBH         LINE#         1531
  C:A0CBH         LINE#         1532
  C:A0D0H         LINE#         1533
  -------         ENDPROC       _DISPARO_LOCK_ENTRADA_VEHICULO
  -------         PROC          _SEND_PTO_PARALELO
  D:0001H         SYMBOL        Atributos_Expedidor
  -------         DO            
  X:0003H         SYMBOL        Trama_Expedidor
  -------         ENDDO         
  C:9857H         LINE#         1534
  C:9857H         LINE#         1535
  C:9857H         LINE#         1537
  C:985AH         LINE#         1538
  C:985AH         LINE#         1539
  C:9868H         LINE#         1540
  C:986AH         LINE#         1542
  C:986AH         LINE#         1543
  C:9878H         LINE#         1544
  C:987BH         LINE#         1545
  C:987BH         LINE#         1546
  C:9899H         LINE#         1547
  C:98A2H         LINE#         1548
  C:98C5H         LINE#         1549
  C:98CEH         LINE#         1552
  C:98D1H         LINE#         1553
  C:98D7H         LINE#         1554
  C:98DCH         LINE#         1555
  C:98DEH         LINE#         1556
  -------         ENDPROC       _SEND_PTO_PARALELO
  -------         PROC          ENTREGA_CARD_CAPTURA
  -------         DO            
  X:0003H         SYMBOL        Estado_expedidor
  -------         ENDDO         
  C:9D5DH         LINE#         1560
  C:9D5DH         LINE#         1561
  C:9D5DH         LINE#         1565
  C:9D66H         LINE#         1566
  C:9D69H         LINE#         1567
  C:9D6CH         LINE#         1568
  C:9D6CH         LINE#         1569
  C:9D76H         LINE#         1570
  C:9D76H         LINE#         1571
  C:9D78H         LINE#         1572
  C:9D81H         LINE#         1573
  C:9D81H         LINE#         1574
  C:9D81H         LINE#         1576
  C:9D83H         LINE#         1578
  C:9D83H         LINE#         1579
  C:9D89H         LINE#         1580
  C:9D89H         LINE#         1582
  C:9D8FH         LINE#         1584
  C:9DA2H         LINE#         1585
  C:9DA2H         LINE#         1586
BL51 BANKED LINKER/LOCATER V6.22.2.0                                                  08/20/2020  14:46:33  PAGE 117


  C:9DB2H         LINE#         1587
  C:9DB2H         LINE#         1588
  C:9DB4H         LINE#         1589
  C:9DB4H         LINE#         1590
  C:9DB6H         LINE#         1591
  C:9DC1H         LINE#         1592
  C:9DC1H         LINE#         1593
  C:9DC7H         LINE#         1594
  C:9DC7H         LINE#         1595
  C:9DC7H         LINE#         1597
  C:9DC9H         LINE#         1599
  C:9DC9H         LINE#         1600
  C:9DCBH         LINE#         1601
  C:9DD0H         LINE#         1602
  C:9DD0H         LINE#         1603
  C:9DD0H         LINE#         1605
  C:9DD5H         LINE#         1606
  -------         ENDPROC       ENTREGA_CARD_CAPTURA
  -------         PROC          _WAIT_PLACA
  X:0003H         SYMBOL        secuencia_expedidor
  X:0006H         SYMBOL        estadoactivo
  -------         DO            
  X:0007H         SYMBOL        Estado_expedidor
  -------         ENDDO         
  C:8D6FH         LINE#         1607
  C:8D7DH         LINE#         1608
  C:8D7DH         LINE#         1612
  C:8D93H         LINE#         1613
  C:8D93H         LINE#         1614
  C:8D96H         LINE#         1615
  C:8D96H         LINE#         1617
  C:8D99H         LINE#         1618
  C:8D99H         LINE#         1619
  C:8D9BH         LINE#         1621
  C:8D9EH         LINE#         1622
  C:8D9EH         LINE#         1623
  C:8DA1H         LINE#         1624
  C:8DB5H         LINE#         1625
  C:8DC8H         LINE#         1626
  C:8DCAH         LINE#         1628
  C:8DCAH         LINE#         1629
  C:8DD0H         LINE#         1630
  C:8DE3H         LINE#         1631
  C:8DE3H         LINE#         1632
  C:8DF3H         LINE#         1633
  C:8DF3H         LINE#         1634
  C:8DF9H         LINE#         1635
  C:8DFBH         LINE#         1636
  C:8E06H         LINE#         1637
  C:8E06H         LINE#         1638
  C:8E0CH         LINE#         1639
  C:8E0CH         LINE#         1640
  C:8E0CH         LINE#         1641
  C:8E0CH         LINE#         1642
  C:8E11H         LINE#         1643
  -------         ENDPROC       _WAIT_PLACA
  -------         PROC          _VALIDA_VEHICULO_CARD_MENSUAL
BL51 BANKED LINKER/LOCATER V6.22.2.0                                                  08/20/2020  14:46:33  PAGE 118


  X:0011H         SYMBOL        Atributos_Expedidor
  -------         DO            
  X:0014H         SYMBOL        Estado_expedidor
  -------         ENDDO         
  C:9115H         LINE#         1644
  C:9120H         LINE#         1645
  C:9120H         LINE#         1648
  C:9129H         LINE#         1649
  C:913EH         LINE#         1650
  C:913EH         LINE#         1651
  C:9142H         LINE#         1652
  C:9144H         LINE#         1654
  C:9144H         LINE#         1655
  C:914BH         LINE#         1656
  C:914BH         LINE#         1658
  C:9154H         LINE#         1659
  C:9162H         LINE#         1660
  C:9162H         LINE#         1661
  C:917BH         LINE#         1662
  C:917BH         LINE#         1663
  C:9181H         LINE#         1664
  C:9181H         LINE#         1665
  C:9183H         LINE#         1668
  C:9183H         LINE#         1669
  C:9188H         LINE#         1670
  C:9191H         LINE#         1671
  C:9196H         LINE#         1672
  C:9196H         LINE#         1673
  C:9198H         LINE#         1675
  C:9198H         LINE#         1676
  C:91A1H         LINE#         1677
  C:91A7H         LINE#         1678
  C:91A7H         LINE#         1679
  C:91ACH         LINE#         1680
  -------         ENDPROC       _VALIDA_VEHICULO_CARD_MENSUAL
  -------         PROC          _TARJETA_MENSUAL
  X:000AH         SYMBOL        Atributos_Expedidor
  X:000DH         SYMBOL        Buffer_Write_MF
  -------         DO            
  X:0010H         SYMBOL        Estado_expedidor
  -------         ENDDO         
  C:8137H         LINE#         1681
  C:8142H         LINE#         1682
  C:8142H         LINE#         1687
  C:814DH         LINE#         1688
  C:814DH         LINE#         1689
  C:816BH         LINE#         1690
  C:816BH         LINE#         1692
  C:817CH         LINE#         1693
  C:817CH         LINE#         1694
  C:8184H         LINE#         1695
  C:8186H         LINE#         1697
  C:8186H         LINE#         1698
  C:818FH         LINE#         1699
  C:819FH         LINE#         1700
  C:81B2H         LINE#         1701
  C:81D2H         LINE#         1702
BL51 BANKED LINKER/LOCATER V6.22.2.0                                                  08/20/2020  14:46:33  PAGE 119


  C:81D8H         LINE#         1703
  C:81D8H         LINE#         1704
  C:81DAH         LINE#         1706
  C:81DAH         LINE#         1707
  C:81DFH         LINE#         1709
  C:81E4H         LINE#         1710
  C:81EDH         LINE#         1711
  C:81EDH         LINE#         1712
  C:81EDH         LINE#         1713
  C:81EFH         LINE#         1715
  C:81EFH         LINE#         1717
  C:81F5H         LINE#         1718
  C:81F5H         LINE#         1719
  C:81FAH         LINE#         1720
  -------         ENDPROC       _TARJETA_MENSUAL
  -------         PROC          _TARJETA_ROTACION
  D:0001H         SYMBOL        Atributos_Expedidor
  X:000DH         SYMBOL        Buffer_Write_MF
  C:AC64H         LINE#         1721
  C:AC64H         LINE#         1722
  C:AC64H         LINE#         1723
  C:AC69H         LINE#         1724
  C:AC72H         LINE#         1725
  C:AC92H         LINE#         1726
  C:AC94H         LINE#         1729
  -------         ENDPROC       _TARJETA_ROTACION
  -------         PROC          _VALIDA_TIPO_TARJETA
  X:0003H         SYMBOL        Atributos_Expedidor
  X:0006H         SYMBOL        Buffer_Write_MF
  -------         DO            
  X:0009H         SYMBOL        Estado_expedidor
  -------         ENDDO         
  C:5529H         LINE#         1730
  C:5534H         LINE#         1731
  C:5534H         LINE#         1733
  C:5541H         LINE#         1734
  C:5541H         LINE#         1735
  C:554AH         LINE#         1736
  C:5550H         LINE#         1737
  C:5550H         LINE#         1742
  C:555EH         LINE#         1743
  C:555EH         LINE#         1746
  C:557BH         LINE#         1747
  C:557BH         LINE#         1748
  C:5598H         LINE#         1750
  C:559AH         LINE#         1752
  C:559AH         LINE#         1753
  C:55A3H         LINE#         1754
  C:55A8H         LINE#         1755
  C:55AAH         LINE#         1756
  C:55AAH         LINE#         1757
  C:55AAH         LINE#         1758
  C:55ACH         LINE#         1761
  C:55ACH         LINE#         1762
  C:55B5H         LINE#         1764
  C:55D8H         LINE#         1765
  C:55D8H         LINE#         1766
BL51 BANKED LINKER/LOCATER V6.22.2.0                                                  08/20/2020  14:46:33  PAGE 120


  C:55DBH         LINE#         1768
  C:55DBH         LINE#         1769
  C:55E0H         LINE#         1770
  C:55E5H         LINE#         1771
  C:55E8H         LINE#         1772
  C:55E8H         LINE#         1773
  C:55EBH         LINE#         1774
  C:5603H         LINE#         1775
  C:5603H         LINE#         1777
  C:560CH         LINE#         1778
  C:5612H         LINE#         1779
  C:5612H         LINE#         1780
  C:561EH         LINE#         1781
  C:561EH         LINE#         1782
  C:563BH         LINE#         1784
  C:563BH         LINE#         1785
  C:565BH         LINE#         1786
  C:565DH         LINE#         1788
  C:565DH         LINE#         1789
  C:5666H         LINE#         1790
  C:566BH         LINE#         1791
  C:5670H         LINE#         1792
  C:5673H         LINE#         1793
  C:5673H         LINE#         1794
  C:5675H         LINE#         1796
  C:5675H         LINE#         1797
  C:567EH         LINE#         1798
  C:56A1H         LINE#         1799
  C:56A1H         LINE#         1800
  C:56A3H         LINE#         1802
  C:56A3H         LINE#         1803
  C:56A8H         LINE#         1804
  C:56ADH         LINE#         1805
  C:56B0H         LINE#         1806
  C:56B0H         LINE#         1807
  C:56B2H         LINE#         1809
  C:56B2H         LINE#         1810
  C:56BBH         LINE#         1811
  C:56C0H         LINE#         1813
  C:56C8H         LINE#         1814
  C:56C8H         LINE#         1816
  C:56CDH         LINE#         1817
  -------         ENDPROC       _VALIDA_TIPO_TARJETA
  -------         PROC          _HORARIOS
  X:0011H         SYMBOL        Atributos_Expedidor
  -------         DO            
  X:0014H         SYMBOL        Estado_Horario
  X:0015H         SYMBOL        Addr_horarios
  X:0020H         SYMBOL        dia_semana
  X:0021H         SYMBOL        EE_dia_semana
  X:0022H         SYMBOL        addr
  -------         ENDDO         
  C:6C22H         LINE#         1911
  C:6C2DH         LINE#         1912
  C:6C2DH         LINE#         1918
  C:6C38H         LINE#         1919
  C:6C38H         LINE#         1921
BL51 BANKED LINKER/LOCATER V6.22.2.0                                                  08/20/2020  14:46:33  PAGE 121


  C:6C44H         LINE#         1923
  C:6C6AH         LINE#         1927
  C:6C7DH         LINE#         1928
  C:6C7DH         LINE#         1930
  C:6C87H         LINE#         1931
  C:6C90H         LINE#         1932
  C:6C98H         LINE#         1933
  C:6CA1H         LINE#         1936
  C:6CC6H         LINE#         1937
  C:6CCFH         LINE#         1938
  C:6CD7H         LINE#         1939
  C:6CE0H         LINE#         1941
  C:6CEAH         LINE#         1942
  C:6CEAH         LINE#         1944
  C:6CF8H         LINE#         1945
  C:6CFAH         LINE#         1947
  C:6CFAH         LINE#         1949
  C:6D03H         LINE#         1950
  C:6D08H         LINE#         1951
  C:6D08H         LINE#         1952
  C:6D0AH         LINE#         1954
  C:6D0AH         LINE#         1956
  C:6D0FH         LINE#         1957
  C:6D14H         LINE#         1958
  C:6D1AH         LINE#         1960
  C:6D1AH         LINE#         1962
  C:6D1CH         LINE#         1964
  C:6D1CH         LINE#         1965
  C:6D22H         LINE#         1967
  C:6D2BH         LINE#         1968
  C:6D2BH         LINE#         1969
  C:6D30H         LINE#         1970
  -------         ENDPROC       _HORARIOS
  -------         PROC          _HORA_MAXIMA
  X:0030H         SYMBOL        addr
  -------         DO            
  X:0032H         SYMBOL        Hora_High
  X:0033H         SYMBOL        Minuto_High
  X:0034H         SYMBOL        HoraIni
  X:0035H         SYMBOL        MinutoIni
  X:0036H         SYMBOL        Hora_Prog
  -------         ENDDO         
  C:8ACAH         LINE#         1971
  C:8AD2H         LINE#         1972
  C:8AD2H         LINE#         1977
  C:8AE7H         LINE#         1978
  C:8B07H         LINE#         1979
  C:8B24H         LINE#         1980
  C:8B44H         LINE#         1981
  C:8B4CH         LINE#         1982
  C:8B54H         LINE#         1983
  C:8B5DH         LINE#         1985
  C:8B75H         LINE#         1986
  -------         ENDPROC       _HORA_MAXIMA
  -------         PROC          _EN_HORARIO
  X:002BH         SYMBOL        HoraNow
  D:0004H         SYMBOL        Hora_Prog
BL51 BANKED LINKER/LOCATER V6.22.2.0                                                  08/20/2020  14:46:33  PAGE 122


  X:002DH         SYMBOL        addr
  -------         DO            
  X:002FH         SYMBOL        Estado_Horario
  -------         ENDDO         
  C:9EBAH         LINE#         1987
  C:9EC8H         LINE#         1988
  C:9EC8H         LINE#         1991
  C:9ED5H         LINE#         1992
  C:9ED5H         LINE#         1995
  C:9EDEH         LINE#         1996
  C:9EF3H         LINE#         1999
  C:9F02H         LINE#         2000
  C:9F02H         LINE#         2002
  C:9F09H         LINE#         2003
  C:9F0FH         LINE#         2004
  C:9F11H         LINE#         2006
  C:9F11H         LINE#         2009
  C:9F15H         LINE#         2010
  C:9F15H         LINE#         2011
  C:9F15H         LINE#         2013
  C:9F17H         LINE#         2015
  C:9F17H         LINE#         2018
  C:9F20H         LINE#         2019
  C:9F25H         LINE#         2021
  C:9F25H         LINE#         2022
  C:9F2AH         LINE#         2023
  -------         ENDPROC       _EN_HORARIO
  -------         PROC          _BLOQUE_HORARIO
  X:0024H         SYMBOL        addr
  -------         DO            
  X:0026H         SYMBOL        Estado_Horario
  X:0027H         SYMBOL        HoraNow
  X:0029H         SYMBOL        Hora_Prog
  -------         ENDDO         
  C:6E3DH         LINE#         2025
  C:6E45H         LINE#         2026
  C:6E45H         LINE#         2032
  C:6E4EH         LINE#         2033
  C:6E56H         LINE#         2034
  C:6E5EH         LINE#         2035
  C:6E67H         LINE#         2036
  C:6E95H         LINE#         2041
  C:6E9EH         LINE#         2042
  C:6EB3H         LINE#         2043
  C:6ECBH         LINE#         2044
  C:6ECDH         LINE#         2045
  C:6ECDH         LINE#         2048
  C:6EE5H         LINE#         2049
  C:6EE5H         LINE#         2050
  C:6EEEH         LINE#         2051
  C:6F09H         LINE#         2052
  C:6F27H         LINE#         2053
  C:6F29H         LINE#         2055
  C:6F29H         LINE#         2056
  C:6F2EH         LINE#         2057
  C:6F33H         LINE#         2058
  C:6F38H         LINE#         2059
BL51 BANKED LINKER/LOCATER V6.22.2.0                                                  08/20/2020  14:46:33  PAGE 123


  C:6F38H         LINE#         2060
  C:6F38H         LINE#         2062
  C:6F3FH         LINE#         2063
  -------         ENDPROC       _BLOQUE_HORARIO
  -------         PROC          SECUENCIA_INICIO_EXPEDIDOR
  -------         DO            
  X:0002H         SYMBOL        temp
  -------         ENDDO         
  C:61CDH         LINE#         2071
  C:61CDH         LINE#         2072
  C:61CDH         LINE#         2074
  C:61EDH         LINE#         2075
  C:61EDH         LINE#         2076
  C:61EDH         LINE#         2079
  C:61F2H         LINE#         2080
  C:61F8H         LINE#         2083
  C:61FAH         LINE#         2084
  C:61FAH         LINE#         2095
  C:61FAH         LINE#         2097
  C:6208H         LINE#         2098
  C:6208H         LINE#         2099
  C:6214H         LINE#         2100
  C:6214H         LINE#         2101
  C:621AH         LINE#         2102
  C:621DH         LINE#         2103
  C:6225H         LINE#         2104
  C:6225H         LINE#         2105
  C:622CH         LINE#         2106
  C:6240H         LINE#         2107
  C:6240H         LINE#         2108
  C:6242H         LINE#         2110
  C:6242H         LINE#         2111
  C:6249H         LINE#         2112
  C:624FH         LINE#         2113
  C:624FH         LINE#         2114
  C:6252H         LINE#         2116
  C:6252H         LINE#         2117
  C:625BH         LINE#         2118
  C:626FH         LINE#         2119
  C:6275H         LINE#         2120
  C:6275H         LINE#         2121
  C:6278H         LINE#         2122
  C:6278H         LINE#         2128
  C:6278H         LINE#         2130
  C:627BH         LINE#         2131
  C:6281H         LINE#         2135
  C:6283H         LINE#         2136
  C:6283H         LINE#         2146
  C:6283H         LINE#         2148
  C:6291H         LINE#         2149
  C:6291H         LINE#         2150
  C:629DH         LINE#         2151
  C:629DH         LINE#         2152
  C:62A3H         LINE#         2153
  C:62A5H         LINE#         2154
  C:62ADH         LINE#         2155
  C:62ADH         LINE#         2156
BL51 BANKED LINKER/LOCATER V6.22.2.0                                                  08/20/2020  14:46:33  PAGE 124


  C:62B4H         LINE#         2157
  C:62C8H         LINE#         2158
  C:62C8H         LINE#         2159
  C:62CAH         LINE#         2161
  C:62CAH         LINE#         2162
  C:62D1H         LINE#         2163
  C:62D7H         LINE#         2164
  C:62D7H         LINE#         2165
  C:62D9H         LINE#         2167
  C:62D9H         LINE#         2168
  C:62E2H         LINE#         2169
  C:62F6H         LINE#         2170
  C:62FBH         LINE#         2171
  C:62FBH         LINE#         2173
  C:62FDH         LINE#         2174
  C:62FDH         LINE#         2180
  C:62FDH         LINE#         2182
  C:6303H         LINE#         2183
  C:6303H         LINE#         2186
  C:6303H         LINE#         2187
  C:630AH         LINE#         2188
  C:630AH         LINE#         2189
  C:630AH         LINE#         2190
  -------         ENDPROC       SECUENCIA_INICIO_EXPEDIDOR
  -------         PROC          _SECUENCIAEXPEDIDORMF
  X:0002H         SYMBOL        EstadoActivo
  -------         DO            
  X:010CH         SYMBOL        Buffer_Write_MF
  X:011DH         SYMBOL        Atributos_Expedidor
  X:012CH         SYMBOL        Secuencia_Expedidor
  X:0130H         SYMBOL        Nombre_Mensual
  -------         ENDDO         
  C:3700H         LINE#         2200
  C:3705H         LINE#         2201
  C:3705H         LINE#         2207
  C:375CH         LINE#         2208
  C:375CH         LINE#         2211
  C:375CH         LINE#         2213
  C:3772H         LINE#         2214
  C:3772H         LINE#         2215
  C:3774H         LINE#         2216
  C:3776H         LINE#         2217
  C:377BH         LINE#         2218
  C:3783H         LINE#         2219
  C:3788H         LINE#         2221
  C:3788H         LINE#         2223
  C:378BH         LINE#         2225
  C:378BH         LINE#         2227
  C:3794H         LINE#         2229
  C:3797H         LINE#         2236
  C:3797H         LINE#         2237
  C:379DH         LINE#         2238
  C:37A3H         LINE#         2239
  C:37A3H         LINE#         2240
  C:37A6H         LINE#         2242
  C:37A9H         LINE#         2243
  C:37B1H         LINE#         2244
BL51 BANKED LINKER/LOCATER V6.22.2.0                                                  08/20/2020  14:46:33  PAGE 125


  C:37B1H         LINE#         2246
  C:37B4H         LINE#         2247
  C:37B7H         LINE#         2248
  C:37BFH         LINE#         2249
  C:37BFH         LINE#         2250
  C:37CDH         LINE#         2251
  C:37CDH         LINE#         2252
  C:37D6H         LINE#         2253
  C:37D9H         LINE#         2254
  C:37E5H         LINE#         2255
  C:37E5H         LINE#         2256
  C:37EEH         LINE#         2257
  C:37F1H         LINE#         2259
  C:37F1H         LINE#         2260
  C:37FAH         LINE#         2261
  C:37FAH         LINE#         2262
  C:37FDH         LINE#         2263
  C:3805H         LINE#         2264
  C:3805H         LINE#         2265
  C:3813H         LINE#         2266
  C:3813H         LINE#         2267
  C:3829H         LINE#         2268
  C:382CH         LINE#         2269
  C:3838H         LINE#         2270
  C:3838H         LINE#         2271
  C:3841H         LINE#         2272
  C:3844H         LINE#         2274
  C:3844H         LINE#         2275
  C:384DH         LINE#         2276
  C:384DH         LINE#         2277
  C:3850H         LINE#         2278
  C:3858H         LINE#         2279
  C:3858H         LINE#         2280
  C:3861H         LINE#         2281
  C:3864H         LINE#         2282
  C:386CH         LINE#         2283
  C:386CH         LINE#         2284
  C:3882H         LINE#         2285
  C:3885H         LINE#         2286
  C:388DH         LINE#         2287
  C:388DH         LINE#         2288
  C:3890H         LINE#         2289
  C:3893H         LINE#         2291
  C:389BH         LINE#         2292
  C:389BH         LINE#         2293
  C:38A4H         LINE#         2294
  C:38A7H         LINE#         2296
  C:38A7H         LINE#         2297
  C:38B0H         LINE#         2298
  C:38B0H         LINE#         2299
  C:38B3H         LINE#         2300
  C:38B3H         LINE#         2301
  C:38B8H         LINE#         2302
  C:38D8H         LINE#         2303
  C:38DBH         LINE#         2304
  C:38DBH         LINE#         2305
  C:38E0H         LINE#         2306
BL51 BANKED LINKER/LOCATER V6.22.2.0                                                  08/20/2020  14:46:33  PAGE 126


  C:38E8H         LINE#         2307
  C:38EEH         LINE#         2308
  C:38F1H         LINE#         2309
  C:38F1H         LINE#         2310
  C:38F4H         LINE#         2311
  C:38FCH         LINE#         2312
  C:3902H         LINE#         2313
  C:3905H         LINE#         2314
  C:3905H         LINE#         2315
  C:3908H         LINE#         2316
  C:392DH         LINE#         2317
  C:3933H         LINE#         2318
  C:3935H         LINE#         2319
  C:3938H         LINE#         2320
  C:3938H         LINE#         2321
  C:3943H         LINE#         2322
  C:394BH         LINE#         2323
  C:3951H         LINE#         2324
  C:3954H         LINE#         2325
  C:3954H         LINE#         2326
  C:3965H         LINE#         2327
  C:396DH         LINE#         2328
  C:3973H         LINE#         2329
  C:3976H         LINE#         2330
  C:3976H         LINE#         2331
  C:397BH         LINE#         2332
  C:3999H         LINE#         2333
  C:399CH         LINE#         2334
  C:399CH         LINE#         2335
  C:39A1H         LINE#         2336
  C:39C1H         LINE#         2337
  C:39C4H         LINE#         2338
  C:39C4H         LINE#         2339
  C:39C9H         LINE#         2340
  C:39CBH         LINE#         2341
  C:39E9H         LINE#         2343
  C:39ECH         LINE#         2344
  C:39ECH         LINE#         2345
  C:39F1H         LINE#         2346
  C:3A11H         LINE#         2348
  C:3A14H         LINE#         2349
  C:3A14H         LINE#         2350
  C:3A19H         LINE#         2351
  C:3A21H         LINE#         2352
  C:3A27H         LINE#         2353
  C:3A2AH         LINE#         2354
  C:3A2AH         LINE#         2355
  C:3A2DH         LINE#         2356
  C:3A4DH         LINE#         2357
  C:3A50H         LINE#         2358
  C:3A50H         LINE#         2359
  C:3A52H         LINE#         2360
  C:3A55H         LINE#         2361
  C:3A58H         LINE#         2362
  C:3A58H         LINE#         2363
  C:3A61H         LINE#         2365
  C:3A64H         LINE#         2366
BL51 BANKED LINKER/LOCATER V6.22.2.0                                                  08/20/2020  14:46:33  PAGE 127


  C:3A64H         LINE#         2367
  C:3A72H         LINE#         2368
  C:3A75H         LINE#         2369
  C:3A75H         LINE#         2370
  C:3A78H         LINE#         2371
  C:3A80H         LINE#         2372
  C:3A86H         LINE#         2373
  C:3A89H         LINE#         2374
  C:3A89H         LINE#         2375
  C:3A92H         LINE#         2376
  C:3A95H         LINE#         2377
  C:3A95H         LINE#         2378
  C:3AACH         LINE#         2379
  C:3AAEH         LINE#         2380
  C:3AAEH         LINE#         2381
  C:3AB3H         LINE#         2382
  C:3AD6H         LINE#         2383
  C:3AD9H         LINE#         2384
  C:3ADBH         LINE#         2385
  C:3ADBH         LINE#         2386
  C:3ADEH         LINE#         2387
  C:3AFEH         LINE#         2388
  C:3B00H         LINE#         2389
  C:3B00H         LINE#         2390
  C:3B03H         LINE#         2391
  C:3B28H         LINE#         2392
  C:3B2AH         LINE#         2393
  C:3B2AH         LINE#         2394
  C:3B2FH         LINE#         2395
  C:3B2FH         LINE#         2397
  C:3B2FH         LINE#         2398
  C:3B34H         LINE#         2399
  -------         ENDPROC       _SECUENCIAEXPEDIDORMF
  -------         ENDMOD        VERIFICADOR

  -------         MODULE        MONITOR
  C:0000H         SYMBOL        _ICE_DUMMY_
  D:0080H         PUBLIC        P0
  D:0090H         PUBLIC        P1
  I:0011H         PUBLIC        placa
  C:AE04H         PUBLIC        Rx_Monitor
  B:0080H.0       PUBLIC        rx_ip
  B:0090H.7       PUBLIC        lock
  C:8441H         PUBLIC        _recibe_cmd_Monitor
  C:AF26H         PUBLIC        clear_placa
  C:91ADH         PUBLIC        _Valida_Trama_Monitor
  -------         PROC          _RECIBE_CMD_MONITOR
  X:0015H         SYMBOL        buffer_cmd
  -------         DO            
  X:0018H         SYMBOL        j
  X:0019H         SYMBOL        NumDatos
  X:001AH         SYMBOL        time_out
  X:001BH         SYMBOL        MaxChrRx
  X:001CH         SYMBOL        contador
  -------         ENDDO         
  C:8441H         LINE#         44
  C:844CH         LINE#         45
BL51 BANKED LINKER/LOCATER V6.22.2.0                                                  08/20/2020  14:46:33  PAGE 128


  C:844CH         LINE#         49
  C:8451H         LINE#         50
  C:8457H         LINE#         52
  C:8462H         LINE#         53
  C:8462H         LINE#         54
  C:8473H         LINE#         55
  C:8473H         LINE#         56
  C:847AH         LINE#         57
  C:847EH         LINE#         58
  C:8487H         LINE#         59
  C:8487H         LINE#         60
  C:8495H         LINE#         61
  C:84ACH         LINE#         62
  C:84ACH         LINE#         63
  C:84B2H         LINE#         64
  C:84B8H         LINE#         65
  C:84B8H         LINE#         66
  C:84BAH         LINE#         67
  C:84C2H         LINE#         68
  C:84C8H         LINE#         69
  C:84DAH         LINE#         70
  C:84E4H         LINE#         71
  C:84EDH         LINE#         73
  C:84FCH         LINE#         76
  C:84FCH         LINE#         77
  C:8501H         LINE#         78
  -------         ENDPROC       _RECIBE_CMD_MONITOR
  -------         PROC          _VALIDA_TRAMA_MONITOR
  X:0015H         SYMBOL        buffer
  D:0005H         SYMBOL        length_trama
  -------         DO            
  D:0007H         SYMBOL        j
  D:0006H         SYMBOL        p
  -------         ENDDO         
  C:91ADH         LINE#         83
  C:91B8H         LINE#         84
  C:91B8H         LINE#         85
  C:91BAH         LINE#         86
  C:91BCH         LINE#         87
  C:91BCH         LINE#         88
  C:91DAH         LINE#         89
  C:91DAH         LINE#         90
  C:91DCH         LINE#         91
  C:91E1H         LINE#         92
  C:91E2H         LINE#         93
  C:91F7H         LINE#         94
  C:91F7H         LINE#         97
  C:91F7H         LINE#         98
  C:9211H         LINE#         99
  C:9212H         LINE#         100
  C:9213H         LINE#         101
  C:921FH         LINE#         102
  C:9233H         LINE#         103
  C:9239H         LINE#         104
  C:923BH         LINE#         105
  C:9241H         LINE#         108
  C:9241H         LINE#         109
BL51 BANKED LINKER/LOCATER V6.22.2.0                                                  08/20/2020  14:46:33  PAGE 129


  C:9241H         LINE#         110
  C:9241H         LINE#         112
  C:9241H         LINE#         113
  -------         ENDPROC       _VALIDA_TRAMA_MONITOR
  -------         PROC          CLEAR_PLACA
  -------         DO            
  D:0007H         SYMBOL        i
  -------         ENDDO         
  C:AF26H         LINE#         114
  C:AF26H         LINE#         115
  C:AF26H         LINE#         117
  C:AF32H         LINE#         118
  C:AF32H         LINE#         119
  C:AF38H         LINE#         120
  C:AF3BH         LINE#         121
  C:AF3DH         LINE#         122
  -------         ENDPROC       CLEAR_PLACA
  -------         PROC          RX_MONITOR
  -------         DO            
  X:0008H         SYMBOL        Length_trama
  X:0009H         SYMBOL        buffer1
  -------         ENDDO         
  C:AE04H         LINE#         123
  C:AE04H         LINE#         124
  C:AE04H         LINE#         127
  C:AE13H         LINE#         128
  C:AE1CH         LINE#         129
  -------         ENDPROC       RX_MONITOR
  -------         ENDMOD        MONITOR

  -------         MODULE        ?C?FPADD
  C:1335H         PUBLIC        ?C?FPADD
  C:1331H         PUBLIC        ?C?FPSUB
  -------         ENDMOD        ?C?FPADD

  -------         MODULE        ?C?FPMUL
  C:1426H         PUBLIC        ?C?FPMUL
  -------         ENDMOD        ?C?FPMUL

  -------         MODULE        ?C?FCAST
  C:1536H         PUBLIC        ?C?FCASTC
  C:1531H         PUBLIC        ?C?FCASTI
  C:152CH         PUBLIC        ?C?FCASTL
  -------         ENDMOD        ?C?FCAST

  -------         MODULE        ?C?CASTF
  C:156AH         PUBLIC        ?C?CASTF
  -------         ENDMOD        ?C?CASTF

  -------         MODULE        PRINTF
  X:0078H         PUBLIC        ?_PRINTF?BYTE
  X:0078H         PUBLIC        ?_SPRINTF?BYTE
  C:32E8H         PUBLIC        _PRINTF
  C:32E2H         PUBLIC        _SPRINTF
  -------         ENDMOD        PRINTF

  -------         MODULE        POW
BL51 BANKED LINKER/LOCATER V6.22.2.0                                                  08/20/2020  14:46:33  PAGE 130


  X:0022H         PUBLIC        ?_pow?BYTE
  C:5B4EH         PUBLIC        _pow
  -------         ENDMOD        POW

  -------         MODULE        ?C?CHKFLOAT
  C:15EBH         PUBLIC        ?C?CHKFLOAT
  -------         ENDMOD        ?C?CHKFLOAT

  -------         MODULE        ?C?FPCMP
  C:1607H         PUBLIC        ?C?FPCMP
  C:1605H         PUBLIC        ?C?FPCMP3
  -------         ENDMOD        ?C?FPCMP

  -------         MODULE        ?C?FPNEG
  C:167EH         PUBLIC        ?C?FPNEG
  -------         ENDMOD        ?C?FPNEG

  -------         MODULE        ?C?FPROUND
  C:168FH         PUBLIC        ?C?FPROUND
  -------         ENDMOD        ?C?FPROUND

  -------         MODULE        ?C?FPCONVERT
  C:16CCH         PUBLIC        ?C?FPCONVERT
  -------         ENDMOD        ?C?FPCONVERT

  -------         MODULE        EXP
  C:8F81H         PUBLIC        _EXP
  -------         ENDMOD        EXP

  -------         MODULE        LOG
  C:65A1H         PUBLIC        _LOG
  C:659DH         PUBLIC        _LOG10
  -------         ENDMOD        LOG

  -------         MODULE        ?C?FPDIV
  C:17D4H         PUBLIC        ?C?FPDIV
  -------         ENDMOD        ?C?FPDIV

  -------         MODULE        ?C?FTNPWR
  C:18A1H         PUBLIC        ?C?FTNPWR
  -------         ENDMOD        ?C?FTNPWR

  -------         MODULE        ?C?COPY
  C:19FEH         PUBLIC        ?C?COPY
  -------         ENDMOD        ?C?COPY

  -------         MODULE        ?C?CLDPTR
  C:1A24H         PUBLIC        ?C?CLDPTR
  -------         ENDMOD        ?C?CLDPTR

  -------         MODULE        ?C?CLDOPTR
  C:1A3DH         PUBLIC        ?C?CLDOPTR
  -------         ENDMOD        ?C?CLDOPTR

  -------         MODULE        ?C?CSTPTR
  C:1A6AH         PUBLIC        ?C?CSTPTR
  -------         ENDMOD        ?C?CSTPTR
BL51 BANKED LINKER/LOCATER V6.22.2.0                                                  08/20/2020  14:46:33  PAGE 131



  -------         MODULE        ?C?CSTOPTR
  C:1A7CH         PUBLIC        ?C?CSTOPTR
  -------         ENDMOD        ?C?CSTOPTR

  -------         MODULE        ?C?IMUL
  C:1A9EH         PUBLIC        ?C?IMUL
  -------         ENDMOD        ?C?IMUL

  -------         MODULE        ?C?IILDX
  C:1AB0H         PUBLIC        ?C?IILDX
  -------         ENDMOD        ?C?IILDX

  -------         MODULE        ?C?LNEG
  C:1AC6H         PUBLIC        ?C?LNEG
  -------         ENDMOD        ?C?LNEG

  -------         MODULE        ?C?SLCMP
  C:1AD4H         PUBLIC        ?C?SLCMP
  -------         ENDMOD        ?C?SLCMP

  -------         MODULE        ?C?ULCMP
  C:1AEAH         PUBLIC        ?C?ULCMP
  -------         ENDMOD        ?C?ULCMP

  -------         MODULE        ?C?ULSHR
  C:1AFBH         PUBLIC        ?C?ULSHR
  -------         ENDMOD        ?C?ULSHR

  -------         MODULE        ?C?LSHL
  C:1B0EH         PUBLIC        ?C?LSHL
  -------         ENDMOD        ?C?LSHL

  -------         MODULE        ?C?LLDCODE
  C:1B21H         PUBLIC        ?C?LLDCODE
  -------         ENDMOD        ?C?LLDCODE

  -------         MODULE        ?C?LLDXDATA0
  C:1B31H         PUBLIC        ?C?LLDXDATA0
  -------         ENDMOD        ?C?LLDXDATA0

  -------         MODULE        ?C?LLDCODE0
  C:1B3DH         PUBLIC        ?C?LLDCODE0
  -------         ENDMOD        ?C?LLDCODE0

  -------         MODULE        ?C?LSTXDATA
  C:1B4DH         PUBLIC        ?C?LSTXDATA
  -------         ENDMOD        ?C?LSTXDATA

  -------         MODULE        ?C?LSTKXDATA
  C:1B59H         PUBLIC        ?C?LSTKXDATA
  -------         ENDMOD        ?C?LSTKXDATA

  -------         MODULE        ?C?PLDIXDATA
  C:1B8AH         PUBLIC        ?C?PLDIXDATA
  -------         ENDMOD        ?C?PLDIXDATA

BL51 BANKED LINKER/LOCATER V6.22.2.0                                                  08/20/2020  14:46:33  PAGE 132


  -------         MODULE        ?C?PSTXDATA
  C:1BA1H         PUBLIC        ?C?PSTXDATA
  -------         ENDMOD        ?C?PSTXDATA

  -------         MODULE        ?C?CCASE
  C:1BAAH         PUBLIC        ?C?CCASE
  -------         ENDMOD        ?C?CCASE

  -------         MODULE        STRCAT
  X:0047H         PUBLIC        ?_strcat?BYTE
  C:9F9AH         PUBLIC        _strcat
  -------         ENDMOD        STRCAT

  -------         MODULE        ?C?STRCMP
  C:1D4EH         PUBLIC        ?C?STRCMP
  -------         ENDMOD        ?C?STRCMP

  -------         MODULE        ?C?STRCPY
  C:1E37H         PUBLIC        ?C?STRCPY
  -------         ENDMOD        ?C?STRCPY

  -------         MODULE        STRLEN
  C:000EH         PUBLIC        _STRLEN
  -------         ENDMOD        STRLEN

  -------         MODULE        STRTOK
  X:0065H         PUBLIC        ?_strtok?BYTE
  C:78FFH         PUBLIC        _strtok
  -------         ENDMOD        STRTOK

  -------         MODULE        ATOL
  C:6D31H         PUBLIC        _atol
  -------         ENDMOD        ATOL

  -------         MODULE        ATOI
  C:7AC1H         PUBLIC        _atoi
  -------         ENDMOD        ATOI

  -------         MODULE        ?C?ILDIX
  C:1E54H         PUBLIC        ?C?ILDIX
  -------         ENDMOD        ?C?ILDIX

  -------         MODULE        ?C?LMUL
  C:1E6AH         PUBLIC        ?C?LMUL
  -------         ENDMOD        ?C?LMUL

  -------         MODULE        ISDIGIT
  C:B00EH         PUBLIC        _isdigit
  -------         ENDMOD        ISDIGIT

  -------         MODULE        ISSPACE
  C:AF80H         PUBLIC        _isspace
  -------         ENDMOD        ISSPACE

  -------         MODULE        STRSPN
  X:006BH         PUBLIC        ?_strspn?BYTE
  C:98DFH         PUBLIC        _strspn
BL51 BANKED LINKER/LOCATER V6.22.2.0                                                  08/20/2020  14:46:33  PAGE 133


  -------         ENDMOD        STRSPN

  -------         MODULE        STRPBRK
  X:006BH         PUBLIC        ?_strpbrk?BYTE
  C:99E4H         PUBLIC        _strpbrk
  -------         ENDMOD        STRPBRK

Program Size: data=138.7 xdata=530 code=45209
LINK/LOCATE RUN COMPLETE.  0 WARNING(S),  0 ERROR(S)
