BL51 BANKED LINKER/LOCATER V6.22.2.0                                                    11/11/2020  12:18:32  PAGE 1


BL51 BANKED LINKER/LOCATER V6.22.2.0, INVOKED BY:
C:\KEIL_V5\C51\BIN\BL51.EXE .\Objects\main.obj, .\Objects\Accescan.obj, .\Objects\Clock.obj, .\Objects\delay.obj, .\Obje
>> cts\eeprom.obj, .\Objects\io_sensores.obj, .\Objects\pantallas.obj, .\Objects\prog.obj, .\Objects\pto_paralelo.obj, .
>> \Objects\tibbo.obj, .\Objects\uart.obj, .\Objects\lintech.obj, .\Objects\verificador.obj, .\Objects\Monitor.obj TO .\
>> Objects\expedidor_v_01_raspberry PRINT (.\Listings\expedidor_v_01_raspberry.m51) RAMSIZE (256)


MEMORY MODEL: LARGE WITH FLOATING POINT ARITHMETIC


INPUT MODULES INCLUDED:
  .\Objects\main.obj (MAIN)
  .\Objects\Accescan.obj (ACCESCAN)
  .\Objects\Clock.obj (CLOCK)
  .\Objects\delay.obj (DELAY)
  .\Objects\eeprom.obj (EEPROM)
  .\Objects\io_sensores.obj (IO_SENSORES)
  .\Objects\pantallas.obj (PANTALLAS)
  .\Objects\prog.obj (PROG)
  .\Objects\pto_paralelo.obj (PTO_PARALELO)
  .\Objects\tibbo.obj (TIBBO)
  .\Objects\uart.obj (UART)
  .\Objects\lintech.obj (LINTECH)
  .\Objects\verificador.obj (VERIFICADOR)
  .\Objects\Monitor.obj (MONITOR)
  C:\KEIL_V5\C51\LIB\C51FPL.LIB (?C?FPADD)
  C:\KEIL_V5\C51\LIB\C51FPL.LIB (?C?FPMUL)
  C:\KEIL_V5\C51\LIB\C51FPL.LIB (?C?FCAST)
  C:\KEIL_V5\C51\LIB\C51FPL.LIB (?C?CASTF)
  C:\KEIL_V5\C51\LIB\C51FPL.LIB (PRINTF)
  C:\KEIL_V5\C51\LIB\C51FPL.LIB (POW)
  C:\KEIL_V5\C51\LIB\C51FPL.LIB (?C?FPGETOPN)
  C:\KEIL_V5\C51\LIB\C51FPL.LIB (?C?CHKFLOAT)
  C:\KEIL_V5\C51\LIB\C51FPL.LIB (?C?FPCMP)
  C:\KEIL_V5\C51\LIB\C51FPL.LIB (?C?FPNEG)
  C:\KEIL_V5\C51\LIB\C51FPL.LIB (?C?FPROUND)
  C:\KEIL_V5\C51\LIB\C51FPL.LIB (?C?FPCONVERT)
  C:\KEIL_V5\C51\LIB\C51FPL.LIB (EXP)
  C:\KEIL_V5\C51\LIB\C51FPL.LIB (LOG)
  C:\KEIL_V5\C51\LIB\C51FPL.LIB (?C?FPDIV)
  C:\KEIL_V5\C51\LIB\C51FPL.LIB (?C?FTNPWR)
  C:\KEIL_V5\C51\LIB\C51FPL.LIB (?C?FPSERIES)
  C:\KEIL_V5\C51\LIB\C51L.LIB (?C_STARTUP)
  C:\KEIL_V5\C51\LIB\C51L.LIB (?C?COPY)
  C:\KEIL_V5\C51\LIB\C51L.LIB (?C?CLDPTR)
  C:\KEIL_V5\C51\LIB\C51L.LIB (?C?CLDOPTR)
  C:\KEIL_V5\C51\LIB\C51L.LIB (?C?CSTPTR)
  C:\KEIL_V5\C51\LIB\C51L.LIB (?C?CSTOPTR)
  C:\KEIL_V5\C51\LIB\C51L.LIB (?C?IMUL)
  C:\KEIL_V5\C51\LIB\C51L.LIB (?C?IILDX)
  C:\KEIL_V5\C51\LIB\C51L.LIB (?C?LNEG)
  C:\KEIL_V5\C51\LIB\C51L.LIB (?C?SLCMP)
  C:\KEIL_V5\C51\LIB\C51L.LIB (?C?ULCMP)
  C:\KEIL_V5\C51\LIB\C51L.LIB (?C?ULSHR)
  C:\KEIL_V5\C51\LIB\C51L.LIB (?C?LSHL)
  C:\KEIL_V5\C51\LIB\C51L.LIB (?C?LLDCODE)
  C:\KEIL_V5\C51\LIB\C51L.LIB (?C?LLDXDATA0)
  C:\KEIL_V5\C51\LIB\C51L.LIB (?C?LLDCODE0)
BL51 BANKED LINKER/LOCATER V6.22.2.0                                                  11/11/2020  12:18:32  PAGE 2


  C:\KEIL_V5\C51\LIB\C51L.LIB (?C?LSTXDATA)
  C:\KEIL_V5\C51\LIB\C51L.LIB (?C?LSTKXDATA)
  C:\KEIL_V5\C51\LIB\C51L.LIB (?C?PLDIXDATA)
  C:\KEIL_V5\C51\LIB\C51L.LIB (?C?PSTXDATA)
  C:\KEIL_V5\C51\LIB\C51L.LIB (?C?CCASE)
  C:\KEIL_V5\C51\LIB\C51L.LIB (STRCAT)
  C:\KEIL_V5\C51\LIB\C51L.LIB (?C?STRCMP)
  C:\KEIL_V5\C51\LIB\C51L.LIB (?C?STRCPY)
  C:\KEIL_V5\C51\LIB\C51L.LIB (STRLEN)
  C:\KEIL_V5\C51\LIB\C51L.LIB (STRTOK)
  C:\KEIL_V5\C51\LIB\C51L.LIB (ATOL)
  C:\KEIL_V5\C51\LIB\C51L.LIB (ATOI)
  C:\KEIL_V5\C51\LIB\C51L.LIB (MALLOC)
  C:\KEIL_V5\C51\LIB\C51L.LIB (INIT_MEM)
  C:\KEIL_V5\C51\LIB\C51L.LIB (FREE)
  C:\KEIL_V5\C51\LIB\C51L.LIB (?C_INIT)
  C:\KEIL_V5\C51\LIB\C51L.LIB (?C?ILDIX)
  C:\KEIL_V5\C51\LIB\C51L.LIB (?C?LMUL)
  C:\KEIL_V5\C51\LIB\C51L.LIB (ISDIGIT)
  C:\KEIL_V5\C51\LIB\C51L.LIB (ISSPACE)
  C:\KEIL_V5\C51\LIB\C51L.LIB (STRSPN)
  C:\KEIL_V5\C51\LIB\C51L.LIB (STRPBRK)


LINK MAP OF MODULE:  .\Objects\expedidor_v_01_raspberry (MAIN)


            TYPE    BASE      LENGTH    RELOCATION   SEGMENT NAME
            -----------------------------------------------------

            * * * * * * *   D A T A   M E M O R Y   * * * * * * *
            REG     0000H     0008H     ABSOLUTE     "REG BANK 0"
            DATA    0008H     0005H     UNIT         _DATA_GROUP_
            DATA    000DH     0004H     UNIT         ?DT?UART
            IDATA   0011H     0009H     UNIT         ?ID?MONITOR
                    001AH     0006H                  *** GAP ***
            BIT     0020H.0   0001H.1   UNIT         _BIT_GROUP_
            BIT     0021H.1   0000H.2   UNIT         ?BI?MAIN
            BIT     0021H.3   0000H.2   UNIT         ?BI?UART
            BIT     0021H.5   0000H.1   UNIT         ?BI?EEPROM
            BIT     0021H.6   0000H.1   UNIT         ?BI?IO_SENSORES
            BIT     0021H.7   0000H.1   UNIT         ?BI?VERIFICADOR
            IDATA   0022H     0046H     UNIT         ?ID?MAIN
            IDATA   0068H     0001H     UNIT         ?STACK

            * * * * * * *  X D A T A   M E M O R Y  * * * * * * *
            XDATA   0000H     00B7H     UNIT         _XDATA_GROUP_
            XDATA   00B7H     008AH     UNIT         ?XD?VERIFICADOR
            XDATA   0141H     006CH     UNIT         ?XD?MAIN
            XDATA   01ADH     0059H     UNIT         ?XD?PROG
            XDATA   0206H     0050H     UNIT         ?XD?PANTALLAS
            XDATA   0256H     0008H     UNIT         ?XD?INIT_MEM
            XDATA   025EH     0003H     UNIT         ?XD?EEPROM
            XDATA   0261H     0003H     UNIT         ?XD?UART
            XDATA   0264H     0003H     UNIT         ?XD?STRTOK
            XDATA   0267H     0001H     UNIT         ?XD?ACCESCAN
            XDATA   0268H     0001H     UNIT         ?XD?CLOCK
BL51 BANKED LINKER/LOCATER V6.22.2.0                                                  11/11/2020  12:18:32  PAGE 3


            XDATA   0269H     0001H     UNIT         ?XD?IO_SENSORES

            * * * * * * *   C O D E   M E M O R Y   * * * * * * *
            CODE    0000H     0003H     ABSOLUTE     
            CODE    0003H     0008H     UNIT         ?PR?P_CK?CLOCK
            CODE    000BH     0003H     ABSOLUTE     
            CODE    000EH     0015H     UNIT         ?PR?_STRLEN?STRLEN
            CODE    0023H     0003H     ABSOLUTE     
            CODE    0026H     1308H     UNIT         ?CO?PROG
            CODE    132EH     0B8BH     UNIT         ?C?LIB_CODE
            CODE    1EB9H     07A3H     UNIT         ?CO?VERIFICADOR
            CODE    265CH     06F4H     UNIT         ?PR?_PANTALLALCD?PANTALLAS
            CODE    2D50H     0656H     UNIT         ?CO?PANTALLAS
            CODE    33A6H     0483H     UNIT         ?PR?PRINTF?PRINTF
            CODE    3829H     0475H     UNIT         ?PR?_SECUENCIAEXPEDIDORMF?VERIFICADOR
            CODE    3C9EH     035CH     UNIT         ?PR?VER_PROG?PROG
            CODE    3FFAH     033EH     UNIT         ?PR?_VALIDA_TRAMA_PTO?ACCESCAN
            CODE    4338H     02D0H     UNIT         ?PR?_TWO_BYTEHEX_DECIMAL?CLOCK
            CODE    4608H     02B7H     UNIT         ?PR?_PROG_HORARIO_DIAS?PROG
            CODE    48BFH     02B2H     UNIT         ?PR?_PANTALLALCD_LINEA_2?PANTALLAS
            CODE    4B71H     022CH     UNIT         ?PR?MENU?PROG
            CODE    4D9DH     0208H     UNIT         ?PR?_HASH_ID?PROG
            CODE    4FA5H     01FAH     UNIT         ?PR?_PROG_HORARIO_DESDE_HASTA?PROG
            CODE    519FH     01F5H     UNIT         ?PR?PROG_FECHA_VENCIMIENTO?PROG
            CODE    5394H     01DFH     UNIT         ?PR?_RESPONDE_LECTURA_TARJETA_SECTOR1_BLOQUE1?VERIFICADOR
            CODE    5573H     01B3H     UNIT         ?PR?COM_ISR?UART
            CODE    5726H     01A9H     UNIT         ?PR?_ARMAR_TRAMA_PTO_PARALELO_EXPEDIDOR?VERIFICADOR
            CODE    58CFH     01A4H     UNIT         ?PR?_VALIDA_TIPO_TARJETA?VERIFICADOR
            CODE    5A73H     017AH     UNIT         ?CO?LINTECH
            CODE    5BEDH     016EH     UNIT         ?PR?_BLOCK_READ_CLOCK_ASCII?CLOCK
            CODE    5D5BH     0166H     UNIT         ?PR?_POW?POW
            CODE    5EC1H     0154H     UNIT         ?PR?_ARMAR_TRAMA_MONITOR?VERIFICADOR
            CODE    6015H     0145H     UNIT         ?PR?PROG_HORARIOS?PROG
            CODE    615AH     0142H     UNIT         ?PR?_ARMAR_TRAMA_TARJETA_SECTOR1_BLOQUE2?VERIFICADOR
            CODE    629CH     013FH     UNIT         ?PR?_FREE?FREE
            CODE    63DBH     013EH     UNIT         ?PR?PROG_SIN_COBRO?PROG
            CODE    6519H     013EH     UNIT         ?PR?SECUENCIA_INICIO_EXPEDIDOR?VERIFICADOR
            CODE    6657H     0137H     UNIT         ?PR?VER_HORARIO?PROG
            CODE    678EH     012BH     UNIT         ?PR?_RESPONDE_LECTURA_TARJETA_SECTOR1_BLOQUE2?VERIFICADOR
            CODE    68B9H     0129H     UNIT         ?PR?LOG?LOG
            CODE    69E2H     0128H     UNIT         ?PR?_VER_HORARIO_DIAS?PROG
            CODE    6B0AH     011CH     UNIT         ?PR?LOAD_AND_SEND_ID_COD?PTO_PARALELO
            CODE    6C26H     011AH     UNIT         ?PR?_PROG_HORARIOS_ON_OFF?PROG
            CODE    6D40H     0119H     UNIT         ?PR?_VER_HORARIO_DESDE_HASTA?PROG
            CODE    6E59H     0115H     UNIT         ?PR?_VALIDAR_CLK?CLOCK
            CODE    6F6EH     010FH     UNIT         ?PR?_HORARIOS?VERIFICADOR
            CODE    707DH     010CH     UNIT         ?PR?_ATOL?ATOL
            CODE    7189H     0103H     UNIT         ?PR?_BLOQUE_HORARIO?VERIFICADOR
            CODE    728CH     0100H     UNIT         ?PR?_WR_MF?LINTECH
            CODE    738CH     00FCH     UNIT         ?PR?PROG_DEBUG?PROG
            CODE    7488H     00FCH     UNIT         ?PR?PROG_USE_LPR?PROG
            CODE    7584H     00FCH     UNIT         ?PR?TIPO_PANTALLA?PROG
            CODE    7680H     00FCH     UNIT         ?PR?PROG_ANTIPASSBACK?PROG
            CODE    777CH     00FCH     UNIT         ?PR?PROG_PLACA?PROG
            CODE    7878H     00FCH     UNIT         ?PR?PROG_VALIDAR_TIPO_VEHICULO_MENSUAL?PROG
            CODE    7974H     00FCH     UNIT         ?PR?PROG_APB_MENSUAL?PROG
            CODE    7A70H     00F1H     UNIT         ?PR?_WRITE_EEPROM_TICKET?EEPROM
BL51 BANKED LINKER/LOCATER V6.22.2.0                                                  11/11/2020  12:18:32  PAGE 4


            CODE    7B61H     00EAH     UNIT         ?PR?_MOV_CARD?LINTECH
            CODE    7C4BH     00E4H     UNIT         ?PR?_STRTOK?STRTOK
            CODE    7D2FH     00DEH     UNIT         ?PR?PROG_ADDRESS_HIGH_BOARD?PROG
            CODE    7E0DH     00DBH     UNIT         ?PR?_ATOI?ATOI
            CODE    7EE8H     00D7H     UNIT         ?PR?_ANALIZA_UID_CARD?VERIFICADOR
            CODE    7FBFH     00D6H     UNIT         ?PR?_CMD_LPR_SALIDA_WIEGAND?ACCESCAN
            CODE    8095H     00D1H     UNIT         ?PR?_ARMAR_TRAMA_PTO_PARALELO_EXPEDIDOR_MENSUAL?VERIFICADOR
            CODE    8166H     00D1H     UNIT         ?PR?_MALLOC?MALLOC
            CODE    8237H     00D0H     UNIT         ?C_INITSEG
            CODE    8307H     00CCH     UNIT         ?PR?_GRABA_SERIE?EEPROM
            CODE    83D3H     00CBH     UNIT         ?PR?_RTA_CMD_TRANSPORTE?VERIFICADOR
            CODE    849EH     00CAH     UNIT         ?PR?READ_EEPROM_TICKET?EEPROM
            CODE    8568H     00C9H     UNIT         ?PR?_CHECK_FECHAOUT?CLOCK
            CODE    8631H     00C4H     UNIT         ?PR?_BLOCK_READ_CLOCK?CLOCK
            CODE    86F5H     00C4H     UNIT         ?PR?_TARJETA_MENSUAL?VERIFICADOR
            CODE    87B9H     00C3H     UNIT         ?PR?_RD_MF?LINTECH
            CODE    887CH     00C2H     UNIT         ?PR?PROG_TARJETA_AUTOMATICA_O_BOTON?PROG
            CODE    893EH     00C1H     UNIT         ?PR?_RECIBE_CMD_MONITOR?MONITOR
            CODE    89FFH     00BFH     UNIT         ?CO?IO_SENSORES
            CODE    8ABEH     00BEH     UNIT         ?PR?ERROR_RX_PTO?VERIFICADOR
            CODE    8B7CH     00BDH     UNIT         ?PR?PROG_COD_PARK?PROG
            CODE    8C39H     00BDH     UNIT         ?PR?PROG_TIEMPO_GRACIA?PROG
            CODE    8CF6H     00BAH     UNIT         ?CO?TIBBO
            CODE    8DB0H     00B6H     UNIT         ?PR?PROG_ID_CLIENTE?PROG
            CODE    8E66H     00B5H     UNIT         ?PR?_WAIT_PLACA?VERIFICADOR
            CODE    8F1BH     00B4H     UNIT         ?PR?_SEND_PORT?PTO_PARALELO
            CODE    8FCFH     00ACH     UNIT         ?PR?_HORA_MAXIMA?VERIFICADOR
            CODE    907BH     00AAH     UNIT         ?PR?CLAVE_SEGURIDAD_S2?LINTECH
            CODE    9125H     00A9H     UNIT         ?PR?DWLOAD_EEPROM?LINTECH
            CODE    91CEH     00A6H     UNIT         ?PR?_BLOCK_READ_CLOCK_HEX?CLOCK
            CODE    9274H     00A5H     UNIT         ?PR?_VALIDA_TRAMA_MONITOR?MONITOR
            CODE    9319H     00A4H     UNIT         ?PR?_ARMAR_TRAMA_TARJETA_SECTOR1_BLOQUE1_CAMCEL?VERIFICADOR
            CODE    93BDH     009DH     UNIT         ?PR?_INICIALIZA?LINTECH
            CODE    945AH     009CH     UNIT         ?PR?_RESPUESTA_PLACA_CANCEL?VERIFICADOR
            CODE    94F6H     009AH     UNIT         ?PR?_RESPONDE_LECTURA_TARJETA_SECTOR1_BLOQUE0?VERIFICADOR
            CODE    9590H     009AH     UNIT         ?PR?EXP?EXP
            CODE    962AH     0099H     UNIT         ?PR?SHOW?PROG
            CODE    96C3H     0099H     UNIT         ?PR?_RECIBE_PORT?PTO_PARALELO
            CODE    975CH     0098H     UNIT         ?PR?_VALIDA_VEHICULO_CARD_MENSUAL?VERIFICADOR
            CODE    97F4H     0091H     UNIT         ?PR?_HEX_ASCII?CLOCK
            CODE    9885H     0091H     UNIT         ?PR?_CARD_INSERCION?LINTECH
            CODE    9916H     0090H     UNIT         ?PR?_LEE_CLK?CLOCK
            CODE    99A6H     0090H     UNIT         ?PR?_GETOPTION?PROG
            CODE    9A36H     008FH     UNIT         ?PR?_BLOCK_WRITE_CLOCK_ASCII?CLOCK
            CODE    9AC5H     008FH     UNIT         ?PR?_RESPONDE_WRITE_TARJETA_SECTOR1_BLOQUE2?VERIFICADOR
            CODE    9B54H     008DH     UNIT         ?PR?LOADVERIFY_EEPROM?LINTECH
            CODE    9BE1H     008CH     UNIT         ?C_C51STARTUP
            CODE    9C6DH     0089H     UNIT         ?PR?_RASPBERRY_DATA?PANTALLAS
            CODE    9CF6H     0088H     UNIT         ?PR?_SEND_PORTERR?PTO_PARALELO
            CODE    9D7EH     0088H     UNIT         ?PR?RX_DATA?TIBBO
            CODE    9E06H     0088H     UNIT         ?PR?UNIQUE_IDENTIFIER_UID?LINTECH
            CODE    9E8EH     0084H     UNIT         ?PR?_STRSPN?STRSPN
            CODE    9F12H     0082H     UNIT         ?PR?_SEND_PTO_PARALELO?VERIFICADOR
            CODE    9F94H     0081H     UNIT         ?PR?_STRPBRK?STRPBRK
            CODE    A015H     0080H     UNIT         ?PR?MSJ_LCD_INFORMATIVO?IO_SENSORES
            CODE    A095H     0080H     UNIT         ?PR?_INGRESADATO?PROG
            CODE    A115H     0080H     UNIT         ?PR?AUT_CARD_CHECK_STATUS?LINTECH
BL51 BANKED LINKER/LOCATER V6.22.2.0                                                  11/11/2020  12:18:32  PAGE 5


            CODE    A195H     0080H     UNIT         ?PR?POWER_OFF?LINTECH
            CODE    A215H     007CH     UNIT         ?PR?MAIN?MAIN
            CODE    A291H     007CH     UNIT         ?PR?_CHECK_STATUS?LINTECH
            CODE    A30DH     007CH     UNIT         ?PR?RESPONDE_ESTADO_SENSORES_TRANSPORTE?VERIFICADOR
            CODE    A389H     0079H     UNIT         ?PR?ENTREGA_CARD_CAPTURA?VERIFICADOR
            CODE    A402H     0077H     UNIT         ?PR?RESPONDE_TIPO_TARJETA?VERIFICADOR
            CODE    A479H     0073H     UNIT         ?PR?_DEBUGBUFFERMF?TIBBO
            CODE    A4ECH     0071H     UNIT         ?PR?_EN_HORARIO?VERIFICADOR
            CODE    A55DH     006FH     UNIT         ?PR?_ESCRIBIRMEMORIA?EEPROM
            CODE    A5CCH     006BH     UNIT         ?PR?_STRCAT?STRCAT
            CODE    A637H     0066H     UNIT         ?PR?_LEERMEMORIA?EEPROM
            CODE    A69DH     0066H     UNIT         ?PR?_DISPARO_LOCK_ENTRADA_VEHICULO?VERIFICADOR
            CODE    A703H     0062H     UNIT         ?PR?_LISTACOMANDOS?PROG
            CODE    A765H     005EH     UNIT         ?PR?_BYTEHEX_DECIMAL?CLOCK
            CODE    A7C3H     005DH     UNIT         ?PR?_RESPUESTA_SEGUNDA_CLAVE?VERIFICADOR
            CODE    A820H     005CH     UNIT         ?PR?_ARMAR_TRAMA_PLACA?VERIFICADOR
            CODE    A87CH     005BH     UNIT         ?PR?VALIDA_SENSOR1_AUTO?IO_SENSORES
            CODE    A8D7H     0056H     UNIT         ?PR?_WR_EEPROM?EEPROM
            CODE    A92DH     0052H     UNIT         ?PR?INGRESO_VEHICULO?VERIFICADOR
            CODE    A97FH     004EH     UNIT         ?PR?RELOJ_PANTALLA_LCD?PANTALLAS
            CODE    A9CDH     004DH     UNIT         ?PR?VARIABLE_INICIO?MAIN
            CODE    AA1AH     004DH     UNIT         ?PR?L_D_M?EEPROM
            CODE    AA67H     004CH     UNIT         ?PR?LEE_NO_TICKET?EEPROM
            CODE    AAB3H     004BH     UNIT         ?PR?_TX_AUX?TIBBO
            CODE    AAFEH     0049H     UNIT         ?PR?_DEBUG_TXT_TIBBO?TIBBO
            CODE    AB47H     0048H     UNIT         ?PR?FIRST_CLAVE?PROG
            CODE    AB8FH     0047H     UNIT         ?PR?_DEBUG_CHR_TIBBO?TIBBO
            CODE    ABD6H     0047H     UNIT         ?PR?_RESPONDE_WRITE_TARJETA_SECTOR2_BLOQUE0?VERIFICADOR
            CODE    AC1DH     0046H     UNIT         ?PR?_ESCRIBIRCADENASOFT_BUFFER?MAIN
            CODE    AC63H     0046H     UNIT         ?PR?_LCD_TXT_NUM_CHAR?PANTALLAS
            CODE    ACA9H     0046H     UNIT         ?PR?_DEBUG_HEXDEC?TIBBO
            CODE    ACEFH     0046H     UNIT         ?PR?_PREGUNTA_LPR?VERIFICADOR
            CODE    AD35H     0044H     UNIT         ?PR?_LCD_TXT?PANTALLAS
            CODE    AD79H     0043H     UNIT         ?PR?DIR_BOARD?IO_SENSORES
            CODE    ADBCH     0042H     UNIT         ?PR?_VALIDARCLAVE?PROG
            CODE    ADFEH     0041H     UNIT         ?PR?_MONITOR_CHR?ACCESCAN
            CODE    AE3FH     0041H     UNIT         ?PR?_TWO_ONE?CLOCK
            CODE    AE80H     0040H     UNIT         ?PR?_GETCMD?PROG
            CODE    AEC0H     003FH     UNIT         ?PR?_EB_CLK?CLOCK
            CODE    AEFFH     003EH     UNIT         ?PR?_PUTCHAR?MAIN
            CODE    AF3DH     003DH     UNIT         ?PR?_HEX_BCD?CLOCK
            CODE    AF7AH     003DH     UNIT         ?PR?_RD_EEPROM?EEPROM
            CODE    AFB7H     003DH     UNIT         ?PR?_LOAD_SECUENCIA_EXPEDIDOR?VERIFICADOR
            CODE    AFF4H     003CH     UNIT         ?PR?_INIT_MEMPOOL?INIT_MEM
            CODE    B030H     003BH     UNIT         ?CO?EEPROM
            CODE    B06BH     003BH     UNIT         ?PR?_DEBUG_PTO_PARALELO?TIBBO
            CODE    B0A6H     003BH     UNIT         ?PR?_COM_PUTCHAR?UART
            CODE    B0E1H     003AH     UNIT         ?PR?_DELAY_10MS?DELAY
            CODE    B11BH     0038H     UNIT         ?PR?VALIDASENSORESPASO?IO_SENSORES
            CODE    B153H     0036H     UNIT         ?PR?_RESPONDE_WRITE_TARJETA_SECTOR1_BLOQUE1?VERIFICADOR
            CODE    B189H     0036H     UNIT         ?PR?_RESPONDE_WRITE_TARJETA_SECTOR1_BLOQUE0?VERIFICADOR
            CODE    B1BFH     0034H     UNIT         ?PR?INCREMENTE_TICKET?EEPROM
            CODE    B1F3H     0034H     UNIT         ?PR?ADDR_HORARIOS?PROG
            CODE    B227H     0033H     UNIT         ?PR?TRAMA_VALIDACION_P_N?VERIFICADOR
            CODE    B25AH     0032H     UNIT         ?PR?_DEBUG_MONITOR?TIBBO
            CODE    B28CH     0031H     UNIT         ?PR?_TARJETA_ROTACION?VERIFICADOR
            CODE    B2BDH     0030H     UNIT         ?PR?PREGUNTA_PLACA?VERIFICADOR
BL51 BANKED LINKER/LOCATER V6.22.2.0                                                  11/11/2020  12:18:32  PAGE 6


            CODE    B2EDH     002EH     UNIT         ?PR?TIMER0_INT?MAIN
            CODE    B31BH     002CH     UNIT         ?PR?LOAD_AND_SEND_INFO_RELOJ?PTO_PARALELO
            CODE    B347H     002AH     UNIT         ?PR?COM_INITIALIZE?UART
            CODE    B371H     0028H     UNIT         ?PR?_WR_CLK?CLOCK
            CODE    B399H     0028H     UNIT         ?PR?COM_BAUDRATE?UART
            CODE    B3C1H     0028H     UNIT         ?PR?_ARMAR_TRAMA_TARJETA_SECTOR1_BLOQUE0?VERIFICADOR
            CODE    B3E9H     0027H     UNIT         ?PR?_TX_CHRLCD?PANTALLAS
            CODE    B410H     0026H     UNIT         ?PR?COM_GETCHAR?UART
            CODE    B436H     0026H     UNIT         ?PR?ANALIZA_PRESENCIA_MENSUAL?VERIFICADOR
            CODE    B45CH     0026H     UNIT         ?PR?RX_MONITOR?MONITOR
            CODE    B482H     0023H     UNIT         ?PR?ANALIZA_PRESENCIA_ROTACION?VERIFICADOR
            CODE    B4A5H     0022H     UNIT         ?PR?_E_D_M?EEPROM
            CODE    B4C7H     0020H     UNIT         ?PR?ACKD?EEPROM
            CODE    B4E7H     0020H     UNIT         ?PR?ACK_LECT?EEPROM
            CODE    B507H     001FH     UNIT         ?PR?VALIDASENSOR?IO_SENSORES
            CODE    B526H     001FH     UNIT         ?PR?TIME_BIT?TIBBO
            CODE    B545H     001EH     UNIT         ?PR?_BCD_HEX?CLOCK
            CODE    B563H     001BH     UNIT         ?PR?_DELAY_1MS?DELAY
            CODE    B57EH     0018H     UNIT         ?PR?CLEAR_PLACA?MONITOR
            CODE    B596H     0017H     UNIT         ?PR?DISPLAYCURSOR?PROG
            CODE    B5ADH     0017H     UNIT         ?PR?TIME_MBIT?TIBBO
            CODE    B5C4H     0016H     UNIT         ?PR?DIR_BOARD_MONITOR?IO_SENSORES
            CODE    B5DAH     0014H     UNIT         ?PR?DEBUG_DIVIDIR_TEXTO?TIBBO
            CODE    B5EEH     0014H     UNIT         ?PR?_ISSPACE?ISSPACE
            CODE    B602H     0012H     UNIT         ?PR?_DELAY_20US?DELAY
            CODE    B614H     0012H     UNIT         ?PR?START?EEPROM
            CODE    B626H     0012H     UNIT         ?PR?BOTTON?IO_SENSORES
            CODE    B638H     0012H     UNIT         ?PR?PULSO_BUS?PTO_PARALELO
            CODE    B64AH     0012H     UNIT         ?PR?COM_RBUFLEN?UART
            CODE    B65CH     0012H     UNIT         ?PR?COM_TBUFLEN?UART
            CODE    B66EH     0010H     UNIT         ?PR?INI_TIMER?MAIN
            CODE    B67EH     0010H     UNIT         ?PR?INICIA_BOARD?MAIN
            CODE    B68EH     000FH     UNIT         ?PR?_ISDIGIT?ISDIGIT
            CODE    B69DH     000CH     UNIT         ?PR?_GETKEY?MAIN
            CODE    B6A9H     000AH     UNIT         ?PR?COND_INI_PTO?PTO_PARALELO
            CODE    B6B3H     0009H     UNIT         ?PR?STOP?EEPROM
            CODE    B6BCH     0009H     UNIT         ?PR?CAPTURA_EXPULSA?VERIFICADOR
            CODE    B6C5H     0007H     UNIT         ?PR?COND_INI_CLOCK?CLOCK
            CODE    B6CCH     0007H     UNIT         ?PR?SEL_FUNCION?IO_SENSORES
            CODE    B6D3H     0007H     UNIT         ?PR?SEL_AUTO?IO_SENSORES
            CODE    B6DAH     0007H     UNIT         ?PR?SEL_PULSA?IO_SENSORES
            CODE    B6E1H     0007H     UNIT         ?PR?SEL_SENSOR2?IO_SENSORES
            CODE    B6E8H     0007H     UNIT         ?PR?SEL_SENSOR1?IO_SENSORES
            CODE    B6EFH     0007H     UNIT         ?PR?SEL_DIR1?IO_SENSORES
            CODE    B6F6H     0007H     UNIT         ?PR?SEL_DIR2?IO_SENSORES
            CODE    B6FDH     0006H     UNIT         ?PR?P_ME?EEPROM
            CODE    B703H     0005H     UNIT         ?PR?ON_TIMER0_INTERRUP?MAIN
            CODE    B708H     0005H     UNIT         ?CO?ACCESCAN
            CODE    B70DH     0005H     UNIT         ?PR?COND_INI_TIBBO?TIBBO
            CODE    B712H     0003H     UNIT         ?PR?OFF_TIMER0_INTERRUP?MAIN
            CODE    B715H     0003H     UNIT         ?CO?PTO_PARALELO
            CODE    B718H     0001H     UNIT         ?PR?DELAY?DELAY



OVERLAY MAP OF MODULE:   .\Objects\expedidor_v_01_raspberry (MAIN)

BL51 BANKED LINKER/LOCATER V6.22.2.0                                                  11/11/2020  12:18:32  PAGE 7



SEGMENT                                             BIT_GROUP          DATA_GROUP          XDATA_GROUP
  +--> CALLED SEGMENT                            START    LENGTH     START    LENGTH     START    LENGTH
--------------------------------------------------------------------------------------------------------
?C_C51STARTUP                                    -----    -----      -----    -----      -----    -----
  +--> ?PR?MAIN?MAIN
  +--> ?C_INITSEG

?PR?MAIN?MAIN                                    -----    -----      -----    -----      0000H    0001H
  +--> ?PR?INI_TIMER?MAIN
  +--> ?PR?ON_TIMER0_INTERRUP?MAIN
  +--> ?PR?COM_INITIALIZE?UART
  +--> ?PR?COM_BAUDRATE?UART
  +--> ?PR?INICIA_BOARD?MAIN
  +--> ?PR?TIME_BIT?TIBBO
  +--> ?PR?_DELAY_20US?DELAY
  +--> ?PR?TIME_MBIT?TIBBO
  +--> ?PR?_TX_AUX?TIBBO
  +--> ?PR?SEL_FUNCION?IO_SENSORES
  +--> ?PR?MENU?PROG
  +--> ?PR?VARIABLE_INICIO?MAIN
  +--> ?PR?SECUENCIA_INICIO_EXPEDIDOR?VERIFI...
  +--> ?PR?RX_MONITOR?MONITOR
  +--> ?PR?_SECUENCIAEXPEDIDORMF?VERIFICADOR
  +--> ?PR?_RECIBE_PORT?PTO_PARALELO
  +--> ?PR?_DEBUG_PTO_PARALELO?TIBBO
  +--> ?PR?_VALIDA_TRAMA_PTO?ACCESCAN
  +--> ?PR?MSJ_LCD_INFORMATIVO?IO_SENSORES

?PR?COM_INITIALIZE?UART                          -----    -----      -----    -----      -----    -----
  +--> ?PR?COM_BAUDRATE?UART

?PR?INICIA_BOARD?MAIN                            -----    -----      -----    -----      -----    -----
  +--> ?PR?COND_INI_TIBBO?TIBBO
  +--> ?PR?COND_INI_CLOCK?CLOCK
  +--> ?PR?COND_INI_PTO?PTO_PARALELO

?PR?_TX_AUX?TIBBO                                -----    -----      -----    -----      -----    -----
  +--> ?PR?TIME_BIT?TIBBO

?PR?MENU?PROG                                    -----    -----      -----    -----      0001H    0045H
  +--> ?CO?PROG
  +--> ?PR?PRINTF?PRINTF
  +--> ?PR?_RD_EEPROM?EEPROM
  +--> ?PR?FIRST_CLAVE?PROG
  +--> ?PR?_WR_EEPROM?EEPROM
  +--> ?PR?_LEERMEMORIA?EEPROM
  +--> ?PR?_HASH_ID?PROG
  +--> ?PR?_INGRESADATO?PROG
  +--> ?PR?_GETCMD?PROG
  +--> ?PR?_ESCRIBIRMEMORIA?EEPROM
  +--> ?PR?_VALIDARCLAVE?PROG
  +--> ?PR?DISPLAYCURSOR?PROG
  +--> ?PR?_STRLEN?STRLEN
  +--> ?PR?_GETOPTION?PROG
  +--> ?PR?_STRCAT?STRCAT
  +--> ?PR?_LISTACOMANDOS?PROG
BL51 BANKED LINKER/LOCATER V6.22.2.0                                                  11/11/2020  12:18:32  PAGE 8


  +--> ?PR?PROG_ID_CLIENTE?PROG
  +--> ?PR?PROG_COD_PARK?PROG
  +--> ?PR?PROG_TIEMPO_GRACIA?PROG
  +--> ?PR?PROG_SIN_COBRO?PROG
  +--> ?PR?PROG_DEBUG?PROG
  +--> ?PR?PROG_USE_LPR?PROG
  +--> ?PR?TIPO_PANTALLA?PROG
  +--> ?PR?PROG_TARJETA_AUTOMATICA_O_BOTON?PROG
  +--> ?PR?PROG_ANTIPASSBACK?PROG
  +--> ?PR?PROG_PLACA?PROG
  +--> ?PR?PROG_ADDRESS_HIGH_BOARD?PROG
  +--> ?PR?PROG_HORARIOS?PROG
  +--> ?PR?PROG_VALIDAR_TIPO_VEHICULO_MENSUA...
  +--> ?PR?PROG_APB_MENSUAL?PROG
  +--> ?PR?VER_PROG?PROG
  +--> ?PR?SHOW?PROG
  +--> ?PR?PROG_FECHA_VENCIMIENTO?PROG

?PR?PRINTF?PRINTF                                0020H.0  0001H.1    0008H    0005H      0077H    0030H
  +--> ?PR?_PUTCHAR?MAIN

?PR?_PUTCHAR?MAIN                                -----    -----      -----    -----      00A7H    0003H
  +--> ?PR?_COM_PUTCHAR?UART

?PR?_COM_PUTCHAR?UART                            -----    -----      -----    -----      00AAH    0001H
  +--> ?PR?COM_TBUFLEN?UART

?PR?_RD_EEPROM?EEPROM                            -----    -----      -----    -----      -----    -----
  +--> ?PR?START?EEPROM
  +--> ?PR?ACK_LECT?EEPROM
  +--> ?PR?_E_D_M?EEPROM
  +--> ?PR?ACKD?EEPROM
  +--> ?PR?L_D_M?EEPROM
  +--> ?PR?STOP?EEPROM

?PR?ACK_LECT?EEPROM                              -----    -----      -----    -----      -----    -----
  +--> ?PR?_E_D_M?EEPROM

?PR?_E_D_M?EEPROM                                -----    -----      -----    -----      -----    -----
  +--> ?PR?P_ME?EEPROM

?PR?ACKD?EEPROM                                  -----    -----      -----    -----      -----    -----
  +--> ?PR?_E_D_M?EEPROM

?PR?FIRST_CLAVE?PROG                             -----    -----      -----    -----      0046H    000BH
  +--> ?PR?_BLOCK_READ_CLOCK_ASCII?CLOCK
  +--> ?PR?_HASH_ID?PROG
  +--> ?PR?_ESCRIBIRMEMORIA?EEPROM

?PR?_BLOCK_READ_CLOCK_ASCII?CLOCK                -----    -----      -----    -----      0051H    0003H
  +--> ?PR?_LEE_CLK?CLOCK

?PR?_LEE_CLK?CLOCK                               -----    -----      -----    -----      00B1H    0003H
  +--> ?PR?_DELAY_20US?DELAY
  +--> ?PR?_EB_CLK?CLOCK
  +--> ?PR?P_CK?CLOCK

BL51 BANKED LINKER/LOCATER V6.22.2.0                                                  11/11/2020  12:18:32  PAGE 9


?PR?_EB_CLK?CLOCK                                -----    -----      -----    -----      00B4H    0003H
  +--> ?PR?P_CK?CLOCK

?PR?P_CK?CLOCK                                   -----    -----      -----    -----      -----    -----
  +--> ?PR?DELAY?DELAY

?PR?_HASH_ID?PROG                                -----    -----      -----    -----      005DH    003FH
  +--> ?CO?PROG
  +--> ?PR?_LEERMEMORIA?EEPROM
  +--> ?PR?_CHECK_FECHAOUT?CLOCK
  +--> ?PR?_STRLEN?STRLEN

?PR?_LEERMEMORIA?EEPROM                          -----    -----      -----    -----      009CH    0005H
  +--> ?PR?_RD_EEPROM?EEPROM

?PR?_CHECK_FECHAOUT?CLOCK                        -----    -----      -----    -----      009CH    0012H
  +--> ?PR?_BLOCK_READ_CLOCK_HEX?CLOCK

?PR?_BLOCK_READ_CLOCK_HEX?CLOCK                  -----    -----      -----    -----      00AEH    0003H
  +--> ?PR?_LEE_CLK?CLOCK
  +--> ?PR?_BCD_HEX?CLOCK

?PR?_ESCRIBIRMEMORIA?EEPROM                      -----    -----      -----    -----      005DH    0005H
  +--> ?PR?_WR_EEPROM?EEPROM

?PR?_WR_EEPROM?EEPROM                            -----    -----      -----    -----      -----    -----
  +--> ?PR?START?EEPROM
  +--> ?PR?ACKD?EEPROM
  +--> ?PR?_E_D_M?EEPROM
  +--> ?PR?STOP?EEPROM
  +--> ?PR?_DELAY_1MS?DELAY
  +--> ?PR?_DELAY_20US?DELAY

?PR?_DELAY_1MS?DELAY                             -----    -----      -----    -----      -----    -----
  +--> ?PR?_DELAY_20US?DELAY

?PR?_INGRESADATO?PROG                            -----    -----      -----    -----      0071H    0004H
  +--> ?PR?_GETKEY?MAIN
  +--> ?CO?PROG
  +--> ?PR?PRINTF?PRINTF
  +--> ?PR?_PUTCHAR?MAIN

?PR?_GETKEY?MAIN                                 -----    -----      -----    -----      -----    -----
  +--> ?PR?COM_GETCHAR?UART

?PR?COM_GETCHAR?UART                             -----    -----      -----    -----      -----    -----
  +--> ?PR?COM_RBUFLEN?UART

?PR?_GETCMD?PROG                                 -----    -----      -----    -----      005DH    0007H
  +--> ?CO?PROG
  +--> ?PR?_STRTOK?STRTOK

?PR?_STRTOK?STRTOK                               -----    -----      -----    -----      0064H    0006H
  +--> ?PR?_STRSPN?STRSPN
  +--> ?PR?_STRPBRK?STRPBRK

?PR?_STRSPN?STRSPN                               -----    -----      -----    -----      006AH    0008H
BL51 BANKED LINKER/LOCATER V6.22.2.0                                                  11/11/2020  12:18:32  PAGE 10



?PR?_STRPBRK?STRPBRK                             -----    -----      -----    -----      006AH    0009H

?PR?_VALIDARCLAVE?PROG                           -----    -----      -----    -----      005DH    000EH

?PR?DISPLAYCURSOR?PROG                           -----    -----      -----    -----      -----    -----
  +--> ?CO?PROG
  +--> ?PR?PRINTF?PRINTF

?PR?_GETOPTION?PROG                              -----    -----      -----    -----      0046H    000BH
  +--> ?CO?PROG
  +--> ?PR?_STRTOK?STRTOK

?PR?_STRCAT?STRCAT                               -----    -----      -----    -----      0046H    0009H

?PR?_LISTACOMANDOS?PROG                          -----    -----      -----    -----      0046H    0007H

?PR?PROG_ID_CLIENTE?PROG                         -----    -----      -----    -----      0046H    000CH
  +--> ?PR?_RD_EEPROM?EEPROM
  +--> ?CO?PROG
  +--> ?PR?PRINTF?PRINTF
  +--> ?PR?_INGRESADATO?PROG
  +--> ?PR?_ATOI?ATOI
  +--> ?PR?_WR_EEPROM?EEPROM

?PR?_ATOI?ATOI                                   0020H.0  0000H.1    -----    -----      0071H    0005H
  +--> ?PR?_ISSPACE?ISSPACE
  +--> ?PR?_ISDIGIT?ISDIGIT

?PR?PROG_COD_PARK?PROG                           -----    -----      -----    -----      0046H    000CH
  +--> ?PR?_RD_EEPROM?EEPROM
  +--> ?CO?PROG
  +--> ?PR?PRINTF?PRINTF
  +--> ?PR?_INGRESADATO?PROG
  +--> ?PR?_ATOI?ATOI
  +--> ?PR?_WR_EEPROM?EEPROM

?PR?PROG_TIEMPO_GRACIA?PROG                      -----    -----      -----    -----      0046H    000CH
  +--> ?PR?_RD_EEPROM?EEPROM
  +--> ?CO?PROG
  +--> ?PR?PRINTF?PRINTF
  +--> ?PR?_INGRESADATO?PROG
  +--> ?PR?_ATOI?ATOI
  +--> ?PR?_WR_EEPROM?EEPROM

?PR?PROG_SIN_COBRO?PROG                          -----    -----      -----    -----      0046H    000CH
  +--> ?PR?_RD_EEPROM?EEPROM
  +--> ?CO?PROG
  +--> ?PR?PRINTF?PRINTF
  +--> ?PR?_INGRESADATO?PROG
  +--> ?PR?_ATOI?ATOI
  +--> ?PR?_WR_EEPROM?EEPROM

?PR?PROG_DEBUG?PROG                              -----    -----      -----    -----      0046H    000CH
  +--> ?PR?_RD_EEPROM?EEPROM
  +--> ?CO?PROG
  +--> ?PR?PRINTF?PRINTF
BL51 BANKED LINKER/LOCATER V6.22.2.0                                                  11/11/2020  12:18:32  PAGE 11


  +--> ?PR?_INGRESADATO?PROG
  +--> ?PR?_ATOI?ATOI
  +--> ?PR?_WR_EEPROM?EEPROM

?PR?PROG_USE_LPR?PROG                            -----    -----      -----    -----      0046H    000CH
  +--> ?PR?_RD_EEPROM?EEPROM
  +--> ?CO?PROG
  +--> ?PR?PRINTF?PRINTF
  +--> ?PR?_INGRESADATO?PROG
  +--> ?PR?_ATOI?ATOI
  +--> ?PR?_WR_EEPROM?EEPROM

?PR?TIPO_PANTALLA?PROG                           -----    -----      -----    -----      0046H    000CH
  +--> ?PR?_RD_EEPROM?EEPROM
  +--> ?CO?PROG
  +--> ?PR?PRINTF?PRINTF
  +--> ?PR?_INGRESADATO?PROG
  +--> ?PR?_ATOI?ATOI
  +--> ?PR?_WR_EEPROM?EEPROM

?PR?PROG_TARJETA_AUTOMATICA_O_BOTON?PROG         -----    -----      -----    -----      0046H    000CH
  +--> ?PR?_RD_EEPROM?EEPROM
  +--> ?CO?PROG
  +--> ?PR?PRINTF?PRINTF
  +--> ?PR?_INGRESADATO?PROG
  +--> ?PR?_ATOI?ATOI
  +--> ?PR?_WR_EEPROM?EEPROM

?PR?PROG_ANTIPASSBACK?PROG                       -----    -----      -----    -----      0046H    000CH
  +--> ?PR?_RD_EEPROM?EEPROM
  +--> ?CO?PROG
  +--> ?PR?PRINTF?PRINTF
  +--> ?PR?_INGRESADATO?PROG
  +--> ?PR?_ATOI?ATOI
  +--> ?PR?_WR_EEPROM?EEPROM

?PR?PROG_PLACA?PROG                              -----    -----      -----    -----      0046H    000CH
  +--> ?PR?_RD_EEPROM?EEPROM
  +--> ?CO?PROG
  +--> ?PR?PRINTF?PRINTF
  +--> ?PR?_INGRESADATO?PROG
  +--> ?PR?_ATOI?ATOI
  +--> ?PR?_WR_EEPROM?EEPROM

?PR?PROG_ADDRESS_HIGH_BOARD?PROG                 -----    -----      -----    -----      0046H    000CH
  +--> ?PR?_RD_EEPROM?EEPROM
  +--> ?CO?PROG
  +--> ?PR?PRINTF?PRINTF
  +--> ?PR?_INGRESADATO?PROG
  +--> ?PR?_ATOI?ATOI
  +--> ?PR?_WR_EEPROM?EEPROM

?PR?PROG_HORARIOS?PROG                           -----    -----      -----    -----      0046H    001BH
  +--> ?PR?ADDR_HORARIOS?PROG
  +--> ?CO?PROG
  +--> ?PR?PRINTF?PRINTF
  +--> ?PR?_INGRESADATO?PROG
BL51 BANKED LINKER/LOCATER V6.22.2.0                                                  11/11/2020  12:18:32  PAGE 12


  +--> ?PR?_ATOI?ATOI
  +--> ?PR?_PROG_HORARIOS_ON_OFF?PROG
  +--> ?PR?_WR_EEPROM?EEPROM
  +--> ?PR?_PROG_HORARIO_DIAS?PROG
  +--> ?PR?_PROG_HORARIO_DESDE_HASTA?PROG
  +--> ?PR?_RD_EEPROM?EEPROM

?PR?ADDR_HORARIOS?PROG                           -----    -----      -----    -----      0074H    000BH

?PR?_PROG_HORARIOS_ON_OFF?PROG                   -----    -----      -----    -----      0061H    0010H
  +--> ?PR?_RD_EEPROM?EEPROM
  +--> ?CO?PROG
  +--> ?PR?PRINTF?PRINTF
  +--> ?PR?_INGRESADATO?PROG
  +--> ?PR?_ATOI?ATOI
  +--> ?PR?_WR_EEPROM?EEPROM

?PR?_PROG_HORARIO_DIAS?PROG                      -----    -----      -----    -----      0061H    000FH
  +--> ?CO?PROG
  +--> ?PR?PRINTF?PRINTF
  +--> ?PR?_INGRESADATO?PROG
  +--> ?PR?_WR_EEPROM?EEPROM
  +--> ?PR?_RD_EEPROM?EEPROM

?PR?_PROG_HORARIO_DESDE_HASTA?PROG               -----    -----      -----    -----      0061H    000CH
  +--> ?CO?PROG
  +--> ?PR?PRINTF?PRINTF
  +--> ?PR?_INGRESADATO?PROG
  +--> ?PR?_WR_EEPROM?EEPROM
  +--> ?PR?_RD_EEPROM?EEPROM

?PR?PROG_VALIDAR_TIPO_VEHICULO_MENSUA...         -----    -----      -----    -----      0046H    000CH
  +--> ?PR?_RD_EEPROM?EEPROM
  +--> ?CO?PROG
  +--> ?PR?PRINTF?PRINTF
  +--> ?PR?_INGRESADATO?PROG
  +--> ?PR?_ATOI?ATOI
  +--> ?PR?_WR_EEPROM?EEPROM

?PR?PROG_APB_MENSUAL?PROG                        -----    -----      -----    -----      0046H    000CH
  +--> ?PR?_RD_EEPROM?EEPROM
  +--> ?CO?PROG
  +--> ?PR?PRINTF?PRINTF
  +--> ?PR?_INGRESADATO?PROG
  +--> ?PR?_ATOI?ATOI
  +--> ?PR?_WR_EEPROM?EEPROM

?PR?VER_PROG?PROG                                -----    -----      -----    -----      0046H    0013H
  +--> ?PR?_RD_EEPROM?EEPROM
  +--> ?CO?PROG
  +--> ?PR?PRINTF?PRINTF
  +--> ?PR?VER_HORARIO?PROG
  +--> ?PR?_LEERMEMORIA?EEPROM
  +--> ?PR?_HEX_ASCII?CLOCK

?PR?VER_HORARIO?PROG                             -----    -----      -----    -----      0059H    001BH
  +--> ?PR?ADDR_HORARIOS?PROG
BL51 BANKED LINKER/LOCATER V6.22.2.0                                                  11/11/2020  12:18:32  PAGE 13


  +--> ?CO?PROG
  +--> ?PR?PRINTF?PRINTF
  +--> ?PR?_RD_EEPROM?EEPROM
  +--> ?PR?_VER_HORARIO_DIAS?PROG
  +--> ?PR?_VER_HORARIO_DESDE_HASTA?PROG

?PR?_VER_HORARIO_DIAS?PROG                       -----    -----      -----    -----      0074H    0003H
  +--> ?PR?_RD_EEPROM?EEPROM
  +--> ?CO?PROG
  +--> ?PR?PRINTF?PRINTF

?PR?_VER_HORARIO_DESDE_HASTA?PROG                -----    -----      -----    -----      0074H    0002H
  +--> ?CO?PROG
  +--> ?PR?PRINTF?PRINTF
  +--> ?PR?_RD_EEPROM?EEPROM

?PR?_HEX_ASCII?CLOCK                             -----    -----      -----    -----      005DH    0006H
  +--> ?PR?_HEX_BCD?CLOCK

?PR?SHOW?PROG                                    -----    -----      -----    -----      -----    -----
  +--> ?CO?PROG
  +--> ?PR?PRINTF?PRINTF

?PR?PROG_FECHA_VENCIMIENTO?PROG                  -----    -----      -----    -----      0046H    0017H
  +--> ?PR?_LEERMEMORIA?EEPROM
  +--> ?PR?_HEX_ASCII?CLOCK
  +--> ?CO?PROG
  +--> ?PR?PRINTF?PRINTF
  +--> ?PR?_HASH_ID?PROG
  +--> ?PR?_INGRESADATO?PROG
  +--> ?PR?_GETCMD?PROG
  +--> ?PR?_ESCRIBIRMEMORIA?EEPROM
  +--> ?PR?_VALIDARCLAVE?PROG
  +--> ?PR?_ATOI?ATOI
  +--> ?PR?_WR_EEPROM?EEPROM

?PR?VARIABLE_INICIO?MAIN                         -----    -----      -----    -----      -----    -----
  +--> ?PR?_RD_EEPROM?EEPROM

?PR?SECUENCIA_INICIO_EXPEDIDOR?VERIFI...         -----    -----      -----    -----      0001H    0001H
  +--> ?PR?_INICIALIZA?LINTECH
  +--> ?PR?TRAMA_VALIDACION_P_N?VERIFICADOR
  +--> ?CO?VERIFICADOR
  +--> ?PR?_DEBUG_TXT_TIBBO?TIBBO
  +--> ?PR?_DEBUGBUFFERMF?TIBBO
  +--> ?PR?DWLOAD_EEPROM?LINTECH

?PR?_INICIALIZA?LINTECH                          -----    -----      -----    -----      0002H    000CH
  +--> ?CO?LINTECH
  +--> ?PR?_DEBUG_TXT_TIBBO?TIBBO
  +--> ?PR?_DEBUGBUFFERMF?TIBBO
  +--> ?PR?_ESCRIBIRCADENASOFT_BUFFER?MAIN

?PR?_DEBUG_TXT_TIBBO?TIBBO                       -----    -----      -----    -----      0037H    0004H
  +--> ?PR?_DEBUG_CHR_TIBBO?TIBBO
  +--> ?CO?TIBBO
  +--> ?PR?_TX_AUX?TIBBO
BL51 BANKED LINKER/LOCATER V6.22.2.0                                                  11/11/2020  12:18:32  PAGE 14



?PR?_DEBUG_CHR_TIBBO?TIBBO                       -----    -----      -----    -----      -----    -----
  +--> ?PR?_TX_AUX?TIBBO

?PR?_DEBUGBUFFERMF?TIBBO                         -----    -----      -----    -----      0027H    0006H
  +--> ?CO?TIBBO
  +--> ?PR?_DEBUG_TXT_TIBBO?TIBBO
  +--> ?PR?_DEBUG_CHR_TIBBO?TIBBO
  +--> ?PR?_TX_AUX?TIBBO

?PR?_ESCRIBIRCADENASOFT_BUFFER?MAIN              -----    -----      -----    -----      0027H    0006H
  +--> ?PR?_PUTCHAR?MAIN

?PR?TRAMA_VALIDACION_P_N?VERIFICADOR             -----    -----      -----    -----      -----    -----
  +--> ?CO?VERIFICADOR
  +--> ?PR?_DEBUG_TXT_TIBBO?TIBBO

?PR?DWLOAD_EEPROM?LINTECH                        -----    -----      -----    -----      0002H    0016H
  +--> ?CO?LINTECH
  +--> ?PR?_DEBUG_TXT_TIBBO?TIBBO
  +--> ?PR?_DEBUGBUFFERMF?TIBBO
  +--> ?PR?_ESCRIBIRCADENASOFT_BUFFER?MAIN

?PR?RX_MONITOR?MONITOR                           -----    -----      -----    -----      0009H    000DH
  +--> ?PR?_RECIBE_CMD_MONITOR?MONITOR
  +--> ?PR?_DEBUG_MONITOR?TIBBO
  +--> ?PR?_VALIDA_TRAMA_MONITOR?MONITOR

?PR?_RECIBE_CMD_MONITOR?MONITOR                  -----    -----      -----    -----      0016H    0009H
  +--> ?PR?RX_DATA?TIBBO

?PR?RX_DATA?TIBBO                                -----    -----      -----    -----      -----    -----
  +--> ?PR?TIME_MBIT?TIBBO
  +--> ?PR?TIME_BIT?TIBBO

?PR?_DEBUG_MONITOR?TIBBO                         -----    -----      -----    -----      0016H    0004H
  +--> ?PR?DEBUG_DIVIDIR_TEXTO?TIBBO
  +--> ?CO?TIBBO
  +--> ?PR?_DEBUG_TXT_TIBBO?TIBBO

?PR?DEBUG_DIVIDIR_TEXTO?TIBBO                    -----    -----      -----    -----      -----    -----
  +--> ?CO?TIBBO
  +--> ?PR?_DEBUG_TXT_TIBBO?TIBBO

?PR?_VALIDA_TRAMA_MONITOR?MONITOR                -----    -----      -----    -----      0016H    0005H

?PR?_SECUENCIAEXPEDIDORMF?VERIFICADOR            -----    -----      -----    -----      0001H    0001H
  +--> ?PR?_CHECK_STATUS?LINTECH
  +--> ?PR?_LOAD_SECUENCIA_EXPEDIDOR?VERIFIC...
  +--> ?PR?_RTA_CMD_TRANSPORTE?VERIFICADOR
  +--> ?PR?_MOV_CARD?LINTECH
  +--> ?PR?_CARD_INSERCION?LINTECH
  +--> ?PR?AUT_CARD_CHECK_STATUS?LINTECH
  +--> ?PR?LOADVERIFY_EEPROM?LINTECH
  +--> ?PR?_RD_MF?LINTECH
  +--> ?PR?_WR_MF?LINTECH
  +--> ?PR?DWLOAD_EEPROM?LINTECH
BL51 BANKED LINKER/LOCATER V6.22.2.0                                                  11/11/2020  12:18:32  PAGE 15


  +--> ?PR?ENTREGA_CARD_CAPTURA?VERIFICADOR
  +--> ?PR?_SEND_PTO_PARALELO?VERIFICADOR
  +--> ?PR?_WAIT_PLACA?VERIFICADOR
  +--> ?PR?UNIQUE_IDENTIFIER_UID?LINTECH
  +--> ?PR?_PREGUNTA_LPR?VERIFICADOR
  +--> ?PR?PREGUNTA_PLACA?VERIFICADOR
  +--> ?PR?_VALIDA_TIPO_TARJETA?VERIFICADOR
  +--> ?PR?POWER_OFF?LINTECH
  +--> ?PR?CLAVE_SEGURIDAD_S2?LINTECH
  +--> ?PR?RESPONDE_ESTADO_SENSORES_TRANSPOR...
  +--> ?PR?RESPONDE_TIPO_TARJETA?VERIFICADOR
  +--> ?PR?_RESPONDE_LECTURA_TARJETA_SECTOR1...
  +--> ?PR?_RESPONDE_LECTURA_TARJETA_SECTOR1...
  +--> ?PR?_RESPONDE_LECTURA_TARJETA_SECTOR1...
  +--> ?PR?_RESPONDE_WRITE_TARJETA_SECTOR1_B...
  +--> ?PR?_RESPONDE_WRITE_TARJETA_SECTOR2_B...
  +--> ?PR?_RESPONDE_WRITE_TARJETA_SECTOR1_B...
  +--> ?PR?_RESPONDE_WRITE_TARJETA_SECTOR1_B...
  +--> ?PR?_DISPARO_LOCK_ENTRADA_VEHICULO?VE...
  +--> ?PR?_RESPUESTA_SEGUNDA_CLAVE?VERIFICADOR
  +--> ?PR?ANALIZA_PRESENCIA_MENSUAL?VERIFIC...
  +--> ?PR?_ANALIZA_UID_CARD?VERIFICADOR
  +--> ?PR?ANALIZA_PRESENCIA_ROTACION?VERIFI...
  +--> ?CO?VERIFICADOR
  +--> ?PR?_DEBUG_TXT_TIBBO?TIBBO

?PR?_CHECK_STATUS?LINTECH                        -----    -----      -----    -----      0002H    000BH
  +--> ?CO?LINTECH
  +--> ?PR?_DEBUG_TXT_TIBBO?TIBBO
  +--> ?PR?_DEBUGBUFFERMF?TIBBO
  +--> ?PR?_ESCRIBIRCADENASOFT_BUFFER?MAIN

?PR?_LOAD_SECUENCIA_EXPEDIDOR?VERIFIC...         -----    -----      -----    -----      0002H    0009H

?PR?_RTA_CMD_TRANSPORTE?VERIFICADOR              -----    -----      -----    -----      0002H    0005H
  +--> ?PR?TRAMA_VALIDACION_P_N?VERIFICADOR
  +--> ?CO?VERIFICADOR
  +--> ?PR?_DEBUG_TXT_TIBBO?TIBBO
  +--> ?PR?_DEBUGBUFFERMF?TIBBO
  +--> ?PR?ERROR_RX_PTO?VERIFICADOR

?PR?ERROR_RX_PTO?VERIFICADOR                     -----    -----      -----    -----      0007H    0001H
  +--> ?CO?VERIFICADOR
  +--> ?PR?_DEBUG_TXT_TIBBO?TIBBO
  +--> ?PR?_DEBUG_CHR_TIBBO?TIBBO
  +--> ?PR?_DELAY_10MS?DELAY

?PR?_DELAY_10MS?DELAY                            -----    -----      -----    -----      0008H    0004H
  +--> ?PR?_DELAY_1MS?DELAY

?PR?_MOV_CARD?LINTECH                            -----    -----      -----    -----      0002H    000CH
  +--> ?CO?LINTECH
  +--> ?PR?_DEBUG_TXT_TIBBO?TIBBO
  +--> ?PR?_DEBUGBUFFERMF?TIBBO
  +--> ?PR?_ESCRIBIRCADENASOFT_BUFFER?MAIN

?PR?_CARD_INSERCION?LINTECH                      -----    -----      -----    -----      0002H    000AH
BL51 BANKED LINKER/LOCATER V6.22.2.0                                                  11/11/2020  12:18:32  PAGE 16


  +--> ?CO?LINTECH
  +--> ?PR?_DEBUG_TXT_TIBBO?TIBBO
  +--> ?PR?_DEBUGBUFFERMF?TIBBO
  +--> ?PR?_ESCRIBIRCADENASOFT_BUFFER?MAIN

?PR?AUT_CARD_CHECK_STATUS?LINTECH                -----    -----      -----    -----      0002H    000BH
  +--> ?CO?LINTECH
  +--> ?PR?_DEBUG_TXT_TIBBO?TIBBO
  +--> ?PR?_DEBUGBUFFERMF?TIBBO
  +--> ?PR?_ESCRIBIRCADENASOFT_BUFFER?MAIN

?PR?LOADVERIFY_EEPROM?LINTECH                    -----    -----      -----    -----      0002H    0010H
  +--> ?CO?LINTECH
  +--> ?PR?_DEBUG_TXT_TIBBO?TIBBO
  +--> ?PR?_DEBUGBUFFERMF?TIBBO
  +--> ?PR?_ESCRIBIRCADENASOFT_BUFFER?MAIN

?PR?_RD_MF?LINTECH                               -----    -----      -----    -----      0002H    0012H
  +--> ?CO?LINTECH
  +--> ?PR?_DEBUG_TXT_TIBBO?TIBBO
  +--> ?PR?_DEBUG_CHR_TIBBO?TIBBO
  +--> ?PR?_DEBUGBUFFERMF?TIBBO
  +--> ?PR?_ESCRIBIRCADENASOFT_BUFFER?MAIN

?PR?_WR_MF?LINTECH                               -----    -----      -----    -----      0002H    0025H
  +--> ?CO?LINTECH
  +--> ?PR?_DEBUG_TXT_TIBBO?TIBBO
  +--> ?PR?_DEBUG_CHR_TIBBO?TIBBO
  +--> ?PR?_DEBUGBUFFERMF?TIBBO
  +--> ?PR?_ESCRIBIRCADENASOFT_BUFFER?MAIN

?PR?ENTREGA_CARD_CAPTURA?VERIFICADOR             -----    -----      -----    -----      0002H    0001H
  +--> ?CO?VERIFICADOR
  +--> ?PR?_DEBUG_TXT_TIBBO?TIBBO
  +--> ?PR?SEL_SENSOR2?IO_SENSORES
  +--> ?PR?VALIDASENSOR?IO_SENSORES
  +--> ?PR?VALIDA_SENSOR1_AUTO?IO_SENSORES

?PR?VALIDA_SENSOR1_AUTO?IO_SENSORES              -----    -----      -----    -----      0011H    0001H
  +--> ?PR?SEL_SENSOR1?IO_SENSORES
  +--> ?PR?SEL_AUTO?IO_SENSORES
  +--> ?CO?IO_SENSORES
  +--> ?PR?_DEBUG_TXT_TIBBO?TIBBO
  +--> ?PR?BOTTON?IO_SENSORES

?PR?BOTTON?IO_SENSORES                           -----    -----      -----    -----      -----    -----
  +--> ?PR?SEL_PULSA?IO_SENSORES
  +--> ?CO?IO_SENSORES
  +--> ?PR?_DEBUG_TXT_TIBBO?TIBBO

?PR?_SEND_PTO_PARALELO?VERIFICADOR               -----    -----      -----    -----      0002H    0004H
  +--> ?PR?_ARMAR_TRAMA_PTO_PARALELO_EXPEDID...
  +--> ?PR?_ARMAR_TRAMA_PTO_PARALELO_EXPEDID...
  +--> ?PR?INCREMENTE_TICKET?EEPROM
  +--> ?PR?_SEND_PORT?PTO_PARALELO
  +--> ?CO?VERIFICADOR
  +--> ?PR?_DEBUG_TXT_TIBBO?TIBBO
BL51 BANKED LINKER/LOCATER V6.22.2.0                                                  11/11/2020  12:18:32  PAGE 17


  +--> ?PR?_DEBUGBUFFERMF?TIBBO
  +--> ?PR?CLEAR_PLACA?MONITOR

?PR?_ARMAR_TRAMA_PTO_PARALELO_EXPEDID...         -----    -----      -----    -----      0006H    0006H
  +--> ?PR?_BLOCK_READ_CLOCK_HEX?CLOCK
  +--> ?PR?_RD_EEPROM?EEPROM

?PR?_ARMAR_TRAMA_PTO_PARALELO_EXPEDID...         -----    -----      -----    -----      0006H    000FH
  +--> ?PR?LEE_NO_TICKET?EEPROM
  +--> ?PR?_STRCAT?STRCAT
  +--> ?PR?_STRLEN?STRLEN
  +--> ?PR?_BLOCK_READ_CLOCK_HEX?CLOCK
  +--> ?PR?_RD_EEPROM?EEPROM

?PR?LEE_NO_TICKET?EEPROM                         -----    -----      -----    -----      001DH    000BH
  +--> ?PR?READ_EEPROM_TICKET?EEPROM
  +--> ?CO?EEPROM
  +--> ?PR?PRINTF?PRINTF
  +--> ?PR?_STRLEN?STRLEN
  +--> ?PR?_DEBUG_TXT_TIBBO?TIBBO

?PR?READ_EEPROM_TICKET?EEPROM                    -----    -----      -----    -----      0028H    0007H
  +--> ?PR?_RD_EEPROM?EEPROM

?PR?INCREMENTE_TICKET?EEPROM                     -----    -----      -----    -----      0006H    000BH
  +--> ?PR?READ_EEPROM_TICKET?EEPROM
  +--> ?CO?EEPROM
  +--> ?PR?PRINTF?PRINTF
  +--> ?PR?_WRITE_EEPROM_TICKET?EEPROM

?PR?_WRITE_EEPROM_TICKET?EEPROM                  -----    -----      -----    -----      0015H    000BH
  +--> ?CO?EEPROM
  +--> ?PR?_DEBUG_TXT_TIBBO?TIBBO
  +--> ?PR?_ATOL?ATOL
  +--> ?PR?_DEBUG_CHR_TIBBO?TIBBO
  +--> ?PR?_WR_EEPROM?EEPROM

?PR?_ATOL?ATOL                                   0020H.0  0000H.1    -----    -----      0020H    0007H
  +--> ?PR?_ISSPACE?ISSPACE
  +--> ?PR?_ISDIGIT?ISDIGIT

?PR?_SEND_PORT?PTO_PARALELO                      -----    -----      -----    -----      0015H    000AH
  +--> ?PR?PULSO_BUS?PTO_PARALELO
  +--> ?PR?_DELAY_20US?DELAY

?PR?PULSO_BUS?PTO_PARALELO                       -----    -----      -----    -----      -----    -----
  +--> ?PR?_DELAY_20US?DELAY

?PR?_WAIT_PLACA?VERIFICADOR                      -----    -----      -----    -----      0002H    0007H
  +--> ?CO?VERIFICADOR
  +--> ?PR?_DEBUG_TXT_TIBBO?TIBBO
  +--> ?PR?RX_MONITOR?MONITOR
  +--> ?PR?_RESPUESTA_PLACA_CANCEL?VERIFICADOR

?PR?_RESPUESTA_PLACA_CANCEL?VERIFICADOR          -----    -----      -----    -----      0009H    000AH
  +--> ?CO?VERIFICADOR
  +--> ?PR?_DEBUG_TXT_TIBBO?TIBBO
BL51 BANKED LINKER/LOCATER V6.22.2.0                                                  11/11/2020  12:18:32  PAGE 18


  +--> ?PR?_ARMAR_TRAMA_TARJETA_SECTOR1_BLOQ...

?PR?_ARMAR_TRAMA_TARJETA_SECTOR1_BLOQ...         -----    -----      -----    -----      0013H    0004H
  +--> ?PR?CLEAR_PLACA?MONITOR
  +--> ?PR?_RD_EEPROM?EEPROM

?PR?UNIQUE_IDENTIFIER_UID?LINTECH                -----    -----      -----    -----      0002H    000BH
  +--> ?CO?LINTECH
  +--> ?PR?_DEBUG_TXT_TIBBO?TIBBO
  +--> ?PR?_DEBUGBUFFERMF?TIBBO
  +--> ?PR?_ESCRIBIRCADENASOFT_BUFFER?MAIN

?PR?_PREGUNTA_LPR?VERIFICADOR                    -----    -----      -----    -----      0002H    0003H
  +--> ?CO?VERIFICADOR
  +--> ?PR?_DEBUG_TXT_TIBBO?TIBBO
  +--> ?PR?_RD_EEPROM?EEPROM
  +--> ?PR?_ARMAR_TRAMA_MONITOR?VERIFICADOR

?PR?_ARMAR_TRAMA_MONITOR?VERIFICADOR             -----    -----      -----    -----      0005H    000FH
  +--> ?PR?DIR_BOARD_MONITOR?IO_SENSORES
  +--> ?PR?LEE_NO_TICKET?EEPROM
  +--> ?PR?_STRCAT?STRCAT
  +--> ?PR?_BYTEHEX_DECIMAL?CLOCK
  +--> ?PR?_STRLEN?STRLEN
  +--> ?PR?_TWO_BYTEHEX_DECIMAL?CLOCK
  +--> ?PR?_BLOCK_READ_CLOCK_ASCII?CLOCK

?PR?DIR_BOARD_MONITOR?IO_SENSORES                -----    -----      -----    -----      -----    -----
  +--> ?PR?_RD_EEPROM?EEPROM

?PR?_BYTEHEX_DECIMAL?CLOCK                       -----    -----      -----    -----      0014H    0001H

?PR?_TWO_BYTEHEX_DECIMAL?CLOCK                   -----    -----      -----    -----      0014H    000CH
  +--> ?PR?_POW?POW

?PR?_POW?POW                                     -----    -----      -----    -----      0020H    000AH
  +--> ?PR?LOG?LOG
  +--> ?PR?EXP?EXP

?PR?LOG?LOG                                      0020H.0  0000H.1    -----    -----      002AH    0004H

?PR?PREGUNTA_PLACA?VERIFICADOR                   -----    -----      -----    -----      0002H    0001H
  +--> ?CO?VERIFICADOR
  +--> ?PR?_DEBUG_TXT_TIBBO?TIBBO
  +--> ?PR?_RD_EEPROM?EEPROM

?PR?_VALIDA_TIPO_TARJETA?VERIFICADOR             -----    -----      -----    -----      0002H    0007H
  +--> ?CO?VERIFICADOR
  +--> ?PR?_DEBUG_TXT_TIBBO?TIBBO
  +--> ?PR?_RD_EEPROM?EEPROM
  +--> ?PR?_TARJETA_MENSUAL?VERIFICADOR
  +--> ?PR?_SEND_PORTERR?PTO_PARALELO
  +--> ?PR?_PANTALLALCD?PANTALLAS
  +--> ?PR?CAPTURA_EXPULSA?VERIFICADOR
  +--> ?PR?_TARJETA_ROTACION?VERIFICADOR

?PR?_TARJETA_MENSUAL?VERIFICADOR                 -----    -----      -----    -----      0009H    0007H
BL51 BANKED LINKER/LOCATER V6.22.2.0                                                  11/11/2020  12:18:32  PAGE 19


  +--> ?PR?_HORARIOS?VERIFICADOR
  +--> ?PR?_CHECK_FECHAOUT?CLOCK
  +--> ?PR?_VALIDA_VEHICULO_CARD_MENSUAL?VER...
  +--> ?PR?CAPTURA_EXPULSA?VERIFICADOR
  +--> ?CO?VERIFICADOR
  +--> ?PR?_DEBUG_TXT_TIBBO?TIBBO
  +--> ?PR?_ARMAR_TRAMA_TARJETA_SECTOR1_BLOQ...
  +--> ?PR?_SEND_PORTERR?PTO_PARALELO
  +--> ?PR?_PANTALLALCD?PANTALLAS

?PR?_HORARIOS?VERIFICADOR                        -----    -----      -----    -----      0010H    0013H
  +--> ?PR?ADDR_HORARIOS?PROG
  +--> ?PR?_RD_EEPROM?EEPROM
  +--> ?PR?_LEE_CLK?CLOCK
  +--> ?CO?VERIFICADOR
  +--> ?PR?_DEBUG_TXT_TIBBO?TIBBO
  +--> ?PR?_DEBUG_CHR_TIBBO?TIBBO
  +--> ?PR?_BLOQUE_HORARIO?VERIFICADOR
  +--> ?PR?_PANTALLALCD?PANTALLAS

?PR?_BLOQUE_HORARIO?VERIFICADOR                  -----    -----      -----    -----      0023H    0007H
  +--> ?CO?VERIFICADOR
  +--> ?PR?_DEBUG_TXT_TIBBO?TIBBO
  +--> ?PR?_LEE_CLK?CLOCK
  +--> ?PR?_DEBUG_CHR_TIBBO?TIBBO
  +--> ?PR?_HORA_MAXIMA?VERIFICADOR
  +--> ?PR?_EN_HORARIO?VERIFICADOR
  +--> ?PR?_RD_EEPROM?EEPROM
  +--> ?PR?_SEND_PORTERR?PTO_PARALELO
  +--> ?PR?_PANTALLALCD?PANTALLAS

?PR?_HORA_MAXIMA?VERIFICADOR                     -----    -----      -----    -----      002FH    0008H
  +--> ?PR?_RD_EEPROM?EEPROM
  +--> ?PR?_DEBUG_CHR_TIBBO?TIBBO
  +--> ?CO?VERIFICADOR
  +--> ?PR?_DEBUG_TXT_TIBBO?TIBBO

?PR?_EN_HORARIO?VERIFICADOR                      -----    -----      -----    -----      002AH    0005H
  +--> ?CO?VERIFICADOR
  +--> ?PR?_DEBUG_TXT_TIBBO?TIBBO
  +--> ?PR?_HORA_MAXIMA?VERIFICADOR

?PR?_SEND_PORTERR?PTO_PARALELO                   -----    -----      -----    -----      002AH    0006H
  +--> ?PR?PULSO_BUS?PTO_PARALELO
  +--> ?PR?_DELAY_20US?DELAY

?PR?_PANTALLALCD?PANTALLAS                       -----    -----      -----    -----      002AH    000AH
  +--> ?CO?PANTALLAS
  +--> ?PR?_INIT_MEMPOOL?INIT_MEM
  +--> ?PR?_MALLOC?MALLOC
  +--> ?PR?_LCD_TXT?PANTALLAS
  +--> ?PR?_STRLEN?STRLEN
  +--> ?PR?_TX_CHRLCD?PANTALLAS
  +--> ?PR?_RASPBERRY_DATA?PANTALLAS
  +--> ?PR?_FREE?FREE

?PR?_MALLOC?MALLOC                               -----    -----      -----    -----      0034H    0006H
BL51 BANKED LINKER/LOCATER V6.22.2.0                                                  11/11/2020  12:18:32  PAGE 20



?PR?_LCD_TXT?PANTALLAS                           -----    -----      -----    -----      0034H    0005H
  +--> ?PR?_TX_CHRLCD?PANTALLAS

?PR?_TX_CHRLCD?PANTALLAS                         -----    -----      -----    -----      0039H    0002H
  +--> ?PR?_PUTCHAR?MAIN

?PR?_RASPBERRY_DATA?PANTALLAS                    -----    -----      -----    -----      0034H    0006H
  +--> ?PR?_STRLEN?STRLEN
  +--> ?PR?_PUTCHAR?MAIN

?PR?_FREE?FREE                                   -----    -----      -----    -----      0034H    0006H

?PR?_VALIDA_VEHICULO_CARD_MENSUAL?VER...         -----    -----      -----    -----      0010H    0004H
  +--> ?CO?VERIFICADOR
  +--> ?PR?_DEBUG_TXT_TIBBO?TIBBO
  +--> ?PR?_RD_EEPROM?EEPROM
  +--> ?PR?_SEND_PORTERR?PTO_PARALELO

?PR?_ARMAR_TRAMA_TARJETA_SECTOR1_BLOQ...         -----    -----      -----    -----      0010H    0006H
  +--> ?PR?_BLOCK_READ_CLOCK_HEX?CLOCK
  +--> ?PR?DIR_BOARD?IO_SENSORES

?PR?DIR_BOARD?IO_SENSORES                        -----    -----      -----    -----      0032H    0001H
  +--> ?PR?SEL_DIR1?IO_SENSORES
  +--> ?PR?SEL_DIR2?IO_SENSORES
  +--> ?PR?_RD_EEPROM?EEPROM

?PR?_TARJETA_ROTACION?VERIFICADOR                -----    -----      -----    -----      0009H    0006H
  +--> ?PR?_ARMAR_TRAMA_TARJETA_SECTOR1_BLOQ...

?PR?POWER_OFF?LINTECH                            -----    -----      -----    -----      0002H    000BH
  +--> ?CO?LINTECH
  +--> ?PR?_DEBUG_TXT_TIBBO?TIBBO
  +--> ?PR?_DEBUGBUFFERMF?TIBBO
  +--> ?PR?_ESCRIBIRCADENASOFT_BUFFER?MAIN

?PR?CLAVE_SEGURIDAD_S2?LINTECH                   -----    -----      -----    -----      0002H    0016H
  +--> ?CO?LINTECH
  +--> ?PR?_DEBUG_TXT_TIBBO?TIBBO
  +--> ?PR?_DEBUGBUFFERMF?TIBBO
  +--> ?PR?_ESCRIBIRCADENASOFT_BUFFER?MAIN

?PR?RESPONDE_ESTADO_SENSORES_TRANSPOR...         -----    -----      -----    -----      0002H    0001H
  +--> ?CO?VERIFICADOR
  +--> ?PR?_DEBUG_TXT_TIBBO?TIBBO
  +--> ?PR?_SEND_PORTERR?PTO_PARALELO
  +--> ?PR?INGRESO_VEHICULO?VERIFICADOR

?PR?INGRESO_VEHICULO?VERIFICADOR                 -----    -----      -----    -----      -----    -----
  +--> ?PR?VALIDASENSORESPASO?IO_SENSORES
  +--> ?PR?_RD_EEPROM?EEPROM
  +--> ?CO?VERIFICADOR
  +--> ?PR?_DEBUG_TXT_TIBBO?TIBBO
  +--> ?PR?_PANTALLALCD?PANTALLAS
  +--> ?PR?BOTTON?IO_SENSORES

BL51 BANKED LINKER/LOCATER V6.22.2.0                                                  11/11/2020  12:18:32  PAGE 21


?PR?VALIDASENSORESPASO?IO_SENSORES               -----    -----      -----    -----      0010H    0001H
  +--> ?PR?SEL_SENSOR2?IO_SENSORES
  +--> ?PR?VALIDASENSOR?IO_SENSORES
  +--> ?PR?VALIDA_SENSOR1_AUTO?IO_SENSORES
  +--> ?CO?IO_SENSORES
  +--> ?PR?_DEBUG_TXT_TIBBO?TIBBO

?PR?RESPONDE_TIPO_TARJETA?VERIFICADOR            -----    -----      -----    -----      0002H    0001H
  +--> ?CO?VERIFICADOR
  +--> ?PR?_DEBUG_TXT_TIBBO?TIBBO
  +--> ?PR?_SEND_PORTERR?PTO_PARALELO
  +--> ?PR?_PANTALLALCD?PANTALLAS
  +--> ?PR?CAPTURA_EXPULSA?VERIFICADOR

?PR?_RESPONDE_LECTURA_TARJETA_SECTOR1...         -----    -----      -----    -----      0002H    0016H
  +--> ?CO?VERIFICADOR
  +--> ?PR?_DEBUG_TXT_TIBBO?TIBBO
  +--> ?PR?_DEBUGBUFFERMF?TIBBO
  +--> ?PR?_RD_EEPROM?EEPROM
  +--> ?PR?_DEBUG_HEXDEC?TIBBO
  +--> ?PR?_DEBUG_CHR_TIBBO?TIBBO
  +--> ?PR?_SEND_PORTERR?PTO_PARALELO
  +--> ?PR?_PANTALLALCD?PANTALLAS
  +--> ?PR?CAPTURA_EXPULSA?VERIFICADOR

?PR?_DEBUG_HEXDEC?TIBBO                          -----    -----      -----    -----      0018H    0002H
  +--> ?PR?_TX_AUX?TIBBO

?PR?_RESPONDE_LECTURA_TARJETA_SECTOR1...         -----    -----      -----    -----      0002H    0004H
  +--> ?CO?VERIFICADOR
  +--> ?PR?_DEBUG_TXT_TIBBO?TIBBO
  +--> ?PR?CAPTURA_EXPULSA?VERIFICADOR

?PR?_RESPONDE_LECTURA_TARJETA_SECTOR1...         -----    -----      -----    -----      0002H    0015H
  +--> ?CO?VERIFICADOR
  +--> ?PR?_DEBUG_TXT_TIBBO?TIBBO
  +--> ?PR?_DEBUGBUFFERMF?TIBBO
  +--> ?PR?_DEBUG_CHR_TIBBO?TIBBO
  +--> ?PR?CAPTURA_EXPULSA?VERIFICADOR

?PR?_RESPONDE_WRITE_TARJETA_SECTOR1_B...         -----    -----      -----    -----      0002H    0007H
  +--> ?CO?VERIFICADOR
  +--> ?PR?_DEBUG_TXT_TIBBO?TIBBO
  +--> ?PR?_DEBUGBUFFERMF?TIBBO
  +--> ?PR?_ARMAR_TRAMA_TARJETA_SECTOR1_BLOQ...

?PR?_ARMAR_TRAMA_TARJETA_SECTOR1_BLOQ...         -----    -----      -----    -----      0009H    0003H
  +--> ?PR?LEE_NO_TICKET?EEPROM

?PR?_RESPONDE_WRITE_TARJETA_SECTOR2_B...         -----    -----      -----    -----      0002H    0003H
  +--> ?CO?VERIFICADOR
  +--> ?PR?_DEBUG_TXT_TIBBO?TIBBO
  +--> ?PR?_DEBUGBUFFERMF?TIBBO

?PR?_RESPONDE_WRITE_TARJETA_SECTOR1_B...         -----    -----      -----    -----      0002H    0003H
  +--> ?CO?VERIFICADOR
  +--> ?PR?_DEBUG_TXT_TIBBO?TIBBO
BL51 BANKED LINKER/LOCATER V6.22.2.0                                                  11/11/2020  12:18:32  PAGE 22


  +--> ?PR?_DEBUGBUFFERMF?TIBBO

?PR?_RESPONDE_WRITE_TARJETA_SECTOR1_B...         -----    -----      -----    -----      0002H    0003H
  +--> ?CO?VERIFICADOR
  +--> ?PR?_DEBUG_TXT_TIBBO?TIBBO
  +--> ?PR?_DEBUGBUFFERMF?TIBBO

?PR?_DISPARO_LOCK_ENTRADA_VEHICULO?VE...         -----    -----      -----    -----      0002H    0004H
  +--> ?CO?VERIFICADOR
  +--> ?PR?_DEBUG_TXT_TIBBO?TIBBO
  +--> ?PR?_PANTALLALCD?PANTALLAS
  +--> ?PR?_SEND_PORTERR?PTO_PARALELO
  +--> ?PR?_PANTALLALCD_LINEA_2?PANTALLAS
  +--> ?PR?VALIDA_SENSOR1_AUTO?IO_SENSORES

?PR?_PANTALLALCD_LINEA_2?PANTALLAS               -----    -----      -----    -----      0010H    000DH
  +--> ?CO?PANTALLAS
  +--> ?PR?_INIT_MEMPOOL?INIT_MEM
  +--> ?PR?_MALLOC?MALLOC
  +--> ?PR?_LCD_TXT?PANTALLAS
  +--> ?PR?_STRLEN?STRLEN
  +--> ?PR?_TX_CHRLCD?PANTALLAS
  +--> ?PR?_RASPBERRY_DATA?PANTALLAS
  +--> ?PR?LEE_NO_TICKET?EEPROM
  +--> ?PR?_STRCAT?STRCAT
  +--> ?PR?_FREE?FREE

?PR?_RESPUESTA_SEGUNDA_CLAVE?VERIFICADOR         -----    -----      -----    -----      0002H    0006H
  +--> ?CO?VERIFICADOR
  +--> ?PR?_DEBUG_TXT_TIBBO?TIBBO
  +--> ?PR?_DEBUGBUFFERMF?TIBBO
  +--> ?PR?_ARMAR_TRAMA_PLACA?VERIFICADOR

?PR?_ARMAR_TRAMA_PLACA?VERIFICADOR               -----    -----      -----    -----      0008H    0003H
  +--> ?PR?_STRLEN?STRLEN

?PR?ANALIZA_PRESENCIA_MENSUAL?VERIFIC...         -----    -----      -----    -----      0002H    0001H
  +--> ?PR?VALIDASENSORESPASO?IO_SENSORES
  +--> ?PR?_SEND_PORTERR?PTO_PARALELO
  +--> ?PR?_PANTALLALCD?PANTALLAS

?PR?_ANALIZA_UID_CARD?VERIFICADOR                -----    -----      -----    -----      0002H    0015H
  +--> ?CO?VERIFICADOR
  +--> ?PR?_DEBUG_TXT_TIBBO?TIBBO
  +--> ?PR?_DEBUGBUFFERMF?TIBBO
  +--> ?PR?_DEBUG_CHR_TIBBO?TIBBO

?PR?ANALIZA_PRESENCIA_ROTACION?VERIFI...         -----    -----      -----    -----      0002H    0001H
  +--> ?PR?VALIDASENSORESPASO?IO_SENSORES
  +--> ?PR?_SEND_PORTERR?PTO_PARALELO
  +--> ?PR?_PANTALLALCD?PANTALLAS

?PR?_RECIBE_PORT?PTO_PARALELO                    -----    -----      -----    -----      0001H    0008H
  +--> ?PR?OFF_TIMER0_INTERRUP?MAIN
  +--> ?PR?ON_TIMER0_INTERRUP?MAIN

?PR?_DEBUG_PTO_PARALELO?TIBBO                    -----    -----      -----    -----      0001H    0004H
BL51 BANKED LINKER/LOCATER V6.22.2.0                                                  11/11/2020  12:18:32  PAGE 23


  +--> ?PR?DEBUG_DIVIDIR_TEXTO?TIBBO
  +--> ?CO?TIBBO
  +--> ?PR?_DEBUG_TXT_TIBBO?TIBBO
  +--> ?PR?_DEBUGBUFFERMF?TIBBO

?PR?_VALIDA_TRAMA_PTO?ACCESCAN                   -----    -----      -----    -----      0001H    000FH
  +--> ?PR?_VALIDAR_CLK?CLOCK
  +--> ?PR?_BLOCK_WRITE_CLOCK_ASCII?CLOCK
  +--> ?PR?RELOJ_PANTALLA_LCD?PANTALLAS
  +--> ?PR?_PANTALLALCD?PANTALLAS
  +--> ?CO?ACCESCAN
  +--> ?PR?_DEBUG_TXT_TIBBO?TIBBO
  +--> ?PR?_BYTEHEX_DECIMAL?CLOCK
  +--> ?PR?_TWO_BYTEHEX_DECIMAL?CLOCK
  +--> ?PR?VALIDASENSORESPASO?IO_SENSORES
  +--> ?PR?_CMD_LPR_SALIDA_WIEGAND?ACCESCAN
  +--> ?PR?_PANTALLALCD_LINEA_2?PANTALLAS
  +--> ?PR?_GRABA_SERIE?EEPROM

?PR?_BLOCK_WRITE_CLOCK_ASCII?CLOCK               -----    -----      -----    -----      0010H    0003H
  +--> ?PR?_TWO_ONE?CLOCK
  +--> ?PR?_WR_CLK?CLOCK

?PR?_WR_CLK?CLOCK                                -----    -----      -----    -----      0013H    0002H
  +--> ?PR?_DELAY_20US?DELAY
  +--> ?PR?_EB_CLK?CLOCK

?PR?RELOJ_PANTALLA_LCD?PANTALLAS                 -----    -----      -----    -----      0010H    000DH
  +--> ?CO?PANTALLAS
  +--> ?PR?_BLOCK_READ_CLOCK?CLOCK
  +--> ?PR?_LCD_TXT_NUM_CHAR?PANTALLAS

?PR?_BLOCK_READ_CLOCK?CLOCK                      -----    -----      -----    -----      001DH    0003H
  +--> ?PR?_LEE_CLK?CLOCK

?PR?_LCD_TXT_NUM_CHAR?PANTALLAS                  -----    -----      -----    -----      001DH    0006H
  +--> ?PR?_TX_CHRLCD?PANTALLAS

?PR?_CMD_LPR_SALIDA_WIEGAND?ACCESCAN             -----    -----      -----    -----      0010H    0022H
  +--> ?PR?DIR_BOARD?IO_SENSORES
  +--> ?PR?_BLOCK_READ_CLOCK_ASCII?CLOCK
  +--> ?PR?_MONITOR_CHR?ACCESCAN

?PR?_MONITOR_CHR?ACCESCAN                        -----    -----      -----    -----      0032H    0005H
  +--> ?PR?_TX_AUX?TIBBO

?PR?_GRABA_SERIE?EEPROM                          -----    -----      -----    -----      0010H    0005H
  +--> ?CO?EEPROM
  +--> ?PR?_DEBUG_TXT_TIBBO?TIBBO
  +--> ?PR?_WRITE_EEPROM_TICKET?EEPROM
  +--> ?PR?_WR_EEPROM?EEPROM

?PR?MSJ_LCD_INFORMATIVO?IO_SENSORES              -----    -----      -----    -----      0001H    0001H
  +--> ?PR?SEL_FUNCION?IO_SENSORES
  +--> ?PR?LOAD_AND_SEND_INFO_RELOJ?PTO_PARA...
  +--> ?PR?LOAD_AND_SEND_ID_COD?PTO_PARALELO
  +--> ?PR?_RD_EEPROM?EEPROM
BL51 BANKED LINKER/LOCATER V6.22.2.0                                                  11/11/2020  12:18:32  PAGE 24


  +--> ?PR?_SEND_PORTERR?PTO_PARALELO

?PR?LOAD_AND_SEND_INFO_RELOJ?PTO_PARA...         -----    -----      -----    -----      0002H    000BH
  +--> ?PR?_BLOCK_READ_CLOCK?CLOCK
  +--> ?PR?_LEE_CLK?CLOCK
  +--> ?PR?_SEND_PORT?PTO_PARALELO

?PR?LOAD_AND_SEND_ID_COD?PTO_PARALELO            -----    -----      -----    -----      0002H    0013H
  +--> ?PR?_RD_EEPROM?EEPROM
  +--> ?CO?PTO_PARALELO
  +--> ?PR?PRINTF?PRINTF
  +--> ?PR?_SEND_PORT?PTO_PARALELO



SYMBOL TABLE OF MODULE:  .\Objects\expedidor_v_01_raspberry (MAIN)

  VALUE           TYPE          NAME
  ----------------------------------

  -------         MODULE        MAIN
  C:0000H         SYMBOL        _ICE_DUMMY_
  D:0080H         PUBLIC        P0
  D:0090H         PUBLIC        P1
  C:B2EDH         PUBLIC        timer0_int
  D:00B0H         PUBLIC        P3
  B:00A8H.7       PUBLIC        EA
  C:B712H         PUBLIC        off_Timer0_Interrup
  X:016AH         PUBLIC        ValTimeOutCom
  X:016BH         PUBLIC        Buffer_Rta_Lintech
  X:019DH         PUBLIC        Timer_wait
  X:019EH         PUBLIC        g_cContByteRx
  B:0080H.0       PUBLIC        rx_ip
  B:0080H.3       PUBLIC        Atascado
  C:A215H         PUBLIC        main
  X:019FH         PUBLIC        Timer_tivo
  C:A9CDH         PUBLIC        variable_inicio
  B:0090H.7       PUBLIC        lock
  I:0022H         PUBLIC        rbuf
  C:B703H         PUBLIC        on_Timer0_Interrup
  I:0054H         PUBLIC        tbuf
  B:0090H.1       PUBLIC        DataIn
  D:0089H         PUBLIC        TMOD
  X:01A1H         PUBLIC        USE_LPR
  X:01A2H         PUBLIC        Debug_Tibbo
  X:01A3H         PUBLIC        Raspberry
  X:01A4H         PUBLIC        SIN_COBRO
  X:01A6H         PUBLIC        Tipo_Vehiculo
  B:00B0H.3       PUBLIC        busy
  C:B66EH         PUBLIC        ini_timer
  B:00A8H.1       PUBLIC        ET0
  B:0088H.5       PUBLIC        TF0
  D:008CH         PUBLIC        TH0
  X:01A7H         PUBLIC        ACK
  X:01A8H         PUBLIC        g_cEstadoComSoft
  D:008AH         PUBLIC        TL0
  B:0088H.4       PUBLIC        TR0
BL51 BANKED LINKER/LOCATER V6.22.2.0                                                  11/11/2020  12:18:32  PAGE 25


  C:B67EH         PUBLIC        inicia_board
  X:01A9H         PUBLIC        T_GRACIA
  B:0080H.7       PUBLIC        sel_com
  X:01ABH         PUBLIC        STX_LINTECH
  C:B69DH         PUBLIC        _getkey
  X:01ACH         PUBLIC        ETX
  C:AC1DH         PUBLIC        _EscribirCadenaSoft_buffer
  B:0021H.1       PUBLIC        buffer_ready
  C:AEFFH         PUBLIC        _putchar
  B:0021H.2       PUBLIC        placa_ready
  -------         PROC          TIMER0_INT
  C:B2EDH         LINE#         16
  C:B2F3H         LINE#         19
  C:B2F9H         LINE#         20
  C:B2FEH         LINE#         21
  C:B2FEH         LINE#         22
  C:B304H         LINE#         23
  C:B304H         LINE#         25
  C:B312H         LINE#         26
  C:B314H         LINE#         28
  -------         ENDPROC       TIMER0_INT
  -------         PROC          INI_TIMER
  C:B66EH         LINE#         31
  C:B66EH         LINE#         32
  C:B66EH         LINE#         34
  C:B676H         LINE#         36
  C:B679H         LINE#         37
  C:B67BH         LINE#         38
  C:B67DH         LINE#         40
  -------         ENDPROC       INI_TIMER
  -------         PROC          ON_TIMER0_INTERRUP
  C:B703H         LINE#         43
  C:B703H         LINE#         44
  C:B703H         LINE#         45
  C:B705H         LINE#         46
  C:B707H         LINE#         48
  -------         ENDPROC       ON_TIMER0_INTERRUP
  -------         PROC          OFF_TIMER0_INTERRUP
  C:B712H         LINE#         51
  C:B712H         LINE#         52
  C:B712H         LINE#         53
  C:B714H         LINE#         55
  -------         ENDPROC       OFF_TIMER0_INTERRUP
  -------         PROC          _GETKEY
  -------         DO            
  D:0006H         SYMBOL        k
  -------         ENDDO         
  C:B69DH         LINE#         63
  C:B69DH         LINE#         64
  C:B69DH         LINE#         68
  C:B69DH         LINE#         69
  C:B6A0H         LINE#         70
  C:B6A0H         LINE#         71
  C:B6A8H         LINE#         73
  C:B6A8H         LINE#         74
  -------         ENDPROC       _GETKEY
  -------         PROC          _PUTCHAR
BL51 BANKED LINKER/LOCATER V6.22.2.0                                                  11/11/2020  12:18:32  PAGE 26


  X:00A7H         SYMBOL        c
  -------         DO            
  X:00A8H         SYMBOL        i
  -------         ENDDO         
  C:AEFFH         LINE#         78
  C:AF04H         LINE#         79
  C:AF04H         LINE#         82
  C:AF13H         LINE#         83
  C:AF13H         LINE#         84
  C:AF29H         LINE#         85
  C:AF29H         LINE#         87
  C:AF37H         LINE#         88
  C:AF37H         LINE#         90
  C:AF3CH         LINE#         91
  -------         ENDPROC       _PUTCHAR
  -------         PROC          _ESCRIBIRCADENASOFT_BUFFER
  X:0027H         SYMBOL        buffer
  X:002AH         SYMBOL        tamano_cadena
  -------         DO            
  X:002BH         SYMBOL        i
  X:002CH         SYMBOL        d
  -------         ENDDO         
  C:AC1DH         LINE#         95
  C:AC2BH         LINE#         96
  C:AC2BH         LINE#         98
  C:AC39H         LINE#         99
  C:AC39H         LINE#         100
  C:AC50H         LINE#         101
  C:AC5AH         LINE#         102
  C:AC62H         LINE#         103
  -------         ENDPROC       _ESCRIBIRCADENASOFT_BUFFER
  -------         PROC          INICIA_BOARD
  C:B67EH         LINE#         108
  C:B67EH         LINE#         109
  C:B67EH         LINE#         110
  C:B681H         LINE#         111
  C:B684H         LINE#         112
  C:B687H         LINE#         113
  C:B689H         LINE#         114
  C:B68BH         LINE#         115
  C:B68DH         LINE#         117
  -------         ENDPROC       INICIA_BOARD
  -------         PROC          VARIABLE_INICIO
  C:A9CDH         LINE#         122
  C:A9CDH         LINE#         123
  C:A9CDH         LINE#         126
  C:A9DEH         LINE#         127
  C:A9EFH         LINE#         128
  C:A9FDH         LINE#         129
  C:AA0BH         LINE#         130
  C:AA19H         LINE#         132
  -------         ENDPROC       VARIABLE_INICIO
  -------         PROC          MAIN
  -------         DO            
  X:0141H         SYMBOL        buffer
  X:0169H         SYMBOL        Estado_Comunicacion_Secuencia_MF
  X:0000H         SYMBOL        Length_trama
BL51 BANKED LINKER/LOCATER V6.22.2.0                                                  11/11/2020  12:18:32  PAGE 27


  -------         ENDDO         
  C:A215H         LINE#         140
  C:A215H         LINE#         141
  C:A215H         LINE#         148
  C:A218H         LINE#         149
  C:A21BH         LINE#         150
  C:A21EH         LINE#         151
  C:A221H         LINE#         152
  C:A224H         LINE#         153
  C:A226H         LINE#         155
  C:A229H         LINE#         156
  C:A230H         LINE#         157
  C:A233H         LINE#         159
  C:A238H         LINE#         161
  C:A23BH         LINE#         163
  C:A23EH         LINE#         164
  C:A23EH         LINE#         165
  C:A241H         LINE#         166
  C:A241H         LINE#         169
  C:A244H         LINE#         170
  C:A24AH         LINE#         171
  C:A250H         LINE#         173
  C:A250H         LINE#         174
  C:A250H         LINE#         177
  C:A253H         LINE#         178
  C:A253H         LINE#         179
  C:A256H         LINE#         180
  C:A256H         LINE#         184
  C:A263H         LINE#         189
  C:A266H         LINE#         190
  C:A266H         LINE#         192
  C:A275H         LINE#         194
  C:A27EH         LINE#         196
  C:A28CH         LINE#         198
  C:A28CH         LINE#         199
  C:A28FH         LINE#         203
  -------         ENDPROC       MAIN
  -------         ENDMOD        MAIN

  -------         MODULE        ACCESCAN
  C:0000H         SYMBOL        _ICE_DUMMY_
  D:0080H         PUBLIC        P0
  D:0090H         PUBLIC        P1
  B:0080H.2       PUBLIC        led_err_imp
  C:ADFEH         PUBLIC        _Monitor_chr
  B:0080H.3       PUBLIC        Atascado
  B:0090H.7       PUBLIC        lock
  C:3FFAH         PUBLIC        _Valida_Trama_Pto
  C:7FBFH         PUBLIC        _Cmd_LPR_Salida_wiegand
  -------         PROC          _VALIDA_TRAMA_PTO
  X:0001H         SYMBOL        buffer
  X:0004H         SYMBOL        length_trama
  -------         DO            
  X:0267H         SYMBOL        cont
  X:0005H         SYMBOL        buff
  -------         ENDDO         
  C:3FFAH         LINE#         85
BL51 BANKED LINKER/LOCATER V6.22.2.0                                                  11/11/2020  12:18:32  PAGE 28


  C:4008H         LINE#         86
  C:4008H         LINE#         92
  C:403EH         LINE#         93
  C:403EH         LINE#         94
  C:4053H         LINE#         95
  C:4053H         LINE#         96
  C:4066H         LINE#         98
  C:4069H         LINE#         100
  C:4069H         LINE#         102
  C:4069H         LINE#         104
  C:407BH         LINE#         105
  C:407BH         LINE#         106
  C:4081H         LINE#         107
  C:408EH         LINE#         108
  C:408EH         LINE#         109
  C:4093H         LINE#         110
  C:4095H         LINE#         111
  C:409AH         LINE#         112
  C:409CH         LINE#         113
  C:409EH         LINE#         114
  C:40A2H         LINE#         115
  C:40A2H         LINE#         116
  C:40A3H         LINE#         118
  C:40BBH         LINE#         119
  C:40BBH         LINE#         121
  C:40C8H         LINE#         122
  C:40C8H         LINE#         123
  C:40CAH         LINE#         124
  C:40CCH         LINE#         125
  C:40CEH         LINE#         126
  C:40D0H         LINE#         127
  C:40D0H         LINE#         129
  C:40F6H         LINE#         130
  C:40F6H         LINE#         131
  C:40FAH         LINE#         132
  C:40FFH         LINE#         133
  C:4108H         LINE#         134
  C:410DH         LINE#         135
  C:410DH         LINE#         138
  C:410EH         LINE#         141
  C:4120H         LINE#         142
  C:4120H         LINE#         143
  C:4122H         LINE#         144
  C:4125H         LINE#         146
  C:4137H         LINE#         147
  C:4137H         LINE#         148
  C:4139H         LINE#         149
  C:413CH         LINE#         151
  C:4156H         LINE#         152
  C:4156H         LINE#         153
  C:4158H         LINE#         154
  C:415BH         LINE#         157
  C:4175H         LINE#         158
  C:4175H         LINE#         159
  C:4177H         LINE#         160
  C:4179H         LINE#         163
  C:4193H         LINE#         164
BL51 BANKED LINKER/LOCATER V6.22.2.0                                                  11/11/2020  12:18:32  PAGE 29


  C:4193H         LINE#         165
  C:4195H         LINE#         166
  C:4197H         LINE#         170
  C:41B1H         LINE#         171
  C:41B1H         LINE#         172
  C:41B3H         LINE#         173
  C:41B5H         LINE#         176
  C:41CFH         LINE#         177
  C:41CFH         LINE#         178
  C:41D1H         LINE#         179
  C:41D3H         LINE#         181
  C:41EDH         LINE#         182
  C:41EDH         LINE#         183
  C:41F2H         LINE#         184
  C:41F2H         LINE#         186
  C:4222H         LINE#         187
  C:4222H         LINE#         188
  C:4230H         LINE#         189
  C:4233H         LINE#         192
  C:4276H         LINE#         193
  C:4276H         LINE#         195
  C:428BH         LINE#         196
  C:4291H         LINE#         197
  C:42BBH         LINE#         200
  C:42C3H         LINE#         201
  C:42C3H         LINE#         204
  C:42CAH         LINE#         205
  C:42CAH         LINE#         206
  C:42CFH         LINE#         207
  C:42CFH         LINE#         208
  C:42D1H         LINE#         210
  C:42D1H         LINE#         211
  C:42DAH         LINE#         212
  C:42E2H         LINE#         213
  C:42E2H         LINE#         218
  C:42E4H         LINE#         221
  C:42E4H         LINE#         224
  C:42EBH         LINE#         225
  C:42EBH         LINE#         226
  C:42F0H         LINE#         227
  C:42F0H         LINE#         228
  C:42FBH         LINE#         232
  C:42FBH         LINE#         233
  C:42FBH         LINE#         235
  C:4328H         LINE#         236
  C:4328H         LINE#         237
  C:4337H         LINE#         239
  C:4337H         LINE#         241
  -------         ENDPROC       _VALIDA_TRAMA_PTO
  -------         PROC          _MONITOR_CHR
  X:0032H         SYMBOL        str
  X:0035H         SYMBOL        num_char
  -------         DO            
  X:0036H         SYMBOL        j
  -------         ENDDO         
  C:ADFEH         LINE#         396
  C:AE0CH         LINE#         397
BL51 BANKED LINKER/LOCATER V6.22.2.0                                                  11/11/2020  12:18:32  PAGE 30


  C:AE0CH         LINE#         399
  C:AE1AH         LINE#         400
  C:AE1AH         LINE#         401
  C:AE2CH         LINE#         402
  C:AE36H         LINE#         403
  C:AE3EH         LINE#         404
  -------         ENDPROC       _MONITOR_CHR
  -------         PROC          _CMD_LPR_SALIDA_WIEGAND
  X:0010H         SYMBOL        buffer
  -------         DO            
  X:0013H         SYMBOL        Buffer_Lpr
  X:0031H         SYMBOL        j
  -------         ENDDO         
  C:7FBFH         LINE#         409
  C:7FCAH         LINE#         410
  C:7FCAH         LINE#         412
  C:7FD0H         LINE#         413
  C:7FD5H         LINE#         414
  C:7FDDH         LINE#         415
  C:7FE1H         LINE#         416
  C:7FEAH         LINE#         417
  C:7FEAH         LINE#         418
  C:7FFBH         LINE#         419
  C:7FFDH         LINE#         421
  C:7FFDH         LINE#         422
  C:800EH         LINE#         423
  C:800EH         LINE#         427
  C:8025H         LINE#         428
  C:8025H         LINE#         429
  C:8034H         LINE#         430
  C:803EH         LINE#         432
  C:8046H         LINE#         433
  C:805AH         LINE#         435
  C:806AH         LINE#         436
  C:807BH         LINE#         437
  C:8088H         LINE#         441
  -------         ENDPROC       _CMD_LPR_SALIDA_WIEGAND
  -------         ENDMOD        ACCESCAN

  -------         MODULE        CLOCK
  C:0000H         SYMBOL        _ICE_DUMMY_
  C:AE73H         PUBLIC        _two_one
  D:0090H         PUBLIC        P1
  C:6E59H         PUBLIC        _validar_clk
  C:B371H         PUBLIC        _wr_clk
  C:8568H         PUBLIC        _check_fechaOut
  B:00D0H.7       PUBLIC        CY
  C:0003H         PUBLIC        p_ck
  C:97F4H         PUBLIC        _hex_ascii
  X:0268H         PUBLIC        data_clk
  C:B6C5H         PUBLIC        cond_ini_clock
  C:8631H         PUBLIC        _Block_read_Clock
  B:0090H.4       PUBLIC        sck
  C:91CEH         PUBLIC        _Block_read_Clock_Hex
  C:5BEDH         PUBLIC        _Block_read_clock_ascii
  C:AF59H         PUBLIC        _hex_bcd
  C:B545H         PUBLIC        _bcd_hex
BL51 BANKED LINKER/LOCATER V6.22.2.0                                                  11/11/2020  12:18:32  PAGE 31


  C:A765H         PUBLIC        _ByteHex_Decimal
  C:9920H         PUBLIC        _lee_clk
  B:0090H.5       PUBLIC        io
  C:9A36H         PUBLIC        _Block_write_clock_ascii
  B:0090H.6       PUBLIC        rst
  C:AEC0H         PUBLIC        _eb_clk
  C:4338H         PUBLIC        _Two_ByteHex_Decimal
  -------         PROC          P_CK
  C:0003H         LINE#         48
  C:0003H         LINE#         49
  C:0003H         LINE#         50
  C:0005H         LINE#         51
  C:0008H         LINE#         52
  C:000AH         LINE#         53
  -------         ENDPROC       P_CK
  -------         PROC          _EB_CLK
  X:00B4H         SYMBOL        dir_clk
  -------         DO            
  X:00B5H         SYMBOL        nbits
  -------         ENDDO         
  C:AEC0H         LINE#         55
  C:AEC5H         LINE#         57
  C:AECAH         LINE#         58
  C:AECAH         LINE#         59
  C:AED3H         LINE#         60
  C:AED6H         LINE#         61
  C:AED6H         LINE#         62
  C:AED8H         LINE#         63
  C:AEDAH         LINE#         65
  C:AEDAH         LINE#         66
  C:AEDCH         LINE#         67
  C:AEDCH         LINE#         68
  C:AEDFH         LINE#         69
  C:AEFEH         LINE#         70
  -------         ENDPROC       _EB_CLK
  C:9916H         SYMBOL        L?0082
  -------         PROC          L?0081
  -------         ENDPROC       L?0081
  C:9916H         SYMBOL        L?0082
  -------         PROC          _LEE_CLK
  X:00B1H         SYMBOL        dir_clk
  -------         DO            
  X:00B2H         SYMBOL        nbits
  -------         ENDDO         
  C:9920H         LINE#         72
  C:9925H         LINE#         74
  C:9927H         LINE#         75
  C:992EH         LINE#         76
  C:9936H         LINE#         77
  C:994FH         LINE#         78
  C:994FH         LINE#         79
  C:9952H         LINE#         80
  C:9952H         LINE#         81
  C:9959H         LINE#         82
  C:9963H         LINE#         83
  C:9968H         LINE#         84
  C:9968H         LINE#         85
BL51 BANKED LINKER/LOCATER V6.22.2.0                                                  11/11/2020  12:18:32  PAGE 32


  C:9968H         LINE#         86
  C:996BH         LINE#         87
  C:996BH         LINE#         88
  C:9972H         LINE#         89
  C:9983H         LINE#         90
  C:9983H         LINE#         91
  C:998BH         LINE#         92
  C:998BH         LINE#         93
  C:998BH         LINE#         94
  C:998EH         LINE#         95
  C:999EH         LINE#         96
  C:99A0H         LINE#         97
  C:99A5H         LINE#         98
  -------         ENDPROC       _LEE_CLK
  -------         PROC          _WR_CLK
  X:0013H         SYMBOL        dir_clk
  X:0014H         SYMBOL        byte
  C:B371H         LINE#         100
  C:B379H         LINE#         101
  C:B37BH         LINE#         102
  C:B382H         LINE#         103
  C:B38AH         LINE#         104
  C:B393H         LINE#         105
  C:B396H         LINE#         106
  C:B398H         LINE#         108
  -------         ENDPROC       _WR_CLK
  C:AE3FH         SYMBOL        L?0077
  C:AE5DH         SYMBOL        L?0078
  -------         PROC          L?0076
  -------         ENDPROC       L?0076
  C:AE3FH         SYMBOL        L?0077
  C:AE5DH         SYMBOL        L?0078
  -------         PROC          _TWO_ONE
  D:0007H         SYMBOL        byte_h
  D:0005H         SYMBOL        byte_l
  -------         DO            
  D:0007H         SYMBOL        byte_out
  -------         ENDDO         
  C:AE73H         LINE#         110
  C:AE73H         LINE#         111
  C:AE73H         LINE#         113
  C:AE76H         LINE#         114
  C:AE7AH         LINE#         115
  C:AE7DH         LINE#         116
  C:AE7FH         LINE#         117
  C:AE7FH         LINE#         118
  -------         ENDPROC       _TWO_ONE
  -------         PROC          _VALIDAR_CLK
  D:0001H         SYMBOL        datos_clock
  -------         DO            
  D:0007H         SYMBOL        validador
  -------         ENDDO         
  C:6E59H         LINE#         122
  C:6E59H         LINE#         123
  C:6E59H         LINE#         124
  C:6E5BH         LINE#         127
  C:6E70H         LINE#         128
BL51 BANKED LINKER/LOCATER V6.22.2.0                                                  11/11/2020  12:18:32  PAGE 33


  C:6E70H         LINE#         130
  C:6E88H         LINE#         131
  C:6E88H         LINE#         133
  C:6EA0H         LINE#         134
  C:6EA0H         LINE#         135
  C:6EB8H         LINE#         136
  C:6EB8H         LINE#         137
  C:6ED0H         LINE#         138
  C:6ED0H         LINE#         139
  C:6EE5H         LINE#         140
  C:6EE5H         LINE#         141
  C:6EF7H         LINE#         142
  C:6EF7H         LINE#         143
  C:6F09H         LINE#         144
  C:6F09H         LINE#         145
  C:6F1BH         LINE#         146
  C:6F1BH         LINE#         147
  C:6F2DH         LINE#         148
  C:6F2DH         LINE#         149
  C:6F3FH         LINE#         150
  C:6F3FH         LINE#         151
  C:6F4FH         LINE#         152
  C:6F4FH         LINE#         153
  C:6F4FH         LINE#         154
  C:6F4FH         LINE#         155
  C:6F50H         LINE#         157
  C:6F50H         LINE#         158
  C:6F52H         LINE#         159
  C:6F52H         LINE#         160
  C:6F53H         LINE#         162
  C:6F53H         LINE#         163
  C:6F55H         LINE#         165
  C:6F55H         LINE#         166
  C:6F56H         LINE#         168
  C:6F56H         LINE#         169
  C:6F58H         LINE#         171
  C:6F58H         LINE#         173
  C:6F59H         LINE#         175
  C:6F59H         LINE#         176
  C:6F5BH         LINE#         178
  C:6F5BH         LINE#         179
  C:6F5CH         LINE#         181
  C:6F5CH         LINE#         182
  C:6F5EH         LINE#         184
  C:6F5EH         LINE#         185
  C:6F5FH         LINE#         187
  C:6F5FH         LINE#         188
  C:6F61H         LINE#         190
  C:6F61H         LINE#         191
  C:6F62H         LINE#         193
  C:6F62H         LINE#         194
  C:6F64H         LINE#         196
  C:6F64H         LINE#         197
  C:6F64H         LINE#         199
  C:6F65H         LINE#         201
  C:6F65H         LINE#         202
  C:6F67H         LINE#         204
BL51 BANKED LINKER/LOCATER V6.22.2.0                                                  11/11/2020  12:18:32  PAGE 34


  C:6F67H         LINE#         206
  C:6F68H         LINE#         209
  C:6F68H         LINE#         210
  C:6F6AH         LINE#         212
  C:6F6AH         LINE#         214
  C:6F6BH         LINE#         217
  C:6F6BH         LINE#         218
  C:6F6DH         LINE#         220
  C:6F6DH         LINE#         222
  C:6F6DH         LINE#         224
  -------         ENDPROC       _VALIDAR_CLK
  -------         PROC          _BLOCK_WRITE_CLOCK_ASCII
  X:0010H         SYMBOL        datos_clock
  -------         DO            
  D:0007H         SYMBOL        temp
  -------         ENDDO         
  C:9A36H         LINE#         230
  C:9A41H         LINE#         232
  C:9A41H         LINE#         237
  C:9A4BH         LINE#         238
  C:9A4BH         LINE#         239
  C:9A4BH         LINE#         240
  C:9A4BH         LINE#         242
  C:9A55H         LINE#         243
  C:9A5FH         LINE#         244
  C:9A69H         LINE#         245
  C:9A69H         LINE#         246
  C:9A69H         LINE#         247
  C:9A69H         LINE#         249
  C:9A73H         LINE#         250
  C:9A73H         LINE#         251
  C:9A73H         LINE#         252
  C:9A73H         LINE#         254
  C:9A7DH         LINE#         255
  C:9A7DH         LINE#         256
  C:9A7DH         LINE#         257
  C:9A7DH         LINE#         259
  C:9A87H         LINE#         260
  C:9A87H         LINE#         261
  C:9A87H         LINE#         262
  C:9A87H         LINE#         264
  C:9A91H         LINE#         265
  C:9A9BH         LINE#         266
  C:9AA5H         LINE#         267
  C:9AAFH         LINE#         269
  C:9ABFH         LINE#         270
  -------         ENDPROC       _BLOCK_WRITE_CLOCK_ASCII
  -------         PROC          _BCD_HEX
  D:0007H         SYMBOL        l_data
  -------         DO            
  D:0006H         SYMBOL        temp
  D:0005H         SYMBOL        j
  -------         ENDDO         
  C:B545H         LINE#         276
  C:B545H         LINE#         277
  C:B545H         LINE#         279
  C:B547H         LINE#         280
BL51 BANKED LINKER/LOCATER V6.22.2.0                                                  11/11/2020  12:18:32  PAGE 35


  C:B54BH         LINE#         281
  C:B54EH         LINE#         282
  C:B550H         LINE#         283
  C:B550H         LINE#         284
  C:B554H         LINE#         285
  C:B55BH         LINE#         286
  C:B55BH         LINE#         287
  C:B55FH         LINE#         288
  C:B562H         LINE#         289
  C:B562H         LINE#         290
  C:B562H         LINE#         291
  -------         ENDPROC       _BCD_HEX
  C:AF4AH         SYMBOL        L?0080
  -------         PROC          L?0079
  -------         ENDPROC       L?0079
  C:AF4AH         SYMBOL        L?0080
  -------         PROC          _HEX_BCD
  D:0007H         SYMBOL        byte
  -------         DO            
  D:0006H         SYMBOL        nibble_h
  D:0005H         SYMBOL        nibble_l
  D:0004H         SYMBOL        k
  D:0007H         SYMBOL        byte_out
  -------         ENDDO         
  C:AF59H         LINE#         295
  C:AF59H         LINE#         296
  C:AF59H         LINE#         301
  C:AF5BH         LINE#         302
  C:AF5CH         LINE#         304
  C:AF62H         LINE#         305
  C:AF62H         LINE#         306
  C:AF63H         LINE#         307
  C:AF68H         LINE#         308
  C:AF68H         LINE#         309
  C:AF69H         LINE#         310
  C:AF6AH         LINE#         311
  C:AF6AH         LINE#         312
  C:AF6DH         LINE#         313
  C:AF71H         LINE#         314
  C:AF74H         LINE#         315
  C:AF77H         LINE#         316
  C:AF79H         LINE#         317
  C:AF79H         LINE#         319
  -------         ENDPROC       _HEX_BCD
  -------         PROC          _HEX_ASCII
  X:005DH         SYMBOL        datos
  X:0060H         SYMBOL        fecha_asii
  -------         DO            
  D:0007H         SYMBOL        dato
  -------         ENDDO         
  C:97F4H         LINE#         320
  C:97FFH         LINE#         321
  C:97FFH         LINE#         325
  C:9802H         LINE#         326
  C:981AH         LINE#         327
  C:982FH         LINE#         328
  C:982FH         LINE#         330
BL51 BANKED LINKER/LOCATER V6.22.2.0                                                  11/11/2020  12:18:32  PAGE 36


  C:9832H         LINE#         331
  C:984DH         LINE#         332
  C:9855H         LINE#         333
  C:9855H         LINE#         335
  C:9858H         LINE#         336
  C:9873H         LINE#         337
  C:987EH         LINE#         339
  -------         ENDPROC       _HEX_ASCII
  -------         PROC          _BYTEHEX_DECIMAL
  D:0001H         SYMBOL        buffer
  D:0005H         SYMBOL        valorhex
  -------         DO            
  X:0014H         SYMBOL        numero
  D:0007H         SYMBOL        centena
  D:0006H         SYMBOL        decena
  -------         ENDDO         
  C:A765H         LINE#         347
  C:A765H         LINE#         348
  C:A765H         LINE#         351
  C:A767H         LINE#         352
  C:A768H         LINE#         353
  C:A76DH         LINE#         355
  C:A77AH         LINE#         356
  C:A77AH         LINE#         357
  C:A77EH         LINE#         358
  C:A77FH         LINE#         359
  C:A781H         LINE#         360
  C:A787H         LINE#         361
  C:A78EH         LINE#         362
  C:A79BH         LINE#         363
  C:A79BH         LINE#         364
  C:A79FH         LINE#         365
  C:A7A0H         LINE#         366
  C:A7A2H         LINE#         367
  C:A7A8H         LINE#         368
  C:A7AFH         LINE#         369
  C:A7B8H         LINE#         370
  C:A7BFH         LINE#         371
  -------         ENDPROC       _BYTEHEX_DECIMAL
  -------         PROC          _TWO_BYTEHEX_DECIMAL
  X:0014H         SYMBOL        buffer
  X:0017H         SYMBOL        id_h
  X:0018H         SYMBOL        id_l
  -------         DO            
  X:0019H         SYMBOL        valor
  D:0006H         SYMBOL        numero
  X:001BH         SYMBOL        temp
  X:001CH         SYMBOL        dmil
  X:001DH         SYMBOL        mil
  X:001EH         SYMBOL        centena
  X:001FH         SYMBOL        decena
  -------         ENDDO         
  C:4338H         LINE#         378
  C:4346H         LINE#         379
  C:4346H         LINE#         383
  C:434DH         LINE#         384
  C:4351H         LINE#         385
BL51 BANKED LINKER/LOCATER V6.22.2.0                                                  11/11/2020  12:18:32  PAGE 37


  C:4353H         LINE#         386
  C:4355H         LINE#         387
  C:4357H         LINE#         390
  C:435CH         LINE#         391
  C:435FH         LINE#         392
  C:4365H         LINE#         394
  C:43C0H         LINE#         395
  C:43C8H         LINE#         396
  C:43CBH         LINE#         397
  C:4426H         LINE#         399
  C:442EH         LINE#         400
  C:4431H         LINE#         401
  C:4437H         LINE#         402
  C:4492H         LINE#         403
  C:449AH         LINE#         404
  C:449DH         LINE#         405
  C:44F8H         LINE#         406
  C:44F8H         LINE#         408
  C:4501H         LINE#         409
  C:4501H         LINE#         410
  C:4509H         LINE#         411
  C:450FH         LINE#         412
  C:4511H         LINE#         413
  C:4527H         LINE#         414
  C:4531H         LINE#         415
  C:453AH         LINE#         416
  C:453AH         LINE#         417
  C:4542H         LINE#         418
  C:4548H         LINE#         419
  C:454AH         LINE#         420
  C:4560H         LINE#         421
  C:456AH         LINE#         422
  C:4573H         LINE#         423
  C:4573H         LINE#         424
  C:457BH         LINE#         425
  C:4581H         LINE#         426
  C:4583H         LINE#         427
  C:4599H         LINE#         428
  C:45A3H         LINE#         429
  C:45ACH         LINE#         430
  C:45ACH         LINE#         431
  C:45B4H         LINE#         432
  C:45BAH         LINE#         433
  C:45BCH         LINE#         434
  C:45D2H         LINE#         435
  C:45DCH         LINE#         436
  C:45EFH         LINE#         437
  C:45F9H         LINE#         438
  -------         ENDPROC       _TWO_BYTEHEX_DECIMAL
  -------         PROC          _BLOCK_READ_CLOCK_ASCII
  X:0051H         SYMBOL        datos_clock
  -------         DO            
  D:0007H         SYMBOL        dato
  -------         ENDDO         
  C:5BEDH         LINE#         444
  C:5BF0H         LINE#         445
  C:5BF0H         LINE#         451
BL51 BANKED LINKER/LOCATER V6.22.2.0                                                  11/11/2020  12:18:32  PAGE 38


  C:5BF3H         LINE#         452
  C:5C0BH         LINE#         453
  C:5C15H         LINE#         454
  C:5C2AH         LINE#         455
  C:5C34H         LINE#         458
  C:5C39H         LINE#         459
  C:5C51H         LINE#         460
  C:5C5BH         LINE#         461
  C:5C70H         LINE#         462
  C:5C7AH         LINE#         465
  C:5C7FH         LINE#         466
  C:5C97H         LINE#         467
  C:5CA1H         LINE#         468
  C:5CB6H         LINE#         469
  C:5CC0H         LINE#         473
  C:5CC5H         LINE#         474
  C:5CDDH         LINE#         475
  C:5CE7H         LINE#         476
  C:5CFCH         LINE#         477
  C:5D06H         LINE#         480
  C:5D0BH         LINE#         481
  C:5D23H         LINE#         482
  C:5D2DH         LINE#         483
  C:5D42H         LINE#         484
  C:5D4CH         LINE#         485
  -------         ENDPROC       _BLOCK_READ_CLOCK_ASCII
  -------         PROC          _BLOCK_READ_CLOCK_HEX
  X:00AEH         SYMBOL        datos_clock
  C:91CEH         LINE#         489
  C:91D1H         LINE#         490
  C:91D1H         LINE#         493
  C:91E6H         LINE#         494
  C:91F0H         LINE#         496
  C:9207H         LINE#         497
  C:9211H         LINE#         499
  C:9228H         LINE#         500
  C:9232H         LINE#         502
  C:9249H         LINE#         503
  C:9253H         LINE#         505
  C:926AH         LINE#         506
  -------         ENDPROC       _BLOCK_READ_CLOCK_HEX
  -------         PROC          _BLOCK_READ_CLOCK
  X:001DH         SYMBOL        datos_clock
  C:8631H         LINE#         533
  C:8634H         LINE#         534
  C:8634H         LINE#         536
  C:8646H         LINE#         537
  C:8650H         LINE#         539
  C:8664H         LINE#         540
  C:866EH         LINE#         542
  C:8682H         LINE#         543
  C:868CH         LINE#         545
  C:86A0H         LINE#         546
  C:86AAH         LINE#         548
  C:86BEH         LINE#         549
  C:86C8H         LINE#         551
  C:86DCH         LINE#         552
BL51 BANKED LINKER/LOCATER V6.22.2.0                                                  11/11/2020  12:18:32  PAGE 39


  C:86E6H         LINE#         553
  -------         ENDPROC       _BLOCK_READ_CLOCK
  -------         PROC          COND_INI_CLOCK
  C:B6C5H         LINE#         556
  C:B6C5H         LINE#         557
  C:B6C5H         LINE#         558
  C:B6C7H         LINE#         559
  C:B6C9H         LINE#         560
  C:B6CBH         LINE#         561
  -------         ENDPROC       COND_INI_CLOCK
  -------         PROC          _CHECK_FECHAOUT
  X:009CH         SYMBOL        buffer
  -------         DO            
  X:009FH         SYMBOL        fecha_inicio
  X:00A3H         SYMBOL        fecha_fin
  X:00A7H         SYMBOL        datos_clk
  X:00ADH         SYMBOL        temp
  -------         ENDDO         
  C:8568H         LINE#         571
  C:8573H         LINE#         572
  C:8573H         LINE#         578
  C:857CH         LINE#         579
  C:85ABH         LINE#         580
  C:85FEH         LINE#         583
  C:861EH         LINE#         584
  C:861EH         LINE#         585
  C:8624H         LINE#         586
  C:8626H         LINE#         588
  C:8626H         LINE#         589
  C:862BH         LINE#         590
  C:862BH         LINE#         594
  C:8630H         LINE#         595
  -------         ENDPROC       _CHECK_FECHAOUT
  -------         ENDMOD        CLOCK

  -------         MODULE        DELAY
  C:0000H         SYMBOL        _ICE_DUMMY_
  C:B0E1H         PUBLIC        _Delay_10ms
  C:B602H         PUBLIC        _Delay_20us
  C:B563H         PUBLIC        _Delay_1ms
  C:B718H         PUBLIC        Delay
  -------         PROC          _DELAY_20US
  D:0006H         SYMBOL        cntd_us
  -------         DO            
  D:0004H         SYMBOL        i
  -------         ENDDO         
  C:B602H         LINE#         20
  C:B602H         LINE#         21
  C:B602H         LINE#         24
  C:B60CH         LINE#         26
  C:B613H         LINE#         27
  -------         ENDPROC       _DELAY_20US
  -------         PROC          _DELAY_1MS
  D:0002H         SYMBOL        cntd_ms
  -------         DO            
  D:0082H         SYMBOL        i
  -------         ENDDO         
BL51 BANKED LINKER/LOCATER V6.22.2.0                                                  11/11/2020  12:18:32  PAGE 40


  C:B563H         LINE#         38
  C:B567H         LINE#         39
  C:B567H         LINE#         41
  C:B57DH         LINE#         42
  -------         ENDPROC       _DELAY_1MS
  -------         PROC          _DELAY_10MS
  X:0008H         SYMBOL        cntd_10ms
  -------         DO            
  X:000AH         SYMBOL        i
  -------         ENDDO         
  C:B0E1H         LINE#         54
  C:B0E9H         LINE#         55
  C:B0E9H         LINE#         57
  C:B11AH         LINE#         58
  -------         ENDPROC       _DELAY_10MS
  -------         PROC          DELAY
  C:B718H         LINE#         60
  C:B718H         LINE#         62
  -------         ENDPROC       DELAY
  -------         ENDMOD        DELAY

  -------         MODULE        EEPROM
  C:0000H         SYMBOL        _ICE_DUMMY_
  D:0090H         PUBLIC        P1
  C:7A70H         PUBLIC        _Write_EEprom_Ticket
  C:A55DH         PUBLIC        _EscribirMemoria
  X:025EH         PUBLIC        l_chr
  C:B4CAH         PUBLIC        ackd
  B:0021H.5       PUBLIC        memory_flag
  B:00D0H.7       PUBLIC        CY
  C:B6FDH         PUBLIC        p_me
  C:B61CH         PUBLIC        start
  B:0090H.2       PUBLIC        sda
  C:B4EAH         PUBLIC        ack_lect
  B:0090H.3       PUBLIC        scl
  C:AF7EH         PUBLIC        _rd_eeprom
  C:B6B3H         PUBLIC        stop
  X:025FH         PUBLIC        l_data_eeprom
  C:A8EEH         PUBLIC        _wr_eeprom
  C:A637H         PUBLIC        _LeerMemoria
  C:B1BFH         PUBLIC        Incremente_Ticket
  X:0260H         PUBLIC        byte_rd
  C:849EH         PUBLIC        Read_EEprom_Ticket
  C:B4A5H         PUBLIC        _e_d_m
  C:8307H         PUBLIC        _graba_serie
  C:AA67H         PUBLIC        Lee_No_Ticket
  C:AA1AH         PUBLIC        l_d_m
  -------         PROC          L?0057
  -------         ENDPROC       L?0057
  -------         PROC          ACKD
  -------         DO            
  D:0006H         SYMBOL        i
  -------         ENDDO         
  C:B4CAH         LINE#         35
  C:B4CAH         LINE#         36
  C:B4CAH         LINE#         38
  C:B4CCH         LINE#         39
BL51 BANKED LINKER/LOCATER V6.22.2.0                                                  11/11/2020  12:18:32  PAGE 41


  C:B4CEH         LINE#         40
  C:B4D0H         LINE#         41
  C:B4D3H         LINE#         42
  C:B4D3H         LINE#         43
  C:B4D6H         LINE#         44
  C:B4D6H         LINE#         45
  C:B4D8H         LINE#         46
  C:B4DAH         LINE#         48
  C:B4DBH         LINE#         49
  C:B4DBH         LINE#         50
  C:B4E6H         LINE#         52
  C:B4E6H         LINE#         53
  C:B4E6H         LINE#         55
  C:B4E6H         LINE#         56
  -------         ENDPROC       ACKD
  -------         PROC          L?0061
  -------         ENDPROC       L?0061
  -------         PROC          ACK_LECT
  -------         DO            
  D:0006H         SYMBOL        i
  -------         ENDDO         
  C:B4EAH         LINE#         59
  C:B4EAH         LINE#         60
  C:B4EAH         LINE#         62
  C:B4ECH         LINE#         63
  C:B4EEH         LINE#         64
  C:B4F0H         LINE#         65
  C:B4F3H         LINE#         66
  C:B4F3H         LINE#         67
  C:B4F6H         LINE#         68
  C:B4F6H         LINE#         69
  C:B4F8H         LINE#         70
  C:B4FAH         LINE#         71
  C:B4FBH         LINE#         72
  C:B4FBH         LINE#         73
  C:B506H         LINE#         74
  -------         ENDPROC       ACK_LECT
  -------         PROC          P_ME
  C:B6FDH         LINE#         76
  C:B6FDH         LINE#         77
  C:B6FDH         LINE#         78
  C:B6FFH         LINE#         79
  C:B700H         LINE#         80
  C:B702H         LINE#         81
  -------         ENDPROC       P_ME
  -------         PROC          _E_D_M
  D:0007H         SYMBOL        a_serial_eeprom
  -------         DO            
  D:0006H         SYMBOL        nbits
  -------         ENDDO         
  C:B4A5H         LINE#         83
  C:B4A5H         LINE#         84
  C:B4A5H         LINE#         86
  C:B4B1H         LINE#         87
  C:B4B1H         LINE#         88
  C:B4B5H         LINE#         89
  C:B4B8H         LINE#         90
BL51 BANKED LINKER/LOCATER V6.22.2.0                                                  11/11/2020  12:18:32  PAGE 42


  C:B4B8H         LINE#         91
  C:B4BAH         LINE#         92
  C:B4BCH         LINE#         94
  C:B4BCH         LINE#         95
  C:B4BEH         LINE#         96
  C:B4BEH         LINE#         97
  C:B4C0H         LINE#         98
  C:B4C3H         LINE#         99
  C:B4C6H         LINE#         101
  -------         ENDPROC       _E_D_M
  -------         PROC          L?0058
  -------         ENDPROC       L?0058
  -------         PROC          START
  C:B61CH         LINE#         103
  C:B61CH         LINE#         104
  C:B61CH         LINE#         105
  C:B61EH         LINE#         106
  C:B620H         LINE#         107
  C:B621H         LINE#         108
  C:B623H         LINE#         109
  C:B625H         LINE#         111
  -------         ENDPROC       START
  -------         PROC          STOP
  C:B6B3H         LINE#         113
  C:B6B3H         LINE#         114
  C:B6B3H         LINE#         115
  C:B6B5H         LINE#         116
  C:B6B7H         LINE#         117
  C:B6B9H         LINE#         118
  C:B6BBH         LINE#         120
  -------         ENDPROC       STOP
  -------         PROC          L_D_M
  -------         DO            
  D:0003H         SYMBOL        nbits
  -------         ENDDO         
  C:AA1AH         LINE#         122
  C:AA1AH         LINE#         123
  C:AA1AH         LINE#         125
  C:AA27H         LINE#         126
  C:AA27H         LINE#         127
  C:AA29H         LINE#         128
  C:AA2CH         LINE#         129
  C:AA2CH         LINE#         130
  C:AA33H         LINE#         131
  C:AA3CH         LINE#         132
  C:AA3CH         LINE#         133
  C:AA40H         LINE#         134
  C:AA42H         LINE#         135
  C:AA42H         LINE#         136
  C:AA42H         LINE#         137
  C:AA45H         LINE#         138
  C:AA45H         LINE#         139
  C:AA4CH         LINE#         140
  C:AA56H         LINE#         141
  C:AA56H         LINE#         142
  C:AA5AH         LINE#         143
  C:AA5CH         LINE#         144
BL51 BANKED LINKER/LOCATER V6.22.2.0                                                  11/11/2020  12:18:32  PAGE 43


  C:AA5CH         LINE#         145
  C:AA5CH         LINE#         146
  C:AA5FH         LINE#         147
  C:AA61H         LINE#         148
  C:AA66H         LINE#         149
  -------         ENDPROC       L_D_M
  -------         PROC          L?0056
  -------         ENDPROC       L?0056
  -------         PROC          _WR_EEPROM
  D:0002H         SYMBOL        control
  D:0004H         SYMBOL        Dir
  D:0003H         SYMBOL        data_eeprom
  -------         DO            
  D:0005H         SYMBOL        dir_h
  D:0001H         SYMBOL        dir_l
  -------         ENDDO         
  C:A8EEH         LINE#         155
  C:A8F0H         LINE#         156
  C:A8F0H         LINE#         158
  C:A8F4H         LINE#         159
  C:A8F4H         LINE#         160
  C:A8F4H         LINE#         163
  C:A8F4H         LINE#         164
  C:A8F4H         LINE#         166
  C:A8F7H         LINE#         167
  C:A8F9H         LINE#         168
  C:A8FCH         LINE#         169
  C:A8FEH         LINE#         170
  C:A901H         LINE#         171
  C:A906H         LINE#         172
  C:A909H         LINE#         173
  C:A90EH         LINE#         174
  C:A911H         LINE#         175
  C:A914H         LINE#         176
  C:A91BH         LINE#         178
  C:A91DH         LINE#         179
  C:A91FH         LINE#         180
  C:A926H         LINE#         181
  -------         ENDPROC       _WR_EEPROM
  C:AF7AH         SYMBOL        L?0060
  -------         PROC          L?0059
  -------         ENDPROC       L?0059
  C:AF7AH         SYMBOL        L?0060
  -------         PROC          _RD_EEPROM
  D:0003H         SYMBOL        control
  D:0004H         SYMBOL        Dir
  -------         DO            
  D:0005H         SYMBOL        dir_h
  D:0002H         SYMBOL        dir_l
  -------         ENDDO         
  C:AF7EH         LINE#         219
  C:AF80H         LINE#         220
  C:AF80H         LINE#         223
  C:AF84H         LINE#         224
  C:AF84H         LINE#         225
  C:AF84H         LINE#         227
  C:AF84H         LINE#         228
BL51 BANKED LINKER/LOCATER V6.22.2.0                                                  11/11/2020  12:18:32  PAGE 44


  C:AF84H         LINE#         230
  C:AF87H         LINE#         231
  C:AF89H         LINE#         232
  C:AF8CH         LINE#         233
  C:AF8EH         LINE#         234
  C:AF91H         LINE#         235
  C:AF96H         LINE#         236
  C:AF99H         LINE#         237
  C:AF9CH         LINE#         238
  C:AFA2H         LINE#         239
  C:AFA5H         LINE#         240
  C:AFA7H         LINE#         241
  C:AFAAH         LINE#         242
  C:AFADH         LINE#         243
  C:AFAFH         LINE#         244
  C:AFB1H         LINE#         245
  C:AFB6H         LINE#         246
  -------         ENDPROC       _RD_EEPROM
  -------         PROC          _GRABA_SERIE
  X:0010H         SYMBOL        buffer
  -------         DO            
  X:0013H         SYMBOL        j
  X:0014H         SYMBOL        error
  -------         ENDDO         
  C:8307H         LINE#         253
  C:8312H         LINE#         254
  C:8312H         LINE#         257
  C:8317H         LINE#         262
  C:8329H         LINE#         264
  C:833CH         LINE#         265
  C:833CH         LINE#         266
  C:8365H         LINE#         267
  C:8365H         LINE#         268
  C:836BH         LINE#         270
  C:8374H         LINE#         271
  C:8382H         LINE#         272
  C:838BH         LINE#         273
  C:838BH         LINE#         275
  C:8393H         LINE#         279
  C:8399H         LINE#         280
  C:8399H         LINE#         281
  C:83A7H         LINE#         283
  C:83A7H         LINE#         285
  C:83A7H         LINE#         286
  C:83B1H         LINE#         287
  C:83BCH         LINE#         288
  C:83C7H         LINE#         289
  C:83D2H         LINE#         291
  C:83D2H         LINE#         292
  -------         ENDPROC       _GRABA_SERIE
  -------         PROC          _WRITE_EEPROM_TICKET
  X:0015H         SYMBOL        buffer
  -------         DO            
  X:0018H         SYMBOL        cod_3
  X:0019H         SYMBOL        cod_2
  X:001AH         SYMBOL        cod_1
  X:001BH         SYMBOL        cod_0
BL51 BANKED LINKER/LOCATER V6.22.2.0                                                  11/11/2020  12:18:32  PAGE 45


  X:001CH         SYMBOL        Noticket
  D:0004H         SYMBOL        Bnoticket
  -------         ENDDO         
  C:7A70H         LINE#         293
  C:7A7BH         LINE#         294
  C:7A7BH         LINE#         296
  C:7A83H         LINE#         297
  C:7A8CH         LINE#         298
  C:7A9AH         LINE#         299
  C:7AA3H         LINE#         300
  C:7AB7H         LINE#         302
  C:7AC0H         LINE#         303
  C:7AD3H         LINE#         304
  C:7AD8H         LINE#         305
  C:7ADBH         LINE#         307
  C:7AEEH         LINE#         308
  C:7AF3H         LINE#         309
  C:7AF6H         LINE#         311
  C:7B09H         LINE#         312
  C:7B0EH         LINE#         313
  C:7B11H         LINE#         315
  C:7B1DH         LINE#         316
  C:7B20H         LINE#         317
  C:7B29H         LINE#         319
  C:7B37H         LINE#         320
  C:7B45H         LINE#         321
  C:7B53H         LINE#         322
  -------         ENDPROC       _WRITE_EEPROM_TICKET
  -------         PROC          LEE_NO_TICKET
  -------         DO            
  D:0004H         SYMBOL        Noticket
  X:001DH         SYMBOL        Lee_No_Ticket
  D:0007H         SYMBOL        num_chr
  -------         ENDDO         
  C:AA67H         LINE#         327
  C:AA67H         LINE#         328
  C:AA67H         LINE#         332
  C:AA6AH         LINE#         333
  C:AA85H         LINE#         334
  C:AA8EH         LINE#         335
  C:AA9AH         LINE#         336
  C:AAA3H         LINE#         337
  C:AAACH         LINE#         338
  C:AAB2H         LINE#         339
  -------         ENDPROC       LEE_NO_TICKET
  -------         PROC          READ_EEPROM_TICKET
  -------         DO            
  D:0001H         SYMBOL        cod3
  X:0028H         SYMBOL        cod2
  X:0029H         SYMBOL        cod1
  X:002AH         SYMBOL        cod0
  X:002BH         SYMBOL        Noticket
  -------         ENDDO         
  C:849EH         LINE#         343
  C:849EH         LINE#         344
  C:849EH         LINE#         346
  C:84A8H         LINE#         347
BL51 BANKED LINKER/LOCATER V6.22.2.0                                                  11/11/2020  12:18:32  PAGE 46


  C:84AFH         LINE#         348
  C:84B9H         LINE#         349
  C:84C7H         LINE#         350
  C:84D1H         LINE#         352
  C:84F1H         LINE#         353
  C:8516H         LINE#         354
  C:853BH         LINE#         355
  C:8559H         LINE#         356
  C:8567H         LINE#         357
  -------         ENDPROC       READ_EEPROM_TICKET
  -------         PROC          INCREMENTE_TICKET
  -------         DO            
  D:0004H         SYMBOL        Noticket
  X:0006H         SYMBOL        Lee_No_Ticket
  -------         ENDDO         
  C:B1BFH         LINE#         361
  C:B1BFH         LINE#         362
  C:B1BFH         LINE#         366
  C:B1C2H         LINE#         367
  C:B1CFH         LINE#         368
  C:B1EAH         LINE#         369
  -------         ENDPROC       INCREMENTE_TICKET
  -------         PROC          _LEERMEMORIA
  X:009CH         SYMBOL        addres
  X:009EH         SYMBOL        res
  -------         DO            
  D:0007H         SYMBOL        i
  -------         ENDDO         
  C:A637H         LINE#         375
  C:A648H         LINE#         376
  C:A648H         LINE#         378
  C:A648H         LINE#         379
  C:A664H         LINE#         380
  C:A673H         LINE#         381
  C:A681H         LINE#         382
  C:A68BH         LINE#         383
  C:A68EH         LINE#         384
  -------         ENDPROC       _LEERMEMORIA
  -------         PROC          _ESCRIBIRMEMORIA
  X:005DH         SYMBOL        addres
  X:005FH         SYMBOL        res
  C:A55DH         LINE#         386
  C:A56EH         LINE#         387
  C:A56EH         LINE#         390
  C:A57EH         LINE#         391
  C:A585H         LINE#         392
  C:A588H         LINE#         394
  C:A596H         LINE#         395
  C:A5A0H         LINE#         396
  C:A5A2H         LINE#         397
  C:A5A5H         LINE#         398
  C:A5B3H         LINE#         399
  C:A5BDH         LINE#         400
  -------         ENDPROC       _ESCRIBIRMEMORIA
  -------         ENDMOD        EEPROM

  -------         MODULE        IO_SENSORES
BL51 BANKED LINKER/LOCATER V6.22.2.0                                                  11/11/2020  12:18:32  PAGE 47


  C:0000H         SYMBOL        _ICE_DUMMY_
  D:0090H         PUBLIC        P1
  D:00B0H         PUBLIC        P3
  C:AD79H         PUBLIC        Dir_board
  B:0021H.6       PUBLIC        PULSADOR_BOTTON
  C:B6DAH         PUBLIC        sel_Pulsa
  B:0090H.1       PUBLIC        DataIn
  C:B5C4H         PUBLIC        Dir_Board_Monitor
  C:B6D3H         PUBLIC        sel_Auto
  C:B11BH         PUBLIC        ValidaSensoresPaso
  B:00B0H.3       PUBLIC        busy
  C:B507H         PUBLIC        ValidaSensor
  C:B6E8H         PUBLIC        sel_Sensor1
  C:B6E1H         PUBLIC        sel_Sensor2
  C:A87CH         PUBLIC        Valida_Sensor1_Auto
  B:00B0H.5       PUBLIC        sel_A
  B:00B0H.6       PUBLIC        sel_B
  B:00B0H.7       PUBLIC        sel_C
  C:A015H         PUBLIC        msj_lcd_informativo
  C:B6EFH         PUBLIC        sel_Dir1
  C:B6F6H         PUBLIC        sel_Dir2
  C:B626H         PUBLIC        Botton
  C:B6CCH         PUBLIC        sel_Funcion
  -------         PROC          SEL_FUNCION
  C:B6CCH         LINE#         32
  C:B6CCH         LINE#         33
  C:B6CCH         LINE#         34
  C:B6CEH         LINE#         35
  C:B6D0H         LINE#         36
  C:B6D2H         LINE#         37
  -------         ENDPROC       SEL_FUNCION
  -------         PROC          SEL_AUTO
  C:B6D3H         LINE#         39
  C:B6D3H         LINE#         40
  C:B6D3H         LINE#         41
  C:B6D5H         LINE#         42
  C:B6D7H         LINE#         43
  C:B6D9H         LINE#         44
  -------         ENDPROC       SEL_AUTO
  -------         PROC          SEL_PULSA
  C:B6DAH         LINE#         46
  C:B6DAH         LINE#         47
  C:B6DAH         LINE#         48
  C:B6DCH         LINE#         49
  C:B6DEH         LINE#         50
  C:B6E0H         LINE#         51
  -------         ENDPROC       SEL_PULSA
  -------         PROC          SEL_SENSOR2
  C:B6E1H         LINE#         54
  C:B6E1H         LINE#         55
  C:B6E1H         LINE#         56
  C:B6E3H         LINE#         57
  C:B6E5H         LINE#         58
  C:B6E7H         LINE#         59
  -------         ENDPROC       SEL_SENSOR2
  -------         PROC          SEL_SENSOR1
  C:B6E8H         LINE#         61
BL51 BANKED LINKER/LOCATER V6.22.2.0                                                  11/11/2020  12:18:32  PAGE 48


  C:B6E8H         LINE#         62
  C:B6E8H         LINE#         63
  C:B6EAH         LINE#         64
  C:B6ECH         LINE#         65
  C:B6EEH         LINE#         66
  -------         ENDPROC       SEL_SENSOR1
  -------         PROC          SEL_DIR1
  C:B6EFH         LINE#         68
  C:B6EFH         LINE#         69
  C:B6EFH         LINE#         70
  C:B6F1H         LINE#         71
  C:B6F3H         LINE#         72
  C:B6F5H         LINE#         73
  -------         ENDPROC       SEL_DIR1
  -------         PROC          SEL_DIR2
  C:B6F6H         LINE#         75
  C:B6F6H         LINE#         76
  C:B6F6H         LINE#         77
  C:B6F8H         LINE#         78
  C:B6FAH         LINE#         79
  C:B6FCH         LINE#         80
  -------         ENDPROC       SEL_DIR2
  -------         PROC          BOTTON
  C:B626H         LINE#         81
  C:B626H         LINE#         82
  C:B626H         LINE#         83
  C:B629H         LINE#         84
  C:B62CH         LINE#         85
  C:B62CH         LINE#         86
  C:B635H         LINE#         87
  C:B637H         LINE#         88
  C:B637H         LINE#         90
  -------         ENDPROC       BOTTON
  -------         PROC          VALIDASENSOR
  -------         DO            
  D:0007H         SYMBOL        Valido
  D:0004H         SYMBOL        Tmin
  -------         ENDDO         
  C:B507H         LINE#         92
  C:B507H         LINE#         93
  C:B507H         LINE#         95
  C:B509H         LINE#         96
  C:B50DH         LINE#         97
  C:B518H         LINE#         98
  C:B518H         LINE#         99
  C:B51DH         LINE#         100
  C:B521H         LINE#         101
  C:B521H         LINE#         102
  C:B523H         LINE#         103
  C:B523H         LINE#         104
  C:B525H         LINE#         105
  C:B525H         LINE#         106
  -------         ENDPROC       VALIDASENSOR
  -------         PROC          DIR_BOARD
  -------         DO            
  X:0032H         SYMBOL        Board
  D:0007H         SYMBOL        Board_High
BL51 BANKED LINKER/LOCATER V6.22.2.0                                                  11/11/2020  12:18:32  PAGE 49


  -------         ENDDO         
  C:AD79H         LINE#         110
  C:AD79H         LINE#         111
  C:AD79H         LINE#         112
  C:AD7FH         LINE#         114
  C:AD82H         LINE#         115
  C:AD85H         LINE#         116
  C:AD85H         LINE#         117
  C:AD88H         LINE#         118
  C:AD88H         LINE#         119
  C:AD8BH         LINE#         120
  C:AD8EH         LINE#         121
  C:AD8EH         LINE#         122
  C:AD95H         LINE#         123
  C:AD95H         LINE#         124
  C:AD9DH         LINE#         125
  C:AD9DH         LINE#         126
  C:ADA5H         LINE#         128
  C:ADA8H         LINE#         129
  C:ADA8H         LINE#         130
  C:ADAEH         LINE#         131
  C:ADAEH         LINE#         132
  C:ADB0H         LINE#         133
  C:ADB2H         LINE#         134
  C:ADB4H         LINE#         135
  C:ADB4H         LINE#         137
  C:ADB4H         LINE#         138
  C:ADBBH         LINE#         139
  -------         ENDPROC       DIR_BOARD
  -------         PROC          DIR_BOARD_MONITOR
  -------         DO            
  D:0007H         SYMBOL        Board_High
  -------         ENDDO         
  C:B5C4H         LINE#         140
  C:B5C4H         LINE#         141
  C:B5C4H         LINE#         144
  C:B5CDH         LINE#         145
  C:B5D0H         LINE#         146
  C:B5D0H         LINE#         147
  C:B5D3H         LINE#         148
  C:B5D3H         LINE#         149
  C:B5D5H         LINE#         150
  C:B5D5H         LINE#         151
  C:B5D5H         LINE#         152
  C:B5D9H         LINE#         153
  -------         ENDPROC       DIR_BOARD_MONITOR
  -------         PROC          VALIDA_SENSOR1_AUTO
  -------         DO            
  X:0011H         SYMBOL        sensor
  -------         ENDDO         
  C:A87CH         LINE#         157
  C:A87CH         LINE#         158
  C:A87CH         LINE#         160
  C:A87FH         LINE#         161
  C:A882H         LINE#         162
  C:A885H         LINE#         163
  C:A88AH         LINE#         164
BL51 BANKED LINKER/LOCATER V6.22.2.0                                                  11/11/2020  12:18:32  PAGE 50


  C:A88AH         LINE#         165
  C:A891H         LINE#         166
  C:A895H         LINE#         167
  C:A895H         LINE#         168
  C:A895H         LINE#         169
  C:A897H         LINE#         171
  C:A897H         LINE#         172
  C:A89EH         LINE#         173
  C:A8A3H         LINE#         174
  C:A8A3H         LINE#         175
  C:A8A3H         LINE#         176
  C:A8A3H         LINE#         179
  C:A8A5H         LINE#         181
  C:A8A8H         LINE#         182
  C:A8ADH         LINE#         183
  C:A8ADH         LINE#         185
  C:A8B4H         LINE#         186
  C:A8BAH         LINE#         187
  C:A8C0H         LINE#         188
  C:A8C3H         LINE#         189
  C:A8C5H         LINE#         191
  C:A8C5H         LINE#         192
  C:A8CCH         LINE#         193
  C:A8D1H         LINE#         194
  C:A8D1H         LINE#         197
  C:A8D1H         LINE#         199
  C:A8D6H         LINE#         200
  -------         ENDPROC       VALIDA_SENSOR1_AUTO
  -------         PROC          VALIDASENSORESPASO
  -------         DO            
  X:0010H         SYMBOL        sensor
  -------         ENDDO         
  C:B11BH         LINE#         205
  C:B11BH         LINE#         206
  C:B11BH         LINE#         208
  C:B11EH         LINE#         209
  C:B121H         LINE#         210
  C:B121H         LINE#         211
  C:B12FH         LINE#         212
  C:B12FH         LINE#         213
  C:B137H         LINE#         215
  C:B139H         LINE#         217
  C:B139H         LINE#         218
  C:B13FH         LINE#         219
  C:B141H         LINE#         220
  C:B141H         LINE#         221
  C:B141H         LINE#         222
  C:B141H         LINE#         223
  C:B14AH         LINE#         224
  C:B14DH         LINE#         225
  C:B14DH         LINE#         226
  C:B152H         LINE#         227
  -------         ENDPROC       VALIDASENSORESPASO
  -------         PROC          MSJ_LCD_INFORMATIVO
  -------         DO            
  X:0001H         SYMBOL        info
  X:0269H         SYMBOL        toggle
BL51 BANKED LINKER/LOCATER V6.22.2.0                                                  11/11/2020  12:18:32  PAGE 51


  -------         ENDDO         
  C:A015H         LINE#         237
  C:A015H         LINE#         238
  C:A015H         LINE#         239
  C:A01AH         LINE#         241
  C:A01DH         LINE#         242
  C:A020H         LINE#         243
  C:A020H         LINE#         244
  C:A02CH         LINE#         245
  C:A02CH         LINE#         246
  C:A02FH         LINE#         247
  C:A02FH         LINE#         248
  C:A031H         LINE#         249
  C:A034H         LINE#         250
  C:A03AH         LINE#         251
  C:A03AH         LINE#         252
  C:A03CH         LINE#         253
  C:A04AH         LINE#         254
  C:A04AH         LINE#         255
  C:A04DH         LINE#         256
  C:A04DH         LINE#         257
  C:A04FH         LINE#         258
  C:A052H         LINE#         259
  C:A058H         LINE#         260
  C:A058H         LINE#         261
  C:A05AH         LINE#         262
  C:A068H         LINE#         263
  C:A068H         LINE#         264
  C:A06BH         LINE#         265
  C:A06BH         LINE#         266
  C:A06DH         LINE#         267
  C:A07BH         LINE#         268
  C:A07BH         LINE#         269
  C:A07DH         LINE#         270
  C:A084H         LINE#         272
  C:A089H         LINE#         273
  C:A089H         LINE#         275
  C:A089H         LINE#         277
  C:A089H         LINE#         279
  C:A08CH         LINE#         280
  C:A08FH         LINE#         281
  C:A08FH         LINE#         282
  C:A094H         LINE#         283
  C:A094H         LINE#         285
  -------         ENDPROC       MSJ_LCD_INFORMATIVO
  -------         ENDMOD        IO_SENSORES

  -------         MODULE        PANTALLAS
  C:0000H         SYMBOL        _ICE_DUMMY_
  D:0080H         PUBLIC        P0
  C:A97FH         PUBLIC        Reloj_Pantalla_Lcd
  C:265CH         PUBLIC        _PantallaLCD
  C:AD3DH         PUBLIC        _LCD_txt
  C:9C7CH         PUBLIC        _Raspberry_data
  C:B3F2H         PUBLIC        _tx_chrlcd
  C:338DH         SYMBOL        _?ix1000
  C:3393H         SYMBOL        _?ix1001
BL51 BANKED LINKER/LOCATER V6.22.2.0                                                  11/11/2020  12:18:32  PAGE 52


  C:3399H         SYMBOL        _?ix1002
  C:AC63H         PUBLIC        _LCD_txt_num_char
  X:0206H         PUBLIC        malloc_memoria
  C:48BFH         PUBLIC        _PantallaLCD_LINEA_2
  B:0098H.4       PUBLIC        REN
  B:0080H.7       PUBLIC        sel_com
  -------         PROC          _PANTALLALCD
  X:002AH         SYMBOL        cod_msg
  -------         DO            
  X:002BH         SYMBOL        Ini_LCD_Line_one
  X:0031H         SYMBOL        num_chr
  X:0032H         SYMBOL        msjpantalla
  -------         ENDDO         
  C:265CH         LINE#         90
  C:2661H         LINE#         91
  C:2661H         LINE#         93
  C:2674H         LINE#         100
  C:267FH         LINE#         101
  C:268EH         LINE#         102
  C:2690H         LINE#         104
  C:2699H         LINE#         105
  C:2699H         LINE#         106
  C:26A3H         LINE#         108
  C:26FFH         LINE#         109
  C:26FFH         LINE#         111
  C:26FFH         LINE#         112
  C:270DH         LINE#         113
  C:2713H         LINE#         114
  C:2716H         LINE#         115
  C:271CH         LINE#         116
  C:271FH         LINE#         118
  C:271FH         LINE#         120
  C:272DH         LINE#         121
  C:2733H         LINE#         122
  C:2736H         LINE#         123
  C:273CH         LINE#         124
  C:273FH         LINE#         126
  C:273FH         LINE#         128
  C:274DH         LINE#         129
  C:2753H         LINE#         130
  C:2756H         LINE#         131
  C:275CH         LINE#         132
  C:275FH         LINE#         133
  C:275FH         LINE#         134
  C:276DH         LINE#         135
  C:2773H         LINE#         136
  C:2776H         LINE#         137
  C:277CH         LINE#         138
  C:277FH         LINE#         139
  C:277FH         LINE#         140
  C:278DH         LINE#         141
  C:2793H         LINE#         142
  C:2796H         LINE#         143
  C:279CH         LINE#         144
  C:279FH         LINE#         145
  C:279FH         LINE#         146
  C:27ADH         LINE#         147
BL51 BANKED LINKER/LOCATER V6.22.2.0                                                  11/11/2020  12:18:32  PAGE 53


  C:27B3H         LINE#         148
  C:27B6H         LINE#         149
  C:27BCH         LINE#         150
  C:27BFH         LINE#         151
  C:27BFH         LINE#         153
  C:27CDH         LINE#         154
  C:27D3H         LINE#         155
  C:27D6H         LINE#         156
  C:27DCH         LINE#         157
  C:27DFH         LINE#         158
  C:27DFH         LINE#         164
  C:27DFH         LINE#         165
  C:27EDH         LINE#         166
  C:27F3H         LINE#         167
  C:27F6H         LINE#         168
  C:27FCH         LINE#         169
  C:27FFH         LINE#         170
  C:27FFH         LINE#         171
  C:280DH         LINE#         172
  C:2813H         LINE#         173
  C:2816H         LINE#         174
  C:281CH         LINE#         175
  C:281FH         LINE#         177
  C:281FH         LINE#         178
  C:282DH         LINE#         179
  C:2833H         LINE#         180
  C:2836H         LINE#         181
  C:283CH         LINE#         182
  C:283FH         LINE#         184
  C:283FH         LINE#         185
  C:284DH         LINE#         186
  C:2853H         LINE#         187
  C:2856H         LINE#         188
  C:285CH         LINE#         189
  C:285FH         LINE#         194
  C:285FH         LINE#         196
  C:286DH         LINE#         197
  C:2873H         LINE#         198
  C:2876H         LINE#         199
  C:287CH         LINE#         200
  C:287FH         LINE#         202
  C:287FH         LINE#         204
  C:288DH         LINE#         205
  C:2893H         LINE#         206
  C:2896H         LINE#         207
  C:289CH         LINE#         208
  C:289FH         LINE#         210
  C:289FH         LINE#         211
  C:28ADH         LINE#         212
  C:28B3H         LINE#         213
  C:28B6H         LINE#         214
  C:28BCH         LINE#         215
  C:28BFH         LINE#         217
  C:28BFH         LINE#         219
  C:28CDH         LINE#         220
  C:28D3H         LINE#         221
  C:28D6H         LINE#         222
BL51 BANKED LINKER/LOCATER V6.22.2.0                                                  11/11/2020  12:18:32  PAGE 54


  C:28DCH         LINE#         223
  C:28DFH         LINE#         225
  C:28DFH         LINE#         227
  C:28EDH         LINE#         228
  C:28F3H         LINE#         229
  C:28F6H         LINE#         230
  C:28FCH         LINE#         231
  C:28FFH         LINE#         233
  C:28FFH         LINE#         234
  C:290DH         LINE#         235
  C:2913H         LINE#         236
  C:2916H         LINE#         237
  C:291CH         LINE#         238
  C:291FH         LINE#         240
  C:291FH         LINE#         241
  C:292DH         LINE#         242
  C:2933H         LINE#         243
  C:2936H         LINE#         244
  C:293CH         LINE#         245
  C:293FH         LINE#         247
  C:293FH         LINE#         249
  C:294DH         LINE#         250
  C:2953H         LINE#         251
  C:2956H         LINE#         252
  C:295CH         LINE#         253
  C:295FH         LINE#         255
  C:295FH         LINE#         256
  C:296DH         LINE#         257
  C:2973H         LINE#         258
  C:2976H         LINE#         259
  C:297CH         LINE#         260
  C:297FH         LINE#         261
  C:297FH         LINE#         262
  C:298DH         LINE#         263
  C:2993H         LINE#         264
  C:2996H         LINE#         265
  C:299CH         LINE#         266
  C:299FH         LINE#         267
  C:299FH         LINE#         268
  C:29ADH         LINE#         269
  C:29B3H         LINE#         270
  C:29B6H         LINE#         271
  C:29BCH         LINE#         272
  C:29BFH         LINE#         273
  C:29BFH         LINE#         274
  C:29CDH         LINE#         275
  C:29D0H         LINE#         276
  C:29D6H         LINE#         277
  C:29D8H         LINE#         281
  C:29D8H         LINE#         282
  C:29E6H         LINE#         283
  C:29ECH         LINE#         284
  C:29EFH         LINE#         285
  C:29F5H         LINE#         286
  C:29F7H         LINE#         287
  C:29F7H         LINE#         288
  C:2A05H         LINE#         289
BL51 BANKED LINKER/LOCATER V6.22.2.0                                                  11/11/2020  12:18:32  PAGE 55


  C:2A0BH         LINE#         290
  C:2A0EH         LINE#         291
  C:2A14H         LINE#         292
  C:2A16H         LINE#         293
  C:2A16H         LINE#         294
  C:2A24H         LINE#         295
  C:2A2AH         LINE#         296
  C:2A2DH         LINE#         297
  C:2A38H         LINE#         298
  C:2A38H         LINE#         307
  C:2A38H         LINE#         309
  C:2A38H         LINE#         310
  C:2A38H         LINE#         311
  C:2A3AH         LINE#         313
  C:2A3BH         LINE#         315
  C:2A3BH         LINE#         316
  C:2A3DH         LINE#         317
  C:2A9FH         LINE#         318
  C:2A9FH         LINE#         321
  C:2A9FH         LINE#         322
  C:2AB3H         LINE#         323
  C:2AB3H         LINE#         325
  C:2AB6H         LINE#         326
  C:2AB6H         LINE#         329
  C:2ACAH         LINE#         330
  C:2ACAH         LINE#         331
  C:2ACDH         LINE#         333
  C:2ACDH         LINE#         334
  C:2AE1H         LINE#         335
  C:2AE1H         LINE#         337
  C:2AE4H         LINE#         338
  C:2AE4H         LINE#         339
  C:2AF8H         LINE#         340
  C:2AF8H         LINE#         342
  C:2AFBH         LINE#         343
  C:2AFBH         LINE#         344
  C:2B0FH         LINE#         345
  C:2B0FH         LINE#         347
  C:2B12H         LINE#         348
  C:2B12H         LINE#         349
  C:2B26H         LINE#         350
  C:2B26H         LINE#         352
  C:2B29H         LINE#         353
  C:2B29H         LINE#         354
  C:2B3DH         LINE#         355
  C:2B3DH         LINE#         357
  C:2B40H         LINE#         358
  C:2B40H         LINE#         359
  C:2B54H         LINE#         360
  C:2B54H         LINE#         362
  C:2B57H         LINE#         364
  C:2B57H         LINE#         365
  C:2B6BH         LINE#         366
  C:2B6BH         LINE#         368
  C:2B6EH         LINE#         370
  C:2B6EH         LINE#         371
  C:2B82H         LINE#         372
BL51 BANKED LINKER/LOCATER V6.22.2.0                                                  11/11/2020  12:18:32  PAGE 56


  C:2B82H         LINE#         374
  C:2B85H         LINE#         376
  C:2B85H         LINE#         377
  C:2B99H         LINE#         378
  C:2B99H         LINE#         380
  C:2B9CH         LINE#         382
  C:2B9CH         LINE#         383
  C:2BB0H         LINE#         384
  C:2BB0H         LINE#         386
  C:2BB3H         LINE#         390
  C:2BB3H         LINE#         391
  C:2BC7H         LINE#         392
  C:2BC7H         LINE#         394
  C:2BCAH         LINE#         396
  C:2BCAH         LINE#         397
  C:2BDEH         LINE#         398
  C:2BDEH         LINE#         400
  C:2BE1H         LINE#         402
  C:2BE1H         LINE#         403
  C:2BF5H         LINE#         404
  C:2BF5H         LINE#         410
  C:2BF8H         LINE#         411
  C:2BF8H         LINE#         412
  C:2C0CH         LINE#         413
  C:2C0CH         LINE#         415
  C:2C0FH         LINE#         416
  C:2C0FH         LINE#         417
  C:2C23H         LINE#         418
  C:2C23H         LINE#         420
  C:2C26H         LINE#         421
  C:2C26H         LINE#         422
  C:2C3AH         LINE#         423
  C:2C3AH         LINE#         425
  C:2C3DH         LINE#         426
  C:2C3DH         LINE#         427
  C:2C51H         LINE#         428
  C:2C51H         LINE#         430
  C:2C54H         LINE#         432
  C:2C54H         LINE#         433
  C:2C68H         LINE#         434
  C:2C68H         LINE#         436
  C:2C6BH         LINE#         438
  C:2C6BH         LINE#         439
  C:2C7FH         LINE#         440
  C:2C7FH         LINE#         442
  C:2C82H         LINE#         443
  C:2C82H         LINE#         444
  C:2C96H         LINE#         445
  C:2C96H         LINE#         447
  C:2C99H         LINE#         448
  C:2C99H         LINE#         449
  C:2CADH         LINE#         450
  C:2CADH         LINE#         452
  C:2CB0H         LINE#         453
  C:2CB0H         LINE#         454
  C:2CC4H         LINE#         455
  C:2CC4H         LINE#         457
BL51 BANKED LINKER/LOCATER V6.22.2.0                                                  11/11/2020  12:18:32  PAGE 57


  C:2CC6H         LINE#         459
  C:2CC6H         LINE#         460
  C:2CDAH         LINE#         461
  C:2CDAH         LINE#         463
  C:2CDCH         LINE#         464
  C:2CDCH         LINE#         465
  C:2CF0H         LINE#         466
  C:2CF0H         LINE#         468
  C:2CF2H         LINE#         469
  C:2CF2H         LINE#         470
  C:2D06H         LINE#         471
  C:2D06H         LINE#         473
  C:2D08H         LINE#         478
  C:2D08H         LINE#         479
  C:2D1CH         LINE#         480
  C:2D1CH         LINE#         482
  C:2D1EH         LINE#         483
  C:2D1EH         LINE#         484
  C:2D35H         LINE#         485
  C:2D3BH         LINE#         487
  C:2D3BH         LINE#         495
  C:2D3BH         LINE#         496
  C:2D3BH         LINE#         497
  C:2D3BH         LINE#         498
  C:2D46H         LINE#         499
  C:2D4DH         LINE#         500
  C:2D4FH         LINE#         501
  C:2D4FH         LINE#         505
  -------         ENDPROC       _PANTALLALCD
  -------         PROC          _PANTALLALCD_LINEA_2
  X:0010H         SYMBOL        cod_msg
  X:0011H         SYMBOL        buffer
  -------         DO            
  X:0014H         SYMBOL        Ini_LCD_Line_one
  X:001AH         SYMBOL        num_chr
  X:001BH         SYMBOL        msjpantalla
  -------         ENDDO         
  C:48BFH         LINE#         506
  C:48CDH         LINE#         507
  C:48CDH         LINE#         509
  C:48E0H         LINE#         513
  C:48EBH         LINE#         514
  C:48FAH         LINE#         518
  C:48FCH         LINE#         520
  C:4905H         LINE#         521
  C:4905H         LINE#         524
  C:4913H         LINE#         525
  C:4913H         LINE#         527
  C:4913H         LINE#         528
  C:4916H         LINE#         529
  C:4924H         LINE#         530
  C:4939H         LINE#         531
  C:493FH         LINE#         532
  C:4945H         LINE#         533
  C:494BH         LINE#         534
  C:494BH         LINE#         535
  C:494DH         LINE#         536
BL51 BANKED LINKER/LOCATER V6.22.2.0                                                  11/11/2020  12:18:32  PAGE 58


  C:494DH         LINE#         537
  C:4950H         LINE#         538
  C:495EH         LINE#         539
  C:4973H         LINE#         540
  C:4979H         LINE#         541
  C:497FH         LINE#         542
  C:498AH         LINE#         543
  C:499AH         LINE#         544
  C:499AH         LINE#         548
  C:499AH         LINE#         550
  C:499AH         LINE#         552
  C:499AH         LINE#         553
  C:499CH         LINE#         554
  C:499DH         LINE#         556
  C:499DH         LINE#         557
  C:499FH         LINE#         558
  C:49B9H         LINE#         559
  C:49B9H         LINE#         560
  C:49B9H         LINE#         562
  C:49D0H         LINE#         563
  C:49D0H         LINE#         564
  C:49D0H         LINE#         565
  C:49D0H         LINE#         568
  C:49D3H         LINE#         570
  C:49D3H         LINE#         571
  C:49EAH         LINE#         572
  C:49FDH         LINE#         573
  C:4A17H         LINE#         574
  C:4A17H         LINE#         575
  C:4A17H         LINE#         576
  C:4A17H         LINE#         578
  C:4A1AH         LINE#         579
  C:4A1AH         LINE#         581
  C:4A2EH         LINE#         582
  C:4A31H         LINE#         583
  C:4A34H         LINE#         584
  C:4A34H         LINE#         586
  C:4A49H         LINE#         588
  C:4A49H         LINE#         589
  C:4A4BH         LINE#         591
  C:4A4BH         LINE#         593
  C:4A64H         LINE#         595
  C:4A67H         LINE#         597
  C:4A67H         LINE#         598
  C:4A7AH         LINE#         599
  C:4A7AH         LINE#         600
  C:4A81H         LINE#         602
  C:4AA2H         LINE#         604
  C:4ABFH         LINE#         605
  C:4AC2H         LINE#         607
  C:4AC2H         LINE#         608
  C:4AC9H         LINE#         610
  C:4AC9H         LINE#         611
  C:4AC9H         LINE#         614
  C:4ACCH         LINE#         616
  C:4ACCH         LINE#         617
  C:4AE3H         LINE#         618
BL51 BANKED LINKER/LOCATER V6.22.2.0                                                  11/11/2020  12:18:32  PAGE 59


  C:4AF6H         LINE#         619
  C:4B10H         LINE#         620
  C:4B3CH         LINE#         621
  C:4B59H         LINE#         622
  C:4B5CH         LINE#         624
  C:4B5CH         LINE#         626
  C:4B5CH         LINE#         628
  C:4B5CH         LINE#         629
  C:4B5CH         LINE#         630
  C:4B67H         LINE#         631
  C:4B6EH         LINE#         632
  C:4B70H         LINE#         633
  C:4B70H         LINE#         634
  -------         ENDPROC       _PANTALLALCD_LINEA_2
  C:B3E9H         SYMBOL        L?0164
  C:B3ECH         SYMBOL        L?0165
  C:B3EDH         SYMBOL        L?0166
  -------         PROC          L?0163
  -------         ENDPROC       L?0163
  C:B3E9H         SYMBOL        L?0164
  C:B3ECH         SYMBOL        L?0165
  C:B3EDH         SYMBOL        L?0166
  -------         PROC          _TX_CHRLCD
  D:0007H         SYMBOL        data_com
  X:0039H         SYMBOL        enable_char_add
  -------         DO            
  X:003AH         SYMBOL        d
  -------         ENDDO         
  C:B3F2H         LINE#         640
  C:B3F7H         LINE#         641
  C:B3F7H         LINE#         643
  C:B3FFH         LINE#         644
  C:B40FH         LINE#         646
  -------         ENDPROC       _TX_CHRLCD
  -------         PROC          L?0170
  -------         ENDPROC       L?0170
  -------         PROC          _LCD_TXT
  X:0034H         SYMBOL        msg
  X:0037H         SYMBOL        enable_char_add
  -------         DO            
  X:0038H         SYMBOL        i
  -------         ENDDO         
  C:AD3DH         LINE#         653
  C:AD4BH         LINE#         654
  C:AD4BH         LINE#         657
  C:AD68H         LINE#         658
  C:AD68H         LINE#         659
  C:AD70H         LINE#         660
  C:AD78H         LINE#         661
  -------         ENDPROC       _LCD_TXT
  -------         PROC          _LCD_TXT_NUM_CHAR
  X:001DH         SYMBOL        msg
  X:0020H         SYMBOL        length_char
  X:0021H         SYMBOL        enable_char_add
  -------         DO            
  X:0022H         SYMBOL        i
  -------         ENDDO         
BL51 BANKED LINKER/LOCATER V6.22.2.0                                                  11/11/2020  12:18:32  PAGE 60


  C:AC63H         LINE#         668
  C:AC71H         LINE#         669
  C:AC71H         LINE#         672
  C:AC84H         LINE#         673
  C:AC84H         LINE#         674
  C:ACA0H         LINE#         675
  C:ACA8H         LINE#         676
  -------         ENDPROC       _LCD_TXT_NUM_CHAR
  C:9C70H         SYMBOL        L?0168
  C:9C73H         SYMBOL        L?0169
  -------         PROC          L?0167
  -------         ENDPROC       L?0167
  C:9C70H         SYMBOL        L?0168
  C:9C73H         SYMBOL        L?0169
  -------         PROC          _RASPBERRY_DATA
  X:0034H         SYMBOL        msjpantalla
  -------         DO            
  X:0037H         SYMBOL        i
  X:0038H         SYMBOL        lenth_cadena
  X:0039H         SYMBOL        d
  -------         ENDDO         
  C:9C7CH         LINE#         678
  C:9C87H         LINE#         679
  C:9C87H         LINE#         684
  C:9C8FH         LINE#         686
  C:9CA1H         LINE#         687
  C:9CA1H         LINE#         689
  C:9CB3H         LINE#         690
  C:9CB3H         LINE#         691
  C:9CB8H         LINE#         692
  C:9CD6H         LINE#         694
  C:9CDEH         LINE#         697
  C:9CF0H         LINE#         698
  C:9CF0H         LINE#         700
  C:9CF5H         LINE#         702
  -------         ENDPROC       _RASPBERRY_DATA
  -------         PROC          RELOJ_PANTALLA_LCD
  -------         DO            
  X:0010H         SYMBOL        Ini_Clock_LCD
  -------         ENDDO         
  C:A97FH         LINE#         710
  C:A97FH         LINE#         711
  C:A97FH         LINE#         713
  C:A992H         LINE#         714
  C:A998H         LINE#         715
  C:A998H         LINE#         716
  C:A99AH         LINE#         717
  C:A9A3H         LINE#         721
  C:A9A5H         LINE#         722
  C:A9B5H         LINE#         724
  C:A9B7H         LINE#         725
  C:A9B9H         LINE#         727
  C:A9BAH         LINE#         729
  C:A9BAH         LINE#         730
  C:A9BCH         LINE#         731
  C:A9C1H         LINE#         732
  C:A9CAH         LINE#         736
BL51 BANKED LINKER/LOCATER V6.22.2.0                                                  11/11/2020  12:18:32  PAGE 61


  C:A9CCH         LINE#         737
  C:A9CCH         LINE#         738
  -------         ENDPROC       RELOJ_PANTALLA_LCD
  -------         ENDMOD        PANTALLAS

  -------         MODULE        PROG
  C:0000H         SYMBOL        _ICE_DUMMY_
  C:519FH         PUBLIC        Prog_fecha_vencimiento
  C:63DBH         PUBLIC        Prog_Sin_Cobro
  C:6D40H         PUBLIC        _Ver_Horario_Desde_Hasta
  C:738CH         PUBLIC        Prog_debug
  C:7680H         PUBLIC        Prog_AntiPassBack
  C:99B9H         PUBLIC        _GetOption
  X:01B1H         PUBLIC        validacion
  C:7878H         PUBLIC        Prog_Validar_Tipo_Vehiculo_Mensual
  X:01BCH         PUBLIC        cursor
  C:6C26H         PUBLIC        _Prog_Horarios_on_off
  C:962AH         PUBLIC        Show
  C:3C9EH         PUBLIC        Ver_Prog
  C:B1F3H         PUBLIC        Addr_Horarios
  C:8DB0H         PUBLIC        prog_id_cliente
  C:ADC4H         PUBLIC        _ValidarClave
  C:4B71H         PUBLIC        menu
  C:7488H         PUBLIC        Prog_Use_Lpr
  C:A703H         PUBLIC        _ListaComandos
  C:12F7H         SYMBOL        _?ix1000
  C:1302H         SYMBOL        _?ix1001
  C:1312H         SYMBOL        _?ix1002
  C:1322H         SYMBOL        _?ix1003
  C:1326H         SYMBOL        _?ix1004
  C:6015H         PUBLIC        Prog_Horarios
  C:132AH         SYMBOL        _?ix1005
  C:7974H         PUBLIC        Prog_Apb_Mensual
  C:887CH         PUBLIC        Prog_tarjeta_automatica_o_boton
  C:4D9DH         PUBLIC        _hash_id
  C:4608H         PUBLIC        _Prog_Horario_dias
  C:8C39H         PUBLIC        Prog_tiempo_gracia
  C:A09DH         PUBLIC        _IngresaDato
  X:01D0H         PUBLIC        comandos
  C:AB47H         PUBLIC        First_Clave
  C:B596H         PUBLIC        DisplayCursor
  C:777CH         PUBLIC        Prog_Placa
  C:8B7CH         PUBLIC        prog_cod_park
  C:6657H         PUBLIC        Ver_Horario
  C:69E2H         PUBLIC        _Ver_Horario_dias
  C:4FA5H         PUBLIC        _Prog_Horario_Desde_Hasta
  C:7584H         PUBLIC        tipo_pantalla
  C:7D2FH         PUBLIC        Prog_Address_High_Board
  C:AE86H         PUBLIC        _GetCMD
  -------         PROC          _HASH_ID
  X:005DH         SYMBOL        clave
  -------         DO            
  X:0060H         SYMBOL        len_clave
  X:0061H         SYMBOL        i
  X:01ADH         SYMBOL        temp
  X:01AFH         SYMBOL        temp1
  X:0062H         SYMBOL        aleatorio
BL51 BANKED LINKER/LOCATER V6.22.2.0                                                  11/11/2020  12:18:32  PAGE 62


  X:006DH         SYMBOL        suma
  X:007DH         SYMBOL        xxor
  X:008DH         SYMBOL        usuario1
  X:0098H         SYMBOL        vencimiento_password
  -------         ENDDO         
  C:4D9DH         LINE#         121
  C:4DA8H         LINE#         122
  C:4DA8H         LINE#         125
  C:4DBBH         LINE#         127
  C:4DCEH         LINE#         128
  C:4DE1H         LINE#         132
  C:4DEEH         LINE#         133
  C:4E0AH         LINE#         135
  C:4E0AH         LINE#         136
  C:4E0EH         LINE#         137
  C:4E10H         LINE#         139
  C:4E10H         LINE#         140
  C:4E17H         LINE#         141
  C:4E17H         LINE#         142
  C:4E2AH         LINE#         143
  C:4E3EH         LINE#         144
  C:4E3EH         LINE#         145
  C:4E6AH         LINE#         146
  C:4E75H         LINE#         147
  C:4E82H         LINE#         148
  C:4EA0H         LINE#         149
  C:4EABH         LINE#         150
  C:4EB8H         LINE#         151
  C:4EDCH         LINE#         152
  C:4EE4H         LINE#         153
  C:4EE4H         LINE#         154
  C:4EE9H         LINE#         155
  C:4EE9H         LINE#         156
  C:4F02H         LINE#         157
  C:4F02H         LINE#         158
  C:4F0EH         LINE#         160
  C:4F0EH         LINE#         161
  C:4F1DH         LINE#         162
  C:4F1DH         LINE#         163
  C:4F29H         LINE#         164
  C:4F29H         LINE#         165
  C:4F42H         LINE#         166
  C:4F42H         LINE#         167
  C:4F4DH         LINE#         168
  C:4F4DH         LINE#         169
  C:4F66H         LINE#         170
  C:4F66H         LINE#         171
  C:4F71H         LINE#         172
  C:4F71H         LINE#         173
  C:4F86H         LINE#         175
  C:4F8FH         LINE#         176
  C:4F9EH         LINE#         178
  C:4FA4H         LINE#         179
  -------         ENDPROC       _HASH_ID
  -------         PROC          _LISTACOMANDOS
  X:0046H         SYMBOL        cmd
  -------         DO            
BL51 BANKED LINKER/LOCATER V6.22.2.0                                                  11/11/2020  12:18:32  PAGE 63


  X:0049H         SYMBOL        buf
  X:004CH         SYMBOL        i
  -------         ENDDO         
  C:A703H         LINE#         186
  C:A70EH         LINE#         187
  C:A70EH         LINE#         191
  C:A721H         LINE#         192
  C:A721H         LINE#         193
  C:A739H         LINE#         194
  C:A754H         LINE#         195
  C:A75AH         LINE#         196
  C:A762H         LINE#         198
  C:A764H         LINE#         199
  -------         ENDPROC       _LISTACOMANDOS
  -------         PROC          L?0274
  -------         ENDPROC       L?0274
  -------         PROC          _VALIDARCLAVE
  X:005DH         SYMBOL        buffer
  -------         DO            
  X:0060H         SYMBOL        buf
  -------         ENDDO         
  C:ADC4H         LINE#         205
  C:ADCFH         LINE#         206
  C:ADCFH         LINE#         209
  C:ADDEH         LINE#         210
  C:ADF9H         LINE#         211
  C:ADFBH         LINE#         214
  C:ADFDH         LINE#         215
  -------         ENDPROC       _VALIDARCLAVE
  -------         PROC          L?0275
  -------         ENDPROC       L?0275
  -------         PROC          _GETCMD
  X:005DH         SYMBOL        in
  -------         DO            
  X:0060H         SYMBOL        tokens
  -------         ENDDO         
  C:AE86H         LINE#         222
  C:AE91H         LINE#         223
  C:AE91H         LINE#         224
  C:AEA4H         LINE#         225
  -------         ENDPROC       _GETCMD
  -------         PROC          L?0273
  -------         ENDPROC       L?0273
  -------         PROC          _GETOPTION
  X:0046H         SYMBOL        in
  -------         DO            
  X:0049H         SYMBOL        tokensSpace
  X:004DH         SYMBOL        tokensQuote
  -------         ENDDO         
  C:99B9H         LINE#         231
  C:99C4H         LINE#         232
  C:99C4H         LINE#         233
  C:99D7H         LINE#         234
  C:99EAH         LINE#         237
  C:99FCH         LINE#         238
  C:9A08H         LINE#         241
  C:9A0FH         LINE#         242
BL51 BANKED LINKER/LOCATER V6.22.2.0                                                  11/11/2020  12:18:32  PAGE 64


  C:9A1CH         LINE#         244
  C:9A35H         LINE#         245
  -------         ENDPROC       _GETOPTION
  -------         PROC          DISPLAYCURSOR
  C:B596H         LINE#         250
  C:B596H         LINE#         251
  C:B596H         LINE#         252
  -------         ENDPROC       DISPLAYCURSOR
  C:A099H         SYMBOL        L?0272
  -------         PROC          L?0271
  -------         ENDPROC       L?0271
  C:A099H         SYMBOL        L?0272
  -------         PROC          _INGRESADATO
  X:0071H         SYMBOL        buffer
  X:0074H         SYMBOL        modo
  -------         DO            
  D:0006H         SYMBOL        i
  -------         ENDDO         
  C:A09DH         LINE#         259
  C:A0ABH         LINE#         260
  C:A0ABH         LINE#         265
  C:A0ABH         LINE#         266
  C:A0BDH         LINE#         267
  C:A0C3H         LINE#         268
  C:A0C3H         LINE#         269
  C:A0DEH         LINE#         270
  C:A0E0H         LINE#         272
  C:A0E0H         LINE#         273
  C:A0E5H         LINE#         274
  C:A0E5H         LINE#         275
  C:A0F6H         LINE#         276
  C:A100H         LINE#         277
  C:A10FH         LINE#         279
  C:A114H         LINE#         283
  -------         ENDPROC       _INGRESADATO
  -------         PROC          PROG_ID_CLIENTE
  -------         DO            
  X:0046H         SYMBOL        buffer
  X:0050H         SYMBOL        dataee
  -------         ENDDO         
  C:8DB0H         LINE#         300
  C:8DB0H         LINE#         301
  C:8DB0H         LINE#         305
  C:8DC2H         LINE#         306
  C:8DDFH         LINE#         308
  C:8DF6H         LINE#         310
  C:8DFFH         LINE#         311
  C:8E06H         LINE#         312
  C:8E17H         LINE#         313
  C:8E20H         LINE#         315
  C:8E32H         LINE#         316
  C:8E4FH         LINE#         317
  -------         ENDPROC       PROG_ID_CLIENTE
  -------         PROC          PROG_COD_PARK
  -------         DO            
  X:0046H         SYMBOL        buffer
  X:0050H         SYMBOL        dataee
BL51 BANKED LINKER/LOCATER V6.22.2.0                                                  11/11/2020  12:18:32  PAGE 65


  -------         ENDDO         
  C:8B7CH         LINE#         322
  C:8B7CH         LINE#         323
  C:8B7CH         LINE#         327
  C:8B8FH         LINE#         328
  C:8BACH         LINE#         330
  C:8BC3H         LINE#         332
  C:8BCCH         LINE#         333
  C:8BD7H         LINE#         334
  C:8BE8H         LINE#         335
  C:8BF2H         LINE#         337
  C:8C05H         LINE#         338
  C:8C22H         LINE#         339
  -------         ENDPROC       PROG_COD_PARK
  -------         PROC          PROG_TIEMPO_GRACIA
  -------         DO            
  X:0046H         SYMBOL        buffer
  X:0050H         SYMBOL        dataee
  -------         ENDDO         
  C:8C39H         LINE#         344
  C:8C39H         LINE#         345
  C:8C39H         LINE#         349
  C:8C4CH         LINE#         350
  C:8C69H         LINE#         352
  C:8C80H         LINE#         354
  C:8C89H         LINE#         355
  C:8C94H         LINE#         356
  C:8CA5H         LINE#         357
  C:8CAFH         LINE#         359
  C:8CC2H         LINE#         360
  C:8CDFH         LINE#         361
  -------         ENDPROC       PROG_TIEMPO_GRACIA
  -------         PROC          PROG_SIN_COBRO
  -------         DO            
  X:0046H         SYMBOL        buffer
  X:0050H         SYMBOL        dataee
  -------         ENDDO         
  C:63DBH         LINE#         367
  C:63DBH         LINE#         368
  C:63DBH         LINE#         374
  C:63EEH         LINE#         375
  C:640BH         LINE#         376
  C:6415H         LINE#         377
  C:6415H         LINE#         378
  C:6428H         LINE#         379
  C:642AH         LINE#         380
  C:6436H         LINE#         381
  C:6436H         LINE#         382
  C:6449H         LINE#         383
  C:644BH         LINE#         385
  C:644BH         LINE#         386
  C:6462H         LINE#         387
  C:6462H         LINE#         389
  C:646BH         LINE#         390
  C:6476H         LINE#         391
  C:6487H         LINE#         392
  C:6491H         LINE#         394
BL51 BANKED LINKER/LOCATER V6.22.2.0                                                  11/11/2020  12:18:32  PAGE 66


  C:64A4H         LINE#         395
  C:64C1H         LINE#         396
  C:64CBH         LINE#         397
  C:64CBH         LINE#         398
  C:64DEH         LINE#         399
  C:64E0H         LINE#         400
  C:64ECH         LINE#         401
  C:64ECH         LINE#         402
  C:64FFH         LINE#         403
  C:6501H         LINE#         405
  C:6501H         LINE#         406
  C:6518H         LINE#         407
  C:6518H         LINE#         409
  -------         ENDPROC       PROG_SIN_COBRO
  -------         PROC          PROG_DEBUG
  -------         DO            
  X:0046H         SYMBOL        buffer
  X:0050H         SYMBOL        dataee
  -------         ENDDO         
  C:738CH         LINE#         415
  C:738CH         LINE#         416
  C:738CH         LINE#         421
  C:739FH         LINE#         422
  C:73BCH         LINE#         423
  C:73C6H         LINE#         424
  C:73C6H         LINE#         425
  C:73D9H         LINE#         426
  C:73DBH         LINE#         428
  C:73DBH         LINE#         429
  C:73F2H         LINE#         430
  C:73F2H         LINE#         432
  C:73FBH         LINE#         433
  C:7406H         LINE#         434
  C:7417H         LINE#         435
  C:7421H         LINE#         437
  C:7434H         LINE#         438
  C:7451H         LINE#         439
  C:745BH         LINE#         440
  C:745BH         LINE#         441
  C:746EH         LINE#         442
  C:7470H         LINE#         444
  C:7470H         LINE#         445
  C:7487H         LINE#         446
  C:7487H         LINE#         447
  -------         ENDPROC       PROG_DEBUG
  -------         PROC          PROG_USE_LPR
  -------         DO            
  X:0046H         SYMBOL        buffer
  X:0050H         SYMBOL        dataee
  -------         ENDDO         
  C:7488H         LINE#         452
  C:7488H         LINE#         453
  C:7488H         LINE#         458
  C:749BH         LINE#         459
  C:74B8H         LINE#         460
  C:74C2H         LINE#         461
  C:74C2H         LINE#         462
BL51 BANKED LINKER/LOCATER V6.22.2.0                                                  11/11/2020  12:18:32  PAGE 67


  C:74D5H         LINE#         463
  C:74D7H         LINE#         465
  C:74D7H         LINE#         466
  C:74EEH         LINE#         467
  C:74EEH         LINE#         469
  C:74F7H         LINE#         470
  C:7502H         LINE#         471
  C:7513H         LINE#         472
  C:751DH         LINE#         474
  C:7530H         LINE#         475
  C:754DH         LINE#         476
  C:7557H         LINE#         477
  C:7557H         LINE#         478
  C:756AH         LINE#         479
  C:756CH         LINE#         481
  C:756CH         LINE#         482
  C:7583H         LINE#         483
  C:7583H         LINE#         484
  -------         ENDPROC       PROG_USE_LPR
  -------         PROC          TIPO_PANTALLA
  -------         DO            
  X:0046H         SYMBOL        buffer
  X:0050H         SYMBOL        dataee
  -------         ENDDO         
  C:7584H         LINE#         491
  C:7584H         LINE#         492
  C:7584H         LINE#         497
  C:7597H         LINE#         498
  C:75B4H         LINE#         499
  C:75BEH         LINE#         500
  C:75BEH         LINE#         501
  C:75D1H         LINE#         502
  C:75D3H         LINE#         504
  C:75D3H         LINE#         505
  C:75EAH         LINE#         506
  C:75EAH         LINE#         508
  C:75F3H         LINE#         509
  C:75FEH         LINE#         510
  C:760FH         LINE#         511
  C:7619H         LINE#         513
  C:762CH         LINE#         514
  C:7649H         LINE#         515
  C:7653H         LINE#         516
  C:7653H         LINE#         517
  C:7666H         LINE#         518
  C:7668H         LINE#         520
  C:7668H         LINE#         521
  C:767FH         LINE#         522
  C:767FH         LINE#         524
  -------         ENDPROC       TIPO_PANTALLA
  -------         PROC          PROG_TARJETA_AUTOMATICA_O_BOTON
  -------         DO            
  X:0046H         SYMBOL        buffer
  X:0050H         SYMBOL        dataee
  -------         ENDDO         
  C:887CH         LINE#         525
  C:887CH         LINE#         526
BL51 BANKED LINKER/LOCATER V6.22.2.0                                                  11/11/2020  12:18:32  PAGE 68


  C:887CH         LINE#         531
  C:888FH         LINE#         532
  C:88ACH         LINE#         533
  C:88B8H         LINE#         534
  C:88B8H         LINE#         535
  C:88BCH         LINE#         536
  C:88BEH         LINE#         538
  C:88BEH         LINE#         539
  C:88C5H         LINE#         540
  C:88C5H         LINE#         542
  C:88CEH         LINE#         543
  C:88D9H         LINE#         544
  C:88EAH         LINE#         545
  C:88F4H         LINE#         547
  C:8907H         LINE#         548
  C:8924H         LINE#         549
  C:8930H         LINE#         550
  C:8930H         LINE#         551
  C:8934H         LINE#         552
  C:8936H         LINE#         554
  C:8936H         LINE#         555
  C:893DH         LINE#         556
  C:893DH         LINE#         557
  -------         ENDPROC       PROG_TARJETA_AUTOMATICA_O_BOTON
  -------         PROC          PROG_ANTIPASSBACK
  -------         DO            
  X:0046H         SYMBOL        buffer
  X:0050H         SYMBOL        dataee
  -------         ENDDO         
  C:7680H         LINE#         558
  C:7680H         LINE#         559
  C:7680H         LINE#         564
  C:7693H         LINE#         565
  C:76B0H         LINE#         566
  C:76BAH         LINE#         567
  C:76BAH         LINE#         568
  C:76CDH         LINE#         569
  C:76CFH         LINE#         571
  C:76CFH         LINE#         572
  C:76E6H         LINE#         573
  C:76E6H         LINE#         575
  C:76EFH         LINE#         576
  C:76FAH         LINE#         577
  C:770BH         LINE#         578
  C:7715H         LINE#         580
  C:7728H         LINE#         581
  C:7745H         LINE#         582
  C:774FH         LINE#         583
  C:774FH         LINE#         584
  C:7762H         LINE#         585
  C:7764H         LINE#         587
  C:7764H         LINE#         588
  C:777BH         LINE#         589
  C:777BH         LINE#         590
  -------         ENDPROC       PROG_ANTIPASSBACK
  -------         PROC          PROG_PLACA
  -------         DO            
BL51 BANKED LINKER/LOCATER V6.22.2.0                                                  11/11/2020  12:18:32  PAGE 69


  X:0046H         SYMBOL        buffer
  X:0050H         SYMBOL        dataee
  -------         ENDDO         
  C:777CH         LINE#         591
  C:777CH         LINE#         592
  C:777CH         LINE#         597
  C:778FH         LINE#         598
  C:77ACH         LINE#         599
  C:77B6H         LINE#         600
  C:77B6H         LINE#         601
  C:77C9H         LINE#         602
  C:77CBH         LINE#         604
  C:77CBH         LINE#         605
  C:77E2H         LINE#         606
  C:77E2H         LINE#         608
  C:77EBH         LINE#         609
  C:77F6H         LINE#         610
  C:7807H         LINE#         611
  C:7811H         LINE#         613
  C:7824H         LINE#         614
  C:7841H         LINE#         615
  C:784BH         LINE#         616
  C:784BH         LINE#         617
  C:785EH         LINE#         618
  C:7860H         LINE#         620
  C:7860H         LINE#         621
  C:7877H         LINE#         622
  C:7877H         LINE#         623
  -------         ENDPROC       PROG_PLACA
  -------         PROC          PROG_ADDRESS_HIGH_BOARD
  -------         DO            
  X:0046H         SYMBOL        buffer
  X:0050H         SYMBOL        dataee
  -------         ENDDO         
  C:7D2FH         LINE#         624
  C:7D2FH         LINE#         625
  C:7D2FH         LINE#         630
  C:7D42H         LINE#         631
  C:7D5FH         LINE#         632
  C:7D69H         LINE#         633
  C:7D69H         LINE#         634
  C:7D6DH         LINE#         635
  C:7D6FH         LINE#         637
  C:7D6FH         LINE#         638
  C:7D86H         LINE#         639
  C:7D86H         LINE#         641
  C:7D8FH         LINE#         642
  C:7D9AH         LINE#         643
  C:7DABH         LINE#         644
  C:7DB5H         LINE#         646
  C:7DC8H         LINE#         647
  C:7DE5H         LINE#         648
  C:7DEFH         LINE#         649
  C:7DEFH         LINE#         650
  C:7DF3H         LINE#         651
  C:7DF5H         LINE#         653
  C:7DF5H         LINE#         654
BL51 BANKED LINKER/LOCATER V6.22.2.0                                                  11/11/2020  12:18:32  PAGE 70


  C:7E0CH         LINE#         655
  C:7E0CH         LINE#         656
  -------         ENDPROC       PROG_ADDRESS_HIGH_BOARD
  -------         PROC          ADDR_HORARIOS
  -------         DO            
  X:0074H         SYMBOL        ee_addr_horario
  -------         ENDDO         
  C:B1F3H         LINE#         658
  C:B1F3H         LINE#         659
  C:B1F3H         LINE#         662
  C:B1F9H         LINE#         663
  C:B1FDH         LINE#         664
  C:B201H         LINE#         665
  C:B205H         LINE#         666
  C:B209H         LINE#         667
  C:B20DH         LINE#         668
  C:B211H         LINE#         669
  C:B215H         LINE#         670
  C:B219H         LINE#         671
  C:B21DH         LINE#         672
  C:B220H         LINE#         673
  C:B226H         LINE#         674
  -------         ENDPROC       ADDR_HORARIOS
  -------         PROC          _PROG_HORARIOS_ON_OFF
  X:0061H         SYMBOL        addr
  -------         DO            
  X:0063H         SYMBOL        buffer
  X:006DH         SYMBOL        dataee
  X:006FH         SYMBOL        habilitado
  -------         ENDDO         
  C:6C26H         LINE#         675
  C:6C30H         LINE#         676
  C:6C30H         LINE#         679
  C:6C3FH         LINE#         680
  C:6C5CH         LINE#         681
  C:6C66H         LINE#         682
  C:6C66H         LINE#         683
  C:6C79H         LINE#         684
  C:6C7BH         LINE#         686
  C:6C7BH         LINE#         687
  C:6C92H         LINE#         688
  C:6C92H         LINE#         689
  C:6C9BH         LINE#         690
  C:6CA6H         LINE#         691
  C:6CB7H         LINE#         692
  C:6CC6H         LINE#         694
  C:6CDDH         LINE#         695
  C:6CFAH         LINE#         696
  C:6D07H         LINE#         697
  C:6D07H         LINE#         698
  C:6D0AH         LINE#         699
  C:6D1DH         LINE#         700
  C:6D1FH         LINE#         702
  C:6D1FH         LINE#         703
  C:6D24H         LINE#         704
  C:6D39H         LINE#         705
  C:6D39H         LINE#         706
BL51 BANKED LINKER/LOCATER V6.22.2.0                                                  11/11/2020  12:18:32  PAGE 71


  C:6D3FH         LINE#         707
  -------         ENDPROC       _PROG_HORARIOS_ON_OFF
  -------         PROC          _PROG_HORARIO_DESDE_HASTA
  X:0061H         SYMBOL        addr
  -------         DO            
  X:0063H         SYMBOL        buffer
  D:0007H         SYMBOL        dataee
  -------         ENDDO         
  C:4FA5H         LINE#         708
  C:4FADH         LINE#         709
  C:4FADH         LINE#         714
  C:4FB6H         LINE#         715
  C:4FB9H         LINE#         716
  C:4FC2H         LINE#         717
  C:4FDAH         LINE#         718
  C:4FEDH         LINE#         719
  C:4FFBH         LINE#         720
  C:5013H         LINE#         721
  C:5026H         LINE#         722
  C:5034H         LINE#         723
  C:504CH         LINE#         724
  C:505FH         LINE#         725
  C:506DH         LINE#         726
  C:5085H         LINE#         727
  C:5098H         LINE#         728
  C:50A6H         LINE#         732
  C:50AFH         LINE#         733
  C:50B2H         LINE#         735
  C:50BBH         LINE#         737
  C:50D3H         LINE#         738
  C:50E6H         LINE#         739
  C:50F4H         LINE#         740
  C:510CH         LINE#         741
  C:511FH         LINE#         742
  C:512DH         LINE#         743
  C:5145H         LINE#         744
  C:5158H         LINE#         745
  C:5166H         LINE#         746
  C:517EH         LINE#         747
  C:5191H         LINE#         748
  -------         ENDPROC       _PROG_HORARIO_DESDE_HASTA
  -------         PROC          _VER_HORARIO_DESDE_HASTA
  X:0074H         SYMBOL        addr
  -------         DO            
  D:0007H         SYMBOL        dataee
  -------         ENDDO         
  C:6D40H         LINE#         750
  C:6D48H         LINE#         751
  C:6D48H         LINE#         753
  C:6D51H         LINE#         754
  C:6D64H         LINE#         755
  C:6D72H         LINE#         756
  C:6D85H         LINE#         757
  C:6D93H         LINE#         758
  C:6DA6H         LINE#         759
  C:6DB4H         LINE#         760
  C:6DC7H         LINE#         761
BL51 BANKED LINKER/LOCATER V6.22.2.0                                                  11/11/2020  12:18:32  PAGE 72


  C:6DD5H         LINE#         763
  C:6DE8H         LINE#         764
  C:6DF6H         LINE#         766
  C:6E09H         LINE#         767
  C:6E17H         LINE#         769
  C:6E2AH         LINE#         770
  C:6E38H         LINE#         772
  C:6E4BH         LINE#         773
  -------         ENDPROC       _VER_HORARIO_DESDE_HASTA
  -------         PROC          _PROG_HORARIO_DIAS
  X:0061H         SYMBOL        addr
  -------         DO            
  X:0063H         SYMBOL        buffer
  X:006DH         SYMBOL        dataee
  X:006EH         SYMBOL        j
  X:006FH         SYMBOL        temp
  -------         ENDDO         
  C:4608H         LINE#         775
  C:4610H         LINE#         776
  C:4610H         LINE#         780
  C:4619H         LINE#         781
  C:4622H         LINE#         782
  C:462BH         LINE#         783
  C:4636H         LINE#         786
  C:463FH         LINE#         788
  C:4655H         LINE#         789
  C:4655H         LINE#         791
  C:4668H         LINE#         792
  C:4668H         LINE#         793
  C:4671H         LINE#         795
  C:4686H         LINE#         796
  C:469EH         LINE#         797
  C:46ABH         LINE#         798
  C:46ABH         LINE#         800
  C:46C1H         LINE#         801
  C:46C1H         LINE#         802
  C:46CAH         LINE#         803
  C:46DFH         LINE#         804
  C:46F7H         LINE#         805
  C:4704H         LINE#         806
  C:4704H         LINE#         808
  C:471AH         LINE#         809
  C:471AH         LINE#         810
  C:4723H         LINE#         811
  C:4738H         LINE#         812
  C:4750H         LINE#         813
  C:475DH         LINE#         814
  C:475DH         LINE#         816
  C:4773H         LINE#         817
  C:4773H         LINE#         818
  C:477CH         LINE#         819
  C:4791H         LINE#         820
  C:47A9H         LINE#         821
  C:47B6H         LINE#         822
  C:47B6H         LINE#         824
  C:47CCH         LINE#         825
  C:47CCH         LINE#         826
BL51 BANKED LINKER/LOCATER V6.22.2.0                                                  11/11/2020  12:18:32  PAGE 73


  C:47D5H         LINE#         827
  C:47EAH         LINE#         828
  C:4802H         LINE#         829
  C:480FH         LINE#         830
  C:480FH         LINE#         832
  C:4825H         LINE#         833
  C:4825H         LINE#         834
  C:482EH         LINE#         835
  C:4843H         LINE#         836
  C:485BH         LINE#         837
  C:4868H         LINE#         838
  C:4868H         LINE#         840
  C:487EH         LINE#         841
  C:487EH         LINE#         842
  C:4887H         LINE#         843
  C:4896H         LINE#         844
  C:48A8H         LINE#         845
  C:48B5H         LINE#         846
  C:48B5H         LINE#         847
  C:48BEH         LINE#         849
  -------         ENDPROC       _PROG_HORARIO_DIAS
  -------         PROC          _VER_HORARIO_DIAS
  X:0074H         SYMBOL        addr
  -------         DO            
  X:0076H         SYMBOL        dataee
  -------         ENDDO         
  C:69E2H         LINE#         850
  C:69EAH         LINE#         851
  C:69EAH         LINE#         854
  C:69FAH         LINE#         855
  C:6A00H         LINE#         856
  C:6A00H         LINE#         857
  C:6A04H         LINE#         858
  C:6A06H         LINE#         860
  C:6A06H         LINE#         861
  C:6A0DH         LINE#         862
  C:6A0DH         LINE#         865
  C:6A25H         LINE#         866
  C:6A2BH         LINE#         867
  C:6A2BH         LINE#         868
  C:6A2FH         LINE#         869
  C:6A31H         LINE#         871
  C:6A31H         LINE#         872
  C:6A38H         LINE#         873
  C:6A38H         LINE#         876
  C:6A50H         LINE#         877
  C:6A56H         LINE#         878
  C:6A56H         LINE#         879
  C:6A5AH         LINE#         880
  C:6A5CH         LINE#         882
  C:6A5CH         LINE#         883
  C:6A63H         LINE#         884
  C:6A63H         LINE#         886
  C:6A7BH         LINE#         887
  C:6A81H         LINE#         888
  C:6A81H         LINE#         889
  C:6A85H         LINE#         890
BL51 BANKED LINKER/LOCATER V6.22.2.0                                                  11/11/2020  12:18:32  PAGE 74


  C:6A87H         LINE#         892
  C:6A87H         LINE#         893
  C:6A8EH         LINE#         894
  C:6A8EH         LINE#         896
  C:6AA6H         LINE#         897
  C:6AACH         LINE#         898
  C:6AACH         LINE#         899
  C:6AB0H         LINE#         900
  C:6AB2H         LINE#         902
  C:6AB2H         LINE#         903
  C:6AB9H         LINE#         904
  C:6AB9H         LINE#         907
  C:6AD1H         LINE#         908
  C:6AD7H         LINE#         909
  C:6AD7H         LINE#         910
  C:6ADBH         LINE#         911
  C:6ADDH         LINE#         913
  C:6ADDH         LINE#         914
  C:6AE4H         LINE#         915
  C:6AE4H         LINE#         917
  C:6AF6H         LINE#         918
  C:6AFCH         LINE#         919
  C:6AFCH         LINE#         920
  C:6B00H         LINE#         921
  C:6B02H         LINE#         923
  C:6B02H         LINE#         924
  C:6B09H         LINE#         925
  C:6B09H         LINE#         926
  -------         ENDPROC       _VER_HORARIO_DIAS
  -------         PROC          PROG_HORARIOS
  -------         DO            
  X:0046H         SYMBOL        buffer
  X:0050H         SYMBOL        ee_addr_horario
  X:005BH         SYMBOL        addr
  X:005DH         SYMBOL        temp
  X:005FH         SYMBOL        dataee
  X:0060H         SYMBOL        j
  -------         ENDDO         
  C:6015H         LINE#         927
  C:6015H         LINE#         928
  C:6015H         LINE#         937
  C:6021H         LINE#         941
  C:602AH         LINE#         942
  C:6035H         LINE#         944
  C:6044H         LINE#         948
  C:605AH         LINE#         949
  C:6060H         LINE#         953
  C:606EH         LINE#         954
  C:6076H         LINE#         955
  C:6076H         LINE#         957
  C:6085H         LINE#         958
  C:6099H         LINE#         959
  C:6099H         LINE#         960
  C:60ADH         LINE#         961
  C:60B5H         LINE#         963
  C:60C5H         LINE#         966
  C:60C8H         LINE#         970
BL51 BANKED LINKER/LOCATER V6.22.2.0                                                  11/11/2020  12:18:32  PAGE 75


  C:60D3H         LINE#         973
  C:60DCH         LINE#         974
  C:60E7H         LINE#         975
  C:60F6H         LINE#         976
  C:6109H         LINE#         978
  C:6121H         LINE#         979
  C:613BH         LINE#         980
  C:6143H         LINE#         981
  C:6143H         LINE#         983
  C:6151H         LINE#         984
  C:6159H         LINE#         985
  C:6159H         LINE#         986
  C:6159H         LINE#         988
  -------         ENDPROC       PROG_HORARIOS
  -------         PROC          PROG_VALIDAR_TIPO_VEHICULO_MENSUAL
  -------         DO            
  X:0046H         SYMBOL        buffer
  X:0050H         SYMBOL        dataee
  -------         ENDDO         
  C:7878H         LINE#         989
  C:7878H         LINE#         990
  C:7878H         LINE#         995
  C:788BH         LINE#         996
  C:78A8H         LINE#         997
  C:78B2H         LINE#         998
  C:78B2H         LINE#         999
  C:78C5H         LINE#         1000
  C:78C7H         LINE#         1002
  C:78C7H         LINE#         1003
  C:78DEH         LINE#         1004
  C:78DEH         LINE#         1006
  C:78E7H         LINE#         1007
  C:78F2H         LINE#         1008
  C:7903H         LINE#         1009
  C:790DH         LINE#         1011
  C:7920H         LINE#         1012
  C:793DH         LINE#         1013
  C:7947H         LINE#         1014
  C:7947H         LINE#         1015
  C:795AH         LINE#         1016
  C:795CH         LINE#         1018
  C:795CH         LINE#         1019
  C:7973H         LINE#         1020
  C:7973H         LINE#         1021
  -------         ENDPROC       PROG_VALIDAR_TIPO_VEHICULO_MENSUAL
  -------         PROC          PROG_APB_MENSUAL
  -------         DO            
  X:0046H         SYMBOL        buffer
  X:0050H         SYMBOL        dataee
  -------         ENDDO         
  C:7974H         LINE#         1022
  C:7974H         LINE#         1023
  C:7974H         LINE#         1028
  C:7987H         LINE#         1029
  C:79A4H         LINE#         1030
  C:79AEH         LINE#         1031
  C:79AEH         LINE#         1032
BL51 BANKED LINKER/LOCATER V6.22.2.0                                                  11/11/2020  12:18:32  PAGE 76


  C:79C1H         LINE#         1033
  C:79C3H         LINE#         1035
  C:79C3H         LINE#         1036
  C:79DAH         LINE#         1037
  C:79DAH         LINE#         1039
  C:79E3H         LINE#         1040
  C:79EEH         LINE#         1041
  C:79FFH         LINE#         1042
  C:7A09H         LINE#         1044
  C:7A1CH         LINE#         1045
  C:7A39H         LINE#         1046
  C:7A43H         LINE#         1047
  C:7A43H         LINE#         1048
  C:7A56H         LINE#         1049
  C:7A58H         LINE#         1051
  C:7A58H         LINE#         1052
  C:7A6FH         LINE#         1053
  C:7A6FH         LINE#         1054
  -------         ENDPROC       PROG_APB_MENSUAL
  -------         PROC          PROG_FECHA_VENCIMIENTO
  -------         DO            
  X:0046H         SYMBOL        buffer
  X:0051H         SYMBOL        cmd
  X:0054H         SYMBOL        fecha
  X:005BH         SYMBOL        dataee
  -------         ENDDO         
  C:519FH         LINE#         1056
  C:519FH         LINE#         1057
  C:519FH         LINE#         1064
  C:51ACH         LINE#         1065
  C:51C3H         LINE#         1068
  C:51DAH         LINE#         1070
  C:51DAH         LINE#         1071
  C:51E3H         LINE#         1072
  C:51F0H         LINE#         1073
  C:5207H         LINE#         1074
  C:5219H         LINE#         1075
  C:5222H         LINE#         1080
  C:522DH         LINE#         1081
  C:5241H         LINE#         1082
  C:524EH         LINE#         1084
  C:5257H         LINE#         1087
  C:5260H         LINE#         1088
  C:526BH         LINE#         1089
  C:5282H         LINE#         1091
  C:528AH         LINE#         1092
  C:5292H         LINE#         1093
  C:5295H         LINE#         1095
  C:52A6H         LINE#         1096
  C:52B7H         LINE#         1098
  C:52C6H         LINE#         1099
  C:52CEH         LINE#         1100
  C:52D6H         LINE#         1101
  C:52D9H         LINE#         1102
  C:52EAH         LINE#         1103
  C:52FBH         LINE#         1104
  C:530AH         LINE#         1105
BL51 BANKED LINKER/LOCATER V6.22.2.0                                                  11/11/2020  12:18:32  PAGE 77


  C:5312H         LINE#         1106
  C:531AH         LINE#         1107
  C:531DH         LINE#         1108
  C:532EH         LINE#         1109
  C:533FH         LINE#         1110
  C:534EH         LINE#         1111
  C:5359H         LINE#         1113
  C:5366H         LINE#         1115
  C:537DH         LINE#         1116
  -------         ENDPROC       PROG_FECHA_VENCIMIENTO
  -------         PROC          VER_HORARIO
  -------         DO            
  X:0059H         SYMBOL        buffer
  X:0063H         SYMBOL        ee_addr_horario
  X:006EH         SYMBOL        conta
  X:006FH         SYMBOL        addr
  X:0071H         SYMBOL        temp
  X:0073H         SYMBOL        dataee
  -------         ENDDO         
  C:6657H         LINE#         1119
  C:6657H         LINE#         1120
  C:6657H         LINE#         1129
  C:6663H         LINE#         1130
  C:6679H         LINE#         1131
  C:6679H         LINE#         1133
  C:6689H         LINE#         1136
  C:66A2H         LINE#         1137
  C:66A8H         LINE#         1140
  C:66B6H         LINE#         1141
  C:66C5H         LINE#         1142
  C:66DFH         LINE#         1143
  C:66EAH         LINE#         1144
  C:66EAH         LINE#         1145
  C:66F3H         LINE#         1147
  C:66FCH         LINE#         1148
  C:670CH         LINE#         1149
  C:670FH         LINE#         1151
  C:671AH         LINE#         1152
  C:6732H         LINE#         1153
  C:674CH         LINE#         1154
  C:6756H         LINE#         1155
  C:6756H         LINE#         1156
  C:675DH         LINE#         1158
  C:676BH         LINE#         1159
  C:6773H         LINE#         1160
  C:6775H         LINE#         1162
  C:6775H         LINE#         1163
  C:6779H         LINE#         1164
  C:6779H         LINE#         1165
  C:677BH         LINE#         1167
  C:677BH         LINE#         1168
  C:6784H         LINE#         1169
  C:6784H         LINE#         1171
  C:678DH         LINE#         1174
  -------         ENDPROC       VER_HORARIO
  -------         PROC          VER_PROG
  -------         DO            
BL51 BANKED LINKER/LOCATER V6.22.2.0                                                  11/11/2020  12:18:32  PAGE 78


  X:0046H         SYMBOL        buffer
  X:0050H         SYMBOL        dataee
  X:0052H         SYMBOL        fecha
  -------         ENDDO         
  C:3C9EH         LINE#         1175
  C:3C9EH         LINE#         1176
  C:3C9EH         LINE#         1182
  C:3CB0H         LINE#         1183
  C:3CCDH         LINE#         1185
  C:3CE4H         LINE#         1187
  C:3CF7H         LINE#         1188
  C:3D14H         LINE#         1190
  C:3D2BH         LINE#         1192
  C:3D3EH         LINE#         1193
  C:3D5BH         LINE#         1194
  C:3D69H         LINE#         1195
  C:3D69H         LINE#         1196
  C:3D6DH         LINE#         1197
  C:3D6FH         LINE#         1199
  C:3D6FH         LINE#         1200
  C:3D76H         LINE#         1201
  C:3D76H         LINE#         1203
  C:3D89H         LINE#         1204
  C:3DA6H         LINE#         1205
  C:3DB2H         LINE#         1206
  C:3DB2H         LINE#         1207
  C:3DB6H         LINE#         1208
  C:3DB8H         LINE#         1210
  C:3DB8H         LINE#         1211
  C:3DBFH         LINE#         1212
  C:3DBFH         LINE#         1214
  C:3DD2H         LINE#         1215
  C:3DEFH         LINE#         1216
  C:3DFBH         LINE#         1217
  C:3DFBH         LINE#         1218
  C:3DFFH         LINE#         1219
  C:3E01H         LINE#         1221
  C:3E01H         LINE#         1222
  C:3E08H         LINE#         1223
  C:3E08H         LINE#         1225
  C:3E1BH         LINE#         1226
  C:3E38H         LINE#         1227
  C:3E44H         LINE#         1228
  C:3E44H         LINE#         1229
  C:3E48H         LINE#         1230
  C:3E4AH         LINE#         1232
  C:3E4AH         LINE#         1233
  C:3E51H         LINE#         1234
  C:3E51H         LINE#         1236
  C:3E64H         LINE#         1237
  C:3E81H         LINE#         1238
  C:3E8DH         LINE#         1239
  C:3E8DH         LINE#         1240
  C:3E91H         LINE#         1241
  C:3E93H         LINE#         1243
  C:3E93H         LINE#         1244
  C:3E9AH         LINE#         1245
BL51 BANKED LINKER/LOCATER V6.22.2.0                                                  11/11/2020  12:18:32  PAGE 79


  C:3E9AH         LINE#         1247
  C:3EADH         LINE#         1248
  C:3ECAH         LINE#         1249
  C:3ED6H         LINE#         1250
  C:3ED6H         LINE#         1251
  C:3EDAH         LINE#         1252
  C:3EDCH         LINE#         1254
  C:3EDCH         LINE#         1255
  C:3EE3H         LINE#         1256
  C:3EE3H         LINE#         1259
  C:3EF6H         LINE#         1260
  C:3F13H         LINE#         1262
  C:3F2AH         LINE#         1264
  C:3F2DH         LINE#         1268
  C:3F40H         LINE#         1269
  C:3F5DH         LINE#         1270
  C:3F69H         LINE#         1271
  C:3F69H         LINE#         1272
  C:3F6DH         LINE#         1273
  C:3F6FH         LINE#         1275
  C:3F6FH         LINE#         1276
  C:3F76H         LINE#         1277
  C:3F76H         LINE#         1279
  C:3F89H         LINE#         1280
  C:3FA6H         LINE#         1281
  C:3FB2H         LINE#         1282
  C:3FB2H         LINE#         1283
  C:3FB6H         LINE#         1284
  C:3FB8H         LINE#         1286
  C:3FB8H         LINE#         1287
  C:3FBFH         LINE#         1288
  C:3FBFH         LINE#         1290
  C:3FCCH         LINE#         1292
  C:3FE3H         LINE#         1293
  -------         ENDPROC       VER_PROG
  -------         PROC          SHOW
  C:962AH         LINE#         1299
  C:962AH         LINE#         1300
  C:962AH         LINE#         1301
  C:9633H         LINE#         1302
  C:963CH         LINE#         1303
  C:9645H         LINE#         1304
  C:964EH         LINE#         1305
  C:9657H         LINE#         1306
  C:9660H         LINE#         1307
  C:9669H         LINE#         1308
  C:9672H         LINE#         1309
  C:967BH         LINE#         1310
  C:9684H         LINE#         1311
  C:968DH         LINE#         1312
  C:9696H         LINE#         1313
  C:969FH         LINE#         1314
  C:96A8H         LINE#         1315
  C:96B1H         LINE#         1316
  C:96BAH         LINE#         1317
  -------         ENDPROC       SHOW
  -------         PROC          FIRST_CLAVE
BL51 BANKED LINKER/LOCATER V6.22.2.0                                                  11/11/2020  12:18:32  PAGE 80


  -------         DO            
  X:0046H         SYMBOL        clave
  -------         ENDDO         
  C:AB47H         LINE#         1324
  C:AB47H         LINE#         1325
  C:AB47H         LINE#         1329
  C:AB50H         LINE#         1330
  C:AB55H         LINE#         1331
  C:AB67H         LINE#         1332
  C:AB74H         LINE#         1333
  C:AB7AH         LINE#         1334
  C:AB7DH         LINE#         1335
  C:AB80H         LINE#         1336
  C:AB82H         LINE#         1338
  -------         ENDPROC       FIRST_CLAVE
  -------         PROC          MENU
  -------         DO            
  X:0001H         SYMBOL        cmd
  X:0004H         SYMBOL        option1
  X:0007H         SYMBOL        option2
  X:000AH         SYMBOL        opt_buffer
  X:0032H         SYMBOL        buffer
  -------         ENDDO         
  C:4B71H         LINE#         1342
  C:4B71H         LINE#         1343
  C:4B71H         LINE#         1352
  C:4B7AH         LINE#         1357
  C:4B86H         LINE#         1358
  C:4B86H         LINE#         1359
  C:4B89H         LINE#         1360
  C:4B93H         LINE#         1363
  C:4B93H         LINE#         1365
  C:4B93H         LINE#         1366
  C:4B9CH         LINE#         1367
  C:4BA9H         LINE#         1368
  C:4BAEH         LINE#         1369
  C:4BC4H         LINE#         1370
  C:4BD6H         LINE#         1371
  C:4BDFH         LINE#         1376
  C:4BEAH         LINE#         1377
  C:4BF8H         LINE#         1378
  C:4C05H         LINE#         1380
  C:4C0EH         LINE#         1384
  C:4C11H         LINE#         1385
  C:4C11H         LINE#         1386
  C:4C11H         LINE#         1387
  C:4C14H         LINE#         1390
  C:4C1FH         LINE#         1391
  C:4C2DH         LINE#         1392
  C:4C41H         LINE#         1393
  C:4C55H         LINE#         1398
  C:4C6BH         LINE#         1399
  C:4C6BH         LINE#         1401
  C:4C7AH         LINE#         1402
  C:4C7CH         LINE#         1403
  C:4C8CH         LINE#         1404
  C:4C8CH         LINE#         1406
BL51 BANKED LINKER/LOCATER V6.22.2.0                                                  11/11/2020  12:18:32  PAGE 81


  C:4C9BH         LINE#         1407
  C:4CB9H         LINE#         1408
  C:4CB9H         LINE#         1414
  C:4CCCH         LINE#         1415
  C:4CCCH         LINE#         1416
  C:4D15H         LINE#         1417
  C:4D15H         LINE#         1418
  C:4D15H         LINE#         1419
  C:4D18H         LINE#         1421
  C:4D1BH         LINE#         1423
  C:4D1BH         LINE#         1424
  C:4D1EH         LINE#         1425
  C:4D21H         LINE#         1426
  C:4D21H         LINE#         1427
  C:4D24H         LINE#         1428
  C:4D27H         LINE#         1429
  C:4D27H         LINE#         1430
  C:4D2AH         LINE#         1431
  C:4D2DH         LINE#         1432
  C:4D2DH         LINE#         1433
  C:4D30H         LINE#         1434
  C:4D33H         LINE#         1435
  C:4D33H         LINE#         1436
  C:4D36H         LINE#         1437
  C:4D39H         LINE#         1438
  C:4D39H         LINE#         1439
  C:4D3CH         LINE#         1440
  C:4D3FH         LINE#         1441
  C:4D3FH         LINE#         1442
  C:4D42H         LINE#         1443
  C:4D45H         LINE#         1444
  C:4D45H         LINE#         1445
  C:4D48H         LINE#         1446
  C:4D4BH         LINE#         1447
  C:4D4BH         LINE#         1448
  C:4D4EH         LINE#         1449
  C:4D51H         LINE#         1450
  C:4D51H         LINE#         1451
  C:4D54H         LINE#         1452
  C:4D57H         LINE#         1453
  C:4D57H         LINE#         1454
  C:4D5AH         LINE#         1455
  C:4D5DH         LINE#         1456
  C:4D5DH         LINE#         1457
  C:4D60H         LINE#         1458
  C:4D63H         LINE#         1459
  C:4D63H         LINE#         1460
  C:4D66H         LINE#         1461
  C:4D69H         LINE#         1462
  C:4D69H         LINE#         1463
  C:4D6CH         LINE#         1464
  C:4D6FH         LINE#         1465
  C:4D6FH         LINE#         1466
  C:4D72H         LINE#         1467
  C:4D75H         LINE#         1468
  C:4D75H         LINE#         1470
  C:4D75H         LINE#         1471
BL51 BANKED LINKER/LOCATER V6.22.2.0                                                  11/11/2020  12:18:32  PAGE 82


  C:4D75H         LINE#         1472
  C:4D78H         LINE#         1473
  C:4D7BH         LINE#         1476
  C:4D7BH         LINE#         1477
  C:4D99H         LINE#         1478
  C:4D9CH         LINE#         1479
  C:4D9CH         LINE#         1480
  C:4D9CH         LINE#         1481
  C:4D9CH         LINE#         1482
  -------         ENDPROC       MENU
  -------         ENDMOD        PROG

  -------         MODULE        PTO_PARALELO
  C:0000H         SYMBOL        _ICE_DUMMY_
  D:0080H         PUBLIC        P0
  D:00A0H         PUBLIC        P2
  D:00B0H         PUBLIC        P3
  B:0080H.2       PUBLIC        led_err_imp
  C:6B0AH         PUBLIC        load_and_send_id_cod
  C:96C3H         PUBLIC        _recibe_port
  B:00B0H.2       PUBLIC        ready
  B:0080H.6       PUBLIC        rx_in_data
  C:B638H         PUBLIC        Pulso_Bus
  C:9CF6H         PUBLIC        _send_portERR
  B:00B0H.3       PUBLIC        busy
  C:B31BH         PUBLIC        load_and_send_info_reloj
  C:8F1BH         PUBLIC        _send_port
  B:00B0H.4       PUBLIC        port_clk
  C:B6A9H         PUBLIC        cond_ini_pto
  -------         PROC          _RECIBE_PORT
  X:0001H         SYMBOL        buffer_port
  -------         DO            
  D:0006H         SYMBOL        count
  X:0004H         SYMBOL        time_out
  X:0005H         SYMBOL        num_data
  X:0006H         SYMBOL        T_ANCHO
  X:0008H         SYMBOL        data_temp
  -------         ENDDO         
  C:96C3H         LINE#         48
  C:96CEH         LINE#         49
  C:96CEH         LINE#         53
  C:96D7H         LINE#         54
  C:96DAH         LINE#         57
  C:96DDH         LINE#         58
  C:96DDH         LINE#         60
  C:96E0H         LINE#         61
  C:96E5H         LINE#         62
  C:96E7H         LINE#         63
  C:96EBH         LINE#         64
  C:96EDH         LINE#         67
  C:96F2H         LINE#         68
  C:96FBH         LINE#         69
  C:96FBH         LINE#         70
  C:96FEH         LINE#         71
  C:96FEH         LINE#         73
  C:9703H         LINE#         74
  C:9707H         LINE#         75
BL51 BANKED LINKER/LOCATER V6.22.2.0                                                  11/11/2020  12:18:32  PAGE 83


  C:9707H         LINE#         76
  C:9709H         LINE#         77
  C:970BH         LINE#         78
  C:970BH         LINE#         79
  C:970BH         LINE#         81
  C:970BH         LINE#         82
  C:9718H         LINE#         83
  C:9718H         LINE#         85
  C:971BH         LINE#         86
  C:971BH         LINE#         88
  C:9721H         LINE#         90
  C:9723H         LINE#         91
  C:9737H         LINE#         92
  C:9741H         LINE#         93
  C:9747H         LINE#         94
  C:974DH         LINE#         95
  C:974FH         LINE#         96
  C:974FH         LINE#         97
  C:974FH         LINE#         98
  C:974FH         LINE#         101
  C:9751H         LINE#         102
  C:9753H         LINE#         103
  C:9753H         LINE#         104
  C:9756H         LINE#         106
  C:975BH         LINE#         107
  -------         ENDPROC       _RECIBE_PORT
  -------         PROC          _SEND_PORT
  X:0015H         SYMBOL        buffer_port
  X:0018H         SYMBOL        length_char
  -------         DO            
  X:0019H         SYMBOL        cont
  X:001DH         SYMBOL        timeOut
  X:001EH         SYMBOL        length
  -------         ENDDO         
  C:8F1BH         LINE#         114
  C:8F29H         LINE#         115
  C:8F29H         LINE#         120
  C:8F2DH         LINE#         122
  C:8F2FH         LINE#         123
  C:8F31H         LINE#         124
  C:8F33H         LINE#         125
  C:8F38H         LINE#         126
  C:8F3AH         LINE#         127
  C:8F44H         LINE#         129
  C:8F4DH         LINE#         130
  C:8F4DH         LINE#         131
  C:8F4FH         LINE#         132
  C:8F51H         LINE#         133
  C:8F75H         LINE#         134
  C:8F89H         LINE#         135
  C:8F89H         LINE#         136
  C:8F8CH         LINE#         137
  C:8F8EH         LINE#         138
  C:8F8EH         LINE#         139
  C:8F90H         LINE#         140
  C:8F99H         LINE#         141
  C:8F99H         LINE#         145
BL51 BANKED LINKER/LOCATER V6.22.2.0                                                  11/11/2020  12:18:32  PAGE 84


  C:8F99H         LINE#         147
  C:8FA9H         LINE#         148
  C:8FACH         LINE#         149
  C:8FB6H         LINE#         151
  C:8FBCH         LINE#         152
  C:8FBFH         LINE#         154
  C:8FBFH         LINE#         156
  C:8FC2H         LINE#         157
  C:8FC4H         LINE#         158
  C:8FC6H         LINE#         159
  C:8FC8H         LINE#         160
  -------         ENDPROC       _SEND_PORT
  -------         PROC          PULSO_BUS
  C:B638H         LINE#         435
  C:B638H         LINE#         436
  C:B638H         LINE#         437
  C:B63AH         LINE#         438
  C:B641H         LINE#         439
  C:B643H         LINE#         440
  -------         ENDPROC       PULSO_BUS
  -------         PROC          _SEND_PORTERR
  X:002AH         SYMBOL        cod_err
  -------         DO            
  X:002BH         SYMBOL        timeOut
  X:002CH         SYMBOL        cont
  -------         ENDDO         
  C:9CF6H         LINE#         445
  C:9CFCH         LINE#         446
  C:9CFCH         LINE#         450
  C:9CFEH         LINE#         451
  C:9D00H         LINE#         452
  C:9D03H         LINE#         453
  C:9D0BH         LINE#         455
  C:9D0DH         LINE#         456
  C:9D0FH         LINE#         457
  C:9D18H         LINE#         458
  C:9D18H         LINE#         459
  C:9D3AH         LINE#         460
  C:9D4EH         LINE#         461
  C:9D4EH         LINE#         462
  C:9D53H         LINE#         463
  C:9D53H         LINE#         464
  C:9D55H         LINE#         465
  C:9D5EH         LINE#         466
  C:9D5EH         LINE#         467
  C:9D64H         LINE#         468
  C:9D67H         LINE#         469
  C:9D67H         LINE#         470
  C:9D69H         LINE#         471
  C:9D6BH         LINE#         472
  C:9D6DH         LINE#         474
  C:9D70H         LINE#         476
  C:9D77H         LINE#         477
  -------         ENDPROC       _SEND_PORTERR
  -------         PROC          COND_INI_PTO
  C:B6A9H         LINE#         483
  C:B6A9H         LINE#         484
BL51 BANKED LINKER/LOCATER V6.22.2.0                                                  11/11/2020  12:18:32  PAGE 85


  C:B6A9H         LINE#         486
  C:B6ABH         LINE#         487
  C:B6ADH         LINE#         488
  C:B6AFH         LINE#         489
  C:B6B2H         LINE#         490
  -------         ENDPROC       COND_INI_PTO
  -------         PROC          LOAD_AND_SEND_INFO_RELOJ
  -------         DO            
  X:0002H         SYMBOL        buffer_info
  -------         ENDDO         
  C:B31BH         LINE#         495
  C:B31BH         LINE#         496
  C:B31BH         LINE#         499
  C:B321H         LINE#         501
  C:B325H         LINE#         503
  C:B32EH         LINE#         504
  C:B338H         LINE#         505
  C:B33CH         LINE#         509
  -------         ENDPROC       LOAD_AND_SEND_INFO_RELOJ
  -------         PROC          LOAD_AND_SEND_ID_COD
  -------         DO            
  X:0002H         SYMBOL        buffer_info
  X:000DH         SYMBOL        buf
  X:0011H         SYMBOL        i
  X:0012H         SYMBOL        k
  X:0013H         SYMBOL        ID_CLIENTE
  X:0014H         SYMBOL        COD_PARK
  -------         ENDDO         
  C:6B0AH         LINE#         516
  C:6B0AH         LINE#         517
  C:6B0AH         LINE#         523
  C:6B0FH         LINE#         524
  C:6B1BH         LINE#         525
  C:6B29H         LINE#         526
  C:6B2FH         LINE#         527
  C:6B33H         LINE#         528
  C:6B52H         LINE#         529
  C:6B58H         LINE#         530
  C:6B58H         LINE#         531
  C:6B69H         LINE#         532
  C:6B69H         LINE#         533
  C:6B78H         LINE#         534
  C:6B7EH         LINE#         535
  C:6B80H         LINE#         536
  C:6B98H         LINE#         538
  C:6BA0H         LINE#         541
  C:6BBFH         LINE#         543
  C:6BC4H         LINE#         544
  C:6BC4H         LINE#         545
  C:6BD5H         LINE#         546
  C:6BD5H         LINE#         547
  C:6BE4H         LINE#         548
  C:6BEAH         LINE#         549
  C:6C04H         LINE#         550
  C:6C0CH         LINE#         553
  C:6C1DH         LINE#         554
  -------         ENDPROC       LOAD_AND_SEND_ID_COD
BL51 BANKED LINKER/LOCATER V6.22.2.0                                                  11/11/2020  12:18:32  PAGE 86


  -------         ENDMOD        PTO_PARALELO

  -------         MODULE        TIBBO
  C:0000H         SYMBOL        _ICE_DUMMY_
  C:ACA9H         PUBLIC        _Debug_HexDec
  C:AB09H         PUBLIC        _Debug_txt_Tibbo
  D:0080H         PUBLIC        P0
  D:0090H         PUBLIC        P1
  B:0090H.0       PUBLIC        txd2
  B:00A8H.7       PUBLIC        EA
  C:AAB6H         PUBLIC        _tx_aux
  B:0080H.0       PUBLIC        rx_ip
  C:B5E5H         PUBLIC        Debug_Dividir_texto
  C:B70DH         PUBLIC        cond_ini_tibbo
  C:B5ADH         PUBLIC        time_mbit
  C:9D7EH         PUBLIC        rx_Data
  C:B52CH         PUBLIC        time_bit
  C:B06BH         PUBLIC        _Debug_pto_paralelo
  C:B25AH         PUBLIC        _Debug_monitor
  C:A479H         PUBLIC        _DebugBufferMF
  C:AB8FH         PUBLIC        _Debug_chr_Tibbo
  C:B526H         SYMBOL        L?0066
  -------         PROC          L?0065
  -------         ENDPROC       L?0065
  C:B526H         SYMBOL        L?0066
  -------         PROC          TIME_BIT
  -------         DO            
  D:0007H         SYMBOL        j
  -------         ENDDO         
  C:B52CH         LINE#         19
  C:B52CH         LINE#         20
  C:B52CH         LINE#         23
  C:B538H         LINE#         24
  C:B538H         LINE#         25
  C:B539H         LINE#         26
  C:B53AH         LINE#         27
  C:B53BH         LINE#         28
  C:B53CH         LINE#         29
  C:B53DH         LINE#         30
  C:B53EH         LINE#         31
  C:B53FH         LINE#         32
  C:B540H         LINE#         33
  C:B541H         LINE#         38
  C:B544H         LINE#         39
  -------         ENDPROC       TIME_BIT
  -------         PROC          TIME_MBIT
  -------         DO            
  D:0007H         SYMBOL        j
  -------         ENDDO         
  C:B5ADH         LINE#         42
  C:B5ADH         LINE#         43
  C:B5ADH         LINE#         45
  C:B5B9H         LINE#         46
  C:B5B9H         LINE#         47
  C:B5BAH         LINE#         48
  C:B5BBH         LINE#         49
  C:B5BCH         LINE#         50
BL51 BANKED LINKER/LOCATER V6.22.2.0                                                  11/11/2020  12:18:32  PAGE 87


  C:B5BDH         LINE#         51
  C:B5BEH         LINE#         52
  C:B5BFH         LINE#         53
  C:B5C0H         LINE#         54
  C:B5C3H         LINE#         56
  -------         ENDPROC       TIME_MBIT
  -------         PROC          L?0070
  -------         ENDPROC       L?0070
  -------         PROC          _TX_AUX
  D:0006H         SYMBOL        caracter
  -------         DO            
  D:0004H         SYMBOL        j
  D:0005H         SYMBOL        temporal
  D:0006H         SYMBOL        bitTX
  -------         ENDDO         
  C:AAB6H         LINE#         61
  C:AAB8H         LINE#         62
  C:AAB8H         LINE#         65
  C:AABAH         LINE#         66
  C:AABCH         LINE#         67
  C:AABFH         LINE#         68
  C:AAC0H         LINE#         69
  C:AAC1H         LINE#         70
  C:AAC3H         LINE#         71
  C:AAC7H         LINE#         72
  C:AAC9H         LINE#         73
  C:AAC9H         LINE#         74
  C:AACBH         LINE#         75
  C:AACDH         LINE#         77
  C:AACDH         LINE#         78
  C:AACFH         LINE#         79
  C:AACFH         LINE#         80
  C:AAD2H         LINE#         81
  C:AADEH         LINE#         82
  C:AADEH         LINE#         83
  C:AAE2H         LINE#         84
  C:AAE5H         LINE#         85
  C:AAE7H         LINE#         86
  C:AAE7H         LINE#         87
  C:AAE9H         LINE#         88
  C:AAEBH         LINE#         90
  C:AAEBH         LINE#         91
  C:AAEDH         LINE#         92
  C:AAEDH         LINE#         93
  C:AAF0H         LINE#         94
  C:AAF3H         LINE#         95
  C:AAF5H         LINE#         96
  C:AAF8H         LINE#         97
  C:AAFBH         LINE#         99
  C:AAFDH         LINE#         100
  -------         ENDPROC       _TX_AUX
  -------         PROC          _DEBUG_HEXDEC
  D:0007H         SYMBOL        xfc
  -------         DO            
  X:0018H         SYMBOL        valor
  D:0006H         SYMBOL        centena
  D:0003H         SYMBOL        decena
BL51 BANKED LINKER/LOCATER V6.22.2.0                                                  11/11/2020  12:18:32  PAGE 88


  D:0002H         SYMBOL        unidad
  -------         ENDDO         
  C:ACA9H         LINE#         103
  C:ACA9H         LINE#         104
  C:ACA9H         LINE#         107
  C:ACB0H         LINE#         109
  C:ACB1H         LINE#         110
  C:ACB2H         LINE#         111
  C:ACB3H         LINE#         112
  C:ACBBH         LINE#         113
  C:ACBBH         LINE#         114
  C:ACC5H         LINE#         115
  C:ACC5H         LINE#         116
  C:ACC9H         LINE#         117
  C:ACCAH         LINE#         118
  C:ACCCH         LINE#         119
  C:ACD6H         LINE#         120
  C:ACD6H         LINE#         121
  C:ACDAH         LINE#         122
  C:ACDBH         LINE#         123
  C:ACDDH         LINE#         124
  C:ACDFH         LINE#         125
  C:ACE3H         LINE#         126
  C:ACE7H         LINE#         127
  C:ACEEH         LINE#         129
  C:ACEEH         LINE#         130
  -------         ENDPROC       _DEBUG_HEXDEC
  -------         PROC          _DEBUG_CHR_TIBBO
  D:0003H         SYMBOL        Dat
  -------         DO            
  D:0007H         SYMBOL        temp
  -------         ENDDO         
  C:AB8FH         LINE#         135
  C:AB91H         LINE#         136
  C:AB91H         LINE#         138
  C:AB99H         LINE#         139
  C:AB99H         LINE#         140
  C:ABA0H         LINE#         141
  C:ABB3H         LINE#         143
  C:ABB6H         LINE#         145
  C:ABBAH         LINE#         146
  C:ABCDH         LINE#         147
  C:ABD0H         LINE#         148
  C:ABD5H         LINE#         150
  C:ABD5H         LINE#         151
  -------         ENDPROC       _DEBUG_CHR_TIBBO
  -------         PROC          _DEBUGBUFFERMF
  X:0027H         SYMBOL        str
  X:002AH         SYMBOL        num_char
  X:002BH         SYMBOL        io
  -------         DO            
  X:002CH         SYMBOL        j
  -------         ENDDO         
  C:A479H         LINE#         158
  C:A487H         LINE#         159
  C:A487H         LINE#         163
  C:A48FH         LINE#         164
BL51 BANKED LINKER/LOCATER V6.22.2.0                                                  11/11/2020  12:18:32  PAGE 89


  C:A48FH         LINE#         165
  C:A49EH         LINE#         166
  C:A49EH         LINE#         167
  C:A4A2H         LINE#         168
  C:A4ABH         LINE#         169
  C:A4BDH         LINE#         170
  C:A4BDH         LINE#         171
  C:A4CFH         LINE#         172
  C:A4D9H         LINE#         173
  C:A4E1H         LINE#         174
  C:A4E6H         LINE#         175
  C:A4EBH         LINE#         176
  C:A4EBH         LINE#         178
  -------         ENDPROC       _DEBUGBUFFERMF
  C:AB03H         SYMBOL        L?0068
  -------         PROC          L?0067
  -------         ENDPROC       L?0067
  C:AB03H         SYMBOL        L?0068
  -------         PROC          _DEBUG_TXT_TIBBO
  X:0037H         SYMBOL        str
  -------         DO            
  X:003AH         SYMBOL        i
  -------         ENDDO         
  C:AB09H         LINE#         183
  C:AB14H         LINE#         184
  C:AB14H         LINE#         186
  C:AB17H         LINE#         188
  C:AB1FH         LINE#         189
  C:AB1FH         LINE#         190
  C:AB3BH         LINE#         191
  C:AB3BH         LINE#         192
  C:AB3EH         LINE#         193
  C:AB46H         LINE#         195
  C:AB46H         LINE#         196
  -------         ENDPROC       _DEBUG_TXT_TIBBO
  -------         PROC          L?0069
  -------         ENDPROC       L?0069
  -------         PROC          DEBUG_DIVIDIR_TEXTO
  C:B5E5H         LINE#         198
  C:B5E5H         LINE#         199
  C:B5E5H         LINE#         200
  -------         ENDPROC       DEBUG_DIVIDIR_TEXTO
  -------         PROC          RX_DATA
  -------         DO            
  D:0006H         SYMBOL        temporal
  -------         ENDDO         
  C:9D7EH         LINE#         206
  C:9D7EH         LINE#         207
  C:9D7EH         LINE#         210
  C:9D80H         LINE#         211
  C:9D83H         LINE#         213
  C:9D86H         LINE#         215
  C:9D92H         LINE#         216
  C:9D92H         LINE#         218
  C:9D95H         LINE#         220
  C:9DA1H         LINE#         221
  C:9DA1H         LINE#         223
BL51 BANKED LINKER/LOCATER V6.22.2.0                                                  11/11/2020  12:18:32  PAGE 90


  C:9DA4H         LINE#         225
  C:9DB0H         LINE#         226
  C:9DB0H         LINE#         228
  C:9DB3H         LINE#         230
  C:9DBFH         LINE#         231
  C:9DBFH         LINE#         233
  C:9DC2H         LINE#         235
  C:9DCEH         LINE#         236
  C:9DCEH         LINE#         238
  C:9DD1H         LINE#         240
  C:9DDDH         LINE#         241
  C:9DDDH         LINE#         243
  C:9DE0H         LINE#         245
  C:9DECH         LINE#         246
  C:9DECH         LINE#         248
  C:9DEFH         LINE#         249
  C:9DFDH         LINE#         251
  C:9E00H         LINE#         252
  C:9E03H         LINE#         253
  C:9E03H         LINE#         254
  C:9E03H         LINE#         257
  C:9E05H         LINE#         259
  -------         ENDPROC       RX_DATA
  -------         PROC          COND_INI_TIBBO
  C:B70DH         LINE#         277
  C:B70DH         LINE#         278
  C:B70DH         LINE#         280
  C:B70FH         LINE#         281
  C:B711H         LINE#         282
  -------         ENDPROC       COND_INI_TIBBO
  -------         PROC          _DEBUG_PTO_PARALELO
  X:0001H         SYMBOL        buffer
  X:0004H         SYMBOL        Length_trama
  C:B06BH         LINE#         283
  C:B06EH         LINE#         284
  C:B06EH         LINE#         285
  C:B071H         LINE#         286
  C:B07AH         LINE#         287
  C:B091H         LINE#         288
  C:B094H         LINE#         289
  C:B09DH         LINE#         290
  C:B0A0H         LINE#         291
  C:B0A3H         LINE#         292
  -------         ENDPROC       _DEBUG_PTO_PARALELO
  -------         PROC          _DEBUG_MONITOR
  X:0016H         SYMBOL        buffer
  X:0019H         SYMBOL        Length_trama
  C:B25AH         LINE#         295
  C:B25DH         LINE#         296
  C:B25DH         LINE#         297
  C:B260H         LINE#         298
  C:B269H         LINE#         299
  C:B277H         LINE#         300
  C:B27AH         LINE#         301
  C:B283H         LINE#         302
  C:B286H         LINE#         303
  C:B289H         LINE#         304
BL51 BANKED LINKER/LOCATER V6.22.2.0                                                  11/11/2020  12:18:32  PAGE 91


  -------         ENDPROC       _DEBUG_MONITOR
  -------         ENDMOD        TIBBO

  -------         MODULE        UART
  C:0000H         SYMBOL        _ICE_DUMMY_
  C:B410H         PUBLIC        com_getchar
  C:B64AH         PUBLIC        com_rbuflen
  C:B65CH         PUBLIC        com_tbuflen
  B:00A8H.4       PUBLIC        ES
  B:0098H.0       PUBLIC        RI
  C:B0A6H         PUBLIC        _com_putchar
  B:0098H.1       PUBLIC        TI
  B:0021H.3       PUBLIC        aSk
  B:00B8H.4       PUBLIC        PS
  D:000DH         SYMBOL        r_in
  D:000EH         SYMBOL        r_out
  D:000FH         SYMBOL        t_in
  D:0010H         SYMBOL        t_out
  D:0099H         PUBLIC        SBUF
  D:0087H         PUBLIC        PCON
  D:0089H         PUBLIC        TMOD
  B:0021H.4       SYMBOL        ti_restart
  B:00A8H.3       PUBLIC        ET1
  D:008DH         PUBLIC        TH1
  B:0098H.7       PUBLIC        SM0
  B:0098H.6       PUBLIC        SM1
  D:008BH         PUBLIC        TL1
  B:0098H.5       PUBLIC        SM2
  B:0088H.6       PUBLIC        TR1
  C:B347H         PUBLIC        com_initialize
  X:0263H         PUBLIC        cnt__ask_off
  B:0098H.4       PUBLIC        REN
  C:B399H         PUBLIC        com_baudrate
  C:5573H         SYMBOL        com_isr
  -------         PROC          COM_ISR
  -------         DO            
  X:0261H         SYMBOL        cDatoRx
  D:0006H         SYMBOL        k
  D:0007H         SYMBOL        bcc
  X:0262H         SYMBOL        num_datos
  -------         ENDDO         
  C:5573H         LINE#         96
  C:5588H         LINE#         104
  C:558EH         LINE#         105
  C:558EH         LINE#         107
  C:5590H         LINE#         108
  C:5596H         LINE#         109
  C:55A6H         LINE#         110
  C:55A6H         LINE#         111
  C:55B1H         LINE#         112
  C:55B3H         LINE#         114
  C:55B3H         LINE#         115
  C:55C3H         LINE#         116
  C:55C3H         LINE#         117
  C:55C8H         LINE#         118
  C:55C8H         LINE#         119
  C:55DFH         LINE#         120
BL51 BANKED LINKER/LOCATER V6.22.2.0                                                  11/11/2020  12:18:32  PAGE 92


  C:55DFH         LINE#         124
  C:55DFH         LINE#         127
  C:55EEH         LINE#         128
  C:55EEH         LINE#         129
  C:55F0H         LINE#         130
  C:55F8H         LINE#         131
  C:55FDH         LINE#         133
  C:55FDH         LINE#         134
  C:5600H         LINE#         138
  C:5600H         LINE#         139
  C:5600H         LINE#         140
  C:5618H         LINE#         141
  C:5627H         LINE#         142
  C:5627H         LINE#         143
  C:5627H         LINE#         144
  C:5629H         LINE#         146
  C:5629H         LINE#         147
  C:562BH         LINE#         148
  C:562BH         LINE#         149
  C:562BH         LINE#         150
  C:562EH         LINE#         154
  C:562EH         LINE#         156
  C:5637H         LINE#         157
  C:5637H         LINE#         159
  C:563DH         LINE#         160
  C:5650H         LINE#         161
  C:5650H         LINE#         162
  C:5653H         LINE#         164
  C:5653H         LINE#         165
  C:5668H         LINE#         166
  C:566EH         LINE#         167
  C:566EH         LINE#         169
  C:5671H         LINE#         173
  C:5671H         LINE#         175
  C:5689H         LINE#         176
  C:568FH         LINE#         177
  C:5692H         LINE#         178
  C:5692H         LINE#         179
  C:56AAH         LINE#         180
  C:56AAH         LINE#         181
  C:56ABH         LINE#         182
  C:56B8H         LINE#         183
  C:56B8H         LINE#         184
  C:56C5H         LINE#         185
  C:56C8H         LINE#         186
  C:56D6H         LINE#         187
  C:56D6H         LINE#         188
  C:56D8H         LINE#         189
  C:56DDH         LINE#         190
  C:56DFH         LINE#         191
  C:56E3H         LINE#         193
  C:56E5H         LINE#         195
  C:56E5H         LINE#         196
  C:56E5H         LINE#         197
  C:56E5H         LINE#         198
  C:56E7H         LINE#         200
  C:56E7H         LINE#         201
BL51 BANKED LINKER/LOCATER V6.22.2.0                                                  11/11/2020  12:18:32  PAGE 93


  C:56E7H         LINE#         202
  C:56E7H         LINE#         204
  C:56E9H         LINE#         206
  C:56E9H         LINE#         207
  C:56EFH         LINE#         208
  C:56EFH         LINE#         210
  C:56F1H         LINE#         215
  C:56F1H         LINE#         216
  C:56F6H         LINE#         217
  C:56F6H         LINE#         218
  C:56F6H         LINE#         219
  C:56F6H         LINE#         224
  C:56F9H         LINE#         225
  C:56F9H         LINE#         226
  C:56FBH         LINE#         228
  C:5701H         LINE#         229
  C:5701H         LINE#         230
  C:570BH         LINE#         232
  C:570DH         LINE#         233
  C:570FH         LINE#         234
  C:5711H         LINE#         236
  C:5711H         LINE#         237
  C:5713H         LINE#         238
  C:5713H         LINE#         239
  C:5713H         LINE#         241
  -------         ENDPROC       COM_ISR
  -------         PROC          COM_INITIALIZE
  C:B347H         LINE#         257
  C:B34EH         LINE#         258
  C:B34EH         LINE#         262
  C:B351H         LINE#         267
  C:B354H         LINE#         268
  C:B356H         LINE#         270
  C:B358H         LINE#         271
  C:B35AH         LINE#         276
  C:B35EH         LINE#         277
  C:B360H         LINE#         278
  C:B362H         LINE#         280
  C:B364H         LINE#         281
  C:B366H         LINE#         282
  C:B368H         LINE#         284
  C:B36AH         LINE#         285
  C:B36CH         LINE#         286
  -------         ENDPROC       COM_INITIALIZE
  -------         PROC          COM_BAUDRATE
  C:B399H         LINE#         292
  C:B3A0H         LINE#         294
  C:B3A0H         LINE#         298
  C:B3A2H         LINE#         299
  C:B3A5H         LINE#         300
  C:B3A7H         LINE#         305
  C:B3A9H         LINE#         306
  C:B3ABH         LINE#         308
  C:B3AEH         LINE#         310
  C:B3B1H         LINE#         311
  C:B3B4H         LINE#         313
  C:B3B7H         LINE#         314
BL51 BANKED LINKER/LOCATER V6.22.2.0                                                  11/11/2020  12:18:32  PAGE 94


  C:B3BAH         LINE#         315
  C:B3BCH         LINE#         316
  -------         ENDPROC       COM_BAUDRATE
  -------         PROC          _COM_PUTCHAR
  X:00AAH         SYMBOL        c
  C:B0A6H         LINE#         322
  C:B0B2H         LINE#         323
  C:B0B2H         LINE#         327
  C:B0BFH         LINE#         328
  C:B0C3H         LINE#         334
  C:B0D1H         LINE#         336
  C:B0D3H         LINE#         338
  C:B0D6H         LINE#         339
  C:B0D6H         LINE#         340
  C:B0D8H         LINE#         341
  C:B0DAH         LINE#         342
  C:B0DAH         LINE#         344
  C:B0DCH         LINE#         345
  -------         ENDPROC       _COM_PUTCHAR
  -------         PROC          COM_GETCHAR
  C:B410H         LINE#         351
  C:B417H         LINE#         352
  C:B417H         LINE#         353
  C:B41DH         LINE#         354
  C:B423H         LINE#         356
  C:B431H         LINE#         357
  -------         ENDPROC       COM_GETCHAR
  -------         PROC          COM_RBUFLEN
  C:B64AH         LINE#         363
  C:B651H         LINE#         364
  C:B651H         LINE#         365
  C:B657H         LINE#         366
  -------         ENDPROC       COM_RBUFLEN
  -------         PROC          COM_TBUFLEN
  C:B65CH         LINE#         372
  C:B663H         LINE#         373
  C:B663H         LINE#         374
  C:B669H         LINE#         375
  -------         ENDPROC       COM_TBUFLEN
  -------         ENDMOD        UART

  -------         MODULE        LINTECH
  C:0000H         SYMBOL        _ICE_DUMMY_
  C:93BDH         PUBLIC        _Inicializa
  C:87B9H         PUBLIC        _RD_MF
  C:9125H         PUBLIC        Dwload_EEprom
  C:9885H         PUBLIC        _Card_Insercion
  C:7B61H         PUBLIC        _Mov_Card
  C:728CH         PUBLIC        _WR_MF
  C:9B54H         PUBLIC        LoadVerify_EEprom
  C:9E06H         PUBLIC        Unique_Identifier_UID
  C:A195H         PUBLIC        Power_off
  C:A291H         PUBLIC        _Check_Status
  C:907BH         PUBLIC        Clave_Seguridad_S2
  C:A115H         PUBLIC        Aut_Card_check_Status
  -------         PROC          _INICIALIZA
  X:0002H         SYMBOL        TipoMovimiento
BL51 BANKED LINKER/LOCATER V6.22.2.0                                                  11/11/2020  12:18:32  PAGE 95


  -------         DO            
  D:0003H         SYMBOL        j
  X:0003H         SYMBOL        bcc
  X:0004H         SYMBOL        g_scArrTxComSoft
  -------         ENDDO         
  C:93BDH         LINE#         66
  C:93C2H         LINE#         67
  C:93C2H         LINE#         70
  C:93C5H         LINE#         71
  C:93DBH         LINE#         72
  C:93DBH         LINE#         74
  C:93E4H         LINE#         76
  C:93EAH         LINE#         77
  C:93EDH         LINE#         78
  C:93EFH         LINE#         79
  C:93F3H         LINE#         80
  C:93F7H         LINE#         81
  C:93FBH         LINE#         82
  C:9403H         LINE#         83
  C:9407H         LINE#         84
  C:9413H         LINE#         85
  C:9413H         LINE#         86
  C:9427H         LINE#         87
  C:942AH         LINE#         88
  C:9432H         LINE#         89
  C:9434H         LINE#         90
  C:9439H         LINE#         91
  C:9448H         LINE#         92
  C:9453H         LINE#         93
  C:9459H         LINE#         94
  C:9459H         LINE#         95
  -------         ENDPROC       _INICIALIZA
  -------         PROC          _CHECK_STATUS
  X:0002H         SYMBOL        Detalle
  -------         DO            
  D:0006H         SYMBOL        j
  D:0007H         SYMBOL        bcc
  X:0003H         SYMBOL        g_scArrTxComSoft
  -------         ENDDO         
  C:A291H         LINE#         107
  C:A296H         LINE#         108
  C:A296H         LINE#         111
  C:A29FH         LINE#         113
  C:A2A1H         LINE#         115
  C:A2A7H         LINE#         116
  C:A2AAH         LINE#         117
  C:A2ACH         LINE#         118
  C:A2B0H         LINE#         119
  C:A2B4H         LINE#         120
  C:A2B8H         LINE#         121
  C:A2C0H         LINE#         122
  C:A2C4H         LINE#         123
  C:A2D0H         LINE#         124
  C:A2D0H         LINE#         125
  C:A2DDH         LINE#         126
  C:A2E0H         LINE#         127
  C:A2E5H         LINE#         128
BL51 BANKED LINKER/LOCATER V6.22.2.0                                                  11/11/2020  12:18:32  PAGE 96


  C:A2E7H         LINE#         129
  C:A2ECH         LINE#         130
  C:A2FBH         LINE#         131
  C:A306H         LINE#         132
  C:A30CH         LINE#         133
  -------         ENDPROC       _CHECK_STATUS
  -------         PROC          _CARD_INSERCION
  D:0007H         SYMBOL        Tipo
  -------         DO            
  D:0006H         SYMBOL        j
  D:0007H         SYMBOL        bcc
  X:0002H         SYMBOL        g_scArrTxComSoft
  -------         ENDDO         
  C:9885H         LINE#         143
  C:9885H         LINE#         144
  C:9885H         LINE#         147
  C:9892H         LINE#         148
  C:9892H         LINE#         149
  C:9899H         LINE#         150
  C:989FH         LINE#         151
  C:98A1H         LINE#         153
  C:98A1H         LINE#         155
  C:98A8H         LINE#         156
  C:98AEH         LINE#         158
  C:98AEH         LINE#         160
  C:98B0H         LINE#         162
  C:98B6H         LINE#         163
  C:98B9H         LINE#         164
  C:98BBH         LINE#         165
  C:98BFH         LINE#         166
  C:98C3H         LINE#         167
  C:98C7H         LINE#         169
  C:98CDH         LINE#         170
  C:98D9H         LINE#         171
  C:98D9H         LINE#         172
  C:98E6H         LINE#         173
  C:98E9H         LINE#         175
  C:98EEH         LINE#         177
  C:98F0H         LINE#         178
  C:98F5H         LINE#         179
  C:9904H         LINE#         180
  C:990FH         LINE#         181
  C:9915H         LINE#         182
  -------         ENDPROC       _CARD_INSERCION
  -------         PROC          _MOV_CARD
  X:0002H         SYMBOL        Posicion
  -------         DO            
  D:0003H         SYMBOL        j
  X:0003H         SYMBOL        bcc
  X:0004H         SYMBOL        g_scArrTxComSoft
  -------         ENDDO         
  C:7B61H         LINE#         193
  C:7B66H         LINE#         194
  C:7B66H         LINE#         197
  C:7B69H         LINE#         199
  C:7B89H         LINE#         200
  C:7B89H         LINE#         201
BL51 BANKED LINKER/LOCATER V6.22.2.0                                                  11/11/2020  12:18:32  PAGE 97


  C:7B90H         LINE#         202
  C:7B90H         LINE#         203
  C:7B96H         LINE#         204
  C:7B98H         LINE#         205
  C:7B9FH         LINE#         206
  C:7B9FH         LINE#         207
  C:7BA5H         LINE#         208
  C:7BA7H         LINE#         209
  C:7BAEH         LINE#         210
  C:7BAEH         LINE#         211
  C:7BB4H         LINE#         212
  C:7BB6H         LINE#         213
  C:7BBDH         LINE#         214
  C:7BBDH         LINE#         215
  C:7BC3H         LINE#         216
  C:7BC5H         LINE#         217
  C:7BCCH         LINE#         218
  C:7BCCH         LINE#         219
  C:7BD5H         LINE#         220
  C:7BD5H         LINE#         222
  C:7BDBH         LINE#         223
  C:7BDEH         LINE#         224
  C:7BE0H         LINE#         225
  C:7BE4H         LINE#         226
  C:7BE8H         LINE#         227
  C:7BECH         LINE#         228
  C:7BF4H         LINE#         229
  C:7BF8H         LINE#         230
  C:7C04H         LINE#         231
  C:7C04H         LINE#         232
  C:7C18H         LINE#         233
  C:7C1BH         LINE#         234
  C:7C23H         LINE#         235
  C:7C25H         LINE#         236
  C:7C2AH         LINE#         237
  C:7C39H         LINE#         238
  C:7C44H         LINE#         239
  C:7C4AH         LINE#         240
  C:7C4AH         LINE#         242
  -------         ENDPROC       _MOV_CARD
  -------         PROC          AUT_CARD_CHECK_STATUS
  -------         DO            
  D:0003H         SYMBOL        j
  X:0002H         SYMBOL        bcc
  X:0003H         SYMBOL        g_scArrTxComSoft
  -------         ENDDO         
  C:A115H         LINE#         248
  C:A115H         LINE#         249
  C:A115H         LINE#         252
  C:A11AH         LINE#         254
  C:A123H         LINE#         256
  C:A129H         LINE#         257
  C:A12CH         LINE#         258
  C:A12EH         LINE#         259
  C:A132H         LINE#         260
  C:A136H         LINE#         261
  C:A13AH         LINE#         262
BL51 BANKED LINKER/LOCATER V6.22.2.0                                                  11/11/2020  12:18:32  PAGE 98


  C:A13EH         LINE#         263
  C:A142H         LINE#         264
  C:A14EH         LINE#         265
  C:A14EH         LINE#         266
  C:A162H         LINE#         267
  C:A165H         LINE#         268
  C:A16DH         LINE#         269
  C:A16FH         LINE#         270
  C:A174H         LINE#         271
  C:A183H         LINE#         272
  C:A18EH         LINE#         273
  C:A194H         LINE#         274
  -------         ENDPROC       AUT_CARD_CHECK_STATUS
  -------         PROC          CLAVE_SEGURIDAD_S2
  -------         DO            
  D:0003H         SYMBOL        j
  X:0002H         SYMBOL        bcc
  X:0003H         SYMBOL        g_scArrTxComSoft
  -------         ENDDO         
  C:907BH         LINE#         277
  C:907BH         LINE#         278
  C:907BH         LINE#         281
  C:9080H         LINE#         282
  C:9089H         LINE#         285
  C:908FH         LINE#         286
  C:9092H         LINE#         287
  C:9094H         LINE#         288
  C:9098H         LINE#         289
  C:909CH         LINE#         290
  C:90A0H         LINE#         291
  C:90A4H         LINE#         292
  C:90A7H         LINE#         293
  C:90ABH         LINE#         294
  C:90AEH         LINE#         295
  C:90B2H         LINE#         297
  C:90B6H         LINE#         299
  C:90BAH         LINE#         300
  C:90BEH         LINE#         301
  C:90C2H         LINE#         302
  C:90C6H         LINE#         303
  C:90CAH         LINE#         304
  C:90CEH         LINE#         307
  C:90D2H         LINE#         309
  C:90DEH         LINE#         310
  C:90DEH         LINE#         311
  C:90F2H         LINE#         312
  C:90F5H         LINE#         313
  C:90FDH         LINE#         314
  C:90FFH         LINE#         315
  C:9104H         LINE#         316
  C:9113H         LINE#         317
  C:911EH         LINE#         318
  C:9124H         LINE#         321
  -------         ENDPROC       CLAVE_SEGURIDAD_S2
  -------         PROC          DWLOAD_EEPROM
  -------         DO            
  D:0003H         SYMBOL        j
BL51 BANKED LINKER/LOCATER V6.22.2.0                                                  11/11/2020  12:18:32  PAGE 99


  X:0002H         SYMBOL        bcc
  X:0003H         SYMBOL        g_scArrTxComSoft
  -------         ENDDO         
  C:9125H         LINE#         326
  C:9125H         LINE#         327
  C:9125H         LINE#         330
  C:912AH         LINE#         331
  C:9133H         LINE#         333
  C:9139H         LINE#         334
  C:913CH         LINE#         335
  C:913EH         LINE#         336
  C:9142H         LINE#         337
  C:9146H         LINE#         338
  C:914AH         LINE#         339
  C:914EH         LINE#         340
  C:9151H         LINE#         341
  C:9155H         LINE#         342
  C:9158H         LINE#         343
  C:915BH         LINE#         344
  C:915FH         LINE#         345
  C:9163H         LINE#         346
  C:9167H         LINE#         347
  C:916BH         LINE#         348
  C:916FH         LINE#         349
  C:9173H         LINE#         350
  C:9177H         LINE#         351
  C:917BH         LINE#         353
  C:9187H         LINE#         354
  C:9187H         LINE#         355
  C:919BH         LINE#         356
  C:919EH         LINE#         357
  C:91A6H         LINE#         358
  C:91A8H         LINE#         359
  C:91ADH         LINE#         360
  C:91BCH         LINE#         361
  C:91C7H         LINE#         362
  C:91CDH         LINE#         363
  -------         ENDPROC       DWLOAD_EEPROM
  -------         PROC          LOADVERIFY_EEPROM
  -------         DO            
  D:0003H         SYMBOL        j
  X:0002H         SYMBOL        bcc
  X:0003H         SYMBOL        g_scArrTxComSoft
  -------         ENDDO         
  C:9B54H         LINE#         369
  C:9B54H         LINE#         370
  C:9B54H         LINE#         373
  C:9B59H         LINE#         374
  C:9B62H         LINE#         377
  C:9B68H         LINE#         378
  C:9B6BH         LINE#         379
  C:9B6DH         LINE#         380
  C:9B71H         LINE#         381
  C:9B75H         LINE#         382
  C:9B79H         LINE#         383
  C:9B7DH         LINE#         384
  C:9B80H         LINE#         385
BL51 BANKED LINKER/LOCATER V6.22.2.0                                                  11/11/2020  12:18:32  PAGE 100


  C:9B84H         LINE#         386
  C:9B87H         LINE#         387
  C:9B8AH         LINE#         388
  C:9B8EH         LINE#         393
  C:9B9AH         LINE#         394
  C:9B9AH         LINE#         395
  C:9BAEH         LINE#         396
  C:9BB1H         LINE#         397
  C:9BB9H         LINE#         398
  C:9BBBH         LINE#         399
  C:9BC0H         LINE#         400
  C:9BCFH         LINE#         401
  C:9BDAH         LINE#         402
  C:9BE0H         LINE#         404
  -------         ENDPROC       LOADVERIFY_EEPROM
  -------         PROC          _RD_MF
  X:0002H         SYMBOL        Sector
  X:0003H         SYMBOL        Bloque
  -------         DO            
  D:0003H         SYMBOL        j
  X:0004H         SYMBOL        bcc
  X:0005H         SYMBOL        g_scArrTxComSoft
  -------         ENDDO         
  C:87B9H         LINE#         410
  C:87C1H         LINE#         411
  C:87C1H         LINE#         415
  C:87C4H         LINE#         417
  C:87CDH         LINE#         418
  C:87D5H         LINE#         420
  C:87DEH         LINE#         421
  C:87E6H         LINE#         422
  C:87EFH         LINE#         425
  C:87F5H         LINE#         426
  C:87F8H         LINE#         427
  C:87FAH         LINE#         428
  C:87FEH         LINE#         429
  C:8802H         LINE#         430
  C:8806H         LINE#         431
  C:880AH         LINE#         432
  C:880DH         LINE#         433
  C:8811H         LINE#         434
  C:8819H         LINE#         435
  C:8821H         LINE#         436
  C:8825H         LINE#         437
  C:8829H         LINE#         439
  C:8835H         LINE#         440
  C:8835H         LINE#         441
  C:8849H         LINE#         442
  C:884CH         LINE#         443
  C:8854H         LINE#         446
  C:8856H         LINE#         447
  C:885BH         LINE#         448
  C:886AH         LINE#         449
  C:8875H         LINE#         450
  C:887BH         LINE#         452
  -------         ENDPROC       _RD_MF
  -------         PROC          _WR_MF
BL51 BANKED LINKER/LOCATER V6.22.2.0                                                  11/11/2020  12:18:32  PAGE 101


  X:0002H         SYMBOL        Sector
  X:0003H         SYMBOL        Bloque
  X:0004H         SYMBOL        buffer
  -------         DO            
  D:0005H         SYMBOL        j
  X:0007H         SYMBOL        bcc
  X:0008H         SYMBOL        g_scArrTxComSoft
  -------         ENDDO         
  C:728CH         LINE#         459
  C:729DH         LINE#         461
  C:729DH         LINE#         464
  C:72A0H         LINE#         466
  C:72A9H         LINE#         467
  C:72B1H         LINE#         469
  C:72BAH         LINE#         470
  C:72C2H         LINE#         471
  C:72CBH         LINE#         473
  C:72D1H         LINE#         474
  C:72D4H         LINE#         475
  C:72D6H         LINE#         476
  C:72DAH         LINE#         478
  C:72DEH         LINE#         479
  C:72E2H         LINE#         480
  C:72E6H         LINE#         481
  C:72E9H         LINE#         482
  C:72EDH         LINE#         483
  C:72F5H         LINE#         484
  C:72FDH         LINE#         485
  C:7301H         LINE#         487
  C:730DH         LINE#         488
  C:730DH         LINE#         489
  C:732DH         LINE#         490
  C:7330H         LINE#         492
  C:7336H         LINE#         494
  C:7342H         LINE#         495
  C:7342H         LINE#         496
  C:7359H         LINE#         497
  C:735CH         LINE#         498
  C:7364H         LINE#         501
  C:7366H         LINE#         502
  C:736BH         LINE#         503
  C:737AH         LINE#         504
  C:7385H         LINE#         505
  C:738BH         LINE#         507
  -------         ENDPROC       _WR_MF
  -------         PROC          UNIQUE_IDENTIFIER_UID
  -------         DO            
  D:0003H         SYMBOL        j
  X:0002H         SYMBOL        bcc
  X:0003H         SYMBOL        g_scArrTxComSoft
  -------         ENDDO         
  C:9E06H         LINE#         512
  C:9E06H         LINE#         513
  C:9E06H         LINE#         516
  C:9E0BH         LINE#         518
  C:9E14H         LINE#         520
  C:9E1AH         LINE#         521
BL51 BANKED LINKER/LOCATER V6.22.2.0                                                  11/11/2020  12:18:32  PAGE 102


  C:9E1DH         LINE#         522
  C:9E1FH         LINE#         523
  C:9E23H         LINE#         524
  C:9E27H         LINE#         525
  C:9E2BH         LINE#         526
  C:9E2FH         LINE#         527
  C:9E33H         LINE#         528
  C:9E37H         LINE#         529
  C:9E3BH         LINE#         530
  C:9E47H         LINE#         531
  C:9E47H         LINE#         532
  C:9E5BH         LINE#         533
  C:9E5EH         LINE#         534
  C:9E66H         LINE#         535
  C:9E68H         LINE#         536
  C:9E6DH         LINE#         537
  C:9E7CH         LINE#         538
  C:9E87H         LINE#         539
  C:9E8DH         LINE#         540
  -------         ENDPROC       UNIQUE_IDENTIFIER_UID
  -------         PROC          POWER_OFF
  -------         DO            
  D:0003H         SYMBOL        j
  X:0002H         SYMBOL        bcc
  X:0003H         SYMBOL        g_scArrTxComSoft
  -------         ENDDO         
  C:A195H         LINE#         541
  C:A195H         LINE#         542
  C:A195H         LINE#         545
  C:A19AH         LINE#         547
  C:A1A3H         LINE#         549
  C:A1A9H         LINE#         550
  C:A1ACH         LINE#         551
  C:A1AEH         LINE#         552
  C:A1B2H         LINE#         553
  C:A1B6H         LINE#         554
  C:A1BAH         LINE#         555
  C:A1BEH         LINE#         556
  C:A1C2H         LINE#         557
  C:A1CEH         LINE#         558
  C:A1CEH         LINE#         559
  C:A1E2H         LINE#         560
  C:A1E5H         LINE#         561
  C:A1EDH         LINE#         562
  C:A1EFH         LINE#         563
  C:A1F4H         LINE#         564
  C:A203H         LINE#         565
  C:A20EH         LINE#         566
  C:A214H         LINE#         569
  -------         ENDPROC       POWER_OFF
  -------         ENDMOD        LINTECH

  -------         MODULE        VERIFICADOR
  C:0000H         SYMBOL        _ICE_DUMMY_
  D:0080H         PUBLIC        P0
  C:B436H         PUBLIC        Analiza_Presencia_Mensual
  C:A92DH         PUBLIC        Ingreso_Vehiculo
BL51 BANKED LINKER/LOCATER V6.22.2.0                                                  11/11/2020  12:18:32  PAGE 103


  D:0090H         PUBLIC        P1
  C:B3C1H         PUBLIC        _Armar_Trama_Tarjeta_Sector1_Bloque0
  D:00B0H         PUBLIC        P3
  C:58CFH         PUBLIC        _Valida_Tipo_Tarjeta
  C:AFD3H         PUBLIC        _Load_Secuencia_Expedidor
  C:615AH         PUBLIC        _Armar_Trama_Tarjeta_Sector1_Bloque2
  C:5726H         PUBLIC        _Armar_Trama_Pto_Paralelo_Expedidor
  C:86F5H         PUBLIC        _Tarjeta_Mensual
  C:B482H         PUBLIC        Analiza_Presencia_rotacion
  C:A69DH         PUBLIC        _Disparo_Lock_Entrada_Vehiculo
  C:B2BDH         PUBLIC        Pregunta_Placa
  C:975CH         PUBLIC        _Valida_Vehiculo_Card_Mensual
  C:A820H         PUBLIC        _Armar_Trama_Placa
  C:83D3H         PUBLIC        _rta_cmd_transporte
  C:B6BCH         PUBLIC        Captura_Expulsa
  C:5EC1H         PUBLIC        _Armar_Trama_Monitor
  C:6519H         PUBLIC        Secuencia_inicio_expedidor
  C:7EE8H         PUBLIC        _Analiza_Uid_Card
  B:0080H.0       PUBLIC        rx_ip
  C:7189H         PUBLIC        _Bloque_Horario
  B:0090H.7       PUBLIC        lock
  C:9319H         PUBLIC        _Armar_Trama_Tarjeta_Sector1_Bloque1_Camcel
  C:94F6H         PUBLIC        _Responde_Lectura_Tarjeta_Sector1_Bloque0
  C:8ABEH         PUBLIC        error_rx_pto
  C:5394H         PUBLIC        _Responde_Lectura_Tarjeta_Sector1_Bloque1
  C:678EH         PUBLIC        _Responde_Lectura_Tarjeta_Sector1_Bloque2
  C:945AH         PUBLIC        _Respuesta_Placa_Cancel
  B:0090H.1       PUBLIC        DataIn
  C:9F12H         PUBLIC        _Send_Pto_Paralelo
  C:B227H         PUBLIC        Trama_Validacion_P_N
  B:0021H.7       PUBLIC        MenSual
  C:8095H         PUBLIC        _Armar_Trama_Pto_Paralelo_Expedidor_Mensual
  B:0080H.3       PUBLIC        Rele_Atasco
  C:6F6EH         PUBLIC        _Horarios
  C:8FCFH         PUBLIC        _Hora_Maxima
  C:3829H         PUBLIC        _SecuenciaExpedidorMF
  C:ACEFH         PUBLIC        _Pregunta_Lpr
  C:8E66H         PUBLIC        _Wait_Placa
  C:A30DH         PUBLIC        Responde_Estado_Sensores_Transporte
  C:A389H         PUBLIC        Entrega_Card_Captura
  C:A7C3H         PUBLIC        _Respuesta_Segunda_clave
  X:0140H         SYMBOL        Estado
  C:B189H         PUBLIC        _Responde_Write_Tarjeta_Sector1_Bloque0
  C:B153H         PUBLIC        _Responde_Write_Tarjeta_Sector1_Bloque1
  C:ABD6H         PUBLIC        _Responde_Write_Tarjeta_Sector2_Bloque0
  C:9AC5H         PUBLIC        _Responde_Write_Tarjeta_Sector1_Bloque2
  C:A4ECH         PUBLIC        _En_Horario
  C:A402H         PUBLIC        Responde_Tipo_Tarjeta
  C:B28CH         PUBLIC        _Tarjeta_Rotacion
  -------         PROC          CAPTURA_EXPULSA
  -------         DO            
  D:0007H         SYMBOL        Estado_expedidor
  -------         ENDDO         
  C:B6BCH         LINE#         530
  C:B6BCH         LINE#         531
  C:B6BCH         LINE#         535
  C:B6BFH         LINE#         536
BL51 BANKED LINKER/LOCATER V6.22.2.0                                                  11/11/2020  12:18:32  PAGE 104


  C:B6BFH         LINE#         537
  C:B6C1H         LINE#         538
  C:B6C2H         LINE#         540
  C:B6C2H         LINE#         542
  C:B6C4H         LINE#         543
  C:B6C4H         LINE#         546
  C:B6C4H         LINE#         547
  -------         ENDPROC       CAPTURA_EXPULSA
  -------         PROC          TRAMA_VALIDACION_P_N
  -------         DO            
  D:0007H         SYMBOL        Trama_Validacion_P_N
  -------         ENDDO         
  C:B227H         LINE#         558
  C:B227H         LINE#         559
  C:B227H         LINE#         560
  C:B229H         LINE#         562
  C:B234H         LINE#         563
  C:B234H         LINE#         564
  C:B237H         LINE#         565
  C:B237H         LINE#         566
  C:B239H         LINE#         569
  C:B241H         LINE#         570
  C:B241H         LINE#         572
  C:B243H         LINE#         574
  C:B244H         LINE#         575
  C:B248H         LINE#         576
  C:B248H         LINE#         578
  C:B24AH         LINE#         580
  C:B24BH         LINE#         582
  C:B24BH         LINE#         583
  C:B254H         LINE#         584
  C:B256H         LINE#         586
  C:B256H         LINE#         587
  C:B257H         LINE#         589
  C:B257H         LINE#         591
  C:B259H         LINE#         593
  C:B259H         LINE#         595
  C:B259H         LINE#         597
  C:B259H         LINE#         598
  -------         ENDPROC       TRAMA_VALIDACION_P_N
  -------         PROC          ERROR_RX_PTO
  -------         DO            
  X:00B7H         SYMBOL        cnt_espera_ask_on
  X:0007H         SYMBOL        error_rx_pto
  -------         ENDDO         
  C:8ABEH         LINE#         622
  C:8ABEH         LINE#         623
  C:8ABEH         LINE#         626
  C:8AC4H         LINE#         630
  C:8ACDH         LINE#         631
  C:8AD5H         LINE#         632
  C:8ADEH         LINE#         633
  C:8AE6H         LINE#         634
  C:8AEFH         LINE#         635
  C:8AF2H         LINE#         637
  C:8AF2H         LINE#         638
  C:8AF8H         LINE#         639
BL51 BANKED LINKER/LOCATER V6.22.2.0                                                  11/11/2020  12:18:32  PAGE 105


  C:8B02H         LINE#         640
  C:8B02H         LINE#         641
  C:8B0BH         LINE#         642
  C:8B0DH         LINE#         643
  C:8B14H         LINE#         644
  C:8B19H         LINE#         645
  C:8B1FH         LINE#         646
  C:8B24H         LINE#         647
  C:8B26H         LINE#         648
  C:8B2DH         LINE#         649
  C:8B33H         LINE#         650
  C:8B33H         LINE#         652
  C:8B33H         LINE#         653
  C:8B38H         LINE#         654
  C:8B38H         LINE#         655
  C:8B38H         LINE#         656
  C:8B3AH         LINE#         658
  C:8B3AH         LINE#         659
  C:8B48H         LINE#         660
  C:8B5BH         LINE#         661
  C:8B5BH         LINE#         662
  C:8B5CH         LINE#         664
  C:8B62H         LINE#         665
  C:8B66H         LINE#         666
  C:8B68H         LINE#         667
  C:8B68H         LINE#         668
  C:8B6AH         LINE#         670
  C:8B6AH         LINE#         671
  C:8B6BH         LINE#         672
  C:8B70H         LINE#         673
  C:8B76H         LINE#         674
  C:8B76H         LINE#         675
  C:8B76H         LINE#         676
  C:8B7BH         LINE#         677
  -------         ENDPROC       ERROR_RX_PTO
  -------         PROC          _RTA_CMD_TRANSPORTE
  X:0002H         SYMBOL        secuencia_Expedidor
  -------         DO            
  X:0005H         SYMBOL        temp
  X:0006H         SYMBOL        EstadoComSeqMF
  -------         ENDDO         
  C:83D3H         LINE#         693
  C:83DEH         LINE#         694
  C:83DEH         LINE#         700
  C:83EBH         LINE#         701
  C:83EBH         LINE#         702
  C:83F3H         LINE#         703
  C:83F3H         LINE#         704
  C:8401H         LINE#         705
  C:8404H         LINE#         706
  C:840AH         LINE#         707
  C:840AH         LINE#         708
  C:8413H         LINE#         709
  C:8427H         LINE#         710
  C:8438H         LINE#         712
  C:843AH         LINE#         714
  C:843AH         LINE#         717
BL51 BANKED LINKER/LOCATER V6.22.2.0                                                  11/11/2020  12:18:32  PAGE 106


  C:8452H         LINE#         718
  C:8452H         LINE#         719
  C:845DH         LINE#         720
  C:845FH         LINE#         722
  C:845FH         LINE#         723
  C:846DH         LINE#         724
  C:846DH         LINE#         725
  C:846DH         LINE#         726
  C:846FH         LINE#         728
  C:846FH         LINE#         730
  C:8483H         LINE#         731
  C:8498H         LINE#         732
  C:8498H         LINE#         733
  C:849DH         LINE#         734
  -------         ENDPROC       _RTA_CMD_TRANSPORTE
  -------         PROC          ANALIZA_PRESENCIA_MENSUAL
  -------         DO            
  X:0002H         SYMBOL        Estado_expedidor
  -------         ENDDO         
  C:B436H         LINE#         738
  C:B436H         LINE#         739
  C:B436H         LINE#         741
  C:B43CH         LINE#         742
  C:B43CH         LINE#         743
  C:B43EH         LINE#         744
  C:B444H         LINE#         745
  C:B446H         LINE#         747
  C:B446H         LINE#         749
  C:B44BH         LINE#         750
  C:B450H         LINE#         751
  C:B456H         LINE#         753
  C:B456H         LINE#         754
  C:B45BH         LINE#         755
  -------         ENDPROC       ANALIZA_PRESENCIA_MENSUAL
  -------         PROC          ANALIZA_PRESENCIA_ROTACION
  -------         DO            
  X:0002H         SYMBOL        Estado_expedidor
  -------         ENDDO         
  C:B482H         LINE#         756
  C:B482H         LINE#         757
  C:B482H         LINE#         759
  C:B488H         LINE#         760
  C:B488H         LINE#         762
  C:B48EH         LINE#         763
  C:B490H         LINE#         765
  C:B490H         LINE#         767
  C:B495H         LINE#         768
  C:B49AH         LINE#         769
  C:B49FH         LINE#         771
  C:B49FH         LINE#         772
  C:B4A4H         LINE#         773
  -------         ENDPROC       ANALIZA_PRESENCIA_ROTACION
  -------         PROC          _ANALIZA_UID_CARD
  X:0002H         SYMBOL        Atributos_Expedidor
  -------         DO            
  X:0005H         SYMBOL        Estado_expedidor
  D:0007H         SYMBOL        temp
BL51 BANKED LINKER/LOCATER V6.22.2.0                                                  11/11/2020  12:18:32  PAGE 107


  X:0006H         SYMBOL        buffer_UID
  -------         ENDDO         
  C:7EE8H         LINE#         777
  C:7EF3H         LINE#         778
  C:7EF3H         LINE#         782
  C:7F03H         LINE#         783
  C:7F03H         LINE#         785
  C:7F0FH         LINE#         786
  C:7F0FH         LINE#         787
  C:7F27H         LINE#         789
  C:7F2AH         LINE#         791
  C:7F33H         LINE#         792
  C:7F44H         LINE#         795
  C:7F4DH         LINE#         796
  C:7F55H         LINE#         797
  C:7F5DH         LINE#         798
  C:7F65H         LINE#         799
  C:7F6DH         LINE#         800
  C:7F76H         LINE#         802
  C:7F8DH         LINE#         803
  C:7F97H         LINE#         804
  C:7FA1H         LINE#         805
  C:7FABH         LINE#         806
  C:7FB1H         LINE#         807
  C:7FB3H         LINE#         809
  C:7FB3H         LINE#         810
  C:7FB9H         LINE#         811
  C:7FB9H         LINE#         812
  C:7FBEH         LINE#         813
  -------         ENDPROC       _ANALIZA_UID_CARD
  -------         PROC          INGRESO_VEHICULO
  -------         DO            
  D:0007H         SYMBOL        CardAutomatic
  X:00B9H         SYMBOL        pulseboton
  -------         ENDDO         
  C:A92DH         LINE#         817
  C:A92DH         LINE#         818
  C:A92DH         LINE#         822
  C:A933H         LINE#         823
  C:A933H         LINE#         824
  C:A93CH         LINE#         826
  C:A941H         LINE#         827
  C:A941H         LINE#         828
  C:A94AH         LINE#         830
  C:A94AH         LINE#         831
  C:A94CH         LINE#         833
  C:A94CH         LINE#         835
  C:A952H         LINE#         836
  C:A957H         LINE#         837
  C:A959H         LINE#         839
  C:A959H         LINE#         840
  C:A95FH         LINE#         843
  C:A95FH         LINE#         844
  C:A962H         LINE#         845
  C:A965H         LINE#         846
  C:A965H         LINE#         847
  C:A967H         LINE#         848
BL51 BANKED LINKER/LOCATER V6.22.2.0                                                  11/11/2020  12:18:32  PAGE 108


  C:A96CH         LINE#         849
  C:A972H         LINE#         850
  C:A974H         LINE#         870
  C:A974H         LINE#         872
  C:A979H         LINE#         873
  C:A979H         LINE#         874
  C:A97EH         LINE#         875
  -------         ENDPROC       INGRESO_VEHICULO
  -------         PROC          RESPONDE_ESTADO_SENSORES_TRANSPORTE
  -------         DO            
  X:0002H         SYMBOL        Estado_expedidor
  -------         ENDDO         
  C:A30DH         LINE#         882
  C:A30DH         LINE#         883
  C:A30DH         LINE#         886
  C:A316H         LINE#         888
  C:A31EH         LINE#         889
  C:A31EH         LINE#         891
  C:A329H         LINE#         892
  C:A329H         LINE#         893
  C:A32DH         LINE#         894
  C:A32DH         LINE#         895
  C:A336H         LINE#         896
  C:A33BH         LINE#         898
  C:A33BH         LINE#         899
  C:A33DH         LINE#         901
  C:A33DH         LINE#         903
  C:A345H         LINE#         905
  C:A345H         LINE#         906
  C:A347H         LINE#         908
  C:A347H         LINE#         910
  C:A350H         LINE#         912
  C:A355H         LINE#         915
  C:A355H         LINE#         916
  C:A355H         LINE#         917
  C:A357H         LINE#         918
  C:A35EH         LINE#         919
  C:A35EH         LINE#         921
  C:A364H         LINE#         923
  C:A364H         LINE#         924
  C:A366H         LINE#         925
  C:A36DH         LINE#         927
  C:A36DH         LINE#         928
  C:A376H         LINE#         929
  C:A37CH         LINE#         930
  C:A37EH         LINE#         932
  C:A37EH         LINE#         933
  C:A383H         LINE#         934
  C:A383H         LINE#         935
  C:A388H         LINE#         936
  -------         ENDPROC       RESPONDE_ESTADO_SENSORES_TRANSPORTE
  -------         PROC          RESPONDE_TIPO_TARJETA
  -------         DO            
  X:0002H         SYMBOL        Estado_expedidor
  -------         ENDDO         
  C:A402H         LINE#         952
  C:A402H         LINE#         953
BL51 BANKED LINKER/LOCATER V6.22.2.0                                                  11/11/2020  12:18:32  PAGE 109


  C:A402H         LINE#         956
  C:A40BH         LINE#         958
  C:A413H         LINE#         959
  C:A413H         LINE#         960
  C:A41EH         LINE#         961
  C:A41EH         LINE#         962
  C:A427H         LINE#         963
  C:A42DH         LINE#         964
  C:A42DH         LINE#         965
  C:A430H         LINE#         966
  C:A432H         LINE#         968
  C:A432H         LINE#         969
  C:A435H         LINE#         970
  C:A435H         LINE#         971
  C:A437H         LINE#         973
  C:A437H         LINE#         974
  C:A43EH         LINE#         975
  C:A43EH         LINE#         977
  C:A444H         LINE#         979
  C:A444H         LINE#         980
  C:A444H         LINE#         982
  C:A444H         LINE#         984
  C:A446H         LINE#         986
  C:A446H         LINE#         987
  C:A446H         LINE#         988
  C:A446H         LINE#         989
  C:A446H         LINE#         990
  C:A446H         LINE#         991
  C:A448H         LINE#         993
  C:A448H         LINE#         994
  C:A44FH         LINE#         995
  C:A44FH         LINE#         998
  C:A458H         LINE#         1000
  C:A45DH         LINE#         1001
  C:A462H         LINE#         1003
  C:A46AH         LINE#         1006
  C:A46CH         LINE#         1008
  C:A46CH         LINE#         1009
  C:A46EH         LINE#         1010
  C:A473H         LINE#         1011
  C:A473H         LINE#         1012
  C:A473H         LINE#         1014
  C:A478H         LINE#         1015
  -------         ENDPROC       RESPONDE_TIPO_TARJETA
  -------         PROC          _RESPONDE_LECTURA_TARJETA_SECTOR1_BLOQUE1
  X:0002H         SYMBOL        Atributos_Expedidor
  -------         DO            
  D:0007H         SYMBOL        temp
  X:0005H         SYMBOL        Estado_expedidor
  X:0006H         SYMBOL        buffer_S1_B1
  X:0017H         SYMBOL        ID_CLIENTE
  D:0007H         SYMBOL        COD_PARK
  X:00BAH         SYMBOL        falla
  -------         ENDDO         
  C:5394H         LINE#         1027
  C:539FH         LINE#         1028
  C:539FH         LINE#         1035
BL51 BANKED LINKER/LOCATER V6.22.2.0                                                  11/11/2020  12:18:32  PAGE 110


  C:53A8H         LINE#         1039
  C:53B8H         LINE#         1040
  C:53B8H         LINE#         1042
  C:53C4H         LINE#         1043
  C:53C4H         LINE#         1044
  C:53DCH         LINE#         1046
  C:53DFH         LINE#         1049
  C:53E8H         LINE#         1050
  C:53F9H         LINE#         1051
  C:5406H         LINE#         1052
  C:540FH         LINE#         1055
  C:542EH         LINE#         1056
  C:542EH         LINE#         1058
  C:5437H         LINE#         1059
  C:543FH         LINE#         1060
  C:5448H         LINE#         1062
  C:5451H         LINE#         1063
  C:5459H         LINE#         1064
  C:5462H         LINE#         1066
  C:546BH         LINE#         1067
  C:5473H         LINE#         1068
  C:547CH         LINE#         1070
  C:5485H         LINE#         1071
  C:548DH         LINE#         1072
  C:5496H         LINE#         1074
  C:549FH         LINE#         1075
  C:54A7H         LINE#         1076
  C:54B0H         LINE#         1078
  C:54C7H         LINE#         1080
  C:54D1H         LINE#         1081
  C:54DBH         LINE#         1082
  C:54E5H         LINE#         1084
  C:54EAH         LINE#         1085
  C:54FDH         LINE#         1086
  C:5502H         LINE#         1087
  C:5508H         LINE#         1089
  C:550AH         LINE#         1091
  C:550AH         LINE#         1092
  C:550FH         LINE#         1093
  C:5518H         LINE#         1094
  C:551DH         LINE#         1095
  C:551FH         LINE#         1096
  C:551FH         LINE#         1097
  C:551FH         LINE#         1098
  C:5521H         LINE#         1100
  C:5521H         LINE#         1102
  C:5529H         LINE#         1103
  C:5529H         LINE#         1104
  C:552FH         LINE#         1105
  C:552FH         LINE#         1106
  C:553CH         LINE#         1108
  C:553CH         LINE#         1109
  C:5545H         LINE#         1110
  C:554BH         LINE#         1112
  C:554DH         LINE#         1114
  C:554DH         LINE#         1115
  C:5552H         LINE#         1116
BL51 BANKED LINKER/LOCATER V6.22.2.0                                                  11/11/2020  12:18:32  PAGE 111


  C:555BH         LINE#         1117
  C:5560H         LINE#         1118
  C:5565H         LINE#         1119
  C:556DH         LINE#         1120
  C:556DH         LINE#         1121
  C:556DH         LINE#         1123
  C:5572H         LINE#         1124
  -------         ENDPROC       _RESPONDE_LECTURA_TARJETA_SECTOR1_BLOQUE1
  -------         PROC          _RESPONDE_LECTURA_TARJETA_SECTOR1_BLOQUE2
  X:0002H         SYMBOL        Atributos_Expedidor
  -------         DO            
  D:0007H         SYMBOL        temp
  X:0005H         SYMBOL        Estado_expedidor
  X:0006H         SYMBOL        buffer_S1_B2
  -------         ENDDO         
  C:678EH         LINE#         1129
  C:6799H         LINE#         1130
  C:6799H         LINE#         1136
  C:67A2H         LINE#         1140
  C:67B2H         LINE#         1141
  C:67B2H         LINE#         1143
  C:67BEH         LINE#         1144
  C:67BEH         LINE#         1145
  C:67D6H         LINE#         1146
  C:67D9H         LINE#         1147
  C:67E2H         LINE#         1148
  C:67F3H         LINE#         1152
  C:67FCH         LINE#         1153
  C:6809H         LINE#         1154
  C:6825H         LINE#         1155
  C:682EH         LINE#         1157
  C:6837H         LINE#         1159
  C:6853H         LINE#         1160
  C:685DH         LINE#         1161
  C:6866H         LINE#         1164
  C:686FH         LINE#         1165
  C:6877H         LINE#         1166
  C:6880H         LINE#         1170
  C:6897H         LINE#         1173
  C:68A3H         LINE#         1174
  C:68A9H         LINE#         1177
  C:68ABH         LINE#         1179
  C:68ABH         LINE#         1180
  C:68B3H         LINE#         1181
  C:68B3H         LINE#         1182
  C:68B8H         LINE#         1183
  -------         ENDPROC       _RESPONDE_LECTURA_TARJETA_SECTOR1_BLOQUE2
  -------         PROC          _RESPONDE_LECTURA_TARJETA_SECTOR1_BLOQUE0
  X:0002H         SYMBOL        Nombre_Mensual
  -------         DO            
  D:0007H         SYMBOL        temp
  X:0005H         SYMBOL        Estado_expedidor
  -------         ENDDO         
  C:94F6H         LINE#         1185
  C:9501H         LINE#         1186
  C:9501H         LINE#         1192
  C:950AH         LINE#         1196
BL51 BANKED LINKER/LOCATER V6.22.2.0                                                  11/11/2020  12:18:32  PAGE 112


  C:9517H         LINE#         1197
  C:9517H         LINE#         1199
  C:9523H         LINE#         1200
  C:9523H         LINE#         1201
  C:9543H         LINE#         1202
  C:9546H         LINE#         1203
  C:955AH         LINE#         1204
  C:9563H         LINE#         1205
  C:9571H         LINE#         1206
  C:957AH         LINE#         1207
  C:9580H         LINE#         1210
  C:9582H         LINE#         1212
  C:9582H         LINE#         1213
  C:958AH         LINE#         1214
  C:958AH         LINE#         1215
  C:958FH         LINE#         1216
  -------         ENDPROC       _RESPONDE_LECTURA_TARJETA_SECTOR1_BLOQUE0
  -------         PROC          _RESPONDE_WRITE_TARJETA_SECTOR1_BLOQUE1
  X:0002H         SYMBOL        Buffer_Write_MF
  -------         DO            
  D:0007H         SYMBOL        Estado_expedidor
  -------         ENDDO         
  C:B153H         LINE#         1217
  C:B15EH         LINE#         1218
  C:B15EH         LINE#         1220
  C:B167H         LINE#         1221
  C:B170H         LINE#         1222
  C:B186H         LINE#         1223
  C:B188H         LINE#         1224
  C:B188H         LINE#         1225
  -------         ENDPROC       _RESPONDE_WRITE_TARJETA_SECTOR1_BLOQUE1
  -------         PROC          _RESPONDE_WRITE_TARJETA_SECTOR1_BLOQUE2
  X:0002H         SYMBOL        Atributos_Expedidor
  X:0005H         SYMBOL        Buffer_Write_MF
  -------         DO            
  X:0008H         SYMBOL        Estado_expedidor
  -------         ENDDO         
  C:9AC5H         LINE#         1226
  C:9AD0H         LINE#         1227
  C:9AD0H         LINE#         1229
  C:9AD9H         LINE#         1230
  C:9AE2H         LINE#         1231
  C:9AF8H         LINE#         1232
  C:9B08H         LINE#         1233
  C:9B08H         LINE#         1234
  C:9B0BH         LINE#         1235
  C:9B1DH         LINE#         1236
  C:9B2BH         LINE#         1237
  C:9B31H         LINE#         1238
  C:9B33H         LINE#         1240
  C:9B33H         LINE#         1241
  C:9B36H         LINE#         1242
  C:9B48H         LINE#         1243
  C:9B4EH         LINE#         1245
  C:9B4EH         LINE#         1246
  C:9B53H         LINE#         1247
  -------         ENDPROC       _RESPONDE_WRITE_TARJETA_SECTOR1_BLOQUE2
BL51 BANKED LINKER/LOCATER V6.22.2.0                                                  11/11/2020  12:18:32  PAGE 113


  -------         PROC          _RESPONDE_WRITE_TARJETA_SECTOR1_BLOQUE0
  X:0002H         SYMBOL        Buffer_Write_MF
  C:B189H         LINE#         1250
  C:B194H         LINE#         1251
  C:B194H         LINE#         1253
  C:B19DH         LINE#         1254
  C:B1A6H         LINE#         1255
  C:B1BCH         LINE#         1257
  C:B1BEH         LINE#         1258
  -------         ENDPROC       _RESPONDE_WRITE_TARJETA_SECTOR1_BLOQUE0
  -------         PROC          _RESPONDE_WRITE_TARJETA_SECTOR2_BLOQUE0
  X:0002H         SYMBOL        Buffer_Write_MF
  C:ABD6H         LINE#         1261
  C:ABE1H         LINE#         1262
  C:ABE1H         LINE#         1264
  C:ABEAH         LINE#         1265
  C:ABF3H         LINE#         1266
  C:ABFCH         LINE#         1267
  C:AC05H         LINE#         1268
  C:AC1AH         LINE#         1269
  C:AC1CH         LINE#         1270
  -------         ENDPROC       _RESPONDE_WRITE_TARJETA_SECTOR2_BLOQUE0
  -------         PROC          _PREGUNTA_LPR
  X:0002H         SYMBOL        Atributos_Expedidor
  -------         DO            
  D:0007H         SYMBOL        Estado_expedidor
  -------         ENDDO         
  C:ACEFH         LINE#         1274
  C:ACFAH         LINE#         1275
  C:ACFAH         LINE#         1277
  C:AD03H         LINE#         1278
  C:AD11H         LINE#         1279
  C:AD11H         LINE#         1281
  C:AD22H         LINE#         1282
  C:AD2EH         LINE#         1283
  C:AD2EH         LINE#         1284
  C:AD32H         LINE#         1285
  C:AD32H         LINE#         1286
  C:AD32H         LINE#         1289
  C:AD34H         LINE#         1291
  C:AD34H         LINE#         1292
  -------         ENDPROC       _PREGUNTA_LPR
  -------         PROC          PREGUNTA_PLACA
  -------         DO            
  X:0002H         SYMBOL        Estado_expedidor
  -------         ENDDO         
  C:B2BDH         LINE#         1293
  C:B2BDH         LINE#         1294
  C:B2BDH         LINE#         1296
  C:B2C6H         LINE#         1297
  C:B2D5H         LINE#         1298
  C:B2D5H         LINE#         1300
  C:B2D8H         LINE#         1301
  C:B2DDH         LINE#         1302
  C:B2E2H         LINE#         1303
  C:B2E4H         LINE#         1305
  C:B2E4H         LINE#         1306
BL51 BANKED LINKER/LOCATER V6.22.2.0                                                  11/11/2020  12:18:32  PAGE 114


  C:B2E7H         LINE#         1307
  C:B2E7H         LINE#         1308
  C:B2ECH         LINE#         1309
  -------         ENDPROC       PREGUNTA_PLACA
  -------         PROC          _RESPUESTA_SEGUNDA_CLAVE
  X:0002H         SYMBOL        Atributos_Expedidor
  X:0005H         SYMBOL        Buffer_Write_MF
  C:A7C3H         LINE#         1310
  C:A7CEH         LINE#         1311
  C:A7CEH         LINE#         1313
  C:A7D7H         LINE#         1314
  C:A7EDH         LINE#         1317
  C:A7FDH         LINE#         1318
  C:A80FH         LINE#         1319
  C:A81DH         LINE#         1321
  C:A81FH         LINE#         1322
  -------         ENDPROC       _RESPUESTA_SEGUNDA_CLAVE
  -------         PROC          _RESPUESTA_PLACA_CANCEL
  X:0009H         SYMBOL        Atributos_Expedidor
  X:000CH         SYMBOL        Buffer_Write_MF
  -------         DO            
  X:000FH         SYMBOL        Estado_expedidor
  X:0010H         SYMBOL        Cancel
  -------         ENDDO         
  C:945AH         LINE#         1323
  C:9465H         LINE#         1324
  C:9465H         LINE#         1326
  C:9473H         LINE#         1327
  C:947CH         LINE#         1328
  C:9485H         LINE#         1329
  C:948EH         LINE#         1331
  C:94A9H         LINE#         1332
  C:94A9H         LINE#         1333
  C:94B9H         LINE#         1334
  C:94CCH         LINE#         1335
  C:94DAH         LINE#         1336
  C:94E0H         LINE#         1337
  C:94E2H         LINE#         1339
  C:94E2H         LINE#         1340
  C:94E8H         LINE#         1341
  C:94E8H         LINE#         1342
  C:94EBH         LINE#         1343
  C:94EDH         LINE#         1345
  C:94EDH         LINE#         1347
  C:94F0H         LINE#         1348
  C:94F0H         LINE#         1349
  C:94F0H         LINE#         1350
  C:94F5H         LINE#         1351
  -------         ENDPROC       _RESPUESTA_PLACA_CANCEL
  -------         PROC          _ARMAR_TRAMA_TARJETA_SECTOR1_BLOQUE1_CAMCEL
  X:0013H         SYMBOL        Buffer_Write_MF
  -------         DO            
  X:0016H         SYMBOL        ID_CLIENTE
  D:0007H         SYMBOL        COD_PARK
  -------         ENDDO         
  C:9319H         LINE#         1354
  C:9324H         LINE#         1355
BL51 BANKED LINKER/LOCATER V6.22.2.0                                                  11/11/2020  12:18:32  PAGE 115


  C:9324H         LINE#         1359
  C:9327H         LINE#         1360
  C:9334H         LINE#         1361
  C:933DH         LINE#         1363
  C:934DH         LINE#         1364
  C:935FH         LINE#         1365
  C:9366H         LINE#         1366
  C:9370H         LINE#         1367
  C:9377H         LINE#         1368
  C:937EH         LINE#         1369
  C:9385H         LINE#         1370
  C:938CH         LINE#         1371
  C:9393H         LINE#         1372
  C:939AH         LINE#         1373
  C:93A1H         LINE#         1374
  C:93A8H         LINE#         1375
  C:93AFH         LINE#         1376
  C:93B6H         LINE#         1377
  -------         ENDPROC       _ARMAR_TRAMA_TARJETA_SECTOR1_BLOQUE1_CAMCEL
  -------         PROC          _ARMAR_TRAMA_TARJETA_SECTOR1_BLOQUE2
  X:0010H         SYMBOL        Atributos_Expedidor
  X:0013H         SYMBOL        Buffer_Write_MF
  C:615AH         LINE#         1383
  C:6165H         LINE#         1384
  C:6165H         LINE#         1388
  C:6171H         LINE#         1392
  C:6183H         LINE#         1393
  C:618AH         LINE#         1394
  C:6191H         LINE#         1396
  C:61A6H         LINE#         1397
  C:61A6H         LINE#         1398
  C:61BDH         LINE#         1399
  C:61D6H         LINE#         1400
  C:61D6H         LINE#         1401
  C:61D9H         LINE#         1405
  C:61D9H         LINE#         1407
  C:6208H         LINE#         1408
  C:6237H         LINE#         1410
  C:624FH         LINE#         1411
  C:624FH         LINE#         1412
  C:625CH         LINE#         1413
  C:625EH         LINE#         1415
  C:625EH         LINE#         1416
  C:626EH         LINE#         1417
  C:626EH         LINE#         1418
  C:626EH         LINE#         1420
  C:6280H         LINE#         1421
  C:6287H         LINE#         1422
  C:628EH         LINE#         1423
  C:6295H         LINE#         1424
  -------         ENDPROC       _ARMAR_TRAMA_TARJETA_SECTOR1_BLOQUE2
  -------         PROC          _ARMAR_TRAMA_TARJETA_SECTOR1_BLOQUE0
  X:0009H         SYMBOL        Buffer_Write_MF
  C:B3C1H         LINE#         1426
  C:B3CCH         LINE#         1427
  C:B3CCH         LINE#         1429
  -------         ENDPROC       _ARMAR_TRAMA_TARJETA_SECTOR1_BLOQUE0
BL51 BANKED LINKER/LOCATER V6.22.2.0                                                  11/11/2020  12:18:32  PAGE 116


  -------         PROC          _ARMAR_TRAMA_PTO_PARALELO_EXPEDIDOR
  X:0006H         SYMBOL        h
  -------         DO            
  X:00BBH         SYMBOL        buffer
  X:0009H         SYMBOL        ticket
  X:0014H         SYMBOL        j
  -------         ENDDO         
  C:5726H         LINE#         1431
  C:5731H         LINE#         1432
  C:5731H         LINE#         1439
  C:5737H         LINE#         1440
  C:573BH         LINE#         1441
  C:573EH         LINE#         1442
  C:574AH         LINE#         1443
  C:5761H         LINE#         1444
  C:576FH         LINE#         1446
  C:5780H         LINE#         1448
  C:5790H         LINE#         1449
  C:57A2H         LINE#         1450
  C:57B0H         LINE#         1451
  C:57BEH         LINE#         1452
  C:57CCH         LINE#         1453
  C:57DAH         LINE#         1454
  C:57E7H         LINE#         1456
  C:57F6H         LINE#         1457
  C:57F6H         LINE#         1458
  C:57F9H         LINE#         1459
  C:57F9H         LINE#         1460
  C:580DH         LINE#         1461
  C:581CH         LINE#         1462
  C:582BH         LINE#         1463
  C:583AH         LINE#         1464
  C:5849H         LINE#         1465
  C:5858H         LINE#         1466
  C:5860H         LINE#         1467
  C:5862H         LINE#         1469
  C:5862H         LINE#         1470
  C:5873H         LINE#         1471
  C:587BH         LINE#         1472
  C:587BH         LINE#         1473
  C:587DH         LINE#         1475
  C:587DH         LINE#         1476
  C:588EH         LINE#         1477
  C:589AH         LINE#         1478
  C:589AH         LINE#         1479
  C:58A8H         LINE#         1480
  C:58B6H         LINE#         1481
  C:58C8H         LINE#         1483
  C:58CEH         LINE#         1484
  -------         ENDPROC       _ARMAR_TRAMA_PTO_PARALELO_EXPEDIDOR
  -------         PROC          _ARMAR_TRAMA_PTO_PARALELO_EXPEDIDOR_MENSUAL
  X:0006H         SYMBOL        Atributos_Expedidor
  X:0009H         SYMBOL        j
  -------         DO            
  X:00D7H         SYMBOL        buffer
  -------         ENDDO         
  C:8095H         LINE#         1485
BL51 BANKED LINKER/LOCATER V6.22.2.0                                                  11/11/2020  12:18:32  PAGE 117


  C:80A0H         LINE#         1486
  C:80A0H         LINE#         1492
  C:80A6H         LINE#         1493
  C:80AAH         LINE#         1494
  C:80BFH         LINE#         1495
  C:80C9H         LINE#         1496
  C:80D3H         LINE#         1497
  C:80DDH         LINE#         1500
  C:80E6H         LINE#         1501
  C:80EDH         LINE#         1502
  C:80F2H         LINE#         1503
  C:80F7H         LINE#         1504
  C:80FCH         LINE#         1505
  C:8101H         LINE#         1508
  C:810DH         LINE#         1509
  C:810DH         LINE#         1511
  C:8114H         LINE#         1512
  C:8118H         LINE#         1513
  C:811CH         LINE#         1514
  C:8120H         LINE#         1515
  C:8124H         LINE#         1516
  C:8128H         LINE#         1518
  C:8128H         LINE#         1520
  C:813EH         LINE#         1521
  C:813EH         LINE#         1522
  C:8141H         LINE#         1523
  C:8143H         LINE#         1525
  C:8143H         LINE#         1526
  C:8146H         LINE#         1527
  C:8146H         LINE#         1529
  C:814CH         LINE#         1530
  C:814FH         LINE#         1531
  C:815FH         LINE#         1532
  C:8165H         LINE#         1533
  -------         ENDPROC       _ARMAR_TRAMA_PTO_PARALELO_EXPEDIDOR_MENSUAL
  -------         PROC          _ARMAR_TRAMA_MONITOR
  X:0005H         SYMBOL        Atributos_Expedidor
  -------         DO            
  X:00F3H         SYMBOL        buffer
  X:0008H         SYMBOL        ticket
  X:0013H         SYMBOL        j
  -------         ENDDO         
  C:5EC1H         LINE#         1534
  C:5ECCH         LINE#         1535
  C:5ECCH         LINE#         1541
  C:5ED1H         LINE#         1542
  C:5ED7H         LINE#         1543
  C:5EDFH         LINE#         1544
  C:5EE3H         LINE#         1545
  C:5EECH         LINE#         1546
  C:5EECH         LINE#         1547
  C:5EEFH         LINE#         1548
  C:5EF1H         LINE#         1550
  C:5EF1H         LINE#         1551
  C:5EF4H         LINE#         1552
  C:5EF4H         LINE#         1555
  C:5EF7H         LINE#         1556
BL51 BANKED LINKER/LOCATER V6.22.2.0                                                  11/11/2020  12:18:32  PAGE 118


  C:5EF7H         LINE#         1557
  C:5EFCH         LINE#         1558
  C:5F08H         LINE#         1559
  C:5F1FH         LINE#         1560
  C:5F22H         LINE#         1562
  C:5F22H         LINE#         1563
  C:5F3DH         LINE#         1564
  C:5F4BH         LINE#         1565
  C:5F59H         LINE#         1566
  C:5F65H         LINE#         1567
  C:5F73H         LINE#         1568
  C:5FACH         LINE#         1570
  C:5FACH         LINE#         1571
  C:5FBAH         LINE#         1572
  C:5FC8H         LINE#         1575
  C:5FD5H         LINE#         1576
  C:5FE3H         LINE#         1578
  C:5FF1H         LINE#         1579
  C:5FFEH         LINE#         1580
  C:600AH         LINE#         1581
  C:600FH         LINE#         1582
  C:6014H         LINE#         1583
  -------         ENDPROC       _ARMAR_TRAMA_MONITOR
  -------         PROC          _ARMAR_TRAMA_PLACA
  X:0008H         SYMBOL        Buffer_Write_MF
  -------         DO            
  D:0006H         SYMBOL        j
  D:0007H         SYMBOL        len_placa
  -------         ENDDO         
  C:A820H         LINE#         1584
  C:A82BH         LINE#         1585
  C:A82BH         LINE#         1588
  C:A834H         LINE#         1589
  C:A83BH         LINE#         1590
  C:A83BH         LINE#         1591
  C:A855H         LINE#         1592
  C:A858H         LINE#         1593
  C:A864H         LINE#         1594
  C:A864H         LINE#         1595
  C:A878H         LINE#         1596
  C:A87BH         LINE#         1597
  -------         ENDPROC       _ARMAR_TRAMA_PLACA
  C:AFB7H         SYMBOL        L?0376
  -------         PROC          L?0375
  -------         ENDPROC       L?0375
  C:AFB7H         SYMBOL        L?0376
  -------         PROC          _LOAD_SECUENCIA_EXPEDIDOR
  D:0001H         SYMBOL        Secuencia_Expedidor
  D:0004H         SYMBOL        estadoactivo
  X:0007H         SYMBOL        estadoactual
  X:0009H         SYMBOL        estadofuturo
  C:AFD3H         LINE#         1598
  C:AFD3H         LINE#         1599
  C:AFD3H         LINE#         1600
  C:AFDAH         LINE#         1601
  C:AFE2H         LINE#         1602
  C:AFEDH         LINE#         1603
BL51 BANKED LINKER/LOCATER V6.22.2.0                                                  11/11/2020  12:18:32  PAGE 119


  C:AFF3H         LINE#         1604
  -------         ENDPROC       _LOAD_SECUENCIA_EXPEDIDOR
  -------         PROC          _DISPARO_LOCK_ENTRADA_VEHICULO
  X:0002H         SYMBOL        Nombre_Mensual
  -------         DO            
  X:0005H         SYMBOL        Estado_expedidor
  -------         ENDDO         
  C:A69DH         LINE#         1605
  C:A6A8H         LINE#         1606
  C:A6A8H         LINE#         1608
  C:A6B1H         LINE#         1610
  C:A6B6H         LINE#         1612
  C:A6BDH         LINE#         1613
  C:A6BDH         LINE#         1614
  C:A6C6H         LINE#         1615
  C:A6C8H         LINE#         1616
  C:A6CDH         LINE#         1617
  C:A6DDH         LINE#         1618
  C:A6E3H         LINE#         1621
  C:A6E5H         LINE#         1622
  C:A6ECH         LINE#         1623
  C:A6ECH         LINE#         1624
  C:A6F5H         LINE#         1625
  C:A6F5H         LINE#         1626
  C:A6F8H         LINE#         1627
  C:A6FAH         LINE#         1629
  C:A6FAH         LINE#         1630
  C:A6FDH         LINE#         1631
  C:A6FDH         LINE#         1633
  C:A6FDH         LINE#         1634
  C:A702H         LINE#         1635
  -------         ENDPROC       _DISPARO_LOCK_ENTRADA_VEHICULO
  -------         PROC          _SEND_PTO_PARALELO
  D:0001H         SYMBOL        Atributos_Expedidor
  -------         DO            
  X:0002H         SYMBOL        Trama_Expedidor
  X:0005H         SYMBOL        leng_trama_pto
  -------         ENDDO         
  C:9F12H         LINE#         1636
  C:9F12H         LINE#         1637
  C:9F12H         LINE#         1640
  C:9F15H         LINE#         1641
  C:9F15H         LINE#         1642
  C:9F31H         LINE#         1643
  C:9F33H         LINE#         1645
  C:9F33H         LINE#         1646
  C:9F47H         LINE#         1647
  C:9F4AH         LINE#         1648
  C:9F4AH         LINE#         1650
  C:9F5BH         LINE#         1651
  C:9F64H         LINE#         1652
  C:9F7AH         LINE#         1653
  C:9F83H         LINE#         1656
  C:9F86H         LINE#         1657
  C:9F8CH         LINE#         1658
  C:9F91H         LINE#         1659
  C:9F93H         LINE#         1660
BL51 BANKED LINKER/LOCATER V6.22.2.0                                                  11/11/2020  12:18:32  PAGE 120


  -------         ENDPROC       _SEND_PTO_PARALELO
  -------         PROC          ENTREGA_CARD_CAPTURA
  -------         DO            
  X:0002H         SYMBOL        Estado_expedidor
  -------         ENDDO         
  C:A389H         LINE#         1664
  C:A389H         LINE#         1665
  C:A389H         LINE#         1669
  C:A392H         LINE#         1670
  C:A395H         LINE#         1671
  C:A398H         LINE#         1672
  C:A398H         LINE#         1673
  C:A3A2H         LINE#         1674
  C:A3A2H         LINE#         1675
  C:A3A4H         LINE#         1676
  C:A3ADH         LINE#         1677
  C:A3ADH         LINE#         1678
  C:A3ADH         LINE#         1680
  C:A3AFH         LINE#         1682
  C:A3AFH         LINE#         1683
  C:A3B5H         LINE#         1684
  C:A3B5H         LINE#         1686
  C:A3BBH         LINE#         1688
  C:A3CEH         LINE#         1689
  C:A3CEH         LINE#         1690
  C:A3DEH         LINE#         1691
  C:A3DEH         LINE#         1692
  C:A3E0H         LINE#         1693
  C:A3E0H         LINE#         1694
  C:A3E2H         LINE#         1695
  C:A3EDH         LINE#         1696
  C:A3EDH         LINE#         1697
  C:A3F3H         LINE#         1698
  C:A3F3H         LINE#         1699
  C:A3F3H         LINE#         1701
  C:A3F5H         LINE#         1703
  C:A3F5H         LINE#         1704
  C:A3F7H         LINE#         1705
  C:A3FCH         LINE#         1706
  C:A3FCH         LINE#         1707
  C:A3FCH         LINE#         1709
  C:A401H         LINE#         1710
  -------         ENDPROC       ENTREGA_CARD_CAPTURA
  -------         PROC          _WAIT_PLACA
  X:0002H         SYMBOL        Atributos_Expedidor
  X:0005H         SYMBOL        Buffer_Write_MF
  -------         DO            
  X:0008H         SYMBOL        Estado_expedidor
  -------         ENDDO         
  C:8E66H         LINE#         1711
  C:8E71H         LINE#         1712
  C:8E71H         LINE#         1715
  C:8E7AH         LINE#         1717
  C:8E90H         LINE#         1718
  C:8E90H         LINE#         1719
  C:8E93H         LINE#         1720
  C:8E93H         LINE#         1722
BL51 BANKED LINKER/LOCATER V6.22.2.0                                                  11/11/2020  12:18:32  PAGE 121


  C:8E96H         LINE#         1723
  C:8E96H         LINE#         1724
  C:8E98H         LINE#         1726
  C:8E9BH         LINE#         1727
  C:8E9BH         LINE#         1728
  C:8EC3H         LINE#         1729
  C:8EC5H         LINE#         1732
  C:8EC5H         LINE#         1733
  C:8ECBH         LINE#         1734
  C:8EDEH         LINE#         1735
  C:8EDEH         LINE#         1736
  C:8EEBH         LINE#         1737
  C:8EEBH         LINE#         1738
  C:8EFAH         LINE#         1739
  C:8F00H         LINE#         1740
  C:8F02H         LINE#         1741
  C:8F0FH         LINE#         1742
  C:8F0FH         LINE#         1743
  C:8F15H         LINE#         1744
  C:8F15H         LINE#         1745
  C:8F15H         LINE#         1746
  C:8F15H         LINE#         1747
  C:8F1AH         LINE#         1748
  -------         ENDPROC       _WAIT_PLACA
  -------         PROC          _VALIDA_VEHICULO_CARD_MENSUAL
  X:0010H         SYMBOL        Atributos_Expedidor
  -------         DO            
  X:0013H         SYMBOL        Estado_expedidor
  -------         ENDDO         
  C:975CH         LINE#         1749
  C:9767H         LINE#         1750
  C:9767H         LINE#         1753
  C:9770H         LINE#         1754
  C:9785H         LINE#         1755
  C:9785H         LINE#         1756
  C:9789H         LINE#         1757
  C:978BH         LINE#         1759
  C:978BH         LINE#         1760
  C:9792H         LINE#         1761
  C:9792H         LINE#         1763
  C:979BH         LINE#         1764
  C:97A9H         LINE#         1765
  C:97A9H         LINE#         1766
  C:97C2H         LINE#         1767
  C:97C2H         LINE#         1768
  C:97C8H         LINE#         1769
  C:97C8H         LINE#         1770
  C:97CAH         LINE#         1773
  C:97CAH         LINE#         1774
  C:97CFH         LINE#         1775
  C:97D8H         LINE#         1776
  C:97DDH         LINE#         1777
  C:97DDH         LINE#         1778
  C:97DFH         LINE#         1780
  C:97DFH         LINE#         1781
  C:97E8H         LINE#         1782
  C:97EEH         LINE#         1783
BL51 BANKED LINKER/LOCATER V6.22.2.0                                                  11/11/2020  12:18:32  PAGE 122


  C:97EEH         LINE#         1784
  C:97F3H         LINE#         1785
  -------         ENDPROC       _VALIDA_VEHICULO_CARD_MENSUAL
  -------         PROC          _TARJETA_MENSUAL
  X:0009H         SYMBOL        Atributos_Expedidor
  X:000CH         SYMBOL        Buffer_Write_MF
  -------         DO            
  X:000FH         SYMBOL        Estado_expedidor
  -------         ENDDO         
  C:86F5H         LINE#         1786
  C:8700H         LINE#         1787
  C:8700H         LINE#         1792
  C:870BH         LINE#         1793
  C:870BH         LINE#         1794
  C:8729H         LINE#         1795
  C:8729H         LINE#         1797
  C:873AH         LINE#         1798
  C:873AH         LINE#         1799
  C:8742H         LINE#         1800
  C:8744H         LINE#         1802
  C:8744H         LINE#         1803
  C:874DH         LINE#         1804
  C:875DH         LINE#         1805
  C:8770H         LINE#         1806
  C:8790H         LINE#         1807
  C:8796H         LINE#         1808
  C:8796H         LINE#         1809
  C:8798H         LINE#         1811
  C:8798H         LINE#         1812
  C:879DH         LINE#         1814
  C:87A2H         LINE#         1815
  C:87ABH         LINE#         1816
  C:87ABH         LINE#         1817
  C:87ABH         LINE#         1818
  C:87ADH         LINE#         1820
  C:87ADH         LINE#         1822
  C:87B3H         LINE#         1823
  C:87B3H         LINE#         1824
  C:87B8H         LINE#         1825
  -------         ENDPROC       _TARJETA_MENSUAL
  -------         PROC          _TARJETA_ROTACION
  D:0001H         SYMBOL        Atributos_Expedidor
  X:000CH         SYMBOL        Buffer_Write_MF
  C:B28CH         LINE#         1826
  C:B28CH         LINE#         1827
  C:B28CH         LINE#         1828
  C:B291H         LINE#         1829
  C:B29AH         LINE#         1830
  C:B2BAH         LINE#         1831
  C:B2BCH         LINE#         1834
  -------         ENDPROC       _TARJETA_ROTACION
  -------         PROC          _VALIDA_TIPO_TARJETA
  X:0002H         SYMBOL        Atributos_Expedidor
  X:0005H         SYMBOL        Buffer_Write_MF
  -------         DO            
  X:0008H         SYMBOL        Estado_expedidor
  -------         ENDDO         
BL51 BANKED LINKER/LOCATER V6.22.2.0                                                  11/11/2020  12:18:32  PAGE 123


  C:58CFH         LINE#         1835
  C:58DAH         LINE#         1836
  C:58DAH         LINE#         1838
  C:58E7H         LINE#         1839
  C:58E7H         LINE#         1840
  C:58F0H         LINE#         1841
  C:58F6H         LINE#         1842
  C:58F6H         LINE#         1846
  C:5904H         LINE#         1847
  C:5904H         LINE#         1850
  C:5921H         LINE#         1851
  C:5921H         LINE#         1852
  C:593EH         LINE#         1854
  C:5940H         LINE#         1856
  C:5940H         LINE#         1857
  C:5949H         LINE#         1858
  C:594BH         LINE#         1859
  C:594BH         LINE#         1860
  C:594BH         LINE#         1861
  C:594EH         LINE#         1864
  C:594EH         LINE#         1865
  C:5957H         LINE#         1867
  C:597AH         LINE#         1868
  C:597AH         LINE#         1869
  C:597DH         LINE#         1871
  C:597DH         LINE#         1872
  C:5982H         LINE#         1873
  C:5987H         LINE#         1874
  C:598AH         LINE#         1875
  C:598AH         LINE#         1876
  C:598DH         LINE#         1877
  C:59A5H         LINE#         1878
  C:59A5H         LINE#         1880
  C:59AEH         LINE#         1881
  C:59B4H         LINE#         1882
  C:59B4H         LINE#         1883
  C:59C0H         LINE#         1884
  C:59C0H         LINE#         1885
  C:59DDH         LINE#         1887
  C:59DDH         LINE#         1888
  C:59FDH         LINE#         1889
  C:59FFH         LINE#         1891
  C:59FFH         LINE#         1892
  C:5A08H         LINE#         1893
  C:5A0DH         LINE#         1894
  C:5A12H         LINE#         1895
  C:5A15H         LINE#         1896
  C:5A15H         LINE#         1897
  C:5A17H         LINE#         1899
  C:5A17H         LINE#         1900
  C:5A20H         LINE#         1901
  C:5A43H         LINE#         1902
  C:5A43H         LINE#         1903
  C:5A45H         LINE#         1905
  C:5A45H         LINE#         1907
  C:5A4AH         LINE#         1908
  C:5A4FH         LINE#         1909
BL51 BANKED LINKER/LOCATER V6.22.2.0                                                  11/11/2020  12:18:32  PAGE 124


  C:5A55H         LINE#         1910
  C:5A55H         LINE#         1911
  C:5A57H         LINE#         1913
  C:5A57H         LINE#         1914
  C:5A60H         LINE#         1915
  C:5A65H         LINE#         1917
  C:5A6DH         LINE#         1918
  C:5A6DH         LINE#         1920
  C:5A72H         LINE#         1921
  -------         ENDPROC       _VALIDA_TIPO_TARJETA
  -------         PROC          _HORARIOS
  X:0010H         SYMBOL        Atributos_Expedidor
  -------         DO            
  X:0013H         SYMBOL        Estado_Horario
  X:0014H         SYMBOL        Addr_horarios
  X:001FH         SYMBOL        dia_semana
  X:0020H         SYMBOL        EE_dia_semana
  X:0021H         SYMBOL        addr
  -------         ENDDO         
  C:6F6EH         LINE#         2015
  C:6F79H         LINE#         2016
  C:6F79H         LINE#         2022
  C:6F84H         LINE#         2023
  C:6F84H         LINE#         2025
  C:6F90H         LINE#         2027
  C:6FB6H         LINE#         2031
  C:6FC9H         LINE#         2032
  C:6FC9H         LINE#         2034
  C:6FD3H         LINE#         2035
  C:6FDCH         LINE#         2036
  C:6FE4H         LINE#         2037
  C:6FEDH         LINE#         2040
  C:7012H         LINE#         2041
  C:701BH         LINE#         2042
  C:7023H         LINE#         2043
  C:702CH         LINE#         2045
  C:7036H         LINE#         2046
  C:7036H         LINE#         2048
  C:7044H         LINE#         2049
  C:7046H         LINE#         2051
  C:7046H         LINE#         2053
  C:704FH         LINE#         2054
  C:7054H         LINE#         2055
  C:7054H         LINE#         2056
  C:7056H         LINE#         2058
  C:7056H         LINE#         2060
  C:705BH         LINE#         2061
  C:7060H         LINE#         2062
  C:7066H         LINE#         2064
  C:7066H         LINE#         2066
  C:7068H         LINE#         2068
  C:7068H         LINE#         2069
  C:706EH         LINE#         2071
  C:7077H         LINE#         2072
  C:7077H         LINE#         2073
  C:707CH         LINE#         2074
  -------         ENDPROC       _HORARIOS
BL51 BANKED LINKER/LOCATER V6.22.2.0                                                  11/11/2020  12:18:32  PAGE 125


  -------         PROC          _HORA_MAXIMA
  X:002FH         SYMBOL        addr
  -------         DO            
  X:0031H         SYMBOL        Hora_High
  X:0032H         SYMBOL        Minuto_High
  X:0033H         SYMBOL        HoraIni
  X:0034H         SYMBOL        MinutoIni
  X:0035H         SYMBOL        Hora_Prog
  -------         ENDDO         
  C:8FCFH         LINE#         2075
  C:8FD7H         LINE#         2076
  C:8FD7H         LINE#         2081
  C:8FECH         LINE#         2082
  C:900CH         LINE#         2083
  C:9029H         LINE#         2084
  C:9049H         LINE#         2085
  C:9051H         LINE#         2086
  C:9059H         LINE#         2087
  C:9062H         LINE#         2089
  C:907AH         LINE#         2090
  -------         ENDPROC       _HORA_MAXIMA
  -------         PROC          _EN_HORARIO
  X:002AH         SYMBOL        HoraNow
  D:0004H         SYMBOL        Hora_Prog
  X:002CH         SYMBOL        addr
  -------         DO            
  X:002EH         SYMBOL        Estado_Horario
  -------         ENDDO         
  C:A4ECH         LINE#         2091
  C:A4FAH         LINE#         2092
  C:A4FAH         LINE#         2095
  C:A507H         LINE#         2096
  C:A507H         LINE#         2099
  C:A510H         LINE#         2100
  C:A525H         LINE#         2103
  C:A534H         LINE#         2104
  C:A534H         LINE#         2106
  C:A53BH         LINE#         2107
  C:A541H         LINE#         2108
  C:A543H         LINE#         2110
  C:A543H         LINE#         2113
  C:A547H         LINE#         2114
  C:A547H         LINE#         2115
  C:A547H         LINE#         2117
  C:A549H         LINE#         2119
  C:A549H         LINE#         2122
  C:A552H         LINE#         2123
  C:A557H         LINE#         2125
  C:A557H         LINE#         2126
  C:A55CH         LINE#         2127
  -------         ENDPROC       _EN_HORARIO
  -------         PROC          _BLOQUE_HORARIO
  X:0023H         SYMBOL        addr
  -------         DO            
  X:0025H         SYMBOL        Estado_Horario
  X:0026H         SYMBOL        HoraNow
  X:0028H         SYMBOL        Hora_Prog
BL51 BANKED LINKER/LOCATER V6.22.2.0                                                  11/11/2020  12:18:32  PAGE 126


  -------         ENDDO         
  C:7189H         LINE#         2129
  C:7191H         LINE#         2130
  C:7191H         LINE#         2136
  C:719AH         LINE#         2137
  C:71A2H         LINE#         2138
  C:71AAH         LINE#         2139
  C:71B3H         LINE#         2140
  C:71E1H         LINE#         2145
  C:71EAH         LINE#         2146
  C:71FFH         LINE#         2147
  C:7217H         LINE#         2148
  C:7219H         LINE#         2149
  C:7219H         LINE#         2152
  C:7231H         LINE#         2153
  C:7231H         LINE#         2154
  C:723AH         LINE#         2155
  C:7255H         LINE#         2156
  C:7273H         LINE#         2157
  C:7275H         LINE#         2159
  C:7275H         LINE#         2160
  C:727AH         LINE#         2161
  C:727FH         LINE#         2162
  C:7284H         LINE#         2163
  C:7284H         LINE#         2164
  C:7284H         LINE#         2166
  C:728BH         LINE#         2167
  -------         ENDPROC       _BLOQUE_HORARIO
  -------         PROC          SECUENCIA_INICIO_EXPEDIDOR
  -------         DO            
  X:0001H         SYMBOL        temp
  -------         ENDDO         
  C:6519H         LINE#         2176
  C:6519H         LINE#         2177
  C:6519H         LINE#         2179
  C:6539H         LINE#         2180
  C:6539H         LINE#         2181
  C:6539H         LINE#         2184
  C:653EH         LINE#         2185
  C:6544H         LINE#         2188
  C:6546H         LINE#         2189
  C:6546H         LINE#         2200
  C:6546H         LINE#         2202
  C:6554H         LINE#         2203
  C:6554H         LINE#         2204
  C:6560H         LINE#         2205
  C:6560H         LINE#         2206
  C:6566H         LINE#         2207
  C:6569H         LINE#         2208
  C:6571H         LINE#         2209
  C:6571H         LINE#         2210
  C:6578H         LINE#         2211
  C:658CH         LINE#         2212
  C:658CH         LINE#         2213
  C:658EH         LINE#         2215
  C:658EH         LINE#         2216
  C:6595H         LINE#         2217
BL51 BANKED LINKER/LOCATER V6.22.2.0                                                  11/11/2020  12:18:32  PAGE 127


  C:659BH         LINE#         2218
  C:659BH         LINE#         2219
  C:659EH         LINE#         2221
  C:659EH         LINE#         2222
  C:65A7H         LINE#         2223
  C:65BBH         LINE#         2224
  C:65C1H         LINE#         2225
  C:65C1H         LINE#         2226
  C:65C4H         LINE#         2227
  C:65C4H         LINE#         2233
  C:65C4H         LINE#         2235
  C:65C7H         LINE#         2236
  C:65CDH         LINE#         2240
  C:65CFH         LINE#         2241
  C:65CFH         LINE#         2251
  C:65CFH         LINE#         2253
  C:65DDH         LINE#         2254
  C:65DDH         LINE#         2255
  C:65E9H         LINE#         2256
  C:65E9H         LINE#         2257
  C:65EFH         LINE#         2258
  C:65F1H         LINE#         2259
  C:65F9H         LINE#         2260
  C:65F9H         LINE#         2261
  C:6600H         LINE#         2262
  C:6614H         LINE#         2263
  C:6614H         LINE#         2264
  C:6616H         LINE#         2266
  C:6616H         LINE#         2267
  C:661DH         LINE#         2268
  C:6623H         LINE#         2269
  C:6623H         LINE#         2270
  C:6625H         LINE#         2272
  C:6625H         LINE#         2273
  C:662EH         LINE#         2274
  C:6642H         LINE#         2275
  C:6647H         LINE#         2276
  C:6647H         LINE#         2278
  C:6649H         LINE#         2279
  C:6649H         LINE#         2285
  C:6649H         LINE#         2287
  C:664FH         LINE#         2288
  C:664FH         LINE#         2291
  C:664FH         LINE#         2292
  C:6656H         LINE#         2293
  C:6656H         LINE#         2294
  C:6656H         LINE#         2295
  -------         ENDPROC       SECUENCIA_INICIO_EXPEDIDOR
  -------         PROC          _SECUENCIAEXPEDIDORMF
  X:0001H         SYMBOL        EstadoActivo
  -------         DO            
  X:010BH         SYMBOL        Buffer_Write_MF
  X:011CH         SYMBOL        Atributos_Expedidor
  X:012BH         SYMBOL        Secuencia_Expedidor
  X:012FH         SYMBOL        Nombre_Mensual
  -------         ENDDO         
  C:3829H         LINE#         2305
BL51 BANKED LINKER/LOCATER V6.22.2.0                                                  11/11/2020  12:18:32  PAGE 128


  C:382EH         LINE#         2306
  C:382EH         LINE#         2312
  C:388BH         LINE#         2313
  C:388BH         LINE#         2316
  C:388BH         LINE#         2318
  C:38A1H         LINE#         2319
  C:38A1H         LINE#         2320
  C:38A3H         LINE#         2321
  C:38A5H         LINE#         2322
  C:38AAH         LINE#         2323
  C:38B2H         LINE#         2324
  C:38B7H         LINE#         2325
  C:38B7H         LINE#         2326
  C:38BAH         LINE#         2327
  C:38BAH         LINE#         2329
  C:38C3H         LINE#         2330
  C:38C6H         LINE#         2331
  C:38C6H         LINE#         2332
  C:38CBH         LINE#         2333
  C:38EBH         LINE#         2334
  C:38EEH         LINE#         2335
  C:38EEH         LINE#         2336
  C:38F3H         LINE#         2337
  C:38FBH         LINE#         2338
  C:3901H         LINE#         2339
  C:3904H         LINE#         2340
  C:3904H         LINE#         2341
  C:3907H         LINE#         2342
  C:390FH         LINE#         2343
  C:3915H         LINE#         2344
  C:3918H         LINE#         2345
  C:3918H         LINE#         2346
  C:391BH         LINE#         2347
  C:3940H         LINE#         2348
  C:3946H         LINE#         2349
  C:3948H         LINE#         2350
  C:394BH         LINE#         2351
  C:394BH         LINE#         2352
  C:3956H         LINE#         2353
  C:395EH         LINE#         2354
  C:3964H         LINE#         2355
  C:3967H         LINE#         2356
  C:3967H         LINE#         2357
  C:3978H         LINE#         2358
  C:3980H         LINE#         2359
  C:3986H         LINE#         2360
  C:3989H         LINE#         2361
  C:3989H         LINE#         2362
  C:398EH         LINE#         2363
  C:39ACH         LINE#         2364
  C:39AFH         LINE#         2365
  C:39AFH         LINE#         2366
  C:39B4H         LINE#         2367
  C:39D4H         LINE#         2368
  C:39D7H         LINE#         2369
  C:39D7H         LINE#         2370
  C:39DCH         LINE#         2371
BL51 BANKED LINKER/LOCATER V6.22.2.0                                                  11/11/2020  12:18:32  PAGE 129


  C:39DEH         LINE#         2372
  C:39FCH         LINE#         2373
  C:39FFH         LINE#         2374
  C:39FFH         LINE#         2375
  C:3A04H         LINE#         2376
  C:3A24H         LINE#         2377
  C:3A27H         LINE#         2378
  C:3A27H         LINE#         2379
  C:3A2CH         LINE#         2380
  C:3A34H         LINE#         2381
  C:3A3AH         LINE#         2382
  C:3A3DH         LINE#         2383
  C:3A3DH         LINE#         2384
  C:3A40H         LINE#         2385
  C:3A60H         LINE#         2386
  C:3A63H         LINE#         2387
  C:3A63H         LINE#         2388
  C:3A65H         LINE#         2389
  C:3A68H         LINE#         2390
  C:3A6BH         LINE#         2391
  C:3A6BH         LINE#         2392
  C:3A74H         LINE#         2394
  C:3A77H         LINE#         2395
  C:3A77H         LINE#         2396
  C:3A8EH         LINE#         2397
  C:3A91H         LINE#         2398
  C:3A91H         LINE#         2399
  C:3A94H         LINE#         2400
  C:3A9CH         LINE#         2401
  C:3AA2H         LINE#         2402
  C:3AA5H         LINE#         2403
  C:3AA5H         LINE#         2404
  C:3AAEH         LINE#         2405
  C:3AB1H         LINE#         2406
  C:3AB1H         LINE#         2407
  C:3AB4H         LINE#         2408
  C:3AB7H         LINE#         2409
  C:3AB7H         LINE#         2410
  C:3ACEH         LINE#         2411
  C:3AD1H         LINE#         2412
  C:3AD1H         LINE#         2413
  C:3AD6H         LINE#         2414
  C:3ADEH         LINE#         2415
  C:3AE4H         LINE#         2416
  C:3AE7H         LINE#         2417
  C:3AE7H         LINE#         2418
  C:3AEAH         LINE#         2419
  C:3B0AH         LINE#         2420
  C:3B0DH         LINE#         2421
  C:3B0DH         LINE#         2422
  C:3B10H         LINE#         2423
  C:3B30H         LINE#         2424
  C:3B33H         LINE#         2425
  C:3B33H         LINE#         2426
  C:3B36H         LINE#         2427
  C:3B3EH         LINE#         2428
  C:3B44H         LINE#         2429
BL51 BANKED LINKER/LOCATER V6.22.2.0                                                  11/11/2020  12:18:32  PAGE 130


  C:3B47H         LINE#         2433
  C:3B47H         LINE#         2434
  C:3B4DH         LINE#         2435
  C:3B53H         LINE#         2436
  C:3B53H         LINE#         2437
  C:3B5BH         LINE#         2438
  C:3B61H         LINE#         2440
  C:3B64H         LINE#         2441
  C:3B6CH         LINE#         2442
  C:3B6CH         LINE#         2444
  C:3B6FH         LINE#         2445
  C:3B72H         LINE#         2446
  C:3B7AH         LINE#         2447
  C:3B7AH         LINE#         2448
  C:3B88H         LINE#         2449
  C:3B88H         LINE#         2450
  C:3B91H         LINE#         2451
  C:3B94H         LINE#         2452
  C:3BA0H         LINE#         2453
  C:3BA0H         LINE#         2454
  C:3BA9H         LINE#         2455
  C:3BACH         LINE#         2457
  C:3BACH         LINE#         2458
  C:3BB5H         LINE#         2459
  C:3BB5H         LINE#         2460
  C:3BB8H         LINE#         2461
  C:3BC0H         LINE#         2462
  C:3BC0H         LINE#         2463
  C:3BCEH         LINE#         2464
  C:3BCEH         LINE#         2465
  C:3BE4H         LINE#         2466
  C:3BE7H         LINE#         2467
  C:3BF3H         LINE#         2468
  C:3BF3H         LINE#         2469
  C:3BFCH         LINE#         2470
  C:3BFFH         LINE#         2471
  C:3C0DH         LINE#         2472
  C:3C0DH         LINE#         2473
  C:3C16H         LINE#         2474
  C:3C18H         LINE#         2476
  C:3C18H         LINE#         2477
  C:3C21H         LINE#         2478
  C:3C21H         LINE#         2479
  C:3C23H         LINE#         2480
  C:3C2BH         LINE#         2481
  C:3C2BH         LINE#         2482
  C:3C34H         LINE#         2483
  C:3C36H         LINE#         2484
  C:3C3EH         LINE#         2485
  C:3C3EH         LINE#         2486
  C:3C54H         LINE#         2487
  C:3C56H         LINE#         2488
  C:3C5EH         LINE#         2489
  C:3C5EH         LINE#         2490
  C:3C61H         LINE#         2491
  C:3C63H         LINE#         2493
  C:3C6BH         LINE#         2494
BL51 BANKED LINKER/LOCATER V6.22.2.0                                                  11/11/2020  12:18:32  PAGE 131


  C:3C6BH         LINE#         2495
  C:3C74H         LINE#         2496
  C:3C76H         LINE#         2499
  C:3C7EH         LINE#         2500
  C:3C7EH         LINE#         2501
  C:3C86H         LINE#         2502
  C:3C88H         LINE#         2504
  C:3C88H         LINE#         2505
  C:3C91H         LINE#         2506
  C:3C91H         LINE#         2507
  C:3C93H         LINE#         2508
  C:3C93H         LINE#         2509
  C:3C98H         LINE#         2510
  C:3C98H         LINE#         2512
  C:3C98H         LINE#         2513
  C:3C9DH         LINE#         2514
  -------         ENDPROC       _SECUENCIAEXPEDIDORMF
  -------         ENDMOD        VERIFICADOR

  -------         MODULE        MONITOR
  C:0000H         SYMBOL        _ICE_DUMMY_
  D:0080H         PUBLIC        P0
  D:0090H         PUBLIC        P1
  I:0011H         PUBLIC        placa
  C:B45CH         PUBLIC        Rx_Monitor
  B:0080H.0       PUBLIC        rx_ip
  B:0090H.7       PUBLIC        lock
  C:893EH         PUBLIC        _recibe_cmd_Monitor
  C:B57EH         PUBLIC        clear_placa
  C:9274H         PUBLIC        _Valida_Trama_Monitor
  -------         PROC          _RECIBE_CMD_MONITOR
  X:0016H         SYMBOL        buffer_cmd
  -------         DO            
  X:0019H         SYMBOL        j
  X:001AH         SYMBOL        NumDatos
  X:001BH         SYMBOL        time_out
  X:001CH         SYMBOL        MaxChrRx
  X:001DH         SYMBOL        contador
  -------         ENDDO         
  C:893EH         LINE#         44
  C:8949H         LINE#         45
  C:8949H         LINE#         49
  C:894EH         LINE#         50
  C:8954H         LINE#         52
  C:895FH         LINE#         53
  C:895FH         LINE#         54
  C:8970H         LINE#         55
  C:8970H         LINE#         56
  C:8977H         LINE#         57
  C:897BH         LINE#         58
  C:8984H         LINE#         59
  C:8984H         LINE#         60
  C:8992H         LINE#         61
  C:89A9H         LINE#         62
  C:89A9H         LINE#         63
  C:89AFH         LINE#         64
  C:89B5H         LINE#         65
BL51 BANKED LINKER/LOCATER V6.22.2.0                                                  11/11/2020  12:18:32  PAGE 132


  C:89B5H         LINE#         66
  C:89B7H         LINE#         67
  C:89BFH         LINE#         68
  C:89C5H         LINE#         69
  C:89D7H         LINE#         70
  C:89E1H         LINE#         71
  C:89EAH         LINE#         73
  C:89F9H         LINE#         76
  C:89F9H         LINE#         77
  C:89FEH         LINE#         78
  -------         ENDPROC       _RECIBE_CMD_MONITOR
  -------         PROC          _VALIDA_TRAMA_MONITOR
  X:0016H         SYMBOL        buffer
  X:0019H         SYMBOL        length_trama
  -------         DO            
  D:0007H         SYMBOL        j
  D:0006H         SYMBOL        p
  X:001AH         SYMBOL        cont
  -------         ENDDO         
  C:9274H         LINE#         83
  C:9282H         LINE#         84
  C:9282H         LINE#         85
  C:9284H         LINE#         86
  C:9286H         LINE#         87
  C:9288H         LINE#         88
  C:928DH         LINE#         91
  C:92B3H         LINE#         92
  C:92B3H         LINE#         93
  C:92B5H         LINE#         94
  C:92B9H         LINE#         95
  C:92BAH         LINE#         97
  C:92CAH         LINE#         98
  C:92CAH         LINE#         101
  C:92CAH         LINE#         102
  C:92E4H         LINE#         103
  C:92E5H         LINE#         104
  C:92E6H         LINE#         105
  C:92F6H         LINE#         106
  C:930AH         LINE#         107
  C:9310H         LINE#         108
  C:9312H         LINE#         109
  C:9318H         LINE#         112
  C:9318H         LINE#         115
  -------         ENDPROC       _VALIDA_TRAMA_MONITOR
  -------         PROC          CLEAR_PLACA
  -------         DO            
  D:0007H         SYMBOL        i
  -------         ENDDO         
  C:B57EH         LINE#         116
  C:B57EH         LINE#         117
  C:B57EH         LINE#         119
  C:B58AH         LINE#         120
  C:B58AH         LINE#         121
  C:B590H         LINE#         122
  C:B593H         LINE#         123
  C:B595H         LINE#         124
  -------         ENDPROC       CLEAR_PLACA
BL51 BANKED LINKER/LOCATER V6.22.2.0                                                  11/11/2020  12:18:32  PAGE 133


  -------         PROC          RX_MONITOR
  -------         DO            
  X:0009H         SYMBOL        Length_trama
  X:000AH         SYMBOL        buffer1
  -------         ENDDO         
  C:B45CH         LINE#         125
  C:B45CH         LINE#         126
  C:B45CH         LINE#         129
  C:B46BH         LINE#         130
  C:B474H         LINE#         131
  -------         ENDPROC       RX_MONITOR
  -------         ENDMOD        MONITOR

  -------         MODULE        ?C?FPADD
  C:1335H         PUBLIC        ?C?FPADD
  C:1331H         PUBLIC        ?C?FPSUB
  -------         ENDMOD        ?C?FPADD

  -------         MODULE        ?C?FPMUL
  C:1426H         PUBLIC        ?C?FPMUL
  -------         ENDMOD        ?C?FPMUL

  -------         MODULE        ?C?FCAST
  C:1536H         PUBLIC        ?C?FCASTC
  C:1531H         PUBLIC        ?C?FCASTI
  C:152CH         PUBLIC        ?C?FCASTL
  -------         ENDMOD        ?C?FCAST

  -------         MODULE        ?C?CASTF
  C:156AH         PUBLIC        ?C?CASTF
  -------         ENDMOD        ?C?CASTF

  -------         MODULE        PRINTF
  X:0077H         PUBLIC        ?_PRINTF?BYTE
  X:0077H         PUBLIC        ?_SPRINTF?BYTE
  C:3411H         PUBLIC        _PRINTF
  C:340BH         PUBLIC        _SPRINTF
  -------         ENDMOD        PRINTF

  -------         MODULE        POW
  X:0020H         PUBLIC        ?_pow?BYTE
  C:5D5BH         PUBLIC        _pow
  -------         ENDMOD        POW

  -------         MODULE        ?C?CHKFLOAT
  C:15EBH         PUBLIC        ?C?CHKFLOAT
  -------         ENDMOD        ?C?CHKFLOAT

  -------         MODULE        ?C?FPCMP
  C:1607H         PUBLIC        ?C?FPCMP
  C:1605H         PUBLIC        ?C?FPCMP3
  -------         ENDMOD        ?C?FPCMP

  -------         MODULE        ?C?FPNEG
  C:167EH         PUBLIC        ?C?FPNEG
  -------         ENDMOD        ?C?FPNEG

BL51 BANKED LINKER/LOCATER V6.22.2.0                                                  11/11/2020  12:18:32  PAGE 134


  -------         MODULE        ?C?FPROUND
  C:168FH         PUBLIC        ?C?FPROUND
  -------         ENDMOD        ?C?FPROUND

  -------         MODULE        ?C?FPCONVERT
  C:16CCH         PUBLIC        ?C?FPCONVERT
  -------         ENDMOD        ?C?FPCONVERT

  -------         MODULE        EXP
  C:95C8H         PUBLIC        _EXP
  -------         ENDMOD        EXP

  -------         MODULE        LOG
  C:68EDH         PUBLIC        _LOG
  C:68E9H         PUBLIC        _LOG10
  -------         ENDMOD        LOG

  -------         MODULE        ?C?FPDIV
  C:17D4H         PUBLIC        ?C?FPDIV
  -------         ENDMOD        ?C?FPDIV

  -------         MODULE        ?C?FTNPWR
  C:18A1H         PUBLIC        ?C?FTNPWR
  -------         ENDMOD        ?C?FTNPWR

  -------         MODULE        ?C?COPY
  C:19FEH         PUBLIC        ?C?COPY
  -------         ENDMOD        ?C?COPY

  -------         MODULE        ?C?CLDPTR
  C:1A24H         PUBLIC        ?C?CLDPTR
  -------         ENDMOD        ?C?CLDPTR

  -------         MODULE        ?C?CLDOPTR
  C:1A3DH         PUBLIC        ?C?CLDOPTR
  -------         ENDMOD        ?C?CLDOPTR

  -------         MODULE        ?C?CSTPTR
  C:1A6AH         PUBLIC        ?C?CSTPTR
  -------         ENDMOD        ?C?CSTPTR

  -------         MODULE        ?C?CSTOPTR
  C:1A7CH         PUBLIC        ?C?CSTOPTR
  -------         ENDMOD        ?C?CSTOPTR

  -------         MODULE        ?C?IMUL
  C:1A9EH         PUBLIC        ?C?IMUL
  -------         ENDMOD        ?C?IMUL

  -------         MODULE        ?C?IILDX
  C:1AB0H         PUBLIC        ?C?IILDX
  -------         ENDMOD        ?C?IILDX

  -------         MODULE        ?C?LNEG
  C:1AC6H         PUBLIC        ?C?LNEG
  -------         ENDMOD        ?C?LNEG

BL51 BANKED LINKER/LOCATER V6.22.2.0                                                  11/11/2020  12:18:32  PAGE 135


  -------         MODULE        ?C?SLCMP
  C:1AD4H         PUBLIC        ?C?SLCMP
  -------         ENDMOD        ?C?SLCMP

  -------         MODULE        ?C?ULCMP
  C:1AEAH         PUBLIC        ?C?ULCMP
  -------         ENDMOD        ?C?ULCMP

  -------         MODULE        ?C?ULSHR
  C:1AFBH         PUBLIC        ?C?ULSHR
  -------         ENDMOD        ?C?ULSHR

  -------         MODULE        ?C?LSHL
  C:1B0EH         PUBLIC        ?C?LSHL
  -------         ENDMOD        ?C?LSHL

  -------         MODULE        ?C?LLDCODE
  C:1B21H         PUBLIC        ?C?LLDCODE
  -------         ENDMOD        ?C?LLDCODE

  -------         MODULE        ?C?LLDXDATA0
  C:1B31H         PUBLIC        ?C?LLDXDATA0
  -------         ENDMOD        ?C?LLDXDATA0

  -------         MODULE        ?C?LLDCODE0
  C:1B3DH         PUBLIC        ?C?LLDCODE0
  -------         ENDMOD        ?C?LLDCODE0

  -------         MODULE        ?C?LSTXDATA
  C:1B4DH         PUBLIC        ?C?LSTXDATA
  -------         ENDMOD        ?C?LSTXDATA

  -------         MODULE        ?C?LSTKXDATA
  C:1B59H         PUBLIC        ?C?LSTKXDATA
  -------         ENDMOD        ?C?LSTKXDATA

  -------         MODULE        ?C?PLDIXDATA
  C:1B8AH         PUBLIC        ?C?PLDIXDATA
  -------         ENDMOD        ?C?PLDIXDATA

  -------         MODULE        ?C?PSTXDATA
  C:1BA1H         PUBLIC        ?C?PSTXDATA
  -------         ENDMOD        ?C?PSTXDATA

  -------         MODULE        ?C?CCASE
  C:1BAAH         PUBLIC        ?C?CCASE
  -------         ENDMOD        ?C?CCASE

  -------         MODULE        STRCAT
  X:0046H         PUBLIC        ?_strcat?BYTE
  C:A5CCH         PUBLIC        _strcat
  -------         ENDMOD        STRCAT

  -------         MODULE        ?C?STRCMP
  C:1D4EH         PUBLIC        ?C?STRCMP
  -------         ENDMOD        ?C?STRCMP

BL51 BANKED LINKER/LOCATER V6.22.2.0                                                  11/11/2020  12:18:32  PAGE 136


  -------         MODULE        ?C?STRCPY
  C:1E37H         PUBLIC        ?C?STRCPY
  -------         ENDMOD        ?C?STRCPY

  -------         MODULE        STRLEN
  C:000EH         PUBLIC        _STRLEN
  -------         ENDMOD        STRLEN

  -------         MODULE        STRTOK
  X:0064H         PUBLIC        ?_strtok?BYTE
  C:7C4BH         PUBLIC        _strtok
  -------         ENDMOD        STRTOK

  -------         MODULE        ATOL
  C:707DH         PUBLIC        _atol
  -------         ENDMOD        ATOL

  -------         MODULE        ATOI
  C:7E0DH         PUBLIC        _atoi
  -------         ENDMOD        ATOI

  -------         MODULE        MALLOC
  C:8166H         PUBLIC        _malloc
  -------         ENDMOD        MALLOC

  -------         MODULE        INIT_MEM
  X:0256H         PUBLIC        __mem_avail__
  C:AFF4H         PUBLIC        _init_mempool
  -------         ENDMOD        INIT_MEM

  -------         MODULE        FREE
  C:629CH         PUBLIC        _free
  -------         ENDMOD        FREE

  -------         MODULE        ?C?ILDIX
  C:1E54H         PUBLIC        ?C?ILDIX
  -------         ENDMOD        ?C?ILDIX

  -------         MODULE        ?C?LMUL
  C:1E6AH         PUBLIC        ?C?LMUL
  -------         ENDMOD        ?C?LMUL

  -------         MODULE        ISDIGIT
  C:B68EH         PUBLIC        _isdigit
  -------         ENDMOD        ISDIGIT

  -------         MODULE        ISSPACE
  C:B5EEH         PUBLIC        _isspace
  -------         ENDMOD        ISSPACE

  -------         MODULE        STRSPN
  X:006AH         PUBLIC        ?_strspn?BYTE
  C:9E8EH         PUBLIC        _strspn
  -------         ENDMOD        STRSPN

  -------         MODULE        STRPBRK
  X:006AH         PUBLIC        ?_strpbrk?BYTE
BL51 BANKED LINKER/LOCATER V6.22.2.0                                                  11/11/2020  12:18:32  PAGE 137


  C:9F94H         PUBLIC        _strpbrk
  -------         ENDMOD        STRPBRK

Program Size: data=99.0 xdata=618 code=46873
LINK/LOCATE RUN COMPLETE.  0 WARNING(S),  0 ERROR(S)
