BL51 BANKED LINKER/LOCATER V6.22.2.0                                                    06/11/2021  16:40:25  PAGE 1


BL51 BANKED LINKER/LOCATER V6.22.2.0, INVOKED BY:
C:\KEIL_V5\C51\BIN\BL51.EXE .\Objects\main.obj, .\Objects\Accescan.obj, .\Objects\Clock.obj, .\Objects\delay.obj, .\Obje
>> cts\eeprom.obj, .\Objects\io_sensores.obj, .\Objects\pantallas.obj, .\Objects\prog.obj, .\Objects\pto_paralelo.obj, .
>> \Objects\tibbo.obj, .\Objects\uart.obj, .\Objects\lintech.obj, .\Objects\verificador.obj, .\Objects\Monitor.obj TO .\
>> Objects\expedidor_v_01_raspberry PRINT (.\Listings\expedidor_v_01_raspberry.m51) RAMSIZE (256)


MEMORY MODEL: LARGE WITH FLOATING POINT ARITHMETIC


INPUT MODULES INCLUDED:
  .\Objects\main.obj (MAIN)
  .\Objects\Accescan.obj (ACCESCAN)
  .\Objects\Clock.obj (CLOCK)
  .\Objects\delay.obj (DELAY)
  .\Objects\eeprom.obj (EEPROM)
  .\Objects\io_sensores.obj (IO_SENSORES)
  .\Objects\pantallas.obj (PANTALLAS)
  .\Objects\prog.obj (PROG)
  .\Objects\pto_paralelo.obj (PTO_PARALELO)
  .\Objects\tibbo.obj (TIBBO)
  .\Objects\uart.obj (UART)
  .\Objects\lintech.obj (LINTECH)
  .\Objects\verificador.obj (VERIFICADOR)
  .\Objects\Monitor.obj (MONITOR)
  C:\KEIL_V5\C51\LIB\C51FPL.LIB (?C?FPADD)
  C:\KEIL_V5\C51\LIB\C51FPL.LIB (?C?FPMUL)
  C:\KEIL_V5\C51\LIB\C51FPL.LIB (?C?FCAST)
  C:\KEIL_V5\C51\LIB\C51FPL.LIB (?C?CASTF)
  C:\KEIL_V5\C51\LIB\C51FPL.LIB (PRINTF)
  C:\KEIL_V5\C51\LIB\C51FPL.LIB (POW)
  C:\KEIL_V5\C51\LIB\C51FPL.LIB (?C?FPGETOPN)
  C:\KEIL_V5\C51\LIB\C51FPL.LIB (?C?CHKFLOAT)
  C:\KEIL_V5\C51\LIB\C51FPL.LIB (?C?FPCMP)
  C:\KEIL_V5\C51\LIB\C51FPL.LIB (?C?FPNEG)
  C:\KEIL_V5\C51\LIB\C51FPL.LIB (?C?FPROUND)
  C:\KEIL_V5\C51\LIB\C51FPL.LIB (?C?FPCONVERT)
  C:\KEIL_V5\C51\LIB\C51FPL.LIB (EXP)
  C:\KEIL_V5\C51\LIB\C51FPL.LIB (LOG)
  C:\KEIL_V5\C51\LIB\C51FPL.LIB (?C?FPDIV)
  C:\KEIL_V5\C51\LIB\C51FPL.LIB (?C?FTNPWR)
  C:\KEIL_V5\C51\LIB\C51FPL.LIB (?C?FPSERIES)
  C:\KEIL_V5\C51\LIB\C51L.LIB (?C_STARTUP)
  C:\KEIL_V5\C51\LIB\C51L.LIB (?C?COPY)
  C:\KEIL_V5\C51\LIB\C51L.LIB (?C?CLDPTR)
  C:\KEIL_V5\C51\LIB\C51L.LIB (?C?CLDOPTR)
  C:\KEIL_V5\C51\LIB\C51L.LIB (?C?CSTPTR)
  C:\KEIL_V5\C51\LIB\C51L.LIB (?C?CSTOPTR)
  C:\KEIL_V5\C51\LIB\C51L.LIB (?C?IMUL)
  C:\KEIL_V5\C51\LIB\C51L.LIB (?C?IILDX)
  C:\KEIL_V5\C51\LIB\C51L.LIB (?C?LNEG)
  C:\KEIL_V5\C51\LIB\C51L.LIB (?C?SLCMP)
  C:\KEIL_V5\C51\LIB\C51L.LIB (?C?ULCMP)
  C:\KEIL_V5\C51\LIB\C51L.LIB (?C?ULSHR)
  C:\KEIL_V5\C51\LIB\C51L.LIB (?C?LSHL)
  C:\KEIL_V5\C51\LIB\C51L.LIB (?C?LLDCODE)
  C:\KEIL_V5\C51\LIB\C51L.LIB (?C?LLDXDATA0)
  C:\KEIL_V5\C51\LIB\C51L.LIB (?C?LLDCODE0)
BL51 BANKED LINKER/LOCATER V6.22.2.0                                                  06/11/2021  16:40:25  PAGE 2


  C:\KEIL_V5\C51\LIB\C51L.LIB (?C?LSTXDATA)
  C:\KEIL_V5\C51\LIB\C51L.LIB (?C?LSTKXDATA)
  C:\KEIL_V5\C51\LIB\C51L.LIB (?C?PLDIXDATA)
  C:\KEIL_V5\C51\LIB\C51L.LIB (?C?PSTXDATA)
  C:\KEIL_V5\C51\LIB\C51L.LIB (?C?CCASE)
  C:\KEIL_V5\C51\LIB\C51L.LIB (STRCAT)
  C:\KEIL_V5\C51\LIB\C51L.LIB (?C?STRCMP)
  C:\KEIL_V5\C51\LIB\C51L.LIB (?C?STRCPY)
  C:\KEIL_V5\C51\LIB\C51L.LIB (STRLEN)
  C:\KEIL_V5\C51\LIB\C51L.LIB (STRTOK)
  C:\KEIL_V5\C51\LIB\C51L.LIB (ATOL)
  C:\KEIL_V5\C51\LIB\C51L.LIB (ATOI)
  C:\KEIL_V5\C51\LIB\C51L.LIB (?C_INIT)
  C:\KEIL_V5\C51\LIB\C51L.LIB (?C?ILDIX)
  C:\KEIL_V5\C51\LIB\C51L.LIB (?C?LMUL)
  C:\KEIL_V5\C51\LIB\C51L.LIB (ISDIGIT)
  C:\KEIL_V5\C51\LIB\C51L.LIB (ISSPACE)
  C:\KEIL_V5\C51\LIB\C51L.LIB (STRSPN)
  C:\KEIL_V5\C51\LIB\C51L.LIB (STRPBRK)


LINK MAP OF MODULE:  .\Objects\expedidor_v_01_raspberry (MAIN)


            TYPE    BASE      LENGTH    RELOCATION   SEGMENT NAME
            -----------------------------------------------------

            * * * * * * *   D A T A   M E M O R Y   * * * * * * *
            REG     0000H     0008H     ABSOLUTE     "REG BANK 0"
            DATA    0008H     0005H     UNIT         _DATA_GROUP_
            DATA    000DH     0004H     UNIT         ?DT?UART
            IDATA   0011H     0009H     UNIT         ?ID?MONITOR
                    001AH     0006H                  *** GAP ***
            BIT     0020H.0   0001H.1   UNIT         _BIT_GROUP_
            BIT     0021H.1   0000H.3   UNIT         ?BI?MAIN
            BIT     0021H.4   0000H.2   UNIT         ?BI?UART
            BIT     0021H.6   0000H.1   UNIT         ?BI?EEPROM
            BIT     0021H.7   0000H.1   UNIT         ?BI?IO_SENSORES
            BIT     0022H.0   0000H.1   UNIT         ?BI?VERIFICADOR
                    0022H.1   0000H.7                *** GAP ***
            IDATA   0023H     0046H     UNIT         ?ID?MAIN
            IDATA   0069H     0001H     UNIT         ?STACK

            * * * * * * *  X D A T A   M E M O R Y  * * * * * * *
            XDATA   0000H     00B7H     UNIT         _XDATA_GROUP_
            XDATA   00B7H     0091H     UNIT         ?XD?VERIFICADOR
            XDATA   0148H     006CH     UNIT         ?XD?MAIN
            XDATA   01B4H     0059H     UNIT         ?XD?PROG
            XDATA   020DH     0003H     UNIT         ?XD?EEPROM
            XDATA   0210H     0003H     UNIT         ?XD?UART
            XDATA   0213H     0003H     UNIT         ?XD?STRTOK
            XDATA   0216H     0002H     UNIT         ?XD?IO_SENSORES
            XDATA   0218H     0001H     UNIT         ?XD?ACCESCAN
            XDATA   0219H     0001H     UNIT         ?XD?CLOCK

            * * * * * * *   C O D E   M E M O R Y   * * * * * * *
            CODE    0000H     0003H     ABSOLUTE     
BL51 BANKED LINKER/LOCATER V6.22.2.0                                                  06/11/2021  16:40:25  PAGE 3


            CODE    0003H     0008H     UNIT         ?PR?P_CK?CLOCK
            CODE    000BH     0003H     ABSOLUTE     
            CODE    000EH     0015H     UNIT         ?PR?_STRLEN?STRLEN
            CODE    0023H     0003H     ABSOLUTE     
            CODE    0026H     1322H     UNIT         ?CO?PROG
            CODE    1348H     0B8BH     UNIT         ?C?LIB_CODE
            CODE    1ED3H     08BDH     UNIT         ?CO?VERIFICADOR
            CODE    2790H     0747H     UNIT         ?PR?_PANTALLALCD?PANTALLAS
            CODE    2ED7H     06EFH     UNIT         ?CO?PANTALLAS
            CODE    35C6H     0541H     UNIT         ?PR?_VALIDA_TRAMA_PTO?ACCESCAN
            CODE    3B07H     04DAH     UNIT         ?PR?_SECUENCIAEXPEDIDORMF?VERIFICADOR
            CODE    3FE1H     0483H     UNIT         ?PR?PRINTF?PRINTF
            CODE    4464H     037FH     UNIT         ?PR?VER_PROG?PROG
            CODE    47E3H     02D0H     UNIT         ?PR?_TWO_BYTEHEX_DECIMAL?CLOCK
            CODE    4AB3H     02B7H     UNIT         ?PR?_PROG_HORARIO_DIAS?PROG
            CODE    4D6AH     02A5H     UNIT         ?PR?_PANTALLALCD_LINEA_2?PANTALLAS
            CODE    500FH     02A3H     UNIT         ?PR?_ARMAR_TRAMA_MONITOR?VERIFICADOR
            CODE    52B2H     0256H     UNIT         ?PR?_ARMAR_TRAMA_PTO_PARALELO_EXPEDIDOR?VERIFICADOR
            CODE    5508H     022CH     UNIT         ?PR?MENU?PROG
            CODE    5734H     0208H     UNIT         ?PR?_HASH_ID?PROG
            CODE    593CH     01FAH     UNIT         ?PR?_PROG_HORARIO_DESDE_HASTA?PROG
            CODE    5B36H     01F5H     UNIT         ?PR?PROG_FECHA_VENCIMIENTO?PROG
            CODE    5D2BH     01EBH     UNIT         ?PR?_ARMAR_TRAMA_TARJETA_SECTOR1_BLOQUE2?VERIFICADOR
            CODE    5F16H     01DFH     UNIT         ?PR?_RESPONDE_LECTURA_TARJETA_SECTOR1_BLOQUE1?VERIFICADOR
            CODE    60F5H     01D8H     UNIT         ?PR?_BLOCK_READ_CLOCK_ASCII_RASBERRY?CLOCK
            CODE    62CDH     01B3H     UNIT         ?PR?COM_ISR?UART
            CODE    6480H     01A4H     UNIT         ?PR?_VALIDA_TIPO_TARJETA?VERIFICADOR
            CODE    6624H     01A3H     UNIT         ?CO?LINTECH
            CODE    67C7H     016EH     UNIT         ?PR?_BLOCK_READ_CLOCK_ASCII?CLOCK
            CODE    6935H     0166H     UNIT         ?PR?_POW?POW
            CODE    6A9BH     0157H     UNIT         ?PR?_RESPONDE_REELECTURA_TARJETA_SECTOR1_BLOQUE2?VERIFICADOR
            CODE    6BF2H     0145H     UNIT         ?PR?PROG_HORARIOS?PROG
            CODE    6D37H     013EH     UNIT         ?PR?PROG_SIN_COBRO?PROG
            CODE    6E75H     013EH     UNIT         ?PR?SECUENCIA_INICIO_EXPEDIDOR?VERIFICADOR
            CODE    6FB3H     013CH     UNIT         ?PR?LOAD_AND_SEND_ID_COD?PTO_PARALELO
            CODE    70EFH     0137H     UNIT         ?PR?VER_HORARIO?PROG
            CODE    7226H     012EH     UNIT         ?PR?_ARMAR_TRAMA_PTO_PARALELO_EXPEDIDOR_MENSUAL?VERIFICADOR
            CODE    7354H     012BH     UNIT         ?PR?_RESPONDE_LECTURA_TARJETA_SECTOR1_BLOQUE2?VERIFICADOR
            CODE    747FH     0129H     UNIT         ?PR?LOG?LOG
            CODE    75A8H     0128H     UNIT         ?PR?_VER_HORARIO_DIAS?PROG
            CODE    76D0H     011AH     UNIT         ?PR?_PROG_HORARIOS_ON_OFF?PROG
            CODE    77EAH     0119H     UNIT         ?PR?_VER_HORARIO_DESDE_HASTA?PROG
            CODE    7903H     0115H     UNIT         ?PR?_VALIDAR_CLK?CLOCK
            CODE    7A18H     010FH     UNIT         ?PR?_HORARIOS?VERIFICADOR
            CODE    7B27H     010CH     UNIT         ?PR?_ATOL?ATOL
            CODE    7C33H     0100H     UNIT         ?PR?_WR_MF?LINTECH
            CODE    7D33H     00FCH     UNIT         ?PR?PROG_DEBUG?PROG
            CODE    7E2FH     00FCH     UNIT         ?PR?PROG_USE_LPR?PROG
            CODE    7F2BH     00FCH     UNIT         ?PR?TIPO_PANTALLA?PROG
            CODE    8027H     00FCH     UNIT         ?PR?PROG_ANTIPASSBACK?PROG
            CODE    8123H     00FCH     UNIT         ?PR?PROG_PLACA?PROG
            CODE    821FH     00FCH     UNIT         ?PR?PROG_VALIDAR_TIPO_VEHICULO_MENSUAL?PROG
            CODE    831BH     00FCH     UNIT         ?PR?PROG_APB_MENSUAL?PROG
            CODE    8417H     00FCH     UNIT         ?PR?_BLOQUE_HORARIO?VERIFICADOR
            CODE    8513H     00F1H     UNIT         ?PR?_WRITE_EEPROM_TICKET?EEPROM
            CODE    8604H     00F0H     UNIT         ?CO?IO_SENSORES
            CODE    86F4H     00EAH     UNIT         ?PR?_MOV_CARD?LINTECH
BL51 BANKED LINKER/LOCATER V6.22.2.0                                                  06/11/2021  16:40:25  PAGE 4


            CODE    87DEH     00E4H     UNIT         ?PR?_STRTOK?STRTOK
            CODE    88C2H     00DEH     UNIT         ?PR?PROG_ADDRESS_HIGH_BOARD?PROG
            CODE    89A0H     00DBH     UNIT         ?PR?_ATOI?ATOI
            CODE    8A7BH     00D7H     UNIT         ?PR?_ANALIZA_UID_CARD?VERIFICADOR
            CODE    8B52H     00D6H     UNIT         ?PR?_CMD_LPR_SALIDA_WIEGAND?ACCESCAN
            CODE    8C28H     00D3H     UNIT         ?C_INITSEG
            CODE    8CFBH     00CCH     UNIT         ?PR?_GRABA_SERIE?EEPROM
            CODE    8DC7H     00CBH     UNIT         ?PR?_RTA_CMD_TRANSPORTE?VERIFICADOR
            CODE    8E92H     00CAH     UNIT         ?PR?READ_EEPROM_TICKET?EEPROM
            CODE    8F5CH     00C9H     UNIT         ?PR?_CHECK_FECHAOUT?CLOCK
            CODE    9025H     00C4H     UNIT         ?PR?_BLOCK_READ_CLOCK?CLOCK
            CODE    90E9H     00C4H     UNIT         ?PR?_TARJETA_MENSUAL?VERIFICADOR
            CODE    91ADH     00C3H     UNIT         ?PR?_RD_MF?LINTECH
            CODE    9270H     00C2H     UNIT         ?PR?PROG_TARJETA_AUTOMATICA_O_BOTON?PROG
            CODE    9332H     00C1H     UNIT         ?PR?_RECIBE_CMD_MONITOR?MONITOR
            CODE    93F3H     00BEH     UNIT         ?PR?ERROR_RX_PTO?VERIFICADOR
            CODE    94B1H     00BDH     UNIT         ?PR?PROG_COD_PARK?PROG
            CODE    956EH     00BDH     UNIT         ?PR?PROG_TIEMPO_GRACIA?PROG
            CODE    962BH     00BBH     UNIT         ?PR?_VALIDA_TRAMA_MONITOR?MONITOR
            CODE    96E6H     00B9H     UNIT         ?CO?TIBBO
            CODE    979FH     00B6H     UNIT         ?PR?PROG_ID_CLIENTE?PROG
            CODE    9855H     00B5H     UNIT         ?PR?_WAIT_PLACA?VERIFICADOR
            CODE    990AH     00B4H     UNIT         ?PR?_SEND_PORT?PTO_PARALELO
            CODE    99BEH     00AFH     UNIT         ?PR?MSJ_LCD_INFORMATIVO?IO_SENSORES
            CODE    9A6DH     00ACH     UNIT         ?PR?_HORA_MAXIMA?VERIFICADOR
            CODE    9B19H     00AAH     UNIT         ?PR?CLAVE_SEGURIDAD_S2?LINTECH
            CODE    9BC3H     00A9H     UNIT         ?PR?DWLOAD_EEPROM?LINTECH
            CODE    9C6CH     00A6H     UNIT         ?PR?_BLOCK_READ_CLOCK_HEX?CLOCK
            CODE    9D12H     00A5H     UNIT         ?PR?_SEND_PTO_PARALELO?VERIFICADOR
            CODE    9DB7H     00A4H     UNIT         ?PR?_ARMAR_TRAMA_TARJETA_SECTOR1_BLOQUE1_CAMCEL?VERIFICADOR
            CODE    9E5BH     00A1H     UNIT         ?PR?_BLOCK_WRITE_CLOCK_ASCII?CLOCK
            CODE    9EFCH     009DH     UNIT         ?PR?_INICIALIZA?LINTECH
            CODE    9F99H     009CH     UNIT         ?PR?_RESPUESTA_PLACA_CANCEL?VERIFICADOR
            CODE    A035H     009AH     UNIT         ?PR?_RESPONDE_LECTURA_TARJETA_SECTOR1_BLOQUE0?VERIFICADOR
            CODE    A0CFH     009AH     UNIT         ?PR?EXP?EXP
            CODE    A169H     0099H     UNIT         ?PR?SHOW?PROG
            CODE    A202H     0099H     UNIT         ?PR?_RECIBE_PORT?PTO_PARALELO
            CODE    A29BH     0098H     UNIT         ?PR?_VALIDA_VEHICULO_CARD_MENSUAL?VERIFICADOR
            CODE    A333H     0091H     UNIT         ?PR?_HEX_ASCII?CLOCK
            CODE    A3C4H     0091H     UNIT         ?PR?_CARD_INSERCION?LINTECH
            CODE    A455H     0090H     UNIT         ?PR?_LEE_CLK?CLOCK
            CODE    A4E5H     0090H     UNIT         ?PR?_GETOPTION?PROG
            CODE    A575H     0090H     UNIT         ?PR?_DISPARO_LOCK_ENTRADA_VEHICULO?VERIFICADOR
            CODE    A605H     0090H     UNIT         ?PR?ENTREGA_CARD_CAPTURA?VERIFICADOR
            CODE    A695H     008DH     UNIT         ?PR?LOADVERIFY_EEPROM?LINTECH
            CODE    A722H     008CH     UNIT         ?C_C51STARTUP
            CODE    A7AEH     0088H     UNIT         ?PR?_SEND_PORTERR?PTO_PARALELO
            CODE    A836H     0088H     UNIT         ?PR?RX_DATA?TIBBO
            CODE    A8BEH     0088H     UNIT         ?PR?UNIQUE_IDENTIFIER_UID?LINTECH
            CODE    A946H     0086H     UNIT         ?PR?_CHECK_STATUS?LINTECH
            CODE    A9CCH     0084H     UNIT         ?PR?_DEBUGBUFFERMF?TIBBO
            CODE    AA50H     0084H     UNIT         ?PR?_STRSPN?STRSPN
            CODE    AAD4H     0083H     UNIT         ?PR?_RASPBERRY_DATA?PANTALLAS
            CODE    AB57H     0081H     UNIT         ?PR?_STRPBRK?STRPBRK
            CODE    ABD8H     0080H     UNIT         ?PR?_INGRESADATO?PROG
            CODE    AC58H     0080H     UNIT         ?PR?AUT_CARD_CHECK_STATUS?LINTECH
            CODE    ACD8H     0080H     UNIT         ?PR?POWER_OFF?LINTECH
BL51 BANKED LINKER/LOCATER V6.22.2.0                                                  06/11/2021  16:40:25  PAGE 5


            CODE    AD58H     007FH     UNIT         ?PR?MAIN?MAIN
            CODE    ADD7H     007DH     UNIT         ?PR?RELOJ_PANTALLA_LCD?PANTALLAS
            CODE    AE54H     007CH     UNIT         ?PR?RESPONDE_ESTADO_SENSORES_TRANSPORTE?VERIFICADOR
            CODE    AED0H     0077H     UNIT         ?PR?RESPONDE_TIPO_TARJETA?VERIFICADOR
            CODE    AF47H     0074H     UNIT         ?PR?_HORA_ENTRADA_VEHICULO?CLOCK
            CODE    AFBBH     0071H     UNIT         ?PR?_EN_HORARIO?VERIFICADOR
            CODE    B02CH     006FH     UNIT         ?PR?_ESCRIBIRMEMORIA?EEPROM
            CODE    B09BH     006CH     UNIT         ?PR?_RESPONDE_WRITE_TARJETA_SECTOR1_BLOQUE2?VERIFICADOR
            CODE    B107H     006BH     UNIT         ?PR?INGRESO_VEHICULO?VERIFICADOR
            CODE    B172H     006BH     UNIT         ?PR?_STRCAT?STRCAT
            CODE    B1DDH     0066H     UNIT         ?PR?_LEERMEMORIA?EEPROM
            CODE    B243H     0062H     UNIT         ?PR?_LISTACOMANDOS?PROG
            CODE    B2A5H     005EH     UNIT         ?PR?_BYTEHEX_DECIMAL?CLOCK
            CODE    B303H     005DH     UNIT         ?PR?_RESPUESTA_SEGUNDA_CLAVE?VERIFICADOR
            CODE    B360H     005CH     UNIT         ?PR?_ARMAR_TRAMA_PLACA?VERIFICADOR
            CODE    B3BCH     005BH     UNIT         ?PR?VALIDA_SENSOR1_AUTO?IO_SENSORES
            CODE    B417H     0056H     UNIT         ?PR?_WR_EEPROM?EEPROM
            CODE    B46DH     0054H     UNIT         ?PR?_PREGUNTA_LPR?VERIFICADOR
            CODE    B4C1H     004DH     UNIT         ?PR?VARIABLE_INICIO?MAIN
            CODE    B50EH     004DH     UNIT         ?PR?L_D_M?EEPROM
            CODE    B55BH     004CH     UNIT         ?PR?LEE_NO_TICKET?EEPROM
            CODE    B5A7H     004CH     UNIT         ?PR?LOAD_AND_SEND_INFO_RELOJ?PTO_PARALELO
            CODE    B5F3H     004BH     UNIT         ?PR?_TX_AUX?TIBBO
            CODE    B63EH     0049H     UNIT         ?PR?_DEBUG_TXT_TIBBO?TIBBO
            CODE    B687H     0048H     UNIT         ?PR?FIRST_CLAVE?PROG
            CODE    B6CFH     0047H     UNIT         ?PR?_DEBUG_CHR_TIBBO?TIBBO
            CODE    B716H     0047H     UNIT         ?PR?_RESPONDE_WRITE_TARJETA_SECTOR2_BLOQUE0?VERIFICADOR
            CODE    B75DH     0046H     UNIT         ?PR?_ESCRIBIRCADENASOFT_BUFFER?MAIN
            CODE    B7A3H     0046H     UNIT         ?PR?_LCD_TXT_NUM_CHAR?PANTALLAS
            CODE    B7E9H     0046H     UNIT         ?PR?_DEBUG_HEXDEC?TIBBO
            CODE    B82FH     0044H     UNIT         ?PR?_LCD_TXT?PANTALLAS
            CODE    B873H     0043H     UNIT         ?PR?DIR_BOARD?IO_SENSORES
            CODE    B8B6H     0042H     UNIT         ?PR?_VALIDARCLAVE?PROG
            CODE    B8F8H     0041H     UNIT         ?PR?_MONITOR_CHR?ACCESCAN
            CODE    B939H     0041H     UNIT         ?PR?_TWO_ONE?CLOCK
            CODE    B97AH     0040H     UNIT         ?PR?_GETCMD?PROG
            CODE    B9BAH     0040H     UNIT         ?PR?_DEBUG_PTO_PARALELO?TIBBO
            CODE    B9FAH     003FH     UNIT         ?PR?_EB_CLK?CLOCK
            CODE    BA39H     003EH     UNIT         ?PR?_PUTCHAR?MAIN
            CODE    BA77H     003EH     UNIT         ?PR?TRAMA_VALIDACION_P_N?VERIFICADOR
            CODE    BAB5H     003DH     UNIT         ?PR?_HEX_BCD?CLOCK
            CODE    BAF2H     003DH     UNIT         ?PR?_RD_EEPROM?EEPROM
            CODE    BB2FH     003DH     UNIT         ?PR?_DEBUG_MONITOR?TIBBO
            CODE    BB6CH     003DH     UNIT         ?PR?_LOAD_SECUENCIA_EXPEDIDOR?VERIFICADOR
            CODE    BBA9H     003BH     UNIT         ?CO?ACCESCAN
            CODE    BBE4H     003BH     UNIT         ?CO?EEPROM
            CODE    BC1FH     003BH     UNIT         ?PR?_COM_PUTCHAR?UART
            CODE    BC5AH     003AH     UNIT         ?PR?_DELAY_10MS?DELAY
            CODE    BC94H     003AH     UNIT         ?PR?ANALIZA_CARD_MOUNT_RF?VERIFICADOR
            CODE    BCCEH     0038H     UNIT         ?PR?VALIDASENSORESPASO?IO_SENSORES
            CODE    BD06H     0036H     UNIT         ?PR?FORMATO_EEPROM?EEPROM
            CODE    BD3CH     0036H     UNIT         ?PR?_RESPONDE_WRITE_TARJETA_SECTOR1_BLOQUE1?VERIFICADOR
            CODE    BD72H     0036H     UNIT         ?PR?_RESPONDE_WRITE_TARJETA_SECTOR1_BLOQUE0?VERIFICADOR
            CODE    BDA8H     0034H     UNIT         ?PR?INCREMENTE_TICKET?EEPROM
            CODE    BDDCH     0034H     UNIT         ?PR?ADDR_HORARIOS?PROG
            CODE    BE10H     0031H     UNIT         ?PR?_TARJETA_ROTACION?VERIFICADOR
            CODE    BE41H     0030H     UNIT         ?PR?PREGUNTA_PLACA?VERIFICADOR
BL51 BANKED LINKER/LOCATER V6.22.2.0                                                  06/11/2021  16:40:25  PAGE 6


            CODE    BE71H     002EH     UNIT         ?PR?TIMER0_INT?MAIN
            CODE    BE9FH     002AH     UNIT         ?PR?COM_INITIALIZE?UART
            CODE    BEC9H     0028H     UNIT         ?PR?_WR_CLK?CLOCK
            CODE    BEF1H     0028H     UNIT         ?PR?COM_BAUDRATE?UART
            CODE    BF19H     0028H     UNIT         ?PR?_ARMAR_TRAMA_TARJETA_SECTOR1_BLOQUE0?VERIFICADOR
            CODE    BF41H     0027H     UNIT         ?PR?_TX_CHRLCD?PANTALLAS
            CODE    BF68H     0026H     UNIT         ?PR?COM_GETCHAR?UART
            CODE    BF8EH     0026H     UNIT         ?PR?ANALIZA_PRESENCIA_MENSUAL?VERIFICADOR
            CODE    BFB4H     0026H     UNIT         ?PR?RX_MONITOR?MONITOR
            CODE    BFDAH     0023H     UNIT         ?PR?ANALIZA_PRESENCIA_ROTACION?VERIFICADOR
            CODE    BFFDH     0022H     UNIT         ?PR?_E_D_M?EEPROM
            CODE    C01FH     0022H     UNIT         ?PR?VALIDASENSOR_CERO?IO_SENSORES
            CODE    C041H     0021H     UNIT         ?CO?PTO_PARALELO
            CODE    C062H     0020H     UNIT         ?PR?ACKD?EEPROM
            CODE    C082H     0020H     UNIT         ?PR?ACK_LECT?EEPROM
            CODE    C0A2H     001FH     UNIT         ?PR?VALIDASENSOR?IO_SENSORES
            CODE    C0C1H     001FH     UNIT         ?PR?TIME_BIT?TIBBO
            CODE    C0E0H     001EH     UNIT         ?PR?_BCD_HEX?CLOCK
            CODE    C0FEH     001BH     UNIT         ?PR?_DELAY_1MS?DELAY
            CODE    C119H     0018H     UNIT         ?PR?CLEAR_PLACA?MONITOR
            CODE    C131H     0017H     UNIT         ?PR?DISPLAYCURSOR?PROG
            CODE    C148H     0017H     UNIT         ?PR?TIME_MBIT?TIBBO
            CODE    C15FH     0016H     UNIT         ?PR?DIR_BOARD_MONITOR?IO_SENSORES
            CODE    C175H     0014H     UNIT         ?CO?CLOCK
            CODE    C189H     0014H     UNIT         ?PR?_ISSPACE?ISSPACE
            CODE    C19DH     0012H     UNIT         ?PR?_DELAY_20US?DELAY
            CODE    C1AFH     0012H     UNIT         ?PR?START?EEPROM
            CODE    C1C1H     0012H     UNIT         ?PR?BOTTON?IO_SENSORES
            CODE    C1D3H     0012H     UNIT         ?PR?PULSO_BUS?PTO_PARALELO
            CODE    C1E5H     0012H     UNIT         ?PR?COM_RBUFLEN?UART
            CODE    C1F7H     0012H     UNIT         ?PR?COM_TBUFLEN?UART
            CODE    C209H     0010H     UNIT         ?PR?INI_TIMER?MAIN
            CODE    C219H     0010H     UNIT         ?PR?INICIA_BOARD?MAIN
            CODE    C229H     000FH     UNIT         ?PR?_ISDIGIT?ISDIGIT
            CODE    C238H     000CH     UNIT         ?PR?_GETKEY?MAIN
            CODE    C244H     000AH     UNIT         ?PR?STOP?EEPROM
            CODE    C24EH     000AH     UNIT         ?PR?COND_INI_PTO?PTO_PARALELO
            CODE    C258H     0009H     UNIT         ?PR?DEBUG_DIVIDIR_TEXTO?TIBBO
            CODE    C261H     0009H     UNIT         ?PR?CAPTURA_EXPULSA?VERIFICADOR
            CODE    C26AH     0007H     UNIT         ?PR?COND_INI_CLOCK?CLOCK
            CODE    C271H     0007H     UNIT         ?PR?SEL_FUNCION?IO_SENSORES
            CODE    C278H     0007H     UNIT         ?PR?SEL_AUTO?IO_SENSORES
            CODE    C27FH     0007H     UNIT         ?PR?SEL_PULSA?IO_SENSORES
            CODE    C286H     0007H     UNIT         ?PR?SEL_SENSOR2?IO_SENSORES
            CODE    C28DH     0007H     UNIT         ?PR?SEL_SENSOR1?IO_SENSORES
            CODE    C294H     0007H     UNIT         ?PR?SEL_DIR1?IO_SENSORES
            CODE    C29BH     0007H     UNIT         ?PR?SEL_DIR2?IO_SENSORES
            CODE    C2A2H     0006H     UNIT         ?PR?P_ME?EEPROM
            CODE    C2A8H     0005H     UNIT         ?PR?ON_TIMER0_INTERRUP?MAIN
            CODE    C2ADH     0005H     UNIT         ?PR?COND_INI_TIBBO?TIBBO
            CODE    C2B2H     0003H     UNIT         ?PR?OFF_TIMER0_INTERRUP?MAIN
            CODE    C2B5H     0001H     UNIT         ?PR?DELAY?DELAY



OVERLAY MAP OF MODULE:   .\Objects\expedidor_v_01_raspberry (MAIN)

BL51 BANKED LINKER/LOCATER V6.22.2.0                                                  06/11/2021  16:40:25  PAGE 7



SEGMENT                                             BIT_GROUP          DATA_GROUP          XDATA_GROUP
  +--> CALLED SEGMENT                            START    LENGTH     START    LENGTH     START    LENGTH
--------------------------------------------------------------------------------------------------------
?C_C51STARTUP                                    -----    -----      -----    -----      -----    -----
  +--> ?PR?MAIN?MAIN
  +--> ?C_INITSEG

?PR?MAIN?MAIN                                    -----    -----      -----    -----      0000H    0001H
  +--> ?PR?INI_TIMER?MAIN
  +--> ?PR?ON_TIMER0_INTERRUP?MAIN
  +--> ?PR?COM_INITIALIZE?UART
  +--> ?PR?COM_BAUDRATE?UART
  +--> ?PR?INICIA_BOARD?MAIN
  +--> ?PR?TIME_BIT?TIBBO
  +--> ?PR?_DELAY_20US?DELAY
  +--> ?PR?TIME_MBIT?TIBBO
  +--> ?PR?_TX_AUX?TIBBO
  +--> ?PR?SEL_FUNCION?IO_SENSORES
  +--> ?PR?MENU?PROG
  +--> ?PR?VARIABLE_INICIO?MAIN
  +--> ?PR?SECUENCIA_INICIO_EXPEDIDOR?VERIFI...
  +--> ?PR?RX_MONITOR?MONITOR
  +--> ?PR?_SECUENCIAEXPEDIDORMF?VERIFICADOR
  +--> ?PR?_RECIBE_PORT?PTO_PARALELO
  +--> ?PR?_DEBUG_PTO_PARALELO?TIBBO
  +--> ?PR?_VALIDA_TRAMA_PTO?ACCESCAN
  +--> ?PR?MSJ_LCD_INFORMATIVO?IO_SENSORES

?PR?COM_INITIALIZE?UART                          -----    -----      -----    -----      -----    -----
  +--> ?PR?COM_BAUDRATE?UART

?PR?INICIA_BOARD?MAIN                            -----    -----      -----    -----      -----    -----
  +--> ?PR?COND_INI_TIBBO?TIBBO
  +--> ?PR?COND_INI_CLOCK?CLOCK
  +--> ?PR?COND_INI_PTO?PTO_PARALELO

?PR?_TX_AUX?TIBBO                                -----    -----      -----    -----      -----    -----
  +--> ?PR?TIME_BIT?TIBBO

?PR?MENU?PROG                                    -----    -----      -----    -----      0001H    0045H
  +--> ?CO?PROG
  +--> ?PR?PRINTF?PRINTF
  +--> ?PR?_RD_EEPROM?EEPROM
  +--> ?PR?FIRST_CLAVE?PROG
  +--> ?PR?_WR_EEPROM?EEPROM
  +--> ?PR?_LEERMEMORIA?EEPROM
  +--> ?PR?_HASH_ID?PROG
  +--> ?PR?_INGRESADATO?PROG
  +--> ?PR?_GETCMD?PROG
  +--> ?PR?_ESCRIBIRMEMORIA?EEPROM
  +--> ?PR?_VALIDARCLAVE?PROG
  +--> ?PR?DISPLAYCURSOR?PROG
  +--> ?PR?_STRLEN?STRLEN
  +--> ?PR?_GETOPTION?PROG
  +--> ?PR?_STRCAT?STRCAT
  +--> ?PR?_LISTACOMANDOS?PROG
BL51 BANKED LINKER/LOCATER V6.22.2.0                                                  06/11/2021  16:40:25  PAGE 8


  +--> ?PR?PROG_ID_CLIENTE?PROG
  +--> ?PR?PROG_COD_PARK?PROG
  +--> ?PR?PROG_TIEMPO_GRACIA?PROG
  +--> ?PR?PROG_SIN_COBRO?PROG
  +--> ?PR?PROG_DEBUG?PROG
  +--> ?PR?PROG_USE_LPR?PROG
  +--> ?PR?TIPO_PANTALLA?PROG
  +--> ?PR?PROG_TARJETA_AUTOMATICA_O_BOTON?PROG
  +--> ?PR?PROG_ANTIPASSBACK?PROG
  +--> ?PR?PROG_PLACA?PROG
  +--> ?PR?PROG_ADDRESS_HIGH_BOARD?PROG
  +--> ?PR?PROG_HORARIOS?PROG
  +--> ?PR?PROG_VALIDAR_TIPO_VEHICULO_MENSUA...
  +--> ?PR?PROG_APB_MENSUAL?PROG
  +--> ?PR?VER_PROG?PROG
  +--> ?PR?SHOW?PROG
  +--> ?PR?PROG_FECHA_VENCIMIENTO?PROG

?PR?PRINTF?PRINTF                                0020H.0  0001H.1    0008H    0005H      0077H    0030H
  +--> ?PR?_PUTCHAR?MAIN

?PR?_PUTCHAR?MAIN                                -----    -----      -----    -----      00A7H    0003H
  +--> ?PR?_COM_PUTCHAR?UART

?PR?_COM_PUTCHAR?UART                            -----    -----      -----    -----      00AAH    0001H
  +--> ?PR?COM_TBUFLEN?UART

?PR?_RD_EEPROM?EEPROM                            -----    -----      -----    -----      -----    -----
  +--> ?PR?START?EEPROM
  +--> ?PR?ACK_LECT?EEPROM
  +--> ?PR?_E_D_M?EEPROM
  +--> ?PR?ACKD?EEPROM
  +--> ?PR?L_D_M?EEPROM
  +--> ?PR?STOP?EEPROM

?PR?ACK_LECT?EEPROM                              -----    -----      -----    -----      -----    -----
  +--> ?PR?_E_D_M?EEPROM

?PR?_E_D_M?EEPROM                                -----    -----      -----    -----      -----    -----
  +--> ?PR?P_ME?EEPROM

?PR?ACKD?EEPROM                                  -----    -----      -----    -----      -----    -----
  +--> ?PR?_E_D_M?EEPROM

?PR?FIRST_CLAVE?PROG                             -----    -----      -----    -----      0046H    000BH
  +--> ?PR?_BLOCK_READ_CLOCK_ASCII?CLOCK
  +--> ?PR?_HASH_ID?PROG
  +--> ?PR?_ESCRIBIRMEMORIA?EEPROM

?PR?_BLOCK_READ_CLOCK_ASCII?CLOCK                -----    -----      -----    -----      0051H    0003H
  +--> ?PR?_LEE_CLK?CLOCK

?PR?_LEE_CLK?CLOCK                               -----    -----      -----    -----      00B1H    0003H
  +--> ?PR?_DELAY_20US?DELAY
  +--> ?PR?_EB_CLK?CLOCK
  +--> ?PR?P_CK?CLOCK

BL51 BANKED LINKER/LOCATER V6.22.2.0                                                  06/11/2021  16:40:25  PAGE 9


?PR?_EB_CLK?CLOCK                                -----    -----      -----    -----      00B4H    0003H
  +--> ?PR?P_CK?CLOCK

?PR?P_CK?CLOCK                                   -----    -----      -----    -----      -----    -----
  +--> ?PR?DELAY?DELAY

?PR?_HASH_ID?PROG                                -----    -----      -----    -----      005DH    003FH
  +--> ?CO?PROG
  +--> ?PR?_LEERMEMORIA?EEPROM
  +--> ?PR?_CHECK_FECHAOUT?CLOCK
  +--> ?PR?_STRLEN?STRLEN

?PR?_LEERMEMORIA?EEPROM                          -----    -----      -----    -----      009CH    0005H
  +--> ?PR?_RD_EEPROM?EEPROM

?PR?_CHECK_FECHAOUT?CLOCK                        -----    -----      -----    -----      009CH    0012H
  +--> ?PR?_BLOCK_READ_CLOCK_HEX?CLOCK

?PR?_BLOCK_READ_CLOCK_HEX?CLOCK                  -----    -----      -----    -----      00AEH    0003H
  +--> ?PR?_LEE_CLK?CLOCK
  +--> ?PR?_BCD_HEX?CLOCK

?PR?_ESCRIBIRMEMORIA?EEPROM                      -----    -----      -----    -----      005DH    0005H
  +--> ?PR?_WR_EEPROM?EEPROM

?PR?_WR_EEPROM?EEPROM                            -----    -----      -----    -----      -----    -----
  +--> ?PR?START?EEPROM
  +--> ?PR?ACKD?EEPROM
  +--> ?PR?_E_D_M?EEPROM
  +--> ?PR?STOP?EEPROM
  +--> ?PR?_DELAY_1MS?DELAY
  +--> ?PR?_DELAY_20US?DELAY

?PR?_DELAY_1MS?DELAY                             -----    -----      -----    -----      -----    -----
  +--> ?PR?_DELAY_20US?DELAY

?PR?_INGRESADATO?PROG                            -----    -----      -----    -----      0071H    0004H
  +--> ?PR?_GETKEY?MAIN
  +--> ?CO?PROG
  +--> ?PR?PRINTF?PRINTF
  +--> ?PR?_PUTCHAR?MAIN

?PR?_GETKEY?MAIN                                 -----    -----      -----    -----      -----    -----
  +--> ?PR?COM_GETCHAR?UART

?PR?COM_GETCHAR?UART                             -----    -----      -----    -----      -----    -----
  +--> ?PR?COM_RBUFLEN?UART

?PR?_GETCMD?PROG                                 -----    -----      -----    -----      005DH    0007H
  +--> ?CO?PROG
  +--> ?PR?_STRTOK?STRTOK

?PR?_STRTOK?STRTOK                               -----    -----      -----    -----      0064H    0006H
  +--> ?PR?_STRSPN?STRSPN
  +--> ?PR?_STRPBRK?STRPBRK

?PR?_STRSPN?STRSPN                               -----    -----      -----    -----      006AH    0008H
BL51 BANKED LINKER/LOCATER V6.22.2.0                                                  06/11/2021  16:40:25  PAGE 10



?PR?_STRPBRK?STRPBRK                             -----    -----      -----    -----      006AH    0009H

?PR?_VALIDARCLAVE?PROG                           -----    -----      -----    -----      005DH    000EH

?PR?DISPLAYCURSOR?PROG                           -----    -----      -----    -----      -----    -----
  +--> ?CO?PROG
  +--> ?PR?PRINTF?PRINTF

?PR?_GETOPTION?PROG                              -----    -----      -----    -----      0046H    000BH
  +--> ?CO?PROG
  +--> ?PR?_STRTOK?STRTOK

?PR?_STRCAT?STRCAT                               -----    -----      -----    -----      0046H    0009H

?PR?_LISTACOMANDOS?PROG                          -----    -----      -----    -----      0046H    0007H

?PR?PROG_ID_CLIENTE?PROG                         -----    -----      -----    -----      0046H    000CH
  +--> ?PR?_RD_EEPROM?EEPROM
  +--> ?CO?PROG
  +--> ?PR?PRINTF?PRINTF
  +--> ?PR?_INGRESADATO?PROG
  +--> ?PR?_ATOI?ATOI
  +--> ?PR?_WR_EEPROM?EEPROM

?PR?_ATOI?ATOI                                   0020H.0  0000H.1    -----    -----      0071H    0005H
  +--> ?PR?_ISSPACE?ISSPACE
  +--> ?PR?_ISDIGIT?ISDIGIT

?PR?PROG_COD_PARK?PROG                           -----    -----      -----    -----      0046H    000CH
  +--> ?PR?_RD_EEPROM?EEPROM
  +--> ?CO?PROG
  +--> ?PR?PRINTF?PRINTF
  +--> ?PR?_INGRESADATO?PROG
  +--> ?PR?_ATOI?ATOI
  +--> ?PR?_WR_EEPROM?EEPROM

?PR?PROG_TIEMPO_GRACIA?PROG                      -----    -----      -----    -----      0046H    000CH
  +--> ?PR?_RD_EEPROM?EEPROM
  +--> ?CO?PROG
  +--> ?PR?PRINTF?PRINTF
  +--> ?PR?_INGRESADATO?PROG
  +--> ?PR?_ATOI?ATOI
  +--> ?PR?_WR_EEPROM?EEPROM

?PR?PROG_SIN_COBRO?PROG                          -----    -----      -----    -----      0046H    000CH
  +--> ?PR?_RD_EEPROM?EEPROM
  +--> ?CO?PROG
  +--> ?PR?PRINTF?PRINTF
  +--> ?PR?_INGRESADATO?PROG
  +--> ?PR?_ATOI?ATOI
  +--> ?PR?_WR_EEPROM?EEPROM

?PR?PROG_DEBUG?PROG                              -----    -----      -----    -----      0046H    000CH
  +--> ?PR?_RD_EEPROM?EEPROM
  +--> ?CO?PROG
  +--> ?PR?PRINTF?PRINTF
BL51 BANKED LINKER/LOCATER V6.22.2.0                                                  06/11/2021  16:40:25  PAGE 11


  +--> ?PR?_INGRESADATO?PROG
  +--> ?PR?_ATOI?ATOI
  +--> ?PR?_WR_EEPROM?EEPROM

?PR?PROG_USE_LPR?PROG                            -----    -----      -----    -----      0046H    000CH
  +--> ?PR?_RD_EEPROM?EEPROM
  +--> ?CO?PROG
  +--> ?PR?PRINTF?PRINTF
  +--> ?PR?_INGRESADATO?PROG
  +--> ?PR?_ATOI?ATOI
  +--> ?PR?_WR_EEPROM?EEPROM

?PR?TIPO_PANTALLA?PROG                           -----    -----      -----    -----      0046H    000CH
  +--> ?PR?_RD_EEPROM?EEPROM
  +--> ?CO?PROG
  +--> ?PR?PRINTF?PRINTF
  +--> ?PR?_INGRESADATO?PROG
  +--> ?PR?_ATOI?ATOI
  +--> ?PR?_WR_EEPROM?EEPROM

?PR?PROG_TARJETA_AUTOMATICA_O_BOTON?PROG         -----    -----      -----    -----      0046H    000CH
  +--> ?PR?_RD_EEPROM?EEPROM
  +--> ?CO?PROG
  +--> ?PR?PRINTF?PRINTF
  +--> ?PR?_INGRESADATO?PROG
  +--> ?PR?_ATOI?ATOI
  +--> ?PR?_WR_EEPROM?EEPROM

?PR?PROG_ANTIPASSBACK?PROG                       -----    -----      -----    -----      0046H    000CH
  +--> ?PR?_RD_EEPROM?EEPROM
  +--> ?CO?PROG
  +--> ?PR?PRINTF?PRINTF
  +--> ?PR?_INGRESADATO?PROG
  +--> ?PR?_ATOI?ATOI
  +--> ?PR?_WR_EEPROM?EEPROM

?PR?PROG_PLACA?PROG                              -----    -----      -----    -----      0046H    000CH
  +--> ?PR?_RD_EEPROM?EEPROM
  +--> ?CO?PROG
  +--> ?PR?PRINTF?PRINTF
  +--> ?PR?_INGRESADATO?PROG
  +--> ?PR?_ATOI?ATOI
  +--> ?PR?_WR_EEPROM?EEPROM

?PR?PROG_ADDRESS_HIGH_BOARD?PROG                 -----    -----      -----    -----      0046H    000CH
  +--> ?PR?_RD_EEPROM?EEPROM
  +--> ?CO?PROG
  +--> ?PR?PRINTF?PRINTF
  +--> ?PR?_INGRESADATO?PROG
  +--> ?PR?_ATOI?ATOI
  +--> ?PR?_WR_EEPROM?EEPROM

?PR?PROG_HORARIOS?PROG                           -----    -----      -----    -----      0046H    001BH
  +--> ?PR?ADDR_HORARIOS?PROG
  +--> ?CO?PROG
  +--> ?PR?PRINTF?PRINTF
  +--> ?PR?_INGRESADATO?PROG
BL51 BANKED LINKER/LOCATER V6.22.2.0                                                  06/11/2021  16:40:25  PAGE 12


  +--> ?PR?_ATOI?ATOI
  +--> ?PR?_PROG_HORARIOS_ON_OFF?PROG
  +--> ?PR?_WR_EEPROM?EEPROM
  +--> ?PR?_PROG_HORARIO_DIAS?PROG
  +--> ?PR?_PROG_HORARIO_DESDE_HASTA?PROG
  +--> ?PR?_RD_EEPROM?EEPROM

?PR?ADDR_HORARIOS?PROG                           -----    -----      -----    -----      0074H    000BH

?PR?_PROG_HORARIOS_ON_OFF?PROG                   -----    -----      -----    -----      0061H    0010H
  +--> ?PR?_RD_EEPROM?EEPROM
  +--> ?CO?PROG
  +--> ?PR?PRINTF?PRINTF
  +--> ?PR?_INGRESADATO?PROG
  +--> ?PR?_ATOI?ATOI
  +--> ?PR?_WR_EEPROM?EEPROM

?PR?_PROG_HORARIO_DIAS?PROG                      -----    -----      -----    -----      0061H    000FH
  +--> ?CO?PROG
  +--> ?PR?PRINTF?PRINTF
  +--> ?PR?_INGRESADATO?PROG
  +--> ?PR?_WR_EEPROM?EEPROM
  +--> ?PR?_RD_EEPROM?EEPROM

?PR?_PROG_HORARIO_DESDE_HASTA?PROG               -----    -----      -----    -----      0061H    000CH
  +--> ?CO?PROG
  +--> ?PR?PRINTF?PRINTF
  +--> ?PR?_INGRESADATO?PROG
  +--> ?PR?_WR_EEPROM?EEPROM
  +--> ?PR?_RD_EEPROM?EEPROM

?PR?PROG_VALIDAR_TIPO_VEHICULO_MENSUA...         -----    -----      -----    -----      0046H    000CH
  +--> ?PR?_RD_EEPROM?EEPROM
  +--> ?CO?PROG
  +--> ?PR?PRINTF?PRINTF
  +--> ?PR?_INGRESADATO?PROG
  +--> ?PR?_ATOI?ATOI
  +--> ?PR?_WR_EEPROM?EEPROM

?PR?PROG_APB_MENSUAL?PROG                        -----    -----      -----    -----      0046H    000CH
  +--> ?PR?_RD_EEPROM?EEPROM
  +--> ?CO?PROG
  +--> ?PR?PRINTF?PRINTF
  +--> ?PR?_INGRESADATO?PROG
  +--> ?PR?_ATOI?ATOI
  +--> ?PR?_WR_EEPROM?EEPROM

?PR?VER_PROG?PROG                                -----    -----      -----    -----      0046H    0013H
  +--> ?PR?_RD_EEPROM?EEPROM
  +--> ?CO?PROG
  +--> ?PR?PRINTF?PRINTF
  +--> ?PR?VER_HORARIO?PROG
  +--> ?PR?_LEERMEMORIA?EEPROM
  +--> ?PR?_HEX_ASCII?CLOCK
  +--> ?PR?LEE_NO_TICKET?EEPROM

?PR?VER_HORARIO?PROG                             -----    -----      -----    -----      0059H    001BH
BL51 BANKED LINKER/LOCATER V6.22.2.0                                                  06/11/2021  16:40:25  PAGE 13


  +--> ?PR?ADDR_HORARIOS?PROG
  +--> ?CO?PROG
  +--> ?PR?PRINTF?PRINTF
  +--> ?PR?_RD_EEPROM?EEPROM
  +--> ?PR?_VER_HORARIO_DIAS?PROG
  +--> ?PR?_VER_HORARIO_DESDE_HASTA?PROG

?PR?_VER_HORARIO_DIAS?PROG                       -----    -----      -----    -----      0074H    0003H
  +--> ?PR?_RD_EEPROM?EEPROM
  +--> ?CO?PROG
  +--> ?PR?PRINTF?PRINTF

?PR?_VER_HORARIO_DESDE_HASTA?PROG                -----    -----      -----    -----      0074H    0002H
  +--> ?CO?PROG
  +--> ?PR?PRINTF?PRINTF
  +--> ?PR?_RD_EEPROM?EEPROM

?PR?_HEX_ASCII?CLOCK                             -----    -----      -----    -----      005DH    0006H
  +--> ?PR?_HEX_BCD?CLOCK

?PR?LEE_NO_TICKET?EEPROM                         -----    -----      -----    -----      0059H    000BH
  +--> ?PR?READ_EEPROM_TICKET?EEPROM
  +--> ?CO?EEPROM
  +--> ?PR?PRINTF?PRINTF
  +--> ?PR?_STRLEN?STRLEN
  +--> ?PR?_DEBUG_TXT_TIBBO?TIBBO

?PR?READ_EEPROM_TICKET?EEPROM                    -----    -----      -----    -----      0064H    0007H
  +--> ?PR?_RD_EEPROM?EEPROM

?PR?_DEBUG_TXT_TIBBO?TIBBO                       -----    -----      -----    -----      0064H    0004H
  +--> ?PR?_DEBUG_CHR_TIBBO?TIBBO
  +--> ?CO?TIBBO
  +--> ?PR?_TX_AUX?TIBBO

?PR?_DEBUG_CHR_TIBBO?TIBBO                       -----    -----      -----    -----      -----    -----
  +--> ?PR?_TX_AUX?TIBBO

?PR?SHOW?PROG                                    -----    -----      -----    -----      -----    -----
  +--> ?CO?PROG
  +--> ?PR?PRINTF?PRINTF

?PR?PROG_FECHA_VENCIMIENTO?PROG                  -----    -----      -----    -----      0046H    0017H
  +--> ?PR?_LEERMEMORIA?EEPROM
  +--> ?PR?_HEX_ASCII?CLOCK
  +--> ?CO?PROG
  +--> ?PR?PRINTF?PRINTF
  +--> ?PR?_HASH_ID?PROG
  +--> ?PR?_INGRESADATO?PROG
  +--> ?PR?_GETCMD?PROG
  +--> ?PR?_ESCRIBIRMEMORIA?EEPROM
  +--> ?PR?_VALIDARCLAVE?PROG
  +--> ?PR?_ATOI?ATOI
  +--> ?PR?_WR_EEPROM?EEPROM

?PR?VARIABLE_INICIO?MAIN                         -----    -----      -----    -----      -----    -----
  +--> ?PR?_RD_EEPROM?EEPROM
BL51 BANKED LINKER/LOCATER V6.22.2.0                                                  06/11/2021  16:40:25  PAGE 14



?PR?SECUENCIA_INICIO_EXPEDIDOR?VERIFI...         -----    -----      -----    -----      0001H    0001H
  +--> ?PR?_INICIALIZA?LINTECH
  +--> ?PR?TRAMA_VALIDACION_P_N?VERIFICADOR
  +--> ?CO?VERIFICADOR
  +--> ?PR?_DEBUG_TXT_TIBBO?TIBBO
  +--> ?PR?_DEBUGBUFFERMF?TIBBO
  +--> ?PR?DWLOAD_EEPROM?LINTECH

?PR?_INICIALIZA?LINTECH                          -----    -----      -----    -----      0002H    000CH
  +--> ?CO?LINTECH
  +--> ?PR?_DEBUG_TXT_TIBBO?TIBBO
  +--> ?PR?_DEBUGBUFFERMF?TIBBO
  +--> ?PR?_ESCRIBIRCADENASOFT_BUFFER?MAIN

?PR?_DEBUGBUFFERMF?TIBBO                         -----    -----      -----    -----      0027H    0006H
  +--> ?CO?TIBBO
  +--> ?PR?_DEBUG_TXT_TIBBO?TIBBO
  +--> ?PR?_DEBUG_CHR_TIBBO?TIBBO
  +--> ?PR?_TX_AUX?TIBBO

?PR?_ESCRIBIRCADENASOFT_BUFFER?MAIN              -----    -----      -----    -----      0027H    0006H
  +--> ?PR?_PUTCHAR?MAIN

?PR?TRAMA_VALIDACION_P_N?VERIFICADOR             -----    -----      -----    -----      -----    -----
  +--> ?CO?VERIFICADOR
  +--> ?PR?_DEBUG_TXT_TIBBO?TIBBO

?PR?DWLOAD_EEPROM?LINTECH                        -----    -----      -----    -----      0002H    0016H
  +--> ?CO?LINTECH
  +--> ?PR?_DEBUG_TXT_TIBBO?TIBBO
  +--> ?PR?_DEBUGBUFFERMF?TIBBO
  +--> ?PR?_ESCRIBIRCADENASOFT_BUFFER?MAIN

?PR?RX_MONITOR?MONITOR                           -----    -----      -----    -----      0009H    000DH
  +--> ?PR?_RECIBE_CMD_MONITOR?MONITOR
  +--> ?PR?_DEBUG_MONITOR?TIBBO
  +--> ?PR?_VALIDA_TRAMA_MONITOR?MONITOR

?PR?_RECIBE_CMD_MONITOR?MONITOR                  -----    -----      -----    -----      0016H    0009H
  +--> ?PR?RX_DATA?TIBBO

?PR?RX_DATA?TIBBO                                -----    -----      -----    -----      -----    -----
  +--> ?PR?TIME_MBIT?TIBBO
  +--> ?PR?TIME_BIT?TIBBO

?PR?_DEBUG_MONITOR?TIBBO                         -----    -----      -----    -----      0016H    0004H
  +--> ?PR?DEBUG_DIVIDIR_TEXTO?TIBBO
  +--> ?CO?TIBBO
  +--> ?PR?_DEBUG_TXT_TIBBO?TIBBO

?PR?DEBUG_DIVIDIR_TEXTO?TIBBO                    -----    -----      -----    -----      -----    -----
  +--> ?CO?TIBBO
  +--> ?PR?_DEBUG_TXT_TIBBO?TIBBO

?PR?_VALIDA_TRAMA_MONITOR?MONITOR                -----    -----      -----    -----      0016H    0006H
  +--> ?PR?_DELAY_10MS?DELAY
BL51 BANKED LINKER/LOCATER V6.22.2.0                                                  06/11/2021  16:40:25  PAGE 15


  +--> ?PR?_TX_AUX?TIBBO

?PR?_DELAY_10MS?DELAY                            -----    -----      -----    -----      001CH    0004H
  +--> ?PR?_DELAY_1MS?DELAY

?PR?_SECUENCIAEXPEDIDORMF?VERIFICADOR            -----    -----      -----    -----      0001H    0001H
  +--> ?PR?_CHECK_STATUS?LINTECH
  +--> ?PR?_LOAD_SECUENCIA_EXPEDIDOR?VERIFIC...
  +--> ?PR?RX_MONITOR?MONITOR
  +--> ?PR?_RTA_CMD_TRANSPORTE?VERIFICADOR
  +--> ?PR?_MOV_CARD?LINTECH
  +--> ?PR?_CARD_INSERCION?LINTECH
  +--> ?PR?AUT_CARD_CHECK_STATUS?LINTECH
  +--> ?PR?LOADVERIFY_EEPROM?LINTECH
  +--> ?PR?_RD_MF?LINTECH
  +--> ?PR?_WR_MF?LINTECH
  +--> ?PR?ANALIZA_CARD_MOUNT_RF?VERIFICADOR
  +--> ?PR?DWLOAD_EEPROM?LINTECH
  +--> ?PR?ENTREGA_CARD_CAPTURA?VERIFICADOR
  +--> ?PR?_SEND_PTO_PARALELO?VERIFICADOR
  +--> ?PR?_WAIT_PLACA?VERIFICADOR
  +--> ?PR?UNIQUE_IDENTIFIER_UID?LINTECH
  +--> ?PR?_PREGUNTA_LPR?VERIFICADOR
  +--> ?PR?PREGUNTA_PLACA?VERIFICADOR
  +--> ?PR?_VALIDA_TIPO_TARJETA?VERIFICADOR
  +--> ?PR?POWER_OFF?LINTECH
  +--> ?PR?CLAVE_SEGURIDAD_S2?LINTECH
  +--> ?PR?_RESPONDE_REELECTURA_TARJETA_SECT...
  +--> ?PR?RESPONDE_ESTADO_SENSORES_TRANSPOR...
  +--> ?PR?RESPONDE_TIPO_TARJETA?VERIFICADOR
  +--> ?PR?_RESPONDE_LECTURA_TARJETA_SECTOR1...
  +--> ?PR?_RESPONDE_LECTURA_TARJETA_SECTOR1...
  +--> ?PR?_RESPONDE_LECTURA_TARJETA_SECTOR1...
  +--> ?PR?_RESPONDE_WRITE_TARJETA_SECTOR1_B...
  +--> ?PR?_RESPONDE_WRITE_TARJETA_SECTOR2_B...
  +--> ?PR?_RESPONDE_WRITE_TARJETA_SECTOR1_B...
  +--> ?PR?_RESPONDE_WRITE_TARJETA_SECTOR1_B...
  +--> ?PR?_DISPARO_LOCK_ENTRADA_VEHICULO?VE...
  +--> ?PR?_RESPUESTA_SEGUNDA_CLAVE?VERIFICADOR
  +--> ?PR?ANALIZA_PRESENCIA_MENSUAL?VERIFIC...
  +--> ?PR?_ANALIZA_UID_CARD?VERIFICADOR
  +--> ?PR?ANALIZA_PRESENCIA_ROTACION?VERIFI...
  +--> ?CO?VERIFICADOR
  +--> ?PR?_DEBUG_TXT_TIBBO?TIBBO

?PR?_CHECK_STATUS?LINTECH                        -----    -----      -----    -----      0002H    000BH
  +--> ?CO?LINTECH
  +--> ?PR?_DEBUG_TXT_TIBBO?TIBBO
  +--> ?PR?_DEBUGBUFFERMF?TIBBO
  +--> ?PR?_ESCRIBIRCADENASOFT_BUFFER?MAIN

?PR?_LOAD_SECUENCIA_EXPEDIDOR?VERIFIC...         -----    -----      -----    -----      0002H    0009H

?PR?_RTA_CMD_TRANSPORTE?VERIFICADOR              -----    -----      -----    -----      0002H    0005H
  +--> ?PR?TRAMA_VALIDACION_P_N?VERIFICADOR
  +--> ?CO?VERIFICADOR
  +--> ?PR?_DEBUG_TXT_TIBBO?TIBBO
BL51 BANKED LINKER/LOCATER V6.22.2.0                                                  06/11/2021  16:40:25  PAGE 16


  +--> ?PR?_DEBUGBUFFERMF?TIBBO
  +--> ?PR?ERROR_RX_PTO?VERIFICADOR

?PR?ERROR_RX_PTO?VERIFICADOR                     -----    -----      -----    -----      0007H    0001H
  +--> ?CO?VERIFICADOR
  +--> ?PR?_DEBUG_TXT_TIBBO?TIBBO
  +--> ?PR?_DEBUG_CHR_TIBBO?TIBBO
  +--> ?PR?_DELAY_10MS?DELAY

?PR?_MOV_CARD?LINTECH                            -----    -----      -----    -----      0002H    000CH
  +--> ?CO?LINTECH
  +--> ?PR?_DEBUG_TXT_TIBBO?TIBBO
  +--> ?PR?_DEBUGBUFFERMF?TIBBO
  +--> ?PR?_ESCRIBIRCADENASOFT_BUFFER?MAIN

?PR?_CARD_INSERCION?LINTECH                      -----    -----      -----    -----      0002H    000AH
  +--> ?CO?LINTECH
  +--> ?PR?_DEBUG_TXT_TIBBO?TIBBO
  +--> ?PR?_DEBUGBUFFERMF?TIBBO
  +--> ?PR?_ESCRIBIRCADENASOFT_BUFFER?MAIN

?PR?AUT_CARD_CHECK_STATUS?LINTECH                -----    -----      -----    -----      0002H    000BH
  +--> ?CO?LINTECH
  +--> ?PR?_DEBUG_TXT_TIBBO?TIBBO
  +--> ?PR?_DEBUGBUFFERMF?TIBBO
  +--> ?PR?_ESCRIBIRCADENASOFT_BUFFER?MAIN

?PR?LOADVERIFY_EEPROM?LINTECH                    -----    -----      -----    -----      0002H    0010H
  +--> ?CO?LINTECH
  +--> ?PR?_DEBUG_TXT_TIBBO?TIBBO
  +--> ?PR?_DEBUGBUFFERMF?TIBBO
  +--> ?PR?_ESCRIBIRCADENASOFT_BUFFER?MAIN

?PR?_RD_MF?LINTECH                               -----    -----      -----    -----      0002H    0012H
  +--> ?CO?LINTECH
  +--> ?PR?_DEBUG_TXT_TIBBO?TIBBO
  +--> ?PR?_DEBUG_CHR_TIBBO?TIBBO
  +--> ?PR?_DEBUGBUFFERMF?TIBBO
  +--> ?PR?_ESCRIBIRCADENASOFT_BUFFER?MAIN

?PR?_WR_MF?LINTECH                               -----    -----      -----    -----      0002H    0025H
  +--> ?CO?LINTECH
  +--> ?PR?_DEBUG_TXT_TIBBO?TIBBO
  +--> ?PR?_DEBUG_CHR_TIBBO?TIBBO
  +--> ?PR?_DEBUGBUFFERMF?TIBBO
  +--> ?PR?_ESCRIBIRCADENASOFT_BUFFER?MAIN

?PR?ANALIZA_CARD_MOUNT_RF?VERIFICADOR            -----    -----      -----    -----      0002H    0001H
  +--> ?CO?VERIFICADOR
  +--> ?PR?_DEBUG_TXT_TIBBO?TIBBO

?PR?ENTREGA_CARD_CAPTURA?VERIFICADOR             -----    -----      -----    -----      0002H    0001H
  +--> ?CO?VERIFICADOR
  +--> ?PR?_DEBUG_TXT_TIBBO?TIBBO
  +--> ?PR?SEL_SENSOR2?IO_SENSORES
  +--> ?PR?VALIDASENSOR?IO_SENSORES
  +--> ?PR?VALIDA_SENSOR1_AUTO?IO_SENSORES
BL51 BANKED LINKER/LOCATER V6.22.2.0                                                  06/11/2021  16:40:25  PAGE 17



?PR?VALIDA_SENSOR1_AUTO?IO_SENSORES              -----    -----      -----    -----      0012H    0001H
  +--> ?PR?SEL_SENSOR1?IO_SENSORES
  +--> ?PR?SEL_AUTO?IO_SENSORES
  +--> ?CO?IO_SENSORES
  +--> ?PR?_DEBUG_TXT_TIBBO?TIBBO
  +--> ?PR?BOTTON?IO_SENSORES

?PR?BOTTON?IO_SENSORES                           -----    -----      -----    -----      -----    -----
  +--> ?PR?SEL_PULSA?IO_SENSORES
  +--> ?CO?IO_SENSORES
  +--> ?PR?_DEBUG_TXT_TIBBO?TIBBO

?PR?_SEND_PTO_PARALELO?VERIFICADOR               -----    -----      -----    -----      0002H    0007H
  +--> ?PR?_ARMAR_TRAMA_PTO_PARALELO_EXPEDID...
  +--> ?PR?_ARMAR_TRAMA_PTO_PARALELO_EXPEDID...
  +--> ?PR?INCREMENTE_TICKET?EEPROM
  +--> ?PR?_SEND_PORT?PTO_PARALELO
  +--> ?CO?VERIFICADOR
  +--> ?PR?_DEBUG_TXT_TIBBO?TIBBO
  +--> ?PR?_DEBUGBUFFERMF?TIBBO
  +--> ?PR?CLEAR_PLACA?MONITOR

?PR?_ARMAR_TRAMA_PTO_PARALELO_EXPEDID...         -----    -----      -----    -----      0009H    0006H
  +--> ?PR?_BCD_HEX?CLOCK
  +--> ?PR?_RD_EEPROM?EEPROM

?PR?_ARMAR_TRAMA_PTO_PARALELO_EXPEDID...         -----    -----      -----    -----      0009H    0012H
  +--> ?PR?LEE_NO_TICKET?EEPROM
  +--> ?PR?_STRCAT?STRCAT
  +--> ?PR?_STRLEN?STRLEN
  +--> ?PR?_BCD_HEX?CLOCK
  +--> ?PR?_RD_EEPROM?EEPROM

?PR?INCREMENTE_TICKET?EEPROM                     -----    -----      -----    -----      0009H    000BH
  +--> ?PR?READ_EEPROM_TICKET?EEPROM
  +--> ?CO?EEPROM
  +--> ?PR?PRINTF?PRINTF
  +--> ?PR?_WRITE_EEPROM_TICKET?EEPROM

?PR?_WRITE_EEPROM_TICKET?EEPROM                  -----    -----      -----    -----      0016H    000BH
  +--> ?CO?EEPROM
  +--> ?PR?_DEBUG_TXT_TIBBO?TIBBO
  +--> ?PR?_ATOL?ATOL
  +--> ?PR?_DEBUG_CHR_TIBBO?TIBBO
  +--> ?PR?_WR_EEPROM?EEPROM

?PR?_ATOL?ATOL                                   0020H.0  0000H.1    -----    -----      0021H    0007H
  +--> ?PR?_ISSPACE?ISSPACE
  +--> ?PR?_ISDIGIT?ISDIGIT

?PR?_SEND_PORT?PTO_PARALELO                      -----    -----      -----    -----      0016H    000AH
  +--> ?PR?PULSO_BUS?PTO_PARALELO
  +--> ?PR?_DELAY_20US?DELAY

?PR?PULSO_BUS?PTO_PARALELO                       -----    -----      -----    -----      -----    -----
  +--> ?PR?_DELAY_20US?DELAY
BL51 BANKED LINKER/LOCATER V6.22.2.0                                                  06/11/2021  16:40:25  PAGE 18



?PR?_WAIT_PLACA?VERIFICADOR                      -----    -----      -----    -----      0002H    0007H
  +--> ?CO?VERIFICADOR
  +--> ?PR?_DEBUG_TXT_TIBBO?TIBBO
  +--> ?PR?RX_MONITOR?MONITOR
  +--> ?PR?_RESPUESTA_PLACA_CANCEL?VERIFICADOR

?PR?_RESPUESTA_PLACA_CANCEL?VERIFICADOR          -----    -----      -----    -----      0009H    000AH
  +--> ?CO?VERIFICADOR
  +--> ?PR?_DEBUG_TXT_TIBBO?TIBBO
  +--> ?PR?_ARMAR_TRAMA_TARJETA_SECTOR1_BLOQ...

?PR?_ARMAR_TRAMA_TARJETA_SECTOR1_BLOQ...         -----    -----      -----    -----      0013H    0004H
  +--> ?PR?CLEAR_PLACA?MONITOR
  +--> ?PR?_RD_EEPROM?EEPROM

?PR?UNIQUE_IDENTIFIER_UID?LINTECH                -----    -----      -----    -----      0002H    000BH
  +--> ?CO?LINTECH
  +--> ?PR?_DEBUG_TXT_TIBBO?TIBBO
  +--> ?PR?_DEBUGBUFFERMF?TIBBO
  +--> ?PR?_ESCRIBIRCADENASOFT_BUFFER?MAIN

?PR?_PREGUNTA_LPR?VERIFICADOR                    -----    -----      -----    -----      0002H    0003H
  +--> ?CO?VERIFICADOR
  +--> ?PR?_DEBUG_TXT_TIBBO?TIBBO
  +--> ?PR?_HORA_ENTRADA_VEHICULO?CLOCK
  +--> ?PR?_RD_EEPROM?EEPROM
  +--> ?PR?_ARMAR_TRAMA_MONITOR?VERIFICADOR

?PR?_HORA_ENTRADA_VEHICULO?CLOCK                 -----    -----      -----    -----      0005H    0003H
  +--> ?PR?_LEE_CLK?CLOCK

?PR?_ARMAR_TRAMA_MONITOR?VERIFICADOR             -----    -----      -----    -----      0005H    000FH
  +--> ?PR?DIR_BOARD_MONITOR?IO_SENSORES
  +--> ?PR?LEE_NO_TICKET?EEPROM
  +--> ?PR?_STRCAT?STRCAT
  +--> ?PR?_BYTEHEX_DECIMAL?CLOCK
  +--> ?PR?_STRLEN?STRLEN
  +--> ?PR?_TWO_BYTEHEX_DECIMAL?CLOCK

?PR?DIR_BOARD_MONITOR?IO_SENSORES                -----    -----      -----    -----      -----    -----
  +--> ?PR?_RD_EEPROM?EEPROM

?PR?_BYTEHEX_DECIMAL?CLOCK                       -----    -----      -----    -----      0014H    0001H

?PR?_TWO_BYTEHEX_DECIMAL?CLOCK                   -----    -----      -----    -----      0014H    000CH
  +--> ?PR?_POW?POW

?PR?_POW?POW                                     -----    -----      -----    -----      0020H    000AH
  +--> ?PR?LOG?LOG
  +--> ?PR?EXP?EXP

?PR?LOG?LOG                                      0020H.0  0000H.1    -----    -----      002AH    0004H

?PR?PREGUNTA_PLACA?VERIFICADOR                   -----    -----      -----    -----      0002H    0001H
  +--> ?CO?VERIFICADOR
  +--> ?PR?_DEBUG_TXT_TIBBO?TIBBO
BL51 BANKED LINKER/LOCATER V6.22.2.0                                                  06/11/2021  16:40:25  PAGE 19


  +--> ?PR?_RD_EEPROM?EEPROM

?PR?_VALIDA_TIPO_TARJETA?VERIFICADOR             -----    -----      -----    -----      0002H    0007H
  +--> ?CO?VERIFICADOR
  +--> ?PR?_DEBUG_TXT_TIBBO?TIBBO
  +--> ?PR?_RD_EEPROM?EEPROM
  +--> ?PR?_TARJETA_MENSUAL?VERIFICADOR
  +--> ?PR?_SEND_PORTERR?PTO_PARALELO
  +--> ?PR?_PANTALLALCD?PANTALLAS
  +--> ?PR?CAPTURA_EXPULSA?VERIFICADOR
  +--> ?PR?_TARJETA_ROTACION?VERIFICADOR

?PR?_TARJETA_MENSUAL?VERIFICADOR                 -----    -----      -----    -----      0009H    0007H
  +--> ?PR?_HORARIOS?VERIFICADOR
  +--> ?PR?_CHECK_FECHAOUT?CLOCK
  +--> ?PR?_VALIDA_VEHICULO_CARD_MENSUAL?VER...
  +--> ?PR?CAPTURA_EXPULSA?VERIFICADOR
  +--> ?CO?VERIFICADOR
  +--> ?PR?_DEBUG_TXT_TIBBO?TIBBO
  +--> ?PR?_ARMAR_TRAMA_TARJETA_SECTOR1_BLOQ...
  +--> ?PR?_SEND_PORTERR?PTO_PARALELO
  +--> ?PR?_PANTALLALCD?PANTALLAS

?PR?_HORARIOS?VERIFICADOR                        -----    -----      -----    -----      0010H    0013H
  +--> ?PR?ADDR_HORARIOS?PROG
  +--> ?PR?_RD_EEPROM?EEPROM
  +--> ?PR?_LEE_CLK?CLOCK
  +--> ?CO?VERIFICADOR
  +--> ?PR?_DEBUG_TXT_TIBBO?TIBBO
  +--> ?PR?_DEBUG_CHR_TIBBO?TIBBO
  +--> ?PR?_BLOQUE_HORARIO?VERIFICADOR
  +--> ?PR?_PANTALLALCD?PANTALLAS

?PR?_BLOQUE_HORARIO?VERIFICADOR                  -----    -----      -----    -----      0023H    0007H
  +--> ?CO?VERIFICADOR
  +--> ?PR?_DEBUG_TXT_TIBBO?TIBBO
  +--> ?PR?_LEE_CLK?CLOCK
  +--> ?PR?_DEBUG_CHR_TIBBO?TIBBO
  +--> ?PR?_HORA_MAXIMA?VERIFICADOR
  +--> ?PR?_EN_HORARIO?VERIFICADOR
  +--> ?PR?_RD_EEPROM?EEPROM
  +--> ?PR?_SEND_PORTERR?PTO_PARALELO
  +--> ?PR?_PANTALLALCD?PANTALLAS

?PR?_HORA_MAXIMA?VERIFICADOR                     -----    -----      -----    -----      002FH    0008H
  +--> ?PR?_RD_EEPROM?EEPROM
  +--> ?PR?_DEBUG_CHR_TIBBO?TIBBO
  +--> ?CO?VERIFICADOR
  +--> ?PR?_DEBUG_TXT_TIBBO?TIBBO

?PR?_EN_HORARIO?VERIFICADOR                      -----    -----      -----    -----      002AH    0005H
  +--> ?CO?VERIFICADOR
  +--> ?PR?_DEBUG_TXT_TIBBO?TIBBO
  +--> ?PR?_HORA_MAXIMA?VERIFICADOR

?PR?_SEND_PORTERR?PTO_PARALELO                   -----    -----      -----    -----      002AH    0006H
  +--> ?PR?PULSO_BUS?PTO_PARALELO
BL51 BANKED LINKER/LOCATER V6.22.2.0                                                  06/11/2021  16:40:25  PAGE 20


  +--> ?PR?_DELAY_20US?DELAY

?PR?_PANTALLALCD?PANTALLAS                       -----    -----      -----    -----      002AH    000AH
  +--> ?CO?PANTALLAS
  +--> ?PR?_LCD_TXT?PANTALLAS
  +--> ?PR?_STRLEN?STRLEN
  +--> ?PR?_TX_CHRLCD?PANTALLAS
  +--> ?PR?_RASPBERRY_DATA?PANTALLAS

?PR?_LCD_TXT?PANTALLAS                           -----    -----      -----    -----      0044H    0005H
  +--> ?PR?_TX_CHRLCD?PANTALLAS

?PR?_TX_CHRLCD?PANTALLAS                         -----    -----      -----    -----      0049H    0002H
  +--> ?PR?_PUTCHAR?MAIN

?PR?_RASPBERRY_DATA?PANTALLAS                    -----    -----      -----    -----      0044H    0006H
  +--> ?PR?_STRLEN?STRLEN
  +--> ?PR?_PUTCHAR?MAIN

?PR?_VALIDA_VEHICULO_CARD_MENSUAL?VER...         -----    -----      -----    -----      0010H    0004H
  +--> ?CO?VERIFICADOR
  +--> ?PR?_DEBUG_TXT_TIBBO?TIBBO
  +--> ?PR?_RD_EEPROM?EEPROM
  +--> ?PR?_SEND_PORTERR?PTO_PARALELO

?PR?_ARMAR_TRAMA_TARJETA_SECTOR1_BLOQ...         -----    -----      -----    -----      0010H    0006H
  +--> ?PR?_BCD_HEX?CLOCK
  +--> ?PR?DIR_BOARD?IO_SENSORES

?PR?DIR_BOARD?IO_SENSORES                        -----    -----      -----    -----      0033H    0001H
  +--> ?PR?SEL_DIR1?IO_SENSORES
  +--> ?PR?SEL_DIR2?IO_SENSORES
  +--> ?PR?_RD_EEPROM?EEPROM

?PR?_TARJETA_ROTACION?VERIFICADOR                -----    -----      -----    -----      0009H    0006H
  +--> ?PR?_ARMAR_TRAMA_TARJETA_SECTOR1_BLOQ...

?PR?POWER_OFF?LINTECH                            -----    -----      -----    -----      0002H    000BH
  +--> ?CO?LINTECH
  +--> ?PR?_DEBUG_TXT_TIBBO?TIBBO
  +--> ?PR?_DEBUGBUFFERMF?TIBBO
  +--> ?PR?_ESCRIBIRCADENASOFT_BUFFER?MAIN

?PR?CLAVE_SEGURIDAD_S2?LINTECH                   -----    -----      -----    -----      0002H    0016H
  +--> ?CO?LINTECH
  +--> ?PR?_DEBUG_TXT_TIBBO?TIBBO
  +--> ?PR?_DEBUGBUFFERMF?TIBBO
  +--> ?PR?_ESCRIBIRCADENASOFT_BUFFER?MAIN

?PR?_RESPONDE_REELECTURA_TARJETA_SECT...         -----    -----      -----    -----      0002H    000AH
  +--> ?CO?VERIFICADOR
  +--> ?PR?_DEBUG_TXT_TIBBO?TIBBO
  +--> ?PR?_DEBUGBUFFERMF?TIBBO
  +--> ?PR?_ARMAR_TRAMA_TARJETA_SECTOR1_BLOQ...

?PR?_ARMAR_TRAMA_TARJETA_SECTOR1_BLOQ...         -----    -----      -----    -----      000CH    0003H
  +--> ?PR?LEE_NO_TICKET?EEPROM
BL51 BANKED LINKER/LOCATER V6.22.2.0                                                  06/11/2021  16:40:25  PAGE 21



?PR?RESPONDE_ESTADO_SENSORES_TRANSPOR...         -----    -----      -----    -----      0002H    0001H
  +--> ?CO?VERIFICADOR
  +--> ?PR?_DEBUG_TXT_TIBBO?TIBBO
  +--> ?PR?_SEND_PORTERR?PTO_PARALELO
  +--> ?PR?INGRESO_VEHICULO?VERIFICADOR

?PR?INGRESO_VEHICULO?VERIFICADOR                 -----    -----      -----    -----      -----    -----
  +--> ?PR?VALIDASENSORESPASO?IO_SENSORES
  +--> ?PR?_RD_EEPROM?EEPROM
  +--> ?CO?VERIFICADOR
  +--> ?PR?_DEBUG_TXT_TIBBO?TIBBO
  +--> ?PR?_PANTALLALCD?PANTALLAS
  +--> ?PR?BOTTON?IO_SENSORES

?PR?VALIDASENSORESPASO?IO_SENSORES               -----    -----      -----    -----      0011H    0001H
  +--> ?PR?SEL_SENSOR2?IO_SENSORES
  +--> ?PR?VALIDASENSOR?IO_SENSORES
  +--> ?PR?VALIDA_SENSOR1_AUTO?IO_SENSORES
  +--> ?CO?IO_SENSORES
  +--> ?PR?_DEBUG_TXT_TIBBO?TIBBO

?PR?RESPONDE_TIPO_TARJETA?VERIFICADOR            -----    -----      -----    -----      0002H    0001H
  +--> ?CO?VERIFICADOR
  +--> ?PR?_DEBUG_TXT_TIBBO?TIBBO
  +--> ?PR?_SEND_PORTERR?PTO_PARALELO
  +--> ?PR?_PANTALLALCD?PANTALLAS
  +--> ?PR?CAPTURA_EXPULSA?VERIFICADOR

?PR?_RESPONDE_LECTURA_TARJETA_SECTOR1...         -----    -----      -----    -----      0002H    0016H
  +--> ?CO?VERIFICADOR
  +--> ?PR?_DEBUG_TXT_TIBBO?TIBBO
  +--> ?PR?_DEBUGBUFFERMF?TIBBO
  +--> ?PR?_RD_EEPROM?EEPROM
  +--> ?PR?_DEBUG_HEXDEC?TIBBO
  +--> ?PR?_DEBUG_CHR_TIBBO?TIBBO
  +--> ?PR?_SEND_PORTERR?PTO_PARALELO
  +--> ?PR?_PANTALLALCD?PANTALLAS
  +--> ?PR?CAPTURA_EXPULSA?VERIFICADOR

?PR?_DEBUG_HEXDEC?TIBBO                          -----    -----      -----    -----      0018H    0002H
  +--> ?PR?_TX_AUX?TIBBO

?PR?_RESPONDE_LECTURA_TARJETA_SECTOR1...         -----    -----      -----    -----      0002H    0004H
  +--> ?CO?VERIFICADOR
  +--> ?PR?_DEBUG_TXT_TIBBO?TIBBO
  +--> ?PR?CAPTURA_EXPULSA?VERIFICADOR

?PR?_RESPONDE_LECTURA_TARJETA_SECTOR1...         -----    -----      -----    -----      0002H    0015H
  +--> ?CO?VERIFICADOR
  +--> ?PR?_DEBUG_TXT_TIBBO?TIBBO
  +--> ?PR?_DEBUGBUFFERMF?TIBBO
  +--> ?PR?_DEBUG_CHR_TIBBO?TIBBO
  +--> ?PR?CAPTURA_EXPULSA?VERIFICADOR

?PR?_RESPONDE_WRITE_TARJETA_SECTOR1_B...         -----    -----      -----    -----      0002H    0007H
  +--> ?CO?VERIFICADOR
BL51 BANKED LINKER/LOCATER V6.22.2.0                                                  06/11/2021  16:40:25  PAGE 22


  +--> ?PR?_DEBUG_TXT_TIBBO?TIBBO
  +--> ?PR?_DEBUGBUFFERMF?TIBBO

?PR?_RESPONDE_WRITE_TARJETA_SECTOR2_B...         -----    -----      -----    -----      0002H    0003H
  +--> ?CO?VERIFICADOR
  +--> ?PR?_DEBUG_TXT_TIBBO?TIBBO
  +--> ?PR?_DEBUGBUFFERMF?TIBBO

?PR?_RESPONDE_WRITE_TARJETA_SECTOR1_B...         -----    -----      -----    -----      0002H    0003H
  +--> ?CO?VERIFICADOR
  +--> ?PR?_DEBUG_TXT_TIBBO?TIBBO
  +--> ?PR?_DEBUGBUFFERMF?TIBBO

?PR?_RESPONDE_WRITE_TARJETA_SECTOR1_B...         -----    -----      -----    -----      0002H    0003H
  +--> ?CO?VERIFICADOR
  +--> ?PR?_DEBUG_TXT_TIBBO?TIBBO
  +--> ?PR?_DEBUGBUFFERMF?TIBBO

?PR?_DISPARO_LOCK_ENTRADA_VEHICULO?VE...         -----    -----      -----    -----      0002H    0004H
  +--> ?CO?VERIFICADOR
  +--> ?PR?_DEBUG_TXT_TIBBO?TIBBO
  +--> ?PR?_SEND_PORTERR?PTO_PARALELO
  +--> ?PR?_PANTALLALCD_LINEA_2?PANTALLAS
  +--> ?PR?VALIDA_SENSOR1_AUTO?IO_SENSORES
  +--> ?PR?_PANTALLALCD?PANTALLAS

?PR?_PANTALLALCD_LINEA_2?PANTALLAS               -----    -----      -----    -----      0011H    0033H
  +--> ?CO?PANTALLAS
  +--> ?PR?_LCD_TXT?PANTALLAS
  +--> ?PR?_STRLEN?STRLEN
  +--> ?PR?_TX_CHRLCD?PANTALLAS
  +--> ?PR?_RASPBERRY_DATA?PANTALLAS
  +--> ?PR?LEE_NO_TICKET?EEPROM
  +--> ?PR?_STRCAT?STRCAT

?PR?_RESPUESTA_SEGUNDA_CLAVE?VERIFICADOR         -----    -----      -----    -----      0002H    0006H
  +--> ?CO?VERIFICADOR
  +--> ?PR?_DEBUG_TXT_TIBBO?TIBBO
  +--> ?PR?_DEBUGBUFFERMF?TIBBO
  +--> ?PR?_ARMAR_TRAMA_PLACA?VERIFICADOR

?PR?_ARMAR_TRAMA_PLACA?VERIFICADOR               -----    -----      -----    -----      0008H    0003H
  +--> ?PR?_STRLEN?STRLEN

?PR?ANALIZA_PRESENCIA_MENSUAL?VERIFIC...         -----    -----      -----    -----      0002H    0001H
  +--> ?PR?VALIDASENSORESPASO?IO_SENSORES
  +--> ?PR?_SEND_PORTERR?PTO_PARALELO
  +--> ?PR?_PANTALLALCD?PANTALLAS

?PR?_ANALIZA_UID_CARD?VERIFICADOR                -----    -----      -----    -----      0002H    0015H
  +--> ?CO?VERIFICADOR
  +--> ?PR?_DEBUG_TXT_TIBBO?TIBBO
  +--> ?PR?_DEBUGBUFFERMF?TIBBO
  +--> ?PR?_DEBUG_CHR_TIBBO?TIBBO

?PR?ANALIZA_PRESENCIA_ROTACION?VERIFI...         -----    -----      -----    -----      0002H    0001H
  +--> ?PR?VALIDASENSORESPASO?IO_SENSORES
BL51 BANKED LINKER/LOCATER V6.22.2.0                                                  06/11/2021  16:40:25  PAGE 23


  +--> ?PR?_SEND_PORTERR?PTO_PARALELO
  +--> ?PR?_PANTALLALCD?PANTALLAS

?PR?_RECIBE_PORT?PTO_PARALELO                    -----    -----      -----    -----      0001H    0008H
  +--> ?PR?OFF_TIMER0_INTERRUP?MAIN
  +--> ?PR?ON_TIMER0_INTERRUP?MAIN

?PR?_DEBUG_PTO_PARALELO?TIBBO                    -----    -----      -----    -----      0001H    0004H
  +--> ?CO?TIBBO
  +--> ?PR?_DEBUG_TXT_TIBBO?TIBBO
  +--> ?PR?_DEBUGBUFFERMF?TIBBO
  +--> ?PR?DEBUG_DIVIDIR_TEXTO?TIBBO

?PR?_VALIDA_TRAMA_PTO?ACCESCAN                   -----    -----      -----    -----      0001H    0010H
  +--> ?CO?ACCESCAN
  +--> ?PR?_DEBUG_TXT_TIBBO?TIBBO
  +--> ?PR?_DEBUG_CHR_TIBBO?TIBBO
  +--> ?PR?_VALIDAR_CLK?CLOCK
  +--> ?PR?_BLOCK_WRITE_CLOCK_ASCII?CLOCK
  +--> ?PR?RELOJ_PANTALLA_LCD?PANTALLAS
  +--> ?PR?_SEND_PORT?PTO_PARALELO
  +--> ?PR?_PANTALLALCD?PANTALLAS
  +--> ?PR?FORMATO_EEPROM?EEPROM
  +--> ?PR?_BYTEHEX_DECIMAL?CLOCK
  +--> ?PR?_TWO_BYTEHEX_DECIMAL?CLOCK
  +--> ?PR?VALIDASENSORESPASO?IO_SENSORES
  +--> ?PR?_CMD_LPR_SALIDA_WIEGAND?ACCESCAN
  +--> ?PR?_PANTALLALCD_LINEA_2?PANTALLAS
  +--> ?PR?_GRABA_SERIE?EEPROM

?PR?_BLOCK_WRITE_CLOCK_ASCII?CLOCK               -----    -----      -----    -----      0011H    0003H
  +--> ?CO?CLOCK
  +--> ?PR?_DEBUG_TXT_TIBBO?TIBBO
  +--> ?PR?_TWO_ONE?CLOCK
  +--> ?PR?_WR_CLK?CLOCK

?PR?_WR_CLK?CLOCK                                -----    -----      -----    -----      0014H    0002H
  +--> ?PR?_DELAY_20US?DELAY
  +--> ?PR?_EB_CLK?CLOCK

?PR?RELOJ_PANTALLA_LCD?PANTALLAS                 -----    -----      -----    -----      0011H    000DH
  +--> ?CO?PANTALLAS
  +--> ?PR?_BLOCK_READ_CLOCK?CLOCK
  +--> ?PR?_LCD_TXT_NUM_CHAR?PANTALLAS
  +--> ?PR?_BLOCK_READ_CLOCK_ASCII_RASBERRY?...
  +--> ?PR?_STRCAT?STRCAT
  +--> ?PR?_RASPBERRY_DATA?PANTALLAS

?PR?_BLOCK_READ_CLOCK?CLOCK                      -----    -----      -----    -----      001EH    0003H
  +--> ?PR?_LEE_CLK?CLOCK

?PR?_LCD_TXT_NUM_CHAR?PANTALLAS                  -----    -----      -----    -----      001EH    0006H
  +--> ?PR?_TX_CHRLCD?PANTALLAS

?PR?_BLOCK_READ_CLOCK_ASCII_RASBERRY?...         -----    -----      -----    -----      001EH    0003H
  +--> ?PR?_LEE_CLK?CLOCK

BL51 BANKED LINKER/LOCATER V6.22.2.0                                                  06/11/2021  16:40:25  PAGE 24


?PR?FORMATO_EEPROM?EEPROM                        -----    -----      -----    -----      0011H    0003H
  +--> ?PR?_WR_EEPROM?EEPROM

?PR?_CMD_LPR_SALIDA_WIEGAND?ACCESCAN             -----    -----      -----    -----      0011H    0022H
  +--> ?PR?DIR_BOARD?IO_SENSORES
  +--> ?PR?_BLOCK_READ_CLOCK_ASCII?CLOCK
  +--> ?PR?_MONITOR_CHR?ACCESCAN

?PR?_MONITOR_CHR?ACCESCAN                        -----    -----      -----    -----      0033H    0005H
  +--> ?PR?_TX_AUX?TIBBO

?PR?_GRABA_SERIE?EEPROM                          -----    -----      -----    -----      0011H    0005H
  +--> ?CO?EEPROM
  +--> ?PR?_DEBUG_TXT_TIBBO?TIBBO
  +--> ?PR?_WRITE_EEPROM_TICKET?EEPROM
  +--> ?PR?_WR_EEPROM?EEPROM

?PR?MSJ_LCD_INFORMATIVO?IO_SENSORES              -----    -----      -----    -----      0001H    0001H
  +--> ?PR?SEL_FUNCION?IO_SENSORES
  +--> ?PR?VALIDASENSOR_CERO?IO_SENSORES
  +--> ?CO?IO_SENSORES
  +--> ?PR?_DEBUG_TXT_TIBBO?TIBBO
  +--> ?PR?_DEBUG_CHR_TIBBO?TIBBO
  +--> ?PR?LOAD_AND_SEND_INFO_RELOJ?PTO_PARA...
  +--> ?PR?VALIDASENSOR?IO_SENSORES
  +--> ?PR?_DELAY_10MS?DELAY
  +--> ?PR?LOAD_AND_SEND_ID_COD?PTO_PARALELO

?PR?LOAD_AND_SEND_INFO_RELOJ?PTO_PARA...         -----    -----      -----    -----      0002H    000BH
  +--> ?PR?_BLOCK_READ_CLOCK?CLOCK
  +--> ?PR?_LEE_CLK?CLOCK
  +--> ?CO?PTO_PARALELO
  +--> ?PR?_DEBUG_TXT_TIBBO?TIBBO
  +--> ?PR?_DEBUGBUFFERMF?TIBBO
  +--> ?PR?DEBUG_DIVIDIR_TEXTO?TIBBO
  +--> ?PR?_SEND_PORT?PTO_PARALELO

?PR?LOAD_AND_SEND_ID_COD?PTO_PARALELO            -----    -----      -----    -----      0002H    0014H
  +--> ?PR?_RD_EEPROM?EEPROM
  +--> ?CO?PTO_PARALELO
  +--> ?PR?PRINTF?PRINTF
  +--> ?PR?_STRCAT?STRCAT
  +--> ?PR?_STRLEN?STRLEN
  +--> ?PR?_DEBUG_TXT_TIBBO?TIBBO
  +--> ?PR?_DEBUGBUFFERMF?TIBBO
  +--> ?PR?DEBUG_DIVIDIR_TEXTO?TIBBO
  +--> ?PR?_SEND_PORT?PTO_PARALELO



SYMBOL TABLE OF MODULE:  .\Objects\expedidor_v_01_raspberry (MAIN)

  VALUE           TYPE          NAME
  ----------------------------------

  -------         MODULE        MAIN
  C:0000H         SYMBOL        _ICE_DUMMY_
BL51 BANKED LINKER/LOCATER V6.22.2.0                                                  06/11/2021  16:40:25  PAGE 25


  D:0080H         PUBLIC        P0
  D:0090H         PUBLIC        P1
  C:BE71H         PUBLIC        timer0_int
  D:00B0H         PUBLIC        P3
  B:00A8H.7       PUBLIC        EA
  C:C2B2H         PUBLIC        off_Timer0_Interrup
  X:0171H         PUBLIC        ValTimeOutCom
  X:0172H         PUBLIC        Buffer_Rta_Lintech
  X:01A4H         PUBLIC        Timer_wait
  B:0021H.1       PUBLIC        pto_paraleo
  X:01A5H         PUBLIC        g_cContByteRx
  B:0080H.0       PUBLIC        rx_ip
  C:AD58H         PUBLIC        main
  X:01A6H         PUBLIC        Timer_tivo
  B:0080H.3       PUBLIC        Atascado_GP0_PIN_3
  C:B4C1H         PUBLIC        variable_inicio
  B:0090H.7       PUBLIC        lock
  I:0023H         PUBLIC        rbuf
  C:C2A8H         PUBLIC        on_Timer0_Interrup
  I:0055H         PUBLIC        tbuf
  B:0090H.1       PUBLIC        DataIn
  D:0089H         PUBLIC        TMOD
  X:01A8H         PUBLIC        USE_LPR
  X:01A9H         PUBLIC        Debug_Tibbo
  X:01AAH         PUBLIC        Raspberry
  X:01ABH         PUBLIC        SIN_COBRO
  X:01ADH         PUBLIC        Tipo_Vehiculo
  B:00B0H.3       PUBLIC        busy
  C:C209H         PUBLIC        ini_timer
  B:00A8H.1       PUBLIC        ET0
  B:0088H.5       PUBLIC        TF0
  D:008CH         PUBLIC        TH0
  X:01AEH         PUBLIC        ACK
  X:01AFH         PUBLIC        g_cEstadoComSoft
  D:008AH         PUBLIC        TL0
  B:0088H.4       PUBLIC        TR0
  C:C219H         PUBLIC        inicia_board
  X:01B0H         PUBLIC        T_GRACIA
  B:0080H.7       PUBLIC        sel_com
  X:01B2H         PUBLIC        STX_LINTECH
  C:C238H         PUBLIC        _getkey
  X:01B3H         PUBLIC        ETX
  C:B75DH         PUBLIC        _EscribirCadenaSoft_buffer
  B:0021H.2       PUBLIC        buffer_ready
  C:BA39H         PUBLIC        _putchar
  B:0021H.3       PUBLIC        placa_ready
  -------         PROC          TIMER0_INT
  C:BE71H         LINE#         16
  C:BE77H         LINE#         19
  C:BE7DH         LINE#         20
  C:BE82H         LINE#         21
  C:BE82H         LINE#         22
  C:BE88H         LINE#         23
  C:BE88H         LINE#         25
  C:BE96H         LINE#         26
  C:BE98H         LINE#         28
  -------         ENDPROC       TIMER0_INT
BL51 BANKED LINKER/LOCATER V6.22.2.0                                                  06/11/2021  16:40:25  PAGE 26


  -------         PROC          INI_TIMER
  C:C209H         LINE#         31
  C:C209H         LINE#         32
  C:C209H         LINE#         34
  C:C211H         LINE#         36
  C:C214H         LINE#         37
  C:C216H         LINE#         38
  C:C218H         LINE#         40
  -------         ENDPROC       INI_TIMER
  -------         PROC          ON_TIMER0_INTERRUP
  C:C2A8H         LINE#         43
  C:C2A8H         LINE#         44
  C:C2A8H         LINE#         45
  C:C2AAH         LINE#         46
  C:C2ACH         LINE#         48
  -------         ENDPROC       ON_TIMER0_INTERRUP
  -------         PROC          OFF_TIMER0_INTERRUP
  C:C2B2H         LINE#         51
  C:C2B2H         LINE#         52
  C:C2B2H         LINE#         53
  C:C2B4H         LINE#         55
  -------         ENDPROC       OFF_TIMER0_INTERRUP
  -------         PROC          _GETKEY
  -------         DO            
  D:0006H         SYMBOL        k
  -------         ENDDO         
  C:C238H         LINE#         63
  C:C238H         LINE#         64
  C:C238H         LINE#         68
  C:C238H         LINE#         69
  C:C23BH         LINE#         70
  C:C23BH         LINE#         71
  C:C243H         LINE#         73
  C:C243H         LINE#         74
  -------         ENDPROC       _GETKEY
  -------         PROC          _PUTCHAR
  X:00A7H         SYMBOL        c
  -------         DO            
  X:00A8H         SYMBOL        i
  -------         ENDDO         
  C:BA39H         LINE#         78
  C:BA3EH         LINE#         79
  C:BA3EH         LINE#         82
  C:BA4DH         LINE#         83
  C:BA4DH         LINE#         84
  C:BA63H         LINE#         85
  C:BA63H         LINE#         87
  C:BA71H         LINE#         88
  C:BA71H         LINE#         90
  C:BA76H         LINE#         91
  -------         ENDPROC       _PUTCHAR
  -------         PROC          _ESCRIBIRCADENASOFT_BUFFER
  X:0027H         SYMBOL        buffer
  X:002AH         SYMBOL        tamano_cadena
  -------         DO            
  X:002BH         SYMBOL        i
  X:002CH         SYMBOL        d
BL51 BANKED LINKER/LOCATER V6.22.2.0                                                  06/11/2021  16:40:25  PAGE 27


  -------         ENDDO         
  C:B75DH         LINE#         95
  C:B76BH         LINE#         96
  C:B76BH         LINE#         98
  C:B779H         LINE#         99
  C:B779H         LINE#         100
  C:B790H         LINE#         101
  C:B79AH         LINE#         102
  C:B7A2H         LINE#         103
  -------         ENDPROC       _ESCRIBIRCADENASOFT_BUFFER
  -------         PROC          INICIA_BOARD
  C:C219H         LINE#         108
  C:C219H         LINE#         109
  C:C219H         LINE#         110
  C:C21CH         LINE#         111
  C:C21FH         LINE#         112
  C:C222H         LINE#         113
  C:C224H         LINE#         114
  C:C226H         LINE#         115
  C:C228H         LINE#         117
  -------         ENDPROC       INICIA_BOARD
  -------         PROC          VARIABLE_INICIO
  C:B4C1H         LINE#         122
  C:B4C1H         LINE#         123
  C:B4C1H         LINE#         126
  C:B4D2H         LINE#         127
  C:B4E3H         LINE#         128
  C:B4F1H         LINE#         129
  C:B4FFH         LINE#         130
  C:B50DH         LINE#         133
  -------         ENDPROC       VARIABLE_INICIO
  -------         PROC          MAIN
  -------         DO            
  X:0148H         SYMBOL        buffer
  X:0170H         SYMBOL        Estado_Comunicacion_Secuencia_MF
  X:0000H         SYMBOL        Length_trama
  -------         ENDDO         
  C:AD58H         LINE#         141
  C:AD58H         LINE#         142
  C:AD58H         LINE#         149
  C:AD5BH         LINE#         150
  C:AD5EH         LINE#         151
  C:AD61H         LINE#         152
  C:AD64H         LINE#         153
  C:AD67H         LINE#         154
  C:AD69H         LINE#         156
  C:AD6CH         LINE#         157
  C:AD73H         LINE#         158
  C:AD76H         LINE#         160
  C:AD7BH         LINE#         162
  C:AD7EH         LINE#         164
  C:AD81H         LINE#         165
  C:AD81H         LINE#         166
  C:AD84H         LINE#         167
  C:AD84H         LINE#         170
  C:AD87H         LINE#         171
  C:AD8DH         LINE#         172
BL51 BANKED LINKER/LOCATER V6.22.2.0                                                  06/11/2021  16:40:25  PAGE 28


  C:AD93H         LINE#         174
  C:AD93H         LINE#         175
  C:AD93H         LINE#         178
  C:AD96H         LINE#         179
  C:AD96H         LINE#         180
  C:AD99H         LINE#         181
  C:AD99H         LINE#         185
  C:ADA6H         LINE#         190
  C:ADACH         LINE#         191
  C:ADACH         LINE#         193
  C:ADBBH         LINE#         196
  C:ADC4H         LINE#         197
  C:ADD2H         LINE#         202
  C:ADD2H         LINE#         203
  C:ADD5H         LINE#         206
  -------         ENDPROC       MAIN
  -------         ENDMOD        MAIN

  -------         MODULE        ACCESCAN
  C:0000H         SYMBOL        _ICE_DUMMY_
  D:0080H         PUBLIC        P0
  D:0090H         PUBLIC        P1
  D:00B0H         PUBLIC        P3
  B:0080H.2       PUBLIC        led_err_imp
  C:B8F8H         PUBLIC        _Monitor_chr
  B:0080H.3       PUBLIC        Atascado_GP0_PIN_3
  B:0090H.7       PUBLIC        lock
  C:35C6H         PUBLIC        _Valida_Trama_Pto
  C:8B52H         PUBLIC        _Cmd_LPR_Salida_wiegand
  -------         PROC          _VALIDA_TRAMA_PTO
  X:0001H         SYMBOL        buffer
  X:0004H         SYMBOL        length_trama
  -------         DO            
  X:0218H         SYMBOL        cont
  X:0005H         SYMBOL        bcc
  D:0004H         SYMBOL        j
  X:0006H         SYMBOL        buff
  -------         ENDDO         
  C:35C6H         LINE#         113
  C:35D4H         LINE#         114
  C:35D4H         LINE#         117
  C:35D7H         LINE#         123
  C:361AH         LINE#         124
  C:361AH         LINE#         125
  C:3623H         LINE#         126
  C:3638H         LINE#         127
  C:3641H         LINE#         128
  C:364EH         LINE#         129
  C:364EH         LINE#         130
  C:366AH         LINE#         131
  C:366DH         LINE#         133
  C:3676H         LINE#         134
  C:367EH         LINE#         135
  C:3687H         LINE#         136
  C:36A0H         LINE#         137
  C:36A0H         LINE#         139
  C:36B0H         LINE#         140
BL51 BANKED LINKER/LOCATER V6.22.2.0                                                  06/11/2021  16:40:25  PAGE 29


  C:36B0H         LINE#         141
  C:36C3H         LINE#         143
  C:36C6H         LINE#         145
  C:36C6H         LINE#         148
  C:36C6H         LINE#         150
  C:36C6H         LINE#         152
  C:36CCH         LINE#         153
  C:36D0H         LINE#         154
  C:36D4H         LINE#         155
  C:36D7H         LINE#         156
  C:36E2H         LINE#         158
  C:36EBH         LINE#         159
  C:36F3H         LINE#         160
  C:36FBH         LINE#         161
  C:3703H         LINE#         162
  C:370CH         LINE#         163
  C:370CH         LINE#         166
  C:370CH         LINE#         169
  C:371EH         LINE#         170
  C:371EH         LINE#         171
  C:3720H         LINE#         172
  C:3723H         LINE#         174
  C:3735H         LINE#         175
  C:3735H         LINE#         176
  C:3737H         LINE#         177
  C:373AH         LINE#         179
  C:374CH         LINE#         180
  C:374CH         LINE#         181
  C:374EH         LINE#         182
  C:3751H         LINE#         184
  C:376BH         LINE#         185
  C:376BH         LINE#         186
  C:376DH         LINE#         187
  C:3770H         LINE#         189
  C:378AH         LINE#         190
  C:378AH         LINE#         191
  C:378CH         LINE#         192
  C:378FH         LINE#         194
  C:37A1H         LINE#         195
  C:37A1H         LINE#         196
  C:37A7H         LINE#         197
  C:37B4H         LINE#         198
  C:37B4H         LINE#         199
  C:37B9H         LINE#         200
  C:37BBH         LINE#         201
  C:37C0H         LINE#         202
  C:37C2H         LINE#         203
  C:37C4H         LINE#         204
  C:37C8H         LINE#         205
  C:37C8H         LINE#         206
  C:37C9H         LINE#         208
  C:37E1H         LINE#         209
  C:37E1H         LINE#         211
  C:37EEH         LINE#         212
  C:37EEH         LINE#         213
  C:37F0H         LINE#         214
  C:37F2H         LINE#         215
BL51 BANKED LINKER/LOCATER V6.22.2.0                                                  06/11/2021  16:40:25  PAGE 30


  C:37F4H         LINE#         216
  C:37F6H         LINE#         217
  C:37F6H         LINE#         219
  C:381CH         LINE#         220
  C:381CH         LINE#         221
  C:3820H         LINE#         222
  C:3825H         LINE#         223
  C:382EH         LINE#         224
  C:3833H         LINE#         225
  C:3833H         LINE#         228
  C:3834H         LINE#         230
  C:384EH         LINE#         231
  C:384EH         LINE#         232
  C:3850H         LINE#         233
  C:3853H         LINE#         235
  C:3883H         LINE#         236
  C:3883H         LINE#         237
  C:3886H         LINE#         238
  C:3886H         LINE#         240
  C:38A0H         LINE#         241
  C:38A0H         LINE#         242
  C:38A2H         LINE#         243
  C:38A5H         LINE#         245
  C:38BFH         LINE#         246
  C:38BFH         LINE#         247
  C:38C1H         LINE#         248
  C:38C3H         LINE#         250
  C:38DDH         LINE#         251
  C:38DDH         LINE#         252
  C:38DFH         LINE#         253
  C:38E1H         LINE#         256
  C:38FBH         LINE#         257
  C:38FBH         LINE#         258
  C:38FDH         LINE#         259
  C:38FFH         LINE#         263
  C:3919H         LINE#         264
  C:3919H         LINE#         265
  C:391BH         LINE#         266
  C:391DH         LINE#         269
  C:3937H         LINE#         270
  C:3937H         LINE#         271
  C:393CH         LINE#         272
  C:393CH         LINE#         275
  C:396DH         LINE#         276
  C:396DH         LINE#         277
  C:3975H         LINE#         278
  C:397EH         LINE#         279
  C:3981H         LINE#         282
  C:39B2H         LINE#         283
  C:39B2H         LINE#         285
  C:39BAH         LINE#         286
  C:39C3H         LINE#         287
  C:39C6H         LINE#         290
  C:3A06H         LINE#         291
  C:3A06H         LINE#         293
  C:3A1BH         LINE#         294
  C:3A21H         LINE#         295
BL51 BANKED LINKER/LOCATER V6.22.2.0                                                  06/11/2021  16:40:25  PAGE 31


  C:3A4BH         LINE#         298
  C:3A53H         LINE#         299
  C:3A53H         LINE#         302
  C:3A5AH         LINE#         303
  C:3A5AH         LINE#         304
  C:3A5FH         LINE#         305
  C:3A5FH         LINE#         306
  C:3A61H         LINE#         308
  C:3A61H         LINE#         309
  C:3A6AH         LINE#         310
  C:3A72H         LINE#         311
  C:3A72H         LINE#         315
  C:3A74H         LINE#         318
  C:3A74H         LINE#         326
  C:3A7CH         LINE#         330
  C:3A7CH         LINE#         331
  C:3A7EH         LINE#         333
  C:3AB6H         LINE#         334
  C:3AB6H         LINE#         335
  C:3ABEH         LINE#         336
  C:3ACAH         LINE#         337
  C:3ACAH         LINE#         339
  C:3AF7H         LINE#         340
  C:3AF7H         LINE#         341
  C:3B06H         LINE#         343
  C:3B06H         LINE#         345
  -------         ENDPROC       _VALIDA_TRAMA_PTO
  -------         PROC          _MONITOR_CHR
  X:0033H         SYMBOL        str
  X:0036H         SYMBOL        num_char
  -------         DO            
  X:0037H         SYMBOL        j
  -------         ENDDO         
  C:B8F8H         LINE#         500
  C:B906H         LINE#         501
  C:B906H         LINE#         503
  C:B914H         LINE#         504
  C:B914H         LINE#         505
  C:B926H         LINE#         506
  C:B930H         LINE#         507
  C:B938H         LINE#         508
  -------         ENDPROC       _MONITOR_CHR
  -------         PROC          _CMD_LPR_SALIDA_WIEGAND
  X:0011H         SYMBOL        buffer
  -------         DO            
  X:0014H         SYMBOL        Buffer_Lpr
  X:0032H         SYMBOL        j
  -------         ENDDO         
  C:8B52H         LINE#         513
  C:8B5DH         LINE#         514
  C:8B5DH         LINE#         516
  C:8B63H         LINE#         517
  C:8B68H         LINE#         518
  C:8B70H         LINE#         519
  C:8B74H         LINE#         520
  C:8B7DH         LINE#         521
  C:8B7DH         LINE#         522
BL51 BANKED LINKER/LOCATER V6.22.2.0                                                  06/11/2021  16:40:25  PAGE 32


  C:8B8EH         LINE#         523
  C:8B90H         LINE#         525
  C:8B90H         LINE#         526
  C:8BA1H         LINE#         527
  C:8BA1H         LINE#         531
  C:8BB8H         LINE#         532
  C:8BB8H         LINE#         533
  C:8BC7H         LINE#         534
  C:8BD1H         LINE#         536
  C:8BD9H         LINE#         537
  C:8BEDH         LINE#         539
  C:8BFDH         LINE#         540
  C:8C0EH         LINE#         541
  C:8C1BH         LINE#         545
  -------         ENDPROC       _CMD_LPR_SALIDA_WIEGAND
  -------         ENDMOD        ACCESCAN

  -------         MODULE        CLOCK
  C:0000H         SYMBOL        _ICE_DUMMY_
  C:B96DH         PUBLIC        _two_one
  D:0090H         PUBLIC        P1
  C:7903H         PUBLIC        _validar_clk
  C:BEC9H         PUBLIC        _wr_clk
  C:8F5CH         PUBLIC        _check_fechaOut
  C:60F5H         PUBLIC        _Block_read_clock_ascii_rasberry
  B:00D0H.7       PUBLIC        CY
  C:0003H         PUBLIC        p_ck
  C:A333H         PUBLIC        _hex_ascii
  C:AF47H         PUBLIC        _hora_entrada_vehiculo
  X:0219H         PUBLIC        data_clk
  C:C26AH         PUBLIC        cond_ini_clock
  C:9025H         PUBLIC        _Block_read_Clock
  B:0090H.4       PUBLIC        sck
  C:9C6CH         PUBLIC        _Block_read_Clock_Hex
  C:67C7H         PUBLIC        _Block_read_clock_ascii
  C:BAD1H         PUBLIC        _hex_bcd
  C:C0E0H         PUBLIC        _bcd_hex
  C:B2A5H         PUBLIC        _ByteHex_Decimal
  C:A45FH         PUBLIC        _lee_clk
  B:0090H.5       PUBLIC        io
  C:9E5BH         PUBLIC        _Block_write_clock_ascii
  B:0090H.6       PUBLIC        rst
  C:B9FAH         PUBLIC        _eb_clk
  C:47E3H         PUBLIC        _Two_ByteHex_Decimal
  -------         PROC          P_CK
  C:0003H         LINE#         69
  C:0003H         LINE#         70
  C:0003H         LINE#         71
  C:0005H         LINE#         72
  C:0008H         LINE#         73
  C:000AH         LINE#         74
  -------         ENDPROC       P_CK
  -------         PROC          _EB_CLK
  X:00B4H         SYMBOL        dir_clk
  -------         DO            
  X:00B5H         SYMBOL        nbits
  -------         ENDDO         
BL51 BANKED LINKER/LOCATER V6.22.2.0                                                  06/11/2021  16:40:25  PAGE 33


  C:B9FAH         LINE#         76
  C:B9FFH         LINE#         78
  C:BA04H         LINE#         79
  C:BA04H         LINE#         80
  C:BA0DH         LINE#         81
  C:BA10H         LINE#         82
  C:BA10H         LINE#         83
  C:BA12H         LINE#         84
  C:BA14H         LINE#         86
  C:BA14H         LINE#         87
  C:BA16H         LINE#         88
  C:BA16H         LINE#         89
  C:BA19H         LINE#         90
  C:BA38H         LINE#         91
  -------         ENDPROC       _EB_CLK
  C:A455H         SYMBOL        L?0084
  -------         PROC          L?0083
  -------         ENDPROC       L?0083
  C:A455H         SYMBOL        L?0084
  -------         PROC          _LEE_CLK
  X:00B1H         SYMBOL        dir_clk
  -------         DO            
  X:00B2H         SYMBOL        nbits
  -------         ENDDO         
  C:A45FH         LINE#         93
  C:A464H         LINE#         95
  C:A466H         LINE#         96
  C:A46DH         LINE#         97
  C:A475H         LINE#         98
  C:A48EH         LINE#         99
  C:A48EH         LINE#         100
  C:A491H         LINE#         101
  C:A491H         LINE#         102
  C:A498H         LINE#         103
  C:A4A2H         LINE#         104
  C:A4A7H         LINE#         105
  C:A4A7H         LINE#         106
  C:A4A7H         LINE#         107
  C:A4AAH         LINE#         108
  C:A4AAH         LINE#         109
  C:A4B1H         LINE#         110
  C:A4C2H         LINE#         111
  C:A4C2H         LINE#         112
  C:A4CAH         LINE#         113
  C:A4CAH         LINE#         114
  C:A4CAH         LINE#         115
  C:A4CDH         LINE#         116
  C:A4DDH         LINE#         117
  C:A4DFH         LINE#         118
  C:A4E4H         LINE#         119
  -------         ENDPROC       _LEE_CLK
  -------         PROC          _WR_CLK
  X:0014H         SYMBOL        dir_clk
  X:0015H         SYMBOL        byte
  C:BEC9H         LINE#         121
  C:BED1H         LINE#         122
  C:BED3H         LINE#         123
BL51 BANKED LINKER/LOCATER V6.22.2.0                                                  06/11/2021  16:40:25  PAGE 34


  C:BEDAH         LINE#         124
  C:BEE2H         LINE#         125
  C:BEEBH         LINE#         126
  C:BEEEH         LINE#         127
  C:BEF0H         LINE#         129
  -------         ENDPROC       _WR_CLK
  C:B939H         SYMBOL        L?0079
  C:B957H         SYMBOL        L?0080
  -------         PROC          L?0078
  -------         ENDPROC       L?0078
  C:B939H         SYMBOL        L?0079
  C:B957H         SYMBOL        L?0080
  -------         PROC          _TWO_ONE
  D:0007H         SYMBOL        byte_h
  D:0005H         SYMBOL        byte_l
  -------         DO            
  D:0007H         SYMBOL        byte_out
  -------         ENDDO         
  C:B96DH         LINE#         131
  C:B96DH         LINE#         132
  C:B96DH         LINE#         134
  C:B970H         LINE#         135
  C:B974H         LINE#         136
  C:B977H         LINE#         137
  C:B979H         LINE#         138
  C:B979H         LINE#         139
  -------         ENDPROC       _TWO_ONE
  -------         PROC          _VALIDAR_CLK
  D:0001H         SYMBOL        datos_clock
  -------         DO            
  D:0007H         SYMBOL        validador
  -------         ENDDO         
  C:7903H         LINE#         143
  C:7903H         LINE#         144
  C:7903H         LINE#         145
  C:7905H         LINE#         148
  C:791AH         LINE#         149
  C:791AH         LINE#         151
  C:7932H         LINE#         152
  C:7932H         LINE#         154
  C:794AH         LINE#         155
  C:794AH         LINE#         156
  C:7962H         LINE#         157
  C:7962H         LINE#         158
  C:797AH         LINE#         159
  C:797AH         LINE#         160
  C:798FH         LINE#         161
  C:798FH         LINE#         162
  C:79A1H         LINE#         163
  C:79A1H         LINE#         164
  C:79B3H         LINE#         165
  C:79B3H         LINE#         166
  C:79C5H         LINE#         167
  C:79C5H         LINE#         168
  C:79D7H         LINE#         169
  C:79D7H         LINE#         170
  C:79E9H         LINE#         171
BL51 BANKED LINKER/LOCATER V6.22.2.0                                                  06/11/2021  16:40:25  PAGE 35


  C:79E9H         LINE#         172
  C:79F9H         LINE#         173
  C:79F9H         LINE#         174
  C:79F9H         LINE#         175
  C:79F9H         LINE#         176
  C:79FAH         LINE#         178
  C:79FAH         LINE#         179
  C:79FCH         LINE#         180
  C:79FCH         LINE#         181
  C:79FDH         LINE#         183
  C:79FDH         LINE#         184
  C:79FFH         LINE#         186
  C:79FFH         LINE#         187
  C:7A00H         LINE#         189
  C:7A00H         LINE#         190
  C:7A02H         LINE#         192
  C:7A02H         LINE#         194
  C:7A03H         LINE#         196
  C:7A03H         LINE#         197
  C:7A05H         LINE#         199
  C:7A05H         LINE#         200
  C:7A06H         LINE#         202
  C:7A06H         LINE#         203
  C:7A08H         LINE#         205
  C:7A08H         LINE#         206
  C:7A09H         LINE#         208
  C:7A09H         LINE#         209
  C:7A0BH         LINE#         211
  C:7A0BH         LINE#         212
  C:7A0CH         LINE#         214
  C:7A0CH         LINE#         215
  C:7A0EH         LINE#         217
  C:7A0EH         LINE#         218
  C:7A0EH         LINE#         220
  C:7A0FH         LINE#         222
  C:7A0FH         LINE#         223
  C:7A11H         LINE#         225
  C:7A11H         LINE#         227
  C:7A12H         LINE#         230
  C:7A12H         LINE#         231
  C:7A14H         LINE#         233
  C:7A14H         LINE#         235
  C:7A15H         LINE#         238
  C:7A15H         LINE#         239
  C:7A17H         LINE#         241
  C:7A17H         LINE#         243
  C:7A17H         LINE#         245
  -------         ENDPROC       _VALIDAR_CLK
  -------         PROC          _BLOCK_WRITE_CLOCK_ASCII
  X:0011H         SYMBOL        datos_clock
  -------         DO            
  D:0007H         SYMBOL        temp
  -------         ENDDO         
  C:9E5BH         LINE#         251
  C:9E66H         LINE#         253
  C:9E66H         LINE#         256
  C:9E6FH         LINE#         257
BL51 BANKED LINKER/LOCATER V6.22.2.0                                                  06/11/2021  16:40:25  PAGE 36


  C:9E78H         LINE#         259
  C:9E82H         LINE#         260
  C:9E82H         LINE#         261
  C:9E82H         LINE#         262
  C:9E82H         LINE#         264
  C:9E8CH         LINE#         265
  C:9E96H         LINE#         266
  C:9EA0H         LINE#         267
  C:9EA0H         LINE#         268
  C:9EA0H         LINE#         269
  C:9EA0H         LINE#         271
  C:9EAAH         LINE#         272
  C:9EAAH         LINE#         273
  C:9EAAH         LINE#         274
  C:9EAAH         LINE#         276
  C:9EB4H         LINE#         277
  C:9EB4H         LINE#         278
  C:9EB4H         LINE#         279
  C:9EB4H         LINE#         281
  C:9EBEH         LINE#         282
  C:9EBEH         LINE#         283
  C:9EBEH         LINE#         284
  C:9EBEH         LINE#         286
  C:9EC8H         LINE#         287
  C:9ED2H         LINE#         288
  C:9EDCH         LINE#         289
  C:9EE6H         LINE#         291
  C:9EF6H         LINE#         292
  -------         ENDPROC       _BLOCK_WRITE_CLOCK_ASCII
  -------         PROC          _BCD_HEX
  D:0007H         SYMBOL        l_data
  -------         DO            
  D:0006H         SYMBOL        temp
  D:0005H         SYMBOL        j
  -------         ENDDO         
  C:C0E0H         LINE#         298
  C:C0E0H         LINE#         299
  C:C0E0H         LINE#         301
  C:C0E2H         LINE#         302
  C:C0E6H         LINE#         303
  C:C0E9H         LINE#         304
  C:C0EBH         LINE#         305
  C:C0EBH         LINE#         306
  C:C0EFH         LINE#         307
  C:C0F6H         LINE#         308
  C:C0F6H         LINE#         309
  C:C0FAH         LINE#         310
  C:C0FDH         LINE#         311
  C:C0FDH         LINE#         312
  C:C0FDH         LINE#         313
  -------         ENDPROC       _BCD_HEX
  C:BAC2H         SYMBOL        L?0082
  -------         PROC          L?0081
  -------         ENDPROC       L?0081
  C:BAC2H         SYMBOL        L?0082
  -------         PROC          _HEX_BCD
  D:0007H         SYMBOL        byte
BL51 BANKED LINKER/LOCATER V6.22.2.0                                                  06/11/2021  16:40:25  PAGE 37


  -------         DO            
  D:0006H         SYMBOL        nibble_h
  D:0005H         SYMBOL        nibble_l
  D:0004H         SYMBOL        k
  D:0007H         SYMBOL        byte_out
  -------         ENDDO         
  C:BAD1H         LINE#         317
  C:BAD1H         LINE#         318
  C:BAD1H         LINE#         323
  C:BAD3H         LINE#         324
  C:BAD4H         LINE#         326
  C:BADAH         LINE#         327
  C:BADAH         LINE#         328
  C:BADBH         LINE#         329
  C:BAE0H         LINE#         330
  C:BAE0H         LINE#         331
  C:BAE1H         LINE#         332
  C:BAE2H         LINE#         333
  C:BAE2H         LINE#         334
  C:BAE5H         LINE#         335
  C:BAE9H         LINE#         336
  C:BAECH         LINE#         337
  C:BAEFH         LINE#         338
  C:BAF1H         LINE#         339
  C:BAF1H         LINE#         341
  -------         ENDPROC       _HEX_BCD
  -------         PROC          _HEX_ASCII
  X:005DH         SYMBOL        datos
  X:0060H         SYMBOL        fecha_asii
  -------         DO            
  D:0007H         SYMBOL        dato
  -------         ENDDO         
  C:A333H         LINE#         342
  C:A33EH         LINE#         343
  C:A33EH         LINE#         347
  C:A341H         LINE#         348
  C:A359H         LINE#         349
  C:A36EH         LINE#         350
  C:A36EH         LINE#         352
  C:A371H         LINE#         353
  C:A38CH         LINE#         354
  C:A394H         LINE#         355
  C:A394H         LINE#         357
  C:A397H         LINE#         358
  C:A3B2H         LINE#         359
  C:A3BDH         LINE#         361
  -------         ENDPROC       _HEX_ASCII
  -------         PROC          _BYTEHEX_DECIMAL
  D:0001H         SYMBOL        buffer
  D:0005H         SYMBOL        valorhex
  -------         DO            
  X:0014H         SYMBOL        numero
  D:0007H         SYMBOL        centena
  D:0006H         SYMBOL        decena
  -------         ENDDO         
  C:B2A5H         LINE#         369
  C:B2A5H         LINE#         370
BL51 BANKED LINKER/LOCATER V6.22.2.0                                                  06/11/2021  16:40:25  PAGE 38


  C:B2A5H         LINE#         373
  C:B2A7H         LINE#         374
  C:B2A8H         LINE#         375
  C:B2ADH         LINE#         377
  C:B2BAH         LINE#         378
  C:B2BAH         LINE#         379
  C:B2BEH         LINE#         380
  C:B2BFH         LINE#         381
  C:B2C1H         LINE#         382
  C:B2C7H         LINE#         383
  C:B2CEH         LINE#         384
  C:B2DBH         LINE#         385
  C:B2DBH         LINE#         386
  C:B2DFH         LINE#         387
  C:B2E0H         LINE#         388
  C:B2E2H         LINE#         389
  C:B2E8H         LINE#         390
  C:B2EFH         LINE#         391
  C:B2F8H         LINE#         392
  C:B2FFH         LINE#         393
  -------         ENDPROC       _BYTEHEX_DECIMAL
  -------         PROC          _TWO_BYTEHEX_DECIMAL
  X:0014H         SYMBOL        buffer
  X:0017H         SYMBOL        id_h
  X:0018H         SYMBOL        id_l
  -------         DO            
  X:0019H         SYMBOL        valor
  D:0006H         SYMBOL        numero
  X:001BH         SYMBOL        temp
  X:001CH         SYMBOL        dmil
  X:001DH         SYMBOL        mil
  X:001EH         SYMBOL        centena
  X:001FH         SYMBOL        decena
  -------         ENDDO         
  C:47E3H         LINE#         400
  C:47F1H         LINE#         401
  C:47F1H         LINE#         405
  C:47F8H         LINE#         406
  C:47FCH         LINE#         407
  C:47FEH         LINE#         408
  C:4800H         LINE#         409
  C:4802H         LINE#         412
  C:4807H         LINE#         413
  C:480AH         LINE#         414
  C:4810H         LINE#         416
  C:486BH         LINE#         417
  C:4873H         LINE#         418
  C:4876H         LINE#         419
  C:48D1H         LINE#         421
  C:48D9H         LINE#         422
  C:48DCH         LINE#         423
  C:48E2H         LINE#         424
  C:493DH         LINE#         425
  C:4945H         LINE#         426
  C:4948H         LINE#         427
  C:49A3H         LINE#         428
  C:49A3H         LINE#         430
BL51 BANKED LINKER/LOCATER V6.22.2.0                                                  06/11/2021  16:40:25  PAGE 39


  C:49ACH         LINE#         431
  C:49ACH         LINE#         432
  C:49B4H         LINE#         433
  C:49BAH         LINE#         434
  C:49BCH         LINE#         435
  C:49D2H         LINE#         436
  C:49DCH         LINE#         437
  C:49E5H         LINE#         438
  C:49E5H         LINE#         439
  C:49EDH         LINE#         440
  C:49F3H         LINE#         441
  C:49F5H         LINE#         442
  C:4A0BH         LINE#         443
  C:4A15H         LINE#         444
  C:4A1EH         LINE#         445
  C:4A1EH         LINE#         446
  C:4A26H         LINE#         447
  C:4A2CH         LINE#         448
  C:4A2EH         LINE#         449
  C:4A44H         LINE#         450
  C:4A4EH         LINE#         451
  C:4A57H         LINE#         452
  C:4A57H         LINE#         453
  C:4A5FH         LINE#         454
  C:4A65H         LINE#         455
  C:4A67H         LINE#         456
  C:4A7DH         LINE#         457
  C:4A87H         LINE#         458
  C:4A9AH         LINE#         459
  C:4AA4H         LINE#         460
  -------         ENDPROC       _TWO_BYTEHEX_DECIMAL
  -------         PROC          _BLOCK_READ_CLOCK_ASCII
  X:0051H         SYMBOL        datos_clock
  -------         DO            
  D:0007H         SYMBOL        dato
  -------         ENDDO         
  C:67C7H         LINE#         466
  C:67CAH         LINE#         467
  C:67CAH         LINE#         473
  C:67CDH         LINE#         474
  C:67E5H         LINE#         475
  C:67EFH         LINE#         476
  C:6804H         LINE#         477
  C:680EH         LINE#         480
  C:6813H         LINE#         481
  C:682BH         LINE#         482
  C:6835H         LINE#         483
  C:684AH         LINE#         484
  C:6854H         LINE#         487
  C:6859H         LINE#         488
  C:6871H         LINE#         489
  C:687BH         LINE#         490
  C:6890H         LINE#         491
  C:689AH         LINE#         495
  C:689FH         LINE#         496
  C:68B7H         LINE#         497
  C:68C1H         LINE#         498
BL51 BANKED LINKER/LOCATER V6.22.2.0                                                  06/11/2021  16:40:25  PAGE 40


  C:68D6H         LINE#         499
  C:68E0H         LINE#         502
  C:68E5H         LINE#         503
  C:68FDH         LINE#         504
  C:6907H         LINE#         505
  C:691CH         LINE#         506
  C:6926H         LINE#         507
  -------         ENDPROC       _BLOCK_READ_CLOCK_ASCII
  -------         PROC          _BLOCK_READ_CLOCK_ASCII_RASBERRY
  X:001EH         SYMBOL        datos_clock
  -------         DO            
  D:0007H         SYMBOL        dato
  -------         ENDDO         
  C:60F5H         LINE#         510
  C:6100H         LINE#         511
  C:6100H         LINE#         516
  C:6105H         LINE#         517
  C:611DH         LINE#         518
  C:6127H         LINE#         519
  C:613CH         LINE#         520
  C:6146H         LINE#         523
  C:614BH         LINE#         524
  C:6163H         LINE#         525
  C:616DH         LINE#         526
  C:6182H         LINE#         527
  C:618CH         LINE#         531
  C:6191H         LINE#         532
  C:61A9H         LINE#         533
  C:61B3H         LINE#         534
  C:61C8H         LINE#         535
  C:61D2H         LINE#         540
  C:61D7H         LINE#         541
  C:61EFH         LINE#         542
  C:61F9H         LINE#         543
  C:620EH         LINE#         544
  C:6218H         LINE#         547
  C:621DH         LINE#         548
  C:6235H         LINE#         549
  C:623FH         LINE#         550
  C:6254H         LINE#         551
  C:625EH         LINE#         552
  C:626EH         LINE#         553
  C:6278H         LINE#         556
  C:627DH         LINE#         557
  C:6295H         LINE#         558
  C:629FH         LINE#         559
  C:62B4H         LINE#         561
  C:62BEH         LINE#         562
  -------         ENDPROC       _BLOCK_READ_CLOCK_ASCII_RASBERRY
  -------         PROC          _BLOCK_READ_CLOCK_HEX
  X:00AEH         SYMBOL        datos_clock
  C:9C6CH         LINE#         566
  C:9C6FH         LINE#         567
  C:9C6FH         LINE#         570
  C:9C84H         LINE#         571
  C:9C8EH         LINE#         573
  C:9CA5H         LINE#         574
BL51 BANKED LINKER/LOCATER V6.22.2.0                                                  06/11/2021  16:40:25  PAGE 41


  C:9CAFH         LINE#         576
  C:9CC6H         LINE#         577
  C:9CD0H         LINE#         579
  C:9CE7H         LINE#         580
  C:9CF1H         LINE#         582
  C:9D08H         LINE#         583
  -------         ENDPROC       _BLOCK_READ_CLOCK_HEX
  -------         PROC          _HORA_ENTRADA_VEHICULO
  X:0005H         SYMBOL        Atributos_Expedidor
  C:AF47H         LINE#         586
  C:AF4AH         LINE#         587
  C:AF4AH         LINE#         589
  C:AF5FH         LINE#         590
  C:AF76H         LINE#         591
  C:AF8DH         LINE#         592
  C:AFA4H         LINE#         593
  -------         ENDPROC       _HORA_ENTRADA_VEHICULO
  -------         PROC          _BLOCK_READ_CLOCK
  X:001EH         SYMBOL        datos_clock
  C:9025H         LINE#         599
  C:9028H         LINE#         600
  C:9028H         LINE#         602
  C:903AH         LINE#         603
  C:9044H         LINE#         605
  C:9058H         LINE#         606
  C:9062H         LINE#         608
  C:9076H         LINE#         609
  C:9080H         LINE#         611
  C:9094H         LINE#         612
  C:909EH         LINE#         614
  C:90B2H         LINE#         615
  C:90BCH         LINE#         617
  C:90D0H         LINE#         618
  C:90DAH         LINE#         619
  -------         ENDPROC       _BLOCK_READ_CLOCK
  -------         PROC          COND_INI_CLOCK
  C:C26AH         LINE#         622
  C:C26AH         LINE#         623
  C:C26AH         LINE#         624
  C:C26CH         LINE#         625
  C:C26EH         LINE#         626
  C:C270H         LINE#         627
  -------         ENDPROC       COND_INI_CLOCK
  -------         PROC          _CHECK_FECHAOUT
  X:009CH         SYMBOL        buffer
  -------         DO            
  X:009FH         SYMBOL        fecha_inicio
  X:00A3H         SYMBOL        fecha_fin
  X:00A7H         SYMBOL        datos_clk
  X:00ADH         SYMBOL        temp
  -------         ENDDO         
  C:8F5CH         LINE#         637
  C:8F67H         LINE#         638
  C:8F67H         LINE#         644
  C:8F70H         LINE#         645
  C:8F9FH         LINE#         646
  C:8FF2H         LINE#         649
BL51 BANKED LINKER/LOCATER V6.22.2.0                                                  06/11/2021  16:40:25  PAGE 42


  C:9012H         LINE#         650
  C:9012H         LINE#         651
  C:9018H         LINE#         652
  C:901AH         LINE#         654
  C:901AH         LINE#         655
  C:901FH         LINE#         656
  C:901FH         LINE#         660
  C:9024H         LINE#         661
  -------         ENDPROC       _CHECK_FECHAOUT
  -------         ENDMOD        CLOCK

  -------         MODULE        DELAY
  C:0000H         SYMBOL        _ICE_DUMMY_
  C:BC5AH         PUBLIC        _Delay_10ms
  C:C19DH         PUBLIC        _Delay_20us
  C:C0FEH         PUBLIC        _Delay_1ms
  C:C2B5H         PUBLIC        Delay
  -------         PROC          _DELAY_20US
  D:0006H         SYMBOL        cntd_us
  -------         DO            
  D:0004H         SYMBOL        i
  -------         ENDDO         
  C:C19DH         LINE#         20
  C:C19DH         LINE#         21
  C:C19DH         LINE#         24
  C:C1A7H         LINE#         26
  C:C1AEH         LINE#         27
  -------         ENDPROC       _DELAY_20US
  -------         PROC          _DELAY_1MS
  D:0002H         SYMBOL        cntd_ms
  -------         DO            
  D:0082H         SYMBOL        i
  -------         ENDDO         
  C:C0FEH         LINE#         38
  C:C102H         LINE#         39
  C:C102H         LINE#         41
  C:C118H         LINE#         42
  -------         ENDPROC       _DELAY_1MS
  -------         PROC          _DELAY_10MS
  X:001CH         SYMBOL        cntd_10ms
  -------         DO            
  X:001EH         SYMBOL        i
  -------         ENDDO         
  C:BC5AH         LINE#         54
  C:BC62H         LINE#         55
  C:BC62H         LINE#         57
  C:BC93H         LINE#         58
  -------         ENDPROC       _DELAY_10MS
  -------         PROC          DELAY
  C:C2B5H         LINE#         60
  C:C2B5H         LINE#         62
  -------         ENDPROC       DELAY
  -------         ENDMOD        DELAY

  -------         MODULE        EEPROM
  C:0000H         SYMBOL        _ICE_DUMMY_
  D:0090H         PUBLIC        P1
BL51 BANKED LINKER/LOCATER V6.22.2.0                                                  06/11/2021  16:40:25  PAGE 43


  C:8513H         PUBLIC        _Write_EEprom_Ticket
  C:B02CH         PUBLIC        _EscribirMemoria
  X:020DH         PUBLIC        l_chr
  C:C065H         PUBLIC        ackd
  B:0021H.6       PUBLIC        memory_flag
  B:00D0H.7       PUBLIC        CY
  C:C2A2H         PUBLIC        p_me
  C:C1B7H         PUBLIC        start
  B:0090H.2       PUBLIC        sda
  C:C085H         PUBLIC        ack_lect
  B:0090H.3       PUBLIC        scl
  C:BAF6H         PUBLIC        _rd_eeprom
  C:C244H         PUBLIC        stop
  C:BD06H         PUBLIC        Formato_eeprom
  X:020EH         PUBLIC        l_data_eeprom
  C:B42EH         PUBLIC        _wr_eeprom
  C:B1DDH         PUBLIC        _LeerMemoria
  C:BDA8H         PUBLIC        Incremente_Ticket
  X:020FH         PUBLIC        byte_rd
  C:8E92H         PUBLIC        Read_EEprom_Ticket
  C:BFFDH         PUBLIC        _e_d_m
  C:8CFBH         PUBLIC        _graba_serie
  C:B55BH         PUBLIC        Lee_No_Ticket
  C:B50EH         PUBLIC        l_d_m
  -------         PROC          L?0062
  -------         ENDPROC       L?0062
  -------         PROC          ACKD
  -------         DO            
  D:0006H         SYMBOL        i
  -------         ENDDO         
  C:C065H         LINE#         37
  C:C065H         LINE#         38
  C:C065H         LINE#         40
  C:C067H         LINE#         41
  C:C069H         LINE#         42
  C:C06BH         LINE#         43
  C:C06EH         LINE#         44
  C:C06EH         LINE#         45
  C:C071H         LINE#         46
  C:C071H         LINE#         47
  C:C073H         LINE#         48
  C:C075H         LINE#         50
  C:C076H         LINE#         51
  C:C076H         LINE#         52
  C:C081H         LINE#         54
  C:C081H         LINE#         55
  C:C081H         LINE#         57
  C:C081H         LINE#         58
  -------         ENDPROC       ACKD
  -------         PROC          L?0066
  -------         ENDPROC       L?0066
  -------         PROC          ACK_LECT
  -------         DO            
  D:0006H         SYMBOL        i
  -------         ENDDO         
  C:C085H         LINE#         61
  C:C085H         LINE#         62
BL51 BANKED LINKER/LOCATER V6.22.2.0                                                  06/11/2021  16:40:25  PAGE 44


  C:C085H         LINE#         64
  C:C087H         LINE#         65
  C:C089H         LINE#         66
  C:C08BH         LINE#         67
  C:C08EH         LINE#         68
  C:C08EH         LINE#         69
  C:C091H         LINE#         70
  C:C091H         LINE#         71
  C:C093H         LINE#         72
  C:C095H         LINE#         73
  C:C096H         LINE#         74
  C:C096H         LINE#         75
  C:C0A1H         LINE#         76
  -------         ENDPROC       ACK_LECT
  -------         PROC          P_ME
  C:C2A2H         LINE#         78
  C:C2A2H         LINE#         79
  C:C2A2H         LINE#         80
  C:C2A4H         LINE#         81
  C:C2A5H         LINE#         82
  C:C2A7H         LINE#         83
  -------         ENDPROC       P_ME
  -------         PROC          _E_D_M
  D:0007H         SYMBOL        a_serial_eeprom
  -------         DO            
  D:0006H         SYMBOL        nbits
  -------         ENDDO         
  C:BFFDH         LINE#         85
  C:BFFDH         LINE#         86
  C:BFFDH         LINE#         88
  C:C009H         LINE#         89
  C:C009H         LINE#         90
  C:C00DH         LINE#         91
  C:C010H         LINE#         92
  C:C010H         LINE#         93
  C:C012H         LINE#         94
  C:C014H         LINE#         96
  C:C014H         LINE#         97
  C:C016H         LINE#         98
  C:C016H         LINE#         99
  C:C018H         LINE#         100
  C:C01BH         LINE#         101
  C:C01EH         LINE#         103
  -------         ENDPROC       _E_D_M
  -------         PROC          L?0063
  -------         ENDPROC       L?0063
  -------         PROC          START
  C:C1B7H         LINE#         105
  C:C1B7H         LINE#         106
  C:C1B7H         LINE#         107
  C:C1B9H         LINE#         108
  C:C1BBH         LINE#         109
  C:C1BCH         LINE#         110
  C:C1BEH         LINE#         111
  C:C1C0H         LINE#         113
  -------         ENDPROC       START
  -------         PROC          STOP
BL51 BANKED LINKER/LOCATER V6.22.2.0                                                  06/11/2021  16:40:25  PAGE 45


  C:C244H         LINE#         115
  C:C244H         LINE#         116
  C:C244H         LINE#         117
  C:C246H         LINE#         118
  C:C248H         LINE#         119
  C:C249H         LINE#         120
  C:C24BH         LINE#         121
  C:C24DH         LINE#         123
  -------         ENDPROC       STOP
  -------         PROC          L_D_M
  -------         DO            
  D:0003H         SYMBOL        nbits
  -------         ENDDO         
  C:B50EH         LINE#         125
  C:B50EH         LINE#         126
  C:B50EH         LINE#         128
  C:B51BH         LINE#         129
  C:B51BH         LINE#         130
  C:B51DH         LINE#         131
  C:B520H         LINE#         132
  C:B520H         LINE#         133
  C:B527H         LINE#         134
  C:B530H         LINE#         135
  C:B530H         LINE#         136
  C:B534H         LINE#         137
  C:B536H         LINE#         138
  C:B536H         LINE#         139
  C:B536H         LINE#         140
  C:B539H         LINE#         141
  C:B539H         LINE#         142
  C:B540H         LINE#         143
  C:B54AH         LINE#         144
  C:B54AH         LINE#         145
  C:B54EH         LINE#         146
  C:B550H         LINE#         147
  C:B550H         LINE#         148
  C:B550H         LINE#         149
  C:B553H         LINE#         150
  C:B555H         LINE#         151
  C:B55AH         LINE#         152
  -------         ENDPROC       L_D_M
  -------         PROC          L?0061
  -------         ENDPROC       L?0061
  -------         PROC          _WR_EEPROM
  D:0002H         SYMBOL        control
  D:0004H         SYMBOL        Dir
  D:0003H         SYMBOL        data_eeprom
  -------         DO            
  D:0005H         SYMBOL        dir_h
  D:0001H         SYMBOL        dir_l
  -------         ENDDO         
  C:B42EH         LINE#         158
  C:B430H         LINE#         159
  C:B430H         LINE#         161
  C:B434H         LINE#         162
  C:B434H         LINE#         163
  C:B434H         LINE#         166
BL51 BANKED LINKER/LOCATER V6.22.2.0                                                  06/11/2021  16:40:25  PAGE 46


  C:B434H         LINE#         167
  C:B434H         LINE#         169
  C:B437H         LINE#         170
  C:B439H         LINE#         171
  C:B43CH         LINE#         172
  C:B43EH         LINE#         173
  C:B441H         LINE#         174
  C:B446H         LINE#         175
  C:B449H         LINE#         176
  C:B44EH         LINE#         177
  C:B451H         LINE#         178
  C:B454H         LINE#         179
  C:B45BH         LINE#         181
  C:B45DH         LINE#         182
  C:B45FH         LINE#         183
  C:B466H         LINE#         184
  -------         ENDPROC       _WR_EEPROM
  C:BAF2H         SYMBOL        L?0065
  -------         PROC          L?0064
  -------         ENDPROC       L?0064
  C:BAF2H         SYMBOL        L?0065
  -------         PROC          _RD_EEPROM
  D:0003H         SYMBOL        control
  D:0004H         SYMBOL        Dir
  -------         DO            
  D:0005H         SYMBOL        dir_h
  D:0002H         SYMBOL        dir_l
  -------         ENDDO         
  C:BAF6H         LINE#         222
  C:BAF8H         LINE#         223
  C:BAF8H         LINE#         226
  C:BAFCH         LINE#         227
  C:BAFCH         LINE#         228
  C:BAFCH         LINE#         230
  C:BAFCH         LINE#         231
  C:BAFCH         LINE#         233
  C:BAFFH         LINE#         234
  C:BB01H         LINE#         235
  C:BB04H         LINE#         236
  C:BB06H         LINE#         237
  C:BB09H         LINE#         238
  C:BB0EH         LINE#         239
  C:BB11H         LINE#         240
  C:BB14H         LINE#         241
  C:BB1AH         LINE#         242
  C:BB1DH         LINE#         243
  C:BB1FH         LINE#         244
  C:BB22H         LINE#         245
  C:BB25H         LINE#         246
  C:BB27H         LINE#         247
  C:BB29H         LINE#         248
  C:BB2EH         LINE#         249
  -------         ENDPROC       _RD_EEPROM
  -------         PROC          _GRABA_SERIE
  X:0011H         SYMBOL        buffer
  -------         DO            
  X:0014H         SYMBOL        j
BL51 BANKED LINKER/LOCATER V6.22.2.0                                                  06/11/2021  16:40:25  PAGE 47


  X:0015H         SYMBOL        error
  -------         ENDDO         
  C:8CFBH         LINE#         256
  C:8D06H         LINE#         257
  C:8D06H         LINE#         260
  C:8D0BH         LINE#         265
  C:8D1DH         LINE#         267
  C:8D30H         LINE#         268
  C:8D30H         LINE#         269
  C:8D59H         LINE#         270
  C:8D59H         LINE#         271
  C:8D5FH         LINE#         273
  C:8D68H         LINE#         274
  C:8D76H         LINE#         275
  C:8D7FH         LINE#         276
  C:8D7FH         LINE#         278
  C:8D87H         LINE#         282
  C:8D8DH         LINE#         283
  C:8D8DH         LINE#         284
  C:8D9BH         LINE#         286
  C:8D9BH         LINE#         288
  C:8D9BH         LINE#         289
  C:8DA5H         LINE#         290
  C:8DB0H         LINE#         291
  C:8DBBH         LINE#         292
  C:8DC6H         LINE#         294
  C:8DC6H         LINE#         295
  -------         ENDPROC       _GRABA_SERIE
  -------         PROC          _WRITE_EEPROM_TICKET
  X:0016H         SYMBOL        buffer
  -------         DO            
  X:0019H         SYMBOL        cod_3
  X:001AH         SYMBOL        cod_2
  X:001BH         SYMBOL        cod_1
  X:001CH         SYMBOL        cod_0
  X:001DH         SYMBOL        Noticket
  D:0004H         SYMBOL        Bnoticket
  -------         ENDDO         
  C:8513H         LINE#         296
  C:851EH         LINE#         297
  C:851EH         LINE#         299
  C:8526H         LINE#         300
  C:852FH         LINE#         301
  C:853DH         LINE#         302
  C:8546H         LINE#         303
  C:855AH         LINE#         305
  C:8563H         LINE#         306
  C:8576H         LINE#         307
  C:857BH         LINE#         308
  C:857EH         LINE#         310
  C:8591H         LINE#         311
  C:8596H         LINE#         312
  C:8599H         LINE#         314
  C:85ACH         LINE#         315
  C:85B1H         LINE#         316
  C:85B4H         LINE#         318
  C:85C0H         LINE#         319
BL51 BANKED LINKER/LOCATER V6.22.2.0                                                  06/11/2021  16:40:25  PAGE 48


  C:85C3H         LINE#         320
  C:85CCH         LINE#         322
  C:85DAH         LINE#         323
  C:85E8H         LINE#         324
  C:85F6H         LINE#         325
  -------         ENDPROC       _WRITE_EEPROM_TICKET
  -------         PROC          LEE_NO_TICKET
  -------         DO            
  D:0004H         SYMBOL        Noticket
  X:0059H         SYMBOL        Lee_No_Ticket
  D:0007H         SYMBOL        num_chr
  -------         ENDDO         
  C:B55BH         LINE#         330
  C:B55BH         LINE#         331
  C:B55BH         LINE#         335
  C:B55EH         LINE#         336
  C:B579H         LINE#         337
  C:B582H         LINE#         338
  C:B58EH         LINE#         339
  C:B597H         LINE#         340
  C:B5A0H         LINE#         341
  C:B5A6H         LINE#         342
  -------         ENDPROC       LEE_NO_TICKET
  -------         PROC          READ_EEPROM_TICKET
  -------         DO            
  D:0001H         SYMBOL        cod3
  X:0064H         SYMBOL        cod2
  X:0065H         SYMBOL        cod1
  X:0066H         SYMBOL        cod0
  X:0067H         SYMBOL        Noticket
  -------         ENDDO         
  C:8E92H         LINE#         346
  C:8E92H         LINE#         347
  C:8E92H         LINE#         349
  C:8E9CH         LINE#         350
  C:8EA3H         LINE#         351
  C:8EADH         LINE#         352
  C:8EBBH         LINE#         353
  C:8EC5H         LINE#         355
  C:8EE5H         LINE#         356
  C:8F0AH         LINE#         357
  C:8F2FH         LINE#         358
  C:8F4DH         LINE#         359
  C:8F5BH         LINE#         360
  -------         ENDPROC       READ_EEPROM_TICKET
  -------         PROC          INCREMENTE_TICKET
  -------         DO            
  D:0004H         SYMBOL        Noticket
  X:0009H         SYMBOL        Lee_No_Ticket
  -------         ENDDO         
  C:BDA8H         LINE#         364
  C:BDA8H         LINE#         365
  C:BDA8H         LINE#         369
  C:BDABH         LINE#         370
  C:BDB8H         LINE#         371
  C:BDD3H         LINE#         372
  -------         ENDPROC       INCREMENTE_TICKET
BL51 BANKED LINKER/LOCATER V6.22.2.0                                                  06/11/2021  16:40:25  PAGE 49


  -------         PROC          _LEERMEMORIA
  X:009CH         SYMBOL        addres
  X:009EH         SYMBOL        res
  -------         DO            
  D:0007H         SYMBOL        i
  -------         ENDDO         
  C:B1DDH         LINE#         378
  C:B1EEH         LINE#         379
  C:B1EEH         LINE#         381
  C:B1EEH         LINE#         382
  C:B20AH         LINE#         383
  C:B219H         LINE#         384
  C:B227H         LINE#         385
  C:B231H         LINE#         386
  C:B234H         LINE#         387
  -------         ENDPROC       _LEERMEMORIA
  -------         PROC          _ESCRIBIRMEMORIA
  X:005DH         SYMBOL        addres
  X:005FH         SYMBOL        res
  C:B02CH         LINE#         389
  C:B03DH         LINE#         390
  C:B03DH         LINE#         393
  C:B04DH         LINE#         394
  C:B054H         LINE#         395
  C:B057H         LINE#         397
  C:B065H         LINE#         398
  C:B06FH         LINE#         399
  C:B071H         LINE#         400
  C:B074H         LINE#         401
  C:B082H         LINE#         402
  C:B08CH         LINE#         403
  -------         ENDPROC       _ESCRIBIRMEMORIA
  -------         PROC          FORMATO_EEPROM
  -------         DO            
  X:0011H         SYMBOL        dato
  X:0012H         SYMBOL        i
  -------         ENDDO         
  C:BD06H         LINE#         406
  C:BD06H         LINE#         407
  C:BD06H         LINE#         408
  C:BD0CH         LINE#         410
  C:BD21H         LINE#         411
  C:BD21H         LINE#         412
  C:BD2BH         LINE#         413
  C:BD3BH         LINE#         414
  -------         ENDPROC       FORMATO_EEPROM
  -------         ENDMOD        EEPROM

  -------         MODULE        IO_SENSORES
  C:0000H         SYMBOL        _ICE_DUMMY_
  D:0090H         PUBLIC        P1
  D:00B0H         PUBLIC        P3
  C:B873H         PUBLIC        Dir_board
  B:0021H.7       PUBLIC        PULSADOR_BOTTON
  C:C27FH         PUBLIC        sel_Pulsa
  B:0090H.1       PUBLIC        DataIn
  C:C15FH         PUBLIC        Dir_Board_Monitor
BL51 BANKED LINKER/LOCATER V6.22.2.0                                                  06/11/2021  16:40:25  PAGE 50


  C:C278H         PUBLIC        sel_Auto
  C:BCCEH         PUBLIC        ValidaSensoresPaso
  B:00B0H.3       PUBLIC        busy
  C:C0A2H         PUBLIC        ValidaSensor
  C:C28DH         PUBLIC        sel_Sensor1
  C:C286H         PUBLIC        sel_Sensor2
  C:C01FH         PUBLIC        ValidaSensor_cero
  C:B3BCH         PUBLIC        Valida_Sensor1_Auto
  B:00B0H.5       PUBLIC        sel_A
  B:00B0H.6       PUBLIC        sel_B
  B:00B0H.7       PUBLIC        sel_C
  C:99BEH         PUBLIC        msj_lcd_informativo
  C:C294H         PUBLIC        sel_Dir1
  C:C29BH         PUBLIC        sel_Dir2
  C:C1C1H         PUBLIC        Botton
  C:C271H         PUBLIC        sel_Funcion
  -------         PROC          SEL_FUNCION
  C:C271H         LINE#         34
  C:C271H         LINE#         35
  C:C271H         LINE#         36
  C:C273H         LINE#         37
  C:C275H         LINE#         38
  C:C277H         LINE#         39
  -------         ENDPROC       SEL_FUNCION
  -------         PROC          SEL_AUTO
  C:C278H         LINE#         41
  C:C278H         LINE#         42
  C:C278H         LINE#         43
  C:C27AH         LINE#         44
  C:C27CH         LINE#         45
  C:C27EH         LINE#         46
  -------         ENDPROC       SEL_AUTO
  -------         PROC          SEL_PULSA
  C:C27FH         LINE#         48
  C:C27FH         LINE#         49
  C:C27FH         LINE#         50
  C:C281H         LINE#         51
  C:C283H         LINE#         52
  C:C285H         LINE#         53
  -------         ENDPROC       SEL_PULSA
  -------         PROC          SEL_SENSOR2
  C:C286H         LINE#         56
  C:C286H         LINE#         57
  C:C286H         LINE#         58
  C:C288H         LINE#         59
  C:C28AH         LINE#         60
  C:C28CH         LINE#         61
  -------         ENDPROC       SEL_SENSOR2
  -------         PROC          SEL_SENSOR1
  C:C28DH         LINE#         63
  C:C28DH         LINE#         64
  C:C28DH         LINE#         65
  C:C28FH         LINE#         66
  C:C291H         LINE#         67
  C:C293H         LINE#         68
  -------         ENDPROC       SEL_SENSOR1
  -------         PROC          SEL_DIR1
BL51 BANKED LINKER/LOCATER V6.22.2.0                                                  06/11/2021  16:40:25  PAGE 51


  C:C294H         LINE#         70
  C:C294H         LINE#         71
  C:C294H         LINE#         72
  C:C296H         LINE#         73
  C:C298H         LINE#         74
  C:C29AH         LINE#         75
  -------         ENDPROC       SEL_DIR1
  -------         PROC          SEL_DIR2
  C:C29BH         LINE#         77
  C:C29BH         LINE#         78
  C:C29BH         LINE#         79
  C:C29DH         LINE#         80
  C:C29FH         LINE#         81
  C:C2A1H         LINE#         82
  -------         ENDPROC       SEL_DIR2
  -------         PROC          BOTTON
  C:C1C1H         LINE#         83
  C:C1C1H         LINE#         84
  C:C1C1H         LINE#         85
  C:C1C4H         LINE#         86
  C:C1C7H         LINE#         87
  C:C1C7H         LINE#         88
  C:C1D0H         LINE#         89
  C:C1D2H         LINE#         90
  C:C1D2H         LINE#         92
  -------         ENDPROC       BOTTON
  -------         PROC          VALIDASENSOR
  -------         DO            
  D:0007H         SYMBOL        Valido
  D:0004H         SYMBOL        Tmin
  -------         ENDDO         
  C:C0A2H         LINE#         94
  C:C0A2H         LINE#         95
  C:C0A2H         LINE#         97
  C:C0A4H         LINE#         98
  C:C0A8H         LINE#         99
  C:C0B3H         LINE#         100
  C:C0B3H         LINE#         101
  C:C0B8H         LINE#         102
  C:C0BCH         LINE#         103
  C:C0BCH         LINE#         104
  C:C0BEH         LINE#         105
  C:C0BEH         LINE#         106
  C:C0C0H         LINE#         107
  C:C0C0H         LINE#         108
  -------         ENDPROC       VALIDASENSOR
  -------         PROC          VALIDASENSOR_CERO
  -------         DO            
  D:0007H         SYMBOL        Valido
  D:0004H         SYMBOL        Tmin
  -------         ENDDO         
  C:C01FH         LINE#         109
  C:C01FH         LINE#         110
  C:C01FH         LINE#         112
  C:C021H         LINE#         113
  C:C025H         LINE#         114
  C:C034H         LINE#         115
BL51 BANKED LINKER/LOCATER V6.22.2.0                                                  06/11/2021  16:40:25  PAGE 52


  C:C034H         LINE#         116
  C:C039H         LINE#         117
  C:C03DH         LINE#         118
  C:C03DH         LINE#         119
  C:C03EH         LINE#         120
  C:C03EH         LINE#         121
  C:C040H         LINE#         122
  C:C040H         LINE#         123
  -------         ENDPROC       VALIDASENSOR_CERO
  -------         PROC          DIR_BOARD
  -------         DO            
  X:0033H         SYMBOL        Board
  D:0007H         SYMBOL        Board_High
  -------         ENDDO         
  C:B873H         LINE#         127
  C:B873H         LINE#         128
  C:B873H         LINE#         129
  C:B879H         LINE#         131
  C:B87CH         LINE#         132
  C:B87FH         LINE#         133
  C:B87FH         LINE#         134
  C:B882H         LINE#         135
  C:B882H         LINE#         136
  C:B885H         LINE#         137
  C:B888H         LINE#         138
  C:B888H         LINE#         139
  C:B88FH         LINE#         140
  C:B88FH         LINE#         141
  C:B897H         LINE#         142
  C:B897H         LINE#         143
  C:B89FH         LINE#         145
  C:B8A2H         LINE#         146
  C:B8A2H         LINE#         147
  C:B8A8H         LINE#         148
  C:B8A8H         LINE#         149
  C:B8AAH         LINE#         150
  C:B8ACH         LINE#         151
  C:B8AEH         LINE#         152
  C:B8AEH         LINE#         154
  C:B8AEH         LINE#         155
  C:B8B5H         LINE#         156
  -------         ENDPROC       DIR_BOARD
  -------         PROC          DIR_BOARD_MONITOR
  -------         DO            
  D:0007H         SYMBOL        Board_High
  -------         ENDDO         
  C:C15FH         LINE#         157
  C:C15FH         LINE#         158
  C:C15FH         LINE#         161
  C:C168H         LINE#         162
  C:C16BH         LINE#         163
  C:C16BH         LINE#         164
  C:C16EH         LINE#         165
  C:C16EH         LINE#         166
  C:C170H         LINE#         167
  C:C170H         LINE#         168
  C:C170H         LINE#         169
BL51 BANKED LINKER/LOCATER V6.22.2.0                                                  06/11/2021  16:40:25  PAGE 53


  C:C174H         LINE#         170
  -------         ENDPROC       DIR_BOARD_MONITOR
  -------         PROC          VALIDA_SENSOR1_AUTO
  -------         DO            
  X:0012H         SYMBOL        sensor
  -------         ENDDO         
  C:B3BCH         LINE#         174
  C:B3BCH         LINE#         175
  C:B3BCH         LINE#         177
  C:B3BFH         LINE#         178
  C:B3C2H         LINE#         179
  C:B3C5H         LINE#         180
  C:B3CAH         LINE#         181
  C:B3CAH         LINE#         182
  C:B3D1H         LINE#         183
  C:B3D5H         LINE#         184
  C:B3D5H         LINE#         185
  C:B3D5H         LINE#         186
  C:B3D7H         LINE#         188
  C:B3D7H         LINE#         189
  C:B3DEH         LINE#         190
  C:B3E3H         LINE#         191
  C:B3E3H         LINE#         192
  C:B3E3H         LINE#         193
  C:B3E3H         LINE#         196
  C:B3E5H         LINE#         198
  C:B3E8H         LINE#         199
  C:B3EDH         LINE#         200
  C:B3EDH         LINE#         202
  C:B3F4H         LINE#         203
  C:B3FAH         LINE#         204
  C:B400H         LINE#         205
  C:B403H         LINE#         206
  C:B405H         LINE#         208
  C:B405H         LINE#         209
  C:B40CH         LINE#         210
  C:B411H         LINE#         211
  C:B411H         LINE#         214
  C:B411H         LINE#         216
  C:B416H         LINE#         217
  -------         ENDPROC       VALIDA_SENSOR1_AUTO
  -------         PROC          VALIDASENSORESPASO
  -------         DO            
  X:0011H         SYMBOL        sensor
  -------         ENDDO         
  C:BCCEH         LINE#         222
  C:BCCEH         LINE#         223
  C:BCCEH         LINE#         225
  C:BCD1H         LINE#         226
  C:BCD4H         LINE#         227
  C:BCD4H         LINE#         228
  C:BCE2H         LINE#         229
  C:BCE2H         LINE#         230
  C:BCEAH         LINE#         232
  C:BCECH         LINE#         234
  C:BCECH         LINE#         235
  C:BCF2H         LINE#         236
BL51 BANKED LINKER/LOCATER V6.22.2.0                                                  06/11/2021  16:40:25  PAGE 54


  C:BCF4H         LINE#         237
  C:BCF4H         LINE#         238
  C:BCF4H         LINE#         239
  C:BCF4H         LINE#         240
  C:BCFDH         LINE#         241
  C:BD00H         LINE#         242
  C:BD00H         LINE#         243
  C:BD05H         LINE#         244
  -------         ENDPROC       VALIDASENSORESPASO
  -------         PROC          MSJ_LCD_INFORMATIVO
  -------         DO            
  X:0216H         SYMBOL        contador
  X:0001H         SYMBOL        info
  X:0217H         SYMBOL        toggle
  -------         ENDDO         
  C:99BEH         LINE#         257
  C:99BEH         LINE#         258
  C:99BEH         LINE#         260
  C:99C3H         LINE#         262
  C:99C9H         LINE#         263
  C:99D6H         LINE#         264
  C:99D6H         LINE#         266
  C:99D8H         LINE#         267
  C:99DBH         LINE#         268
  C:99E7H         LINE#         269
  C:99E7H         LINE#         270
  C:99F1H         LINE#         271
  C:99F1H         LINE#         273
  C:99FAH         LINE#         274
  C:9A02H         LINE#         275
  C:9A0AH         LINE#         276
  C:9A16H         LINE#         277
  C:9A16H         LINE#         279
  C:9A19H         LINE#         280
  C:9A19H         LINE#         281
  C:9A1BH         LINE#         282
  C:9A1EH         LINE#         283
  C:9A24H         LINE#         284
  C:9A24H         LINE#         285
  C:9A32H         LINE#         286
  C:9A32H         LINE#         287
  C:9A38H         LINE#         288
  C:9A38H         LINE#         289
  C:9A3AH         LINE#         290
  C:9A48H         LINE#         291
  C:9A48H         LINE#         292
  C:9A51H         LINE#         293
  C:9A54H         LINE#         294
  C:9A54H         LINE#         295
  C:9A59H         LINE#         296
  C:9A5CH         LINE#         297
  C:9A61H         LINE#         298
  C:9A61H         LINE#         299
  C:9A61H         LINE#         300
  C:9A61H         LINE#         301
  C:9A61H         LINE#         302
  C:9A64H         LINE#         303
BL51 BANKED LINKER/LOCATER V6.22.2.0                                                  06/11/2021  16:40:25  PAGE 55


  C:9A67H         LINE#         304
  C:9A67H         LINE#         305
  C:9A6CH         LINE#         306
  C:9A6CH         LINE#         307
  C:9A6CH         LINE#         308
  -------         ENDPROC       MSJ_LCD_INFORMATIVO
  -------         ENDMOD        IO_SENSORES

  -------         MODULE        PANTALLAS
  C:0000H         SYMBOL        _ICE_DUMMY_
  D:0080H         PUBLIC        P0
  C:ADD7H         PUBLIC        Reloj_Pantalla_Lcd
  C:2790H         PUBLIC        _PantallaLCD
  C:B837H         PUBLIC        _LCD_txt
  C:AADDH         PUBLIC        _Raspberry_data
  C:BF4AH         PUBLIC        _tx_chrlcd
  C:3585H         SYMBOL        _?ix1000
  C:358BH         SYMBOL        _?ix1001
  C:3591H         SYMBOL        _?ix1002
  C:35B9H         SYMBOL        _?ix1003
  C:B7A3H         PUBLIC        _LCD_txt_num_char
  C:4D6AH         PUBLIC        _PantallaLCD_LINEA_2
  B:0098H.4       PUBLIC        REN
  B:0080H.7       PUBLIC        sel_com
  -------         PROC          _PANTALLALCD
  X:002AH         SYMBOL        cod_msg
  -------         DO            
  X:002BH         SYMBOL        Ini_LCD_Line_one
  X:0031H         SYMBOL        num_chr
  X:0032H         SYMBOL        msjpantalla
  -------         ENDDO         
  C:2790H         LINE#         96
  C:2795H         LINE#         97
  C:2795H         LINE#         99
  C:27A8H         LINE#         104
  C:27AFH         LINE#         108
  C:27B1H         LINE#         110
  C:27BAH         LINE#         111
  C:27BAH         LINE#         112
  C:27C4H         LINE#         114
  C:2820H         LINE#         115
  C:2820H         LINE#         117
  C:2820H         LINE#         118
  C:282EH         LINE#         119
  C:2834H         LINE#         120
  C:2837H         LINE#         121
  C:283DH         LINE#         122
  C:2840H         LINE#         124
  C:2840H         LINE#         126
  C:284EH         LINE#         127
  C:2854H         LINE#         128
  C:2857H         LINE#         129
  C:285DH         LINE#         130
  C:2860H         LINE#         132
  C:2860H         LINE#         134
  C:286EH         LINE#         135
  C:2874H         LINE#         136
BL51 BANKED LINKER/LOCATER V6.22.2.0                                                  06/11/2021  16:40:25  PAGE 56


  C:2877H         LINE#         137
  C:287DH         LINE#         138
  C:2880H         LINE#         139
  C:2880H         LINE#         140
  C:288EH         LINE#         141
  C:2894H         LINE#         142
  C:2897H         LINE#         143
  C:289DH         LINE#         144
  C:28A0H         LINE#         145
  C:28A0H         LINE#         146
  C:28AEH         LINE#         147
  C:28B4H         LINE#         148
  C:28B7H         LINE#         149
  C:28BDH         LINE#         150
  C:28C0H         LINE#         151
  C:28C0H         LINE#         152
  C:28CEH         LINE#         153
  C:28D4H         LINE#         154
  C:28D7H         LINE#         155
  C:28DDH         LINE#         156
  C:28E0H         LINE#         157
  C:28E0H         LINE#         159
  C:28EEH         LINE#         160
  C:28F4H         LINE#         161
  C:28F7H         LINE#         162
  C:28FDH         LINE#         163
  C:2900H         LINE#         164
  C:2900H         LINE#         170
  C:2900H         LINE#         171
  C:290EH         LINE#         172
  C:2914H         LINE#         173
  C:2917H         LINE#         174
  C:291DH         LINE#         175
  C:2920H         LINE#         176
  C:2920H         LINE#         177
  C:292EH         LINE#         178
  C:2934H         LINE#         179
  C:2937H         LINE#         180
  C:293DH         LINE#         181
  C:2940H         LINE#         183
  C:2940H         LINE#         184
  C:294EH         LINE#         185
  C:2954H         LINE#         186
  C:2957H         LINE#         187
  C:295DH         LINE#         188
  C:2960H         LINE#         190
  C:2960H         LINE#         191
  C:296EH         LINE#         192
  C:2974H         LINE#         193
  C:2977H         LINE#         194
  C:297DH         LINE#         195
  C:2980H         LINE#         200
  C:2980H         LINE#         202
  C:298EH         LINE#         203
  C:2994H         LINE#         204
  C:2997H         LINE#         205
  C:299DH         LINE#         206
BL51 BANKED LINKER/LOCATER V6.22.2.0                                                  06/11/2021  16:40:25  PAGE 57


  C:29A0H         LINE#         208
  C:29A0H         LINE#         210
  C:29AEH         LINE#         211
  C:29B4H         LINE#         212
  C:29B7H         LINE#         213
  C:29BDH         LINE#         214
  C:29C0H         LINE#         216
  C:29C0H         LINE#         217
  C:29CEH         LINE#         218
  C:29D4H         LINE#         219
  C:29D7H         LINE#         220
  C:29DDH         LINE#         221
  C:29E0H         LINE#         223
  C:29E0H         LINE#         225
  C:29EEH         LINE#         226
  C:29F4H         LINE#         227
  C:29F7H         LINE#         228
  C:29FDH         LINE#         229
  C:2A00H         LINE#         231
  C:2A00H         LINE#         233
  C:2A0EH         LINE#         234
  C:2A14H         LINE#         235
  C:2A17H         LINE#         236
  C:2A1DH         LINE#         237
  C:2A20H         LINE#         239
  C:2A20H         LINE#         240
  C:2A2EH         LINE#         241
  C:2A34H         LINE#         242
  C:2A37H         LINE#         243
  C:2A3DH         LINE#         244
  C:2A40H         LINE#         246
  C:2A40H         LINE#         247
  C:2A4EH         LINE#         248
  C:2A54H         LINE#         249
  C:2A57H         LINE#         250
  C:2A5DH         LINE#         251
  C:2A60H         LINE#         253
  C:2A60H         LINE#         255
  C:2A6EH         LINE#         256
  C:2A74H         LINE#         257
  C:2A77H         LINE#         258
  C:2A7DH         LINE#         259
  C:2A80H         LINE#         261
  C:2A80H         LINE#         262
  C:2A8EH         LINE#         263
  C:2A94H         LINE#         264
  C:2A97H         LINE#         265
  C:2A9DH         LINE#         266
  C:2AA0H         LINE#         267
  C:2AA0H         LINE#         268
  C:2AAEH         LINE#         269
  C:2AB4H         LINE#         270
  C:2AB7H         LINE#         271
  C:2ABDH         LINE#         272
  C:2AC0H         LINE#         273
  C:2AC0H         LINE#         274
  C:2ACEH         LINE#         275
BL51 BANKED LINKER/LOCATER V6.22.2.0                                                  06/11/2021  16:40:25  PAGE 58


  C:2AD4H         LINE#         276
  C:2AD7H         LINE#         277
  C:2ADDH         LINE#         278
  C:2AE0H         LINE#         279
  C:2AE0H         LINE#         280
  C:2AEEH         LINE#         281
  C:2AF1H         LINE#         282
  C:2AF7H         LINE#         283
  C:2AF9H         LINE#         287
  C:2AF9H         LINE#         288
  C:2B07H         LINE#         289
  C:2B0DH         LINE#         290
  C:2B10H         LINE#         291
  C:2B16H         LINE#         292
  C:2B18H         LINE#         293
  C:2B18H         LINE#         294
  C:2B26H         LINE#         295
  C:2B2CH         LINE#         296
  C:2B2FH         LINE#         297
  C:2B35H         LINE#         298
  C:2B37H         LINE#         299
  C:2B37H         LINE#         300
  C:2B45H         LINE#         301
  C:2B4BH         LINE#         302
  C:2B4EH         LINE#         303
  C:2B59H         LINE#         304
  C:2B59H         LINE#         313
  C:2B59H         LINE#         315
  C:2B59H         LINE#         316
  C:2B59H         LINE#         317
  C:2B5BH         LINE#         319
  C:2B5CH         LINE#         321
  C:2B5CH         LINE#         322
  C:2B5EH         LINE#         323
  C:2BCCH         LINE#         324
  C:2BCCH         LINE#         327
  C:2BCCH         LINE#         328
  C:2BE0H         LINE#         329
  C:2BE0H         LINE#         331
  C:2BE3H         LINE#         332
  C:2BE3H         LINE#         335
  C:2BF7H         LINE#         336
  C:2BF7H         LINE#         337
  C:2BFAH         LINE#         339
  C:2BFAH         LINE#         340
  C:2C0EH         LINE#         341
  C:2C0EH         LINE#         343
  C:2C11H         LINE#         344
  C:2C11H         LINE#         345
  C:2C25H         LINE#         346
  C:2C25H         LINE#         348
  C:2C28H         LINE#         349
  C:2C28H         LINE#         350
  C:2C3CH         LINE#         351
  C:2C3CH         LINE#         353
  C:2C3FH         LINE#         354
  C:2C3FH         LINE#         355
BL51 BANKED LINKER/LOCATER V6.22.2.0                                                  06/11/2021  16:40:25  PAGE 59


  C:2C53H         LINE#         356
  C:2C53H         LINE#         358
  C:2C56H         LINE#         359
  C:2C56H         LINE#         360
  C:2C6AH         LINE#         361
  C:2C6AH         LINE#         363
  C:2C6DH         LINE#         364
  C:2C6DH         LINE#         365
  C:2C81H         LINE#         366
  C:2C81H         LINE#         368
  C:2C84H         LINE#         369
  C:2C84H         LINE#         370
  C:2C98H         LINE#         371
  C:2C98H         LINE#         373
  C:2C9BH         LINE#         374
  C:2C9BH         LINE#         375
  C:2CAFH         LINE#         376
  C:2CAFH         LINE#         378
  C:2CB2H         LINE#         380
  C:2CB2H         LINE#         381
  C:2CC6H         LINE#         382
  C:2CC6H         LINE#         384
  C:2CC9H         LINE#         386
  C:2CC9H         LINE#         387
  C:2CDDH         LINE#         388
  C:2CDDH         LINE#         390
  C:2CE0H         LINE#         392
  C:2CE0H         LINE#         393
  C:2CF4H         LINE#         394
  C:2CF4H         LINE#         396
  C:2CF7H         LINE#         400
  C:2CF7H         LINE#         401
  C:2D0BH         LINE#         402
  C:2D0BH         LINE#         404
  C:2D0EH         LINE#         406
  C:2D0EH         LINE#         407
  C:2D22H         LINE#         408
  C:2D22H         LINE#         410
  C:2D25H         LINE#         412
  C:2D25H         LINE#         413
  C:2D39H         LINE#         414
  C:2D39H         LINE#         417
  C:2D3CH         LINE#         418
  C:2D3CH         LINE#         419
  C:2D50H         LINE#         420
  C:2D50H         LINE#         422
  C:2D53H         LINE#         423
  C:2D53H         LINE#         424
  C:2D67H         LINE#         425
  C:2D67H         LINE#         427
  C:2D6AH         LINE#         428
  C:2D6AH         LINE#         429
  C:2D7EH         LINE#         430
  C:2D7EH         LINE#         432
  C:2D81H         LINE#         433
  C:2D81H         LINE#         434
  C:2D95H         LINE#         435
BL51 BANKED LINKER/LOCATER V6.22.2.0                                                  06/11/2021  16:40:25  PAGE 60


  C:2D95H         LINE#         437
  C:2D98H         LINE#         439
  C:2D98H         LINE#         440
  C:2DACH         LINE#         441
  C:2DACH         LINE#         443
  C:2DAFH         LINE#         445
  C:2DAFH         LINE#         446
  C:2DC3H         LINE#         447
  C:2DC3H         LINE#         449
  C:2DC6H         LINE#         450
  C:2DC6H         LINE#         451
  C:2DDAH         LINE#         452
  C:2DDAH         LINE#         454
  C:2DDDH         LINE#         455
  C:2DDDH         LINE#         456
  C:2DF1H         LINE#         457
  C:2DF1H         LINE#         459
  C:2DF4H         LINE#         460
  C:2DF4H         LINE#         461
  C:2E08H         LINE#         462
  C:2E08H         LINE#         464
  C:2E0BH         LINE#         466
  C:2E0BH         LINE#         467
  C:2E1FH         LINE#         468
  C:2E1FH         LINE#         470
  C:2E22H         LINE#         471
  C:2E22H         LINE#         472
  C:2E36H         LINE#         473
  C:2E36H         LINE#         475
  C:2E39H         LINE#         476
  C:2E39H         LINE#         477
  C:2E4DH         LINE#         478
  C:2E4DH         LINE#         480
  C:2E4FH         LINE#         482
  C:2E4FH         LINE#         483
  C:2E63H         LINE#         484
  C:2E63H         LINE#         486
  C:2E65H         LINE#         489
  C:2E65H         LINE#         490
  C:2E79H         LINE#         491
  C:2E79H         LINE#         493
  C:2E7BH         LINE#         494
  C:2E7BH         LINE#         495
  C:2E8FH         LINE#         496
  C:2E8FH         LINE#         498
  C:2E91H         LINE#         499
  C:2E91H         LINE#         500
  C:2EA5H         LINE#         501
  C:2EA5H         LINE#         502
  C:2EA7H         LINE#         504
  C:2EA7H         LINE#         505
  C:2EBEH         LINE#         506
  C:2ECDH         LINE#         507
  C:2ECDH         LINE#         512
  C:2ECDH         LINE#         513
  C:2ECDH         LINE#         514
  C:2ECDH         LINE#         516
BL51 BANKED LINKER/LOCATER V6.22.2.0                                                  06/11/2021  16:40:25  PAGE 61


  C:2ED4H         LINE#         517
  C:2ED6H         LINE#         518
  C:2ED6H         LINE#         522
  -------         ENDPROC       _PANTALLALCD
  -------         PROC          _PANTALLALCD_LINEA_2
  X:0011H         SYMBOL        cod_msg
  X:0012H         SYMBOL        buffer
  -------         DO            
  X:0015H         SYMBOL        Ini_LCD_Line_one
  X:001BH         SYMBOL        num_chr
  X:001CH         SYMBOL        msjpantalla
  -------         ENDDO         
  C:4D6AH         LINE#         523
  C:4D78H         LINE#         524
  C:4D78H         LINE#         526
  C:4D8BH         LINE#         528
  C:4D9EH         LINE#         535
  C:4DA0H         LINE#         537
  C:4DA9H         LINE#         538
  C:4DA9H         LINE#         541
  C:4DB7H         LINE#         542
  C:4DB7H         LINE#         544
  C:4DB7H         LINE#         545
  C:4DBAH         LINE#         546
  C:4DC8H         LINE#         547
  C:4DDDH         LINE#         548
  C:4DE3H         LINE#         549
  C:4DE9H         LINE#         550
  C:4DEFH         LINE#         551
  C:4DEFH         LINE#         552
  C:4DF1H         LINE#         553
  C:4DF1H         LINE#         554
  C:4DF4H         LINE#         555
  C:4E02H         LINE#         556
  C:4E17H         LINE#         557
  C:4E1DH         LINE#         558
  C:4E23H         LINE#         559
  C:4E2EH         LINE#         560
  C:4E3EH         LINE#         561
  C:4E3EH         LINE#         565
  C:4E3EH         LINE#         567
  C:4E3EH         LINE#         569
  C:4E3EH         LINE#         570
  C:4E40H         LINE#         571
  C:4E41H         LINE#         573
  C:4E41H         LINE#         574
  C:4E43H         LINE#         576
  C:4E6BH         LINE#         577
  C:4E6BH         LINE#         578
  C:4E6BH         LINE#         581
  C:4E77H         LINE#         583
  C:4E77H         LINE#         585
  C:4E77H         LINE#         588
  C:4E77H         LINE#         591
  C:4E7AH         LINE#         593
  C:4E7AH         LINE#         594
  C:4E86H         LINE#         595
BL51 BANKED LINKER/LOCATER V6.22.2.0                                                  06/11/2021  16:40:25  PAGE 62


  C:4E86H         LINE#         596
  C:4E86H         LINE#         597
  C:4E86H         LINE#         598
  C:4E86H         LINE#         599
  C:4E86H         LINE#         601
  C:4E89H         LINE#         602
  C:4E89H         LINE#         604
  C:4E95H         LINE#         605
  C:4E98H         LINE#         606
  C:4E9BH         LINE#         607
  C:4E9BH         LINE#         609
  C:4EA4H         LINE#         611
  C:4EA4H         LINE#         612
  C:4EA6H         LINE#         614
  C:4EA6H         LINE#         616
  C:4EB7H         LINE#         618
  C:4EBAH         LINE#         620
  C:4EBAH         LINE#         621
  C:4EC5H         LINE#         622
  C:4EC5H         LINE#         623
  C:4ECCH         LINE#         625
  C:4EE2H         LINE#         627
  C:4EF9H         LINE#         628
  C:4EFCH         LINE#         630
  C:4EFCH         LINE#         631
  C:4F03H         LINE#         633
  C:4F03H         LINE#         634
  C:4F03H         LINE#         637
  C:4F06H         LINE#         638
  C:4F06H         LINE#         639
  C:4F15H         LINE#         640
  C:4F33H         LINE#         641
  C:4F4AH         LINE#         643
  C:4F4AH         LINE#         645
  C:4F4DH         LINE#         646
  C:4F4DH         LINE#         647
  C:4F5CH         LINE#         648
  C:4F6FH         LINE#         649
  C:4F89H         LINE#         650
  C:4FA7H         LINE#         651
  C:4FBEH         LINE#         652
  C:4FBEH         LINE#         654
  C:4FC0H         LINE#         655
  C:4FC0H         LINE#         656
  C:4FCFH         LINE#         657
  C:4FEDH         LINE#         658
  C:5004H         LINE#         659
  C:5007H         LINE#         660
  C:5007H         LINE#         661
  C:5007H         LINE#         663
  C:5007H         LINE#         664
  C:5007H         LINE#         666
  C:500CH         LINE#         667
  C:500EH         LINE#         668
  C:500EH         LINE#         669
  -------         ENDPROC       _PANTALLALCD_LINEA_2
  C:BF41H         SYMBOL        L?0176
BL51 BANKED LINKER/LOCATER V6.22.2.0                                                  06/11/2021  16:40:25  PAGE 63


  C:BF44H         SYMBOL        L?0177
  C:BF45H         SYMBOL        L?0178
  -------         PROC          L?0175
  -------         ENDPROC       L?0175
  C:BF41H         SYMBOL        L?0176
  C:BF44H         SYMBOL        L?0177
  C:BF45H         SYMBOL        L?0178
  -------         PROC          _TX_CHRLCD
  D:0007H         SYMBOL        data_com
  X:0049H         SYMBOL        enable_char_add
  -------         DO            
  X:004AH         SYMBOL        d
  -------         ENDDO         
  C:BF4AH         LINE#         675
  C:BF4FH         LINE#         676
  C:BF4FH         LINE#         678
  C:BF57H         LINE#         679
  C:BF67H         LINE#         681
  -------         ENDPROC       _TX_CHRLCD
  -------         PROC          L?0181
  -------         ENDPROC       L?0181
  -------         PROC          _LCD_TXT
  X:0044H         SYMBOL        msg
  X:0047H         SYMBOL        enable_char_add
  -------         DO            
  X:0048H         SYMBOL        i
  -------         ENDDO         
  C:B837H         LINE#         688
  C:B845H         LINE#         689
  C:B845H         LINE#         692
  C:B862H         LINE#         693
  C:B862H         LINE#         694
  C:B86AH         LINE#         695
  C:B872H         LINE#         696
  -------         ENDPROC       _LCD_TXT
  -------         PROC          _LCD_TXT_NUM_CHAR
  X:001EH         SYMBOL        msg
  X:0021H         SYMBOL        length_char
  X:0022H         SYMBOL        enable_char_add
  -------         DO            
  X:0023H         SYMBOL        i
  -------         ENDDO         
  C:B7A3H         LINE#         703
  C:B7B1H         LINE#         704
  C:B7B1H         LINE#         707
  C:B7C4H         LINE#         708
  C:B7C4H         LINE#         709
  C:B7E0H         LINE#         710
  C:B7E8H         LINE#         711
  -------         ENDPROC       _LCD_TXT_NUM_CHAR
  C:AAD7H         SYMBOL        L?0180
  -------         PROC          L?0179
  -------         ENDPROC       L?0179
  C:AAD7H         SYMBOL        L?0180
  -------         PROC          _RASPBERRY_DATA
  X:0044H         SYMBOL        msjpantalla
  -------         DO            
BL51 BANKED LINKER/LOCATER V6.22.2.0                                                  06/11/2021  16:40:25  PAGE 64


  X:0047H         SYMBOL        i
  X:0048H         SYMBOL        lenth_cadena
  X:0049H         SYMBOL        d
  -------         ENDDO         
  C:AADDH         LINE#         713
  C:AAE8H         LINE#         714
  C:AAE8H         LINE#         721
  C:AAF0H         LINE#         723
  C:AB02H         LINE#         724
  C:AB02H         LINE#         726
  C:AB14H         LINE#         727
  C:AB14H         LINE#         728
  C:AB19H         LINE#         729
  C:AB37H         LINE#         731
  C:AB3FH         LINE#         734
  C:AB51H         LINE#         735
  C:AB51H         LINE#         737
  C:AB56H         LINE#         739
  -------         ENDPROC       _RASPBERRY_DATA
  -------         PROC          RELOJ_PANTALLA_LCD
  -------         DO            
  X:0011H         SYMBOL        Ini_Clock_LCD
  -------         ENDDO         
  C:ADD7H         LINE#         747
  C:ADD7H         LINE#         748
  C:ADD7H         LINE#         750
  C:ADEAH         LINE#         752
  C:ADF0H         LINE#         753
  C:ADF0H         LINE#         754
  C:ADF2H         LINE#         755
  C:ADFBH         LINE#         759
  C:ADFDH         LINE#         760
  C:AE0DH         LINE#         762
  C:AE0FH         LINE#         763
  C:AE11H         LINE#         765
  C:AE12H         LINE#         767
  C:AE12H         LINE#         768
  C:AE14H         LINE#         769
  C:AE19H         LINE#         770
  C:AE28H         LINE#         772
  C:AE31H         LINE#         773
  C:AE48H         LINE#         774
  C:AE51H         LINE#         777
  C:AE53H         LINE#         778
  C:AE53H         LINE#         779
  -------         ENDPROC       RELOJ_PANTALLA_LCD
  -------         ENDMOD        PANTALLAS

  -------         MODULE        PROG
  C:0000H         SYMBOL        _ICE_DUMMY_
  C:5B36H         PUBLIC        Prog_fecha_vencimiento
  C:6D37H         PUBLIC        Prog_Sin_Cobro
  C:77EAH         PUBLIC        _Ver_Horario_Desde_Hasta
  C:7D33H         PUBLIC        Prog_debug
  C:8027H         PUBLIC        Prog_AntiPassBack
  C:A4F8H         PUBLIC        _GetOption
  X:01B8H         PUBLIC        validacion
BL51 BANKED LINKER/LOCATER V6.22.2.0                                                  06/11/2021  16:40:25  PAGE 65


  C:821FH         PUBLIC        Prog_Validar_Tipo_Vehiculo_Mensual
  X:01C3H         PUBLIC        cursor
  C:76D0H         PUBLIC        _Prog_Horarios_on_off
  C:A169H         PUBLIC        Show
  C:4464H         PUBLIC        Ver_Prog
  C:BDDCH         PUBLIC        Addr_Horarios
  C:979FH         PUBLIC        prog_id_cliente
  C:B8BEH         PUBLIC        _ValidarClave
  C:5508H         PUBLIC        menu
  C:7E2FH         PUBLIC        Prog_Use_Lpr
  C:B243H         PUBLIC        _ListaComandos
  C:1311H         SYMBOL        _?ix1000
  C:131CH         SYMBOL        _?ix1001
  C:132CH         SYMBOL        _?ix1002
  C:133CH         SYMBOL        _?ix1003
  C:1340H         SYMBOL        _?ix1004
  C:6BF2H         PUBLIC        Prog_Horarios
  C:1344H         SYMBOL        _?ix1005
  C:831BH         PUBLIC        Prog_Apb_Mensual
  C:9270H         PUBLIC        Prog_tarjeta_automatica_o_boton
  C:5734H         PUBLIC        _hash_id
  C:4AB3H         PUBLIC        _Prog_Horario_dias
  C:956EH         PUBLIC        Prog_tiempo_gracia
  C:ABE0H         PUBLIC        _IngresaDato
  X:01D7H         PUBLIC        comandos
  C:B687H         PUBLIC        First_Clave
  C:C131H         PUBLIC        DisplayCursor
  C:8123H         PUBLIC        Prog_Placa
  C:94B1H         PUBLIC        prog_cod_park
  C:70EFH         PUBLIC        Ver_Horario
  C:75A8H         PUBLIC        _Ver_Horario_dias
  C:593CH         PUBLIC        _Prog_Horario_Desde_Hasta
  C:7F2BH         PUBLIC        tipo_pantalla
  C:88C2H         PUBLIC        Prog_Address_High_Board
  C:B980H         PUBLIC        _GetCMD
  -------         PROC          _HASH_ID
  X:005DH         SYMBOL        clave
  -------         DO            
  X:0060H         SYMBOL        len_clave
  X:0061H         SYMBOL        i
  X:01B4H         SYMBOL        temp
  X:01B6H         SYMBOL        temp1
  X:0062H         SYMBOL        aleatorio
  X:006DH         SYMBOL        suma
  X:007DH         SYMBOL        xxor
  X:008DH         SYMBOL        usuario1
  X:0098H         SYMBOL        vencimiento_password
  -------         ENDDO         
  C:5734H         LINE#         122
  C:573FH         LINE#         123
  C:573FH         LINE#         126
  C:5752H         LINE#         128
  C:5765H         LINE#         129
  C:5778H         LINE#         133
  C:5785H         LINE#         134
  C:57A1H         LINE#         136
  C:57A1H         LINE#         137
BL51 BANKED LINKER/LOCATER V6.22.2.0                                                  06/11/2021  16:40:25  PAGE 66


  C:57A5H         LINE#         138
  C:57A7H         LINE#         140
  C:57A7H         LINE#         141
  C:57AEH         LINE#         142
  C:57AEH         LINE#         143
  C:57C1H         LINE#         144
  C:57D5H         LINE#         145
  C:57D5H         LINE#         146
  C:5801H         LINE#         147
  C:580CH         LINE#         148
  C:5819H         LINE#         149
  C:5837H         LINE#         150
  C:5842H         LINE#         151
  C:584FH         LINE#         152
  C:5873H         LINE#         153
  C:587BH         LINE#         154
  C:587BH         LINE#         155
  C:5880H         LINE#         156
  C:5880H         LINE#         157
  C:5899H         LINE#         158
  C:5899H         LINE#         159
  C:58A5H         LINE#         161
  C:58A5H         LINE#         162
  C:58B4H         LINE#         163
  C:58B4H         LINE#         164
  C:58C0H         LINE#         165
  C:58C0H         LINE#         166
  C:58D9H         LINE#         167
  C:58D9H         LINE#         168
  C:58E4H         LINE#         169
  C:58E4H         LINE#         170
  C:58FDH         LINE#         171
  C:58FDH         LINE#         172
  C:5908H         LINE#         173
  C:5908H         LINE#         174
  C:591DH         LINE#         176
  C:5926H         LINE#         177
  C:5935H         LINE#         179
  C:593BH         LINE#         180
  -------         ENDPROC       _HASH_ID
  -------         PROC          _LISTACOMANDOS
  X:0046H         SYMBOL        cmd
  -------         DO            
  X:0049H         SYMBOL        buf
  X:004CH         SYMBOL        i
  -------         ENDDO         
  C:B243H         LINE#         187
  C:B24EH         LINE#         188
  C:B24EH         LINE#         192
  C:B261H         LINE#         193
  C:B261H         LINE#         194
  C:B279H         LINE#         195
  C:B294H         LINE#         196
  C:B29AH         LINE#         197
  C:B2A2H         LINE#         199
  C:B2A4H         LINE#         200
  -------         ENDPROC       _LISTACOMANDOS
BL51 BANKED LINKER/LOCATER V6.22.2.0                                                  06/11/2021  16:40:25  PAGE 67


  -------         PROC          L?0274
  -------         ENDPROC       L?0274
  -------         PROC          _VALIDARCLAVE
  X:005DH         SYMBOL        buffer
  -------         DO            
  X:0060H         SYMBOL        buf
  -------         ENDDO         
  C:B8BEH         LINE#         206
  C:B8C9H         LINE#         207
  C:B8C9H         LINE#         210
  C:B8D8H         LINE#         211
  C:B8F3H         LINE#         212
  C:B8F5H         LINE#         215
  C:B8F7H         LINE#         216
  -------         ENDPROC       _VALIDARCLAVE
  -------         PROC          L?0275
  -------         ENDPROC       L?0275
  -------         PROC          _GETCMD
  X:005DH         SYMBOL        in
  -------         DO            
  X:0060H         SYMBOL        tokens
  -------         ENDDO         
  C:B980H         LINE#         223
  C:B98BH         LINE#         224
  C:B98BH         LINE#         225
  C:B99EH         LINE#         226
  -------         ENDPROC       _GETCMD
  -------         PROC          L?0273
  -------         ENDPROC       L?0273
  -------         PROC          _GETOPTION
  X:0046H         SYMBOL        in
  -------         DO            
  X:0049H         SYMBOL        tokensSpace
  X:004DH         SYMBOL        tokensQuote
  -------         ENDDO         
  C:A4F8H         LINE#         232
  C:A503H         LINE#         233
  C:A503H         LINE#         234
  C:A516H         LINE#         235
  C:A529H         LINE#         238
  C:A53BH         LINE#         239
  C:A547H         LINE#         242
  C:A54EH         LINE#         243
  C:A55BH         LINE#         245
  C:A574H         LINE#         246
  -------         ENDPROC       _GETOPTION
  -------         PROC          DISPLAYCURSOR
  C:C131H         LINE#         251
  C:C131H         LINE#         252
  C:C131H         LINE#         253
  -------         ENDPROC       DISPLAYCURSOR
  C:ABDCH         SYMBOL        L?0272
  -------         PROC          L?0271
  -------         ENDPROC       L?0271
  C:ABDCH         SYMBOL        L?0272
  -------         PROC          _INGRESADATO
  X:0071H         SYMBOL        buffer
BL51 BANKED LINKER/LOCATER V6.22.2.0                                                  06/11/2021  16:40:25  PAGE 68


  X:0074H         SYMBOL        modo
  -------         DO            
  D:0006H         SYMBOL        i
  -------         ENDDO         
  C:ABE0H         LINE#         260
  C:ABEEH         LINE#         261
  C:ABEEH         LINE#         266
  C:ABEEH         LINE#         267
  C:AC00H         LINE#         268
  C:AC06H         LINE#         269
  C:AC06H         LINE#         270
  C:AC21H         LINE#         271
  C:AC23H         LINE#         273
  C:AC23H         LINE#         274
  C:AC28H         LINE#         275
  C:AC28H         LINE#         276
  C:AC39H         LINE#         277
  C:AC43H         LINE#         278
  C:AC52H         LINE#         280
  C:AC57H         LINE#         284
  -------         ENDPROC       _INGRESADATO
  -------         PROC          PROG_ID_CLIENTE
  -------         DO            
  X:0046H         SYMBOL        buffer
  X:0050H         SYMBOL        dataee
  -------         ENDDO         
  C:979FH         LINE#         301
  C:979FH         LINE#         302
  C:979FH         LINE#         306
  C:97B1H         LINE#         307
  C:97CEH         LINE#         309
  C:97E5H         LINE#         311
  C:97EEH         LINE#         312
  C:97F5H         LINE#         313
  C:9806H         LINE#         314
  C:980FH         LINE#         316
  C:9821H         LINE#         317
  C:983EH         LINE#         318
  -------         ENDPROC       PROG_ID_CLIENTE
  -------         PROC          PROG_COD_PARK
  -------         DO            
  X:0046H         SYMBOL        buffer
  X:0050H         SYMBOL        dataee
  -------         ENDDO         
  C:94B1H         LINE#         323
  C:94B1H         LINE#         324
  C:94B1H         LINE#         328
  C:94C4H         LINE#         329
  C:94E1H         LINE#         331
  C:94F8H         LINE#         333
  C:9501H         LINE#         334
  C:950CH         LINE#         335
  C:951DH         LINE#         336
  C:9527H         LINE#         338
  C:953AH         LINE#         339
  C:9557H         LINE#         340
  -------         ENDPROC       PROG_COD_PARK
BL51 BANKED LINKER/LOCATER V6.22.2.0                                                  06/11/2021  16:40:25  PAGE 69


  -------         PROC          PROG_TIEMPO_GRACIA
  -------         DO            
  X:0046H         SYMBOL        buffer
  X:0050H         SYMBOL        dataee
  -------         ENDDO         
  C:956EH         LINE#         345
  C:956EH         LINE#         346
  C:956EH         LINE#         350
  C:9581H         LINE#         351
  C:959EH         LINE#         353
  C:95B5H         LINE#         355
  C:95BEH         LINE#         356
  C:95C9H         LINE#         357
  C:95DAH         LINE#         358
  C:95E4H         LINE#         360
  C:95F7H         LINE#         361
  C:9614H         LINE#         362
  -------         ENDPROC       PROG_TIEMPO_GRACIA
  -------         PROC          PROG_SIN_COBRO
  -------         DO            
  X:0046H         SYMBOL        buffer
  X:0050H         SYMBOL        dataee
  -------         ENDDO         
  C:6D37H         LINE#         368
  C:6D37H         LINE#         369
  C:6D37H         LINE#         375
  C:6D4AH         LINE#         376
  C:6D67H         LINE#         377
  C:6D71H         LINE#         378
  C:6D71H         LINE#         379
  C:6D84H         LINE#         380
  C:6D86H         LINE#         381
  C:6D92H         LINE#         382
  C:6D92H         LINE#         383
  C:6DA5H         LINE#         384
  C:6DA7H         LINE#         386
  C:6DA7H         LINE#         387
  C:6DBEH         LINE#         388
  C:6DBEH         LINE#         390
  C:6DC7H         LINE#         391
  C:6DD2H         LINE#         392
  C:6DE3H         LINE#         393
  C:6DEDH         LINE#         395
  C:6E00H         LINE#         396
  C:6E1DH         LINE#         397
  C:6E27H         LINE#         398
  C:6E27H         LINE#         399
  C:6E3AH         LINE#         400
  C:6E3CH         LINE#         401
  C:6E48H         LINE#         402
  C:6E48H         LINE#         403
  C:6E5BH         LINE#         404
  C:6E5DH         LINE#         406
  C:6E5DH         LINE#         407
  C:6E74H         LINE#         408
  C:6E74H         LINE#         410
  -------         ENDPROC       PROG_SIN_COBRO
BL51 BANKED LINKER/LOCATER V6.22.2.0                                                  06/11/2021  16:40:25  PAGE 70


  -------         PROC          PROG_DEBUG
  -------         DO            
  X:0046H         SYMBOL        buffer
  X:0050H         SYMBOL        dataee
  -------         ENDDO         
  C:7D33H         LINE#         416
  C:7D33H         LINE#         417
  C:7D33H         LINE#         422
  C:7D46H         LINE#         423
  C:7D63H         LINE#         424
  C:7D6DH         LINE#         425
  C:7D6DH         LINE#         426
  C:7D80H         LINE#         427
  C:7D82H         LINE#         429
  C:7D82H         LINE#         430
  C:7D99H         LINE#         431
  C:7D99H         LINE#         433
  C:7DA2H         LINE#         434
  C:7DADH         LINE#         435
  C:7DBEH         LINE#         436
  C:7DC8H         LINE#         438
  C:7DDBH         LINE#         439
  C:7DF8H         LINE#         440
  C:7E02H         LINE#         441
  C:7E02H         LINE#         442
  C:7E15H         LINE#         443
  C:7E17H         LINE#         445
  C:7E17H         LINE#         446
  C:7E2EH         LINE#         447
  C:7E2EH         LINE#         448
  -------         ENDPROC       PROG_DEBUG
  -------         PROC          PROG_USE_LPR
  -------         DO            
  X:0046H         SYMBOL        buffer
  X:0050H         SYMBOL        dataee
  -------         ENDDO         
  C:7E2FH         LINE#         453
  C:7E2FH         LINE#         454
  C:7E2FH         LINE#         459
  C:7E42H         LINE#         460
  C:7E5FH         LINE#         461
  C:7E69H         LINE#         462
  C:7E69H         LINE#         463
  C:7E7CH         LINE#         464
  C:7E7EH         LINE#         466
  C:7E7EH         LINE#         467
  C:7E95H         LINE#         468
  C:7E95H         LINE#         470
  C:7E9EH         LINE#         471
  C:7EA9H         LINE#         472
  C:7EBAH         LINE#         473
  C:7EC4H         LINE#         475
  C:7ED7H         LINE#         476
  C:7EF4H         LINE#         477
  C:7EFEH         LINE#         478
  C:7EFEH         LINE#         479
  C:7F11H         LINE#         480
BL51 BANKED LINKER/LOCATER V6.22.2.0                                                  06/11/2021  16:40:25  PAGE 71


  C:7F13H         LINE#         482
  C:7F13H         LINE#         483
  C:7F2AH         LINE#         484
  C:7F2AH         LINE#         485
  -------         ENDPROC       PROG_USE_LPR
  -------         PROC          TIPO_PANTALLA
  -------         DO            
  X:0046H         SYMBOL        buffer
  X:0050H         SYMBOL        dataee
  -------         ENDDO         
  C:7F2BH         LINE#         492
  C:7F2BH         LINE#         493
  C:7F2BH         LINE#         498
  C:7F3EH         LINE#         499
  C:7F5BH         LINE#         500
  C:7F65H         LINE#         501
  C:7F65H         LINE#         502
  C:7F78H         LINE#         503
  C:7F7AH         LINE#         505
  C:7F7AH         LINE#         506
  C:7F91H         LINE#         507
  C:7F91H         LINE#         509
  C:7F9AH         LINE#         510
  C:7FA5H         LINE#         511
  C:7FB6H         LINE#         512
  C:7FC0H         LINE#         514
  C:7FD3H         LINE#         515
  C:7FF0H         LINE#         516
  C:7FFAH         LINE#         517
  C:7FFAH         LINE#         518
  C:800DH         LINE#         519
  C:800FH         LINE#         521
  C:800FH         LINE#         522
  C:8026H         LINE#         523
  C:8026H         LINE#         525
  -------         ENDPROC       TIPO_PANTALLA
  -------         PROC          PROG_TARJETA_AUTOMATICA_O_BOTON
  -------         DO            
  X:0046H         SYMBOL        buffer
  X:0050H         SYMBOL        dataee
  -------         ENDDO         
  C:9270H         LINE#         526
  C:9270H         LINE#         527
  C:9270H         LINE#         532
  C:9283H         LINE#         533
  C:92A0H         LINE#         534
  C:92ACH         LINE#         535
  C:92ACH         LINE#         536
  C:92B0H         LINE#         537
  C:92B2H         LINE#         539
  C:92B2H         LINE#         540
  C:92B9H         LINE#         541
  C:92B9H         LINE#         543
  C:92C2H         LINE#         544
  C:92CDH         LINE#         545
  C:92DEH         LINE#         546
  C:92E8H         LINE#         548
BL51 BANKED LINKER/LOCATER V6.22.2.0                                                  06/11/2021  16:40:25  PAGE 72


  C:92FBH         LINE#         549
  C:9318H         LINE#         550
  C:9324H         LINE#         551
  C:9324H         LINE#         552
  C:9328H         LINE#         553
  C:932AH         LINE#         555
  C:932AH         LINE#         556
  C:9331H         LINE#         557
  C:9331H         LINE#         558
  -------         ENDPROC       PROG_TARJETA_AUTOMATICA_O_BOTON
  -------         PROC          PROG_ANTIPASSBACK
  -------         DO            
  X:0046H         SYMBOL        buffer
  X:0050H         SYMBOL        dataee
  -------         ENDDO         
  C:8027H         LINE#         559
  C:8027H         LINE#         560
  C:8027H         LINE#         565
  C:803AH         LINE#         566
  C:8057H         LINE#         567
  C:8061H         LINE#         568
  C:8061H         LINE#         569
  C:8074H         LINE#         570
  C:8076H         LINE#         572
  C:8076H         LINE#         573
  C:808DH         LINE#         574
  C:808DH         LINE#         576
  C:8096H         LINE#         577
  C:80A1H         LINE#         578
  C:80B2H         LINE#         579
  C:80BCH         LINE#         581
  C:80CFH         LINE#         582
  C:80ECH         LINE#         583
  C:80F6H         LINE#         584
  C:80F6H         LINE#         585
  C:8109H         LINE#         586
  C:810BH         LINE#         588
  C:810BH         LINE#         589
  C:8122H         LINE#         590
  C:8122H         LINE#         591
  -------         ENDPROC       PROG_ANTIPASSBACK
  -------         PROC          PROG_PLACA
  -------         DO            
  X:0046H         SYMBOL        buffer
  X:0050H         SYMBOL        dataee
  -------         ENDDO         
  C:8123H         LINE#         592
  C:8123H         LINE#         593
  C:8123H         LINE#         598
  C:8136H         LINE#         599
  C:8153H         LINE#         600
  C:815DH         LINE#         601
  C:815DH         LINE#         602
  C:8170H         LINE#         603
  C:8172H         LINE#         605
  C:8172H         LINE#         606
  C:8189H         LINE#         607
BL51 BANKED LINKER/LOCATER V6.22.2.0                                                  06/11/2021  16:40:25  PAGE 73


  C:8189H         LINE#         609
  C:8192H         LINE#         610
  C:819DH         LINE#         611
  C:81AEH         LINE#         612
  C:81B8H         LINE#         614
  C:81CBH         LINE#         615
  C:81E8H         LINE#         616
  C:81F2H         LINE#         617
  C:81F2H         LINE#         618
  C:8205H         LINE#         619
  C:8207H         LINE#         621
  C:8207H         LINE#         622
  C:821EH         LINE#         623
  C:821EH         LINE#         624
  -------         ENDPROC       PROG_PLACA
  -------         PROC          PROG_ADDRESS_HIGH_BOARD
  -------         DO            
  X:0046H         SYMBOL        buffer
  X:0050H         SYMBOL        dataee
  -------         ENDDO         
  C:88C2H         LINE#         625
  C:88C2H         LINE#         626
  C:88C2H         LINE#         631
  C:88D5H         LINE#         632
  C:88F2H         LINE#         633
  C:88FCH         LINE#         634
  C:88FCH         LINE#         635
  C:8900H         LINE#         636
  C:8902H         LINE#         638
  C:8902H         LINE#         639
  C:8919H         LINE#         640
  C:8919H         LINE#         642
  C:8922H         LINE#         643
  C:892DH         LINE#         644
  C:893EH         LINE#         645
  C:8948H         LINE#         647
  C:895BH         LINE#         648
  C:8978H         LINE#         649
  C:8982H         LINE#         650
  C:8982H         LINE#         651
  C:8986H         LINE#         652
  C:8988H         LINE#         654
  C:8988H         LINE#         655
  C:899FH         LINE#         656
  C:899FH         LINE#         657
  -------         ENDPROC       PROG_ADDRESS_HIGH_BOARD
  -------         PROC          ADDR_HORARIOS
  -------         DO            
  X:0074H         SYMBOL        ee_addr_horario
  -------         ENDDO         
  C:BDDCH         LINE#         659
  C:BDDCH         LINE#         660
  C:BDDCH         LINE#         663
  C:BDE2H         LINE#         664
  C:BDE6H         LINE#         665
  C:BDEAH         LINE#         666
  C:BDEEH         LINE#         667
BL51 BANKED LINKER/LOCATER V6.22.2.0                                                  06/11/2021  16:40:25  PAGE 74


  C:BDF2H         LINE#         668
  C:BDF6H         LINE#         669
  C:BDFAH         LINE#         670
  C:BDFEH         LINE#         671
  C:BE02H         LINE#         672
  C:BE06H         LINE#         673
  C:BE09H         LINE#         674
  C:BE0FH         LINE#         675
  -------         ENDPROC       ADDR_HORARIOS
  -------         PROC          _PROG_HORARIOS_ON_OFF
  X:0061H         SYMBOL        addr
  -------         DO            
  X:0063H         SYMBOL        buffer
  X:006DH         SYMBOL        dataee
  X:006FH         SYMBOL        habilitado
  -------         ENDDO         
  C:76D0H         LINE#         676
  C:76DAH         LINE#         677
  C:76DAH         LINE#         680
  C:76E9H         LINE#         681
  C:7706H         LINE#         682
  C:7710H         LINE#         683
  C:7710H         LINE#         684
  C:7723H         LINE#         685
  C:7725H         LINE#         687
  C:7725H         LINE#         688
  C:773CH         LINE#         689
  C:773CH         LINE#         690
  C:7745H         LINE#         691
  C:7750H         LINE#         692
  C:7761H         LINE#         693
  C:7770H         LINE#         695
  C:7787H         LINE#         696
  C:77A4H         LINE#         697
  C:77B1H         LINE#         698
  C:77B1H         LINE#         699
  C:77B4H         LINE#         700
  C:77C7H         LINE#         701
  C:77C9H         LINE#         703
  C:77C9H         LINE#         704
  C:77CEH         LINE#         705
  C:77E3H         LINE#         706
  C:77E3H         LINE#         707
  C:77E9H         LINE#         708
  -------         ENDPROC       _PROG_HORARIOS_ON_OFF
  -------         PROC          _PROG_HORARIO_DESDE_HASTA
  X:0061H         SYMBOL        addr
  -------         DO            
  X:0063H         SYMBOL        buffer
  D:0007H         SYMBOL        dataee
  -------         ENDDO         
  C:593CH         LINE#         709
  C:5944H         LINE#         710
  C:5944H         LINE#         715
  C:594DH         LINE#         716
  C:5950H         LINE#         717
  C:5959H         LINE#         718
BL51 BANKED LINKER/LOCATER V6.22.2.0                                                  06/11/2021  16:40:25  PAGE 75


  C:5971H         LINE#         719
  C:5984H         LINE#         720
  C:5992H         LINE#         721
  C:59AAH         LINE#         722
  C:59BDH         LINE#         723
  C:59CBH         LINE#         724
  C:59E3H         LINE#         725
  C:59F6H         LINE#         726
  C:5A04H         LINE#         727
  C:5A1CH         LINE#         728
  C:5A2FH         LINE#         729
  C:5A3DH         LINE#         733
  C:5A46H         LINE#         734
  C:5A49H         LINE#         736
  C:5A52H         LINE#         738
  C:5A6AH         LINE#         739
  C:5A7DH         LINE#         740
  C:5A8BH         LINE#         741
  C:5AA3H         LINE#         742
  C:5AB6H         LINE#         743
  C:5AC4H         LINE#         744
  C:5ADCH         LINE#         745
  C:5AEFH         LINE#         746
  C:5AFDH         LINE#         747
  C:5B15H         LINE#         748
  C:5B28H         LINE#         749
  -------         ENDPROC       _PROG_HORARIO_DESDE_HASTA
  -------         PROC          _VER_HORARIO_DESDE_HASTA
  X:0074H         SYMBOL        addr
  -------         DO            
  D:0007H         SYMBOL        dataee
  -------         ENDDO         
  C:77EAH         LINE#         751
  C:77F2H         LINE#         752
  C:77F2H         LINE#         754
  C:77FBH         LINE#         755
  C:780EH         LINE#         756
  C:781CH         LINE#         757
  C:782FH         LINE#         758
  C:783DH         LINE#         759
  C:7850H         LINE#         760
  C:785EH         LINE#         761
  C:7871H         LINE#         762
  C:787FH         LINE#         764
  C:7892H         LINE#         765
  C:78A0H         LINE#         767
  C:78B3H         LINE#         768
  C:78C1H         LINE#         770
  C:78D4H         LINE#         771
  C:78E2H         LINE#         773
  C:78F5H         LINE#         774
  -------         ENDPROC       _VER_HORARIO_DESDE_HASTA
  -------         PROC          _PROG_HORARIO_DIAS
  X:0061H         SYMBOL        addr
  -------         DO            
  X:0063H         SYMBOL        buffer
  X:006DH         SYMBOL        dataee
BL51 BANKED LINKER/LOCATER V6.22.2.0                                                  06/11/2021  16:40:25  PAGE 76


  X:006EH         SYMBOL        j
  X:006FH         SYMBOL        temp
  -------         ENDDO         
  C:4AB3H         LINE#         776
  C:4ABBH         LINE#         777
  C:4ABBH         LINE#         781
  C:4AC4H         LINE#         782
  C:4ACDH         LINE#         783
  C:4AD6H         LINE#         784
  C:4AE1H         LINE#         787
  C:4AEAH         LINE#         789
  C:4B00H         LINE#         790
  C:4B00H         LINE#         792
  C:4B13H         LINE#         793
  C:4B13H         LINE#         794
  C:4B1CH         LINE#         796
  C:4B31H         LINE#         797
  C:4B49H         LINE#         798
  C:4B56H         LINE#         799
  C:4B56H         LINE#         801
  C:4B6CH         LINE#         802
  C:4B6CH         LINE#         803
  C:4B75H         LINE#         804
  C:4B8AH         LINE#         805
  C:4BA2H         LINE#         806
  C:4BAFH         LINE#         807
  C:4BAFH         LINE#         809
  C:4BC5H         LINE#         810
  C:4BC5H         LINE#         811
  C:4BCEH         LINE#         812
  C:4BE3H         LINE#         813
  C:4BFBH         LINE#         814
  C:4C08H         LINE#         815
  C:4C08H         LINE#         817
  C:4C1EH         LINE#         818
  C:4C1EH         LINE#         819
  C:4C27H         LINE#         820
  C:4C3CH         LINE#         821
  C:4C54H         LINE#         822
  C:4C61H         LINE#         823
  C:4C61H         LINE#         825
  C:4C77H         LINE#         826
  C:4C77H         LINE#         827
  C:4C80H         LINE#         828
  C:4C95H         LINE#         829
  C:4CADH         LINE#         830
  C:4CBAH         LINE#         831
  C:4CBAH         LINE#         833
  C:4CD0H         LINE#         834
  C:4CD0H         LINE#         835
  C:4CD9H         LINE#         836
  C:4CEEH         LINE#         837
  C:4D06H         LINE#         838
  C:4D13H         LINE#         839
  C:4D13H         LINE#         841
  C:4D29H         LINE#         842
  C:4D29H         LINE#         843
BL51 BANKED LINKER/LOCATER V6.22.2.0                                                  06/11/2021  16:40:25  PAGE 77


  C:4D32H         LINE#         844
  C:4D41H         LINE#         845
  C:4D53H         LINE#         846
  C:4D60H         LINE#         847
  C:4D60H         LINE#         848
  C:4D69H         LINE#         850
  -------         ENDPROC       _PROG_HORARIO_DIAS
  -------         PROC          _VER_HORARIO_DIAS
  X:0074H         SYMBOL        addr
  -------         DO            
  X:0076H         SYMBOL        dataee
  -------         ENDDO         
  C:75A8H         LINE#         851
  C:75B0H         LINE#         852
  C:75B0H         LINE#         855
  C:75C0H         LINE#         856
  C:75C6H         LINE#         857
  C:75C6H         LINE#         858
  C:75CAH         LINE#         859
  C:75CCH         LINE#         861
  C:75CCH         LINE#         862
  C:75D3H         LINE#         863
  C:75D3H         LINE#         866
  C:75EBH         LINE#         867
  C:75F1H         LINE#         868
  C:75F1H         LINE#         869
  C:75F5H         LINE#         870
  C:75F7H         LINE#         872
  C:75F7H         LINE#         873
  C:75FEH         LINE#         874
  C:75FEH         LINE#         877
  C:7616H         LINE#         878
  C:761CH         LINE#         879
  C:761CH         LINE#         880
  C:7620H         LINE#         881
  C:7622H         LINE#         883
  C:7622H         LINE#         884
  C:7629H         LINE#         885
  C:7629H         LINE#         887
  C:7641H         LINE#         888
  C:7647H         LINE#         889
  C:7647H         LINE#         890
  C:764BH         LINE#         891
  C:764DH         LINE#         893
  C:764DH         LINE#         894
  C:7654H         LINE#         895
  C:7654H         LINE#         897
  C:766CH         LINE#         898
  C:7672H         LINE#         899
  C:7672H         LINE#         900
  C:7676H         LINE#         901
  C:7678H         LINE#         903
  C:7678H         LINE#         904
  C:767FH         LINE#         905
  C:767FH         LINE#         908
  C:7697H         LINE#         909
  C:769DH         LINE#         910
BL51 BANKED LINKER/LOCATER V6.22.2.0                                                  06/11/2021  16:40:25  PAGE 78


  C:769DH         LINE#         911
  C:76A1H         LINE#         912
  C:76A3H         LINE#         914
  C:76A3H         LINE#         915
  C:76AAH         LINE#         916
  C:76AAH         LINE#         918
  C:76BCH         LINE#         919
  C:76C2H         LINE#         920
  C:76C2H         LINE#         921
  C:76C6H         LINE#         922
  C:76C8H         LINE#         924
  C:76C8H         LINE#         925
  C:76CFH         LINE#         926
  C:76CFH         LINE#         927
  -------         ENDPROC       _VER_HORARIO_DIAS
  -------         PROC          PROG_HORARIOS
  -------         DO            
  X:0046H         SYMBOL        buffer
  X:0050H         SYMBOL        ee_addr_horario
  X:005BH         SYMBOL        addr
  X:005DH         SYMBOL        temp
  X:005FH         SYMBOL        dataee
  X:0060H         SYMBOL        j
  -------         ENDDO         
  C:6BF2H         LINE#         928
  C:6BF2H         LINE#         929
  C:6BF2H         LINE#         938
  C:6BFEH         LINE#         942
  C:6C07H         LINE#         943
  C:6C12H         LINE#         945
  C:6C21H         LINE#         949
  C:6C37H         LINE#         950
  C:6C3DH         LINE#         954
  C:6C4BH         LINE#         955
  C:6C53H         LINE#         956
  C:6C53H         LINE#         958
  C:6C62H         LINE#         959
  C:6C76H         LINE#         960
  C:6C76H         LINE#         961
  C:6C8AH         LINE#         962
  C:6C92H         LINE#         964
  C:6CA2H         LINE#         967
  C:6CA5H         LINE#         971
  C:6CB0H         LINE#         974
  C:6CB9H         LINE#         975
  C:6CC4H         LINE#         976
  C:6CD3H         LINE#         977
  C:6CE6H         LINE#         979
  C:6CFEH         LINE#         980
  C:6D18H         LINE#         981
  C:6D20H         LINE#         982
  C:6D20H         LINE#         984
  C:6D2EH         LINE#         985
  C:6D36H         LINE#         986
  C:6D36H         LINE#         987
  C:6D36H         LINE#         989
  -------         ENDPROC       PROG_HORARIOS
BL51 BANKED LINKER/LOCATER V6.22.2.0                                                  06/11/2021  16:40:25  PAGE 79


  -------         PROC          PROG_VALIDAR_TIPO_VEHICULO_MENSUAL
  -------         DO            
  X:0046H         SYMBOL        buffer
  X:0050H         SYMBOL        dataee
  -------         ENDDO         
  C:821FH         LINE#         990
  C:821FH         LINE#         991
  C:821FH         LINE#         996
  C:8232H         LINE#         997
  C:824FH         LINE#         998
  C:8259H         LINE#         999
  C:8259H         LINE#         1000
  C:826CH         LINE#         1001
  C:826EH         LINE#         1003
  C:826EH         LINE#         1004
  C:8285H         LINE#         1005
  C:8285H         LINE#         1007
  C:828EH         LINE#         1008
  C:8299H         LINE#         1009
  C:82AAH         LINE#         1010
  C:82B4H         LINE#         1012
  C:82C7H         LINE#         1013
  C:82E4H         LINE#         1014
  C:82EEH         LINE#         1015
  C:82EEH         LINE#         1016
  C:8301H         LINE#         1017
  C:8303H         LINE#         1019
  C:8303H         LINE#         1020
  C:831AH         LINE#         1021
  C:831AH         LINE#         1022
  -------         ENDPROC       PROG_VALIDAR_TIPO_VEHICULO_MENSUAL
  -------         PROC          PROG_APB_MENSUAL
  -------         DO            
  X:0046H         SYMBOL        buffer
  X:0050H         SYMBOL        dataee
  -------         ENDDO         
  C:831BH         LINE#         1023
  C:831BH         LINE#         1024
  C:831BH         LINE#         1029
  C:832EH         LINE#         1030
  C:834BH         LINE#         1031
  C:8355H         LINE#         1032
  C:8355H         LINE#         1033
  C:8368H         LINE#         1034
  C:836AH         LINE#         1036
  C:836AH         LINE#         1037
  C:8381H         LINE#         1038
  C:8381H         LINE#         1040
  C:838AH         LINE#         1041
  C:8395H         LINE#         1042
  C:83A6H         LINE#         1043
  C:83B0H         LINE#         1045
  C:83C3H         LINE#         1046
  C:83E0H         LINE#         1047
  C:83EAH         LINE#         1048
  C:83EAH         LINE#         1049
  C:83FDH         LINE#         1050
BL51 BANKED LINKER/LOCATER V6.22.2.0                                                  06/11/2021  16:40:25  PAGE 80


  C:83FFH         LINE#         1052
  C:83FFH         LINE#         1053
  C:8416H         LINE#         1054
  C:8416H         LINE#         1055
  -------         ENDPROC       PROG_APB_MENSUAL
  -------         PROC          PROG_FECHA_VENCIMIENTO
  -------         DO            
  X:0046H         SYMBOL        buffer
  X:0051H         SYMBOL        cmd
  X:0054H         SYMBOL        fecha
  X:005BH         SYMBOL        dataee
  -------         ENDDO         
  C:5B36H         LINE#         1057
  C:5B36H         LINE#         1058
  C:5B36H         LINE#         1065
  C:5B43H         LINE#         1066
  C:5B5AH         LINE#         1069
  C:5B71H         LINE#         1071
  C:5B71H         LINE#         1072
  C:5B7AH         LINE#         1073
  C:5B87H         LINE#         1074
  C:5B9EH         LINE#         1075
  C:5BB0H         LINE#         1076
  C:5BB9H         LINE#         1081
  C:5BC4H         LINE#         1082
  C:5BD8H         LINE#         1083
  C:5BE5H         LINE#         1085
  C:5BEEH         LINE#         1088
  C:5BF7H         LINE#         1089
  C:5C02H         LINE#         1090
  C:5C19H         LINE#         1092
  C:5C21H         LINE#         1093
  C:5C29H         LINE#         1094
  C:5C2CH         LINE#         1096
  C:5C3DH         LINE#         1097
  C:5C4EH         LINE#         1099
  C:5C5DH         LINE#         1100
  C:5C65H         LINE#         1101
  C:5C6DH         LINE#         1102
  C:5C70H         LINE#         1103
  C:5C81H         LINE#         1104
  C:5C92H         LINE#         1105
  C:5CA1H         LINE#         1106
  C:5CA9H         LINE#         1107
  C:5CB1H         LINE#         1108
  C:5CB4H         LINE#         1109
  C:5CC5H         LINE#         1110
  C:5CD6H         LINE#         1111
  C:5CE5H         LINE#         1112
  C:5CF0H         LINE#         1114
  C:5CFDH         LINE#         1116
  C:5D14H         LINE#         1117
  -------         ENDPROC       PROG_FECHA_VENCIMIENTO
  -------         PROC          VER_HORARIO
  -------         DO            
  X:0059H         SYMBOL        buffer
  X:0063H         SYMBOL        ee_addr_horario
BL51 BANKED LINKER/LOCATER V6.22.2.0                                                  06/11/2021  16:40:25  PAGE 81


  X:006EH         SYMBOL        conta
  X:006FH         SYMBOL        addr
  X:0071H         SYMBOL        temp
  X:0073H         SYMBOL        dataee
  -------         ENDDO         
  C:70EFH         LINE#         1120
  C:70EFH         LINE#         1121
  C:70EFH         LINE#         1130
  C:70FBH         LINE#         1131
  C:7111H         LINE#         1132
  C:7111H         LINE#         1134
  C:7121H         LINE#         1137
  C:713AH         LINE#         1138
  C:7140H         LINE#         1141
  C:714EH         LINE#         1142
  C:715DH         LINE#         1143
  C:7177H         LINE#         1144
  C:7182H         LINE#         1145
  C:7182H         LINE#         1146
  C:718BH         LINE#         1148
  C:7194H         LINE#         1149
  C:71A4H         LINE#         1150
  C:71A7H         LINE#         1152
  C:71B2H         LINE#         1153
  C:71CAH         LINE#         1154
  C:71E4H         LINE#         1155
  C:71EEH         LINE#         1156
  C:71EEH         LINE#         1157
  C:71F5H         LINE#         1159
  C:7203H         LINE#         1160
  C:720BH         LINE#         1161
  C:720DH         LINE#         1163
  C:720DH         LINE#         1164
  C:7211H         LINE#         1165
  C:7211H         LINE#         1166
  C:7213H         LINE#         1168
  C:7213H         LINE#         1169
  C:721CH         LINE#         1170
  C:721CH         LINE#         1172
  C:7225H         LINE#         1175
  -------         ENDPROC       VER_HORARIO
  -------         PROC          VER_PROG
  -------         DO            
  X:0046H         SYMBOL        buffer
  X:0050H         SYMBOL        dataee
  X:0052H         SYMBOL        fecha
  -------         ENDDO         
  C:4464H         LINE#         1176
  C:4464H         LINE#         1177
  C:4464H         LINE#         1183
  C:4476H         LINE#         1184
  C:4493H         LINE#         1186
  C:44AAH         LINE#         1188
  C:44BDH         LINE#         1189
  C:44DAH         LINE#         1191
  C:44F1H         LINE#         1193
  C:4504H         LINE#         1194
BL51 BANKED LINKER/LOCATER V6.22.2.0                                                  06/11/2021  16:40:25  PAGE 82


  C:4521H         LINE#         1195
  C:452FH         LINE#         1196
  C:452FH         LINE#         1197
  C:4533H         LINE#         1198
  C:4535H         LINE#         1200
  C:4535H         LINE#         1201
  C:453CH         LINE#         1202
  C:453CH         LINE#         1204
  C:454FH         LINE#         1205
  C:456CH         LINE#         1206
  C:4578H         LINE#         1207
  C:4578H         LINE#         1208
  C:457CH         LINE#         1209
  C:457EH         LINE#         1211
  C:457EH         LINE#         1212
  C:4585H         LINE#         1213
  C:4585H         LINE#         1215
  C:4598H         LINE#         1216
  C:45B5H         LINE#         1217
  C:45C1H         LINE#         1218
  C:45C1H         LINE#         1219
  C:45C5H         LINE#         1220
  C:45C7H         LINE#         1222
  C:45C7H         LINE#         1223
  C:45CEH         LINE#         1224
  C:45CEH         LINE#         1226
  C:45E1H         LINE#         1227
  C:45FEH         LINE#         1228
  C:460AH         LINE#         1229
  C:460AH         LINE#         1230
  C:460EH         LINE#         1231
  C:4610H         LINE#         1233
  C:4610H         LINE#         1234
  C:4617H         LINE#         1235
  C:4617H         LINE#         1237
  C:462AH         LINE#         1238
  C:4647H         LINE#         1239
  C:4653H         LINE#         1240
  C:4653H         LINE#         1241
  C:4657H         LINE#         1242
  C:4659H         LINE#         1244
  C:4659H         LINE#         1245
  C:4660H         LINE#         1246
  C:4660H         LINE#         1248
  C:4673H         LINE#         1249
  C:4690H         LINE#         1250
  C:469CH         LINE#         1251
  C:469CH         LINE#         1252
  C:46A0H         LINE#         1253
  C:46A2H         LINE#         1255
  C:46A2H         LINE#         1256
  C:46A9H         LINE#         1257
  C:46A9H         LINE#         1260
  C:46BCH         LINE#         1261
  C:46D9H         LINE#         1263
  C:46F0H         LINE#         1265
  C:46F3H         LINE#         1269
BL51 BANKED LINKER/LOCATER V6.22.2.0                                                  06/11/2021  16:40:25  PAGE 83


  C:4706H         LINE#         1270
  C:4723H         LINE#         1271
  C:472FH         LINE#         1272
  C:472FH         LINE#         1273
  C:4733H         LINE#         1274
  C:4735H         LINE#         1276
  C:4735H         LINE#         1277
  C:473CH         LINE#         1278
  C:473CH         LINE#         1280
  C:474FH         LINE#         1281
  C:476CH         LINE#         1282
  C:4778H         LINE#         1283
  C:4778H         LINE#         1284
  C:477CH         LINE#         1285
  C:477EH         LINE#         1287
  C:477EH         LINE#         1288
  C:4785H         LINE#         1289
  C:4785H         LINE#         1291
  C:4792H         LINE#         1293
  C:47A9H         LINE#         1294
  C:47C0H         LINE#         1297
  C:47CCH         LINE#         1298
  -------         ENDPROC       VER_PROG
  -------         PROC          SHOW
  C:A169H         LINE#         1305
  C:A169H         LINE#         1306
  C:A169H         LINE#         1307
  C:A172H         LINE#         1308
  C:A17BH         LINE#         1309
  C:A184H         LINE#         1310
  C:A18DH         LINE#         1311
  C:A196H         LINE#         1312
  C:A19FH         LINE#         1313
  C:A1A8H         LINE#         1314
  C:A1B1H         LINE#         1315
  C:A1BAH         LINE#         1316
  C:A1C3H         LINE#         1317
  C:A1CCH         LINE#         1318
  C:A1D5H         LINE#         1319
  C:A1DEH         LINE#         1320
  C:A1E7H         LINE#         1321
  C:A1F0H         LINE#         1322
  C:A1F9H         LINE#         1323
  -------         ENDPROC       SHOW
  -------         PROC          FIRST_CLAVE
  -------         DO            
  X:0046H         SYMBOL        clave
  -------         ENDDO         
  C:B687H         LINE#         1330
  C:B687H         LINE#         1331
  C:B687H         LINE#         1335
  C:B690H         LINE#         1336
  C:B695H         LINE#         1337
  C:B6A7H         LINE#         1338
  C:B6B4H         LINE#         1339
  C:B6BAH         LINE#         1340
  C:B6BDH         LINE#         1341
BL51 BANKED LINKER/LOCATER V6.22.2.0                                                  06/11/2021  16:40:25  PAGE 84


  C:B6C0H         LINE#         1342
  C:B6C2H         LINE#         1344
  -------         ENDPROC       FIRST_CLAVE
  -------         PROC          MENU
  -------         DO            
  X:0001H         SYMBOL        cmd
  X:0004H         SYMBOL        option1
  X:0007H         SYMBOL        option2
  X:000AH         SYMBOL        opt_buffer
  X:0032H         SYMBOL        buffer
  -------         ENDDO         
  C:5508H         LINE#         1348
  C:5508H         LINE#         1349
  C:5508H         LINE#         1358
  C:5511H         LINE#         1363
  C:551DH         LINE#         1364
  C:551DH         LINE#         1365
  C:5520H         LINE#         1366
  C:552AH         LINE#         1369
  C:552AH         LINE#         1371
  C:552AH         LINE#         1372
  C:5533H         LINE#         1373
  C:5540H         LINE#         1374
  C:5545H         LINE#         1375
  C:555BH         LINE#         1376
  C:556DH         LINE#         1377
  C:5576H         LINE#         1382
  C:5581H         LINE#         1383
  C:558FH         LINE#         1384
  C:559CH         LINE#         1386
  C:55A5H         LINE#         1390
  C:55A8H         LINE#         1391
  C:55A8H         LINE#         1392
  C:55A8H         LINE#         1393
  C:55ABH         LINE#         1396
  C:55B6H         LINE#         1397
  C:55C4H         LINE#         1398
  C:55D8H         LINE#         1399
  C:55ECH         LINE#         1404
  C:5602H         LINE#         1405
  C:5602H         LINE#         1407
  C:5611H         LINE#         1408
  C:5613H         LINE#         1409
  C:5623H         LINE#         1410
  C:5623H         LINE#         1412
  C:5632H         LINE#         1413
  C:5650H         LINE#         1414
  C:5650H         LINE#         1420
  C:5663H         LINE#         1421
  C:5663H         LINE#         1422
  C:56ACH         LINE#         1423
  C:56ACH         LINE#         1424
  C:56ACH         LINE#         1425
  C:56AFH         LINE#         1427
  C:56B2H         LINE#         1429
  C:56B2H         LINE#         1430
  C:56B5H         LINE#         1431
BL51 BANKED LINKER/LOCATER V6.22.2.0                                                  06/11/2021  16:40:25  PAGE 85


  C:56B8H         LINE#         1432
  C:56B8H         LINE#         1433
  C:56BBH         LINE#         1434
  C:56BEH         LINE#         1435
  C:56BEH         LINE#         1436
  C:56C1H         LINE#         1437
  C:56C4H         LINE#         1438
  C:56C4H         LINE#         1439
  C:56C7H         LINE#         1440
  C:56CAH         LINE#         1441
  C:56CAH         LINE#         1442
  C:56CDH         LINE#         1443
  C:56D0H         LINE#         1444
  C:56D0H         LINE#         1445
  C:56D3H         LINE#         1446
  C:56D6H         LINE#         1447
  C:56D6H         LINE#         1448
  C:56D9H         LINE#         1449
  C:56DCH         LINE#         1450
  C:56DCH         LINE#         1451
  C:56DFH         LINE#         1452
  C:56E2H         LINE#         1453
  C:56E2H         LINE#         1454
  C:56E5H         LINE#         1455
  C:56E8H         LINE#         1456
  C:56E8H         LINE#         1457
  C:56EBH         LINE#         1458
  C:56EEH         LINE#         1459
  C:56EEH         LINE#         1460
  C:56F1H         LINE#         1461
  C:56F4H         LINE#         1462
  C:56F4H         LINE#         1463
  C:56F7H         LINE#         1464
  C:56FAH         LINE#         1465
  C:56FAH         LINE#         1466
  C:56FDH         LINE#         1467
  C:5700H         LINE#         1468
  C:5700H         LINE#         1469
  C:5703H         LINE#         1470
  C:5706H         LINE#         1471
  C:5706H         LINE#         1472
  C:5709H         LINE#         1473
  C:570CH         LINE#         1474
  C:570CH         LINE#         1476
  C:570CH         LINE#         1477
  C:570CH         LINE#         1478
  C:570FH         LINE#         1479
  C:5712H         LINE#         1482
  C:5712H         LINE#         1483
  C:5730H         LINE#         1484
  C:5733H         LINE#         1485
  C:5733H         LINE#         1486
  C:5733H         LINE#         1487
  C:5733H         LINE#         1488
  -------         ENDPROC       MENU
  -------         ENDMOD        PROG

BL51 BANKED LINKER/LOCATER V6.22.2.0                                                  06/11/2021  16:40:25  PAGE 86


  -------         MODULE        PTO_PARALELO
  C:0000H         SYMBOL        _ICE_DUMMY_
  D:0080H         PUBLIC        P0
  D:00A0H         PUBLIC        P2
  D:00B0H         PUBLIC        P3
  B:0080H.2       PUBLIC        led_err_imp
  C:6FB3H         PUBLIC        load_and_send_id_cod
  C:A202H         PUBLIC        _recibe_port
  B:00B0H.2       PUBLIC        ready
  B:0080H.6       PUBLIC        rx_in_data
  C:C1D3H         PUBLIC        Pulso_Bus
  C:A7AEH         PUBLIC        _send_portERR
  B:00B0H.3       PUBLIC        busy
  C:B5A7H         PUBLIC        load_and_send_info_reloj
  C:990AH         PUBLIC        _send_port
  B:00B0H.4       PUBLIC        port_clk
  C:C24EH         PUBLIC        cond_ini_pto
  -------         PROC          _RECIBE_PORT
  X:0001H         SYMBOL        buffer_port
  -------         DO            
  D:0006H         SYMBOL        count
  X:0004H         SYMBOL        time_out
  X:0005H         SYMBOL        num_data
  X:0006H         SYMBOL        T_ANCHO
  X:0008H         SYMBOL        data_temp
  -------         ENDDO         
  C:A202H         LINE#         60
  C:A20DH         LINE#         61
  C:A20DH         LINE#         65
  C:A216H         LINE#         66
  C:A219H         LINE#         69
  C:A21CH         LINE#         70
  C:A21CH         LINE#         72
  C:A21FH         LINE#         73
  C:A224H         LINE#         74
  C:A226H         LINE#         75
  C:A22AH         LINE#         76
  C:A22CH         LINE#         79
  C:A231H         LINE#         80
  C:A23AH         LINE#         81
  C:A23AH         LINE#         82
  C:A23DH         LINE#         83
  C:A23DH         LINE#         85
  C:A242H         LINE#         86
  C:A246H         LINE#         87
  C:A246H         LINE#         88
  C:A248H         LINE#         89
  C:A24AH         LINE#         90
  C:A24AH         LINE#         91
  C:A24AH         LINE#         93
  C:A24AH         LINE#         94
  C:A257H         LINE#         95
  C:A257H         LINE#         97
  C:A25AH         LINE#         98
  C:A25AH         LINE#         100
  C:A260H         LINE#         102
  C:A262H         LINE#         103
BL51 BANKED LINKER/LOCATER V6.22.2.0                                                  06/11/2021  16:40:25  PAGE 87


  C:A276H         LINE#         104
  C:A280H         LINE#         105
  C:A286H         LINE#         106
  C:A28CH         LINE#         107
  C:A28EH         LINE#         108
  C:A28EH         LINE#         109
  C:A28EH         LINE#         110
  C:A28EH         LINE#         113
  C:A290H         LINE#         114
  C:A292H         LINE#         115
  C:A292H         LINE#         116
  C:A295H         LINE#         118
  C:A29AH         LINE#         119
  -------         ENDPROC       _RECIBE_PORT
  -------         PROC          _SEND_PORT
  X:0016H         SYMBOL        buffer_port
  X:0019H         SYMBOL        length_char
  -------         DO            
  X:001AH         SYMBOL        cont
  X:001EH         SYMBOL        timeOut
  X:001FH         SYMBOL        length
  -------         ENDDO         
  C:990AH         LINE#         126
  C:9918H         LINE#         127
  C:9918H         LINE#         132
  C:991CH         LINE#         134
  C:991EH         LINE#         135
  C:9920H         LINE#         136
  C:9922H         LINE#         137
  C:9927H         LINE#         138
  C:9929H         LINE#         139
  C:9933H         LINE#         141
  C:993CH         LINE#         142
  C:993CH         LINE#         143
  C:993EH         LINE#         144
  C:9940H         LINE#         145
  C:9964H         LINE#         146
  C:9978H         LINE#         147
  C:9978H         LINE#         148
  C:997BH         LINE#         149
  C:997DH         LINE#         150
  C:997DH         LINE#         151
  C:997FH         LINE#         152
  C:9988H         LINE#         153
  C:9988H         LINE#         157
  C:9988H         LINE#         159
  C:9998H         LINE#         160
  C:999BH         LINE#         161
  C:99A5H         LINE#         163
  C:99ABH         LINE#         164
  C:99AEH         LINE#         166
  C:99AEH         LINE#         168
  C:99B1H         LINE#         169
  C:99B3H         LINE#         170
  C:99B5H         LINE#         171
  C:99B7H         LINE#         172
  -------         ENDPROC       _SEND_PORT
BL51 BANKED LINKER/LOCATER V6.22.2.0                                                  06/11/2021  16:40:25  PAGE 88


  -------         PROC          PULSO_BUS
  C:C1D3H         LINE#         180
  C:C1D3H         LINE#         181
  C:C1D3H         LINE#         182
  C:C1D5H         LINE#         183
  C:C1DCH         LINE#         184
  C:C1DEH         LINE#         185
  -------         ENDPROC       PULSO_BUS
  -------         PROC          _SEND_PORTERR
  X:002AH         SYMBOL        cod_err
  -------         DO            
  X:002BH         SYMBOL        timeOut
  X:002CH         SYMBOL        cont
  -------         ENDDO         
  C:A7AEH         LINE#         190
  C:A7B4H         LINE#         191
  C:A7B4H         LINE#         195
  C:A7B6H         LINE#         196
  C:A7B8H         LINE#         197
  C:A7BBH         LINE#         198
  C:A7C3H         LINE#         200
  C:A7C5H         LINE#         201
  C:A7C7H         LINE#         202
  C:A7D0H         LINE#         203
  C:A7D0H         LINE#         204
  C:A7F2H         LINE#         205
  C:A806H         LINE#         206
  C:A806H         LINE#         207
  C:A80BH         LINE#         208
  C:A80BH         LINE#         209
  C:A80DH         LINE#         210
  C:A816H         LINE#         211
  C:A816H         LINE#         212
  C:A81CH         LINE#         213
  C:A81FH         LINE#         214
  C:A81FH         LINE#         215
  C:A821H         LINE#         216
  C:A823H         LINE#         217
  C:A825H         LINE#         219
  C:A828H         LINE#         221
  C:A82FH         LINE#         222
  -------         ENDPROC       _SEND_PORTERR
  -------         PROC          COND_INI_PTO
  C:C24EH         LINE#         228
  C:C24EH         LINE#         229
  C:C24EH         LINE#         231
  C:C250H         LINE#         232
  C:C252H         LINE#         233
  C:C254H         LINE#         234
  C:C257H         LINE#         235
  -------         ENDPROC       COND_INI_PTO
  -------         PROC          LOAD_AND_SEND_INFO_RELOJ
  -------         DO            
  X:0002H         SYMBOL        buffer_info
  -------         ENDDO         
  C:B5A7H         LINE#         240
  C:B5A7H         LINE#         241
BL51 BANKED LINKER/LOCATER V6.22.2.0                                                  06/11/2021  16:40:25  PAGE 89


  C:B5A7H         LINE#         244
  C:B5ADH         LINE#         246
  C:B5B1H         LINE#         252
  C:B5BAH         LINE#         255
  C:B5C4H         LINE#         256
  C:B5C8H         LINE#         257
  C:B5CBH         LINE#         258
  C:B5D4H         LINE#         259
  C:B5E5H         LINE#         260
  C:B5E8H         LINE#         261
  -------         ENDPROC       LOAD_AND_SEND_INFO_RELOJ
  -------         PROC          LOAD_AND_SEND_ID_COD
  -------         DO            
  X:0002H         SYMBOL        buffer_info
  X:000DH         SYMBOL        buf
  X:0011H         SYMBOL        i
  X:0012H         SYMBOL        ID_CLIENTE
  X:0014H         SYMBOL        COD_PARK
  -------         ENDDO         
  C:6FB3H         LINE#         268
  C:6FB3H         LINE#         269
  C:6FB3H         LINE#         277
  C:6FC3H         LINE#         279
  C:6FD4H         LINE#         281
  C:6FDAH         LINE#         282
  C:6FDEH         LINE#         283
  C:6FE1H         LINE#         285
  C:7007H         LINE#         286
  C:701EH         LINE#         289
  C:7035H         LINE#         292
  C:705BH         LINE#         293
  C:7072H         LINE#         295
  C:7089H         LINE#         296
  C:7097H         LINE#         297
  C:70A8H         LINE#         298
  C:70BBH         LINE#         299
  C:70C1H         LINE#         300
  C:70CAH         LINE#         301
  C:70DEH         LINE#         302
  C:70E1H         LINE#         303
  -------         ENDPROC       LOAD_AND_SEND_ID_COD
  -------         ENDMOD        PTO_PARALELO

  -------         MODULE        TIBBO
  C:0000H         SYMBOL        _ICE_DUMMY_
  C:B7E9H         PUBLIC        _Debug_HexDec
  C:B649H         PUBLIC        _Debug_txt_Tibbo
  D:0080H         PUBLIC        P0
  D:0090H         PUBLIC        P1
  B:0090H.0       PUBLIC        txd2
  B:00A8H.7       PUBLIC        EA
  C:B5F6H         PUBLIC        _tx_aux
  B:0080H.0       PUBLIC        rx_ip
  C:C258H         PUBLIC        Debug_Dividir_texto
  C:C2ADH         PUBLIC        cond_ini_tibbo
  C:C148H         PUBLIC        time_mbit
  C:A836H         PUBLIC        rx_Data
BL51 BANKED LINKER/LOCATER V6.22.2.0                                                  06/11/2021  16:40:25  PAGE 90


  C:C0C7H         PUBLIC        time_bit
  C:B9BAH         PUBLIC        _Debug_pto_paralelo
  C:BB2FH         PUBLIC        _Debug_monitor
  C:A9CCH         PUBLIC        _DebugBufferMF
  C:B6CFH         PUBLIC        _Debug_chr_Tibbo
  C:C0C1H         SYMBOL        L?0067
  -------         PROC          L?0066
  -------         ENDPROC       L?0066
  C:C0C1H         SYMBOL        L?0067
  -------         PROC          TIME_BIT
  -------         DO            
  D:0007H         SYMBOL        j
  -------         ENDDO         
  C:C0C7H         LINE#         20
  C:C0C7H         LINE#         21
  C:C0C7H         LINE#         24
  C:C0D3H         LINE#         25
  C:C0D3H         LINE#         26
  C:C0D4H         LINE#         27
  C:C0D5H         LINE#         28
  C:C0D6H         LINE#         29
  C:C0D7H         LINE#         30
  C:C0D8H         LINE#         31
  C:C0D9H         LINE#         32
  C:C0DAH         LINE#         33
  C:C0DBH         LINE#         34
  C:C0DCH         LINE#         39
  C:C0DFH         LINE#         40
  -------         ENDPROC       TIME_BIT
  -------         PROC          TIME_MBIT
  -------         DO            
  D:0007H         SYMBOL        j
  -------         ENDDO         
  C:C148H         LINE#         43
  C:C148H         LINE#         44
  C:C148H         LINE#         46
  C:C154H         LINE#         47
  C:C154H         LINE#         48
  C:C155H         LINE#         49
  C:C156H         LINE#         50
  C:C157H         LINE#         51
  C:C158H         LINE#         52
  C:C159H         LINE#         53
  C:C15AH         LINE#         54
  C:C15BH         LINE#         55
  C:C15EH         LINE#         57
  -------         ENDPROC       TIME_MBIT
  -------         PROC          L?0070
  -------         ENDPROC       L?0070
  -------         PROC          _TX_AUX
  D:0006H         SYMBOL        caracter
  -------         DO            
  D:0004H         SYMBOL        j
  D:0005H         SYMBOL        temporal
  D:0006H         SYMBOL        bitTX
  -------         ENDDO         
  C:B5F6H         LINE#         62
BL51 BANKED LINKER/LOCATER V6.22.2.0                                                  06/11/2021  16:40:25  PAGE 91


  C:B5F8H         LINE#         63
  C:B5F8H         LINE#         66
  C:B5FAH         LINE#         67
  C:B5FCH         LINE#         68
  C:B5FFH         LINE#         69
  C:B600H         LINE#         70
  C:B601H         LINE#         71
  C:B603H         LINE#         72
  C:B607H         LINE#         73
  C:B609H         LINE#         74
  C:B609H         LINE#         75
  C:B60BH         LINE#         76
  C:B60DH         LINE#         78
  C:B60DH         LINE#         79
  C:B60FH         LINE#         80
  C:B60FH         LINE#         81
  C:B612H         LINE#         82
  C:B61EH         LINE#         83
  C:B61EH         LINE#         84
  C:B622H         LINE#         85
  C:B625H         LINE#         86
  C:B627H         LINE#         87
  C:B627H         LINE#         88
  C:B629H         LINE#         89
  C:B62BH         LINE#         91
  C:B62BH         LINE#         92
  C:B62DH         LINE#         93
  C:B62DH         LINE#         94
  C:B630H         LINE#         95
  C:B633H         LINE#         96
  C:B635H         LINE#         97
  C:B638H         LINE#         98
  C:B63BH         LINE#         100
  C:B63DH         LINE#         101
  -------         ENDPROC       _TX_AUX
  -------         PROC          _DEBUG_HEXDEC
  D:0007H         SYMBOL        xfc
  -------         DO            
  X:0018H         SYMBOL        valor
  D:0006H         SYMBOL        centena
  D:0003H         SYMBOL        decena
  D:0002H         SYMBOL        unidad
  -------         ENDDO         
  C:B7E9H         LINE#         104
  C:B7E9H         LINE#         105
  C:B7E9H         LINE#         108
  C:B7F0H         LINE#         110
  C:B7F1H         LINE#         111
  C:B7F2H         LINE#         112
  C:B7F3H         LINE#         113
  C:B7FBH         LINE#         114
  C:B7FBH         LINE#         115
  C:B805H         LINE#         116
  C:B805H         LINE#         117
  C:B809H         LINE#         118
  C:B80AH         LINE#         119
  C:B80CH         LINE#         120
BL51 BANKED LINKER/LOCATER V6.22.2.0                                                  06/11/2021  16:40:25  PAGE 92


  C:B816H         LINE#         121
  C:B816H         LINE#         122
  C:B81AH         LINE#         123
  C:B81BH         LINE#         124
  C:B81DH         LINE#         125
  C:B81FH         LINE#         126
  C:B823H         LINE#         127
  C:B827H         LINE#         128
  C:B82EH         LINE#         130
  C:B82EH         LINE#         131
  -------         ENDPROC       _DEBUG_HEXDEC
  -------         PROC          _DEBUG_CHR_TIBBO
  D:0003H         SYMBOL        Dat
  -------         DO            
  D:0007H         SYMBOL        temp
  -------         ENDDO         
  C:B6CFH         LINE#         136
  C:B6D1H         LINE#         137
  C:B6D1H         LINE#         139
  C:B6D9H         LINE#         140
  C:B6D9H         LINE#         141
  C:B6E0H         LINE#         142
  C:B6F3H         LINE#         144
  C:B6F6H         LINE#         146
  C:B6FAH         LINE#         147
  C:B70DH         LINE#         148
  C:B710H         LINE#         149
  C:B715H         LINE#         151
  C:B715H         LINE#         152
  -------         ENDPROC       _DEBUG_CHR_TIBBO
  -------         PROC          _DEBUGBUFFERMF
  X:0027H         SYMBOL        str
  X:002AH         SYMBOL        num_char
  X:002BH         SYMBOL        io
  -------         DO            
  X:002CH         SYMBOL        j
  -------         ENDDO         
  C:A9CCH         LINE#         160
  C:A9DAH         LINE#         161
  C:A9DAH         LINE#         165
  C:A9E2H         LINE#         166
  C:A9E2H         LINE#         167
  C:A9F1H         LINE#         168
  C:A9F1H         LINE#         169
  C:A9F7H         LINE#         170
  C:A9F9H         LINE#         171
  C:AA06H         LINE#         172
  C:AA06H         LINE#         173
  C:AA0FH         LINE#         174
  C:AA0FH         LINE#         176
  C:AA21H         LINE#         177
  C:AA21H         LINE#         178
  C:AA33H         LINE#         179
  C:AA3DH         LINE#         180
  C:AA45H         LINE#         181
  C:AA4AH         LINE#         182
  C:AA4FH         LINE#         183
BL51 BANKED LINKER/LOCATER V6.22.2.0                                                  06/11/2021  16:40:25  PAGE 93


  C:AA4FH         LINE#         185
  -------         ENDPROC       _DEBUGBUFFERMF
  C:B643H         SYMBOL        L?0069
  -------         PROC          L?0068
  -------         ENDPROC       L?0068
  C:B643H         SYMBOL        L?0069
  -------         PROC          _DEBUG_TXT_TIBBO
  X:0064H         SYMBOL        str
  -------         DO            
  X:0067H         SYMBOL        i
  -------         ENDDO         
  C:B649H         LINE#         190
  C:B654H         LINE#         191
  C:B654H         LINE#         193
  C:B657H         LINE#         195
  C:B65FH         LINE#         196
  C:B65FH         LINE#         197
  C:B67BH         LINE#         198
  C:B67BH         LINE#         199
  C:B67EH         LINE#         200
  C:B686H         LINE#         202
  C:B686H         LINE#         203
  -------         ENDPROC       _DEBUG_TXT_TIBBO
  -------         PROC          DEBUG_DIVIDIR_TEXTO
  C:C258H         LINE#         205
  C:C258H         LINE#         206
  C:C258H         LINE#         207
  -------         ENDPROC       DEBUG_DIVIDIR_TEXTO
  -------         PROC          RX_DATA
  -------         DO            
  D:0006H         SYMBOL        temporal
  -------         ENDDO         
  C:A836H         LINE#         213
  C:A836H         LINE#         214
  C:A836H         LINE#         217
  C:A838H         LINE#         218
  C:A83BH         LINE#         220
  C:A83EH         LINE#         222
  C:A84AH         LINE#         223
  C:A84AH         LINE#         225
  C:A84DH         LINE#         227
  C:A859H         LINE#         228
  C:A859H         LINE#         230
  C:A85CH         LINE#         232
  C:A868H         LINE#         233
  C:A868H         LINE#         235
  C:A86BH         LINE#         237
  C:A877H         LINE#         238
  C:A877H         LINE#         240
  C:A87AH         LINE#         242
  C:A886H         LINE#         243
  C:A886H         LINE#         245
  C:A889H         LINE#         247
  C:A895H         LINE#         248
  C:A895H         LINE#         250
  C:A898H         LINE#         252
  C:A8A4H         LINE#         253
BL51 BANKED LINKER/LOCATER V6.22.2.0                                                  06/11/2021  16:40:25  PAGE 94


  C:A8A4H         LINE#         255
  C:A8A7H         LINE#         256
  C:A8B5H         LINE#         258
  C:A8B8H         LINE#         259
  C:A8BBH         LINE#         260
  C:A8BBH         LINE#         261
  C:A8BBH         LINE#         264
  C:A8BDH         LINE#         266
  -------         ENDPROC       RX_DATA
  -------         PROC          COND_INI_TIBBO
  C:C2ADH         LINE#         284
  C:C2ADH         LINE#         285
  C:C2ADH         LINE#         287
  C:C2AFH         LINE#         288
  C:C2B1H         LINE#         289
  -------         ENDPROC       COND_INI_TIBBO
  -------         PROC          _DEBUG_PTO_PARALELO
  X:0001H         SYMBOL        buffer
  X:0004H         SYMBOL        Length_trama
  C:B9BAH         LINE#         290
  C:B9C8H         LINE#         291
  C:B9C8H         LINE#         293
  C:B9D1H         LINE#         294
  C:B9E8H         LINE#         295
  C:B9F1H         LINE#         296
  C:B9F4H         LINE#         297
  C:B9F7H         LINE#         298
  -------         ENDPROC       _DEBUG_PTO_PARALELO
  -------         PROC          _DEBUG_MONITOR
  X:0016H         SYMBOL        buffer
  X:0019H         SYMBOL        Length_trama
  C:BB2FH         LINE#         301
  C:BB3DH         LINE#         302
  C:BB3DH         LINE#         303
  C:BB40H         LINE#         304
  C:BB49H         LINE#         305
  C:BB57H         LINE#         306
  C:BB5AH         LINE#         307
  C:BB63H         LINE#         308
  C:BB66H         LINE#         309
  C:BB69H         LINE#         310
  -------         ENDPROC       _DEBUG_MONITOR
  -------         ENDMOD        TIBBO

  -------         MODULE        UART
  C:0000H         SYMBOL        _ICE_DUMMY_
  C:BF68H         PUBLIC        com_getchar
  C:C1E5H         PUBLIC        com_rbuflen
  C:C1F7H         PUBLIC        com_tbuflen
  B:00A8H.4       PUBLIC        ES
  B:0098H.0       PUBLIC        RI
  C:BC1FH         PUBLIC        _com_putchar
  B:0098H.1       PUBLIC        TI
  B:0021H.4       PUBLIC        aSk
  B:00B8H.4       PUBLIC        PS
  D:000DH         SYMBOL        r_in
  D:000EH         SYMBOL        r_out
BL51 BANKED LINKER/LOCATER V6.22.2.0                                                  06/11/2021  16:40:25  PAGE 95


  D:000FH         SYMBOL        t_in
  D:0010H         SYMBOL        t_out
  D:0099H         PUBLIC        SBUF
  D:0087H         PUBLIC        PCON
  D:0089H         PUBLIC        TMOD
  B:0021H.5       SYMBOL        ti_restart
  B:00A8H.3       PUBLIC        ET1
  D:008DH         PUBLIC        TH1
  B:0098H.7       PUBLIC        SM0
  B:0098H.6       PUBLIC        SM1
  D:008BH         PUBLIC        TL1
  B:0098H.5       PUBLIC        SM2
  B:0088H.6       PUBLIC        TR1
  C:BE9FH         PUBLIC        com_initialize
  X:0212H         PUBLIC        cnt__ask_off
  B:0098H.4       PUBLIC        REN
  C:BEF1H         PUBLIC        com_baudrate
  C:62CDH         SYMBOL        com_isr
  -------         PROC          COM_ISR
  -------         DO            
  X:0210H         SYMBOL        cDatoRx
  D:0006H         SYMBOL        k
  D:0007H         SYMBOL        bcc
  X:0211H         SYMBOL        num_datos
  -------         ENDDO         
  C:62CDH         LINE#         95
  C:62E2H         LINE#         103
  C:62E8H         LINE#         104
  C:62E8H         LINE#         106
  C:62EAH         LINE#         107
  C:62F0H         LINE#         108
  C:6300H         LINE#         109
  C:6300H         LINE#         110
  C:630BH         LINE#         111
  C:630DH         LINE#         113
  C:630DH         LINE#         114
  C:631DH         LINE#         115
  C:631DH         LINE#         116
  C:6322H         LINE#         117
  C:6322H         LINE#         118
  C:6339H         LINE#         119
  C:6339H         LINE#         123
  C:6339H         LINE#         126
  C:6348H         LINE#         127
  C:6348H         LINE#         128
  C:634AH         LINE#         129
  C:6352H         LINE#         130
  C:6357H         LINE#         132
  C:6357H         LINE#         133
  C:635AH         LINE#         137
  C:635AH         LINE#         138
  C:635AH         LINE#         139
  C:6372H         LINE#         140
  C:6381H         LINE#         141
  C:6381H         LINE#         142
  C:6381H         LINE#         143
  C:6383H         LINE#         145
BL51 BANKED LINKER/LOCATER V6.22.2.0                                                  06/11/2021  16:40:25  PAGE 96


  C:6383H         LINE#         146
  C:6385H         LINE#         147
  C:6385H         LINE#         148
  C:6385H         LINE#         149
  C:6388H         LINE#         153
  C:6388H         LINE#         155
  C:6391H         LINE#         156
  C:6391H         LINE#         158
  C:6397H         LINE#         159
  C:63AAH         LINE#         160
  C:63AAH         LINE#         161
  C:63ADH         LINE#         163
  C:63ADH         LINE#         164
  C:63C2H         LINE#         165
  C:63C8H         LINE#         166
  C:63C8H         LINE#         168
  C:63CBH         LINE#         172
  C:63CBH         LINE#         174
  C:63E3H         LINE#         175
  C:63E9H         LINE#         176
  C:63ECH         LINE#         177
  C:63ECH         LINE#         178
  C:6404H         LINE#         179
  C:6404H         LINE#         180
  C:6405H         LINE#         181
  C:6412H         LINE#         182
  C:6412H         LINE#         183
  C:641FH         LINE#         184
  C:6422H         LINE#         185
  C:6430H         LINE#         186
  C:6430H         LINE#         187
  C:6432H         LINE#         188
  C:6437H         LINE#         189
  C:6439H         LINE#         190
  C:643DH         LINE#         192
  C:643FH         LINE#         194
  C:643FH         LINE#         195
  C:643FH         LINE#         196
  C:643FH         LINE#         197
  C:6441H         LINE#         199
  C:6441H         LINE#         200
  C:6441H         LINE#         201
  C:6441H         LINE#         203
  C:6443H         LINE#         205
  C:6443H         LINE#         206
  C:6449H         LINE#         207
  C:6449H         LINE#         209
  C:644BH         LINE#         214
  C:644BH         LINE#         215
  C:6450H         LINE#         216
  C:6450H         LINE#         217
  C:6450H         LINE#         218
  C:6450H         LINE#         223
  C:6453H         LINE#         224
  C:6453H         LINE#         225
  C:6455H         LINE#         227
  C:645BH         LINE#         228
BL51 BANKED LINKER/LOCATER V6.22.2.0                                                  06/11/2021  16:40:25  PAGE 97


  C:645BH         LINE#         229
  C:6465H         LINE#         231
  C:6467H         LINE#         232
  C:6469H         LINE#         233
  C:646BH         LINE#         235
  C:646BH         LINE#         236
  C:646DH         LINE#         237
  C:646DH         LINE#         238
  C:646DH         LINE#         240
  -------         ENDPROC       COM_ISR
  -------         PROC          COM_INITIALIZE
  C:BE9FH         LINE#         256
  C:BEA6H         LINE#         257
  C:BEA6H         LINE#         261
  C:BEA9H         LINE#         266
  C:BEACH         LINE#         267
  C:BEAEH         LINE#         269
  C:BEB0H         LINE#         270
  C:BEB2H         LINE#         275
  C:BEB6H         LINE#         276
  C:BEB8H         LINE#         277
  C:BEBAH         LINE#         279
  C:BEBCH         LINE#         280
  C:BEBEH         LINE#         281
  C:BEC0H         LINE#         283
  C:BEC2H         LINE#         284
  C:BEC4H         LINE#         285
  -------         ENDPROC       COM_INITIALIZE
  -------         PROC          COM_BAUDRATE
  C:BEF1H         LINE#         291
  C:BEF8H         LINE#         293
  C:BEF8H         LINE#         297
  C:BEFAH         LINE#         298
  C:BEFDH         LINE#         299
  C:BEFFH         LINE#         304
  C:BF01H         LINE#         305
  C:BF03H         LINE#         307
  C:BF06H         LINE#         309
  C:BF09H         LINE#         310
  C:BF0CH         LINE#         312
  C:BF0FH         LINE#         313
  C:BF12H         LINE#         314
  C:BF14H         LINE#         315
  -------         ENDPROC       COM_BAUDRATE
  -------         PROC          _COM_PUTCHAR
  X:00AAH         SYMBOL        c
  C:BC1FH         LINE#         321
  C:BC2BH         LINE#         322
  C:BC2BH         LINE#         326
  C:BC38H         LINE#         327
  C:BC3CH         LINE#         333
  C:BC4AH         LINE#         335
  C:BC4CH         LINE#         337
  C:BC4FH         LINE#         338
  C:BC4FH         LINE#         339
  C:BC51H         LINE#         340
  C:BC53H         LINE#         341
BL51 BANKED LINKER/LOCATER V6.22.2.0                                                  06/11/2021  16:40:25  PAGE 98


  C:BC53H         LINE#         343
  C:BC55H         LINE#         344
  -------         ENDPROC       _COM_PUTCHAR
  -------         PROC          COM_GETCHAR
  C:BF68H         LINE#         350
  C:BF6FH         LINE#         351
  C:BF6FH         LINE#         352
  C:BF75H         LINE#         353
  C:BF7BH         LINE#         355
  C:BF89H         LINE#         356
  -------         ENDPROC       COM_GETCHAR
  -------         PROC          COM_RBUFLEN
  C:C1E5H         LINE#         362
  C:C1ECH         LINE#         363
  C:C1ECH         LINE#         364
  C:C1F2H         LINE#         365
  -------         ENDPROC       COM_RBUFLEN
  -------         PROC          COM_TBUFLEN
  C:C1F7H         LINE#         371
  C:C1FEH         LINE#         372
  C:C1FEH         LINE#         373
  C:C204H         LINE#         374
  -------         ENDPROC       COM_TBUFLEN
  -------         ENDMOD        UART

  -------         MODULE        LINTECH
  C:0000H         SYMBOL        _ICE_DUMMY_
  C:9EFCH         PUBLIC        _Inicializa
  C:91ADH         PUBLIC        _RD_MF
  C:9BC3H         PUBLIC        Dwload_EEprom
  C:A3C4H         PUBLIC        _Card_Insercion
  C:86F4H         PUBLIC        _Mov_Card
  C:7C33H         PUBLIC        _WR_MF
  C:A695H         PUBLIC        LoadVerify_EEprom
  C:A8BEH         PUBLIC        Unique_Identifier_UID
  C:ACD8H         PUBLIC        Power_off
  C:A946H         PUBLIC        _Check_Status
  C:9B19H         PUBLIC        Clave_Seguridad_S2
  C:AC58H         PUBLIC        Aut_Card_check_Status
  -------         PROC          _INICIALIZA
  X:0002H         SYMBOL        TipoMovimiento
  -------         DO            
  D:0003H         SYMBOL        j
  X:0003H         SYMBOL        bcc
  X:0004H         SYMBOL        g_scArrTxComSoft
  -------         ENDDO         
  C:9EFCH         LINE#         68
  C:9F01H         LINE#         69
  C:9F01H         LINE#         72
  C:9F04H         LINE#         73
  C:9F1AH         LINE#         74
  C:9F1AH         LINE#         76
  C:9F23H         LINE#         78
  C:9F29H         LINE#         79
  C:9F2CH         LINE#         80
  C:9F2EH         LINE#         81
  C:9F32H         LINE#         82
BL51 BANKED LINKER/LOCATER V6.22.2.0                                                  06/11/2021  16:40:25  PAGE 99


  C:9F36H         LINE#         83
  C:9F3AH         LINE#         84
  C:9F42H         LINE#         85
  C:9F46H         LINE#         86
  C:9F52H         LINE#         87
  C:9F52H         LINE#         88
  C:9F66H         LINE#         89
  C:9F69H         LINE#         90
  C:9F71H         LINE#         91
  C:9F73H         LINE#         92
  C:9F78H         LINE#         93
  C:9F87H         LINE#         94
  C:9F92H         LINE#         95
  C:9F98H         LINE#         96
  C:9F98H         LINE#         97
  -------         ENDPROC       _INICIALIZA
  -------         PROC          _CHECK_STATUS
  X:0002H         SYMBOL        Detalle
  -------         DO            
  D:0006H         SYMBOL        j
  D:0007H         SYMBOL        bcc
  X:0003H         SYMBOL        g_scArrTxComSoft
  -------         ENDDO         
  C:A946H         LINE#         109
  C:A94BH         LINE#         110
  C:A94BH         LINE#         114
  C:A951H         LINE#         115
  C:A951H         LINE#         116
  C:A955H         LINE#         117
  C:A957H         LINE#         119
  C:A957H         LINE#         120
  C:A95EH         LINE#         121
  C:A95EH         LINE#         122
  C:A960H         LINE#         124
  C:A966H         LINE#         125
  C:A969H         LINE#         126
  C:A96BH         LINE#         127
  C:A96FH         LINE#         128
  C:A973H         LINE#         129
  C:A977H         LINE#         130
  C:A97FH         LINE#         131
  C:A983H         LINE#         132
  C:A98FH         LINE#         133
  C:A98FH         LINE#         134
  C:A99CH         LINE#         135
  C:A99FH         LINE#         136
  C:A9A4H         LINE#         137
  C:A9A6H         LINE#         138
  C:A9ABH         LINE#         139
  C:A9BAH         LINE#         140
  C:A9C5H         LINE#         141
  C:A9CBH         LINE#         142
  -------         ENDPROC       _CHECK_STATUS
  -------         PROC          _CARD_INSERCION
  D:0007H         SYMBOL        Tipo
  -------         DO            
  D:0006H         SYMBOL        j
BL51 BANKED LINKER/LOCATER V6.22.2.0                                                  06/11/2021  16:40:25  PAGE 100


  D:0007H         SYMBOL        bcc
  X:0002H         SYMBOL        g_scArrTxComSoft
  -------         ENDDO         
  C:A3C4H         LINE#         152
  C:A3C4H         LINE#         153
  C:A3C4H         LINE#         156
  C:A3D1H         LINE#         157
  C:A3D1H         LINE#         158
  C:A3D8H         LINE#         159
  C:A3DEH         LINE#         160
  C:A3E0H         LINE#         162
  C:A3E0H         LINE#         164
  C:A3E7H         LINE#         165
  C:A3EDH         LINE#         167
  C:A3EDH         LINE#         169
  C:A3EFH         LINE#         171
  C:A3F5H         LINE#         172
  C:A3F8H         LINE#         173
  C:A3FAH         LINE#         174
  C:A3FEH         LINE#         175
  C:A402H         LINE#         176
  C:A406H         LINE#         178
  C:A40CH         LINE#         179
  C:A418H         LINE#         180
  C:A418H         LINE#         181
  C:A425H         LINE#         182
  C:A428H         LINE#         184
  C:A42DH         LINE#         186
  C:A42FH         LINE#         187
  C:A434H         LINE#         188
  C:A443H         LINE#         189
  C:A44EH         LINE#         190
  C:A454H         LINE#         191
  -------         ENDPROC       _CARD_INSERCION
  -------         PROC          _MOV_CARD
  X:0002H         SYMBOL        Posicion
  -------         DO            
  D:0003H         SYMBOL        j
  X:0003H         SYMBOL        bcc
  X:0004H         SYMBOL        g_scArrTxComSoft
  -------         ENDDO         
  C:86F4H         LINE#         202
  C:86F9H         LINE#         203
  C:86F9H         LINE#         206
  C:86FCH         LINE#         208
  C:871CH         LINE#         209
  C:871CH         LINE#         210
  C:8723H         LINE#         211
  C:8723H         LINE#         212
  C:8729H         LINE#         213
  C:872BH         LINE#         214
  C:8732H         LINE#         215
  C:8732H         LINE#         216
  C:8738H         LINE#         217
  C:873AH         LINE#         218
  C:8741H         LINE#         219
  C:8741H         LINE#         220
BL51 BANKED LINKER/LOCATER V6.22.2.0                                                  06/11/2021  16:40:25  PAGE 101


  C:8747H         LINE#         221
  C:8749H         LINE#         222
  C:8750H         LINE#         223
  C:8750H         LINE#         224
  C:8756H         LINE#         225
  C:8758H         LINE#         226
  C:875FH         LINE#         227
  C:875FH         LINE#         228
  C:8768H         LINE#         229
  C:8768H         LINE#         231
  C:876EH         LINE#         232
  C:8771H         LINE#         233
  C:8773H         LINE#         234
  C:8777H         LINE#         235
  C:877BH         LINE#         236
  C:877FH         LINE#         237
  C:8787H         LINE#         238
  C:878BH         LINE#         239
  C:8797H         LINE#         240
  C:8797H         LINE#         241
  C:87ABH         LINE#         242
  C:87AEH         LINE#         243
  C:87B6H         LINE#         244
  C:87B8H         LINE#         245
  C:87BDH         LINE#         246
  C:87CCH         LINE#         247
  C:87D7H         LINE#         248
  C:87DDH         LINE#         249
  C:87DDH         LINE#         251
  -------         ENDPROC       _MOV_CARD
  -------         PROC          AUT_CARD_CHECK_STATUS
  -------         DO            
  D:0003H         SYMBOL        j
  X:0002H         SYMBOL        bcc
  X:0003H         SYMBOL        g_scArrTxComSoft
  -------         ENDDO         
  C:AC58H         LINE#         257
  C:AC58H         LINE#         258
  C:AC58H         LINE#         261
  C:AC5DH         LINE#         263
  C:AC66H         LINE#         265
  C:AC6CH         LINE#         266
  C:AC6FH         LINE#         267
  C:AC71H         LINE#         268
  C:AC75H         LINE#         269
  C:AC79H         LINE#         270
  C:AC7DH         LINE#         271
  C:AC81H         LINE#         272
  C:AC85H         LINE#         273
  C:AC91H         LINE#         274
  C:AC91H         LINE#         275
  C:ACA5H         LINE#         276
  C:ACA8H         LINE#         277
  C:ACB0H         LINE#         278
  C:ACB2H         LINE#         279
  C:ACB7H         LINE#         280
  C:ACC6H         LINE#         281
BL51 BANKED LINKER/LOCATER V6.22.2.0                                                  06/11/2021  16:40:25  PAGE 102


  C:ACD1H         LINE#         282
  C:ACD7H         LINE#         283
  -------         ENDPROC       AUT_CARD_CHECK_STATUS
  -------         PROC          CLAVE_SEGURIDAD_S2
  -------         DO            
  D:0003H         SYMBOL        j
  X:0002H         SYMBOL        bcc
  X:0003H         SYMBOL        g_scArrTxComSoft
  -------         ENDDO         
  C:9B19H         LINE#         286
  C:9B19H         LINE#         287
  C:9B19H         LINE#         290
  C:9B1EH         LINE#         291
  C:9B27H         LINE#         294
  C:9B2DH         LINE#         295
  C:9B30H         LINE#         296
  C:9B32H         LINE#         297
  C:9B36H         LINE#         298
  C:9B3AH         LINE#         299
  C:9B3EH         LINE#         300
  C:9B42H         LINE#         301
  C:9B45H         LINE#         302
  C:9B49H         LINE#         303
  C:9B4CH         LINE#         304
  C:9B50H         LINE#         306
  C:9B54H         LINE#         308
  C:9B58H         LINE#         309
  C:9B5CH         LINE#         310
  C:9B60H         LINE#         311
  C:9B64H         LINE#         312
  C:9B68H         LINE#         313
  C:9B6CH         LINE#         316
  C:9B70H         LINE#         318
  C:9B7CH         LINE#         319
  C:9B7CH         LINE#         320
  C:9B90H         LINE#         321
  C:9B93H         LINE#         322
  C:9B9BH         LINE#         323
  C:9B9DH         LINE#         324
  C:9BA2H         LINE#         325
  C:9BB1H         LINE#         326
  C:9BBCH         LINE#         327
  C:9BC2H         LINE#         330
  -------         ENDPROC       CLAVE_SEGURIDAD_S2
  -------         PROC          DWLOAD_EEPROM
  -------         DO            
  D:0003H         SYMBOL        j
  X:0002H         SYMBOL        bcc
  X:0003H         SYMBOL        g_scArrTxComSoft
  -------         ENDDO         
  C:9BC3H         LINE#         335
  C:9BC3H         LINE#         336
  C:9BC3H         LINE#         339
  C:9BC8H         LINE#         340
  C:9BD1H         LINE#         342
  C:9BD7H         LINE#         343
  C:9BDAH         LINE#         344
BL51 BANKED LINKER/LOCATER V6.22.2.0                                                  06/11/2021  16:40:25  PAGE 103


  C:9BDCH         LINE#         345
  C:9BE0H         LINE#         346
  C:9BE4H         LINE#         347
  C:9BE8H         LINE#         348
  C:9BECH         LINE#         349
  C:9BEFH         LINE#         350
  C:9BF3H         LINE#         351
  C:9BF6H         LINE#         352
  C:9BF9H         LINE#         353
  C:9BFDH         LINE#         354
  C:9C01H         LINE#         355
  C:9C05H         LINE#         356
  C:9C09H         LINE#         357
  C:9C0DH         LINE#         358
  C:9C11H         LINE#         359
  C:9C15H         LINE#         360
  C:9C19H         LINE#         362
  C:9C25H         LINE#         363
  C:9C25H         LINE#         364
  C:9C39H         LINE#         365
  C:9C3CH         LINE#         366
  C:9C44H         LINE#         367
  C:9C46H         LINE#         368
  C:9C4BH         LINE#         369
  C:9C5AH         LINE#         370
  C:9C65H         LINE#         371
  C:9C6BH         LINE#         372
  -------         ENDPROC       DWLOAD_EEPROM
  -------         PROC          LOADVERIFY_EEPROM
  -------         DO            
  D:0003H         SYMBOL        j
  X:0002H         SYMBOL        bcc
  X:0003H         SYMBOL        g_scArrTxComSoft
  -------         ENDDO         
  C:A695H         LINE#         378
  C:A695H         LINE#         379
  C:A695H         LINE#         382
  C:A69AH         LINE#         383
  C:A6A3H         LINE#         386
  C:A6A9H         LINE#         387
  C:A6ACH         LINE#         388
  C:A6AEH         LINE#         389
  C:A6B2H         LINE#         390
  C:A6B6H         LINE#         391
  C:A6BAH         LINE#         392
  C:A6BEH         LINE#         393
  C:A6C1H         LINE#         394
  C:A6C5H         LINE#         395
  C:A6C8H         LINE#         396
  C:A6CBH         LINE#         397
  C:A6CFH         LINE#         402
  C:A6DBH         LINE#         403
  C:A6DBH         LINE#         404
  C:A6EFH         LINE#         405
  C:A6F2H         LINE#         406
  C:A6FAH         LINE#         407
  C:A6FCH         LINE#         408
BL51 BANKED LINKER/LOCATER V6.22.2.0                                                  06/11/2021  16:40:25  PAGE 104


  C:A701H         LINE#         409
  C:A710H         LINE#         410
  C:A71BH         LINE#         411
  C:A721H         LINE#         413
  -------         ENDPROC       LOADVERIFY_EEPROM
  -------         PROC          _RD_MF
  X:0002H         SYMBOL        Sector
  X:0003H         SYMBOL        Bloque
  -------         DO            
  D:0003H         SYMBOL        j
  X:0004H         SYMBOL        bcc
  X:0005H         SYMBOL        g_scArrTxComSoft
  -------         ENDDO         
  C:91ADH         LINE#         419
  C:91B5H         LINE#         420
  C:91B5H         LINE#         424
  C:91B8H         LINE#         426
  C:91C1H         LINE#         427
  C:91C9H         LINE#         429
  C:91D2H         LINE#         430
  C:91DAH         LINE#         431
  C:91E3H         LINE#         434
  C:91E9H         LINE#         435
  C:91ECH         LINE#         436
  C:91EEH         LINE#         437
  C:91F2H         LINE#         438
  C:91F6H         LINE#         439
  C:91FAH         LINE#         440
  C:91FEH         LINE#         441
  C:9201H         LINE#         442
  C:9205H         LINE#         443
  C:920DH         LINE#         444
  C:9215H         LINE#         445
  C:9219H         LINE#         446
  C:921DH         LINE#         448
  C:9229H         LINE#         449
  C:9229H         LINE#         450
  C:923DH         LINE#         451
  C:9240H         LINE#         452
  C:9248H         LINE#         455
  C:924AH         LINE#         456
  C:924FH         LINE#         457
  C:925EH         LINE#         458
  C:9269H         LINE#         459
  C:926FH         LINE#         461
  -------         ENDPROC       _RD_MF
  -------         PROC          _WR_MF
  X:0002H         SYMBOL        Sector
  X:0003H         SYMBOL        Bloque
  X:0004H         SYMBOL        buffer
  -------         DO            
  D:0005H         SYMBOL        j
  X:0007H         SYMBOL        bcc
  X:0008H         SYMBOL        g_scArrTxComSoft
  -------         ENDDO         
  C:7C33H         LINE#         468
  C:7C44H         LINE#         470
BL51 BANKED LINKER/LOCATER V6.22.2.0                                                  06/11/2021  16:40:25  PAGE 105


  C:7C44H         LINE#         473
  C:7C47H         LINE#         475
  C:7C50H         LINE#         476
  C:7C58H         LINE#         478
  C:7C61H         LINE#         479
  C:7C69H         LINE#         480
  C:7C72H         LINE#         482
  C:7C78H         LINE#         483
  C:7C7BH         LINE#         484
  C:7C7DH         LINE#         485
  C:7C81H         LINE#         487
  C:7C85H         LINE#         488
  C:7C89H         LINE#         489
  C:7C8DH         LINE#         490
  C:7C90H         LINE#         491
  C:7C94H         LINE#         492
  C:7C9CH         LINE#         493
  C:7CA4H         LINE#         494
  C:7CA8H         LINE#         496
  C:7CB4H         LINE#         497
  C:7CB4H         LINE#         498
  C:7CD4H         LINE#         499
  C:7CD7H         LINE#         501
  C:7CDDH         LINE#         503
  C:7CE9H         LINE#         504
  C:7CE9H         LINE#         505
  C:7D00H         LINE#         506
  C:7D03H         LINE#         507
  C:7D0BH         LINE#         510
  C:7D0DH         LINE#         511
  C:7D12H         LINE#         512
  C:7D21H         LINE#         513
  C:7D2CH         LINE#         514
  C:7D32H         LINE#         516
  -------         ENDPROC       _WR_MF
  -------         PROC          UNIQUE_IDENTIFIER_UID
  -------         DO            
  D:0003H         SYMBOL        j
  X:0002H         SYMBOL        bcc
  X:0003H         SYMBOL        g_scArrTxComSoft
  -------         ENDDO         
  C:A8BEH         LINE#         521
  C:A8BEH         LINE#         522
  C:A8BEH         LINE#         525
  C:A8C3H         LINE#         527
  C:A8CCH         LINE#         529
  C:A8D2H         LINE#         530
  C:A8D5H         LINE#         531
  C:A8D7H         LINE#         532
  C:A8DBH         LINE#         533
  C:A8DFH         LINE#         534
  C:A8E3H         LINE#         535
  C:A8E7H         LINE#         536
  C:A8EBH         LINE#         537
  C:A8EFH         LINE#         538
  C:A8F3H         LINE#         539
  C:A8FFH         LINE#         540
BL51 BANKED LINKER/LOCATER V6.22.2.0                                                  06/11/2021  16:40:25  PAGE 106


  C:A8FFH         LINE#         541
  C:A913H         LINE#         542
  C:A916H         LINE#         543
  C:A91EH         LINE#         544
  C:A920H         LINE#         545
  C:A925H         LINE#         546
  C:A934H         LINE#         547
  C:A93FH         LINE#         548
  C:A945H         LINE#         549
  -------         ENDPROC       UNIQUE_IDENTIFIER_UID
  -------         PROC          POWER_OFF
  -------         DO            
  D:0003H         SYMBOL        j
  X:0002H         SYMBOL        bcc
  X:0003H         SYMBOL        g_scArrTxComSoft
  -------         ENDDO         
  C:ACD8H         LINE#         550
  C:ACD8H         LINE#         551
  C:ACD8H         LINE#         554
  C:ACDDH         LINE#         556
  C:ACE6H         LINE#         558
  C:ACECH         LINE#         559
  C:ACEFH         LINE#         560
  C:ACF1H         LINE#         561
  C:ACF5H         LINE#         562
  C:ACF9H         LINE#         563
  C:ACFDH         LINE#         564
  C:AD01H         LINE#         565
  C:AD05H         LINE#         566
  C:AD11H         LINE#         567
  C:AD11H         LINE#         568
  C:AD25H         LINE#         569
  C:AD28H         LINE#         570
  C:AD30H         LINE#         571
  C:AD32H         LINE#         572
  C:AD37H         LINE#         573
  C:AD46H         LINE#         574
  C:AD51H         LINE#         575
  C:AD57H         LINE#         578
  -------         ENDPROC       POWER_OFF
  -------         ENDMOD        LINTECH

  -------         MODULE        VERIFICADOR
  C:0000H         SYMBOL        _ICE_DUMMY_
  D:0080H         PUBLIC        P0
  C:BF8EH         PUBLIC        Analiza_Presencia_Mensual
  C:B107H         PUBLIC        Ingreso_Vehiculo
  D:0090H         PUBLIC        P1
  C:BF19H         PUBLIC        _Armar_Trama_Tarjeta_Sector1_Bloque0
  D:00B0H         PUBLIC        P3
  C:6480H         PUBLIC        _Valida_Tipo_Tarjeta
  C:BB88H         PUBLIC        _Load_Secuencia_Expedidor
  C:5D2BH         PUBLIC        _Armar_Trama_Tarjeta_Sector1_Bloque2
  C:52B2H         PUBLIC        _Armar_Trama_Pto_Paralelo_Expedidor
  C:90E9H         PUBLIC        _Tarjeta_Mensual
  C:BFDAH         PUBLIC        Analiza_Presencia_rotacion
  C:A575H         PUBLIC        _Disparo_Lock_Entrada_Vehiculo
BL51 BANKED LINKER/LOCATER V6.22.2.0                                                  06/11/2021  16:40:25  PAGE 107


  C:BE41H         PUBLIC        Pregunta_Placa
  C:A29BH         PUBLIC        _Valida_Vehiculo_Card_Mensual
  C:BC94H         PUBLIC        Analiza_card_mount_rf
  C:B360H         PUBLIC        _Armar_Trama_Placa
  C:8DC7H         PUBLIC        _rta_cmd_transporte
  C:C261H         PUBLIC        Captura_Expulsa
  C:500FH         PUBLIC        _Armar_Trama_Monitor
  C:6E75H         PUBLIC        Secuencia_inicio_expedidor
  C:8A7BH         PUBLIC        _Analiza_Uid_Card
  B:0080H.0       PUBLIC        rx_ip
  C:8417H         PUBLIC        _Bloque_Horario
  B:0080H.3       PUBLIC        Atascado_GP0_PIN_3
  B:0090H.7       PUBLIC        lock
  C:9DB7H         PUBLIC        _Armar_Trama_Tarjeta_Sector1_Bloque1_Camcel
  C:A035H         PUBLIC        _Responde_Lectura_Tarjeta_Sector1_Bloque0
  C:93F3H         PUBLIC        error_rx_pto
  C:5F16H         PUBLIC        _Responde_Lectura_Tarjeta_Sector1_Bloque1
  C:7354H         PUBLIC        _Responde_Lectura_Tarjeta_Sector1_Bloque2
  C:9F99H         PUBLIC        _Respuesta_Placa_Cancel
  B:0090H.1       PUBLIC        DataIn
  C:9D12H         PUBLIC        _Send_Pto_Paralelo
  C:BA77H         PUBLIC        Trama_Validacion_P_N
  B:0022H.0       PUBLIC        MenSual
  C:7226H         PUBLIC        _Armar_Trama_Pto_Paralelo_Expedidor_Mensual
  C:7A18H         PUBLIC        _Horarios
  C:9A6DH         PUBLIC        _Hora_Maxima
  C:6A9BH         PUBLIC        _Responde_ReeLectura_Tarjeta_Sector1_Bloque2
  C:3B07H         PUBLIC        _SecuenciaExpedidorMF
  C:B46DH         PUBLIC        _Pregunta_Lpr
  C:9855H         PUBLIC        _Wait_Placa
  C:AE54H         PUBLIC        Responde_Estado_Sensores_Transporte
  C:A605H         PUBLIC        Entrega_Card_Captura
  C:B303H         PUBLIC        _Respuesta_Segunda_clave
  X:0147H         SYMBOL        Estado
  C:BD72H         PUBLIC        _Responde_Write_Tarjeta_Sector1_Bloque0
  C:BD3CH         PUBLIC        _Responde_Write_Tarjeta_Sector1_Bloque1
  C:B716H         PUBLIC        _Responde_Write_Tarjeta_Sector2_Bloque0
  C:B09BH         PUBLIC        _Responde_Write_Tarjeta_Sector1_Bloque2
  C:AFBBH         PUBLIC        _En_Horario
  C:AED0H         PUBLIC        Responde_Tipo_Tarjeta
  C:BE10H         PUBLIC        _Tarjeta_Rotacion
  -------         PROC          CAPTURA_EXPULSA
  -------         DO            
  D:0007H         SYMBOL        Estado_expedidor
  -------         ENDDO         
  C:C261H         LINE#         541
  C:C261H         LINE#         542
  C:C261H         LINE#         546
  C:C264H         LINE#         547
  C:C264H         LINE#         548
  C:C266H         LINE#         549
  C:C267H         LINE#         551
  C:C267H         LINE#         553
  C:C269H         LINE#         554
  C:C269H         LINE#         557
  C:C269H         LINE#         558
  -------         ENDPROC       CAPTURA_EXPULSA
BL51 BANKED LINKER/LOCATER V6.22.2.0                                                  06/11/2021  16:40:25  PAGE 108


  -------         PROC          TRAMA_VALIDACION_P_N
  -------         DO            
  D:0007H         SYMBOL        Trama_Validacion_P_N
  -------         ENDDO         
  C:BA77H         LINE#         569
  C:BA77H         LINE#         570
  C:BA77H         LINE#         571
  C:BA79H         LINE#         573
  C:BA8FH         LINE#         574
  C:BA8FH         LINE#         575
  C:BA92H         LINE#         576
  C:BA92H         LINE#         577
  C:BA94H         LINE#         580
  C:BA9CH         LINE#         581
  C:BA9CH         LINE#         583
  C:BA9EH         LINE#         585
  C:BA9FH         LINE#         586
  C:BAA3H         LINE#         587
  C:BAA3H         LINE#         589
  C:BAA5H         LINE#         591
  C:BAA6H         LINE#         593
  C:BAA6H         LINE#         594
  C:BAAFH         LINE#         595
  C:BAB1H         LINE#         597
  C:BAB1H         LINE#         598
  C:BAB2H         LINE#         600
  C:BAB2H         LINE#         602
  C:BAB4H         LINE#         604
  C:BAB4H         LINE#         606
  C:BAB4H         LINE#         608
  C:BAB4H         LINE#         609
  -------         ENDPROC       TRAMA_VALIDACION_P_N
  -------         PROC          ERROR_RX_PTO
  -------         DO            
  X:00B7H         SYMBOL        cnt_espera_ask_on
  X:0007H         SYMBOL        error_rx_pto
  -------         ENDDO         
  C:93F3H         LINE#         633
  C:93F3H         LINE#         634
  C:93F3H         LINE#         637
  C:93F9H         LINE#         641
  C:9402H         LINE#         642
  C:940AH         LINE#         643
  C:9413H         LINE#         644
  C:941BH         LINE#         645
  C:9424H         LINE#         646
  C:9427H         LINE#         648
  C:9427H         LINE#         649
  C:942DH         LINE#         650
  C:9437H         LINE#         651
  C:9437H         LINE#         652
  C:9440H         LINE#         653
  C:9442H         LINE#         654
  C:9449H         LINE#         655
  C:944EH         LINE#         656
  C:9454H         LINE#         657
  C:9459H         LINE#         658
BL51 BANKED LINKER/LOCATER V6.22.2.0                                                  06/11/2021  16:40:25  PAGE 109


  C:945BH         LINE#         659
  C:9462H         LINE#         660
  C:9468H         LINE#         661
  C:9468H         LINE#         663
  C:9468H         LINE#         664
  C:946DH         LINE#         665
  C:946DH         LINE#         666
  C:946DH         LINE#         667
  C:946FH         LINE#         669
  C:946FH         LINE#         670
  C:947DH         LINE#         671
  C:9490H         LINE#         672
  C:9490H         LINE#         673
  C:9491H         LINE#         675
  C:9497H         LINE#         676
  C:949BH         LINE#         677
  C:949DH         LINE#         678
  C:949DH         LINE#         679
  C:949FH         LINE#         681
  C:949FH         LINE#         682
  C:94A0H         LINE#         683
  C:94A5H         LINE#         684
  C:94ABH         LINE#         685
  C:94ABH         LINE#         686
  C:94ABH         LINE#         687
  C:94B0H         LINE#         688
  -------         ENDPROC       ERROR_RX_PTO
  -------         PROC          _RTA_CMD_TRANSPORTE
  X:0002H         SYMBOL        secuencia_Expedidor
  -------         DO            
  X:0005H         SYMBOL        temp
  X:0006H         SYMBOL        EstadoComSeqMF
  -------         ENDDO         
  C:8DC7H         LINE#         704
  C:8DD2H         LINE#         705
  C:8DD2H         LINE#         711
  C:8DDFH         LINE#         712
  C:8DDFH         LINE#         713
  C:8DE7H         LINE#         714
  C:8DE7H         LINE#         715
  C:8DF5H         LINE#         716
  C:8DF8H         LINE#         717
  C:8DFEH         LINE#         718
  C:8DFEH         LINE#         719
  C:8E07H         LINE#         720
  C:8E1BH         LINE#         722
  C:8E2CH         LINE#         724
  C:8E2EH         LINE#         726
  C:8E2EH         LINE#         729
  C:8E46H         LINE#         730
  C:8E46H         LINE#         731
  C:8E51H         LINE#         732
  C:8E53H         LINE#         734
  C:8E53H         LINE#         735
  C:8E61H         LINE#         736
  C:8E61H         LINE#         737
  C:8E61H         LINE#         738
BL51 BANKED LINKER/LOCATER V6.22.2.0                                                  06/11/2021  16:40:25  PAGE 110


  C:8E63H         LINE#         740
  C:8E63H         LINE#         742
  C:8E77H         LINE#         743
  C:8E8CH         LINE#         744
  C:8E8CH         LINE#         745
  C:8E91H         LINE#         746
  -------         ENDPROC       _RTA_CMD_TRANSPORTE
  -------         PROC          ANALIZA_PRESENCIA_MENSUAL
  -------         DO            
  X:0002H         SYMBOL        Estado_expedidor
  -------         ENDDO         
  C:BF8EH         LINE#         750
  C:BF8EH         LINE#         751
  C:BF8EH         LINE#         755
  C:BF94H         LINE#         756
  C:BF94H         LINE#         757
  C:BF96H         LINE#         758
  C:BF9CH         LINE#         759
  C:BF9EH         LINE#         761
  C:BF9EH         LINE#         763
  C:BFA3H         LINE#         764
  C:BFA8H         LINE#         765
  C:BFAEH         LINE#         766
  C:BFAEH         LINE#         767
  C:BFB3H         LINE#         768
  -------         ENDPROC       ANALIZA_PRESENCIA_MENSUAL
  -------         PROC          ANALIZA_CARD_MOUNT_RF
  -------         DO            
  X:0002H         SYMBOL        Estado_expedidor
  -------         ENDDO         
  C:BC94H         LINE#         772
  C:BC94H         LINE#         773
  C:BC94H         LINE#         775
  C:BC9AH         LINE#         776
  C:BCA1H         LINE#         777
  C:BCA1H         LINE#         779
  C:BCAAH         LINE#         781
  C:BCB0H         LINE#         782
  C:BCB2H         LINE#         783
  C:BCB9H         LINE#         785
  C:BCB9H         LINE#         786
  C:BCC2H         LINE#         787
  C:BCC8H         LINE#         788
  C:BCC8H         LINE#         791
  C:BCCDH         LINE#         792
  -------         ENDPROC       ANALIZA_CARD_MOUNT_RF
  -------         PROC          ANALIZA_PRESENCIA_ROTACION
  -------         DO            
  X:0002H         SYMBOL        Estado_expedidor
  -------         ENDDO         
  C:BFDAH         LINE#         796
  C:BFDAH         LINE#         797
  C:BFDAH         LINE#         799
  C:BFE0H         LINE#         800
  C:BFE0H         LINE#         802
  C:BFE6H         LINE#         803
  C:BFE8H         LINE#         805
BL51 BANKED LINKER/LOCATER V6.22.2.0                                                  06/11/2021  16:40:25  PAGE 111


  C:BFE8H         LINE#         807
  C:BFEDH         LINE#         808
  C:BFF2H         LINE#         809
  C:BFF7H         LINE#         811
  C:BFF7H         LINE#         812
  C:BFFCH         LINE#         813
  -------         ENDPROC       ANALIZA_PRESENCIA_ROTACION
  -------         PROC          _ANALIZA_UID_CARD
  X:0002H         SYMBOL        Atributos_Expedidor
  -------         DO            
  X:0005H         SYMBOL        Estado_expedidor
  D:0007H         SYMBOL        temp
  X:0006H         SYMBOL        buffer_UID
  -------         ENDDO         
  C:8A7BH         LINE#         817
  C:8A86H         LINE#         818
  C:8A86H         LINE#         822
  C:8A96H         LINE#         823
  C:8A96H         LINE#         825
  C:8AA2H         LINE#         826
  C:8AA2H         LINE#         827
  C:8ABAH         LINE#         829
  C:8ABDH         LINE#         831
  C:8AC6H         LINE#         832
  C:8AD7H         LINE#         835
  C:8AE0H         LINE#         836
  C:8AE8H         LINE#         837
  C:8AF0H         LINE#         838
  C:8AF8H         LINE#         839
  C:8B00H         LINE#         840
  C:8B09H         LINE#         842
  C:8B20H         LINE#         843
  C:8B2AH         LINE#         844
  C:8B34H         LINE#         845
  C:8B3EH         LINE#         846
  C:8B44H         LINE#         847
  C:8B46H         LINE#         849
  C:8B46H         LINE#         850
  C:8B4CH         LINE#         851
  C:8B4CH         LINE#         852
  C:8B51H         LINE#         853
  -------         ENDPROC       _ANALIZA_UID_CARD
  -------         PROC          INGRESO_VEHICULO
  -------         DO            
  D:0007H         SYMBOL        CardAutomatic
  X:00B9H         SYMBOL        pulseboton
  -------         ENDDO         
  C:B107H         LINE#         857
  C:B107H         LINE#         858
  C:B107H         LINE#         863
  C:B10DH         LINE#         864
  C:B10DH         LINE#         865
  C:B116H         LINE#         867
  C:B11BH         LINE#         868
  C:B11BH         LINE#         869
  C:B124H         LINE#         871
  C:B124H         LINE#         872
BL51 BANKED LINKER/LOCATER V6.22.2.0                                                  06/11/2021  16:40:25  PAGE 112


  C:B126H         LINE#         874
  C:B126H         LINE#         876
  C:B133H         LINE#         877
  C:B138H         LINE#         878
  C:B13DH         LINE#         879
  C:B13FH         LINE#         881
  C:B13FH         LINE#         882
  C:B145H         LINE#         885
  C:B145H         LINE#         886
  C:B148H         LINE#         887
  C:B14BH         LINE#         888
  C:B14BH         LINE#         889
  C:B14DH         LINE#         890
  C:B152H         LINE#         891
  C:B158H         LINE#         892
  C:B15AH         LINE#         894
  C:B15AH         LINE#         895
  C:B15FH         LINE#         896
  C:B165H         LINE#         897
  C:B165H         LINE#         900
  C:B165H         LINE#         901
  C:B167H         LINE#         903
  C:B167H         LINE#         905
  C:B16CH         LINE#         906
  C:B16CH         LINE#         907
  C:B171H         LINE#         908
  -------         ENDPROC       INGRESO_VEHICULO
  -------         PROC          RESPONDE_ESTADO_SENSORES_TRANSPORTE
  -------         DO            
  X:0002H         SYMBOL        Estado_expedidor
  -------         ENDDO         
  C:AE54H         LINE#         915
  C:AE54H         LINE#         916
  C:AE54H         LINE#         919
  C:AE5DH         LINE#         921
  C:AE65H         LINE#         922
  C:AE65H         LINE#         924
  C:AE70H         LINE#         925
  C:AE70H         LINE#         926
  C:AE74H         LINE#         927
  C:AE74H         LINE#         928
  C:AE7DH         LINE#         929
  C:AE82H         LINE#         931
  C:AE82H         LINE#         932
  C:AE84H         LINE#         934
  C:AE84H         LINE#         936
  C:AE8CH         LINE#         938
  C:AE8CH         LINE#         939
  C:AE8EH         LINE#         941
  C:AE8EH         LINE#         943
  C:AE97H         LINE#         945
  C:AE9CH         LINE#         948
  C:AE9CH         LINE#         949
  C:AE9CH         LINE#         950
  C:AE9EH         LINE#         951
  C:AEA5H         LINE#         952
  C:AEA5H         LINE#         954
BL51 BANKED LINKER/LOCATER V6.22.2.0                                                  06/11/2021  16:40:25  PAGE 113


  C:AEABH         LINE#         956
  C:AEABH         LINE#         957
  C:AEADH         LINE#         958
  C:AEB4H         LINE#         960
  C:AEB4H         LINE#         961
  C:AEBDH         LINE#         962
  C:AEC3H         LINE#         963
  C:AEC5H         LINE#         965
  C:AEC5H         LINE#         966
  C:AECAH         LINE#         967
  C:AECAH         LINE#         968
  C:AECFH         LINE#         969
  -------         ENDPROC       RESPONDE_ESTADO_SENSORES_TRANSPORTE
  -------         PROC          RESPONDE_TIPO_TARJETA
  -------         DO            
  X:0002H         SYMBOL        Estado_expedidor
  -------         ENDDO         
  C:AED0H         LINE#         985
  C:AED0H         LINE#         986
  C:AED0H         LINE#         989
  C:AED9H         LINE#         991
  C:AEE1H         LINE#         992
  C:AEE1H         LINE#         993
  C:AEECH         LINE#         994
  C:AEECH         LINE#         995
  C:AEF5H         LINE#         996
  C:AEFBH         LINE#         997
  C:AEFBH         LINE#         998
  C:AEFEH         LINE#         999
  C:AF00H         LINE#         1001
  C:AF00H         LINE#         1002
  C:AF03H         LINE#         1003
  C:AF03H         LINE#         1004
  C:AF05H         LINE#         1006
  C:AF05H         LINE#         1007
  C:AF0CH         LINE#         1008
  C:AF0CH         LINE#         1010
  C:AF12H         LINE#         1012
  C:AF12H         LINE#         1013
  C:AF12H         LINE#         1015
  C:AF12H         LINE#         1017
  C:AF14H         LINE#         1019
  C:AF14H         LINE#         1020
  C:AF14H         LINE#         1021
  C:AF14H         LINE#         1022
  C:AF14H         LINE#         1023
  C:AF14H         LINE#         1024
  C:AF16H         LINE#         1026
  C:AF16H         LINE#         1027
  C:AF1DH         LINE#         1028
  C:AF1DH         LINE#         1031
  C:AF26H         LINE#         1033
  C:AF2BH         LINE#         1034
  C:AF30H         LINE#         1036
  C:AF38H         LINE#         1039
  C:AF3AH         LINE#         1041
  C:AF3AH         LINE#         1042
BL51 BANKED LINKER/LOCATER V6.22.2.0                                                  06/11/2021  16:40:25  PAGE 114


  C:AF3CH         LINE#         1043
  C:AF41H         LINE#         1044
  C:AF41H         LINE#         1045
  C:AF41H         LINE#         1047
  C:AF46H         LINE#         1048
  -------         ENDPROC       RESPONDE_TIPO_TARJETA
  -------         PROC          _RESPONDE_LECTURA_TARJETA_SECTOR1_BLOQUE1
  X:0002H         SYMBOL        Atributos_Expedidor
  -------         DO            
  D:0007H         SYMBOL        temp
  X:0005H         SYMBOL        Estado_expedidor
  X:0006H         SYMBOL        buffer_S1_B1
  X:0017H         SYMBOL        ID_CLIENTE
  D:0007H         SYMBOL        COD_PARK
  X:00BAH         SYMBOL        falla
  -------         ENDDO         
  C:5F16H         LINE#         1060
  C:5F21H         LINE#         1061
  C:5F21H         LINE#         1068
  C:5F2AH         LINE#         1072
  C:5F3AH         LINE#         1073
  C:5F3AH         LINE#         1075
  C:5F46H         LINE#         1076
  C:5F46H         LINE#         1077
  C:5F5EH         LINE#         1079
  C:5F61H         LINE#         1082
  C:5F6AH         LINE#         1083
  C:5F7BH         LINE#         1084
  C:5F88H         LINE#         1085
  C:5F91H         LINE#         1088
  C:5FB0H         LINE#         1089
  C:5FB0H         LINE#         1091
  C:5FB9H         LINE#         1092
  C:5FC1H         LINE#         1093
  C:5FCAH         LINE#         1095
  C:5FD3H         LINE#         1096
  C:5FDBH         LINE#         1097
  C:5FE4H         LINE#         1099
  C:5FEDH         LINE#         1100
  C:5FF5H         LINE#         1101
  C:5FFEH         LINE#         1103
  C:6007H         LINE#         1104
  C:600FH         LINE#         1105
  C:6018H         LINE#         1107
  C:6021H         LINE#         1108
  C:6029H         LINE#         1109
  C:6032H         LINE#         1111
  C:6049H         LINE#         1113
  C:6053H         LINE#         1114
  C:605DH         LINE#         1115
  C:6067H         LINE#         1117
  C:606CH         LINE#         1118
  C:607FH         LINE#         1119
  C:6084H         LINE#         1120
  C:608AH         LINE#         1122
  C:608CH         LINE#         1124
  C:608CH         LINE#         1125
BL51 BANKED LINKER/LOCATER V6.22.2.0                                                  06/11/2021  16:40:25  PAGE 115


  C:6091H         LINE#         1126
  C:609AH         LINE#         1127
  C:609FH         LINE#         1128
  C:60A1H         LINE#         1129
  C:60A1H         LINE#         1130
  C:60A1H         LINE#         1131
  C:60A3H         LINE#         1133
  C:60A3H         LINE#         1135
  C:60ABH         LINE#         1136
  C:60ABH         LINE#         1137
  C:60B1H         LINE#         1138
  C:60B1H         LINE#         1139
  C:60BEH         LINE#         1141
  C:60BEH         LINE#         1142
  C:60C7H         LINE#         1143
  C:60CDH         LINE#         1145
  C:60CFH         LINE#         1147
  C:60CFH         LINE#         1148
  C:60D4H         LINE#         1149
  C:60DDH         LINE#         1150
  C:60E2H         LINE#         1151
  C:60E7H         LINE#         1152
  C:60EFH         LINE#         1153
  C:60EFH         LINE#         1154
  C:60EFH         LINE#         1156
  C:60F4H         LINE#         1157
  -------         ENDPROC       _RESPONDE_LECTURA_TARJETA_SECTOR1_BLOQUE1
  -------         PROC          _RESPONDE_LECTURA_TARJETA_SECTOR1_BLOQUE2
  X:0002H         SYMBOL        Atributos_Expedidor
  -------         DO            
  D:0007H         SYMBOL        temp
  X:0005H         SYMBOL        Estado_expedidor
  X:0006H         SYMBOL        buffer_S1_B2
  -------         ENDDO         
  C:7354H         LINE#         1162
  C:735FH         LINE#         1163
  C:735FH         LINE#         1169
  C:7368H         LINE#         1173
  C:7378H         LINE#         1174
  C:7378H         LINE#         1176
  C:7384H         LINE#         1177
  C:7384H         LINE#         1178
  C:739CH         LINE#         1179
  C:739FH         LINE#         1180
  C:73A8H         LINE#         1181
  C:73B9H         LINE#         1185
  C:73C2H         LINE#         1186
  C:73CFH         LINE#         1187
  C:73EBH         LINE#         1188
  C:73F4H         LINE#         1190
  C:73FDH         LINE#         1192
  C:7419H         LINE#         1193
  C:7423H         LINE#         1194
  C:742CH         LINE#         1197
  C:7435H         LINE#         1198
  C:743DH         LINE#         1199
  C:7446H         LINE#         1203
BL51 BANKED LINKER/LOCATER V6.22.2.0                                                  06/11/2021  16:40:25  PAGE 116


  C:745DH         LINE#         1206
  C:7469H         LINE#         1207
  C:746FH         LINE#         1210
  C:7471H         LINE#         1212
  C:7471H         LINE#         1213
  C:7479H         LINE#         1214
  C:7479H         LINE#         1215
  C:747EH         LINE#         1216
  -------         ENDPROC       _RESPONDE_LECTURA_TARJETA_SECTOR1_BLOQUE2
  -------         PROC          _RESPONDE_LECTURA_TARJETA_SECTOR1_BLOQUE0
  X:0002H         SYMBOL        Nombre_Mensual
  -------         DO            
  D:0007H         SYMBOL        temp
  X:0005H         SYMBOL        Estado_expedidor
  -------         ENDDO         
  C:A035H         LINE#         1218
  C:A040H         LINE#         1219
  C:A040H         LINE#         1225
  C:A049H         LINE#         1229
  C:A056H         LINE#         1230
  C:A056H         LINE#         1232
  C:A062H         LINE#         1233
  C:A062H         LINE#         1234
  C:A082H         LINE#         1235
  C:A085H         LINE#         1236
  C:A099H         LINE#         1237
  C:A0A2H         LINE#         1238
  C:A0B0H         LINE#         1239
  C:A0B9H         LINE#         1240
  C:A0BFH         LINE#         1243
  C:A0C1H         LINE#         1245
  C:A0C1H         LINE#         1246
  C:A0C9H         LINE#         1247
  C:A0C9H         LINE#         1248
  C:A0CEH         LINE#         1249
  -------         ENDPROC       _RESPONDE_LECTURA_TARJETA_SECTOR1_BLOQUE0
  -------         PROC          _RESPONDE_REELECTURA_TARJETA_SECTOR1_BLOQUE2
  X:0002H         SYMBOL        lectura_anterior
  X:0005H         SYMBOL        Atributos_Expedidor
  -------         DO            
  D:0007H         SYMBOL        temp
  X:0008H         SYMBOL        Estado_expedidor
  X:0009H         SYMBOL        reelectura
  X:00BBH         SYMBOL        error_lectura
  -------         ENDDO         
  C:6A9BH         LINE#         1250
  C:6AA6H         LINE#         1251
  C:6AA6H         LINE#         1257
  C:6AAFH         LINE#         1260
  C:6ABFH         LINE#         1261
  C:6ABFH         LINE#         1263
  C:6ACBH         LINE#         1264
  C:6ACBH         LINE#         1265
  C:6AEBH         LINE#         1266
  C:6AEEH         LINE#         1267
  C:6B02H         LINE#         1268
  C:6B0BH         LINE#         1269
BL51 BANKED LINKER/LOCATER V6.22.2.0                                                  06/11/2021  16:40:25  PAGE 117


  C:6B21H         LINE#         1270
  C:6B2AH         LINE#         1272
  C:6B4EH         LINE#         1273
  C:6B4EH         LINE#         1274
  C:6B52H         LINE#         1275
  C:6B5BH         LINE#         1276
  C:6B64H         LINE#         1277
  C:6B74H         LINE#         1278
  C:6B86H         LINE#         1279
  C:6B94H         LINE#         1280
  C:6B94H         LINE#         1281
  C:6B96H         LINE#         1283
  C:6B96H         LINE#         1284
  C:6B9CH         LINE#         1285
  C:6BACH         LINE#         1286
  C:6BACH         LINE#         1287
  C:6BAFH         LINE#         1288
  C:6BB5H         LINE#         1290
  C:6BB7H         LINE#         1292
  C:6BB7H         LINE#         1293
  C:6BBAH         LINE#         1294
  C:6BC3H         LINE#         1295
  C:6BD3H         LINE#         1296
  C:6BE6H         LINE#         1297
  C:6BECH         LINE#         1299
  C:6BECH         LINE#         1300
  C:6BECH         LINE#         1302
  C:6BECH         LINE#         1303
  C:6BF1H         LINE#         1304
  -------         ENDPROC       _RESPONDE_REELECTURA_TARJETA_SECTOR1_BLOQUE2
  -------         PROC          _RESPONDE_WRITE_TARJETA_SECTOR1_BLOQUE1
  X:0002H         SYMBOL        Buffer_Write_MF
  -------         DO            
  D:0007H         SYMBOL        Estado_expedidor
  -------         ENDDO         
  C:BD3CH         LINE#         1305
  C:BD47H         LINE#         1306
  C:BD47H         LINE#         1308
  C:BD50H         LINE#         1309
  C:BD59H         LINE#         1310
  C:BD6FH         LINE#         1311
  C:BD71H         LINE#         1312
  C:BD71H         LINE#         1313
  -------         ENDPROC       _RESPONDE_WRITE_TARJETA_SECTOR1_BLOQUE1
  -------         PROC          _RESPONDE_WRITE_TARJETA_SECTOR1_BLOQUE2
  X:0002H         SYMBOL        Atributos_Expedidor
  X:0005H         SYMBOL        Buffer_Write_MF
  -------         DO            
  X:0008H         SYMBOL        Estado_expedidor
  -------         ENDDO         
  C:B09BH         LINE#         1314
  C:B0A6H         LINE#         1315
  C:B0A6H         LINE#         1317
  C:B0AFH         LINE#         1318
  C:B0B8H         LINE#         1319
  C:B0CEH         LINE#         1320
  C:B0D1H         LINE#         1321
BL51 BANKED LINKER/LOCATER V6.22.2.0                                                  06/11/2021  16:40:25  PAGE 118


  C:B0D1H         LINE#         1322
  C:B0D7H         LINE#         1328
  C:B0D9H         LINE#         1330
  C:B0D9H         LINE#         1331
  C:B0E9H         LINE#         1332
  C:B0FBH         LINE#         1333
  C:B101H         LINE#         1335
  C:B101H         LINE#         1336
  C:B106H         LINE#         1337
  -------         ENDPROC       _RESPONDE_WRITE_TARJETA_SECTOR1_BLOQUE2
  -------         PROC          _RESPONDE_WRITE_TARJETA_SECTOR1_BLOQUE0
  X:0002H         SYMBOL        Buffer_Write_MF
  C:BD72H         LINE#         1340
  C:BD7DH         LINE#         1341
  C:BD7DH         LINE#         1343
  C:BD86H         LINE#         1344
  C:BD8FH         LINE#         1345
  C:BDA5H         LINE#         1347
  C:BDA7H         LINE#         1348
  -------         ENDPROC       _RESPONDE_WRITE_TARJETA_SECTOR1_BLOQUE0
  -------         PROC          _RESPONDE_WRITE_TARJETA_SECTOR2_BLOQUE0
  X:0002H         SYMBOL        Buffer_Write_MF
  C:B716H         LINE#         1351
  C:B721H         LINE#         1352
  C:B721H         LINE#         1354
  C:B72AH         LINE#         1355
  C:B733H         LINE#         1356
  C:B73CH         LINE#         1357
  C:B745H         LINE#         1358
  C:B75AH         LINE#         1359
  C:B75CH         LINE#         1360
  -------         ENDPROC       _RESPONDE_WRITE_TARJETA_SECTOR2_BLOQUE0
  -------         PROC          _PREGUNTA_LPR
  X:0002H         SYMBOL        Atributos_Expedidor
  -------         DO            
  D:0007H         SYMBOL        Estado_expedidor
  -------         ENDDO         
  C:B46DH         LINE#         1364
  C:B478H         LINE#         1365
  C:B478H         LINE#         1367
  C:B481H         LINE#         1368
  C:B48FH         LINE#         1369
  C:B49DH         LINE#         1370
  C:B49DH         LINE#         1372
  C:B4AEH         LINE#         1373
  C:B4BAH         LINE#         1374
  C:B4BAH         LINE#         1375
  C:B4BEH         LINE#         1376
  C:B4BEH         LINE#         1377
  C:B4BEH         LINE#         1380
  C:B4C0H         LINE#         1382
  C:B4C0H         LINE#         1383
  -------         ENDPROC       _PREGUNTA_LPR
  -------         PROC          PREGUNTA_PLACA
  -------         DO            
  X:0002H         SYMBOL        Estado_expedidor
  -------         ENDDO         
BL51 BANKED LINKER/LOCATER V6.22.2.0                                                  06/11/2021  16:40:25  PAGE 119


  C:BE41H         LINE#         1385
  C:BE41H         LINE#         1386
  C:BE41H         LINE#         1388
  C:BE4AH         LINE#         1389
  C:BE59H         LINE#         1390
  C:BE59H         LINE#         1392
  C:BE5CH         LINE#         1393
  C:BE61H         LINE#         1394
  C:BE66H         LINE#         1395
  C:BE68H         LINE#         1397
  C:BE68H         LINE#         1398
  C:BE6BH         LINE#         1399
  C:BE6BH         LINE#         1400
  C:BE70H         LINE#         1401
  -------         ENDPROC       PREGUNTA_PLACA
  -------         PROC          _RESPUESTA_SEGUNDA_CLAVE
  X:0002H         SYMBOL        Atributos_Expedidor
  X:0005H         SYMBOL        Buffer_Write_MF
  C:B303H         LINE#         1402
  C:B30EH         LINE#         1403
  C:B30EH         LINE#         1405
  C:B317H         LINE#         1406
  C:B32DH         LINE#         1409
  C:B33DH         LINE#         1410
  C:B34FH         LINE#         1411
  C:B35DH         LINE#         1413
  C:B35FH         LINE#         1414
  -------         ENDPROC       _RESPUESTA_SEGUNDA_CLAVE
  -------         PROC          _RESPUESTA_PLACA_CANCEL
  X:0009H         SYMBOL        Atributos_Expedidor
  X:000CH         SYMBOL        Buffer_Write_MF
  -------         DO            
  X:000FH         SYMBOL        Estado_expedidor
  X:0010H         SYMBOL        Cancel
  -------         ENDDO         
  C:9F99H         LINE#         1415
  C:9FA4H         LINE#         1416
  C:9FA4H         LINE#         1418
  C:9FB2H         LINE#         1419
  C:9FBBH         LINE#         1420
  C:9FC4H         LINE#         1421
  C:9FCDH         LINE#         1423
  C:9FE8H         LINE#         1424
  C:9FE8H         LINE#         1425
  C:9FF8H         LINE#         1426
  C:A00BH         LINE#         1427
  C:A019H         LINE#         1428
  C:A01FH         LINE#         1429
  C:A021H         LINE#         1431
  C:A021H         LINE#         1432
  C:A027H         LINE#         1433
  C:A027H         LINE#         1434
  C:A02AH         LINE#         1435
  C:A02CH         LINE#         1437
  C:A02CH         LINE#         1439
  C:A02FH         LINE#         1440
  C:A02FH         LINE#         1441
BL51 BANKED LINKER/LOCATER V6.22.2.0                                                  06/11/2021  16:40:25  PAGE 120


  C:A02FH         LINE#         1442
  C:A034H         LINE#         1443
  -------         ENDPROC       _RESPUESTA_PLACA_CANCEL
  -------         PROC          _ARMAR_TRAMA_TARJETA_SECTOR1_BLOQUE1_CAMCEL
  X:0013H         SYMBOL        Buffer_Write_MF
  -------         DO            
  X:0016H         SYMBOL        ID_CLIENTE
  D:0007H         SYMBOL        COD_PARK
  -------         ENDDO         
  C:9DB7H         LINE#         1446
  C:9DC2H         LINE#         1447
  C:9DC2H         LINE#         1451
  C:9DC5H         LINE#         1452
  C:9DD2H         LINE#         1453
  C:9DDBH         LINE#         1455
  C:9DEBH         LINE#         1456
  C:9DFDH         LINE#         1457
  C:9E04H         LINE#         1458
  C:9E0EH         LINE#         1459
  C:9E15H         LINE#         1460
  C:9E1CH         LINE#         1461
  C:9E23H         LINE#         1462
  C:9E2AH         LINE#         1463
  C:9E31H         LINE#         1464
  C:9E38H         LINE#         1465
  C:9E3FH         LINE#         1466
  C:9E46H         LINE#         1467
  C:9E4DH         LINE#         1468
  C:9E54H         LINE#         1469
  -------         ENDPROC       _ARMAR_TRAMA_TARJETA_SECTOR1_BLOQUE1_CAMCEL
  -------         PROC          _ARMAR_TRAMA_TARJETA_SECTOR1_BLOQUE2
  X:0010H         SYMBOL        Atributos_Expedidor
  X:0013H         SYMBOL        Buffer_Write_MF
  C:5D2BH         LINE#         1475
  C:5D36H         LINE#         1476
  C:5D36H         LINE#         1481
  C:5D5AH         LINE#         1482
  C:5D81H         LINE#         1483
  C:5DA8H         LINE#         1484
  C:5DCFH         LINE#         1485
  C:5DF6H         LINE#         1488
  C:5DFDH         LINE#         1489
  C:5E04H         LINE#         1490
  C:5E0BH         LINE#         1492
  C:5E20H         LINE#         1493
  C:5E20H         LINE#         1494
  C:5E37H         LINE#         1495
  C:5E50H         LINE#         1496
  C:5E50H         LINE#         1497
  C:5E53H         LINE#         1501
  C:5E53H         LINE#         1503
  C:5E82H         LINE#         1504
  C:5EB1H         LINE#         1506
  C:5EC9H         LINE#         1507
  C:5EC9H         LINE#         1508
  C:5ED6H         LINE#         1509
  C:5ED8H         LINE#         1511
BL51 BANKED LINKER/LOCATER V6.22.2.0                                                  06/11/2021  16:40:25  PAGE 121


  C:5ED8H         LINE#         1512
  C:5EE8H         LINE#         1513
  C:5EE8H         LINE#         1514
  C:5EE8H         LINE#         1516
  C:5EFAH         LINE#         1517
  C:5F01H         LINE#         1518
  C:5F08H         LINE#         1519
  C:5F0FH         LINE#         1520
  -------         ENDPROC       _ARMAR_TRAMA_TARJETA_SECTOR1_BLOQUE2
  -------         PROC          _ARMAR_TRAMA_TARJETA_SECTOR1_BLOQUE0
  X:000CH         SYMBOL        Buffer_Write_MF
  C:BF19H         LINE#         1522
  C:BF24H         LINE#         1523
  C:BF24H         LINE#         1525
  -------         ENDPROC       _ARMAR_TRAMA_TARJETA_SECTOR1_BLOQUE0
  -------         PROC          _ARMAR_TRAMA_PTO_PARALELO_EXPEDIDOR
  X:0009H         SYMBOL        Atributos_Expedidor
  X:000CH         SYMBOL        longitud_trama_pto_paralelo
  -------         DO            
  X:00BCH         SYMBOL        buffer
  X:000FH         SYMBOL        ticket
  X:001AH         SYMBOL        j
  -------         ENDDO         
  C:52B2H         LINE#         1527
  C:52BDH         LINE#         1528
  C:52BDH         LINE#         1535
  C:52C3H         LINE#         1536
  C:52C7H         LINE#         1537
  C:52CAH         LINE#         1538
  C:52D6H         LINE#         1539
  C:52EDH         LINE#         1540
  C:52FBH         LINE#         1542
  C:530CH         LINE#         1544
  C:5338H         LINE#         1545
  C:5364H         LINE#         1546
  C:5390H         LINE#         1547
  C:53BCH         LINE#         1548
  C:53E8H         LINE#         1549
  C:53FCH         LINE#         1559
  C:540BH         LINE#         1560
  C:540BH         LINE#         1561
  C:5411H         LINE#         1562
  C:5411H         LINE#         1563
  C:5428H         LINE#         1564
  C:543EH         LINE#         1565
  C:5454H         LINE#         1566
  C:546AH         LINE#         1567
  C:5480H         LINE#         1568
  C:5495H         LINE#         1569
  C:5495H         LINE#         1570
  C:5497H         LINE#         1572
  C:5497H         LINE#         1573
  C:54AAH         LINE#         1574
  C:54AAH         LINE#         1575
  C:54AAH         LINE#         1576
  C:54ACH         LINE#         1578
  C:54ACH         LINE#         1579
BL51 BANKED LINKER/LOCATER V6.22.2.0                                                  06/11/2021  16:40:25  PAGE 122


  C:54C0H         LINE#         1580
  C:54D3H         LINE#         1581
  C:54D3H         LINE#         1582
  C:54E1H         LINE#         1583
  C:54EFH         LINE#         1584
  C:5501H         LINE#         1586
  C:5507H         LINE#         1587
  -------         ENDPROC       _ARMAR_TRAMA_PTO_PARALELO_EXPEDIDOR
  -------         PROC          _ARMAR_TRAMA_PTO_PARALELO_EXPEDIDOR_MENSUAL
  X:0009H         SYMBOL        Atributos_Expedidor
  X:000CH         SYMBOL        longitud_trama_pto_paralelo
  -------         DO            
  X:00D8H         SYMBOL        buffer
  -------         ENDDO         
  C:7226H         LINE#         1588
  C:7231H         LINE#         1589
  C:7231H         LINE#         1595
  C:7237H         LINE#         1596
  C:723BH         LINE#         1597
  C:7250H         LINE#         1598
  C:725AH         LINE#         1599
  C:7264H         LINE#         1600
  C:726EH         LINE#         1604
  C:727FH         LINE#         1605
  C:729BH         LINE#         1606
  C:72B7H         LINE#         1607
  C:72D3H         LINE#         1608
  C:72EFH         LINE#         1618
  C:72FBH         LINE#         1619
  C:72FBH         LINE#         1621
  C:7302H         LINE#         1622
  C:7306H         LINE#         1623
  C:730AH         LINE#         1624
  C:730EH         LINE#         1625
  C:7312H         LINE#         1626
  C:7316H         LINE#         1628
  C:7316H         LINE#         1630
  C:732CH         LINE#         1631
  C:732CH         LINE#         1632
  C:732FH         LINE#         1633
  C:7331H         LINE#         1635
  C:7331H         LINE#         1636
  C:7334H         LINE#         1637
  C:7334H         LINE#         1639
  C:733AH         LINE#         1640
  C:733DH         LINE#         1641
  C:734DH         LINE#         1642
  C:7353H         LINE#         1643
  -------         ENDPROC       _ARMAR_TRAMA_PTO_PARALELO_EXPEDIDOR_MENSUAL
  -------         PROC          _ARMAR_TRAMA_MONITOR
  X:0005H         SYMBOL        Atributos_Expedidor
  -------         DO            
  X:00F4H         SYMBOL        buffer
  X:0008H         SYMBOL        ticket
  X:0013H         SYMBOL        j
  -------         ENDDO         
  C:500FH         LINE#         1644
BL51 BANKED LINKER/LOCATER V6.22.2.0                                                  06/11/2021  16:40:25  PAGE 123


  C:501AH         LINE#         1645
  C:501AH         LINE#         1651
  C:501FH         LINE#         1652
  C:5025H         LINE#         1653
  C:502DH         LINE#         1654
  C:5031H         LINE#         1655
  C:503AH         LINE#         1656
  C:503AH         LINE#         1657
  C:503DH         LINE#         1658
  C:503FH         LINE#         1660
  C:503FH         LINE#         1661
  C:5042H         LINE#         1662
  C:5042H         LINE#         1665
  C:5045H         LINE#         1666
  C:5045H         LINE#         1667
  C:504AH         LINE#         1668
  C:5056H         LINE#         1669
  C:506DH         LINE#         1670
  C:5070H         LINE#         1672
  C:5070H         LINE#         1673
  C:508BH         LINE#         1674
  C:5099H         LINE#         1675
  C:50A7H         LINE#         1676
  C:50B3H         LINE#         1677
  C:50C1H         LINE#         1678
  C:50FAH         LINE#         1680
  C:50FAH         LINE#         1681
  C:5108H         LINE#         1682
  C:5119H         LINE#         1685
  C:5145H         LINE#         1686
  C:5163H         LINE#         1689
  C:5184H         LINE#         1690
  C:51A2H         LINE#         1693
  C:51C3H         LINE#         1694
  C:51E1H         LINE#         1697
  C:5202H         LINE#         1698
  C:5220H         LINE#         1701
  C:5241H         LINE#         1702
  C:525FH         LINE#         1703
  C:5272H         LINE#         1706
  C:5280H         LINE#         1708
  C:528EH         LINE#         1709
  C:529BH         LINE#         1710
  C:52A7H         LINE#         1711
  C:52ACH         LINE#         1712
  C:52B1H         LINE#         1713
  -------         ENDPROC       _ARMAR_TRAMA_MONITOR
  -------         PROC          _ARMAR_TRAMA_PLACA
  X:0008H         SYMBOL        Buffer_Write_MF
  -------         DO            
  D:0006H         SYMBOL        j
  D:0007H         SYMBOL        len_placa
  -------         ENDDO         
  C:B360H         LINE#         1714
  C:B36BH         LINE#         1715
  C:B36BH         LINE#         1718
  C:B374H         LINE#         1719
BL51 BANKED LINKER/LOCATER V6.22.2.0                                                  06/11/2021  16:40:25  PAGE 124


  C:B37BH         LINE#         1720
  C:B37BH         LINE#         1721
  C:B395H         LINE#         1722
  C:B398H         LINE#         1723
  C:B3A4H         LINE#         1724
  C:B3A4H         LINE#         1725
  C:B3B8H         LINE#         1726
  C:B3BBH         LINE#         1727
  -------         ENDPROC       _ARMAR_TRAMA_PLACA
  C:BB6CH         SYMBOL        L?0402
  -------         PROC          L?0401
  -------         ENDPROC       L?0401
  C:BB6CH         SYMBOL        L?0402
  -------         PROC          _LOAD_SECUENCIA_EXPEDIDOR
  D:0001H         SYMBOL        Secuencia_Expedidor
  D:0004H         SYMBOL        estadoactivo
  X:0007H         SYMBOL        estadoactual
  X:0009H         SYMBOL        estadofuturo
  C:BB88H         LINE#         1728
  C:BB88H         LINE#         1729
  C:BB88H         LINE#         1730
  C:BB8FH         LINE#         1731
  C:BB97H         LINE#         1732
  C:BBA2H         LINE#         1733
  C:BBA8H         LINE#         1734
  -------         ENDPROC       _LOAD_SECUENCIA_EXPEDIDOR
  -------         PROC          _DISPARO_LOCK_ENTRADA_VEHICULO
  X:0002H         SYMBOL        Nombre_Mensual
  -------         DO            
  X:0005H         SYMBOL        Estado_expedidor
  X:010CH         SYMBOL        take_card
  -------         ENDDO         
  C:A575H         LINE#         1735
  C:A580H         LINE#         1736
  C:A580H         LINE#         1741
  C:A589H         LINE#         1745
  C:A590H         LINE#         1746
  C:A590H         LINE#         1748
  C:A599H         LINE#         1750
  C:A59FH         LINE#         1751
  C:A5A1H         LINE#         1752
  C:A5A6H         LINE#         1753
  C:A5B6H         LINE#         1754
  C:A5BCH         LINE#         1757
  C:A5BEH         LINE#         1758
  C:A5C6H         LINE#         1759
  C:A5C6H         LINE#         1760
  C:A5CCH         LINE#         1761
  C:A5CCH         LINE#         1762
  C:A5D9H         LINE#         1763
  C:A5DEH         LINE#         1764
  C:A5E3H         LINE#         1765
  C:A5E5H         LINE#         1767
  C:A5E5H         LINE#         1768
  C:A5EBH         LINE#         1770
  C:A5EBH         LINE#         1772
  C:A5F1H         LINE#         1773
BL51 BANKED LINKER/LOCATER V6.22.2.0                                                  06/11/2021  16:40:25  PAGE 125


  C:A5F7H         LINE#         1775
  C:A5F9H         LINE#         1777
  C:A5F9H         LINE#         1778
  C:A5FFH         LINE#         1779
  C:A5FFH         LINE#         1781
  C:A5FFH         LINE#         1786
  C:A604H         LINE#         1787
  -------         ENDPROC       _DISPARO_LOCK_ENTRADA_VEHICULO
  -------         PROC          _SEND_PTO_PARALELO
  X:0002H         SYMBOL        Atributos_Expedidor
  -------         DO            
  X:0005H         SYMBOL        Trama_Expedidor
  X:0008H         SYMBOL        leng_trama_pto
  -------         ENDDO         
  C:9D12H         LINE#         1788
  C:9D1DH         LINE#         1789
  C:9D1DH         LINE#         1792
  C:9D20H         LINE#         1793
  C:9D20H         LINE#         1794
  C:9D47H         LINE#         1795
  C:9D49H         LINE#         1797
  C:9D49H         LINE#         1798
  C:9D70H         LINE#         1799
  C:9D73H         LINE#         1800
  C:9D73H         LINE#         1802
  C:9D84H         LINE#         1803
  C:9D8DH         LINE#         1804
  C:9DA4H         LINE#         1808
  C:9DA7H         LINE#         1809
  C:9DADH         LINE#         1810
  C:9DB2H         LINE#         1811
  C:9DB4H         LINE#         1812
  C:9DB6H         LINE#         1813
  -------         ENDPROC       _SEND_PTO_PARALELO
  -------         PROC          ENTREGA_CARD_CAPTURA
  -------         DO            
  X:0002H         SYMBOL        Estado_expedidor
  -------         ENDDO         
  C:A605H         LINE#         1817
  C:A605H         LINE#         1818
  C:A605H         LINE#         1822
  C:A60EH         LINE#         1823
  C:A611H         LINE#         1824
  C:A614H         LINE#         1825
  C:A614H         LINE#         1826
  C:A61EH         LINE#         1827
  C:A61EH         LINE#         1828
  C:A620H         LINE#         1829
  C:A622H         LINE#         1830
  C:A62BH         LINE#         1831
  C:A62BH         LINE#         1832
  C:A62BH         LINE#         1834
  C:A62DH         LINE#         1836
  C:A62DH         LINE#         1837
  C:A633H         LINE#         1838
  C:A633H         LINE#         1840
  C:A639H         LINE#         1842
BL51 BANKED LINKER/LOCATER V6.22.2.0                                                  06/11/2021  16:40:25  PAGE 126


  C:A64CH         LINE#         1843
  C:A64CH         LINE#         1844
  C:A659H         LINE#         1845
  C:A659H         LINE#         1846
  C:A65BH         LINE#         1847
  C:A664H         LINE#         1849
  C:A666H         LINE#         1850
  C:A666H         LINE#         1851
  C:A668H         LINE#         1852
  C:A675H         LINE#         1853
  C:A675H         LINE#         1854
  C:A67BH         LINE#         1855
  C:A67BH         LINE#         1856
  C:A67BH         LINE#         1858
  C:A67DH         LINE#         1860
  C:A67DH         LINE#         1861
  C:A67FH         LINE#         1862
  C:A688H         LINE#         1863
  C:A68AH         LINE#         1864
  C:A68FH         LINE#         1865
  C:A68FH         LINE#         1866
  C:A68FH         LINE#         1868
  C:A694H         LINE#         1869
  -------         ENDPROC       ENTREGA_CARD_CAPTURA
  -------         PROC          _WAIT_PLACA
  X:0002H         SYMBOL        Atributos_Expedidor
  X:0005H         SYMBOL        Buffer_Write_MF
  -------         DO            
  X:0008H         SYMBOL        Estado_expedidor
  -------         ENDDO         
  C:9855H         LINE#         1870
  C:9860H         LINE#         1871
  C:9860H         LINE#         1874
  C:9869H         LINE#         1876
  C:987FH         LINE#         1877
  C:987FH         LINE#         1878
  C:9882H         LINE#         1879
  C:9882H         LINE#         1881
  C:9885H         LINE#         1882
  C:9885H         LINE#         1883
  C:9887H         LINE#         1885
  C:988AH         LINE#         1886
  C:988AH         LINE#         1887
  C:98B2H         LINE#         1888
  C:98B4H         LINE#         1891
  C:98B4H         LINE#         1892
  C:98BAH         LINE#         1893
  C:98CDH         LINE#         1894
  C:98CDH         LINE#         1895
  C:98DAH         LINE#         1896
  C:98DAH         LINE#         1897
  C:98E9H         LINE#         1898
  C:98EFH         LINE#         1899
  C:98F1H         LINE#         1900
  C:98FEH         LINE#         1901
  C:98FEH         LINE#         1902
  C:9904H         LINE#         1903
BL51 BANKED LINKER/LOCATER V6.22.2.0                                                  06/11/2021  16:40:25  PAGE 127


  C:9904H         LINE#         1904
  C:9904H         LINE#         1905
  C:9904H         LINE#         1906
  C:9909H         LINE#         1907
  -------         ENDPROC       _WAIT_PLACA
  -------         PROC          _VALIDA_VEHICULO_CARD_MENSUAL
  X:0010H         SYMBOL        Atributos_Expedidor
  -------         DO            
  X:0013H         SYMBOL        Estado_expedidor
  -------         ENDDO         
  C:A29BH         LINE#         1908
  C:A2A6H         LINE#         1909
  C:A2A6H         LINE#         1912
  C:A2AFH         LINE#         1913
  C:A2C4H         LINE#         1914
  C:A2C4H         LINE#         1915
  C:A2C8H         LINE#         1916
  C:A2CAH         LINE#         1918
  C:A2CAH         LINE#         1919
  C:A2D1H         LINE#         1920
  C:A2D1H         LINE#         1922
  C:A2DAH         LINE#         1923
  C:A2E8H         LINE#         1924
  C:A2E8H         LINE#         1925
  C:A301H         LINE#         1926
  C:A301H         LINE#         1927
  C:A307H         LINE#         1928
  C:A307H         LINE#         1929
  C:A309H         LINE#         1932
  C:A309H         LINE#         1933
  C:A30EH         LINE#         1934
  C:A317H         LINE#         1935
  C:A31CH         LINE#         1936
  C:A31CH         LINE#         1937
  C:A31EH         LINE#         1939
  C:A31EH         LINE#         1940
  C:A327H         LINE#         1941
  C:A32DH         LINE#         1942
  C:A32DH         LINE#         1943
  C:A332H         LINE#         1944
  -------         ENDPROC       _VALIDA_VEHICULO_CARD_MENSUAL
  -------         PROC          _TARJETA_MENSUAL
  X:0009H         SYMBOL        Atributos_Expedidor
  X:000CH         SYMBOL        Buffer_Write_MF
  -------         DO            
  X:000FH         SYMBOL        Estado_expedidor
  -------         ENDDO         
  C:90E9H         LINE#         1945
  C:90F4H         LINE#         1946
  C:90F4H         LINE#         1951
  C:90FFH         LINE#         1952
  C:90FFH         LINE#         1953
  C:911DH         LINE#         1954
  C:911DH         LINE#         1956
  C:912EH         LINE#         1957
  C:912EH         LINE#         1958
  C:9136H         LINE#         1959
BL51 BANKED LINKER/LOCATER V6.22.2.0                                                  06/11/2021  16:40:25  PAGE 128


  C:9138H         LINE#         1961
  C:9138H         LINE#         1962
  C:9141H         LINE#         1963
  C:9151H         LINE#         1964
  C:9164H         LINE#         1965
  C:9184H         LINE#         1966
  C:918AH         LINE#         1967
  C:918AH         LINE#         1968
  C:918CH         LINE#         1970
  C:918CH         LINE#         1971
  C:9191H         LINE#         1973
  C:9196H         LINE#         1974
  C:919FH         LINE#         1975
  C:919FH         LINE#         1976
  C:919FH         LINE#         1977
  C:91A1H         LINE#         1979
  C:91A1H         LINE#         1981
  C:91A7H         LINE#         1982
  C:91A7H         LINE#         1983
  C:91ACH         LINE#         1984
  -------         ENDPROC       _TARJETA_MENSUAL
  -------         PROC          _TARJETA_ROTACION
  D:0001H         SYMBOL        Atributos_Expedidor
  X:000CH         SYMBOL        Buffer_Write_MF
  C:BE10H         LINE#         1985
  C:BE10H         LINE#         1986
  C:BE10H         LINE#         1987
  C:BE15H         LINE#         1988
  C:BE1EH         LINE#         1989
  C:BE3EH         LINE#         1990
  C:BE40H         LINE#         1993
  -------         ENDPROC       _TARJETA_ROTACION
  -------         PROC          _VALIDA_TIPO_TARJETA
  X:0002H         SYMBOL        Atributos_Expedidor
  X:0005H         SYMBOL        Buffer_Write_MF
  -------         DO            
  X:0008H         SYMBOL        Estado_expedidor
  -------         ENDDO         
  C:6480H         LINE#         1994
  C:648BH         LINE#         1995
  C:648BH         LINE#         1997
  C:6498H         LINE#         1998
  C:6498H         LINE#         1999
  C:64A1H         LINE#         2000
  C:64A7H         LINE#         2001
  C:64A7H         LINE#         2005
  C:64B5H         LINE#         2006
  C:64B5H         LINE#         2009
  C:64D2H         LINE#         2010
  C:64D2H         LINE#         2011
  C:64EFH         LINE#         2013
  C:64F1H         LINE#         2015
  C:64F1H         LINE#         2016
  C:64FAH         LINE#         2017
  C:64FCH         LINE#         2018
  C:64FCH         LINE#         2019
  C:64FCH         LINE#         2020
BL51 BANKED LINKER/LOCATER V6.22.2.0                                                  06/11/2021  16:40:25  PAGE 129


  C:64FFH         LINE#         2023
  C:64FFH         LINE#         2024
  C:6508H         LINE#         2026
  C:652BH         LINE#         2027
  C:652BH         LINE#         2028
  C:652EH         LINE#         2030
  C:652EH         LINE#         2031
  C:6533H         LINE#         2032
  C:6538H         LINE#         2033
  C:653BH         LINE#         2034
  C:653BH         LINE#         2035
  C:653EH         LINE#         2036
  C:6556H         LINE#         2037
  C:6556H         LINE#         2039
  C:655FH         LINE#         2040
  C:6565H         LINE#         2041
  C:6565H         LINE#         2042
  C:6571H         LINE#         2043
  C:6571H         LINE#         2044
  C:658EH         LINE#         2046
  C:658EH         LINE#         2047
  C:65AEH         LINE#         2048
  C:65B0H         LINE#         2050
  C:65B0H         LINE#         2051
  C:65B9H         LINE#         2052
  C:65BEH         LINE#         2053
  C:65C3H         LINE#         2054
  C:65C6H         LINE#         2055
  C:65C6H         LINE#         2056
  C:65C8H         LINE#         2058
  C:65C8H         LINE#         2059
  C:65D1H         LINE#         2060
  C:65F4H         LINE#         2061
  C:65F4H         LINE#         2062
  C:65F6H         LINE#         2064
  C:65F6H         LINE#         2066
  C:65FBH         LINE#         2067
  C:6600H         LINE#         2068
  C:6606H         LINE#         2069
  C:6606H         LINE#         2070
  C:6608H         LINE#         2072
  C:6608H         LINE#         2073
  C:6611H         LINE#         2074
  C:6616H         LINE#         2076
  C:661EH         LINE#         2077
  C:661EH         LINE#         2079
  C:6623H         LINE#         2080
  -------         ENDPROC       _VALIDA_TIPO_TARJETA
  -------         PROC          _HORARIOS
  X:0010H         SYMBOL        Atributos_Expedidor
  -------         DO            
  X:0013H         SYMBOL        Estado_Horario
  X:0014H         SYMBOL        Addr_horarios
  X:001FH         SYMBOL        dia_semana
  X:0020H         SYMBOL        EE_dia_semana
  X:0021H         SYMBOL        addr
  -------         ENDDO         
BL51 BANKED LINKER/LOCATER V6.22.2.0                                                  06/11/2021  16:40:25  PAGE 130


  C:7A18H         LINE#         2174
  C:7A23H         LINE#         2175
  C:7A23H         LINE#         2181
  C:7A2EH         LINE#         2182
  C:7A2EH         LINE#         2184
  C:7A3AH         LINE#         2186
  C:7A60H         LINE#         2190
  C:7A73H         LINE#         2191
  C:7A73H         LINE#         2193
  C:7A7DH         LINE#         2194
  C:7A86H         LINE#         2195
  C:7A8EH         LINE#         2196
  C:7A97H         LINE#         2199
  C:7ABCH         LINE#         2200
  C:7AC5H         LINE#         2201
  C:7ACDH         LINE#         2202
  C:7AD6H         LINE#         2204
  C:7AE0H         LINE#         2205
  C:7AE0H         LINE#         2207
  C:7AEEH         LINE#         2208
  C:7AF0H         LINE#         2210
  C:7AF0H         LINE#         2212
  C:7AF9H         LINE#         2213
  C:7AFEH         LINE#         2214
  C:7AFEH         LINE#         2215
  C:7B00H         LINE#         2217
  C:7B00H         LINE#         2219
  C:7B05H         LINE#         2220
  C:7B0AH         LINE#         2221
  C:7B10H         LINE#         2223
  C:7B10H         LINE#         2225
  C:7B12H         LINE#         2227
  C:7B12H         LINE#         2228
  C:7B18H         LINE#         2230
  C:7B21H         LINE#         2231
  C:7B21H         LINE#         2232
  C:7B26H         LINE#         2233
  -------         ENDPROC       _HORARIOS
  -------         PROC          _HORA_MAXIMA
  X:002FH         SYMBOL        addr
  -------         DO            
  X:0031H         SYMBOL        Hora_High
  X:0032H         SYMBOL        Minuto_High
  X:0033H         SYMBOL        HoraIni
  X:0034H         SYMBOL        MinutoIni
  X:0035H         SYMBOL        Hora_Prog
  -------         ENDDO         
  C:9A6DH         LINE#         2234
  C:9A75H         LINE#         2235
  C:9A75H         LINE#         2240
  C:9A8AH         LINE#         2241
  C:9AAAH         LINE#         2242
  C:9AC7H         LINE#         2243
  C:9AE7H         LINE#         2244
  C:9AEFH         LINE#         2245
  C:9AF7H         LINE#         2246
  C:9B00H         LINE#         2248
BL51 BANKED LINKER/LOCATER V6.22.2.0                                                  06/11/2021  16:40:25  PAGE 131


  C:9B18H         LINE#         2249
  -------         ENDPROC       _HORA_MAXIMA
  -------         PROC          _EN_HORARIO
  X:002AH         SYMBOL        HoraNow
  D:0004H         SYMBOL        Hora_Prog
  X:002CH         SYMBOL        addr
  -------         DO            
  X:002EH         SYMBOL        Estado_Horario
  -------         ENDDO         
  C:AFBBH         LINE#         2250
  C:AFC9H         LINE#         2251
  C:AFC9H         LINE#         2254
  C:AFD6H         LINE#         2255
  C:AFD6H         LINE#         2258
  C:AFDFH         LINE#         2259
  C:AFF4H         LINE#         2262
  C:B003H         LINE#         2263
  C:B003H         LINE#         2265
  C:B00AH         LINE#         2266
  C:B010H         LINE#         2267
  C:B012H         LINE#         2269
  C:B012H         LINE#         2272
  C:B016H         LINE#         2273
  C:B016H         LINE#         2274
  C:B016H         LINE#         2276
  C:B018H         LINE#         2278
  C:B018H         LINE#         2281
  C:B021H         LINE#         2282
  C:B026H         LINE#         2284
  C:B026H         LINE#         2285
  C:B02BH         LINE#         2286
  -------         ENDPROC       _EN_HORARIO
  -------         PROC          _BLOQUE_HORARIO
  X:0023H         SYMBOL        addr
  -------         DO            
  X:0025H         SYMBOL        Estado_Horario
  X:0026H         SYMBOL        HoraNow
  X:0028H         SYMBOL        Hora_Prog
  -------         ENDDO         
  C:8417H         LINE#         2288
  C:841FH         LINE#         2289
  C:841FH         LINE#         2295
  C:8428H         LINE#         2296
  C:8430H         LINE#         2297
  C:8438H         LINE#         2298
  C:8441H         LINE#         2299
  C:8468H         LINE#         2304
  C:8471H         LINE#         2305
  C:8486H         LINE#         2306
  C:849EH         LINE#         2307
  C:84A0H         LINE#         2308
  C:84A0H         LINE#         2311
  C:84B8H         LINE#         2312
  C:84B8H         LINE#         2313
  C:84C1H         LINE#         2314
  C:84DCH         LINE#         2315
  C:84FAH         LINE#         2316
BL51 BANKED LINKER/LOCATER V6.22.2.0                                                  06/11/2021  16:40:25  PAGE 132


  C:84FCH         LINE#         2318
  C:84FCH         LINE#         2319
  C:8501H         LINE#         2320
  C:8506H         LINE#         2321
  C:850BH         LINE#         2322
  C:850BH         LINE#         2323
  C:850BH         LINE#         2325
  C:8512H         LINE#         2326
  -------         ENDPROC       _BLOQUE_HORARIO
  -------         PROC          SECUENCIA_INICIO_EXPEDIDOR
  -------         DO            
  X:0001H         SYMBOL        temp
  -------         ENDDO         
  C:6E75H         LINE#         2335
  C:6E75H         LINE#         2336
  C:6E75H         LINE#         2338
  C:6E95H         LINE#         2339
  C:6E95H         LINE#         2340
  C:6E95H         LINE#         2343
  C:6E9AH         LINE#         2344
  C:6EA0H         LINE#         2347
  C:6EA2H         LINE#         2348
  C:6EA2H         LINE#         2359
  C:6EA2H         LINE#         2361
  C:6EB0H         LINE#         2362
  C:6EB0H         LINE#         2363
  C:6EBCH         LINE#         2364
  C:6EBCH         LINE#         2365
  C:6EC2H         LINE#         2366
  C:6EC5H         LINE#         2367
  C:6ECDH         LINE#         2368
  C:6ECDH         LINE#         2369
  C:6ED4H         LINE#         2370
  C:6EE8H         LINE#         2371
  C:6EE8H         LINE#         2372
  C:6EEAH         LINE#         2374
  C:6EEAH         LINE#         2375
  C:6EF1H         LINE#         2376
  C:6EF7H         LINE#         2377
  C:6EF7H         LINE#         2378
  C:6EFAH         LINE#         2380
  C:6EFAH         LINE#         2381
  C:6F03H         LINE#         2382
  C:6F17H         LINE#         2383
  C:6F1DH         LINE#         2384
  C:6F1DH         LINE#         2385
  C:6F20H         LINE#         2386
  C:6F20H         LINE#         2392
  C:6F20H         LINE#         2394
  C:6F23H         LINE#         2395
  C:6F29H         LINE#         2399
  C:6F2BH         LINE#         2400
  C:6F2BH         LINE#         2410
  C:6F2BH         LINE#         2412
  C:6F39H         LINE#         2413
  C:6F39H         LINE#         2414
  C:6F45H         LINE#         2415
BL51 BANKED LINKER/LOCATER V6.22.2.0                                                  06/11/2021  16:40:25  PAGE 133


  C:6F45H         LINE#         2416
  C:6F4BH         LINE#         2417
  C:6F4DH         LINE#         2418
  C:6F55H         LINE#         2419
  C:6F55H         LINE#         2420
  C:6F5CH         LINE#         2421
  C:6F70H         LINE#         2422
  C:6F70H         LINE#         2423
  C:6F72H         LINE#         2425
  C:6F72H         LINE#         2426
  C:6F79H         LINE#         2427
  C:6F7FH         LINE#         2428
  C:6F7FH         LINE#         2429
  C:6F81H         LINE#         2431
  C:6F81H         LINE#         2432
  C:6F8AH         LINE#         2433
  C:6F9EH         LINE#         2434
  C:6FA3H         LINE#         2435
  C:6FA3H         LINE#         2437
  C:6FA5H         LINE#         2438
  C:6FA5H         LINE#         2444
  C:6FA5H         LINE#         2446
  C:6FABH         LINE#         2447
  C:6FABH         LINE#         2450
  C:6FABH         LINE#         2451
  C:6FB2H         LINE#         2452
  C:6FB2H         LINE#         2453
  C:6FB2H         LINE#         2454
  -------         ENDPROC       SECUENCIA_INICIO_EXPEDIDOR
  -------         PROC          _SECUENCIAEXPEDIDORMF
  X:0001H         SYMBOL        EstadoActivo
  -------         DO            
  X:010DH         SYMBOL        Buffer_Write_MF
  X:011EH         SYMBOL        Atributos_Expedidor
  X:0132H         SYMBOL        Secuencia_Expedidor
  X:0136H         SYMBOL        Nombre_Mensual
  -------         ENDDO         
  C:3B07H         LINE#         2464
  C:3B0CH         LINE#         2465
  C:3B0CH         LINE#         2471
  C:3B6FH         LINE#         2472
  C:3B6FH         LINE#         2475
  C:3B6FH         LINE#         2477
  C:3B7FH         LINE#         2478
  C:3B7FH         LINE#         2481
  C:3B81H         LINE#         2482
  C:3B83H         LINE#         2483
  C:3B88H         LINE#         2484
  C:3B90H         LINE#         2485
  C:3B95H         LINE#         2486
  C:3B98H         LINE#         2487
  C:3B98H         LINE#         2488
  C:3B9EH         LINE#         2489
  C:3B9EH         LINE#         2490
  C:3BA1H         LINE#         2491
  C:3BA1H         LINE#         2492
  C:3BA1H         LINE#         2494
BL51 BANKED LINKER/LOCATER V6.22.2.0                                                  06/11/2021  16:40:25  PAGE 134


  C:3BA4H         LINE#         2495
  C:3BA4H         LINE#         2497
  C:3BADH         LINE#         2498
  C:3BB0H         LINE#         2499
  C:3BB0H         LINE#         2500
  C:3BB5H         LINE#         2501
  C:3BD5H         LINE#         2502
  C:3BD8H         LINE#         2503
  C:3BD8H         LINE#         2504
  C:3BDDH         LINE#         2505
  C:3BE5H         LINE#         2506
  C:3BEBH         LINE#         2507
  C:3BEEH         LINE#         2508
  C:3BEEH         LINE#         2509
  C:3BF1H         LINE#         2510
  C:3BF9H         LINE#         2511
  C:3BFFH         LINE#         2512
  C:3C02H         LINE#         2513
  C:3C02H         LINE#         2514
  C:3C05H         LINE#         2515
  C:3C2AH         LINE#         2516
  C:3C30H         LINE#         2517
  C:3C32H         LINE#         2518
  C:3C35H         LINE#         2519
  C:3C35H         LINE#         2520
  C:3C40H         LINE#         2521
  C:3C48H         LINE#         2522
  C:3C4EH         LINE#         2523
  C:3C51H         LINE#         2524
  C:3C51H         LINE#         2525
  C:3C62H         LINE#         2526
  C:3C6AH         LINE#         2527
  C:3C70H         LINE#         2528
  C:3C73H         LINE#         2529
  C:3C73H         LINE#         2530
  C:3C78H         LINE#         2531
  C:3C96H         LINE#         2532
  C:3C99H         LINE#         2533
  C:3C99H         LINE#         2534
  C:3C9EH         LINE#         2535
  C:3CBEH         LINE#         2536
  C:3CC1H         LINE#         2537
  C:3CC1H         LINE#         2538
  C:3CC6H         LINE#         2539
  C:3CC8H         LINE#         2540
  C:3CE6H         LINE#         2541
  C:3CE9H         LINE#         2542
  C:3CE9H         LINE#         2543
  C:3CEEH         LINE#         2544
  C:3D0EH         LINE#         2545
  C:3D11H         LINE#         2546
  C:3D11H         LINE#         2547
  C:3D24H         LINE#         2548
  C:3D24H         LINE#         2549
  C:3D29H         LINE#         2550
  C:3D31H         LINE#         2551
  C:3D37H         LINE#         2552
BL51 BANKED LINKER/LOCATER V6.22.2.0                                                  06/11/2021  16:40:25  PAGE 135


  C:3D37H         LINE#         2553
  C:3D3AH         LINE#         2554
  C:3D3AH         LINE#         2555
  C:3D4DH         LINE#         2556
  C:3D4DH         LINE#         2557
  C:3D52H         LINE#         2558
  C:3D55H         LINE#         2559
  C:3D55H         LINE#         2560
  C:3D58H         LINE#         2561
  C:3D58H         LINE#         2562
  C:3D5BH         LINE#         2563
  C:3D7BH         LINE#         2564
  C:3D7EH         LINE#         2565
  C:3D7EH         LINE#         2566
  C:3D80H         LINE#         2567
  C:3D83H         LINE#         2568
  C:3D86H         LINE#         2569
  C:3D86H         LINE#         2570
  C:3D8FH         LINE#         2571
  C:3D92H         LINE#         2572
  C:3D92H         LINE#         2573
  C:3DA9H         LINE#         2574
  C:3DACH         LINE#         2575
  C:3DACH         LINE#         2576
  C:3DAFH         LINE#         2577
  C:3DB7H         LINE#         2578
  C:3DBDH         LINE#         2579
  C:3DC0H         LINE#         2580
  C:3DC0H         LINE#         2581
  C:3DC9H         LINE#         2582
  C:3DCCH         LINE#         2583
  C:3DCCH         LINE#         2584
  C:3DCEH         LINE#         2585
  C:3DD1H         LINE#         2586
  C:3DD4H         LINE#         2587
  C:3DD4H         LINE#         2588
  C:3DEBH         LINE#         2589
  C:3DEEH         LINE#         2590
  C:3DEEH         LINE#         2593
  C:3DF3H         LINE#         2594
  C:3DFBH         LINE#         2595
  C:3E01H         LINE#         2597
  C:3E04H         LINE#         2598
  C:3E04H         LINE#         2599
  C:3E07H         LINE#         2600
  C:3E27H         LINE#         2601
  C:3E2AH         LINE#         2602
  C:3E2AH         LINE#         2603
  C:3E2DH         LINE#         2604
  C:3E4DH         LINE#         2605
  C:3E50H         LINE#         2606
  C:3E50H         LINE#         2607
  C:3E53H         LINE#         2608
  C:3E5BH         LINE#         2609
  C:3E5EH         LINE#         2610
  C:3E60H         LINE#         2611
  C:3E60H         LINE#         2613
BL51 BANKED LINKER/LOCATER V6.22.2.0                                                  06/11/2021  16:40:25  PAGE 136


  C:3E6BH         LINE#         2614
  C:3E73H         LINE#         2615
  C:3E87H         LINE#         2616
  C:3E8AH         LINE#         2620
  C:3E8AH         LINE#         2621
  C:3E90H         LINE#         2622
  C:3E96H         LINE#         2623
  C:3E96H         LINE#         2624
  C:3E9EH         LINE#         2625
  C:3EA4H         LINE#         2627
  C:3EA7H         LINE#         2628
  C:3EAFH         LINE#         2629
  C:3EAFH         LINE#         2631
  C:3EB2H         LINE#         2632
  C:3EB5H         LINE#         2633
  C:3EBDH         LINE#         2634
  C:3EBDH         LINE#         2635
  C:3ECBH         LINE#         2636
  C:3ECBH         LINE#         2637
  C:3ED4H         LINE#         2638
  C:3ED7H         LINE#         2639
  C:3EE3H         LINE#         2640
  C:3EE3H         LINE#         2641
  C:3EECH         LINE#         2642
  C:3EEFH         LINE#         2644
  C:3EEFH         LINE#         2645
  C:3EF8H         LINE#         2646
  C:3EF8H         LINE#         2647
  C:3EFBH         LINE#         2648
  C:3F03H         LINE#         2649
  C:3F03H         LINE#         2650
  C:3F11H         LINE#         2651
  C:3F11H         LINE#         2652
  C:3F27H         LINE#         2653
  C:3F2AH         LINE#         2654
  C:3F36H         LINE#         2655
  C:3F36H         LINE#         2656
  C:3F3FH         LINE#         2657
  C:3F42H         LINE#         2658
  C:3F50H         LINE#         2659
  C:3F50H         LINE#         2660
  C:3F59H         LINE#         2661
  C:3F5BH         LINE#         2663
  C:3F5BH         LINE#         2664
  C:3F64H         LINE#         2665
  C:3F64H         LINE#         2666
  C:3F66H         LINE#         2667
  C:3F6EH         LINE#         2668
  C:3F6EH         LINE#         2669
  C:3F77H         LINE#         2670
  C:3F79H         LINE#         2671
  C:3F81H         LINE#         2672
  C:3F81H         LINE#         2673
  C:3F97H         LINE#         2674
  C:3F99H         LINE#         2675
  C:3FA1H         LINE#         2676
  C:3FA1H         LINE#         2677
BL51 BANKED LINKER/LOCATER V6.22.2.0                                                  06/11/2021  16:40:25  PAGE 137


  C:3FA4H         LINE#         2678
  C:3FA6H         LINE#         2680
  C:3FAEH         LINE#         2681
  C:3FAEH         LINE#         2682
  C:3FB7H         LINE#         2683
  C:3FB9H         LINE#         2686
  C:3FC1H         LINE#         2687
  C:3FC1H         LINE#         2688
  C:3FC9H         LINE#         2689
  C:3FCBH         LINE#         2691
  C:3FCBH         LINE#         2692
  C:3FD4H         LINE#         2693
  C:3FD4H         LINE#         2694
  C:3FD6H         LINE#         2695
  C:3FD6H         LINE#         2696
  C:3FDBH         LINE#         2697
  C:3FDBH         LINE#         2699
  C:3FDBH         LINE#         2700
  C:3FE0H         LINE#         2701
  -------         ENDPROC       _SECUENCIAEXPEDIDORMF
  -------         ENDMOD        VERIFICADOR

  -------         MODULE        MONITOR
  C:0000H         SYMBOL        _ICE_DUMMY_
  D:0080H         PUBLIC        P0
  D:0090H         PUBLIC        P1
  I:0011H         PUBLIC        placa
  C:BFB4H         PUBLIC        Rx_Monitor
  B:0080H.0       PUBLIC        rx_ip
  B:0090H.7       PUBLIC        lock
  C:9332H         PUBLIC        _recibe_cmd_Monitor
  C:C119H         PUBLIC        clear_placa
  C:962BH         PUBLIC        _Valida_Trama_Monitor
  -------         PROC          _RECIBE_CMD_MONITOR
  X:0016H         SYMBOL        buffer_cmd
  -------         DO            
  X:0019H         SYMBOL        j
  X:001AH         SYMBOL        NumDatos
  X:001BH         SYMBOL        time_out
  X:001CH         SYMBOL        MaxChrRx
  X:001DH         SYMBOL        contador
  -------         ENDDO         
  C:9332H         LINE#         50
  C:933DH         LINE#         51
  C:933DH         LINE#         55
  C:9342H         LINE#         56
  C:9348H         LINE#         58
  C:9353H         LINE#         59
  C:9353H         LINE#         60
  C:9364H         LINE#         61
  C:9364H         LINE#         62
  C:936BH         LINE#         63
  C:936FH         LINE#         64
  C:9378H         LINE#         65
  C:9378H         LINE#         66
  C:9386H         LINE#         67
  C:939DH         LINE#         68
BL51 BANKED LINKER/LOCATER V6.22.2.0                                                  06/11/2021  16:40:25  PAGE 138


  C:939DH         LINE#         69
  C:93A3H         LINE#         70
  C:93A9H         LINE#         71
  C:93A9H         LINE#         72
  C:93ABH         LINE#         73
  C:93B3H         LINE#         74
  C:93B9H         LINE#         75
  C:93CBH         LINE#         76
  C:93D5H         LINE#         77
  C:93DEH         LINE#         79
  C:93EDH         LINE#         82
  C:93EDH         LINE#         83
  C:93F2H         LINE#         84
  -------         ENDPROC       _RECIBE_CMD_MONITOR
  -------         PROC          _VALIDA_TRAMA_MONITOR
  X:0016H         SYMBOL        buffer
  D:0005H         SYMBOL        length_trama
  -------         DO            
  X:0019H         SYMBOL        j
  X:001AH         SYMBOL        p
  X:001BH         SYMBOL        cont
  -------         ENDDO         
  C:962BH         LINE#         89
  C:9636H         LINE#         90
  C:9636H         LINE#         91
  C:9639H         LINE#         92
  C:963DH         LINE#         93
  C:9640H         LINE#         94
  C:9642H         LINE#         97
  C:9656H         LINE#         98
  C:9656H         LINE#         100
  C:9658H         LINE#         102
  C:965FH         LINE#         103
  C:9664H         LINE#         106
  C:9664H         LINE#         108
  C:967FH         LINE#         109
  C:967FH         LINE#         112
  C:967FH         LINE#         113
  C:96A0H         LINE#         114
  C:96A4H         LINE#         115
  C:96AAH         LINE#         116
  C:96BCH         LINE#         117
  C:96D4H         LINE#         118
  C:96DDH         LINE#         119
  C:96DFH         LINE#         120
  C:96E5H         LINE#         123
  C:96E5H         LINE#         126
  -------         ENDPROC       _VALIDA_TRAMA_MONITOR
  -------         PROC          CLEAR_PLACA
  -------         DO            
  D:0007H         SYMBOL        i
  -------         ENDDO         
  C:C119H         LINE#         127
  C:C119H         LINE#         128
  C:C119H         LINE#         130
  C:C125H         LINE#         131
  C:C125H         LINE#         132
BL51 BANKED LINKER/LOCATER V6.22.2.0                                                  06/11/2021  16:40:25  PAGE 139


  C:C12BH         LINE#         133
  C:C12EH         LINE#         134
  C:C130H         LINE#         135
  -------         ENDPROC       CLEAR_PLACA
  -------         PROC          RX_MONITOR
  -------         DO            
  X:0009H         SYMBOL        Length_trama
  X:000AH         SYMBOL        buffer1
  -------         ENDDO         
  C:BFB4H         LINE#         136
  C:BFB4H         LINE#         137
  C:BFB4H         LINE#         140
  C:BFC3H         LINE#         141
  C:BFCCH         LINE#         142
  -------         ENDPROC       RX_MONITOR
  -------         ENDMOD        MONITOR

  -------         MODULE        ?C?FPADD
  C:134FH         PUBLIC        ?C?FPADD
  C:134BH         PUBLIC        ?C?FPSUB
  -------         ENDMOD        ?C?FPADD

  -------         MODULE        ?C?FPMUL
  C:1440H         PUBLIC        ?C?FPMUL
  -------         ENDMOD        ?C?FPMUL

  -------         MODULE        ?C?FCAST
  C:1550H         PUBLIC        ?C?FCASTC
  C:154BH         PUBLIC        ?C?FCASTI
  C:1546H         PUBLIC        ?C?FCASTL
  -------         ENDMOD        ?C?FCAST

  -------         MODULE        ?C?CASTF
  C:1584H         PUBLIC        ?C?CASTF
  -------         ENDMOD        ?C?CASTF

  -------         MODULE        PRINTF
  X:0077H         PUBLIC        ?_PRINTF?BYTE
  X:0077H         PUBLIC        ?_SPRINTF?BYTE
  C:404CH         PUBLIC        _PRINTF
  C:4046H         PUBLIC        _SPRINTF
  -------         ENDMOD        PRINTF

  -------         MODULE        POW
  X:0020H         PUBLIC        ?_pow?BYTE
  C:6935H         PUBLIC        _pow
  -------         ENDMOD        POW

  -------         MODULE        ?C?CHKFLOAT
  C:1605H         PUBLIC        ?C?CHKFLOAT
  -------         ENDMOD        ?C?CHKFLOAT

  -------         MODULE        ?C?FPCMP
  C:1621H         PUBLIC        ?C?FPCMP
  C:161FH         PUBLIC        ?C?FPCMP3
  -------         ENDMOD        ?C?FPCMP

BL51 BANKED LINKER/LOCATER V6.22.2.0                                                  06/11/2021  16:40:25  PAGE 140


  -------         MODULE        ?C?FPNEG
  C:1698H         PUBLIC        ?C?FPNEG
  -------         ENDMOD        ?C?FPNEG

  -------         MODULE        ?C?FPROUND
  C:16A9H         PUBLIC        ?C?FPROUND
  -------         ENDMOD        ?C?FPROUND

  -------         MODULE        ?C?FPCONVERT
  C:16E6H         PUBLIC        ?C?FPCONVERT
  -------         ENDMOD        ?C?FPCONVERT

  -------         MODULE        EXP
  C:A107H         PUBLIC        _EXP
  -------         ENDMOD        EXP

  -------         MODULE        LOG
  C:74B3H         PUBLIC        _LOG
  C:74AFH         PUBLIC        _LOG10
  -------         ENDMOD        LOG

  -------         MODULE        ?C?FPDIV
  C:17EEH         PUBLIC        ?C?FPDIV
  -------         ENDMOD        ?C?FPDIV

  -------         MODULE        ?C?FTNPWR
  C:18BBH         PUBLIC        ?C?FTNPWR
  -------         ENDMOD        ?C?FTNPWR

  -------         MODULE        ?C?COPY
  C:1A18H         PUBLIC        ?C?COPY
  -------         ENDMOD        ?C?COPY

  -------         MODULE        ?C?CLDPTR
  C:1A3EH         PUBLIC        ?C?CLDPTR
  -------         ENDMOD        ?C?CLDPTR

  -------         MODULE        ?C?CLDOPTR
  C:1A57H         PUBLIC        ?C?CLDOPTR
  -------         ENDMOD        ?C?CLDOPTR

  -------         MODULE        ?C?CSTPTR
  C:1A84H         PUBLIC        ?C?CSTPTR
  -------         ENDMOD        ?C?CSTPTR

  -------         MODULE        ?C?CSTOPTR
  C:1A96H         PUBLIC        ?C?CSTOPTR
  -------         ENDMOD        ?C?CSTOPTR

  -------         MODULE        ?C?IMUL
  C:1AB8H         PUBLIC        ?C?IMUL
  -------         ENDMOD        ?C?IMUL

  -------         MODULE        ?C?IILDX
  C:1ACAH         PUBLIC        ?C?IILDX
  -------         ENDMOD        ?C?IILDX

BL51 BANKED LINKER/LOCATER V6.22.2.0                                                  06/11/2021  16:40:25  PAGE 141


  -------         MODULE        ?C?LNEG
  C:1AE0H         PUBLIC        ?C?LNEG
  -------         ENDMOD        ?C?LNEG

  -------         MODULE        ?C?SLCMP
  C:1AEEH         PUBLIC        ?C?SLCMP
  -------         ENDMOD        ?C?SLCMP

  -------         MODULE        ?C?ULCMP
  C:1B04H         PUBLIC        ?C?ULCMP
  -------         ENDMOD        ?C?ULCMP

  -------         MODULE        ?C?ULSHR
  C:1B15H         PUBLIC        ?C?ULSHR
  -------         ENDMOD        ?C?ULSHR

  -------         MODULE        ?C?LSHL
  C:1B28H         PUBLIC        ?C?LSHL
  -------         ENDMOD        ?C?LSHL

  -------         MODULE        ?C?LLDCODE
  C:1B3BH         PUBLIC        ?C?LLDCODE
  -------         ENDMOD        ?C?LLDCODE

  -------         MODULE        ?C?LLDXDATA0
  C:1B4BH         PUBLIC        ?C?LLDXDATA0
  -------         ENDMOD        ?C?LLDXDATA0

  -------         MODULE        ?C?LLDCODE0
  C:1B57H         PUBLIC        ?C?LLDCODE0
  -------         ENDMOD        ?C?LLDCODE0

  -------         MODULE        ?C?LSTXDATA
  C:1B67H         PUBLIC        ?C?LSTXDATA
  -------         ENDMOD        ?C?LSTXDATA

  -------         MODULE        ?C?LSTKXDATA
  C:1B73H         PUBLIC        ?C?LSTKXDATA
  -------         ENDMOD        ?C?LSTKXDATA

  -------         MODULE        ?C?PLDIXDATA
  C:1BA4H         PUBLIC        ?C?PLDIXDATA
  -------         ENDMOD        ?C?PLDIXDATA

  -------         MODULE        ?C?PSTXDATA
  C:1BBBH         PUBLIC        ?C?PSTXDATA
  -------         ENDMOD        ?C?PSTXDATA

  -------         MODULE        ?C?CCASE
  C:1BC4H         PUBLIC        ?C?CCASE
  -------         ENDMOD        ?C?CCASE

  -------         MODULE        STRCAT
  X:0046H         PUBLIC        ?_strcat?BYTE
  C:B172H         PUBLIC        _strcat
  -------         ENDMOD        STRCAT

BL51 BANKED LINKER/LOCATER V6.22.2.0                                                  06/11/2021  16:40:25  PAGE 142


  -------         MODULE        ?C?STRCMP
  C:1D68H         PUBLIC        ?C?STRCMP
  -------         ENDMOD        ?C?STRCMP

  -------         MODULE        ?C?STRCPY
  C:1E51H         PUBLIC        ?C?STRCPY
  -------         ENDMOD        ?C?STRCPY

  -------         MODULE        STRLEN
  C:000EH         PUBLIC        _STRLEN
  -------         ENDMOD        STRLEN

  -------         MODULE        STRTOK
  X:0064H         PUBLIC        ?_strtok?BYTE
  C:87DEH         PUBLIC        _strtok
  -------         ENDMOD        STRTOK

  -------         MODULE        ATOL
  C:7B27H         PUBLIC        _atol
  -------         ENDMOD        ATOL

  -------         MODULE        ATOI
  C:89A0H         PUBLIC        _atoi
  -------         ENDMOD        ATOI

  -------         MODULE        ?C?ILDIX
  C:1E6EH         PUBLIC        ?C?ILDIX
  -------         ENDMOD        ?C?ILDIX

  -------         MODULE        ?C?LMUL
  C:1E84H         PUBLIC        ?C?LMUL
  -------         ENDMOD        ?C?LMUL

  -------         MODULE        ISDIGIT
  C:C229H         PUBLIC        _isdigit
  -------         ENDMOD        ISDIGIT

  -------         MODULE        ISSPACE
  C:C189H         PUBLIC        _isspace
  -------         ENDMOD        ISSPACE

  -------         MODULE        STRSPN
  X:006AH         PUBLIC        ?_strspn?BYTE
  C:AA50H         PUBLIC        _strspn
  -------         ENDMOD        STRSPN

  -------         MODULE        STRPBRK
  X:006AH         PUBLIC        ?_strpbrk?BYTE
  C:AB57H         PUBLIC        _strpbrk
  -------         ENDMOD        STRPBRK

Program Size: data=99.1 xdata=538 code=49846
LINK/LOCATE RUN COMPLETE.  0 WARNING(S),  0 ERROR(S)
