BL51 BANKED LINKER/LOCATER V6.22.2.0                                                    06/23/2021  14:18:03  PAGE 1


BL51 BANKED LINKER/LOCATER V6.22.2.0, INVOKED BY:
C:\KEIL_V5\C51\BIN\BL51.EXE .\Objects\main.obj, .\Objects\Accescan.obj, .\Objects\Clock.obj, .\Objects\delay.obj, .\Obje
>> cts\eeprom.obj, .\Objects\io_sensores.obj, .\Objects\pantallas.obj, .\Objects\prog.obj, .\Objects\pto_paralelo.obj, .
>> \Objects\tibbo.obj, .\Objects\uart.obj, .\Objects\lintech.obj, .\Objects\verificador.obj, .\Objects\Monitor.obj TO .\
>> Objects\expedidor_v_01_raspberry PRINT (.\Listings\expedidor_v_01_raspberry.m51) RAMSIZE (256)


MEMORY MODEL: LARGE WITH FLOATING POINT ARITHMETIC


INPUT MODULES INCLUDED:
  .\Objects\main.obj (MAIN)
  .\Objects\Accescan.obj (ACCESCAN)
  .\Objects\Clock.obj (CLOCK)
  .\Objects\delay.obj (DELAY)
  .\Objects\eeprom.obj (EEPROM)
  .\Objects\io_sensores.obj (IO_SENSORES)
  .\Objects\pantallas.obj (PANTALLAS)
  .\Objects\prog.obj (PROG)
  .\Objects\pto_paralelo.obj (PTO_PARALELO)
  .\Objects\tibbo.obj (TIBBO)
  .\Objects\uart.obj (UART)
  .\Objects\lintech.obj (LINTECH)
  .\Objects\verificador.obj (VERIFICADOR)
  .\Objects\Monitor.obj (MONITOR)
  C:\KEIL_V5\C51\LIB\C51FPL.LIB (?C?FPADD)
  C:\KEIL_V5\C51\LIB\C51FPL.LIB (?C?FPMUL)
  C:\KEIL_V5\C51\LIB\C51FPL.LIB (?C?FCAST)
  C:\KEIL_V5\C51\LIB\C51FPL.LIB (?C?CASTF)
  C:\KEIL_V5\C51\LIB\C51FPL.LIB (PRINTF)
  C:\KEIL_V5\C51\LIB\C51FPL.LIB (POW)
  C:\KEIL_V5\C51\LIB\C51FPL.LIB (?C?FPGETOPN)
  C:\KEIL_V5\C51\LIB\C51FPL.LIB (?C?CHKFLOAT)
  C:\KEIL_V5\C51\LIB\C51FPL.LIB (?C?FPCMP)
  C:\KEIL_V5\C51\LIB\C51FPL.LIB (?C?FPNEG)
  C:\KEIL_V5\C51\LIB\C51FPL.LIB (?C?FPROUND)
  C:\KEIL_V5\C51\LIB\C51FPL.LIB (?C?FPCONVERT)
  C:\KEIL_V5\C51\LIB\C51FPL.LIB (EXP)
  C:\KEIL_V5\C51\LIB\C51FPL.LIB (LOG)
  C:\KEIL_V5\C51\LIB\C51FPL.LIB (?C?FPDIV)
  C:\KEIL_V5\C51\LIB\C51FPL.LIB (?C?FTNPWR)
  C:\KEIL_V5\C51\LIB\C51FPL.LIB (?C?FPSERIES)
  C:\KEIL_V5\C51\LIB\C51L.LIB (?C_STARTUP)
  C:\KEIL_V5\C51\LIB\C51L.LIB (?C?COPY)
  C:\KEIL_V5\C51\LIB\C51L.LIB (?C?CLDPTR)
  C:\KEIL_V5\C51\LIB\C51L.LIB (?C?CLDOPTR)
  C:\KEIL_V5\C51\LIB\C51L.LIB (?C?CSTPTR)
  C:\KEIL_V5\C51\LIB\C51L.LIB (?C?CSTOPTR)
  C:\KEIL_V5\C51\LIB\C51L.LIB (?C?IMUL)
  C:\KEIL_V5\C51\LIB\C51L.LIB (?C?IILDX)
  C:\KEIL_V5\C51\LIB\C51L.LIB (?C?LNEG)
  C:\KEIL_V5\C51\LIB\C51L.LIB (?C?SLCMP)
  C:\KEIL_V5\C51\LIB\C51L.LIB (?C?ULCMP)
  C:\KEIL_V5\C51\LIB\C51L.LIB (?C?ULSHR)
  C:\KEIL_V5\C51\LIB\C51L.LIB (?C?LSHL)
  C:\KEIL_V5\C51\LIB\C51L.LIB (?C?LLDCODE)
  C:\KEIL_V5\C51\LIB\C51L.LIB (?C?LLDXDATA0)
  C:\KEIL_V5\C51\LIB\C51L.LIB (?C?LLDCODE0)
BL51 BANKED LINKER/LOCATER V6.22.2.0                                                  06/23/2021  14:18:03  PAGE 2


  C:\KEIL_V5\C51\LIB\C51L.LIB (?C?LSTXDATA)
  C:\KEIL_V5\C51\LIB\C51L.LIB (?C?LSTKXDATA)
  C:\KEIL_V5\C51\LIB\C51L.LIB (?C?PLDIXDATA)
  C:\KEIL_V5\C51\LIB\C51L.LIB (?C?PSTXDATA)
  C:\KEIL_V5\C51\LIB\C51L.LIB (?C?CCASE)
  C:\KEIL_V5\C51\LIB\C51L.LIB (STRCAT)
  C:\KEIL_V5\C51\LIB\C51L.LIB (?C?STRCMP)
  C:\KEIL_V5\C51\LIB\C51L.LIB (?C?STRCPY)
  C:\KEIL_V5\C51\LIB\C51L.LIB (STRLEN)
  C:\KEIL_V5\C51\LIB\C51L.LIB (STRTOK)
  C:\KEIL_V5\C51\LIB\C51L.LIB (ATOL)
  C:\KEIL_V5\C51\LIB\C51L.LIB (ATOI)
  C:\KEIL_V5\C51\LIB\C51L.LIB (?C_INIT)
  C:\KEIL_V5\C51\LIB\C51L.LIB (?C?ILDIX)
  C:\KEIL_V5\C51\LIB\C51L.LIB (?C?LMUL)
  C:\KEIL_V5\C51\LIB\C51L.LIB (ISDIGIT)
  C:\KEIL_V5\C51\LIB\C51L.LIB (ISSPACE)
  C:\KEIL_V5\C51\LIB\C51L.LIB (STRSPN)
  C:\KEIL_V5\C51\LIB\C51L.LIB (STRPBRK)


LINK MAP OF MODULE:  .\Objects\expedidor_v_01_raspberry (MAIN)


            TYPE    BASE      LENGTH    RELOCATION   SEGMENT NAME
            -----------------------------------------------------

            * * * * * * *   D A T A   M E M O R Y   * * * * * * *
            REG     0000H     0008H     ABSOLUTE     "REG BANK 0"
            DATA    0008H     0005H     UNIT         _DATA_GROUP_
            DATA    000DH     0004H     UNIT         ?DT?UART
            IDATA   0011H     0009H     UNIT         ?ID?MONITOR
                    001AH     0006H                  *** GAP ***
            BIT     0020H.0   0001H.1   UNIT         _BIT_GROUP_
            BIT     0021H.1   0000H.3   UNIT         ?BI?MAIN
            BIT     0021H.4   0000H.2   UNIT         ?BI?UART
            BIT     0021H.6   0000H.1   UNIT         ?BI?EEPROM
            BIT     0021H.7   0000H.1   UNIT         ?BI?IO_SENSORES
            BIT     0022H.0   0000H.1   UNIT         ?BI?VERIFICADOR
                    0022H.1   0000H.7                *** GAP ***
            IDATA   0023H     0046H     UNIT         ?ID?MAIN
            IDATA   0069H     0001H     UNIT         ?STACK

            * * * * * * *  X D A T A   M E M O R Y  * * * * * * *
            XDATA   0000H     00B7H     UNIT         _XDATA_GROUP_
            XDATA   00B7H     0091H     UNIT         ?XD?VERIFICADOR
            XDATA   0148H     006CH     UNIT         ?XD?MAIN
            XDATA   01B4H     005CH     UNIT         ?XD?PROG
            XDATA   0210H     0003H     UNIT         ?XD?EEPROM
            XDATA   0213H     0003H     UNIT         ?XD?UART
            XDATA   0216H     0003H     UNIT         ?XD?STRTOK
            XDATA   0219H     0002H     UNIT         ?XD?IO_SENSORES
            XDATA   021BH     0001H     UNIT         ?XD?ACCESCAN
            XDATA   021CH     0001H     UNIT         ?XD?CLOCK

            * * * * * * *   C O D E   M E M O R Y   * * * * * * *
            CODE    0000H     0003H     ABSOLUTE     
BL51 BANKED LINKER/LOCATER V6.22.2.0                                                  06/23/2021  14:18:03  PAGE 3


            CODE    0003H     0008H     UNIT         ?PR?P_CK?CLOCK
            CODE    000BH     0003H     ABSOLUTE     
            CODE    000EH     0015H     UNIT         ?PR?_STRLEN?STRLEN
            CODE    0023H     0003H     ABSOLUTE     
            CODE    0026H     141BH     UNIT         ?CO?PROG
            CODE    1441H     0B8BH     UNIT         ?C?LIB_CODE
            CODE    1FCCH     08BDH     UNIT         ?CO?VERIFICADOR
            CODE    2889H     0747H     UNIT         ?PR?_PANTALLALCD?PANTALLAS
            CODE    2FD0H     06EFH     UNIT         ?CO?PANTALLAS
            CODE    36BFH     0541H     UNIT         ?PR?_VALIDA_TRAMA_PTO?ACCESCAN
            CODE    3C00H     04DAH     UNIT         ?PR?_SECUENCIAEXPEDIDORMF?VERIFICADOR
            CODE    40DAH     0483H     UNIT         ?PR?PRINTF?PRINTF
            CODE    455DH     03C8H     UNIT         ?PR?VER_PROG?PROG
            CODE    4925H     02D0H     UNIT         ?PR?_TWO_BYTEHEX_DECIMAL?CLOCK
            CODE    4BF5H     02B7H     UNIT         ?PR?_PROG_HORARIO_DIAS?PROG
            CODE    4EACH     02A5H     UNIT         ?PR?_PANTALLALCD_LINEA_2?PANTALLAS
            CODE    5151H     02A3H     UNIT         ?PR?_ARMAR_TRAMA_MONITOR?VERIFICADOR
            CODE    53F4H     0256H     UNIT         ?PR?_ARMAR_TRAMA_PTO_PARALELO_EXPEDIDOR?VERIFICADOR
            CODE    564AH     0235H     UNIT         ?PR?MENU?PROG
            CODE    587FH     0208H     UNIT         ?PR?_HASH_ID?PROG
            CODE    5A87H     01FAH     UNIT         ?PR?_PROG_HORARIO_DESDE_HASTA?PROG
            CODE    5C81H     01F5H     UNIT         ?PR?PROG_FECHA_VENCIMIENTO?PROG
            CODE    5E76H     01EBH     UNIT         ?PR?_ARMAR_TRAMA_TARJETA_SECTOR1_BLOQUE2?VERIFICADOR
            CODE    6061H     01DFH     UNIT         ?PR?_RESPONDE_LECTURA_TARJETA_SECTOR1_BLOQUE1?VERIFICADOR
            CODE    6240H     01D8H     UNIT         ?PR?_BLOCK_READ_CLOCK_ASCII_RASBERRY?CLOCK
            CODE    6418H     01B3H     UNIT         ?PR?COM_ISR?UART
            CODE    65CBH     01A4H     UNIT         ?PR?_VALIDA_TIPO_TARJETA?VERIFICADOR
            CODE    676FH     01A3H     UNIT         ?CO?LINTECH
            CODE    6912H     016EH     UNIT         ?PR?_BLOCK_READ_CLOCK_ASCII?CLOCK
            CODE    6A80H     0166H     UNIT         ?PR?_POW?POW
            CODE    6BE6H     0157H     UNIT         ?PR?_RESPONDE_REELECTURA_TARJETA_SECTOR1_BLOQUE2?VERIFICADOR
            CODE    6D3DH     0145H     UNIT         ?PR?PROG_HORARIOS?PROG
            CODE    6E82H     013EH     UNIT         ?PR?PROG_SIN_COBRO?PROG
            CODE    6FC0H     013EH     UNIT         ?PR?SECUENCIA_INICIO_EXPEDIDOR?VERIFICADOR
            CODE    70FEH     013CH     UNIT         ?PR?LOAD_AND_SEND_ID_COD?PTO_PARALELO
            CODE    723AH     0137H     UNIT         ?PR?VER_HORARIO?PROG
            CODE    7371H     012EH     UNIT         ?PR?_ARMAR_TRAMA_PTO_PARALELO_EXPEDIDOR_MENSUAL?VERIFICADOR
            CODE    749FH     012BH     UNIT         ?PR?_RESPONDE_LECTURA_TARJETA_SECTOR1_BLOQUE2?VERIFICADOR
            CODE    75CAH     0129H     UNIT         ?PR?LOG?LOG
            CODE    76F3H     0128H     UNIT         ?PR?_VER_HORARIO_DIAS?PROG
            CODE    781BH     011AH     UNIT         ?PR?_PROG_HORARIOS_ON_OFF?PROG
            CODE    7935H     0119H     UNIT         ?PR?_VER_HORARIO_DESDE_HASTA?PROG
            CODE    7A4EH     0115H     UNIT         ?PR?_VALIDAR_CLK?CLOCK
            CODE    7B63H     010FH     UNIT         ?PR?_HORARIOS?VERIFICADOR
            CODE    7C72H     010CH     UNIT         ?PR?_ATOL?ATOL
            CODE    7D7EH     0100H     UNIT         ?PR?_WR_MF?LINTECH
            CODE    7E7EH     00FCH     UNIT         ?PR?PROG_DEBUG?PROG
            CODE    7F7AH     00FCH     UNIT         ?PR?PROG_USE_LPR?PROG
            CODE    8076H     00FCH     UNIT         ?PR?TIPO_PANTALLA?PROG
            CODE    8172H     00FCH     UNIT         ?PR?PROG_ANTIPASSBACK?PROG
            CODE    826EH     00FCH     UNIT         ?PR?PROG_PLACA?PROG
            CODE    836AH     00FCH     UNIT         ?PR?PROG_VALIDAR_TIPO_VEHICULO_MENSUAL?PROG
            CODE    8466H     00FCH     UNIT         ?PR?PROG_APB_MENSUAL?PROG
            CODE    8562H     00FCH     UNIT         ?PR?PROG_MENSUALES?PROG
            CODE    865EH     00FCH     UNIT         ?PR?_BLOQUE_HORARIO?VERIFICADOR
            CODE    875AH     00F1H     UNIT         ?PR?_WRITE_EEPROM_TICKET?EEPROM
            CODE    884BH     00F0H     UNIT         ?CO?IO_SENSORES
BL51 BANKED LINKER/LOCATER V6.22.2.0                                                  06/23/2021  14:18:03  PAGE 4


            CODE    893BH     00EAH     UNIT         ?PR?_MOV_CARD?LINTECH
            CODE    8A25H     00E4H     UNIT         ?PR?_STRTOK?STRTOK
            CODE    8B09H     00DEH     UNIT         ?PR?PROG_ADDRESS_HIGH_BOARD?PROG
            CODE    8BE7H     00DBH     UNIT         ?PR?_ATOI?ATOI
            CODE    8CC2H     00D7H     UNIT         ?PR?_ANALIZA_UID_CARD?VERIFICADOR
            CODE    8D99H     00D6H     UNIT         ?C_INITSEG
            CODE    8E6FH     00D6H     UNIT         ?PR?_CMD_LPR_SALIDA_WIEGAND?ACCESCAN
            CODE    8F45H     00CCH     UNIT         ?PR?_GRABA_SERIE?EEPROM
            CODE    9011H     00CBH     UNIT         ?PR?_RTA_CMD_TRANSPORTE?VERIFICADOR
            CODE    90DCH     00CAH     UNIT         ?PR?READ_EEPROM_TICKET?EEPROM
            CODE    91A6H     00C9H     UNIT         ?PR?_CHECK_FECHAOUT?CLOCK
            CODE    926FH     00C4H     UNIT         ?PR?_BLOCK_READ_CLOCK?CLOCK
            CODE    9333H     00C4H     UNIT         ?PR?_TARJETA_MENSUAL?VERIFICADOR
            CODE    93F7H     00C3H     UNIT         ?PR?_RD_MF?LINTECH
            CODE    94BAH     00C2H     UNIT         ?PR?PROG_TARJETA_AUTOMATICA_O_BOTON?PROG
            CODE    957CH     00C1H     UNIT         ?PR?_RECIBE_CMD_MONITOR?MONITOR
            CODE    963DH     00BEH     UNIT         ?PR?ERROR_RX_PTO?VERIFICADOR
            CODE    96FBH     00BDH     UNIT         ?PR?PROG_COD_PARK?PROG
            CODE    97B8H     00BDH     UNIT         ?PR?PROG_TIEMPO_GRACIA?PROG
            CODE    9875H     00BBH     UNIT         ?PR?_VALIDA_TRAMA_MONITOR?MONITOR
            CODE    9930H     00B9H     UNIT         ?CO?TIBBO
            CODE    99E9H     00B6H     UNIT         ?PR?PROG_ID_CLIENTE?PROG
            CODE    9A9FH     00B5H     UNIT         ?PR?_WAIT_PLACA?VERIFICADOR
            CODE    9B54H     00B4H     UNIT         ?PR?_SEND_PORT?PTO_PARALELO
            CODE    9C08H     00AFH     UNIT         ?PR?MSJ_LCD_INFORMATIVO?IO_SENSORES
            CODE    9CB7H     00ACH     UNIT         ?PR?_HORA_MAXIMA?VERIFICADOR
            CODE    9D63H     00AAH     UNIT         ?PR?CLAVE_SEGURIDAD_S2?LINTECH
            CODE    9E0DH     00A9H     UNIT         ?PR?DWLOAD_EEPROM?LINTECH
            CODE    9EB6H     00A6H     UNIT         ?PR?_BLOCK_READ_CLOCK_HEX?CLOCK
            CODE    9F5CH     00A5H     UNIT         ?PR?_SEND_PTO_PARALELO?VERIFICADOR
            CODE    A001H     00A4H     UNIT         ?PR?_ARMAR_TRAMA_TARJETA_SECTOR1_BLOQUE1_CAMCEL?VERIFICADOR
            CODE    A0A5H     00A2H     UNIT         ?PR?SHOW?PROG
            CODE    A147H     00A1H     UNIT         ?PR?_BLOCK_WRITE_CLOCK_ASCII?CLOCK
            CODE    A1E8H     009DH     UNIT         ?PR?_INICIALIZA?LINTECH
            CODE    A285H     009CH     UNIT         ?PR?_RESPUESTA_PLACA_CANCEL?VERIFICADOR
            CODE    A321H     009AH     UNIT         ?PR?_RESPONDE_LECTURA_TARJETA_SECTOR1_BLOQUE0?VERIFICADOR
            CODE    A3BBH     009AH     UNIT         ?PR?EXP?EXP
            CODE    A455H     0099H     UNIT         ?PR?_RECIBE_PORT?PTO_PARALELO
            CODE    A4EEH     0098H     UNIT         ?PR?_VALIDA_VEHICULO_CARD_MENSUAL?VERIFICADOR
            CODE    A586H     0091H     UNIT         ?PR?_HEX_ASCII?CLOCK
            CODE    A617H     0091H     UNIT         ?PR?_CARD_INSERCION?LINTECH
            CODE    A6A8H     0090H     UNIT         ?PR?_LEE_CLK?CLOCK
            CODE    A738H     0090H     UNIT         ?PR?_GETOPTION?PROG
            CODE    A7C8H     0090H     UNIT         ?PR?_DISPARO_LOCK_ENTRADA_VEHICULO?VERIFICADOR
            CODE    A858H     0090H     UNIT         ?PR?ENTREGA_CARD_CAPTURA?VERIFICADOR
            CODE    A8E8H     008DH     UNIT         ?PR?LOADVERIFY_EEPROM?LINTECH
            CODE    A975H     008CH     UNIT         ?C_C51STARTUP
            CODE    AA01H     0088H     UNIT         ?PR?_SEND_PORTERR?PTO_PARALELO
            CODE    AA89H     0088H     UNIT         ?PR?RX_DATA?TIBBO
            CODE    AB11H     0088H     UNIT         ?PR?UNIQUE_IDENTIFIER_UID?LINTECH
            CODE    AB99H     0086H     UNIT         ?PR?_CHECK_STATUS?LINTECH
            CODE    AC1FH     0084H     UNIT         ?PR?_DEBUGBUFFERMF?TIBBO
            CODE    ACA3H     0084H     UNIT         ?PR?_STRSPN?STRSPN
            CODE    AD27H     0083H     UNIT         ?PR?_RASPBERRY_DATA?PANTALLAS
            CODE    ADAAH     0081H     UNIT         ?PR?_STRPBRK?STRPBRK
            CODE    AE2BH     0080H     UNIT         ?PR?_INGRESADATO?PROG
            CODE    AEABH     0080H     UNIT         ?PR?AUT_CARD_CHECK_STATUS?LINTECH
BL51 BANKED LINKER/LOCATER V6.22.2.0                                                  06/23/2021  14:18:03  PAGE 5


            CODE    AF2BH     0080H     UNIT         ?PR?POWER_OFF?LINTECH
            CODE    AFABH     007FH     UNIT         ?PR?MAIN?MAIN
            CODE    B02AH     007DH     UNIT         ?PR?RELOJ_PANTALLA_LCD?PANTALLAS
            CODE    B0A7H     007CH     UNIT         ?PR?RESPONDE_ESTADO_SENSORES_TRANSPORTE?VERIFICADOR
            CODE    B123H     0077H     UNIT         ?PR?RESPONDE_TIPO_TARJETA?VERIFICADOR
            CODE    B19AH     0074H     UNIT         ?PR?_HORA_ENTRADA_VEHICULO?CLOCK
            CODE    B20EH     0071H     UNIT         ?PR?_EN_HORARIO?VERIFICADOR
            CODE    B27FH     006FH     UNIT         ?PR?_ESCRIBIRMEMORIA?EEPROM
            CODE    B2EEH     006CH     UNIT         ?PR?_RESPONDE_WRITE_TARJETA_SECTOR1_BLOQUE2?VERIFICADOR
            CODE    B35AH     006BH     UNIT         ?PR?INGRESO_VEHICULO?VERIFICADOR
            CODE    B3C5H     006BH     UNIT         ?PR?_STRCAT?STRCAT
            CODE    B430H     0066H     UNIT         ?PR?_LEERMEMORIA?EEPROM
            CODE    B496H     0062H     UNIT         ?PR?_LISTACOMANDOS?PROG
            CODE    B4F8H     005EH     UNIT         ?PR?_BYTEHEX_DECIMAL?CLOCK
            CODE    B556H     005DH     UNIT         ?PR?_RESPUESTA_SEGUNDA_CLAVE?VERIFICADOR
            CODE    B5B3H     005CH     UNIT         ?PR?_ARMAR_TRAMA_PLACA?VERIFICADOR
            CODE    B60FH     005BH     UNIT         ?PR?VALIDA_SENSOR1_AUTO?IO_SENSORES
            CODE    B66AH     0056H     UNIT         ?PR?_WR_EEPROM?EEPROM
            CODE    B6C0H     0054H     UNIT         ?PR?_PREGUNTA_LPR?VERIFICADOR
            CODE    B714H     004DH     UNIT         ?PR?VARIABLE_INICIO?MAIN
            CODE    B761H     004DH     UNIT         ?PR?L_D_M?EEPROM
            CODE    B7AEH     004CH     UNIT         ?PR?LEE_NO_TICKET?EEPROM
            CODE    B7FAH     004CH     UNIT         ?PR?LOAD_AND_SEND_INFO_RELOJ?PTO_PARALELO
            CODE    B846H     004BH     UNIT         ?PR?_TX_AUX?TIBBO
            CODE    B891H     0049H     UNIT         ?PR?_DEBUG_TXT_TIBBO?TIBBO
            CODE    B8DAH     0048H     UNIT         ?PR?FIRST_CLAVE?PROG
            CODE    B922H     0047H     UNIT         ?PR?_DEBUG_CHR_TIBBO?TIBBO
            CODE    B969H     0047H     UNIT         ?PR?_RESPONDE_WRITE_TARJETA_SECTOR2_BLOQUE0?VERIFICADOR
            CODE    B9B0H     0046H     UNIT         ?PR?_ESCRIBIRCADENASOFT_BUFFER?MAIN
            CODE    B9F6H     0046H     UNIT         ?PR?_LCD_TXT_NUM_CHAR?PANTALLAS
            CODE    BA3CH     0046H     UNIT         ?PR?_DEBUG_HEXDEC?TIBBO
            CODE    BA82H     0044H     UNIT         ?PR?_LCD_TXT?PANTALLAS
            CODE    BAC6H     0043H     UNIT         ?PR?DIR_BOARD?IO_SENSORES
            CODE    BB09H     0042H     UNIT         ?PR?_VALIDARCLAVE?PROG
            CODE    BB4BH     0041H     UNIT         ?PR?_MONITOR_CHR?ACCESCAN
            CODE    BB8CH     0041H     UNIT         ?PR?_TWO_ONE?CLOCK
            CODE    BBCDH     0040H     UNIT         ?PR?_GETCMD?PROG
            CODE    BC0DH     0040H     UNIT         ?PR?_DEBUG_PTO_PARALELO?TIBBO
            CODE    BC4DH     003FH     UNIT         ?PR?_EB_CLK?CLOCK
            CODE    BC8CH     003EH     UNIT         ?PR?_PUTCHAR?MAIN
            CODE    BCCAH     003EH     UNIT         ?PR?TRAMA_VALIDACION_P_N?VERIFICADOR
            CODE    BD08H     003DH     UNIT         ?PR?_HEX_BCD?CLOCK
            CODE    BD45H     003DH     UNIT         ?PR?_RD_EEPROM?EEPROM
            CODE    BD82H     003DH     UNIT         ?PR?_DEBUG_MONITOR?TIBBO
            CODE    BDBFH     003DH     UNIT         ?PR?_LOAD_SECUENCIA_EXPEDIDOR?VERIFICADOR
            CODE    BDFCH     003BH     UNIT         ?CO?ACCESCAN
            CODE    BE37H     003BH     UNIT         ?CO?EEPROM
            CODE    BE72H     003BH     UNIT         ?PR?_COM_PUTCHAR?UART
            CODE    BEADH     003AH     UNIT         ?PR?_DELAY_10MS?DELAY
            CODE    BEE7H     003AH     UNIT         ?PR?ANALIZA_CARD_MOUNT_RF?VERIFICADOR
            CODE    BF21H     0038H     UNIT         ?PR?VALIDASENSORESPASO?IO_SENSORES
            CODE    BF59H     0036H     UNIT         ?PR?FORMATO_EEPROM?EEPROM
            CODE    BF8FH     0036H     UNIT         ?PR?_RESPONDE_WRITE_TARJETA_SECTOR1_BLOQUE1?VERIFICADOR
            CODE    BFC5H     0036H     UNIT         ?PR?_RESPONDE_WRITE_TARJETA_SECTOR1_BLOQUE0?VERIFICADOR
            CODE    BFFBH     0034H     UNIT         ?PR?INCREMENTE_TICKET?EEPROM
            CODE    C02FH     0034H     UNIT         ?PR?ADDR_HORARIOS?PROG
            CODE    C063H     0034H     UNIT         ?PR?ANALIZA_PRESENCIA_MENSUAL?VERIFICADOR
BL51 BANKED LINKER/LOCATER V6.22.2.0                                                  06/23/2021  14:18:03  PAGE 6


            CODE    C097H     0031H     UNIT         ?PR?_TARJETA_ROTACION?VERIFICADOR
            CODE    C0C8H     0030H     UNIT         ?PR?PREGUNTA_PLACA?VERIFICADOR
            CODE    C0F8H     002EH     UNIT         ?PR?TIMER0_INT?MAIN
            CODE    C126H     002AH     UNIT         ?PR?COM_INITIALIZE?UART
            CODE    C150H     0028H     UNIT         ?PR?_WR_CLK?CLOCK
            CODE    C178H     0028H     UNIT         ?PR?COM_BAUDRATE?UART
            CODE    C1A0H     0028H     UNIT         ?PR?_ARMAR_TRAMA_TARJETA_SECTOR1_BLOQUE0?VERIFICADOR
            CODE    C1C8H     0027H     UNIT         ?PR?_TX_CHRLCD?PANTALLAS
            CODE    C1EFH     0026H     UNIT         ?PR?COM_GETCHAR?UART
            CODE    C215H     0026H     UNIT         ?PR?RX_MONITOR?MONITOR
            CODE    C23BH     0023H     UNIT         ?PR?ANALIZA_PRESENCIA_ROTACION?VERIFICADOR
            CODE    C25EH     0022H     UNIT         ?PR?_E_D_M?EEPROM
            CODE    C280H     0022H     UNIT         ?PR?VALIDASENSOR_CERO?IO_SENSORES
            CODE    C2A2H     0021H     UNIT         ?CO?PTO_PARALELO
            CODE    C2C3H     0020H     UNIT         ?PR?ACKD?EEPROM
            CODE    C2E3H     0020H     UNIT         ?PR?ACK_LECT?EEPROM
            CODE    C303H     001FH     UNIT         ?PR?VALIDASENSOR?IO_SENSORES
            CODE    C322H     001FH     UNIT         ?PR?TIME_BIT?TIBBO
            CODE    C341H     001EH     UNIT         ?PR?_BCD_HEX?CLOCK
            CODE    C35FH     001BH     UNIT         ?PR?_DELAY_1MS?DELAY
            CODE    C37AH     0018H     UNIT         ?PR?CLEAR_PLACA?MONITOR
            CODE    C392H     0017H     UNIT         ?PR?DISPLAYCURSOR?PROG
            CODE    C3A9H     0017H     UNIT         ?PR?TIME_MBIT?TIBBO
            CODE    C3C0H     0016H     UNIT         ?PR?DIR_BOARD_MONITOR?IO_SENSORES
            CODE    C3D6H     0014H     UNIT         ?CO?CLOCK
            CODE    C3EAH     0014H     UNIT         ?PR?_ISSPACE?ISSPACE
            CODE    C3FEH     0012H     UNIT         ?PR?_DELAY_20US?DELAY
            CODE    C410H     0012H     UNIT         ?PR?START?EEPROM
            CODE    C422H     0012H     UNIT         ?PR?BOTTON?IO_SENSORES
            CODE    C434H     0012H     UNIT         ?PR?PULSO_BUS?PTO_PARALELO
            CODE    C446H     0012H     UNIT         ?PR?COM_RBUFLEN?UART
            CODE    C458H     0012H     UNIT         ?PR?COM_TBUFLEN?UART
            CODE    C46AH     0010H     UNIT         ?PR?INI_TIMER?MAIN
            CODE    C47AH     0010H     UNIT         ?PR?INICIA_BOARD?MAIN
            CODE    C48AH     000FH     UNIT         ?PR?_ISDIGIT?ISDIGIT
            CODE    C499H     000CH     UNIT         ?PR?_GETKEY?MAIN
            CODE    C4A5H     000AH     UNIT         ?PR?STOP?EEPROM
            CODE    C4AFH     000AH     UNIT         ?PR?COND_INI_PTO?PTO_PARALELO
            CODE    C4B9H     0009H     UNIT         ?PR?DEBUG_DIVIDIR_TEXTO?TIBBO
            CODE    C4C2H     0009H     UNIT         ?PR?CAPTURA_EXPULSA?VERIFICADOR
            CODE    C4CBH     0007H     UNIT         ?PR?COND_INI_CLOCK?CLOCK
            CODE    C4D2H     0007H     UNIT         ?PR?SEL_FUNCION?IO_SENSORES
            CODE    C4D9H     0007H     UNIT         ?PR?SEL_AUTO?IO_SENSORES
            CODE    C4E0H     0007H     UNIT         ?PR?SEL_PULSA?IO_SENSORES
            CODE    C4E7H     0007H     UNIT         ?PR?SEL_SENSOR2?IO_SENSORES
            CODE    C4EEH     0007H     UNIT         ?PR?SEL_SENSOR1?IO_SENSORES
            CODE    C4F5H     0007H     UNIT         ?PR?SEL_DIR1?IO_SENSORES
            CODE    C4FCH     0007H     UNIT         ?PR?SEL_DIR2?IO_SENSORES
            CODE    C503H     0006H     UNIT         ?PR?P_ME?EEPROM
            CODE    C509H     0005H     UNIT         ?PR?ON_TIMER0_INTERRUP?MAIN
            CODE    C50EH     0005H     UNIT         ?PR?COND_INI_TIBBO?TIBBO
            CODE    C513H     0003H     UNIT         ?PR?OFF_TIMER0_INTERRUP?MAIN
            CODE    C516H     0001H     UNIT         ?PR?DELAY?DELAY



OVERLAY MAP OF MODULE:   .\Objects\expedidor_v_01_raspberry (MAIN)
BL51 BANKED LINKER/LOCATER V6.22.2.0                                                  06/23/2021  14:18:03  PAGE 7




SEGMENT                                             BIT_GROUP          DATA_GROUP          XDATA_GROUP
  +--> CALLED SEGMENT                            START    LENGTH     START    LENGTH     START    LENGTH
--------------------------------------------------------------------------------------------------------
?C_C51STARTUP                                    -----    -----      -----    -----      -----    -----
  +--> ?PR?MAIN?MAIN
  +--> ?C_INITSEG

?PR?MAIN?MAIN                                    -----    -----      -----    -----      0000H    0001H
  +--> ?PR?INI_TIMER?MAIN
  +--> ?PR?ON_TIMER0_INTERRUP?MAIN
  +--> ?PR?COM_INITIALIZE?UART
  +--> ?PR?COM_BAUDRATE?UART
  +--> ?PR?INICIA_BOARD?MAIN
  +--> ?PR?TIME_BIT?TIBBO
  +--> ?PR?_DELAY_20US?DELAY
  +--> ?PR?TIME_MBIT?TIBBO
  +--> ?PR?_TX_AUX?TIBBO
  +--> ?PR?SEL_FUNCION?IO_SENSORES
  +--> ?PR?MENU?PROG
  +--> ?PR?VARIABLE_INICIO?MAIN
  +--> ?PR?SECUENCIA_INICIO_EXPEDIDOR?VERIFI...
  +--> ?PR?RX_MONITOR?MONITOR
  +--> ?PR?_SECUENCIAEXPEDIDORMF?VERIFICADOR
  +--> ?PR?_RECIBE_PORT?PTO_PARALELO
  +--> ?PR?_DEBUG_PTO_PARALELO?TIBBO
  +--> ?PR?_VALIDA_TRAMA_PTO?ACCESCAN
  +--> ?PR?MSJ_LCD_INFORMATIVO?IO_SENSORES

?PR?COM_INITIALIZE?UART                          -----    -----      -----    -----      -----    -----
  +--> ?PR?COM_BAUDRATE?UART

?PR?INICIA_BOARD?MAIN                            -----    -----      -----    -----      -----    -----
  +--> ?PR?COND_INI_TIBBO?TIBBO
  +--> ?PR?COND_INI_CLOCK?CLOCK
  +--> ?PR?COND_INI_PTO?PTO_PARALELO

?PR?_TX_AUX?TIBBO                                -----    -----      -----    -----      -----    -----
  +--> ?PR?TIME_BIT?TIBBO

?PR?MENU?PROG                                    -----    -----      -----    -----      0001H    0045H
  +--> ?CO?PROG
  +--> ?PR?PRINTF?PRINTF
  +--> ?PR?_RD_EEPROM?EEPROM
  +--> ?PR?FIRST_CLAVE?PROG
  +--> ?PR?_WR_EEPROM?EEPROM
  +--> ?PR?_LEERMEMORIA?EEPROM
  +--> ?PR?_HASH_ID?PROG
  +--> ?PR?_INGRESADATO?PROG
  +--> ?PR?_GETCMD?PROG
  +--> ?PR?_ESCRIBIRMEMORIA?EEPROM
  +--> ?PR?_VALIDARCLAVE?PROG
  +--> ?PR?DISPLAYCURSOR?PROG
  +--> ?PR?_STRLEN?STRLEN
  +--> ?PR?_GETOPTION?PROG
  +--> ?PR?_STRCAT?STRCAT
BL51 BANKED LINKER/LOCATER V6.22.2.0                                                  06/23/2021  14:18:03  PAGE 8


  +--> ?PR?_LISTACOMANDOS?PROG
  +--> ?PR?PROG_ID_CLIENTE?PROG
  +--> ?PR?PROG_COD_PARK?PROG
  +--> ?PR?PROG_TIEMPO_GRACIA?PROG
  +--> ?PR?PROG_SIN_COBRO?PROG
  +--> ?PR?PROG_DEBUG?PROG
  +--> ?PR?PROG_USE_LPR?PROG
  +--> ?PR?TIPO_PANTALLA?PROG
  +--> ?PR?PROG_TARJETA_AUTOMATICA_O_BOTON?PROG
  +--> ?PR?PROG_ANTIPASSBACK?PROG
  +--> ?PR?PROG_PLACA?PROG
  +--> ?PR?PROG_ADDRESS_HIGH_BOARD?PROG
  +--> ?PR?PROG_HORARIOS?PROG
  +--> ?PR?PROG_VALIDAR_TIPO_VEHICULO_MENSUA...
  +--> ?PR?PROG_APB_MENSUAL?PROG
  +--> ?PR?PROG_MENSUALES?PROG
  +--> ?PR?VER_PROG?PROG
  +--> ?PR?SHOW?PROG
  +--> ?PR?PROG_FECHA_VENCIMIENTO?PROG

?PR?PRINTF?PRINTF                                0020H.0  0001H.1    0008H    0005H      0077H    0030H
  +--> ?PR?_PUTCHAR?MAIN

?PR?_PUTCHAR?MAIN                                -----    -----      -----    -----      00A7H    0003H
  +--> ?PR?_COM_PUTCHAR?UART

?PR?_COM_PUTCHAR?UART                            -----    -----      -----    -----      00AAH    0001H
  +--> ?PR?COM_TBUFLEN?UART

?PR?_RD_EEPROM?EEPROM                            -----    -----      -----    -----      -----    -----
  +--> ?PR?START?EEPROM
  +--> ?PR?ACK_LECT?EEPROM
  +--> ?PR?_E_D_M?EEPROM
  +--> ?PR?ACKD?EEPROM
  +--> ?PR?L_D_M?EEPROM
  +--> ?PR?STOP?EEPROM

?PR?ACK_LECT?EEPROM                              -----    -----      -----    -----      -----    -----
  +--> ?PR?_E_D_M?EEPROM

?PR?_E_D_M?EEPROM                                -----    -----      -----    -----      -----    -----
  +--> ?PR?P_ME?EEPROM

?PR?ACKD?EEPROM                                  -----    -----      -----    -----      -----    -----
  +--> ?PR?_E_D_M?EEPROM

?PR?FIRST_CLAVE?PROG                             -----    -----      -----    -----      0046H    000BH
  +--> ?PR?_BLOCK_READ_CLOCK_ASCII?CLOCK
  +--> ?PR?_HASH_ID?PROG
  +--> ?PR?_ESCRIBIRMEMORIA?EEPROM

?PR?_BLOCK_READ_CLOCK_ASCII?CLOCK                -----    -----      -----    -----      0051H    0003H
  +--> ?PR?_LEE_CLK?CLOCK

?PR?_LEE_CLK?CLOCK                               -----    -----      -----    -----      00B1H    0003H
  +--> ?PR?_DELAY_20US?DELAY
  +--> ?PR?_EB_CLK?CLOCK
BL51 BANKED LINKER/LOCATER V6.22.2.0                                                  06/23/2021  14:18:03  PAGE 9


  +--> ?PR?P_CK?CLOCK

?PR?_EB_CLK?CLOCK                                -----    -----      -----    -----      00B4H    0003H
  +--> ?PR?P_CK?CLOCK

?PR?P_CK?CLOCK                                   -----    -----      -----    -----      -----    -----
  +--> ?PR?DELAY?DELAY

?PR?_HASH_ID?PROG                                -----    -----      -----    -----      005DH    003FH
  +--> ?CO?PROG
  +--> ?PR?_LEERMEMORIA?EEPROM
  +--> ?PR?_CHECK_FECHAOUT?CLOCK
  +--> ?PR?_STRLEN?STRLEN

?PR?_LEERMEMORIA?EEPROM                          -----    -----      -----    -----      009CH    0005H
  +--> ?PR?_RD_EEPROM?EEPROM

?PR?_CHECK_FECHAOUT?CLOCK                        -----    -----      -----    -----      009CH    0012H
  +--> ?PR?_BLOCK_READ_CLOCK_HEX?CLOCK

?PR?_BLOCK_READ_CLOCK_HEX?CLOCK                  -----    -----      -----    -----      00AEH    0003H
  +--> ?PR?_LEE_CLK?CLOCK
  +--> ?PR?_BCD_HEX?CLOCK

?PR?_ESCRIBIRMEMORIA?EEPROM                      -----    -----      -----    -----      005DH    0005H
  +--> ?PR?_WR_EEPROM?EEPROM

?PR?_WR_EEPROM?EEPROM                            -----    -----      -----    -----      -----    -----
  +--> ?PR?START?EEPROM
  +--> ?PR?ACKD?EEPROM
  +--> ?PR?_E_D_M?EEPROM
  +--> ?PR?STOP?EEPROM
  +--> ?PR?_DELAY_1MS?DELAY
  +--> ?PR?_DELAY_20US?DELAY

?PR?_DELAY_1MS?DELAY                             -----    -----      -----    -----      -----    -----
  +--> ?PR?_DELAY_20US?DELAY

?PR?_INGRESADATO?PROG                            -----    -----      -----    -----      0071H    0004H
  +--> ?PR?_GETKEY?MAIN
  +--> ?CO?PROG
  +--> ?PR?PRINTF?PRINTF
  +--> ?PR?_PUTCHAR?MAIN

?PR?_GETKEY?MAIN                                 -----    -----      -----    -----      -----    -----
  +--> ?PR?COM_GETCHAR?UART

?PR?COM_GETCHAR?UART                             -----    -----      -----    -----      -----    -----
  +--> ?PR?COM_RBUFLEN?UART

?PR?_GETCMD?PROG                                 -----    -----      -----    -----      005DH    0007H
  +--> ?CO?PROG
  +--> ?PR?_STRTOK?STRTOK

?PR?_STRTOK?STRTOK                               -----    -----      -----    -----      0064H    0006H
  +--> ?PR?_STRSPN?STRSPN
  +--> ?PR?_STRPBRK?STRPBRK
BL51 BANKED LINKER/LOCATER V6.22.2.0                                                  06/23/2021  14:18:03  PAGE 10



?PR?_STRSPN?STRSPN                               -----    -----      -----    -----      006AH    0008H

?PR?_STRPBRK?STRPBRK                             -----    -----      -----    -----      006AH    0009H

?PR?_VALIDARCLAVE?PROG                           -----    -----      -----    -----      005DH    000EH

?PR?DISPLAYCURSOR?PROG                           -----    -----      -----    -----      -----    -----
  +--> ?CO?PROG
  +--> ?PR?PRINTF?PRINTF

?PR?_GETOPTION?PROG                              -----    -----      -----    -----      0046H    000BH
  +--> ?CO?PROG
  +--> ?PR?_STRTOK?STRTOK

?PR?_STRCAT?STRCAT                               -----    -----      -----    -----      0046H    0009H

?PR?_LISTACOMANDOS?PROG                          -----    -----      -----    -----      0046H    0007H

?PR?PROG_ID_CLIENTE?PROG                         -----    -----      -----    -----      0046H    000CH
  +--> ?PR?_RD_EEPROM?EEPROM
  +--> ?CO?PROG
  +--> ?PR?PRINTF?PRINTF
  +--> ?PR?_INGRESADATO?PROG
  +--> ?PR?_ATOI?ATOI
  +--> ?PR?_WR_EEPROM?EEPROM

?PR?_ATOI?ATOI                                   0020H.0  0000H.1    -----    -----      0071H    0005H
  +--> ?PR?_ISSPACE?ISSPACE
  +--> ?PR?_ISDIGIT?ISDIGIT

?PR?PROG_COD_PARK?PROG                           -----    -----      -----    -----      0046H    000CH
  +--> ?PR?_RD_EEPROM?EEPROM
  +--> ?CO?PROG
  +--> ?PR?PRINTF?PRINTF
  +--> ?PR?_INGRESADATO?PROG
  +--> ?PR?_ATOI?ATOI
  +--> ?PR?_WR_EEPROM?EEPROM

?PR?PROG_TIEMPO_GRACIA?PROG                      -----    -----      -----    -----      0046H    000CH
  +--> ?PR?_RD_EEPROM?EEPROM
  +--> ?CO?PROG
  +--> ?PR?PRINTF?PRINTF
  +--> ?PR?_INGRESADATO?PROG
  +--> ?PR?_ATOI?ATOI
  +--> ?PR?_WR_EEPROM?EEPROM

?PR?PROG_SIN_COBRO?PROG                          -----    -----      -----    -----      0046H    000CH
  +--> ?PR?_RD_EEPROM?EEPROM
  +--> ?CO?PROG
  +--> ?PR?PRINTF?PRINTF
  +--> ?PR?_INGRESADATO?PROG
  +--> ?PR?_ATOI?ATOI
  +--> ?PR?_WR_EEPROM?EEPROM

?PR?PROG_DEBUG?PROG                              -----    -----      -----    -----      0046H    000CH
  +--> ?PR?_RD_EEPROM?EEPROM
BL51 BANKED LINKER/LOCATER V6.22.2.0                                                  06/23/2021  14:18:03  PAGE 11


  +--> ?CO?PROG
  +--> ?PR?PRINTF?PRINTF
  +--> ?PR?_INGRESADATO?PROG
  +--> ?PR?_ATOI?ATOI
  +--> ?PR?_WR_EEPROM?EEPROM

?PR?PROG_USE_LPR?PROG                            -----    -----      -----    -----      0046H    000CH
  +--> ?PR?_RD_EEPROM?EEPROM
  +--> ?CO?PROG
  +--> ?PR?PRINTF?PRINTF
  +--> ?PR?_INGRESADATO?PROG
  +--> ?PR?_ATOI?ATOI
  +--> ?PR?_WR_EEPROM?EEPROM

?PR?TIPO_PANTALLA?PROG                           -----    -----      -----    -----      0046H    000CH
  +--> ?PR?_RD_EEPROM?EEPROM
  +--> ?CO?PROG
  +--> ?PR?PRINTF?PRINTF
  +--> ?PR?_INGRESADATO?PROG
  +--> ?PR?_ATOI?ATOI
  +--> ?PR?_WR_EEPROM?EEPROM

?PR?PROG_TARJETA_AUTOMATICA_O_BOTON?PROG         -----    -----      -----    -----      0046H    000CH
  +--> ?PR?_RD_EEPROM?EEPROM
  +--> ?CO?PROG
  +--> ?PR?PRINTF?PRINTF
  +--> ?PR?_INGRESADATO?PROG
  +--> ?PR?_ATOI?ATOI
  +--> ?PR?_WR_EEPROM?EEPROM

?PR?PROG_ANTIPASSBACK?PROG                       -----    -----      -----    -----      0046H    000CH
  +--> ?PR?_RD_EEPROM?EEPROM
  +--> ?CO?PROG
  +--> ?PR?PRINTF?PRINTF
  +--> ?PR?_INGRESADATO?PROG
  +--> ?PR?_ATOI?ATOI
  +--> ?PR?_WR_EEPROM?EEPROM

?PR?PROG_PLACA?PROG                              -----    -----      -----    -----      0046H    000CH
  +--> ?PR?_RD_EEPROM?EEPROM
  +--> ?CO?PROG
  +--> ?PR?PRINTF?PRINTF
  +--> ?PR?_INGRESADATO?PROG
  +--> ?PR?_ATOI?ATOI
  +--> ?PR?_WR_EEPROM?EEPROM

?PR?PROG_ADDRESS_HIGH_BOARD?PROG                 -----    -----      -----    -----      0046H    000CH
  +--> ?PR?_RD_EEPROM?EEPROM
  +--> ?CO?PROG
  +--> ?PR?PRINTF?PRINTF
  +--> ?PR?_INGRESADATO?PROG
  +--> ?PR?_ATOI?ATOI
  +--> ?PR?_WR_EEPROM?EEPROM

?PR?PROG_HORARIOS?PROG                           -----    -----      -----    -----      0046H    001BH
  +--> ?PR?ADDR_HORARIOS?PROG
  +--> ?CO?PROG
BL51 BANKED LINKER/LOCATER V6.22.2.0                                                  06/23/2021  14:18:03  PAGE 12


  +--> ?PR?PRINTF?PRINTF
  +--> ?PR?_INGRESADATO?PROG
  +--> ?PR?_ATOI?ATOI
  +--> ?PR?_PROG_HORARIOS_ON_OFF?PROG
  +--> ?PR?_WR_EEPROM?EEPROM
  +--> ?PR?_PROG_HORARIO_DIAS?PROG
  +--> ?PR?_PROG_HORARIO_DESDE_HASTA?PROG
  +--> ?PR?_RD_EEPROM?EEPROM

?PR?ADDR_HORARIOS?PROG                           -----    -----      -----    -----      0074H    000BH

?PR?_PROG_HORARIOS_ON_OFF?PROG                   -----    -----      -----    -----      0061H    0010H
  +--> ?PR?_RD_EEPROM?EEPROM
  +--> ?CO?PROG
  +--> ?PR?PRINTF?PRINTF
  +--> ?PR?_INGRESADATO?PROG
  +--> ?PR?_ATOI?ATOI
  +--> ?PR?_WR_EEPROM?EEPROM

?PR?_PROG_HORARIO_DIAS?PROG                      -----    -----      -----    -----      0061H    000FH
  +--> ?CO?PROG
  +--> ?PR?PRINTF?PRINTF
  +--> ?PR?_INGRESADATO?PROG
  +--> ?PR?_WR_EEPROM?EEPROM
  +--> ?PR?_RD_EEPROM?EEPROM

?PR?_PROG_HORARIO_DESDE_HASTA?PROG               -----    -----      -----    -----      0061H    000CH
  +--> ?CO?PROG
  +--> ?PR?PRINTF?PRINTF
  +--> ?PR?_INGRESADATO?PROG
  +--> ?PR?_WR_EEPROM?EEPROM
  +--> ?PR?_RD_EEPROM?EEPROM

?PR?PROG_VALIDAR_TIPO_VEHICULO_MENSUA...         -----    -----      -----    -----      0046H    000CH
  +--> ?PR?_RD_EEPROM?EEPROM
  +--> ?CO?PROG
  +--> ?PR?PRINTF?PRINTF
  +--> ?PR?_INGRESADATO?PROG
  +--> ?PR?_ATOI?ATOI
  +--> ?PR?_WR_EEPROM?EEPROM

?PR?PROG_APB_MENSUAL?PROG                        -----    -----      -----    -----      0046H    000CH
  +--> ?PR?_RD_EEPROM?EEPROM
  +--> ?CO?PROG
  +--> ?PR?PRINTF?PRINTF
  +--> ?PR?_INGRESADATO?PROG
  +--> ?PR?_ATOI?ATOI
  +--> ?PR?_WR_EEPROM?EEPROM

?PR?PROG_MENSUALES?PROG                          -----    -----      -----    -----      0046H    000CH
  +--> ?PR?_RD_EEPROM?EEPROM
  +--> ?CO?PROG
  +--> ?PR?PRINTF?PRINTF
  +--> ?PR?_INGRESADATO?PROG
  +--> ?PR?_ATOI?ATOI
  +--> ?PR?_WR_EEPROM?EEPROM

BL51 BANKED LINKER/LOCATER V6.22.2.0                                                  06/23/2021  14:18:03  PAGE 13


?PR?VER_PROG?PROG                                -----    -----      -----    -----      0046H    0013H
  +--> ?PR?_RD_EEPROM?EEPROM
  +--> ?CO?PROG
  +--> ?PR?PRINTF?PRINTF
  +--> ?PR?VER_HORARIO?PROG
  +--> ?PR?_LEERMEMORIA?EEPROM
  +--> ?PR?_HEX_ASCII?CLOCK
  +--> ?PR?LEE_NO_TICKET?EEPROM

?PR?VER_HORARIO?PROG                             -----    -----      -----    -----      0059H    001BH
  +--> ?PR?ADDR_HORARIOS?PROG
  +--> ?CO?PROG
  +--> ?PR?PRINTF?PRINTF
  +--> ?PR?_RD_EEPROM?EEPROM
  +--> ?PR?_VER_HORARIO_DIAS?PROG
  +--> ?PR?_VER_HORARIO_DESDE_HASTA?PROG

?PR?_VER_HORARIO_DIAS?PROG                       -----    -----      -----    -----      0074H    0003H
  +--> ?PR?_RD_EEPROM?EEPROM
  +--> ?CO?PROG
  +--> ?PR?PRINTF?PRINTF

?PR?_VER_HORARIO_DESDE_HASTA?PROG                -----    -----      -----    -----      0074H    0002H
  +--> ?CO?PROG
  +--> ?PR?PRINTF?PRINTF
  +--> ?PR?_RD_EEPROM?EEPROM

?PR?_HEX_ASCII?CLOCK                             -----    -----      -----    -----      005DH    0006H
  +--> ?PR?_HEX_BCD?CLOCK

?PR?LEE_NO_TICKET?EEPROM                         -----    -----      -----    -----      0059H    000BH
  +--> ?PR?READ_EEPROM_TICKET?EEPROM
  +--> ?CO?EEPROM
  +--> ?PR?PRINTF?PRINTF
  +--> ?PR?_STRLEN?STRLEN
  +--> ?PR?_DEBUG_TXT_TIBBO?TIBBO

?PR?READ_EEPROM_TICKET?EEPROM                    -----    -----      -----    -----      0064H    0007H
  +--> ?PR?_RD_EEPROM?EEPROM

?PR?_DEBUG_TXT_TIBBO?TIBBO                       -----    -----      -----    -----      0064H    0004H
  +--> ?PR?_DEBUG_CHR_TIBBO?TIBBO
  +--> ?CO?TIBBO
  +--> ?PR?_TX_AUX?TIBBO

?PR?_DEBUG_CHR_TIBBO?TIBBO                       -----    -----      -----    -----      -----    -----
  +--> ?PR?_TX_AUX?TIBBO

?PR?SHOW?PROG                                    -----    -----      -----    -----      -----    -----
  +--> ?CO?PROG
  +--> ?PR?PRINTF?PRINTF

?PR?PROG_FECHA_VENCIMIENTO?PROG                  -----    -----      -----    -----      0046H    0017H
  +--> ?PR?_LEERMEMORIA?EEPROM
  +--> ?PR?_HEX_ASCII?CLOCK
  +--> ?CO?PROG
  +--> ?PR?PRINTF?PRINTF
BL51 BANKED LINKER/LOCATER V6.22.2.0                                                  06/23/2021  14:18:03  PAGE 14


  +--> ?PR?_HASH_ID?PROG
  +--> ?PR?_INGRESADATO?PROG
  +--> ?PR?_GETCMD?PROG
  +--> ?PR?_ESCRIBIRMEMORIA?EEPROM
  +--> ?PR?_VALIDARCLAVE?PROG
  +--> ?PR?_ATOI?ATOI
  +--> ?PR?_WR_EEPROM?EEPROM

?PR?VARIABLE_INICIO?MAIN                         -----    -----      -----    -----      -----    -----
  +--> ?PR?_RD_EEPROM?EEPROM

?PR?SECUENCIA_INICIO_EXPEDIDOR?VERIFI...         -----    -----      -----    -----      0001H    0001H
  +--> ?PR?_INICIALIZA?LINTECH
  +--> ?PR?TRAMA_VALIDACION_P_N?VERIFICADOR
  +--> ?CO?VERIFICADOR
  +--> ?PR?_DEBUG_TXT_TIBBO?TIBBO
  +--> ?PR?_DEBUGBUFFERMF?TIBBO
  +--> ?PR?DWLOAD_EEPROM?LINTECH

?PR?_INICIALIZA?LINTECH                          -----    -----      -----    -----      0002H    000CH
  +--> ?CO?LINTECH
  +--> ?PR?_DEBUG_TXT_TIBBO?TIBBO
  +--> ?PR?_DEBUGBUFFERMF?TIBBO
  +--> ?PR?_ESCRIBIRCADENASOFT_BUFFER?MAIN

?PR?_DEBUGBUFFERMF?TIBBO                         -----    -----      -----    -----      0027H    0006H
  +--> ?CO?TIBBO
  +--> ?PR?_DEBUG_TXT_TIBBO?TIBBO
  +--> ?PR?_DEBUG_CHR_TIBBO?TIBBO
  +--> ?PR?_TX_AUX?TIBBO

?PR?_ESCRIBIRCADENASOFT_BUFFER?MAIN              -----    -----      -----    -----      0027H    0006H
  +--> ?PR?_PUTCHAR?MAIN

?PR?TRAMA_VALIDACION_P_N?VERIFICADOR             -----    -----      -----    -----      -----    -----
  +--> ?CO?VERIFICADOR
  +--> ?PR?_DEBUG_TXT_TIBBO?TIBBO

?PR?DWLOAD_EEPROM?LINTECH                        -----    -----      -----    -----      0002H    0016H
  +--> ?CO?LINTECH
  +--> ?PR?_DEBUG_TXT_TIBBO?TIBBO
  +--> ?PR?_DEBUGBUFFERMF?TIBBO
  +--> ?PR?_ESCRIBIRCADENASOFT_BUFFER?MAIN

?PR?RX_MONITOR?MONITOR                           -----    -----      -----    -----      0009H    000DH
  +--> ?PR?_RECIBE_CMD_MONITOR?MONITOR
  +--> ?PR?_DEBUG_MONITOR?TIBBO
  +--> ?PR?_VALIDA_TRAMA_MONITOR?MONITOR

?PR?_RECIBE_CMD_MONITOR?MONITOR                  -----    -----      -----    -----      0016H    0009H
  +--> ?PR?RX_DATA?TIBBO

?PR?RX_DATA?TIBBO                                -----    -----      -----    -----      -----    -----
  +--> ?PR?TIME_MBIT?TIBBO
  +--> ?PR?TIME_BIT?TIBBO

?PR?_DEBUG_MONITOR?TIBBO                         -----    -----      -----    -----      0016H    0004H
BL51 BANKED LINKER/LOCATER V6.22.2.0                                                  06/23/2021  14:18:03  PAGE 15


  +--> ?PR?DEBUG_DIVIDIR_TEXTO?TIBBO
  +--> ?CO?TIBBO
  +--> ?PR?_DEBUG_TXT_TIBBO?TIBBO

?PR?DEBUG_DIVIDIR_TEXTO?TIBBO                    -----    -----      -----    -----      -----    -----
  +--> ?CO?TIBBO
  +--> ?PR?_DEBUG_TXT_TIBBO?TIBBO

?PR?_VALIDA_TRAMA_MONITOR?MONITOR                -----    -----      -----    -----      0016H    0006H
  +--> ?PR?_DELAY_10MS?DELAY
  +--> ?PR?_TX_AUX?TIBBO

?PR?_DELAY_10MS?DELAY                            -----    -----      -----    -----      001CH    0004H
  +--> ?PR?_DELAY_1MS?DELAY

?PR?_SECUENCIAEXPEDIDORMF?VERIFICADOR            -----    -----      -----    -----      0001H    0001H
  +--> ?PR?_CHECK_STATUS?LINTECH
  +--> ?PR?_LOAD_SECUENCIA_EXPEDIDOR?VERIFIC...
  +--> ?PR?RX_MONITOR?MONITOR
  +--> ?PR?_RTA_CMD_TRANSPORTE?VERIFICADOR
  +--> ?PR?_MOV_CARD?LINTECH
  +--> ?PR?_CARD_INSERCION?LINTECH
  +--> ?PR?AUT_CARD_CHECK_STATUS?LINTECH
  +--> ?PR?LOADVERIFY_EEPROM?LINTECH
  +--> ?PR?_RD_MF?LINTECH
  +--> ?PR?_WR_MF?LINTECH
  +--> ?PR?ANALIZA_CARD_MOUNT_RF?VERIFICADOR
  +--> ?PR?DWLOAD_EEPROM?LINTECH
  +--> ?PR?ENTREGA_CARD_CAPTURA?VERIFICADOR
  +--> ?PR?_SEND_PTO_PARALELO?VERIFICADOR
  +--> ?PR?_WAIT_PLACA?VERIFICADOR
  +--> ?PR?UNIQUE_IDENTIFIER_UID?LINTECH
  +--> ?PR?_PREGUNTA_LPR?VERIFICADOR
  +--> ?PR?PREGUNTA_PLACA?VERIFICADOR
  +--> ?PR?_VALIDA_TIPO_TARJETA?VERIFICADOR
  +--> ?PR?POWER_OFF?LINTECH
  +--> ?PR?CLAVE_SEGURIDAD_S2?LINTECH
  +--> ?PR?_RESPONDE_REELECTURA_TARJETA_SECT...
  +--> ?PR?RESPONDE_ESTADO_SENSORES_TRANSPOR...
  +--> ?PR?RESPONDE_TIPO_TARJETA?VERIFICADOR
  +--> ?PR?_RESPONDE_LECTURA_TARJETA_SECTOR1...
  +--> ?PR?_RESPONDE_LECTURA_TARJETA_SECTOR1...
  +--> ?PR?_RESPONDE_LECTURA_TARJETA_SECTOR1...
  +--> ?PR?_RESPONDE_WRITE_TARJETA_SECTOR1_B...
  +--> ?PR?_RESPONDE_WRITE_TARJETA_SECTOR2_B...
  +--> ?PR?_RESPONDE_WRITE_TARJETA_SECTOR1_B...
  +--> ?PR?_RESPONDE_WRITE_TARJETA_SECTOR1_B...
  +--> ?PR?_DISPARO_LOCK_ENTRADA_VEHICULO?VE...
  +--> ?PR?_RESPUESTA_SEGUNDA_CLAVE?VERIFICADOR
  +--> ?PR?ANALIZA_PRESENCIA_MENSUAL?VERIFIC...
  +--> ?PR?_ANALIZA_UID_CARD?VERIFICADOR
  +--> ?PR?ANALIZA_PRESENCIA_ROTACION?VERIFI...
  +--> ?CO?VERIFICADOR
  +--> ?PR?_DEBUG_TXT_TIBBO?TIBBO

?PR?_CHECK_STATUS?LINTECH                        -----    -----      -----    -----      0002H    000BH
  +--> ?CO?LINTECH
BL51 BANKED LINKER/LOCATER V6.22.2.0                                                  06/23/2021  14:18:03  PAGE 16


  +--> ?PR?_DEBUG_TXT_TIBBO?TIBBO
  +--> ?PR?_DEBUGBUFFERMF?TIBBO
  +--> ?PR?_ESCRIBIRCADENASOFT_BUFFER?MAIN

?PR?_LOAD_SECUENCIA_EXPEDIDOR?VERIFIC...         -----    -----      -----    -----      0002H    0009H

?PR?_RTA_CMD_TRANSPORTE?VERIFICADOR              -----    -----      -----    -----      0002H    0005H
  +--> ?PR?TRAMA_VALIDACION_P_N?VERIFICADOR
  +--> ?CO?VERIFICADOR
  +--> ?PR?_DEBUG_TXT_TIBBO?TIBBO
  +--> ?PR?_DEBUGBUFFERMF?TIBBO
  +--> ?PR?ERROR_RX_PTO?VERIFICADOR

?PR?ERROR_RX_PTO?VERIFICADOR                     -----    -----      -----    -----      0007H    0001H
  +--> ?CO?VERIFICADOR
  +--> ?PR?_DEBUG_TXT_TIBBO?TIBBO
  +--> ?PR?_DEBUG_CHR_TIBBO?TIBBO
  +--> ?PR?_DELAY_10MS?DELAY

?PR?_MOV_CARD?LINTECH                            -----    -----      -----    -----      0002H    000CH
  +--> ?CO?LINTECH
  +--> ?PR?_DEBUG_TXT_TIBBO?TIBBO
  +--> ?PR?_DEBUGBUFFERMF?TIBBO
  +--> ?PR?_ESCRIBIRCADENASOFT_BUFFER?MAIN

?PR?_CARD_INSERCION?LINTECH                      -----    -----      -----    -----      0002H    000AH
  +--> ?CO?LINTECH
  +--> ?PR?_DEBUG_TXT_TIBBO?TIBBO
  +--> ?PR?_DEBUGBUFFERMF?TIBBO
  +--> ?PR?_ESCRIBIRCADENASOFT_BUFFER?MAIN

?PR?AUT_CARD_CHECK_STATUS?LINTECH                -----    -----      -----    -----      0002H    000BH
  +--> ?CO?LINTECH
  +--> ?PR?_DEBUG_TXT_TIBBO?TIBBO
  +--> ?PR?_DEBUGBUFFERMF?TIBBO
  +--> ?PR?_ESCRIBIRCADENASOFT_BUFFER?MAIN

?PR?LOADVERIFY_EEPROM?LINTECH                    -----    -----      -----    -----      0002H    0010H
  +--> ?CO?LINTECH
  +--> ?PR?_DEBUG_TXT_TIBBO?TIBBO
  +--> ?PR?_DEBUGBUFFERMF?TIBBO
  +--> ?PR?_ESCRIBIRCADENASOFT_BUFFER?MAIN

?PR?_RD_MF?LINTECH                               -----    -----      -----    -----      0002H    0012H
  +--> ?CO?LINTECH
  +--> ?PR?_DEBUG_TXT_TIBBO?TIBBO
  +--> ?PR?_DEBUG_CHR_TIBBO?TIBBO
  +--> ?PR?_DEBUGBUFFERMF?TIBBO
  +--> ?PR?_ESCRIBIRCADENASOFT_BUFFER?MAIN

?PR?_WR_MF?LINTECH                               -----    -----      -----    -----      0002H    0025H
  +--> ?CO?LINTECH
  +--> ?PR?_DEBUG_TXT_TIBBO?TIBBO
  +--> ?PR?_DEBUG_CHR_TIBBO?TIBBO
  +--> ?PR?_DEBUGBUFFERMF?TIBBO
  +--> ?PR?_ESCRIBIRCADENASOFT_BUFFER?MAIN

BL51 BANKED LINKER/LOCATER V6.22.2.0                                                  06/23/2021  14:18:03  PAGE 17


?PR?ANALIZA_CARD_MOUNT_RF?VERIFICADOR            -----    -----      -----    -----      0002H    0001H
  +--> ?CO?VERIFICADOR
  +--> ?PR?_DEBUG_TXT_TIBBO?TIBBO

?PR?ENTREGA_CARD_CAPTURA?VERIFICADOR             -----    -----      -----    -----      0002H    0001H
  +--> ?CO?VERIFICADOR
  +--> ?PR?_DEBUG_TXT_TIBBO?TIBBO
  +--> ?PR?SEL_SENSOR2?IO_SENSORES
  +--> ?PR?VALIDASENSOR?IO_SENSORES
  +--> ?PR?VALIDA_SENSOR1_AUTO?IO_SENSORES

?PR?VALIDA_SENSOR1_AUTO?IO_SENSORES              -----    -----      -----    -----      0012H    0001H
  +--> ?PR?SEL_SENSOR1?IO_SENSORES
  +--> ?PR?SEL_AUTO?IO_SENSORES
  +--> ?CO?IO_SENSORES
  +--> ?PR?_DEBUG_TXT_TIBBO?TIBBO
  +--> ?PR?BOTTON?IO_SENSORES

?PR?BOTTON?IO_SENSORES                           -----    -----      -----    -----      -----    -----
  +--> ?PR?SEL_PULSA?IO_SENSORES
  +--> ?CO?IO_SENSORES
  +--> ?PR?_DEBUG_TXT_TIBBO?TIBBO

?PR?_SEND_PTO_PARALELO?VERIFICADOR               -----    -----      -----    -----      0002H    0007H
  +--> ?PR?_ARMAR_TRAMA_PTO_PARALELO_EXPEDID...
  +--> ?PR?_ARMAR_TRAMA_PTO_PARALELO_EXPEDID...
  +--> ?PR?INCREMENTE_TICKET?EEPROM
  +--> ?PR?_SEND_PORT?PTO_PARALELO
  +--> ?CO?VERIFICADOR
  +--> ?PR?_DEBUG_TXT_TIBBO?TIBBO
  +--> ?PR?_DEBUGBUFFERMF?TIBBO
  +--> ?PR?CLEAR_PLACA?MONITOR

?PR?_ARMAR_TRAMA_PTO_PARALELO_EXPEDID...         -----    -----      -----    -----      0009H    0006H
  +--> ?PR?_BCD_HEX?CLOCK
  +--> ?PR?_RD_EEPROM?EEPROM

?PR?_ARMAR_TRAMA_PTO_PARALELO_EXPEDID...         -----    -----      -----    -----      0009H    0012H
  +--> ?PR?LEE_NO_TICKET?EEPROM
  +--> ?PR?_STRCAT?STRCAT
  +--> ?PR?_STRLEN?STRLEN
  +--> ?PR?_BCD_HEX?CLOCK
  +--> ?PR?_RD_EEPROM?EEPROM

?PR?INCREMENTE_TICKET?EEPROM                     -----    -----      -----    -----      0009H    000BH
  +--> ?PR?READ_EEPROM_TICKET?EEPROM
  +--> ?CO?EEPROM
  +--> ?PR?PRINTF?PRINTF
  +--> ?PR?_WRITE_EEPROM_TICKET?EEPROM

?PR?_WRITE_EEPROM_TICKET?EEPROM                  -----    -----      -----    -----      0016H    000BH
  +--> ?CO?EEPROM
  +--> ?PR?_DEBUG_TXT_TIBBO?TIBBO
  +--> ?PR?_ATOL?ATOL
  +--> ?PR?_DEBUG_CHR_TIBBO?TIBBO
  +--> ?PR?_WR_EEPROM?EEPROM

BL51 BANKED LINKER/LOCATER V6.22.2.0                                                  06/23/2021  14:18:03  PAGE 18


?PR?_ATOL?ATOL                                   0020H.0  0000H.1    -----    -----      0021H    0007H
  +--> ?PR?_ISSPACE?ISSPACE
  +--> ?PR?_ISDIGIT?ISDIGIT

?PR?_SEND_PORT?PTO_PARALELO                      -----    -----      -----    -----      0016H    000AH
  +--> ?PR?PULSO_BUS?PTO_PARALELO
  +--> ?PR?_DELAY_20US?DELAY

?PR?PULSO_BUS?PTO_PARALELO                       -----    -----      -----    -----      -----    -----
  +--> ?PR?_DELAY_20US?DELAY

?PR?_WAIT_PLACA?VERIFICADOR                      -----    -----      -----    -----      0002H    0007H
  +--> ?CO?VERIFICADOR
  +--> ?PR?_DEBUG_TXT_TIBBO?TIBBO
  +--> ?PR?RX_MONITOR?MONITOR
  +--> ?PR?_RESPUESTA_PLACA_CANCEL?VERIFICADOR

?PR?_RESPUESTA_PLACA_CANCEL?VERIFICADOR          -----    -----      -----    -----      0009H    000AH
  +--> ?CO?VERIFICADOR
  +--> ?PR?_DEBUG_TXT_TIBBO?TIBBO
  +--> ?PR?_ARMAR_TRAMA_TARJETA_SECTOR1_BLOQ...

?PR?_ARMAR_TRAMA_TARJETA_SECTOR1_BLOQ...         -----    -----      -----    -----      0013H    0004H
  +--> ?PR?CLEAR_PLACA?MONITOR
  +--> ?PR?_RD_EEPROM?EEPROM

?PR?UNIQUE_IDENTIFIER_UID?LINTECH                -----    -----      -----    -----      0002H    000BH
  +--> ?CO?LINTECH
  +--> ?PR?_DEBUG_TXT_TIBBO?TIBBO
  +--> ?PR?_DEBUGBUFFERMF?TIBBO
  +--> ?PR?_ESCRIBIRCADENASOFT_BUFFER?MAIN

?PR?_PREGUNTA_LPR?VERIFICADOR                    -----    -----      -----    -----      0002H    0003H
  +--> ?CO?VERIFICADOR
  +--> ?PR?_DEBUG_TXT_TIBBO?TIBBO
  +--> ?PR?_HORA_ENTRADA_VEHICULO?CLOCK
  +--> ?PR?_RD_EEPROM?EEPROM
  +--> ?PR?_ARMAR_TRAMA_MONITOR?VERIFICADOR

?PR?_HORA_ENTRADA_VEHICULO?CLOCK                 -----    -----      -----    -----      0005H    0003H
  +--> ?PR?_LEE_CLK?CLOCK

?PR?_ARMAR_TRAMA_MONITOR?VERIFICADOR             -----    -----      -----    -----      0005H    000FH
  +--> ?PR?DIR_BOARD_MONITOR?IO_SENSORES
  +--> ?PR?LEE_NO_TICKET?EEPROM
  +--> ?PR?_STRCAT?STRCAT
  +--> ?PR?_BYTEHEX_DECIMAL?CLOCK
  +--> ?PR?_STRLEN?STRLEN
  +--> ?PR?_TWO_BYTEHEX_DECIMAL?CLOCK

?PR?DIR_BOARD_MONITOR?IO_SENSORES                -----    -----      -----    -----      -----    -----
  +--> ?PR?_RD_EEPROM?EEPROM

?PR?_BYTEHEX_DECIMAL?CLOCK                       -----    -----      -----    -----      0014H    0001H

?PR?_TWO_BYTEHEX_DECIMAL?CLOCK                   -----    -----      -----    -----      0014H    000CH
  +--> ?PR?_POW?POW
BL51 BANKED LINKER/LOCATER V6.22.2.0                                                  06/23/2021  14:18:03  PAGE 19



?PR?_POW?POW                                     -----    -----      -----    -----      0020H    000AH
  +--> ?PR?LOG?LOG
  +--> ?PR?EXP?EXP

?PR?LOG?LOG                                      0020H.0  0000H.1    -----    -----      002AH    0004H

?PR?PREGUNTA_PLACA?VERIFICADOR                   -----    -----      -----    -----      0002H    0001H
  +--> ?CO?VERIFICADOR
  +--> ?PR?_DEBUG_TXT_TIBBO?TIBBO
  +--> ?PR?_RD_EEPROM?EEPROM

?PR?_VALIDA_TIPO_TARJETA?VERIFICADOR             -----    -----      -----    -----      0002H    0007H
  +--> ?CO?VERIFICADOR
  +--> ?PR?_DEBUG_TXT_TIBBO?TIBBO
  +--> ?PR?_RD_EEPROM?EEPROM
  +--> ?PR?_TARJETA_MENSUAL?VERIFICADOR
  +--> ?PR?_SEND_PORTERR?PTO_PARALELO
  +--> ?PR?_PANTALLALCD?PANTALLAS
  +--> ?PR?CAPTURA_EXPULSA?VERIFICADOR
  +--> ?PR?_TARJETA_ROTACION?VERIFICADOR

?PR?_TARJETA_MENSUAL?VERIFICADOR                 -----    -----      -----    -----      0009H    0007H
  +--> ?PR?_HORARIOS?VERIFICADOR
  +--> ?PR?_CHECK_FECHAOUT?CLOCK
  +--> ?PR?_VALIDA_VEHICULO_CARD_MENSUAL?VER...
  +--> ?PR?CAPTURA_EXPULSA?VERIFICADOR
  +--> ?CO?VERIFICADOR
  +--> ?PR?_DEBUG_TXT_TIBBO?TIBBO
  +--> ?PR?_ARMAR_TRAMA_TARJETA_SECTOR1_BLOQ...
  +--> ?PR?_SEND_PORTERR?PTO_PARALELO
  +--> ?PR?_PANTALLALCD?PANTALLAS

?PR?_HORARIOS?VERIFICADOR                        -----    -----      -----    -----      0010H    0013H
  +--> ?PR?ADDR_HORARIOS?PROG
  +--> ?PR?_RD_EEPROM?EEPROM
  +--> ?PR?_LEE_CLK?CLOCK
  +--> ?CO?VERIFICADOR
  +--> ?PR?_DEBUG_TXT_TIBBO?TIBBO
  +--> ?PR?_DEBUG_CHR_TIBBO?TIBBO
  +--> ?PR?_BLOQUE_HORARIO?VERIFICADOR
  +--> ?PR?_PANTALLALCD?PANTALLAS

?PR?_BLOQUE_HORARIO?VERIFICADOR                  -----    -----      -----    -----      0023H    0007H
  +--> ?CO?VERIFICADOR
  +--> ?PR?_DEBUG_TXT_TIBBO?TIBBO
  +--> ?PR?_LEE_CLK?CLOCK
  +--> ?PR?_DEBUG_CHR_TIBBO?TIBBO
  +--> ?PR?_HORA_MAXIMA?VERIFICADOR
  +--> ?PR?_EN_HORARIO?VERIFICADOR
  +--> ?PR?_RD_EEPROM?EEPROM
  +--> ?PR?_SEND_PORTERR?PTO_PARALELO
  +--> ?PR?_PANTALLALCD?PANTALLAS

?PR?_HORA_MAXIMA?VERIFICADOR                     -----    -----      -----    -----      002FH    0008H
  +--> ?PR?_RD_EEPROM?EEPROM
  +--> ?PR?_DEBUG_CHR_TIBBO?TIBBO
BL51 BANKED LINKER/LOCATER V6.22.2.0                                                  06/23/2021  14:18:03  PAGE 20


  +--> ?CO?VERIFICADOR
  +--> ?PR?_DEBUG_TXT_TIBBO?TIBBO

?PR?_EN_HORARIO?VERIFICADOR                      -----    -----      -----    -----      002AH    0005H
  +--> ?CO?VERIFICADOR
  +--> ?PR?_DEBUG_TXT_TIBBO?TIBBO
  +--> ?PR?_HORA_MAXIMA?VERIFICADOR

?PR?_SEND_PORTERR?PTO_PARALELO                   -----    -----      -----    -----      002AH    0006H
  +--> ?PR?PULSO_BUS?PTO_PARALELO
  +--> ?PR?_DELAY_20US?DELAY

?PR?_PANTALLALCD?PANTALLAS                       -----    -----      -----    -----      002AH    000AH
  +--> ?CO?PANTALLAS
  +--> ?PR?_LCD_TXT?PANTALLAS
  +--> ?PR?_STRLEN?STRLEN
  +--> ?PR?_TX_CHRLCD?PANTALLAS
  +--> ?PR?_RASPBERRY_DATA?PANTALLAS

?PR?_LCD_TXT?PANTALLAS                           -----    -----      -----    -----      0044H    0005H
  +--> ?PR?_TX_CHRLCD?PANTALLAS

?PR?_TX_CHRLCD?PANTALLAS                         -----    -----      -----    -----      0049H    0002H
  +--> ?PR?_PUTCHAR?MAIN

?PR?_RASPBERRY_DATA?PANTALLAS                    -----    -----      -----    -----      0044H    0006H
  +--> ?PR?_STRLEN?STRLEN
  +--> ?PR?_PUTCHAR?MAIN

?PR?_VALIDA_VEHICULO_CARD_MENSUAL?VER...         -----    -----      -----    -----      0010H    0004H
  +--> ?CO?VERIFICADOR
  +--> ?PR?_DEBUG_TXT_TIBBO?TIBBO
  +--> ?PR?_RD_EEPROM?EEPROM
  +--> ?PR?_SEND_PORTERR?PTO_PARALELO

?PR?_ARMAR_TRAMA_TARJETA_SECTOR1_BLOQ...         -----    -----      -----    -----      0010H    0006H
  +--> ?PR?_BCD_HEX?CLOCK
  +--> ?PR?DIR_BOARD?IO_SENSORES

?PR?DIR_BOARD?IO_SENSORES                        -----    -----      -----    -----      0033H    0001H
  +--> ?PR?SEL_DIR1?IO_SENSORES
  +--> ?PR?SEL_DIR2?IO_SENSORES
  +--> ?PR?_RD_EEPROM?EEPROM

?PR?_TARJETA_ROTACION?VERIFICADOR                -----    -----      -----    -----      0009H    0006H
  +--> ?PR?_ARMAR_TRAMA_TARJETA_SECTOR1_BLOQ...

?PR?POWER_OFF?LINTECH                            -----    -----      -----    -----      0002H    000BH
  +--> ?CO?LINTECH
  +--> ?PR?_DEBUG_TXT_TIBBO?TIBBO
  +--> ?PR?_DEBUGBUFFERMF?TIBBO
  +--> ?PR?_ESCRIBIRCADENASOFT_BUFFER?MAIN

?PR?CLAVE_SEGURIDAD_S2?LINTECH                   -----    -----      -----    -----      0002H    0016H
  +--> ?CO?LINTECH
  +--> ?PR?_DEBUG_TXT_TIBBO?TIBBO
  +--> ?PR?_DEBUGBUFFERMF?TIBBO
BL51 BANKED LINKER/LOCATER V6.22.2.0                                                  06/23/2021  14:18:03  PAGE 21


  +--> ?PR?_ESCRIBIRCADENASOFT_BUFFER?MAIN

?PR?_RESPONDE_REELECTURA_TARJETA_SECT...         -----    -----      -----    -----      0002H    000AH
  +--> ?CO?VERIFICADOR
  +--> ?PR?_DEBUG_TXT_TIBBO?TIBBO
  +--> ?PR?_DEBUGBUFFERMF?TIBBO
  +--> ?PR?_ARMAR_TRAMA_TARJETA_SECTOR1_BLOQ...

?PR?_ARMAR_TRAMA_TARJETA_SECTOR1_BLOQ...         -----    -----      -----    -----      000CH    0003H
  +--> ?PR?LEE_NO_TICKET?EEPROM

?PR?RESPONDE_ESTADO_SENSORES_TRANSPOR...         -----    -----      -----    -----      0002H    0001H
  +--> ?CO?VERIFICADOR
  +--> ?PR?_DEBUG_TXT_TIBBO?TIBBO
  +--> ?PR?_SEND_PORTERR?PTO_PARALELO
  +--> ?PR?INGRESO_VEHICULO?VERIFICADOR

?PR?INGRESO_VEHICULO?VERIFICADOR                 -----    -----      -----    -----      -----    -----
  +--> ?PR?VALIDASENSORESPASO?IO_SENSORES
  +--> ?PR?_RD_EEPROM?EEPROM
  +--> ?CO?VERIFICADOR
  +--> ?PR?_DEBUG_TXT_TIBBO?TIBBO
  +--> ?PR?_PANTALLALCD?PANTALLAS
  +--> ?PR?BOTTON?IO_SENSORES

?PR?VALIDASENSORESPASO?IO_SENSORES               -----    -----      -----    -----      0011H    0001H
  +--> ?PR?SEL_SENSOR2?IO_SENSORES
  +--> ?PR?VALIDASENSOR?IO_SENSORES
  +--> ?PR?VALIDA_SENSOR1_AUTO?IO_SENSORES
  +--> ?CO?IO_SENSORES
  +--> ?PR?_DEBUG_TXT_TIBBO?TIBBO

?PR?RESPONDE_TIPO_TARJETA?VERIFICADOR            -----    -----      -----    -----      0002H    0001H
  +--> ?CO?VERIFICADOR
  +--> ?PR?_DEBUG_TXT_TIBBO?TIBBO
  +--> ?PR?_SEND_PORTERR?PTO_PARALELO
  +--> ?PR?_PANTALLALCD?PANTALLAS
  +--> ?PR?CAPTURA_EXPULSA?VERIFICADOR

?PR?_RESPONDE_LECTURA_TARJETA_SECTOR1...         -----    -----      -----    -----      0002H    0016H
  +--> ?CO?VERIFICADOR
  +--> ?PR?_DEBUG_TXT_TIBBO?TIBBO
  +--> ?PR?_DEBUGBUFFERMF?TIBBO
  +--> ?PR?_RD_EEPROM?EEPROM
  +--> ?PR?_DEBUG_HEXDEC?TIBBO
  +--> ?PR?_DEBUG_CHR_TIBBO?TIBBO
  +--> ?PR?_SEND_PORTERR?PTO_PARALELO
  +--> ?PR?_PANTALLALCD?PANTALLAS
  +--> ?PR?CAPTURA_EXPULSA?VERIFICADOR

?PR?_DEBUG_HEXDEC?TIBBO                          -----    -----      -----    -----      0018H    0002H
  +--> ?PR?_TX_AUX?TIBBO

?PR?_RESPONDE_LECTURA_TARJETA_SECTOR1...         -----    -----      -----    -----      0002H    0004H
  +--> ?CO?VERIFICADOR
  +--> ?PR?_DEBUG_TXT_TIBBO?TIBBO
  +--> ?PR?CAPTURA_EXPULSA?VERIFICADOR
BL51 BANKED LINKER/LOCATER V6.22.2.0                                                  06/23/2021  14:18:03  PAGE 22



?PR?_RESPONDE_LECTURA_TARJETA_SECTOR1...         -----    -----      -----    -----      0002H    0015H
  +--> ?CO?VERIFICADOR
  +--> ?PR?_DEBUG_TXT_TIBBO?TIBBO
  +--> ?PR?_DEBUGBUFFERMF?TIBBO
  +--> ?PR?_DEBUG_CHR_TIBBO?TIBBO
  +--> ?PR?CAPTURA_EXPULSA?VERIFICADOR

?PR?_RESPONDE_WRITE_TARJETA_SECTOR1_B...         -----    -----      -----    -----      0002H    0007H
  +--> ?CO?VERIFICADOR
  +--> ?PR?_DEBUG_TXT_TIBBO?TIBBO
  +--> ?PR?_DEBUGBUFFERMF?TIBBO

?PR?_RESPONDE_WRITE_TARJETA_SECTOR2_B...         -----    -----      -----    -----      0002H    0003H
  +--> ?CO?VERIFICADOR
  +--> ?PR?_DEBUG_TXT_TIBBO?TIBBO
  +--> ?PR?_DEBUGBUFFERMF?TIBBO

?PR?_RESPONDE_WRITE_TARJETA_SECTOR1_B...         -----    -----      -----    -----      0002H    0003H
  +--> ?CO?VERIFICADOR
  +--> ?PR?_DEBUG_TXT_TIBBO?TIBBO
  +--> ?PR?_DEBUGBUFFERMF?TIBBO

?PR?_RESPONDE_WRITE_TARJETA_SECTOR1_B...         -----    -----      -----    -----      0002H    0003H
  +--> ?CO?VERIFICADOR
  +--> ?PR?_DEBUG_TXT_TIBBO?TIBBO
  +--> ?PR?_DEBUGBUFFERMF?TIBBO

?PR?_DISPARO_LOCK_ENTRADA_VEHICULO?VE...         -----    -----      -----    -----      0002H    0004H
  +--> ?CO?VERIFICADOR
  +--> ?PR?_DEBUG_TXT_TIBBO?TIBBO
  +--> ?PR?_SEND_PORTERR?PTO_PARALELO
  +--> ?PR?_PANTALLALCD_LINEA_2?PANTALLAS
  +--> ?PR?VALIDA_SENSOR1_AUTO?IO_SENSORES
  +--> ?PR?_PANTALLALCD?PANTALLAS

?PR?_PANTALLALCD_LINEA_2?PANTALLAS               -----    -----      -----    -----      0011H    0033H
  +--> ?CO?PANTALLAS
  +--> ?PR?_LCD_TXT?PANTALLAS
  +--> ?PR?_STRLEN?STRLEN
  +--> ?PR?_TX_CHRLCD?PANTALLAS
  +--> ?PR?_RASPBERRY_DATA?PANTALLAS
  +--> ?PR?LEE_NO_TICKET?EEPROM
  +--> ?PR?_STRCAT?STRCAT

?PR?_RESPUESTA_SEGUNDA_CLAVE?VERIFICADOR         -----    -----      -----    -----      0002H    0006H
  +--> ?CO?VERIFICADOR
  +--> ?PR?_DEBUG_TXT_TIBBO?TIBBO
  +--> ?PR?_DEBUGBUFFERMF?TIBBO
  +--> ?PR?_ARMAR_TRAMA_PLACA?VERIFICADOR

?PR?_ARMAR_TRAMA_PLACA?VERIFICADOR               -----    -----      -----    -----      0008H    0003H
  +--> ?PR?_STRLEN?STRLEN

?PR?ANALIZA_PRESENCIA_MENSUAL?VERIFIC...         -----    -----      -----    -----      0002H    0001H
  +--> ?PR?VALIDASENSORESPASO?IO_SENSORES
  +--> ?PR?_RD_EEPROM?EEPROM
BL51 BANKED LINKER/LOCATER V6.22.2.0                                                  06/23/2021  14:18:03  PAGE 23


  +--> ?PR?_SEND_PORTERR?PTO_PARALELO
  +--> ?PR?_PANTALLALCD?PANTALLAS

?PR?_ANALIZA_UID_CARD?VERIFICADOR                -----    -----      -----    -----      0002H    0015H
  +--> ?CO?VERIFICADOR
  +--> ?PR?_DEBUG_TXT_TIBBO?TIBBO
  +--> ?PR?_DEBUGBUFFERMF?TIBBO
  +--> ?PR?_DEBUG_CHR_TIBBO?TIBBO

?PR?ANALIZA_PRESENCIA_ROTACION?VERIFI...         -----    -----      -----    -----      0002H    0001H
  +--> ?PR?VALIDASENSORESPASO?IO_SENSORES
  +--> ?PR?_SEND_PORTERR?PTO_PARALELO
  +--> ?PR?_PANTALLALCD?PANTALLAS

?PR?_RECIBE_PORT?PTO_PARALELO                    -----    -----      -----    -----      0001H    0008H
  +--> ?PR?OFF_TIMER0_INTERRUP?MAIN
  +--> ?PR?ON_TIMER0_INTERRUP?MAIN

?PR?_DEBUG_PTO_PARALELO?TIBBO                    -----    -----      -----    -----      0001H    0004H
  +--> ?CO?TIBBO
  +--> ?PR?_DEBUG_TXT_TIBBO?TIBBO
  +--> ?PR?_DEBUGBUFFERMF?TIBBO
  +--> ?PR?DEBUG_DIVIDIR_TEXTO?TIBBO

?PR?_VALIDA_TRAMA_PTO?ACCESCAN                   -----    -----      -----    -----      0001H    0010H
  +--> ?CO?ACCESCAN
  +--> ?PR?_DEBUG_TXT_TIBBO?TIBBO
  +--> ?PR?_DEBUG_CHR_TIBBO?TIBBO
  +--> ?PR?_VALIDAR_CLK?CLOCK
  +--> ?PR?_BLOCK_WRITE_CLOCK_ASCII?CLOCK
  +--> ?PR?RELOJ_PANTALLA_LCD?PANTALLAS
  +--> ?PR?_SEND_PORT?PTO_PARALELO
  +--> ?PR?_PANTALLALCD?PANTALLAS
  +--> ?PR?FORMATO_EEPROM?EEPROM
  +--> ?PR?_BYTEHEX_DECIMAL?CLOCK
  +--> ?PR?_TWO_BYTEHEX_DECIMAL?CLOCK
  +--> ?PR?VALIDASENSORESPASO?IO_SENSORES
  +--> ?PR?_CMD_LPR_SALIDA_WIEGAND?ACCESCAN
  +--> ?PR?_PANTALLALCD_LINEA_2?PANTALLAS
  +--> ?PR?_GRABA_SERIE?EEPROM

?PR?_BLOCK_WRITE_CLOCK_ASCII?CLOCK               -----    -----      -----    -----      0011H    0003H
  +--> ?CO?CLOCK
  +--> ?PR?_DEBUG_TXT_TIBBO?TIBBO
  +--> ?PR?_TWO_ONE?CLOCK
  +--> ?PR?_WR_CLK?CLOCK

?PR?_WR_CLK?CLOCK                                -----    -----      -----    -----      0014H    0002H
  +--> ?PR?_DELAY_20US?DELAY
  +--> ?PR?_EB_CLK?CLOCK

?PR?RELOJ_PANTALLA_LCD?PANTALLAS                 -----    -----      -----    -----      0011H    000DH
  +--> ?CO?PANTALLAS
  +--> ?PR?_BLOCK_READ_CLOCK?CLOCK
  +--> ?PR?_LCD_TXT_NUM_CHAR?PANTALLAS
  +--> ?PR?_BLOCK_READ_CLOCK_ASCII_RASBERRY?...
  +--> ?PR?_STRCAT?STRCAT
BL51 BANKED LINKER/LOCATER V6.22.2.0                                                  06/23/2021  14:18:03  PAGE 24


  +--> ?PR?_RASPBERRY_DATA?PANTALLAS

?PR?_BLOCK_READ_CLOCK?CLOCK                      -----    -----      -----    -----      001EH    0003H
  +--> ?PR?_LEE_CLK?CLOCK

?PR?_LCD_TXT_NUM_CHAR?PANTALLAS                  -----    -----      -----    -----      001EH    0006H
  +--> ?PR?_TX_CHRLCD?PANTALLAS

?PR?_BLOCK_READ_CLOCK_ASCII_RASBERRY?...         -----    -----      -----    -----      001EH    0003H
  +--> ?PR?_LEE_CLK?CLOCK

?PR?FORMATO_EEPROM?EEPROM                        -----    -----      -----    -----      0011H    0003H
  +--> ?PR?_WR_EEPROM?EEPROM

?PR?_CMD_LPR_SALIDA_WIEGAND?ACCESCAN             -----    -----      -----    -----      0011H    0022H
  +--> ?PR?DIR_BOARD?IO_SENSORES
  +--> ?PR?_BLOCK_READ_CLOCK_ASCII?CLOCK
  +--> ?PR?_MONITOR_CHR?ACCESCAN

?PR?_MONITOR_CHR?ACCESCAN                        -----    -----      -----    -----      0033H    0005H
  +--> ?PR?_TX_AUX?TIBBO

?PR?_GRABA_SERIE?EEPROM                          -----    -----      -----    -----      0011H    0005H
  +--> ?CO?EEPROM
  +--> ?PR?_DEBUG_TXT_TIBBO?TIBBO
  +--> ?PR?_WRITE_EEPROM_TICKET?EEPROM
  +--> ?PR?_WR_EEPROM?EEPROM

?PR?MSJ_LCD_INFORMATIVO?IO_SENSORES              -----    -----      -----    -----      0001H    0001H
  +--> ?PR?SEL_FUNCION?IO_SENSORES
  +--> ?PR?VALIDASENSOR_CERO?IO_SENSORES
  +--> ?CO?IO_SENSORES
  +--> ?PR?_DEBUG_TXT_TIBBO?TIBBO
  +--> ?PR?_DEBUG_CHR_TIBBO?TIBBO
  +--> ?PR?LOAD_AND_SEND_INFO_RELOJ?PTO_PARA...
  +--> ?PR?VALIDASENSOR?IO_SENSORES
  +--> ?PR?_DELAY_10MS?DELAY
  +--> ?PR?LOAD_AND_SEND_ID_COD?PTO_PARALELO

?PR?LOAD_AND_SEND_INFO_RELOJ?PTO_PARA...         -----    -----      -----    -----      0002H    000BH
  +--> ?PR?_BLOCK_READ_CLOCK?CLOCK
  +--> ?PR?_LEE_CLK?CLOCK
  +--> ?CO?PTO_PARALELO
  +--> ?PR?_DEBUG_TXT_TIBBO?TIBBO
  +--> ?PR?_DEBUGBUFFERMF?TIBBO
  +--> ?PR?DEBUG_DIVIDIR_TEXTO?TIBBO
  +--> ?PR?_SEND_PORT?PTO_PARALELO

?PR?LOAD_AND_SEND_ID_COD?PTO_PARALELO            -----    -----      -----    -----      0002H    0014H
  +--> ?PR?_RD_EEPROM?EEPROM
  +--> ?CO?PTO_PARALELO
  +--> ?PR?PRINTF?PRINTF
  +--> ?PR?_STRCAT?STRCAT
  +--> ?PR?_STRLEN?STRLEN
  +--> ?PR?_DEBUG_TXT_TIBBO?TIBBO
  +--> ?PR?_DEBUGBUFFERMF?TIBBO
  +--> ?PR?DEBUG_DIVIDIR_TEXTO?TIBBO
BL51 BANKED LINKER/LOCATER V6.22.2.0                                                  06/23/2021  14:18:03  PAGE 25


  +--> ?PR?_SEND_PORT?PTO_PARALELO



SYMBOL TABLE OF MODULE:  .\Objects\expedidor_v_01_raspberry (MAIN)

  VALUE           TYPE          NAME
  ----------------------------------

  -------         MODULE        MAIN
  C:0000H         SYMBOL        _ICE_DUMMY_
  D:0080H         PUBLIC        P0
  D:0090H         PUBLIC        P1
  C:C0F8H         PUBLIC        timer0_int
  D:00B0H         PUBLIC        P3
  B:00A8H.7       PUBLIC        EA
  C:C513H         PUBLIC        off_Timer0_Interrup
  X:0171H         PUBLIC        ValTimeOutCom
  X:0172H         PUBLIC        Buffer_Rta_Lintech
  X:01A4H         PUBLIC        Timer_wait
  B:0021H.1       PUBLIC        pto_paraleo
  X:01A5H         PUBLIC        g_cContByteRx
  B:0080H.0       PUBLIC        rx_ip
  C:AFABH         PUBLIC        main
  X:01A6H         PUBLIC        Timer_tivo
  B:0080H.3       PUBLIC        Atascado_GP0_PIN_3
  C:B714H         PUBLIC        variable_inicio
  B:0090H.7       PUBLIC        lock
  I:0023H         PUBLIC        rbuf
  C:C509H         PUBLIC        on_Timer0_Interrup
  I:0055H         PUBLIC        tbuf
  B:0090H.1       PUBLIC        DataIn
  D:0089H         PUBLIC        TMOD
  X:01A8H         PUBLIC        USE_LPR
  X:01A9H         PUBLIC        Debug_Tibbo
  X:01AAH         PUBLIC        Raspberry
  X:01ABH         PUBLIC        SIN_COBRO
  X:01ADH         PUBLIC        Tipo_Vehiculo
  B:00B0H.3       PUBLIC        busy
  C:C46AH         PUBLIC        ini_timer
  B:00A8H.1       PUBLIC        ET0
  B:0088H.5       PUBLIC        TF0
  D:008CH         PUBLIC        TH0
  X:01AEH         PUBLIC        ACK
  X:01AFH         PUBLIC        g_cEstadoComSoft
  D:008AH         PUBLIC        TL0
  B:0088H.4       PUBLIC        TR0
  C:C47AH         PUBLIC        inicia_board
  X:01B0H         PUBLIC        T_GRACIA
  B:0080H.7       PUBLIC        sel_com
  X:01B2H         PUBLIC        STX_LINTECH
  C:C499H         PUBLIC        _getkey
  X:01B3H         PUBLIC        ETX
  C:B9B0H         PUBLIC        _EscribirCadenaSoft_buffer
  B:0021H.2       PUBLIC        buffer_ready
  C:BC8CH         PUBLIC        _putchar
  B:0021H.3       PUBLIC        placa_ready
BL51 BANKED LINKER/LOCATER V6.22.2.0                                                  06/23/2021  14:18:03  PAGE 26


  -------         PROC          TIMER0_INT
  C:C0F8H         LINE#         16
  C:C0FEH         LINE#         19
  C:C104H         LINE#         20
  C:C109H         LINE#         21
  C:C109H         LINE#         22
  C:C10FH         LINE#         23
  C:C10FH         LINE#         25
  C:C11DH         LINE#         26
  C:C11FH         LINE#         28
  -------         ENDPROC       TIMER0_INT
  -------         PROC          INI_TIMER
  C:C46AH         LINE#         31
  C:C46AH         LINE#         32
  C:C46AH         LINE#         34
  C:C472H         LINE#         36
  C:C475H         LINE#         37
  C:C477H         LINE#         38
  C:C479H         LINE#         40
  -------         ENDPROC       INI_TIMER
  -------         PROC          ON_TIMER0_INTERRUP
  C:C509H         LINE#         43
  C:C509H         LINE#         44
  C:C509H         LINE#         45
  C:C50BH         LINE#         46
  C:C50DH         LINE#         48
  -------         ENDPROC       ON_TIMER0_INTERRUP
  -------         PROC          OFF_TIMER0_INTERRUP
  C:C513H         LINE#         51
  C:C513H         LINE#         52
  C:C513H         LINE#         53
  C:C515H         LINE#         55
  -------         ENDPROC       OFF_TIMER0_INTERRUP
  -------         PROC          _GETKEY
  -------         DO            
  D:0006H         SYMBOL        k
  -------         ENDDO         
  C:C499H         LINE#         63
  C:C499H         LINE#         64
  C:C499H         LINE#         68
  C:C499H         LINE#         69
  C:C49CH         LINE#         70
  C:C49CH         LINE#         71
  C:C4A4H         LINE#         73
  C:C4A4H         LINE#         74
  -------         ENDPROC       _GETKEY
  -------         PROC          _PUTCHAR
  X:00A7H         SYMBOL        c
  -------         DO            
  X:00A8H         SYMBOL        i
  -------         ENDDO         
  C:BC8CH         LINE#         78
  C:BC91H         LINE#         79
  C:BC91H         LINE#         82
  C:BCA0H         LINE#         83
  C:BCA0H         LINE#         84
  C:BCB6H         LINE#         85
BL51 BANKED LINKER/LOCATER V6.22.2.0                                                  06/23/2021  14:18:03  PAGE 27


  C:BCB6H         LINE#         87
  C:BCC4H         LINE#         88
  C:BCC4H         LINE#         90
  C:BCC9H         LINE#         91
  -------         ENDPROC       _PUTCHAR
  -------         PROC          _ESCRIBIRCADENASOFT_BUFFER
  X:0027H         SYMBOL        buffer
  X:002AH         SYMBOL        tamano_cadena
  -------         DO            
  X:002BH         SYMBOL        i
  X:002CH         SYMBOL        d
  -------         ENDDO         
  C:B9B0H         LINE#         95
  C:B9BEH         LINE#         96
  C:B9BEH         LINE#         98
  C:B9CCH         LINE#         99
  C:B9CCH         LINE#         100
  C:B9E3H         LINE#         101
  C:B9EDH         LINE#         102
  C:B9F5H         LINE#         103
  -------         ENDPROC       _ESCRIBIRCADENASOFT_BUFFER
  -------         PROC          INICIA_BOARD
  C:C47AH         LINE#         108
  C:C47AH         LINE#         109
  C:C47AH         LINE#         110
  C:C47DH         LINE#         111
  C:C480H         LINE#         112
  C:C483H         LINE#         113
  C:C485H         LINE#         114
  C:C487H         LINE#         115
  C:C489H         LINE#         117
  -------         ENDPROC       INICIA_BOARD
  -------         PROC          VARIABLE_INICIO
  C:B714H         LINE#         122
  C:B714H         LINE#         123
  C:B714H         LINE#         126
  C:B725H         LINE#         127
  C:B736H         LINE#         128
  C:B744H         LINE#         129
  C:B752H         LINE#         130
  C:B760H         LINE#         133
  -------         ENDPROC       VARIABLE_INICIO
  -------         PROC          MAIN
  -------         DO            
  X:0148H         SYMBOL        buffer
  X:0170H         SYMBOL        Estado_Comunicacion_Secuencia_MF
  X:0000H         SYMBOL        Length_trama
  -------         ENDDO         
  C:AFABH         LINE#         141
  C:AFABH         LINE#         142
  C:AFABH         LINE#         149
  C:AFAEH         LINE#         150
  C:AFB1H         LINE#         151
  C:AFB4H         LINE#         152
  C:AFB7H         LINE#         153
  C:AFBAH         LINE#         154
  C:AFBCH         LINE#         156
BL51 BANKED LINKER/LOCATER V6.22.2.0                                                  06/23/2021  14:18:03  PAGE 28


  C:AFBFH         LINE#         157
  C:AFC6H         LINE#         158
  C:AFC9H         LINE#         160
  C:AFCEH         LINE#         162
  C:AFD1H         LINE#         164
  C:AFD4H         LINE#         165
  C:AFD4H         LINE#         166
  C:AFD7H         LINE#         167
  C:AFD7H         LINE#         170
  C:AFDAH         LINE#         171
  C:AFE0H         LINE#         172
  C:AFE6H         LINE#         174
  C:AFE6H         LINE#         175
  C:AFE6H         LINE#         178
  C:AFE9H         LINE#         179
  C:AFE9H         LINE#         180
  C:AFECH         LINE#         181
  C:AFECH         LINE#         185
  C:AFF9H         LINE#         190
  C:AFFFH         LINE#         191
  C:AFFFH         LINE#         193
  C:B00EH         LINE#         196
  C:B017H         LINE#         197
  C:B025H         LINE#         202
  C:B025H         LINE#         203
  C:B028H         LINE#         206
  -------         ENDPROC       MAIN
  -------         ENDMOD        MAIN

  -------         MODULE        ACCESCAN
  C:0000H         SYMBOL        _ICE_DUMMY_
  D:0080H         PUBLIC        P0
  D:0090H         PUBLIC        P1
  D:00B0H         PUBLIC        P3
  B:0080H.2       PUBLIC        led_err_imp
  C:BB4BH         PUBLIC        _Monitor_chr
  B:0080H.3       PUBLIC        Atascado_GP0_PIN_3
  B:0090H.7       PUBLIC        lock
  C:36BFH         PUBLIC        _Valida_Trama_Pto
  C:8E6FH         PUBLIC        _Cmd_LPR_Salida_wiegand
  -------         PROC          _VALIDA_TRAMA_PTO
  X:0001H         SYMBOL        buffer
  X:0004H         SYMBOL        length_trama
  -------         DO            
  X:021BH         SYMBOL        cont
  X:0005H         SYMBOL        bcc
  D:0004H         SYMBOL        j
  X:0006H         SYMBOL        buff
  -------         ENDDO         
  C:36BFH         LINE#         113
  C:36CDH         LINE#         114
  C:36CDH         LINE#         117
  C:36D0H         LINE#         123
  C:3713H         LINE#         124
  C:3713H         LINE#         125
  C:371CH         LINE#         126
  C:3731H         LINE#         127
BL51 BANKED LINKER/LOCATER V6.22.2.0                                                  06/23/2021  14:18:03  PAGE 29


  C:373AH         LINE#         128
  C:3747H         LINE#         129
  C:3747H         LINE#         130
  C:3763H         LINE#         131
  C:3766H         LINE#         133
  C:376FH         LINE#         134
  C:3777H         LINE#         135
  C:3780H         LINE#         136
  C:3799H         LINE#         137
  C:3799H         LINE#         139
  C:37A9H         LINE#         140
  C:37A9H         LINE#         141
  C:37BCH         LINE#         143
  C:37BFH         LINE#         145
  C:37BFH         LINE#         148
  C:37BFH         LINE#         150
  C:37BFH         LINE#         152
  C:37C5H         LINE#         153
  C:37C9H         LINE#         154
  C:37CDH         LINE#         155
  C:37D0H         LINE#         156
  C:37DBH         LINE#         158
  C:37E4H         LINE#         159
  C:37ECH         LINE#         160
  C:37F4H         LINE#         161
  C:37FCH         LINE#         162
  C:3805H         LINE#         163
  C:3805H         LINE#         166
  C:3805H         LINE#         169
  C:3817H         LINE#         170
  C:3817H         LINE#         171
  C:3819H         LINE#         172
  C:381CH         LINE#         174
  C:382EH         LINE#         175
  C:382EH         LINE#         176
  C:3830H         LINE#         177
  C:3833H         LINE#         179
  C:3845H         LINE#         180
  C:3845H         LINE#         181
  C:3847H         LINE#         182
  C:384AH         LINE#         184
  C:3864H         LINE#         185
  C:3864H         LINE#         186
  C:3866H         LINE#         187
  C:3869H         LINE#         189
  C:3883H         LINE#         190
  C:3883H         LINE#         191
  C:3885H         LINE#         192
  C:3888H         LINE#         194
  C:389AH         LINE#         195
  C:389AH         LINE#         196
  C:38A0H         LINE#         197
  C:38ADH         LINE#         198
  C:38ADH         LINE#         199
  C:38B2H         LINE#         200
  C:38B4H         LINE#         201
  C:38B9H         LINE#         202
BL51 BANKED LINKER/LOCATER V6.22.2.0                                                  06/23/2021  14:18:03  PAGE 30


  C:38BBH         LINE#         203
  C:38BDH         LINE#         204
  C:38C1H         LINE#         205
  C:38C1H         LINE#         206
  C:38C2H         LINE#         208
  C:38DAH         LINE#         209
  C:38DAH         LINE#         211
  C:38E7H         LINE#         212
  C:38E7H         LINE#         213
  C:38E9H         LINE#         214
  C:38EBH         LINE#         215
  C:38EDH         LINE#         216
  C:38EFH         LINE#         217
  C:38EFH         LINE#         219
  C:3915H         LINE#         220
  C:3915H         LINE#         221
  C:3919H         LINE#         222
  C:391EH         LINE#         223
  C:3927H         LINE#         224
  C:392CH         LINE#         225
  C:392CH         LINE#         228
  C:392DH         LINE#         230
  C:3947H         LINE#         231
  C:3947H         LINE#         232
  C:3949H         LINE#         233
  C:394CH         LINE#         235
  C:397CH         LINE#         236
  C:397CH         LINE#         237
  C:397FH         LINE#         238
  C:397FH         LINE#         240
  C:3999H         LINE#         241
  C:3999H         LINE#         242
  C:399BH         LINE#         243
  C:399EH         LINE#         245
  C:39B8H         LINE#         246
  C:39B8H         LINE#         247
  C:39BAH         LINE#         248
  C:39BCH         LINE#         250
  C:39D6H         LINE#         251
  C:39D6H         LINE#         252
  C:39D8H         LINE#         253
  C:39DAH         LINE#         256
  C:39F4H         LINE#         257
  C:39F4H         LINE#         258
  C:39F6H         LINE#         259
  C:39F8H         LINE#         263
  C:3A12H         LINE#         264
  C:3A12H         LINE#         265
  C:3A14H         LINE#         266
  C:3A16H         LINE#         269
  C:3A30H         LINE#         270
  C:3A30H         LINE#         271
  C:3A35H         LINE#         272
  C:3A35H         LINE#         275
  C:3A66H         LINE#         276
  C:3A66H         LINE#         277
  C:3A6EH         LINE#         278
BL51 BANKED LINKER/LOCATER V6.22.2.0                                                  06/23/2021  14:18:03  PAGE 31


  C:3A77H         LINE#         279
  C:3A7AH         LINE#         282
  C:3AABH         LINE#         283
  C:3AABH         LINE#         285
  C:3AB3H         LINE#         286
  C:3ABCH         LINE#         287
  C:3ABFH         LINE#         290
  C:3AFFH         LINE#         291
  C:3AFFH         LINE#         293
  C:3B14H         LINE#         294
  C:3B1AH         LINE#         295
  C:3B44H         LINE#         298
  C:3B4CH         LINE#         299
  C:3B4CH         LINE#         302
  C:3B53H         LINE#         303
  C:3B53H         LINE#         304
  C:3B58H         LINE#         305
  C:3B58H         LINE#         306
  C:3B5AH         LINE#         308
  C:3B5AH         LINE#         309
  C:3B63H         LINE#         310
  C:3B6BH         LINE#         311
  C:3B6BH         LINE#         315
  C:3B6DH         LINE#         318
  C:3B6DH         LINE#         326
  C:3B75H         LINE#         330
  C:3B75H         LINE#         331
  C:3B77H         LINE#         333
  C:3BAFH         LINE#         334
  C:3BAFH         LINE#         335
  C:3BB7H         LINE#         336
  C:3BC3H         LINE#         337
  C:3BC3H         LINE#         339
  C:3BF0H         LINE#         340
  C:3BF0H         LINE#         341
  C:3BFFH         LINE#         343
  C:3BFFH         LINE#         345
  -------         ENDPROC       _VALIDA_TRAMA_PTO
  -------         PROC          _MONITOR_CHR
  X:0033H         SYMBOL        str
  X:0036H         SYMBOL        num_char
  -------         DO            
  X:0037H         SYMBOL        j
  -------         ENDDO         
  C:BB4BH         LINE#         500
  C:BB59H         LINE#         501
  C:BB59H         LINE#         503
  C:BB67H         LINE#         504
  C:BB67H         LINE#         505
  C:BB79H         LINE#         506
  C:BB83H         LINE#         507
  C:BB8BH         LINE#         508
  -------         ENDPROC       _MONITOR_CHR
  -------         PROC          _CMD_LPR_SALIDA_WIEGAND
  X:0011H         SYMBOL        buffer
  -------         DO            
  X:0014H         SYMBOL        Buffer_Lpr
BL51 BANKED LINKER/LOCATER V6.22.2.0                                                  06/23/2021  14:18:03  PAGE 32


  X:0032H         SYMBOL        j
  -------         ENDDO         
  C:8E6FH         LINE#         513
  C:8E7AH         LINE#         514
  C:8E7AH         LINE#         516
  C:8E80H         LINE#         517
  C:8E85H         LINE#         518
  C:8E8DH         LINE#         519
  C:8E91H         LINE#         520
  C:8E9AH         LINE#         521
  C:8E9AH         LINE#         522
  C:8EABH         LINE#         523
  C:8EADH         LINE#         525
  C:8EADH         LINE#         526
  C:8EBEH         LINE#         527
  C:8EBEH         LINE#         531
  C:8ED5H         LINE#         532
  C:8ED5H         LINE#         533
  C:8EE4H         LINE#         534
  C:8EEEH         LINE#         536
  C:8EF6H         LINE#         537
  C:8F0AH         LINE#         539
  C:8F1AH         LINE#         540
  C:8F2BH         LINE#         541
  C:8F38H         LINE#         545
  -------         ENDPROC       _CMD_LPR_SALIDA_WIEGAND
  -------         ENDMOD        ACCESCAN

  -------         MODULE        CLOCK
  C:0000H         SYMBOL        _ICE_DUMMY_
  C:BBC0H         PUBLIC        _two_one
  D:0090H         PUBLIC        P1
  C:7A4EH         PUBLIC        _validar_clk
  C:C150H         PUBLIC        _wr_clk
  C:91A6H         PUBLIC        _check_fechaOut
  C:6240H         PUBLIC        _Block_read_clock_ascii_rasberry
  B:00D0H.7       PUBLIC        CY
  C:0003H         PUBLIC        p_ck
  C:A586H         PUBLIC        _hex_ascii
  C:B19AH         PUBLIC        _hora_entrada_vehiculo
  X:021CH         PUBLIC        data_clk
  C:C4CBH         PUBLIC        cond_ini_clock
  C:926FH         PUBLIC        _Block_read_Clock
  B:0090H.4       PUBLIC        sck
  C:9EB6H         PUBLIC        _Block_read_Clock_Hex
  C:6912H         PUBLIC        _Block_read_clock_ascii
  C:BD24H         PUBLIC        _hex_bcd
  C:C341H         PUBLIC        _bcd_hex
  C:B4F8H         PUBLIC        _ByteHex_Decimal
  C:A6B2H         PUBLIC        _lee_clk
  B:0090H.5       PUBLIC        io
  C:A147H         PUBLIC        _Block_write_clock_ascii
  B:0090H.6       PUBLIC        rst
  C:BC4DH         PUBLIC        _eb_clk
  C:4925H         PUBLIC        _Two_ByteHex_Decimal
  -------         PROC          P_CK
  C:0003H         LINE#         69
BL51 BANKED LINKER/LOCATER V6.22.2.0                                                  06/23/2021  14:18:03  PAGE 33


  C:0003H         LINE#         70
  C:0003H         LINE#         71
  C:0005H         LINE#         72
  C:0008H         LINE#         73
  C:000AH         LINE#         74
  -------         ENDPROC       P_CK
  -------         PROC          _EB_CLK
  X:00B4H         SYMBOL        dir_clk
  -------         DO            
  X:00B5H         SYMBOL        nbits
  -------         ENDDO         
  C:BC4DH         LINE#         76
  C:BC52H         LINE#         78
  C:BC57H         LINE#         79
  C:BC57H         LINE#         80
  C:BC60H         LINE#         81
  C:BC63H         LINE#         82
  C:BC63H         LINE#         83
  C:BC65H         LINE#         84
  C:BC67H         LINE#         86
  C:BC67H         LINE#         87
  C:BC69H         LINE#         88
  C:BC69H         LINE#         89
  C:BC6CH         LINE#         90
  C:BC8BH         LINE#         91
  -------         ENDPROC       _EB_CLK
  C:A6A8H         SYMBOL        L?0084
  -------         PROC          L?0083
  -------         ENDPROC       L?0083
  C:A6A8H         SYMBOL        L?0084
  -------         PROC          _LEE_CLK
  X:00B1H         SYMBOL        dir_clk
  -------         DO            
  X:00B2H         SYMBOL        nbits
  -------         ENDDO         
  C:A6B2H         LINE#         93
  C:A6B7H         LINE#         95
  C:A6B9H         LINE#         96
  C:A6C0H         LINE#         97
  C:A6C8H         LINE#         98
  C:A6E1H         LINE#         99
  C:A6E1H         LINE#         100
  C:A6E4H         LINE#         101
  C:A6E4H         LINE#         102
  C:A6EBH         LINE#         103
  C:A6F5H         LINE#         104
  C:A6FAH         LINE#         105
  C:A6FAH         LINE#         106
  C:A6FAH         LINE#         107
  C:A6FDH         LINE#         108
  C:A6FDH         LINE#         109
  C:A704H         LINE#         110
  C:A715H         LINE#         111
  C:A715H         LINE#         112
  C:A71DH         LINE#         113
  C:A71DH         LINE#         114
  C:A71DH         LINE#         115
BL51 BANKED LINKER/LOCATER V6.22.2.0                                                  06/23/2021  14:18:03  PAGE 34


  C:A720H         LINE#         116
  C:A730H         LINE#         117
  C:A732H         LINE#         118
  C:A737H         LINE#         119
  -------         ENDPROC       _LEE_CLK
  -------         PROC          _WR_CLK
  X:0014H         SYMBOL        dir_clk
  X:0015H         SYMBOL        byte
  C:C150H         LINE#         121
  C:C158H         LINE#         122
  C:C15AH         LINE#         123
  C:C161H         LINE#         124
  C:C169H         LINE#         125
  C:C172H         LINE#         126
  C:C175H         LINE#         127
  C:C177H         LINE#         129
  -------         ENDPROC       _WR_CLK
  C:BB8CH         SYMBOL        L?0079
  C:BBAAH         SYMBOL        L?0080
  -------         PROC          L?0078
  -------         ENDPROC       L?0078
  C:BB8CH         SYMBOL        L?0079
  C:BBAAH         SYMBOL        L?0080
  -------         PROC          _TWO_ONE
  D:0007H         SYMBOL        byte_h
  D:0005H         SYMBOL        byte_l
  -------         DO            
  D:0007H         SYMBOL        byte_out
  -------         ENDDO         
  C:BBC0H         LINE#         131
  C:BBC0H         LINE#         132
  C:BBC0H         LINE#         134
  C:BBC3H         LINE#         135
  C:BBC7H         LINE#         136
  C:BBCAH         LINE#         137
  C:BBCCH         LINE#         138
  C:BBCCH         LINE#         139
  -------         ENDPROC       _TWO_ONE
  -------         PROC          _VALIDAR_CLK
  D:0001H         SYMBOL        datos_clock
  -------         DO            
  D:0007H         SYMBOL        validador
  -------         ENDDO         
  C:7A4EH         LINE#         143
  C:7A4EH         LINE#         144
  C:7A4EH         LINE#         145
  C:7A50H         LINE#         148
  C:7A65H         LINE#         149
  C:7A65H         LINE#         151
  C:7A7DH         LINE#         152
  C:7A7DH         LINE#         154
  C:7A95H         LINE#         155
  C:7A95H         LINE#         156
  C:7AADH         LINE#         157
  C:7AADH         LINE#         158
  C:7AC5H         LINE#         159
  C:7AC5H         LINE#         160
BL51 BANKED LINKER/LOCATER V6.22.2.0                                                  06/23/2021  14:18:03  PAGE 35


  C:7ADAH         LINE#         161
  C:7ADAH         LINE#         162
  C:7AECH         LINE#         163
  C:7AECH         LINE#         164
  C:7AFEH         LINE#         165
  C:7AFEH         LINE#         166
  C:7B10H         LINE#         167
  C:7B10H         LINE#         168
  C:7B22H         LINE#         169
  C:7B22H         LINE#         170
  C:7B34H         LINE#         171
  C:7B34H         LINE#         172
  C:7B44H         LINE#         173
  C:7B44H         LINE#         174
  C:7B44H         LINE#         175
  C:7B44H         LINE#         176
  C:7B45H         LINE#         178
  C:7B45H         LINE#         179
  C:7B47H         LINE#         180
  C:7B47H         LINE#         181
  C:7B48H         LINE#         183
  C:7B48H         LINE#         184
  C:7B4AH         LINE#         186
  C:7B4AH         LINE#         187
  C:7B4BH         LINE#         189
  C:7B4BH         LINE#         190
  C:7B4DH         LINE#         192
  C:7B4DH         LINE#         194
  C:7B4EH         LINE#         196
  C:7B4EH         LINE#         197
  C:7B50H         LINE#         199
  C:7B50H         LINE#         200
  C:7B51H         LINE#         202
  C:7B51H         LINE#         203
  C:7B53H         LINE#         205
  C:7B53H         LINE#         206
  C:7B54H         LINE#         208
  C:7B54H         LINE#         209
  C:7B56H         LINE#         211
  C:7B56H         LINE#         212
  C:7B57H         LINE#         214
  C:7B57H         LINE#         215
  C:7B59H         LINE#         217
  C:7B59H         LINE#         218
  C:7B59H         LINE#         220
  C:7B5AH         LINE#         222
  C:7B5AH         LINE#         223
  C:7B5CH         LINE#         225
  C:7B5CH         LINE#         227
  C:7B5DH         LINE#         230
  C:7B5DH         LINE#         231
  C:7B5FH         LINE#         233
  C:7B5FH         LINE#         235
  C:7B60H         LINE#         238
  C:7B60H         LINE#         239
  C:7B62H         LINE#         241
  C:7B62H         LINE#         243
BL51 BANKED LINKER/LOCATER V6.22.2.0                                                  06/23/2021  14:18:03  PAGE 36


  C:7B62H         LINE#         245
  -------         ENDPROC       _VALIDAR_CLK
  -------         PROC          _BLOCK_WRITE_CLOCK_ASCII
  X:0011H         SYMBOL        datos_clock
  -------         DO            
  D:0007H         SYMBOL        temp
  -------         ENDDO         
  C:A147H         LINE#         251
  C:A152H         LINE#         253
  C:A152H         LINE#         256
  C:A15BH         LINE#         257
  C:A164H         LINE#         259
  C:A16EH         LINE#         260
  C:A16EH         LINE#         261
  C:A16EH         LINE#         262
  C:A16EH         LINE#         264
  C:A178H         LINE#         265
  C:A182H         LINE#         266
  C:A18CH         LINE#         267
  C:A18CH         LINE#         268
  C:A18CH         LINE#         269
  C:A18CH         LINE#         271
  C:A196H         LINE#         272
  C:A196H         LINE#         273
  C:A196H         LINE#         274
  C:A196H         LINE#         276
  C:A1A0H         LINE#         277
  C:A1A0H         LINE#         278
  C:A1A0H         LINE#         279
  C:A1A0H         LINE#         281
  C:A1AAH         LINE#         282
  C:A1AAH         LINE#         283
  C:A1AAH         LINE#         284
  C:A1AAH         LINE#         286
  C:A1B4H         LINE#         287
  C:A1BEH         LINE#         288
  C:A1C8H         LINE#         289
  C:A1D2H         LINE#         291
  C:A1E2H         LINE#         292
  -------         ENDPROC       _BLOCK_WRITE_CLOCK_ASCII
  -------         PROC          _BCD_HEX
  D:0007H         SYMBOL        l_data
  -------         DO            
  D:0006H         SYMBOL        temp
  D:0005H         SYMBOL        j
  -------         ENDDO         
  C:C341H         LINE#         298
  C:C341H         LINE#         299
  C:C341H         LINE#         301
  C:C343H         LINE#         302
  C:C347H         LINE#         303
  C:C34AH         LINE#         304
  C:C34CH         LINE#         305
  C:C34CH         LINE#         306
  C:C350H         LINE#         307
  C:C357H         LINE#         308
  C:C357H         LINE#         309
BL51 BANKED LINKER/LOCATER V6.22.2.0                                                  06/23/2021  14:18:03  PAGE 37


  C:C35BH         LINE#         310
  C:C35EH         LINE#         311
  C:C35EH         LINE#         312
  C:C35EH         LINE#         313
  -------         ENDPROC       _BCD_HEX
  C:BD15H         SYMBOL        L?0082
  -------         PROC          L?0081
  -------         ENDPROC       L?0081
  C:BD15H         SYMBOL        L?0082
  -------         PROC          _HEX_BCD
  D:0007H         SYMBOL        byte
  -------         DO            
  D:0006H         SYMBOL        nibble_h
  D:0005H         SYMBOL        nibble_l
  D:0004H         SYMBOL        k
  D:0007H         SYMBOL        byte_out
  -------         ENDDO         
  C:BD24H         LINE#         317
  C:BD24H         LINE#         318
  C:BD24H         LINE#         323
  C:BD26H         LINE#         324
  C:BD27H         LINE#         326
  C:BD2DH         LINE#         327
  C:BD2DH         LINE#         328
  C:BD2EH         LINE#         329
  C:BD33H         LINE#         330
  C:BD33H         LINE#         331
  C:BD34H         LINE#         332
  C:BD35H         LINE#         333
  C:BD35H         LINE#         334
  C:BD38H         LINE#         335
  C:BD3CH         LINE#         336
  C:BD3FH         LINE#         337
  C:BD42H         LINE#         338
  C:BD44H         LINE#         339
  C:BD44H         LINE#         341
  -------         ENDPROC       _HEX_BCD
  -------         PROC          _HEX_ASCII
  X:005DH         SYMBOL        datos
  X:0060H         SYMBOL        fecha_asii
  -------         DO            
  D:0007H         SYMBOL        dato
  -------         ENDDO         
  C:A586H         LINE#         342
  C:A591H         LINE#         343
  C:A591H         LINE#         347
  C:A594H         LINE#         348
  C:A5ACH         LINE#         349
  C:A5C1H         LINE#         350
  C:A5C1H         LINE#         352
  C:A5C4H         LINE#         353
  C:A5DFH         LINE#         354
  C:A5E7H         LINE#         355
  C:A5E7H         LINE#         357
  C:A5EAH         LINE#         358
  C:A605H         LINE#         359
  C:A610H         LINE#         361
BL51 BANKED LINKER/LOCATER V6.22.2.0                                                  06/23/2021  14:18:03  PAGE 38


  -------         ENDPROC       _HEX_ASCII
  -------         PROC          _BYTEHEX_DECIMAL
  D:0001H         SYMBOL        buffer
  D:0005H         SYMBOL        valorhex
  -------         DO            
  X:0014H         SYMBOL        numero
  D:0007H         SYMBOL        centena
  D:0006H         SYMBOL        decena
  -------         ENDDO         
  C:B4F8H         LINE#         369
  C:B4F8H         LINE#         370
  C:B4F8H         LINE#         373
  C:B4FAH         LINE#         374
  C:B4FBH         LINE#         375
  C:B500H         LINE#         377
  C:B50DH         LINE#         378
  C:B50DH         LINE#         379
  C:B511H         LINE#         380
  C:B512H         LINE#         381
  C:B514H         LINE#         382
  C:B51AH         LINE#         383
  C:B521H         LINE#         384
  C:B52EH         LINE#         385
  C:B52EH         LINE#         386
  C:B532H         LINE#         387
  C:B533H         LINE#         388
  C:B535H         LINE#         389
  C:B53BH         LINE#         390
  C:B542H         LINE#         391
  C:B54BH         LINE#         392
  C:B552H         LINE#         393
  -------         ENDPROC       _BYTEHEX_DECIMAL
  -------         PROC          _TWO_BYTEHEX_DECIMAL
  X:0014H         SYMBOL        buffer
  X:0017H         SYMBOL        id_h
  X:0018H         SYMBOL        id_l
  -------         DO            
  X:0019H         SYMBOL        valor
  D:0006H         SYMBOL        numero
  X:001BH         SYMBOL        temp
  X:001CH         SYMBOL        dmil
  X:001DH         SYMBOL        mil
  X:001EH         SYMBOL        centena
  X:001FH         SYMBOL        decena
  -------         ENDDO         
  C:4925H         LINE#         400
  C:4933H         LINE#         401
  C:4933H         LINE#         405
  C:493AH         LINE#         406
  C:493EH         LINE#         407
  C:4940H         LINE#         408
  C:4942H         LINE#         409
  C:4944H         LINE#         412
  C:4949H         LINE#         413
  C:494CH         LINE#         414
  C:4952H         LINE#         416
  C:49ADH         LINE#         417
BL51 BANKED LINKER/LOCATER V6.22.2.0                                                  06/23/2021  14:18:03  PAGE 39


  C:49B5H         LINE#         418
  C:49B8H         LINE#         419
  C:4A13H         LINE#         421
  C:4A1BH         LINE#         422
  C:4A1EH         LINE#         423
  C:4A24H         LINE#         424
  C:4A7FH         LINE#         425
  C:4A87H         LINE#         426
  C:4A8AH         LINE#         427
  C:4AE5H         LINE#         428
  C:4AE5H         LINE#         430
  C:4AEEH         LINE#         431
  C:4AEEH         LINE#         432
  C:4AF6H         LINE#         433
  C:4AFCH         LINE#         434
  C:4AFEH         LINE#         435
  C:4B14H         LINE#         436
  C:4B1EH         LINE#         437
  C:4B27H         LINE#         438
  C:4B27H         LINE#         439
  C:4B2FH         LINE#         440
  C:4B35H         LINE#         441
  C:4B37H         LINE#         442
  C:4B4DH         LINE#         443
  C:4B57H         LINE#         444
  C:4B60H         LINE#         445
  C:4B60H         LINE#         446
  C:4B68H         LINE#         447
  C:4B6EH         LINE#         448
  C:4B70H         LINE#         449
  C:4B86H         LINE#         450
  C:4B90H         LINE#         451
  C:4B99H         LINE#         452
  C:4B99H         LINE#         453
  C:4BA1H         LINE#         454
  C:4BA7H         LINE#         455
  C:4BA9H         LINE#         456
  C:4BBFH         LINE#         457
  C:4BC9H         LINE#         458
  C:4BDCH         LINE#         459
  C:4BE6H         LINE#         460
  -------         ENDPROC       _TWO_BYTEHEX_DECIMAL
  -------         PROC          _BLOCK_READ_CLOCK_ASCII
  X:0051H         SYMBOL        datos_clock
  -------         DO            
  D:0007H         SYMBOL        dato
  -------         ENDDO         
  C:6912H         LINE#         466
  C:6915H         LINE#         467
  C:6915H         LINE#         473
  C:6918H         LINE#         474
  C:6930H         LINE#         475
  C:693AH         LINE#         476
  C:694FH         LINE#         477
  C:6959H         LINE#         480
  C:695EH         LINE#         481
  C:6976H         LINE#         482
BL51 BANKED LINKER/LOCATER V6.22.2.0                                                  06/23/2021  14:18:03  PAGE 40


  C:6980H         LINE#         483
  C:6995H         LINE#         484
  C:699FH         LINE#         487
  C:69A4H         LINE#         488
  C:69BCH         LINE#         489
  C:69C6H         LINE#         490
  C:69DBH         LINE#         491
  C:69E5H         LINE#         495
  C:69EAH         LINE#         496
  C:6A02H         LINE#         497
  C:6A0CH         LINE#         498
  C:6A21H         LINE#         499
  C:6A2BH         LINE#         502
  C:6A30H         LINE#         503
  C:6A48H         LINE#         504
  C:6A52H         LINE#         505
  C:6A67H         LINE#         506
  C:6A71H         LINE#         507
  -------         ENDPROC       _BLOCK_READ_CLOCK_ASCII
  -------         PROC          _BLOCK_READ_CLOCK_ASCII_RASBERRY
  X:001EH         SYMBOL        datos_clock
  -------         DO            
  D:0007H         SYMBOL        dato
  -------         ENDDO         
  C:6240H         LINE#         510
  C:624BH         LINE#         511
  C:624BH         LINE#         516
  C:6250H         LINE#         517
  C:6268H         LINE#         518
  C:6272H         LINE#         519
  C:6287H         LINE#         520
  C:6291H         LINE#         523
  C:6296H         LINE#         524
  C:62AEH         LINE#         525
  C:62B8H         LINE#         526
  C:62CDH         LINE#         527
  C:62D7H         LINE#         531
  C:62DCH         LINE#         532
  C:62F4H         LINE#         533
  C:62FEH         LINE#         534
  C:6313H         LINE#         535
  C:631DH         LINE#         540
  C:6322H         LINE#         541
  C:633AH         LINE#         542
  C:6344H         LINE#         543
  C:6359H         LINE#         544
  C:6363H         LINE#         547
  C:6368H         LINE#         548
  C:6380H         LINE#         549
  C:638AH         LINE#         550
  C:639FH         LINE#         551
  C:63A9H         LINE#         552
  C:63B9H         LINE#         553
  C:63C3H         LINE#         556
  C:63C8H         LINE#         557
  C:63E0H         LINE#         558
  C:63EAH         LINE#         559
BL51 BANKED LINKER/LOCATER V6.22.2.0                                                  06/23/2021  14:18:03  PAGE 41


  C:63FFH         LINE#         561
  C:6409H         LINE#         562
  -------         ENDPROC       _BLOCK_READ_CLOCK_ASCII_RASBERRY
  -------         PROC          _BLOCK_READ_CLOCK_HEX
  X:00AEH         SYMBOL        datos_clock
  C:9EB6H         LINE#         566
  C:9EB9H         LINE#         567
  C:9EB9H         LINE#         570
  C:9ECEH         LINE#         571
  C:9ED8H         LINE#         573
  C:9EEFH         LINE#         574
  C:9EF9H         LINE#         576
  C:9F10H         LINE#         577
  C:9F1AH         LINE#         579
  C:9F31H         LINE#         580
  C:9F3BH         LINE#         582
  C:9F52H         LINE#         583
  -------         ENDPROC       _BLOCK_READ_CLOCK_HEX
  -------         PROC          _HORA_ENTRADA_VEHICULO
  X:0005H         SYMBOL        Atributos_Expedidor
  C:B19AH         LINE#         586
  C:B19DH         LINE#         587
  C:B19DH         LINE#         589
  C:B1B2H         LINE#         590
  C:B1C9H         LINE#         591
  C:B1E0H         LINE#         592
  C:B1F7H         LINE#         593
  -------         ENDPROC       _HORA_ENTRADA_VEHICULO
  -------         PROC          _BLOCK_READ_CLOCK
  X:001EH         SYMBOL        datos_clock
  C:926FH         LINE#         599
  C:9272H         LINE#         600
  C:9272H         LINE#         602
  C:9284H         LINE#         603
  C:928EH         LINE#         605
  C:92A2H         LINE#         606
  C:92ACH         LINE#         608
  C:92C0H         LINE#         609
  C:92CAH         LINE#         611
  C:92DEH         LINE#         612
  C:92E8H         LINE#         614
  C:92FCH         LINE#         615
  C:9306H         LINE#         617
  C:931AH         LINE#         618
  C:9324H         LINE#         619
  -------         ENDPROC       _BLOCK_READ_CLOCK
  -------         PROC          COND_INI_CLOCK
  C:C4CBH         LINE#         622
  C:C4CBH         LINE#         623
  C:C4CBH         LINE#         624
  C:C4CDH         LINE#         625
  C:C4CFH         LINE#         626
  C:C4D1H         LINE#         627
  -------         ENDPROC       COND_INI_CLOCK
  -------         PROC          _CHECK_FECHAOUT
  X:009CH         SYMBOL        buffer
  -------         DO            
BL51 BANKED LINKER/LOCATER V6.22.2.0                                                  06/23/2021  14:18:03  PAGE 42


  X:009FH         SYMBOL        fecha_inicio
  X:00A3H         SYMBOL        fecha_fin
  X:00A7H         SYMBOL        datos_clk
  X:00ADH         SYMBOL        temp
  -------         ENDDO         
  C:91A6H         LINE#         637
  C:91B1H         LINE#         638
  C:91B1H         LINE#         644
  C:91BAH         LINE#         645
  C:91E9H         LINE#         646
  C:923CH         LINE#         649
  C:925CH         LINE#         650
  C:925CH         LINE#         651
  C:9262H         LINE#         652
  C:9264H         LINE#         654
  C:9264H         LINE#         655
  C:9269H         LINE#         656
  C:9269H         LINE#         660
  C:926EH         LINE#         661
  -------         ENDPROC       _CHECK_FECHAOUT
  -------         ENDMOD        CLOCK

  -------         MODULE        DELAY
  C:0000H         SYMBOL        _ICE_DUMMY_
  C:BEADH         PUBLIC        _Delay_10ms
  C:C3FEH         PUBLIC        _Delay_20us
  C:C35FH         PUBLIC        _Delay_1ms
  C:C516H         PUBLIC        Delay
  -------         PROC          _DELAY_20US
  D:0006H         SYMBOL        cntd_us
  -------         DO            
  D:0004H         SYMBOL        i
  -------         ENDDO         
  C:C3FEH         LINE#         20
  C:C3FEH         LINE#         21
  C:C3FEH         LINE#         24
  C:C408H         LINE#         26
  C:C40FH         LINE#         27
  -------         ENDPROC       _DELAY_20US
  -------         PROC          _DELAY_1MS
  D:0002H         SYMBOL        cntd_ms
  -------         DO            
  D:0082H         SYMBOL        i
  -------         ENDDO         
  C:C35FH         LINE#         38
  C:C363H         LINE#         39
  C:C363H         LINE#         41
  C:C379H         LINE#         42
  -------         ENDPROC       _DELAY_1MS
  -------         PROC          _DELAY_10MS
  X:001CH         SYMBOL        cntd_10ms
  -------         DO            
  X:001EH         SYMBOL        i
  -------         ENDDO         
  C:BEADH         LINE#         54
  C:BEB5H         LINE#         55
  C:BEB5H         LINE#         57
BL51 BANKED LINKER/LOCATER V6.22.2.0                                                  06/23/2021  14:18:03  PAGE 43


  C:BEE6H         LINE#         58
  -------         ENDPROC       _DELAY_10MS
  -------         PROC          DELAY
  C:C516H         LINE#         60
  C:C516H         LINE#         62
  -------         ENDPROC       DELAY
  -------         ENDMOD        DELAY

  -------         MODULE        EEPROM
  C:0000H         SYMBOL        _ICE_DUMMY_
  D:0090H         PUBLIC        P1
  C:875AH         PUBLIC        _Write_EEprom_Ticket
  C:B27FH         PUBLIC        _EscribirMemoria
  X:0210H         PUBLIC        l_chr
  C:C2C6H         PUBLIC        ackd
  B:0021H.6       PUBLIC        memory_flag
  B:00D0H.7       PUBLIC        CY
  C:C503H         PUBLIC        p_me
  C:C418H         PUBLIC        start
  B:0090H.2       PUBLIC        sda
  C:C2E6H         PUBLIC        ack_lect
  B:0090H.3       PUBLIC        scl
  C:BD49H         PUBLIC        _rd_eeprom
  C:C4A5H         PUBLIC        stop
  C:BF59H         PUBLIC        Formato_eeprom
  X:0211H         PUBLIC        l_data_eeprom
  C:B681H         PUBLIC        _wr_eeprom
  C:B430H         PUBLIC        _LeerMemoria
  C:BFFBH         PUBLIC        Incremente_Ticket
  X:0212H         PUBLIC        byte_rd
  C:90DCH         PUBLIC        Read_EEprom_Ticket
  C:C25EH         PUBLIC        _e_d_m
  C:8F45H         PUBLIC        _graba_serie
  C:B7AEH         PUBLIC        Lee_No_Ticket
  C:B761H         PUBLIC        l_d_m
  -------         PROC          L?0062
  -------         ENDPROC       L?0062
  -------         PROC          ACKD
  -------         DO            
  D:0006H         SYMBOL        i
  -------         ENDDO         
  C:C2C6H         LINE#         37
  C:C2C6H         LINE#         38
  C:C2C6H         LINE#         40
  C:C2C8H         LINE#         41
  C:C2CAH         LINE#         42
  C:C2CCH         LINE#         43
  C:C2CFH         LINE#         44
  C:C2CFH         LINE#         45
  C:C2D2H         LINE#         46
  C:C2D2H         LINE#         47
  C:C2D4H         LINE#         48
  C:C2D6H         LINE#         50
  C:C2D7H         LINE#         51
  C:C2D7H         LINE#         52
  C:C2E2H         LINE#         54
  C:C2E2H         LINE#         55
BL51 BANKED LINKER/LOCATER V6.22.2.0                                                  06/23/2021  14:18:03  PAGE 44


  C:C2E2H         LINE#         57
  C:C2E2H         LINE#         58
  -------         ENDPROC       ACKD
  -------         PROC          L?0066
  -------         ENDPROC       L?0066
  -------         PROC          ACK_LECT
  -------         DO            
  D:0006H         SYMBOL        i
  -------         ENDDO         
  C:C2E6H         LINE#         61
  C:C2E6H         LINE#         62
  C:C2E6H         LINE#         64
  C:C2E8H         LINE#         65
  C:C2EAH         LINE#         66
  C:C2ECH         LINE#         67
  C:C2EFH         LINE#         68
  C:C2EFH         LINE#         69
  C:C2F2H         LINE#         70
  C:C2F2H         LINE#         71
  C:C2F4H         LINE#         72
  C:C2F6H         LINE#         73
  C:C2F7H         LINE#         74
  C:C2F7H         LINE#         75
  C:C302H         LINE#         76
  -------         ENDPROC       ACK_LECT
  -------         PROC          P_ME
  C:C503H         LINE#         78
  C:C503H         LINE#         79
  C:C503H         LINE#         80
  C:C505H         LINE#         81
  C:C506H         LINE#         82
  C:C508H         LINE#         83
  -------         ENDPROC       P_ME
  -------         PROC          _E_D_M
  D:0007H         SYMBOL        a_serial_eeprom
  -------         DO            
  D:0006H         SYMBOL        nbits
  -------         ENDDO         
  C:C25EH         LINE#         85
  C:C25EH         LINE#         86
  C:C25EH         LINE#         88
  C:C26AH         LINE#         89
  C:C26AH         LINE#         90
  C:C26EH         LINE#         91
  C:C271H         LINE#         92
  C:C271H         LINE#         93
  C:C273H         LINE#         94
  C:C275H         LINE#         96
  C:C275H         LINE#         97
  C:C277H         LINE#         98
  C:C277H         LINE#         99
  C:C279H         LINE#         100
  C:C27CH         LINE#         101
  C:C27FH         LINE#         103
  -------         ENDPROC       _E_D_M
  -------         PROC          L?0063
  -------         ENDPROC       L?0063
BL51 BANKED LINKER/LOCATER V6.22.2.0                                                  06/23/2021  14:18:03  PAGE 45


  -------         PROC          START
  C:C418H         LINE#         105
  C:C418H         LINE#         106
  C:C418H         LINE#         107
  C:C41AH         LINE#         108
  C:C41CH         LINE#         109
  C:C41DH         LINE#         110
  C:C41FH         LINE#         111
  C:C421H         LINE#         113
  -------         ENDPROC       START
  -------         PROC          STOP
  C:C4A5H         LINE#         115
  C:C4A5H         LINE#         116
  C:C4A5H         LINE#         117
  C:C4A7H         LINE#         118
  C:C4A9H         LINE#         119
  C:C4AAH         LINE#         120
  C:C4ACH         LINE#         121
  C:C4AEH         LINE#         123
  -------         ENDPROC       STOP
  -------         PROC          L_D_M
  -------         DO            
  D:0003H         SYMBOL        nbits
  -------         ENDDO         
  C:B761H         LINE#         125
  C:B761H         LINE#         126
  C:B761H         LINE#         128
  C:B76EH         LINE#         129
  C:B76EH         LINE#         130
  C:B770H         LINE#         131
  C:B773H         LINE#         132
  C:B773H         LINE#         133
  C:B77AH         LINE#         134
  C:B783H         LINE#         135
  C:B783H         LINE#         136
  C:B787H         LINE#         137
  C:B789H         LINE#         138
  C:B789H         LINE#         139
  C:B789H         LINE#         140
  C:B78CH         LINE#         141
  C:B78CH         LINE#         142
  C:B793H         LINE#         143
  C:B79DH         LINE#         144
  C:B79DH         LINE#         145
  C:B7A1H         LINE#         146
  C:B7A3H         LINE#         147
  C:B7A3H         LINE#         148
  C:B7A3H         LINE#         149
  C:B7A6H         LINE#         150
  C:B7A8H         LINE#         151
  C:B7ADH         LINE#         152
  -------         ENDPROC       L_D_M
  -------         PROC          L?0061
  -------         ENDPROC       L?0061
  -------         PROC          _WR_EEPROM
  D:0002H         SYMBOL        control
  D:0004H         SYMBOL        Dir
BL51 BANKED LINKER/LOCATER V6.22.2.0                                                  06/23/2021  14:18:03  PAGE 46


  D:0003H         SYMBOL        data_eeprom
  -------         DO            
  D:0005H         SYMBOL        dir_h
  D:0001H         SYMBOL        dir_l
  -------         ENDDO         
  C:B681H         LINE#         158
  C:B683H         LINE#         159
  C:B683H         LINE#         161
  C:B687H         LINE#         162
  C:B687H         LINE#         163
  C:B687H         LINE#         166
  C:B687H         LINE#         167
  C:B687H         LINE#         169
  C:B68AH         LINE#         170
  C:B68CH         LINE#         171
  C:B68FH         LINE#         172
  C:B691H         LINE#         173
  C:B694H         LINE#         174
  C:B699H         LINE#         175
  C:B69CH         LINE#         176
  C:B6A1H         LINE#         177
  C:B6A4H         LINE#         178
  C:B6A7H         LINE#         179
  C:B6AEH         LINE#         181
  C:B6B0H         LINE#         182
  C:B6B2H         LINE#         183
  C:B6B9H         LINE#         184
  -------         ENDPROC       _WR_EEPROM
  C:BD45H         SYMBOL        L?0065
  -------         PROC          L?0064
  -------         ENDPROC       L?0064
  C:BD45H         SYMBOL        L?0065
  -------         PROC          _RD_EEPROM
  D:0003H         SYMBOL        control
  D:0004H         SYMBOL        Dir
  -------         DO            
  D:0005H         SYMBOL        dir_h
  D:0002H         SYMBOL        dir_l
  -------         ENDDO         
  C:BD49H         LINE#         222
  C:BD4BH         LINE#         223
  C:BD4BH         LINE#         226
  C:BD4FH         LINE#         227
  C:BD4FH         LINE#         228
  C:BD4FH         LINE#         230
  C:BD4FH         LINE#         231
  C:BD4FH         LINE#         233
  C:BD52H         LINE#         234
  C:BD54H         LINE#         235
  C:BD57H         LINE#         236
  C:BD59H         LINE#         237
  C:BD5CH         LINE#         238
  C:BD61H         LINE#         239
  C:BD64H         LINE#         240
  C:BD67H         LINE#         241
  C:BD6DH         LINE#         242
  C:BD70H         LINE#         243
BL51 BANKED LINKER/LOCATER V6.22.2.0                                                  06/23/2021  14:18:03  PAGE 47


  C:BD72H         LINE#         244
  C:BD75H         LINE#         245
  C:BD78H         LINE#         246
  C:BD7AH         LINE#         247
  C:BD7CH         LINE#         248
  C:BD81H         LINE#         249
  -------         ENDPROC       _RD_EEPROM
  -------         PROC          _GRABA_SERIE
  X:0011H         SYMBOL        buffer
  -------         DO            
  X:0014H         SYMBOL        j
  X:0015H         SYMBOL        error
  -------         ENDDO         
  C:8F45H         LINE#         256
  C:8F50H         LINE#         257
  C:8F50H         LINE#         260
  C:8F55H         LINE#         265
  C:8F67H         LINE#         267
  C:8F7AH         LINE#         268
  C:8F7AH         LINE#         269
  C:8FA3H         LINE#         270
  C:8FA3H         LINE#         271
  C:8FA9H         LINE#         273
  C:8FB2H         LINE#         274
  C:8FC0H         LINE#         275
  C:8FC9H         LINE#         276
  C:8FC9H         LINE#         278
  C:8FD1H         LINE#         282
  C:8FD7H         LINE#         283
  C:8FD7H         LINE#         284
  C:8FE5H         LINE#         286
  C:8FE5H         LINE#         288
  C:8FE5H         LINE#         289
  C:8FEFH         LINE#         290
  C:8FFAH         LINE#         291
  C:9005H         LINE#         292
  C:9010H         LINE#         294
  C:9010H         LINE#         295
  -------         ENDPROC       _GRABA_SERIE
  -------         PROC          _WRITE_EEPROM_TICKET
  X:0016H         SYMBOL        buffer
  -------         DO            
  X:0019H         SYMBOL        cod_3
  X:001AH         SYMBOL        cod_2
  X:001BH         SYMBOL        cod_1
  X:001CH         SYMBOL        cod_0
  X:001DH         SYMBOL        Noticket
  D:0004H         SYMBOL        Bnoticket
  -------         ENDDO         
  C:875AH         LINE#         296
  C:8765H         LINE#         297
  C:8765H         LINE#         299
  C:876DH         LINE#         300
  C:8776H         LINE#         301
  C:8784H         LINE#         302
  C:878DH         LINE#         303
  C:87A1H         LINE#         305
BL51 BANKED LINKER/LOCATER V6.22.2.0                                                  06/23/2021  14:18:03  PAGE 48


  C:87AAH         LINE#         306
  C:87BDH         LINE#         307
  C:87C2H         LINE#         308
  C:87C5H         LINE#         310
  C:87D8H         LINE#         311
  C:87DDH         LINE#         312
  C:87E0H         LINE#         314
  C:87F3H         LINE#         315
  C:87F8H         LINE#         316
  C:87FBH         LINE#         318
  C:8807H         LINE#         319
  C:880AH         LINE#         320
  C:8813H         LINE#         322
  C:8821H         LINE#         323
  C:882FH         LINE#         324
  C:883DH         LINE#         325
  -------         ENDPROC       _WRITE_EEPROM_TICKET
  -------         PROC          LEE_NO_TICKET
  -------         DO            
  D:0004H         SYMBOL        Noticket
  X:0059H         SYMBOL        Lee_No_Ticket
  D:0007H         SYMBOL        num_chr
  -------         ENDDO         
  C:B7AEH         LINE#         330
  C:B7AEH         LINE#         331
  C:B7AEH         LINE#         335
  C:B7B1H         LINE#         336
  C:B7CCH         LINE#         337
  C:B7D5H         LINE#         338
  C:B7E1H         LINE#         339
  C:B7EAH         LINE#         340
  C:B7F3H         LINE#         341
  C:B7F9H         LINE#         342
  -------         ENDPROC       LEE_NO_TICKET
  -------         PROC          READ_EEPROM_TICKET
  -------         DO            
  D:0001H         SYMBOL        cod3
  X:0064H         SYMBOL        cod2
  X:0065H         SYMBOL        cod1
  X:0066H         SYMBOL        cod0
  X:0067H         SYMBOL        Noticket
  -------         ENDDO         
  C:90DCH         LINE#         346
  C:90DCH         LINE#         347
  C:90DCH         LINE#         349
  C:90E6H         LINE#         350
  C:90EDH         LINE#         351
  C:90F7H         LINE#         352
  C:9105H         LINE#         353
  C:910FH         LINE#         355
  C:912FH         LINE#         356
  C:9154H         LINE#         357
  C:9179H         LINE#         358
  C:9197H         LINE#         359
  C:91A5H         LINE#         360
  -------         ENDPROC       READ_EEPROM_TICKET
  -------         PROC          INCREMENTE_TICKET
BL51 BANKED LINKER/LOCATER V6.22.2.0                                                  06/23/2021  14:18:03  PAGE 49


  -------         DO            
  D:0004H         SYMBOL        Noticket
  X:0009H         SYMBOL        Lee_No_Ticket
  -------         ENDDO         
  C:BFFBH         LINE#         364
  C:BFFBH         LINE#         365
  C:BFFBH         LINE#         369
  C:BFFEH         LINE#         370
  C:C00BH         LINE#         371
  C:C026H         LINE#         372
  -------         ENDPROC       INCREMENTE_TICKET
  -------         PROC          _LEERMEMORIA
  X:009CH         SYMBOL        addres
  X:009EH         SYMBOL        res
  -------         DO            
  D:0007H         SYMBOL        i
  -------         ENDDO         
  C:B430H         LINE#         378
  C:B441H         LINE#         379
  C:B441H         LINE#         381
  C:B441H         LINE#         382
  C:B45DH         LINE#         383
  C:B46CH         LINE#         384
  C:B47AH         LINE#         385
  C:B484H         LINE#         386
  C:B487H         LINE#         387
  -------         ENDPROC       _LEERMEMORIA
  -------         PROC          _ESCRIBIRMEMORIA
  X:005DH         SYMBOL        addres
  X:005FH         SYMBOL        res
  C:B27FH         LINE#         389
  C:B290H         LINE#         390
  C:B290H         LINE#         393
  C:B2A0H         LINE#         394
  C:B2A7H         LINE#         395
  C:B2AAH         LINE#         397
  C:B2B8H         LINE#         398
  C:B2C2H         LINE#         399
  C:B2C4H         LINE#         400
  C:B2C7H         LINE#         401
  C:B2D5H         LINE#         402
  C:B2DFH         LINE#         403
  -------         ENDPROC       _ESCRIBIRMEMORIA
  -------         PROC          FORMATO_EEPROM
  -------         DO            
  X:0011H         SYMBOL        dato
  X:0012H         SYMBOL        i
  -------         ENDDO         
  C:BF59H         LINE#         406
  C:BF59H         LINE#         407
  C:BF59H         LINE#         408
  C:BF5FH         LINE#         410
  C:BF74H         LINE#         411
  C:BF74H         LINE#         412
  C:BF7EH         LINE#         413
  C:BF8EH         LINE#         414
  -------         ENDPROC       FORMATO_EEPROM
BL51 BANKED LINKER/LOCATER V6.22.2.0                                                  06/23/2021  14:18:03  PAGE 50


  -------         ENDMOD        EEPROM

  -------         MODULE        IO_SENSORES
  C:0000H         SYMBOL        _ICE_DUMMY_
  D:0090H         PUBLIC        P1
  D:00B0H         PUBLIC        P3
  C:BAC6H         PUBLIC        Dir_board
  B:0021H.7       PUBLIC        PULSADOR_BOTTON
  C:C4E0H         PUBLIC        sel_Pulsa
  B:0090H.1       PUBLIC        DataIn
  C:C3C0H         PUBLIC        Dir_Board_Monitor
  C:C4D9H         PUBLIC        sel_Auto
  C:BF21H         PUBLIC        ValidaSensoresPaso
  B:00B0H.3       PUBLIC        busy
  C:C303H         PUBLIC        ValidaSensor
  C:C4EEH         PUBLIC        sel_Sensor1
  C:C4E7H         PUBLIC        sel_Sensor2
  C:C280H         PUBLIC        ValidaSensor_cero
  C:B60FH         PUBLIC        Valida_Sensor1_Auto
  B:00B0H.5       PUBLIC        sel_A
  B:00B0H.6       PUBLIC        sel_B
  B:00B0H.7       PUBLIC        sel_C
  C:9C08H         PUBLIC        msj_lcd_informativo
  C:C4F5H         PUBLIC        sel_Dir1
  C:C4FCH         PUBLIC        sel_Dir2
  C:C422H         PUBLIC        Botton
  C:C4D2H         PUBLIC        sel_Funcion
  -------         PROC          SEL_FUNCION
  C:C4D2H         LINE#         34
  C:C4D2H         LINE#         35
  C:C4D2H         LINE#         36
  C:C4D4H         LINE#         37
  C:C4D6H         LINE#         38
  C:C4D8H         LINE#         39
  -------         ENDPROC       SEL_FUNCION
  -------         PROC          SEL_AUTO
  C:C4D9H         LINE#         41
  C:C4D9H         LINE#         42
  C:C4D9H         LINE#         43
  C:C4DBH         LINE#         44
  C:C4DDH         LINE#         45
  C:C4DFH         LINE#         46
  -------         ENDPROC       SEL_AUTO
  -------         PROC          SEL_PULSA
  C:C4E0H         LINE#         48
  C:C4E0H         LINE#         49
  C:C4E0H         LINE#         50
  C:C4E2H         LINE#         51
  C:C4E4H         LINE#         52
  C:C4E6H         LINE#         53
  -------         ENDPROC       SEL_PULSA
  -------         PROC          SEL_SENSOR2
  C:C4E7H         LINE#         56
  C:C4E7H         LINE#         57
  C:C4E7H         LINE#         58
  C:C4E9H         LINE#         59
  C:C4EBH         LINE#         60
BL51 BANKED LINKER/LOCATER V6.22.2.0                                                  06/23/2021  14:18:03  PAGE 51


  C:C4EDH         LINE#         61
  -------         ENDPROC       SEL_SENSOR2
  -------         PROC          SEL_SENSOR1
  C:C4EEH         LINE#         63
  C:C4EEH         LINE#         64
  C:C4EEH         LINE#         65
  C:C4F0H         LINE#         66
  C:C4F2H         LINE#         67
  C:C4F4H         LINE#         68
  -------         ENDPROC       SEL_SENSOR1
  -------         PROC          SEL_DIR1
  C:C4F5H         LINE#         70
  C:C4F5H         LINE#         71
  C:C4F5H         LINE#         72
  C:C4F7H         LINE#         73
  C:C4F9H         LINE#         74
  C:C4FBH         LINE#         75
  -------         ENDPROC       SEL_DIR1
  -------         PROC          SEL_DIR2
  C:C4FCH         LINE#         77
  C:C4FCH         LINE#         78
  C:C4FCH         LINE#         79
  C:C4FEH         LINE#         80
  C:C500H         LINE#         81
  C:C502H         LINE#         82
  -------         ENDPROC       SEL_DIR2
  -------         PROC          BOTTON
  C:C422H         LINE#         83
  C:C422H         LINE#         84
  C:C422H         LINE#         85
  C:C425H         LINE#         86
  C:C428H         LINE#         87
  C:C428H         LINE#         88
  C:C431H         LINE#         89
  C:C433H         LINE#         90
  C:C433H         LINE#         92
  -------         ENDPROC       BOTTON
  -------         PROC          VALIDASENSOR
  -------         DO            
  D:0007H         SYMBOL        Valido
  D:0004H         SYMBOL        Tmin
  -------         ENDDO         
  C:C303H         LINE#         94
  C:C303H         LINE#         95
  C:C303H         LINE#         97
  C:C305H         LINE#         98
  C:C309H         LINE#         99
  C:C314H         LINE#         100
  C:C314H         LINE#         101
  C:C319H         LINE#         102
  C:C31DH         LINE#         103
  C:C31DH         LINE#         104
  C:C31FH         LINE#         105
  C:C31FH         LINE#         106
  C:C321H         LINE#         107
  C:C321H         LINE#         108
  -------         ENDPROC       VALIDASENSOR
BL51 BANKED LINKER/LOCATER V6.22.2.0                                                  06/23/2021  14:18:03  PAGE 52


  -------         PROC          VALIDASENSOR_CERO
  -------         DO            
  D:0007H         SYMBOL        Valido
  D:0004H         SYMBOL        Tmin
  -------         ENDDO         
  C:C280H         LINE#         109
  C:C280H         LINE#         110
  C:C280H         LINE#         112
  C:C282H         LINE#         113
  C:C286H         LINE#         114
  C:C295H         LINE#         115
  C:C295H         LINE#         116
  C:C29AH         LINE#         117
  C:C29EH         LINE#         118
  C:C29EH         LINE#         119
  C:C29FH         LINE#         120
  C:C29FH         LINE#         121
  C:C2A1H         LINE#         122
  C:C2A1H         LINE#         123
  -------         ENDPROC       VALIDASENSOR_CERO
  -------         PROC          DIR_BOARD
  -------         DO            
  X:0033H         SYMBOL        Board
  D:0007H         SYMBOL        Board_High
  -------         ENDDO         
  C:BAC6H         LINE#         127
  C:BAC6H         LINE#         128
  C:BAC6H         LINE#         129
  C:BACCH         LINE#         131
  C:BACFH         LINE#         132
  C:BAD2H         LINE#         133
  C:BAD2H         LINE#         134
  C:BAD5H         LINE#         135
  C:BAD5H         LINE#         136
  C:BAD8H         LINE#         137
  C:BADBH         LINE#         138
  C:BADBH         LINE#         139
  C:BAE2H         LINE#         140
  C:BAE2H         LINE#         141
  C:BAEAH         LINE#         142
  C:BAEAH         LINE#         143
  C:BAF2H         LINE#         145
  C:BAF5H         LINE#         146
  C:BAF5H         LINE#         147
  C:BAFBH         LINE#         148
  C:BAFBH         LINE#         149
  C:BAFDH         LINE#         150
  C:BAFFH         LINE#         151
  C:BB01H         LINE#         152
  C:BB01H         LINE#         154
  C:BB01H         LINE#         155
  C:BB08H         LINE#         156
  -------         ENDPROC       DIR_BOARD
  -------         PROC          DIR_BOARD_MONITOR
  -------         DO            
  D:0007H         SYMBOL        Board_High
  -------         ENDDO         
BL51 BANKED LINKER/LOCATER V6.22.2.0                                                  06/23/2021  14:18:03  PAGE 53


  C:C3C0H         LINE#         157
  C:C3C0H         LINE#         158
  C:C3C0H         LINE#         161
  C:C3C9H         LINE#         162
  C:C3CCH         LINE#         163
  C:C3CCH         LINE#         164
  C:C3CFH         LINE#         165
  C:C3CFH         LINE#         166
  C:C3D1H         LINE#         167
  C:C3D1H         LINE#         168
  C:C3D1H         LINE#         169
  C:C3D5H         LINE#         170
  -------         ENDPROC       DIR_BOARD_MONITOR
  -------         PROC          VALIDA_SENSOR1_AUTO
  -------         DO            
  X:0012H         SYMBOL        sensor
  -------         ENDDO         
  C:B60FH         LINE#         174
  C:B60FH         LINE#         175
  C:B60FH         LINE#         177
  C:B612H         LINE#         178
  C:B615H         LINE#         179
  C:B618H         LINE#         180
  C:B61DH         LINE#         181
  C:B61DH         LINE#         182
  C:B624H         LINE#         183
  C:B628H         LINE#         184
  C:B628H         LINE#         185
  C:B628H         LINE#         186
  C:B62AH         LINE#         188
  C:B62AH         LINE#         189
  C:B631H         LINE#         190
  C:B636H         LINE#         191
  C:B636H         LINE#         192
  C:B636H         LINE#         193
  C:B636H         LINE#         196
  C:B638H         LINE#         198
  C:B63BH         LINE#         199
  C:B640H         LINE#         200
  C:B640H         LINE#         202
  C:B647H         LINE#         203
  C:B64DH         LINE#         204
  C:B653H         LINE#         205
  C:B656H         LINE#         206
  C:B658H         LINE#         208
  C:B658H         LINE#         209
  C:B65FH         LINE#         210
  C:B664H         LINE#         211
  C:B664H         LINE#         214
  C:B664H         LINE#         216
  C:B669H         LINE#         217
  -------         ENDPROC       VALIDA_SENSOR1_AUTO
  -------         PROC          VALIDASENSORESPASO
  -------         DO            
  X:0011H         SYMBOL        sensor
  -------         ENDDO         
  C:BF21H         LINE#         222
BL51 BANKED LINKER/LOCATER V6.22.2.0                                                  06/23/2021  14:18:03  PAGE 54


  C:BF21H         LINE#         223
  C:BF21H         LINE#         225
  C:BF24H         LINE#         226
  C:BF27H         LINE#         227
  C:BF27H         LINE#         228
  C:BF35H         LINE#         229
  C:BF35H         LINE#         230
  C:BF3DH         LINE#         232
  C:BF3FH         LINE#         234
  C:BF3FH         LINE#         235
  C:BF45H         LINE#         236
  C:BF47H         LINE#         237
  C:BF47H         LINE#         238
  C:BF47H         LINE#         239
  C:BF47H         LINE#         240
  C:BF50H         LINE#         241
  C:BF53H         LINE#         242
  C:BF53H         LINE#         243
  C:BF58H         LINE#         244
  -------         ENDPROC       VALIDASENSORESPASO
  -------         PROC          MSJ_LCD_INFORMATIVO
  -------         DO            
  X:0219H         SYMBOL        contador
  X:0001H         SYMBOL        info
  X:021AH         SYMBOL        toggle
  -------         ENDDO         
  C:9C08H         LINE#         257
  C:9C08H         LINE#         258
  C:9C08H         LINE#         260
  C:9C0DH         LINE#         262
  C:9C13H         LINE#         263
  C:9C20H         LINE#         264
  C:9C20H         LINE#         266
  C:9C22H         LINE#         267
  C:9C25H         LINE#         268
  C:9C31H         LINE#         269
  C:9C31H         LINE#         270
  C:9C3BH         LINE#         271
  C:9C3BH         LINE#         273
  C:9C44H         LINE#         274
  C:9C4CH         LINE#         275
  C:9C54H         LINE#         276
  C:9C60H         LINE#         277
  C:9C60H         LINE#         279
  C:9C63H         LINE#         280
  C:9C63H         LINE#         281
  C:9C65H         LINE#         282
  C:9C68H         LINE#         283
  C:9C6EH         LINE#         284
  C:9C6EH         LINE#         285
  C:9C7CH         LINE#         286
  C:9C7CH         LINE#         287
  C:9C82H         LINE#         288
  C:9C82H         LINE#         289
  C:9C84H         LINE#         290
  C:9C92H         LINE#         291
  C:9C92H         LINE#         292
BL51 BANKED LINKER/LOCATER V6.22.2.0                                                  06/23/2021  14:18:03  PAGE 55


  C:9C9BH         LINE#         293
  C:9C9EH         LINE#         294
  C:9C9EH         LINE#         295
  C:9CA3H         LINE#         296
  C:9CA6H         LINE#         297
  C:9CABH         LINE#         298
  C:9CABH         LINE#         299
  C:9CABH         LINE#         300
  C:9CABH         LINE#         301
  C:9CABH         LINE#         302
  C:9CAEH         LINE#         303
  C:9CB1H         LINE#         304
  C:9CB1H         LINE#         305
  C:9CB6H         LINE#         306
  C:9CB6H         LINE#         307
  C:9CB6H         LINE#         308
  -------         ENDPROC       MSJ_LCD_INFORMATIVO
  -------         ENDMOD        IO_SENSORES

  -------         MODULE        PANTALLAS
  C:0000H         SYMBOL        _ICE_DUMMY_
  D:0080H         PUBLIC        P0
  C:B02AH         PUBLIC        Reloj_Pantalla_Lcd
  C:2889H         PUBLIC        _PantallaLCD
  C:BA8AH         PUBLIC        _LCD_txt
  C:AD30H         PUBLIC        _Raspberry_data
  C:C1D1H         PUBLIC        _tx_chrlcd
  C:367EH         SYMBOL        _?ix1000
  C:3684H         SYMBOL        _?ix1001
  C:368AH         SYMBOL        _?ix1002
  C:36B2H         SYMBOL        _?ix1003
  C:B9F6H         PUBLIC        _LCD_txt_num_char
  C:4EACH         PUBLIC        _PantallaLCD_LINEA_2
  B:0098H.4       PUBLIC        REN
  B:0080H.7       PUBLIC        sel_com
  -------         PROC          _PANTALLALCD
  X:002AH         SYMBOL        cod_msg
  -------         DO            
  X:002BH         SYMBOL        Ini_LCD_Line_one
  X:0031H         SYMBOL        num_chr
  X:0032H         SYMBOL        msjpantalla
  -------         ENDDO         
  C:2889H         LINE#         96
  C:288EH         LINE#         97
  C:288EH         LINE#         99
  C:28A1H         LINE#         104
  C:28A8H         LINE#         108
  C:28AAH         LINE#         110
  C:28B3H         LINE#         111
  C:28B3H         LINE#         112
  C:28BDH         LINE#         114
  C:2919H         LINE#         115
  C:2919H         LINE#         117
  C:2919H         LINE#         118
  C:2927H         LINE#         119
  C:292DH         LINE#         120
  C:2930H         LINE#         121
BL51 BANKED LINKER/LOCATER V6.22.2.0                                                  06/23/2021  14:18:03  PAGE 56


  C:2936H         LINE#         122
  C:2939H         LINE#         124
  C:2939H         LINE#         126
  C:2947H         LINE#         127
  C:294DH         LINE#         128
  C:2950H         LINE#         129
  C:2956H         LINE#         130
  C:2959H         LINE#         132
  C:2959H         LINE#         134
  C:2967H         LINE#         135
  C:296DH         LINE#         136
  C:2970H         LINE#         137
  C:2976H         LINE#         138
  C:2979H         LINE#         139
  C:2979H         LINE#         140
  C:2987H         LINE#         141
  C:298DH         LINE#         142
  C:2990H         LINE#         143
  C:2996H         LINE#         144
  C:2999H         LINE#         145
  C:2999H         LINE#         146
  C:29A7H         LINE#         147
  C:29ADH         LINE#         148
  C:29B0H         LINE#         149
  C:29B6H         LINE#         150
  C:29B9H         LINE#         151
  C:29B9H         LINE#         152
  C:29C7H         LINE#         153
  C:29CDH         LINE#         154
  C:29D0H         LINE#         155
  C:29D6H         LINE#         156
  C:29D9H         LINE#         157
  C:29D9H         LINE#         159
  C:29E7H         LINE#         160
  C:29EDH         LINE#         161
  C:29F0H         LINE#         162
  C:29F6H         LINE#         163
  C:29F9H         LINE#         164
  C:29F9H         LINE#         170
  C:29F9H         LINE#         171
  C:2A07H         LINE#         172
  C:2A0DH         LINE#         173
  C:2A10H         LINE#         174
  C:2A16H         LINE#         175
  C:2A19H         LINE#         176
  C:2A19H         LINE#         177
  C:2A27H         LINE#         178
  C:2A2DH         LINE#         179
  C:2A30H         LINE#         180
  C:2A36H         LINE#         181
  C:2A39H         LINE#         183
  C:2A39H         LINE#         184
  C:2A47H         LINE#         185
  C:2A4DH         LINE#         186
  C:2A50H         LINE#         187
  C:2A56H         LINE#         188
  C:2A59H         LINE#         190
BL51 BANKED LINKER/LOCATER V6.22.2.0                                                  06/23/2021  14:18:03  PAGE 57


  C:2A59H         LINE#         191
  C:2A67H         LINE#         192
  C:2A6DH         LINE#         193
  C:2A70H         LINE#         194
  C:2A76H         LINE#         195
  C:2A79H         LINE#         200
  C:2A79H         LINE#         202
  C:2A87H         LINE#         203
  C:2A8DH         LINE#         204
  C:2A90H         LINE#         205
  C:2A96H         LINE#         206
  C:2A99H         LINE#         208
  C:2A99H         LINE#         210
  C:2AA7H         LINE#         211
  C:2AADH         LINE#         212
  C:2AB0H         LINE#         213
  C:2AB6H         LINE#         214
  C:2AB9H         LINE#         216
  C:2AB9H         LINE#         217
  C:2AC7H         LINE#         218
  C:2ACDH         LINE#         219
  C:2AD0H         LINE#         220
  C:2AD6H         LINE#         221
  C:2AD9H         LINE#         223
  C:2AD9H         LINE#         225
  C:2AE7H         LINE#         226
  C:2AEDH         LINE#         227
  C:2AF0H         LINE#         228
  C:2AF6H         LINE#         229
  C:2AF9H         LINE#         231
  C:2AF9H         LINE#         233
  C:2B07H         LINE#         234
  C:2B0DH         LINE#         235
  C:2B10H         LINE#         236
  C:2B16H         LINE#         237
  C:2B19H         LINE#         239
  C:2B19H         LINE#         240
  C:2B27H         LINE#         241
  C:2B2DH         LINE#         242
  C:2B30H         LINE#         243
  C:2B36H         LINE#         244
  C:2B39H         LINE#         246
  C:2B39H         LINE#         247
  C:2B47H         LINE#         248
  C:2B4DH         LINE#         249
  C:2B50H         LINE#         250
  C:2B56H         LINE#         251
  C:2B59H         LINE#         253
  C:2B59H         LINE#         255
  C:2B67H         LINE#         256
  C:2B6DH         LINE#         257
  C:2B70H         LINE#         258
  C:2B76H         LINE#         259
  C:2B79H         LINE#         261
  C:2B79H         LINE#         262
  C:2B87H         LINE#         263
  C:2B8DH         LINE#         264
BL51 BANKED LINKER/LOCATER V6.22.2.0                                                  06/23/2021  14:18:03  PAGE 58


  C:2B90H         LINE#         265
  C:2B96H         LINE#         266
  C:2B99H         LINE#         267
  C:2B99H         LINE#         268
  C:2BA7H         LINE#         269
  C:2BADH         LINE#         270
  C:2BB0H         LINE#         271
  C:2BB6H         LINE#         272
  C:2BB9H         LINE#         273
  C:2BB9H         LINE#         274
  C:2BC7H         LINE#         275
  C:2BCDH         LINE#         276
  C:2BD0H         LINE#         277
  C:2BD6H         LINE#         278
  C:2BD9H         LINE#         279
  C:2BD9H         LINE#         280
  C:2BE7H         LINE#         281
  C:2BEAH         LINE#         282
  C:2BF0H         LINE#         283
  C:2BF2H         LINE#         287
  C:2BF2H         LINE#         288
  C:2C00H         LINE#         289
  C:2C06H         LINE#         290
  C:2C09H         LINE#         291
  C:2C0FH         LINE#         292
  C:2C11H         LINE#         293
  C:2C11H         LINE#         294
  C:2C1FH         LINE#         295
  C:2C25H         LINE#         296
  C:2C28H         LINE#         297
  C:2C2EH         LINE#         298
  C:2C30H         LINE#         299
  C:2C30H         LINE#         300
  C:2C3EH         LINE#         301
  C:2C44H         LINE#         302
  C:2C47H         LINE#         303
  C:2C52H         LINE#         304
  C:2C52H         LINE#         313
  C:2C52H         LINE#         315
  C:2C52H         LINE#         316
  C:2C52H         LINE#         317
  C:2C54H         LINE#         319
  C:2C55H         LINE#         321
  C:2C55H         LINE#         322
  C:2C57H         LINE#         323
  C:2CC5H         LINE#         324
  C:2CC5H         LINE#         327
  C:2CC5H         LINE#         328
  C:2CD9H         LINE#         329
  C:2CD9H         LINE#         331
  C:2CDCH         LINE#         332
  C:2CDCH         LINE#         335
  C:2CF0H         LINE#         336
  C:2CF0H         LINE#         337
  C:2CF3H         LINE#         339
  C:2CF3H         LINE#         340
  C:2D07H         LINE#         341
BL51 BANKED LINKER/LOCATER V6.22.2.0                                                  06/23/2021  14:18:03  PAGE 59


  C:2D07H         LINE#         343
  C:2D0AH         LINE#         344
  C:2D0AH         LINE#         345
  C:2D1EH         LINE#         346
  C:2D1EH         LINE#         348
  C:2D21H         LINE#         349
  C:2D21H         LINE#         350
  C:2D35H         LINE#         351
  C:2D35H         LINE#         353
  C:2D38H         LINE#         354
  C:2D38H         LINE#         355
  C:2D4CH         LINE#         356
  C:2D4CH         LINE#         358
  C:2D4FH         LINE#         359
  C:2D4FH         LINE#         360
  C:2D63H         LINE#         361
  C:2D63H         LINE#         363
  C:2D66H         LINE#         364
  C:2D66H         LINE#         365
  C:2D7AH         LINE#         366
  C:2D7AH         LINE#         368
  C:2D7DH         LINE#         369
  C:2D7DH         LINE#         370
  C:2D91H         LINE#         371
  C:2D91H         LINE#         373
  C:2D94H         LINE#         374
  C:2D94H         LINE#         375
  C:2DA8H         LINE#         376
  C:2DA8H         LINE#         378
  C:2DABH         LINE#         380
  C:2DABH         LINE#         381
  C:2DBFH         LINE#         382
  C:2DBFH         LINE#         384
  C:2DC2H         LINE#         386
  C:2DC2H         LINE#         387
  C:2DD6H         LINE#         388
  C:2DD6H         LINE#         390
  C:2DD9H         LINE#         392
  C:2DD9H         LINE#         393
  C:2DEDH         LINE#         394
  C:2DEDH         LINE#         396
  C:2DF0H         LINE#         400
  C:2DF0H         LINE#         401
  C:2E04H         LINE#         402
  C:2E04H         LINE#         404
  C:2E07H         LINE#         406
  C:2E07H         LINE#         407
  C:2E1BH         LINE#         408
  C:2E1BH         LINE#         410
  C:2E1EH         LINE#         412
  C:2E1EH         LINE#         413
  C:2E32H         LINE#         414
  C:2E32H         LINE#         417
  C:2E35H         LINE#         418
  C:2E35H         LINE#         419
  C:2E49H         LINE#         420
  C:2E49H         LINE#         422
BL51 BANKED LINKER/LOCATER V6.22.2.0                                                  06/23/2021  14:18:03  PAGE 60


  C:2E4CH         LINE#         423
  C:2E4CH         LINE#         424
  C:2E60H         LINE#         425
  C:2E60H         LINE#         427
  C:2E63H         LINE#         428
  C:2E63H         LINE#         429
  C:2E77H         LINE#         430
  C:2E77H         LINE#         432
  C:2E7AH         LINE#         433
  C:2E7AH         LINE#         434
  C:2E8EH         LINE#         435
  C:2E8EH         LINE#         437
  C:2E91H         LINE#         439
  C:2E91H         LINE#         440
  C:2EA5H         LINE#         441
  C:2EA5H         LINE#         443
  C:2EA8H         LINE#         445
  C:2EA8H         LINE#         446
  C:2EBCH         LINE#         447
  C:2EBCH         LINE#         449
  C:2EBFH         LINE#         450
  C:2EBFH         LINE#         451
  C:2ED3H         LINE#         452
  C:2ED3H         LINE#         454
  C:2ED6H         LINE#         455
  C:2ED6H         LINE#         456
  C:2EEAH         LINE#         457
  C:2EEAH         LINE#         459
  C:2EEDH         LINE#         460
  C:2EEDH         LINE#         461
  C:2F01H         LINE#         462
  C:2F01H         LINE#         464
  C:2F04H         LINE#         466
  C:2F04H         LINE#         467
  C:2F18H         LINE#         468
  C:2F18H         LINE#         470
  C:2F1BH         LINE#         471
  C:2F1BH         LINE#         472
  C:2F2FH         LINE#         473
  C:2F2FH         LINE#         475
  C:2F32H         LINE#         476
  C:2F32H         LINE#         477
  C:2F46H         LINE#         478
  C:2F46H         LINE#         480
  C:2F48H         LINE#         482
  C:2F48H         LINE#         483
  C:2F5CH         LINE#         484
  C:2F5CH         LINE#         486
  C:2F5EH         LINE#         489
  C:2F5EH         LINE#         490
  C:2F72H         LINE#         491
  C:2F72H         LINE#         493
  C:2F74H         LINE#         494
  C:2F74H         LINE#         495
  C:2F88H         LINE#         496
  C:2F88H         LINE#         498
  C:2F8AH         LINE#         499
BL51 BANKED LINKER/LOCATER V6.22.2.0                                                  06/23/2021  14:18:03  PAGE 61


  C:2F8AH         LINE#         500
  C:2F9EH         LINE#         501
  C:2F9EH         LINE#         502
  C:2FA0H         LINE#         504
  C:2FA0H         LINE#         505
  C:2FB7H         LINE#         506
  C:2FC6H         LINE#         507
  C:2FC6H         LINE#         512
  C:2FC6H         LINE#         513
  C:2FC6H         LINE#         514
  C:2FC6H         LINE#         516
  C:2FCDH         LINE#         517
  C:2FCFH         LINE#         518
  C:2FCFH         LINE#         522
  -------         ENDPROC       _PANTALLALCD
  -------         PROC          _PANTALLALCD_LINEA_2
  X:0011H         SYMBOL        cod_msg
  X:0012H         SYMBOL        buffer
  -------         DO            
  X:0015H         SYMBOL        Ini_LCD_Line_one
  X:001BH         SYMBOL        num_chr
  X:001CH         SYMBOL        msjpantalla
  -------         ENDDO         
  C:4EACH         LINE#         523
  C:4EBAH         LINE#         524
  C:4EBAH         LINE#         526
  C:4ECDH         LINE#         528
  C:4EE0H         LINE#         535
  C:4EE2H         LINE#         537
  C:4EEBH         LINE#         538
  C:4EEBH         LINE#         541
  C:4EF9H         LINE#         542
  C:4EF9H         LINE#         544
  C:4EF9H         LINE#         545
  C:4EFCH         LINE#         546
  C:4F0AH         LINE#         547
  C:4F1FH         LINE#         548
  C:4F25H         LINE#         549
  C:4F2BH         LINE#         550
  C:4F31H         LINE#         551
  C:4F31H         LINE#         552
  C:4F33H         LINE#         553
  C:4F33H         LINE#         554
  C:4F36H         LINE#         555
  C:4F44H         LINE#         556
  C:4F59H         LINE#         557
  C:4F5FH         LINE#         558
  C:4F65H         LINE#         559
  C:4F70H         LINE#         560
  C:4F80H         LINE#         561
  C:4F80H         LINE#         565
  C:4F80H         LINE#         567
  C:4F80H         LINE#         569
  C:4F80H         LINE#         570
  C:4F82H         LINE#         571
  C:4F83H         LINE#         573
  C:4F83H         LINE#         574
BL51 BANKED LINKER/LOCATER V6.22.2.0                                                  06/23/2021  14:18:03  PAGE 62


  C:4F85H         LINE#         576
  C:4FADH         LINE#         577
  C:4FADH         LINE#         578
  C:4FADH         LINE#         581
  C:4FB9H         LINE#         583
  C:4FB9H         LINE#         585
  C:4FB9H         LINE#         588
  C:4FB9H         LINE#         591
  C:4FBCH         LINE#         593
  C:4FBCH         LINE#         594
  C:4FC8H         LINE#         595
  C:4FC8H         LINE#         596
  C:4FC8H         LINE#         597
  C:4FC8H         LINE#         598
  C:4FC8H         LINE#         599
  C:4FC8H         LINE#         601
  C:4FCBH         LINE#         602
  C:4FCBH         LINE#         604
  C:4FD7H         LINE#         605
  C:4FDAH         LINE#         606
  C:4FDDH         LINE#         607
  C:4FDDH         LINE#         609
  C:4FE6H         LINE#         611
  C:4FE6H         LINE#         612
  C:4FE8H         LINE#         614
  C:4FE8H         LINE#         616
  C:4FF9H         LINE#         618
  C:4FFCH         LINE#         620
  C:4FFCH         LINE#         621
  C:5007H         LINE#         622
  C:5007H         LINE#         623
  C:500EH         LINE#         625
  C:5024H         LINE#         627
  C:503BH         LINE#         628
  C:503EH         LINE#         630
  C:503EH         LINE#         631
  C:5045H         LINE#         633
  C:5045H         LINE#         634
  C:5045H         LINE#         637
  C:5048H         LINE#         638
  C:5048H         LINE#         639
  C:5057H         LINE#         640
  C:5075H         LINE#         641
  C:508CH         LINE#         643
  C:508CH         LINE#         645
  C:508FH         LINE#         646
  C:508FH         LINE#         647
  C:509EH         LINE#         648
  C:50B1H         LINE#         649
  C:50CBH         LINE#         650
  C:50E9H         LINE#         651
  C:5100H         LINE#         652
  C:5100H         LINE#         654
  C:5102H         LINE#         655
  C:5102H         LINE#         656
  C:5111H         LINE#         657
  C:512FH         LINE#         658
BL51 BANKED LINKER/LOCATER V6.22.2.0                                                  06/23/2021  14:18:03  PAGE 63


  C:5146H         LINE#         659
  C:5149H         LINE#         660
  C:5149H         LINE#         661
  C:5149H         LINE#         663
  C:5149H         LINE#         664
  C:5149H         LINE#         666
  C:514EH         LINE#         667
  C:5150H         LINE#         668
  C:5150H         LINE#         669
  -------         ENDPROC       _PANTALLALCD_LINEA_2
  C:C1C8H         SYMBOL        L?0176
  C:C1CBH         SYMBOL        L?0177
  C:C1CCH         SYMBOL        L?0178
  -------         PROC          L?0175
  -------         ENDPROC       L?0175
  C:C1C8H         SYMBOL        L?0176
  C:C1CBH         SYMBOL        L?0177
  C:C1CCH         SYMBOL        L?0178
  -------         PROC          _TX_CHRLCD
  D:0007H         SYMBOL        data_com
  X:0049H         SYMBOL        enable_char_add
  -------         DO            
  X:004AH         SYMBOL        d
  -------         ENDDO         
  C:C1D1H         LINE#         675
  C:C1D6H         LINE#         676
  C:C1D6H         LINE#         678
  C:C1DEH         LINE#         679
  C:C1EEH         LINE#         681
  -------         ENDPROC       _TX_CHRLCD
  -------         PROC          L?0181
  -------         ENDPROC       L?0181
  -------         PROC          _LCD_TXT
  X:0044H         SYMBOL        msg
  X:0047H         SYMBOL        enable_char_add
  -------         DO            
  X:0048H         SYMBOL        i
  -------         ENDDO         
  C:BA8AH         LINE#         688
  C:BA98H         LINE#         689
  C:BA98H         LINE#         692
  C:BAB5H         LINE#         693
  C:BAB5H         LINE#         694
  C:BABDH         LINE#         695
  C:BAC5H         LINE#         696
  -------         ENDPROC       _LCD_TXT
  -------         PROC          _LCD_TXT_NUM_CHAR
  X:001EH         SYMBOL        msg
  X:0021H         SYMBOL        length_char
  X:0022H         SYMBOL        enable_char_add
  -------         DO            
  X:0023H         SYMBOL        i
  -------         ENDDO         
  C:B9F6H         LINE#         703
  C:BA04H         LINE#         704
  C:BA04H         LINE#         707
  C:BA17H         LINE#         708
BL51 BANKED LINKER/LOCATER V6.22.2.0                                                  06/23/2021  14:18:03  PAGE 64


  C:BA17H         LINE#         709
  C:BA33H         LINE#         710
  C:BA3BH         LINE#         711
  -------         ENDPROC       _LCD_TXT_NUM_CHAR
  C:AD2AH         SYMBOL        L?0180
  -------         PROC          L?0179
  -------         ENDPROC       L?0179
  C:AD2AH         SYMBOL        L?0180
  -------         PROC          _RASPBERRY_DATA
  X:0044H         SYMBOL        msjpantalla
  -------         DO            
  X:0047H         SYMBOL        i
  X:0048H         SYMBOL        lenth_cadena
  X:0049H         SYMBOL        d
  -------         ENDDO         
  C:AD30H         LINE#         713
  C:AD3BH         LINE#         714
  C:AD3BH         LINE#         721
  C:AD43H         LINE#         723
  C:AD55H         LINE#         724
  C:AD55H         LINE#         726
  C:AD67H         LINE#         727
  C:AD67H         LINE#         728
  C:AD6CH         LINE#         729
  C:AD8AH         LINE#         731
  C:AD92H         LINE#         734
  C:ADA4H         LINE#         735
  C:ADA4H         LINE#         737
  C:ADA9H         LINE#         739
  -------         ENDPROC       _RASPBERRY_DATA
  -------         PROC          RELOJ_PANTALLA_LCD
  -------         DO            
  X:0011H         SYMBOL        Ini_Clock_LCD
  -------         ENDDO         
  C:B02AH         LINE#         747
  C:B02AH         LINE#         748
  C:B02AH         LINE#         750
  C:B03DH         LINE#         752
  C:B043H         LINE#         753
  C:B043H         LINE#         754
  C:B045H         LINE#         755
  C:B04EH         LINE#         759
  C:B050H         LINE#         760
  C:B060H         LINE#         762
  C:B062H         LINE#         763
  C:B064H         LINE#         765
  C:B065H         LINE#         767
  C:B065H         LINE#         768
  C:B067H         LINE#         769
  C:B06CH         LINE#         770
  C:B07BH         LINE#         772
  C:B084H         LINE#         773
  C:B09BH         LINE#         774
  C:B0A4H         LINE#         777
  C:B0A6H         LINE#         778
  C:B0A6H         LINE#         779
  -------         ENDPROC       RELOJ_PANTALLA_LCD
BL51 BANKED LINKER/LOCATER V6.22.2.0                                                  06/23/2021  14:18:03  PAGE 65


  -------         ENDMOD        PANTALLAS

  -------         MODULE        PROG
  C:0000H         SYMBOL        _ICE_DUMMY_
  C:5C81H         PUBLIC        Prog_fecha_vencimiento
  C:6E82H         PUBLIC        Prog_Sin_Cobro
  C:7935H         PUBLIC        _Ver_Horario_Desde_Hasta
  C:7E7EH         PUBLIC        Prog_debug
  C:8172H         PUBLIC        Prog_AntiPassBack
  C:A74BH         PUBLIC        _GetOption
  X:01B8H         PUBLIC        validacion
  C:836AH         PUBLIC        Prog_Validar_Tipo_Vehiculo_Mensual
  X:01C3H         PUBLIC        cursor
  C:781BH         PUBLIC        _Prog_Horarios_on_off
  C:A0A5H         PUBLIC        Show
  C:455DH         PUBLIC        Ver_Prog
  C:C02FH         PUBLIC        Addr_Horarios
  C:99E9H         PUBLIC        prog_id_cliente
  C:BB11H         PUBLIC        _ValidarClave
  C:564AH         PUBLIC        menu
  C:7F7AH         PUBLIC        Prog_Use_Lpr
  C:B496H         PUBLIC        _ListaComandos
  C:140AH         SYMBOL        _?ix1000
  C:1415H         SYMBOL        _?ix1001
  C:1425H         SYMBOL        _?ix1002
  C:1435H         SYMBOL        _?ix1003
  C:1439H         SYMBOL        _?ix1004
  C:6D3DH         PUBLIC        Prog_Horarios
  C:143DH         SYMBOL        _?ix1005
  C:8466H         PUBLIC        Prog_Apb_Mensual
  C:8562H         PUBLIC        Prog_mensuales
  C:94BAH         PUBLIC        Prog_tarjeta_automatica_o_boton
  C:587FH         PUBLIC        _hash_id
  C:4BF5H         PUBLIC        _Prog_Horario_dias
  C:97B8H         PUBLIC        Prog_tiempo_gracia
  C:AE33H         PUBLIC        _IngresaDato
  X:01D7H         PUBLIC        comandos
  C:B8DAH         PUBLIC        First_Clave
  C:C392H         PUBLIC        DisplayCursor
  C:826EH         PUBLIC        Prog_Placa
  C:96FBH         PUBLIC        prog_cod_park
  C:723AH         PUBLIC        Ver_Horario
  C:76F3H         PUBLIC        _Ver_Horario_dias
  C:5A87H         PUBLIC        _Prog_Horario_Desde_Hasta
  C:8076H         PUBLIC        tipo_pantalla
  C:8B09H         PUBLIC        Prog_Address_High_Board
  C:BBD3H         PUBLIC        _GetCMD
  -------         PROC          _HASH_ID
  X:005DH         SYMBOL        clave
  -------         DO            
  X:0060H         SYMBOL        len_clave
  X:0061H         SYMBOL        i
  X:01B4H         SYMBOL        temp
  X:01B6H         SYMBOL        temp1
  X:0062H         SYMBOL        aleatorio
  X:006DH         SYMBOL        suma
  X:007DH         SYMBOL        xxor
BL51 BANKED LINKER/LOCATER V6.22.2.0                                                  06/23/2021  14:18:03  PAGE 66


  X:008DH         SYMBOL        usuario1
  X:0098H         SYMBOL        vencimiento_password
  -------         ENDDO         
  C:587FH         LINE#         124
  C:588AH         LINE#         125
  C:588AH         LINE#         128
  C:589DH         LINE#         130
  C:58B0H         LINE#         131
  C:58C3H         LINE#         135
  C:58D0H         LINE#         136
  C:58ECH         LINE#         138
  C:58ECH         LINE#         139
  C:58F0H         LINE#         140
  C:58F2H         LINE#         142
  C:58F2H         LINE#         143
  C:58F9H         LINE#         144
  C:58F9H         LINE#         145
  C:590CH         LINE#         146
  C:5920H         LINE#         147
  C:5920H         LINE#         148
  C:594CH         LINE#         149
  C:5957H         LINE#         150
  C:5964H         LINE#         151
  C:5982H         LINE#         152
  C:598DH         LINE#         153
  C:599AH         LINE#         154
  C:59BEH         LINE#         155
  C:59C6H         LINE#         156
  C:59C6H         LINE#         157
  C:59CBH         LINE#         158
  C:59CBH         LINE#         159
  C:59E4H         LINE#         160
  C:59E4H         LINE#         161
  C:59F0H         LINE#         163
  C:59F0H         LINE#         164
  C:59FFH         LINE#         165
  C:59FFH         LINE#         166
  C:5A0BH         LINE#         167
  C:5A0BH         LINE#         168
  C:5A24H         LINE#         169
  C:5A24H         LINE#         170
  C:5A2FH         LINE#         171
  C:5A2FH         LINE#         172
  C:5A48H         LINE#         173
  C:5A48H         LINE#         174
  C:5A53H         LINE#         175
  C:5A53H         LINE#         176
  C:5A68H         LINE#         178
  C:5A71H         LINE#         179
  C:5A80H         LINE#         181
  C:5A86H         LINE#         182
  -------         ENDPROC       _HASH_ID
  -------         PROC          _LISTACOMANDOS
  X:0046H         SYMBOL        cmd
  -------         DO            
  X:0049H         SYMBOL        buf
  X:004CH         SYMBOL        i
BL51 BANKED LINKER/LOCATER V6.22.2.0                                                  06/23/2021  14:18:03  PAGE 67


  -------         ENDDO         
  C:B496H         LINE#         189
  C:B4A1H         LINE#         190
  C:B4A1H         LINE#         194
  C:B4B4H         LINE#         195
  C:B4B4H         LINE#         196
  C:B4CCH         LINE#         197
  C:B4E7H         LINE#         198
  C:B4EDH         LINE#         199
  C:B4F5H         LINE#         201
  C:B4F7H         LINE#         202
  -------         ENDPROC       _LISTACOMANDOS
  -------         PROC          L?0288
  -------         ENDPROC       L?0288
  -------         PROC          _VALIDARCLAVE
  X:005DH         SYMBOL        buffer
  -------         DO            
  X:0060H         SYMBOL        buf
  -------         ENDDO         
  C:BB11H         LINE#         208
  C:BB1CH         LINE#         209
  C:BB1CH         LINE#         212
  C:BB2BH         LINE#         213
  C:BB46H         LINE#         214
  C:BB48H         LINE#         217
  C:BB4AH         LINE#         218
  -------         ENDPROC       _VALIDARCLAVE
  -------         PROC          L?0289
  -------         ENDPROC       L?0289
  -------         PROC          _GETCMD
  X:005DH         SYMBOL        in
  -------         DO            
  X:0060H         SYMBOL        tokens
  -------         ENDDO         
  C:BBD3H         LINE#         225
  C:BBDEH         LINE#         226
  C:BBDEH         LINE#         227
  C:BBF1H         LINE#         228
  -------         ENDPROC       _GETCMD
  -------         PROC          L?0287
  -------         ENDPROC       L?0287
  -------         PROC          _GETOPTION
  X:0046H         SYMBOL        in
  -------         DO            
  X:0049H         SYMBOL        tokensSpace
  X:004DH         SYMBOL        tokensQuote
  -------         ENDDO         
  C:A74BH         LINE#         234
  C:A756H         LINE#         235
  C:A756H         LINE#         236
  C:A769H         LINE#         237
  C:A77CH         LINE#         240
  C:A78EH         LINE#         241
  C:A79AH         LINE#         244
  C:A7A1H         LINE#         245
  C:A7AEH         LINE#         247
  C:A7C7H         LINE#         248
BL51 BANKED LINKER/LOCATER V6.22.2.0                                                  06/23/2021  14:18:03  PAGE 68


  -------         ENDPROC       _GETOPTION
  -------         PROC          DISPLAYCURSOR
  C:C392H         LINE#         253
  C:C392H         LINE#         254
  C:C392H         LINE#         255
  -------         ENDPROC       DISPLAYCURSOR
  C:AE2FH         SYMBOL        L?0286
  -------         PROC          L?0285
  -------         ENDPROC       L?0285
  C:AE2FH         SYMBOL        L?0286
  -------         PROC          _INGRESADATO
  X:0071H         SYMBOL        buffer
  X:0074H         SYMBOL        modo
  -------         DO            
  D:0006H         SYMBOL        i
  -------         ENDDO         
  C:AE33H         LINE#         262
  C:AE41H         LINE#         263
  C:AE41H         LINE#         268
  C:AE41H         LINE#         269
  C:AE53H         LINE#         270
  C:AE59H         LINE#         271
  C:AE59H         LINE#         272
  C:AE74H         LINE#         273
  C:AE76H         LINE#         275
  C:AE76H         LINE#         276
  C:AE7BH         LINE#         277
  C:AE7BH         LINE#         278
  C:AE8CH         LINE#         279
  C:AE96H         LINE#         280
  C:AEA5H         LINE#         282
  C:AEAAH         LINE#         286
  -------         ENDPROC       _INGRESADATO
  -------         PROC          PROG_ID_CLIENTE
  -------         DO            
  X:0046H         SYMBOL        buffer
  X:0050H         SYMBOL        dataee
  -------         ENDDO         
  C:99E9H         LINE#         303
  C:99E9H         LINE#         304
  C:99E9H         LINE#         308
  C:99FBH         LINE#         309
  C:9A18H         LINE#         311
  C:9A2FH         LINE#         313
  C:9A38H         LINE#         314
  C:9A3FH         LINE#         315
  C:9A50H         LINE#         316
  C:9A59H         LINE#         318
  C:9A6BH         LINE#         319
  C:9A88H         LINE#         320
  -------         ENDPROC       PROG_ID_CLIENTE
  -------         PROC          PROG_COD_PARK
  -------         DO            
  X:0046H         SYMBOL        buffer
  X:0050H         SYMBOL        dataee
  -------         ENDDO         
  C:96FBH         LINE#         325
BL51 BANKED LINKER/LOCATER V6.22.2.0                                                  06/23/2021  14:18:03  PAGE 69


  C:96FBH         LINE#         326
  C:96FBH         LINE#         330
  C:970EH         LINE#         331
  C:972BH         LINE#         333
  C:9742H         LINE#         335
  C:974BH         LINE#         336
  C:9756H         LINE#         337
  C:9767H         LINE#         338
  C:9771H         LINE#         340
  C:9784H         LINE#         341
  C:97A1H         LINE#         342
  -------         ENDPROC       PROG_COD_PARK
  -------         PROC          PROG_TIEMPO_GRACIA
  -------         DO            
  X:0046H         SYMBOL        buffer
  X:0050H         SYMBOL        dataee
  -------         ENDDO         
  C:97B8H         LINE#         347
  C:97B8H         LINE#         348
  C:97B8H         LINE#         352
  C:97CBH         LINE#         353
  C:97E8H         LINE#         355
  C:97FFH         LINE#         357
  C:9808H         LINE#         358
  C:9813H         LINE#         359
  C:9824H         LINE#         360
  C:982EH         LINE#         362
  C:9841H         LINE#         363
  C:985EH         LINE#         364
  -------         ENDPROC       PROG_TIEMPO_GRACIA
  -------         PROC          PROG_SIN_COBRO
  -------         DO            
  X:0046H         SYMBOL        buffer
  X:0050H         SYMBOL        dataee
  -------         ENDDO         
  C:6E82H         LINE#         370
  C:6E82H         LINE#         371
  C:6E82H         LINE#         377
  C:6E95H         LINE#         378
  C:6EB2H         LINE#         379
  C:6EBCH         LINE#         380
  C:6EBCH         LINE#         381
  C:6ECFH         LINE#         382
  C:6ED1H         LINE#         383
  C:6EDDH         LINE#         384
  C:6EDDH         LINE#         385
  C:6EF0H         LINE#         386
  C:6EF2H         LINE#         388
  C:6EF2H         LINE#         389
  C:6F09H         LINE#         390
  C:6F09H         LINE#         392
  C:6F12H         LINE#         393
  C:6F1DH         LINE#         394
  C:6F2EH         LINE#         395
  C:6F38H         LINE#         397
  C:6F4BH         LINE#         398
  C:6F68H         LINE#         399
BL51 BANKED LINKER/LOCATER V6.22.2.0                                                  06/23/2021  14:18:03  PAGE 70


  C:6F72H         LINE#         400
  C:6F72H         LINE#         401
  C:6F85H         LINE#         402
  C:6F87H         LINE#         403
  C:6F93H         LINE#         404
  C:6F93H         LINE#         405
  C:6FA6H         LINE#         406
  C:6FA8H         LINE#         408
  C:6FA8H         LINE#         409
  C:6FBFH         LINE#         410
  C:6FBFH         LINE#         412
  -------         ENDPROC       PROG_SIN_COBRO
  -------         PROC          PROG_DEBUG
  -------         DO            
  X:0046H         SYMBOL        buffer
  X:0050H         SYMBOL        dataee
  -------         ENDDO         
  C:7E7EH         LINE#         418
  C:7E7EH         LINE#         419
  C:7E7EH         LINE#         424
  C:7E91H         LINE#         425
  C:7EAEH         LINE#         426
  C:7EB8H         LINE#         427
  C:7EB8H         LINE#         428
  C:7ECBH         LINE#         429
  C:7ECDH         LINE#         431
  C:7ECDH         LINE#         432
  C:7EE4H         LINE#         433
  C:7EE4H         LINE#         435
  C:7EEDH         LINE#         436
  C:7EF8H         LINE#         437
  C:7F09H         LINE#         438
  C:7F13H         LINE#         440
  C:7F26H         LINE#         441
  C:7F43H         LINE#         442
  C:7F4DH         LINE#         443
  C:7F4DH         LINE#         444
  C:7F60H         LINE#         445
  C:7F62H         LINE#         447
  C:7F62H         LINE#         448
  C:7F79H         LINE#         449
  C:7F79H         LINE#         450
  -------         ENDPROC       PROG_DEBUG
  -------         PROC          PROG_USE_LPR
  -------         DO            
  X:0046H         SYMBOL        buffer
  X:0050H         SYMBOL        dataee
  -------         ENDDO         
  C:7F7AH         LINE#         455
  C:7F7AH         LINE#         456
  C:7F7AH         LINE#         461
  C:7F8DH         LINE#         462
  C:7FAAH         LINE#         463
  C:7FB4H         LINE#         464
  C:7FB4H         LINE#         465
  C:7FC7H         LINE#         466
  C:7FC9H         LINE#         468
BL51 BANKED LINKER/LOCATER V6.22.2.0                                                  06/23/2021  14:18:03  PAGE 71


  C:7FC9H         LINE#         469
  C:7FE0H         LINE#         470
  C:7FE0H         LINE#         472
  C:7FE9H         LINE#         473
  C:7FF4H         LINE#         474
  C:8005H         LINE#         475
  C:800FH         LINE#         477
  C:8022H         LINE#         478
  C:803FH         LINE#         479
  C:8049H         LINE#         480
  C:8049H         LINE#         481
  C:805CH         LINE#         482
  C:805EH         LINE#         484
  C:805EH         LINE#         485
  C:8075H         LINE#         486
  C:8075H         LINE#         487
  -------         ENDPROC       PROG_USE_LPR
  -------         PROC          TIPO_PANTALLA
  -------         DO            
  X:0046H         SYMBOL        buffer
  X:0050H         SYMBOL        dataee
  -------         ENDDO         
  C:8076H         LINE#         494
  C:8076H         LINE#         495
  C:8076H         LINE#         500
  C:8089H         LINE#         501
  C:80A6H         LINE#         502
  C:80B0H         LINE#         503
  C:80B0H         LINE#         504
  C:80C3H         LINE#         505
  C:80C5H         LINE#         507
  C:80C5H         LINE#         508
  C:80DCH         LINE#         509
  C:80DCH         LINE#         511
  C:80E5H         LINE#         512
  C:80F0H         LINE#         513
  C:8101H         LINE#         514
  C:810BH         LINE#         516
  C:811EH         LINE#         517
  C:813BH         LINE#         518
  C:8145H         LINE#         519
  C:8145H         LINE#         520
  C:8158H         LINE#         521
  C:815AH         LINE#         523
  C:815AH         LINE#         524
  C:8171H         LINE#         525
  C:8171H         LINE#         527
  -------         ENDPROC       TIPO_PANTALLA
  -------         PROC          PROG_TARJETA_AUTOMATICA_O_BOTON
  -------         DO            
  X:0046H         SYMBOL        buffer
  X:0050H         SYMBOL        dataee
  -------         ENDDO         
  C:94BAH         LINE#         528
  C:94BAH         LINE#         529
  C:94BAH         LINE#         534
  C:94CDH         LINE#         535
BL51 BANKED LINKER/LOCATER V6.22.2.0                                                  06/23/2021  14:18:03  PAGE 72


  C:94EAH         LINE#         536
  C:94F6H         LINE#         537
  C:94F6H         LINE#         538
  C:94FAH         LINE#         539
  C:94FCH         LINE#         541
  C:94FCH         LINE#         542
  C:9503H         LINE#         543
  C:9503H         LINE#         545
  C:950CH         LINE#         546
  C:9517H         LINE#         547
  C:9528H         LINE#         548
  C:9532H         LINE#         550
  C:9545H         LINE#         551
  C:9562H         LINE#         552
  C:956EH         LINE#         553
  C:956EH         LINE#         554
  C:9572H         LINE#         555
  C:9574H         LINE#         557
  C:9574H         LINE#         558
  C:957BH         LINE#         559
  C:957BH         LINE#         560
  -------         ENDPROC       PROG_TARJETA_AUTOMATICA_O_BOTON
  -------         PROC          PROG_ANTIPASSBACK
  -------         DO            
  X:0046H         SYMBOL        buffer
  X:0050H         SYMBOL        dataee
  -------         ENDDO         
  C:8172H         LINE#         561
  C:8172H         LINE#         562
  C:8172H         LINE#         567
  C:8185H         LINE#         568
  C:81A2H         LINE#         569
  C:81ACH         LINE#         570
  C:81ACH         LINE#         571
  C:81BFH         LINE#         572
  C:81C1H         LINE#         574
  C:81C1H         LINE#         575
  C:81D8H         LINE#         576
  C:81D8H         LINE#         578
  C:81E1H         LINE#         579
  C:81ECH         LINE#         580
  C:81FDH         LINE#         581
  C:8207H         LINE#         583
  C:821AH         LINE#         584
  C:8237H         LINE#         585
  C:8241H         LINE#         586
  C:8241H         LINE#         587
  C:8254H         LINE#         588
  C:8256H         LINE#         590
  C:8256H         LINE#         591
  C:826DH         LINE#         592
  C:826DH         LINE#         593
  -------         ENDPROC       PROG_ANTIPASSBACK
  -------         PROC          PROG_PLACA
  -------         DO            
  X:0046H         SYMBOL        buffer
  X:0050H         SYMBOL        dataee
BL51 BANKED LINKER/LOCATER V6.22.2.0                                                  06/23/2021  14:18:03  PAGE 73


  -------         ENDDO         
  C:826EH         LINE#         594
  C:826EH         LINE#         595
  C:826EH         LINE#         600
  C:8281H         LINE#         601
  C:829EH         LINE#         602
  C:82A8H         LINE#         603
  C:82A8H         LINE#         604
  C:82BBH         LINE#         605
  C:82BDH         LINE#         607
  C:82BDH         LINE#         608
  C:82D4H         LINE#         609
  C:82D4H         LINE#         611
  C:82DDH         LINE#         612
  C:82E8H         LINE#         613
  C:82F9H         LINE#         614
  C:8303H         LINE#         616
  C:8316H         LINE#         617
  C:8333H         LINE#         618
  C:833DH         LINE#         619
  C:833DH         LINE#         620
  C:8350H         LINE#         621
  C:8352H         LINE#         623
  C:8352H         LINE#         624
  C:8369H         LINE#         625
  C:8369H         LINE#         626
  -------         ENDPROC       PROG_PLACA
  -------         PROC          PROG_ADDRESS_HIGH_BOARD
  -------         DO            
  X:0046H         SYMBOL        buffer
  X:0050H         SYMBOL        dataee
  -------         ENDDO         
  C:8B09H         LINE#         627
  C:8B09H         LINE#         628
  C:8B09H         LINE#         633
  C:8B1CH         LINE#         634
  C:8B39H         LINE#         635
  C:8B43H         LINE#         636
  C:8B43H         LINE#         637
  C:8B47H         LINE#         638
  C:8B49H         LINE#         640
  C:8B49H         LINE#         641
  C:8B60H         LINE#         642
  C:8B60H         LINE#         644
  C:8B69H         LINE#         645
  C:8B74H         LINE#         646
  C:8B85H         LINE#         647
  C:8B8FH         LINE#         649
  C:8BA2H         LINE#         650
  C:8BBFH         LINE#         651
  C:8BC9H         LINE#         652
  C:8BC9H         LINE#         653
  C:8BCDH         LINE#         654
  C:8BCFH         LINE#         656
  C:8BCFH         LINE#         657
  C:8BE6H         LINE#         658
  C:8BE6H         LINE#         659
BL51 BANKED LINKER/LOCATER V6.22.2.0                                                  06/23/2021  14:18:03  PAGE 74


  -------         ENDPROC       PROG_ADDRESS_HIGH_BOARD
  -------         PROC          ADDR_HORARIOS
  -------         DO            
  X:0074H         SYMBOL        ee_addr_horario
  -------         ENDDO         
  C:C02FH         LINE#         661
  C:C02FH         LINE#         662
  C:C02FH         LINE#         665
  C:C035H         LINE#         666
  C:C039H         LINE#         667
  C:C03DH         LINE#         668
  C:C041H         LINE#         669
  C:C045H         LINE#         670
  C:C049H         LINE#         671
  C:C04DH         LINE#         672
  C:C051H         LINE#         673
  C:C055H         LINE#         674
  C:C059H         LINE#         675
  C:C05CH         LINE#         676
  C:C062H         LINE#         677
  -------         ENDPROC       ADDR_HORARIOS
  -------         PROC          _PROG_HORARIOS_ON_OFF
  X:0061H         SYMBOL        addr
  -------         DO            
  X:0063H         SYMBOL        buffer
  X:006DH         SYMBOL        dataee
  X:006FH         SYMBOL        habilitado
  -------         ENDDO         
  C:781BH         LINE#         678
  C:7825H         LINE#         679
  C:7825H         LINE#         682
  C:7834H         LINE#         683
  C:7851H         LINE#         684
  C:785BH         LINE#         685
  C:785BH         LINE#         686
  C:786EH         LINE#         687
  C:7870H         LINE#         689
  C:7870H         LINE#         690
  C:7887H         LINE#         691
  C:7887H         LINE#         692
  C:7890H         LINE#         693
  C:789BH         LINE#         694
  C:78ACH         LINE#         695
  C:78BBH         LINE#         697
  C:78D2H         LINE#         698
  C:78EFH         LINE#         699
  C:78FCH         LINE#         700
  C:78FCH         LINE#         701
  C:78FFH         LINE#         702
  C:7912H         LINE#         703
  C:7914H         LINE#         705
  C:7914H         LINE#         706
  C:7919H         LINE#         707
  C:792EH         LINE#         708
  C:792EH         LINE#         709
  C:7934H         LINE#         710
  -------         ENDPROC       _PROG_HORARIOS_ON_OFF
BL51 BANKED LINKER/LOCATER V6.22.2.0                                                  06/23/2021  14:18:03  PAGE 75


  -------         PROC          _PROG_HORARIO_DESDE_HASTA
  X:0061H         SYMBOL        addr
  -------         DO            
  X:0063H         SYMBOL        buffer
  D:0007H         SYMBOL        dataee
  -------         ENDDO         
  C:5A87H         LINE#         711
  C:5A8FH         LINE#         712
  C:5A8FH         LINE#         717
  C:5A98H         LINE#         718
  C:5A9BH         LINE#         719
  C:5AA4H         LINE#         720
  C:5ABCH         LINE#         721
  C:5ACFH         LINE#         722
  C:5ADDH         LINE#         723
  C:5AF5H         LINE#         724
  C:5B08H         LINE#         725
  C:5B16H         LINE#         726
  C:5B2EH         LINE#         727
  C:5B41H         LINE#         728
  C:5B4FH         LINE#         729
  C:5B67H         LINE#         730
  C:5B7AH         LINE#         731
  C:5B88H         LINE#         735
  C:5B91H         LINE#         736
  C:5B94H         LINE#         738
  C:5B9DH         LINE#         740
  C:5BB5H         LINE#         741
  C:5BC8H         LINE#         742
  C:5BD6H         LINE#         743
  C:5BEEH         LINE#         744
  C:5C01H         LINE#         745
  C:5C0FH         LINE#         746
  C:5C27H         LINE#         747
  C:5C3AH         LINE#         748
  C:5C48H         LINE#         749
  C:5C60H         LINE#         750
  C:5C73H         LINE#         751
  -------         ENDPROC       _PROG_HORARIO_DESDE_HASTA
  -------         PROC          _VER_HORARIO_DESDE_HASTA
  X:0074H         SYMBOL        addr
  -------         DO            
  D:0007H         SYMBOL        dataee
  -------         ENDDO         
  C:7935H         LINE#         753
  C:793DH         LINE#         754
  C:793DH         LINE#         756
  C:7946H         LINE#         757
  C:7959H         LINE#         758
  C:7967H         LINE#         759
  C:797AH         LINE#         760
  C:7988H         LINE#         761
  C:799BH         LINE#         762
  C:79A9H         LINE#         763
  C:79BCH         LINE#         764
  C:79CAH         LINE#         766
  C:79DDH         LINE#         767
BL51 BANKED LINKER/LOCATER V6.22.2.0                                                  06/23/2021  14:18:03  PAGE 76


  C:79EBH         LINE#         769
  C:79FEH         LINE#         770
  C:7A0CH         LINE#         772
  C:7A1FH         LINE#         773
  C:7A2DH         LINE#         775
  C:7A40H         LINE#         776
  -------         ENDPROC       _VER_HORARIO_DESDE_HASTA
  -------         PROC          _PROG_HORARIO_DIAS
  X:0061H         SYMBOL        addr
  -------         DO            
  X:0063H         SYMBOL        buffer
  X:006DH         SYMBOL        dataee
  X:006EH         SYMBOL        j
  X:006FH         SYMBOL        temp
  -------         ENDDO         
  C:4BF5H         LINE#         778
  C:4BFDH         LINE#         779
  C:4BFDH         LINE#         783
  C:4C06H         LINE#         784
  C:4C0FH         LINE#         785
  C:4C18H         LINE#         786
  C:4C23H         LINE#         789
  C:4C2CH         LINE#         791
  C:4C42H         LINE#         792
  C:4C42H         LINE#         794
  C:4C55H         LINE#         795
  C:4C55H         LINE#         796
  C:4C5EH         LINE#         798
  C:4C73H         LINE#         799
  C:4C8BH         LINE#         800
  C:4C98H         LINE#         801
  C:4C98H         LINE#         803
  C:4CAEH         LINE#         804
  C:4CAEH         LINE#         805
  C:4CB7H         LINE#         806
  C:4CCCH         LINE#         807
  C:4CE4H         LINE#         808
  C:4CF1H         LINE#         809
  C:4CF1H         LINE#         811
  C:4D07H         LINE#         812
  C:4D07H         LINE#         813
  C:4D10H         LINE#         814
  C:4D25H         LINE#         815
  C:4D3DH         LINE#         816
  C:4D4AH         LINE#         817
  C:4D4AH         LINE#         819
  C:4D60H         LINE#         820
  C:4D60H         LINE#         821
  C:4D69H         LINE#         822
  C:4D7EH         LINE#         823
  C:4D96H         LINE#         824
  C:4DA3H         LINE#         825
  C:4DA3H         LINE#         827
  C:4DB9H         LINE#         828
  C:4DB9H         LINE#         829
  C:4DC2H         LINE#         830
  C:4DD7H         LINE#         831
BL51 BANKED LINKER/LOCATER V6.22.2.0                                                  06/23/2021  14:18:03  PAGE 77


  C:4DEFH         LINE#         832
  C:4DFCH         LINE#         833
  C:4DFCH         LINE#         835
  C:4E12H         LINE#         836
  C:4E12H         LINE#         837
  C:4E1BH         LINE#         838
  C:4E30H         LINE#         839
  C:4E48H         LINE#         840
  C:4E55H         LINE#         841
  C:4E55H         LINE#         843
  C:4E6BH         LINE#         844
  C:4E6BH         LINE#         845
  C:4E74H         LINE#         846
  C:4E83H         LINE#         847
  C:4E95H         LINE#         848
  C:4EA2H         LINE#         849
  C:4EA2H         LINE#         850
  C:4EABH         LINE#         852
  -------         ENDPROC       _PROG_HORARIO_DIAS
  -------         PROC          _VER_HORARIO_DIAS
  X:0074H         SYMBOL        addr
  -------         DO            
  X:0076H         SYMBOL        dataee
  -------         ENDDO         
  C:76F3H         LINE#         853
  C:76FBH         LINE#         854
  C:76FBH         LINE#         857
  C:770BH         LINE#         858
  C:7711H         LINE#         859
  C:7711H         LINE#         860
  C:7715H         LINE#         861
  C:7717H         LINE#         863
  C:7717H         LINE#         864
  C:771EH         LINE#         865
  C:771EH         LINE#         868
  C:7736H         LINE#         869
  C:773CH         LINE#         870
  C:773CH         LINE#         871
  C:7740H         LINE#         872
  C:7742H         LINE#         874
  C:7742H         LINE#         875
  C:7749H         LINE#         876
  C:7749H         LINE#         879
  C:7761H         LINE#         880
  C:7767H         LINE#         881
  C:7767H         LINE#         882
  C:776BH         LINE#         883
  C:776DH         LINE#         885
  C:776DH         LINE#         886
  C:7774H         LINE#         887
  C:7774H         LINE#         889
  C:778CH         LINE#         890
  C:7792H         LINE#         891
  C:7792H         LINE#         892
  C:7796H         LINE#         893
  C:7798H         LINE#         895
  C:7798H         LINE#         896
BL51 BANKED LINKER/LOCATER V6.22.2.0                                                  06/23/2021  14:18:03  PAGE 78


  C:779FH         LINE#         897
  C:779FH         LINE#         899
  C:77B7H         LINE#         900
  C:77BDH         LINE#         901
  C:77BDH         LINE#         902
  C:77C1H         LINE#         903
  C:77C3H         LINE#         905
  C:77C3H         LINE#         906
  C:77CAH         LINE#         907
  C:77CAH         LINE#         910
  C:77E2H         LINE#         911
  C:77E8H         LINE#         912
  C:77E8H         LINE#         913
  C:77ECH         LINE#         914
  C:77EEH         LINE#         916
  C:77EEH         LINE#         917
  C:77F5H         LINE#         918
  C:77F5H         LINE#         920
  C:7807H         LINE#         921
  C:780DH         LINE#         922
  C:780DH         LINE#         923
  C:7811H         LINE#         924
  C:7813H         LINE#         926
  C:7813H         LINE#         927
  C:781AH         LINE#         928
  C:781AH         LINE#         929
  -------         ENDPROC       _VER_HORARIO_DIAS
  -------         PROC          PROG_HORARIOS
  -------         DO            
  X:0046H         SYMBOL        buffer
  X:0050H         SYMBOL        ee_addr_horario
  X:005BH         SYMBOL        addr
  X:005DH         SYMBOL        temp
  X:005FH         SYMBOL        dataee
  X:0060H         SYMBOL        j
  -------         ENDDO         
  C:6D3DH         LINE#         930
  C:6D3DH         LINE#         931
  C:6D3DH         LINE#         940
  C:6D49H         LINE#         944
  C:6D52H         LINE#         945
  C:6D5DH         LINE#         947
  C:6D6CH         LINE#         951
  C:6D82H         LINE#         952
  C:6D88H         LINE#         956
  C:6D96H         LINE#         957
  C:6D9EH         LINE#         958
  C:6D9EH         LINE#         960
  C:6DADH         LINE#         961
  C:6DC1H         LINE#         962
  C:6DC1H         LINE#         963
  C:6DD5H         LINE#         964
  C:6DDDH         LINE#         966
  C:6DEDH         LINE#         969
  C:6DF0H         LINE#         973
  C:6DFBH         LINE#         976
  C:6E04H         LINE#         977
BL51 BANKED LINKER/LOCATER V6.22.2.0                                                  06/23/2021  14:18:03  PAGE 79


  C:6E0FH         LINE#         978
  C:6E1EH         LINE#         979
  C:6E31H         LINE#         981
  C:6E49H         LINE#         982
  C:6E63H         LINE#         983
  C:6E6BH         LINE#         984
  C:6E6BH         LINE#         986
  C:6E79H         LINE#         987
  C:6E81H         LINE#         988
  C:6E81H         LINE#         989
  C:6E81H         LINE#         991
  -------         ENDPROC       PROG_HORARIOS
  -------         PROC          PROG_VALIDAR_TIPO_VEHICULO_MENSUAL
  -------         DO            
  X:0046H         SYMBOL        buffer
  X:0050H         SYMBOL        dataee
  -------         ENDDO         
  C:836AH         LINE#         992
  C:836AH         LINE#         993
  C:836AH         LINE#         998
  C:837DH         LINE#         999
  C:839AH         LINE#         1000
  C:83A4H         LINE#         1001
  C:83A4H         LINE#         1002
  C:83B7H         LINE#         1003
  C:83B9H         LINE#         1005
  C:83B9H         LINE#         1006
  C:83D0H         LINE#         1007
  C:83D0H         LINE#         1009
  C:83D9H         LINE#         1010
  C:83E4H         LINE#         1011
  C:83F5H         LINE#         1012
  C:83FFH         LINE#         1014
  C:8412H         LINE#         1015
  C:842FH         LINE#         1016
  C:8439H         LINE#         1017
  C:8439H         LINE#         1018
  C:844CH         LINE#         1019
  C:844EH         LINE#         1021
  C:844EH         LINE#         1022
  C:8465H         LINE#         1023
  C:8465H         LINE#         1024
  -------         ENDPROC       PROG_VALIDAR_TIPO_VEHICULO_MENSUAL
  -------         PROC          PROG_APB_MENSUAL
  -------         DO            
  X:0046H         SYMBOL        buffer
  X:0050H         SYMBOL        dataee
  -------         ENDDO         
  C:8466H         LINE#         1025
  C:8466H         LINE#         1026
  C:8466H         LINE#         1031
  C:8479H         LINE#         1032
  C:8496H         LINE#         1033
  C:84A0H         LINE#         1034
  C:84A0H         LINE#         1035
  C:84B3H         LINE#         1036
  C:84B5H         LINE#         1038
BL51 BANKED LINKER/LOCATER V6.22.2.0                                                  06/23/2021  14:18:03  PAGE 80


  C:84B5H         LINE#         1039
  C:84CCH         LINE#         1040
  C:84CCH         LINE#         1042
  C:84D5H         LINE#         1043
  C:84E0H         LINE#         1044
  C:84F1H         LINE#         1045
  C:84FBH         LINE#         1047
  C:850EH         LINE#         1048
  C:852BH         LINE#         1049
  C:8535H         LINE#         1050
  C:8535H         LINE#         1051
  C:8548H         LINE#         1052
  C:854AH         LINE#         1054
  C:854AH         LINE#         1055
  C:8561H         LINE#         1056
  C:8561H         LINE#         1057
  -------         ENDPROC       PROG_APB_MENSUAL
  -------         PROC          PROG_FECHA_VENCIMIENTO
  -------         DO            
  X:0046H         SYMBOL        buffer
  X:0051H         SYMBOL        cmd
  X:0054H         SYMBOL        fecha
  X:005BH         SYMBOL        dataee
  -------         ENDDO         
  C:5C81H         LINE#         1059
  C:5C81H         LINE#         1060
  C:5C81H         LINE#         1067
  C:5C8EH         LINE#         1068
  C:5CA5H         LINE#         1071
  C:5CBCH         LINE#         1073
  C:5CBCH         LINE#         1074
  C:5CC5H         LINE#         1075
  C:5CD2H         LINE#         1076
  C:5CE9H         LINE#         1077
  C:5CFBH         LINE#         1078
  C:5D04H         LINE#         1083
  C:5D0FH         LINE#         1084
  C:5D23H         LINE#         1085
  C:5D30H         LINE#         1087
  C:5D39H         LINE#         1090
  C:5D42H         LINE#         1091
  C:5D4DH         LINE#         1092
  C:5D64H         LINE#         1094
  C:5D6CH         LINE#         1095
  C:5D74H         LINE#         1096
  C:5D77H         LINE#         1098
  C:5D88H         LINE#         1099
  C:5D99H         LINE#         1101
  C:5DA8H         LINE#         1102
  C:5DB0H         LINE#         1103
  C:5DB8H         LINE#         1104
  C:5DBBH         LINE#         1105
  C:5DCCH         LINE#         1106
  C:5DDDH         LINE#         1107
  C:5DECH         LINE#         1108
  C:5DF4H         LINE#         1109
  C:5DFCH         LINE#         1110
BL51 BANKED LINKER/LOCATER V6.22.2.0                                                  06/23/2021  14:18:03  PAGE 81


  C:5DFFH         LINE#         1111
  C:5E10H         LINE#         1112
  C:5E21H         LINE#         1113
  C:5E30H         LINE#         1114
  C:5E3BH         LINE#         1116
  C:5E48H         LINE#         1118
  C:5E5FH         LINE#         1119
  -------         ENDPROC       PROG_FECHA_VENCIMIENTO
  -------         PROC          VER_HORARIO
  -------         DO            
  X:0059H         SYMBOL        buffer
  X:0063H         SYMBOL        ee_addr_horario
  X:006EH         SYMBOL        conta
  X:006FH         SYMBOL        addr
  X:0071H         SYMBOL        temp
  X:0073H         SYMBOL        dataee
  -------         ENDDO         
  C:723AH         LINE#         1122
  C:723AH         LINE#         1123
  C:723AH         LINE#         1132
  C:7246H         LINE#         1133
  C:725CH         LINE#         1134
  C:725CH         LINE#         1136
  C:726CH         LINE#         1139
  C:7285H         LINE#         1140
  C:728BH         LINE#         1143
  C:7299H         LINE#         1144
  C:72A8H         LINE#         1145
  C:72C2H         LINE#         1146
  C:72CDH         LINE#         1147
  C:72CDH         LINE#         1148
  C:72D6H         LINE#         1150
  C:72DFH         LINE#         1151
  C:72EFH         LINE#         1152
  C:72F2H         LINE#         1154
  C:72FDH         LINE#         1155
  C:7315H         LINE#         1156
  C:732FH         LINE#         1157
  C:7339H         LINE#         1158
  C:7339H         LINE#         1159
  C:7340H         LINE#         1161
  C:734EH         LINE#         1162
  C:7356H         LINE#         1163
  C:7358H         LINE#         1165
  C:7358H         LINE#         1166
  C:735CH         LINE#         1167
  C:735CH         LINE#         1168
  C:735EH         LINE#         1170
  C:735EH         LINE#         1171
  C:7367H         LINE#         1172
  C:7367H         LINE#         1174
  C:7370H         LINE#         1177
  -------         ENDPROC       VER_HORARIO
  -------         PROC          PROG_MENSUALES
  -------         DO            
  X:0046H         SYMBOL        buffer
  X:0050H         SYMBOL        dataee
BL51 BANKED LINKER/LOCATER V6.22.2.0                                                  06/23/2021  14:18:03  PAGE 82


  -------         ENDDO         
  C:8562H         LINE#         1178
  C:8562H         LINE#         1179
  C:8562H         LINE#         1184
  C:8575H         LINE#         1185
  C:8592H         LINE#         1186
  C:859CH         LINE#         1187
  C:859CH         LINE#         1188
  C:85AFH         LINE#         1189
  C:85B1H         LINE#         1191
  C:85B1H         LINE#         1192
  C:85C8H         LINE#         1193
  C:85C8H         LINE#         1195
  C:85D1H         LINE#         1196
  C:85DCH         LINE#         1197
  C:85EDH         LINE#         1198
  C:85F7H         LINE#         1200
  C:860AH         LINE#         1201
  C:8627H         LINE#         1202
  C:8631H         LINE#         1203
  C:8631H         LINE#         1204
  C:8644H         LINE#         1205
  C:8646H         LINE#         1207
  C:8646H         LINE#         1208
  C:865DH         LINE#         1209
  C:865DH         LINE#         1211
  -------         ENDPROC       PROG_MENSUALES
  -------         PROC          VER_PROG
  -------         DO            
  X:0046H         SYMBOL        buffer
  X:0050H         SYMBOL        dataee
  X:0052H         SYMBOL        fecha
  -------         ENDDO         
  C:455DH         LINE#         1212
  C:455DH         LINE#         1213
  C:455DH         LINE#         1219
  C:456FH         LINE#         1220
  C:458CH         LINE#         1222
  C:45A3H         LINE#         1224
  C:45B6H         LINE#         1225
  C:45D3H         LINE#         1227
  C:45EAH         LINE#         1229
  C:45FDH         LINE#         1230
  C:461AH         LINE#         1231
  C:4628H         LINE#         1232
  C:4628H         LINE#         1233
  C:462CH         LINE#         1234
  C:462EH         LINE#         1236
  C:462EH         LINE#         1237
  C:4635H         LINE#         1238
  C:4635H         LINE#         1240
  C:4648H         LINE#         1241
  C:4665H         LINE#         1242
  C:4671H         LINE#         1243
  C:4671H         LINE#         1244
  C:4675H         LINE#         1245
  C:4677H         LINE#         1247
BL51 BANKED LINKER/LOCATER V6.22.2.0                                                  06/23/2021  14:18:03  PAGE 83


  C:4677H         LINE#         1248
  C:467EH         LINE#         1249
  C:467EH         LINE#         1251
  C:4691H         LINE#         1252
  C:46AEH         LINE#         1253
  C:46BAH         LINE#         1254
  C:46BAH         LINE#         1255
  C:46BEH         LINE#         1256
  C:46C0H         LINE#         1258
  C:46C0H         LINE#         1259
  C:46C7H         LINE#         1260
  C:46C7H         LINE#         1262
  C:46DAH         LINE#         1263
  C:46F7H         LINE#         1264
  C:4703H         LINE#         1265
  C:4703H         LINE#         1266
  C:4707H         LINE#         1267
  C:4709H         LINE#         1269
  C:4709H         LINE#         1270
  C:4710H         LINE#         1271
  C:4710H         LINE#         1273
  C:4723H         LINE#         1274
  C:4740H         LINE#         1275
  C:474CH         LINE#         1276
  C:474CH         LINE#         1277
  C:4750H         LINE#         1278
  C:4752H         LINE#         1280
  C:4752H         LINE#         1281
  C:4759H         LINE#         1282
  C:4759H         LINE#         1284
  C:476CH         LINE#         1285
  C:4789H         LINE#         1286
  C:4795H         LINE#         1287
  C:4795H         LINE#         1288
  C:4799H         LINE#         1289
  C:479BH         LINE#         1291
  C:479BH         LINE#         1292
  C:47A2H         LINE#         1293
  C:47A2H         LINE#         1296
  C:47B5H         LINE#         1297
  C:47D2H         LINE#         1299
  C:47E9H         LINE#         1301
  C:47ECH         LINE#         1305
  C:47FFH         LINE#         1306
  C:481CH         LINE#         1307
  C:4828H         LINE#         1308
  C:4828H         LINE#         1309
  C:482CH         LINE#         1310
  C:482EH         LINE#         1312
  C:482EH         LINE#         1313
  C:4835H         LINE#         1314
  C:4835H         LINE#         1316
  C:4848H         LINE#         1317
  C:4865H         LINE#         1318
  C:4871H         LINE#         1319
  C:4871H         LINE#         1320
  C:4875H         LINE#         1321
BL51 BANKED LINKER/LOCATER V6.22.2.0                                                  06/23/2021  14:18:03  PAGE 84


  C:4877H         LINE#         1323
  C:4877H         LINE#         1324
  C:487EH         LINE#         1325
  C:487EH         LINE#         1328
  C:4891H         LINE#         1329
  C:48AEH         LINE#         1330
  C:48BAH         LINE#         1331
  C:48BAH         LINE#         1332
  C:48BEH         LINE#         1333
  C:48C0H         LINE#         1335
  C:48C0H         LINE#         1336
  C:48C7H         LINE#         1337
  C:48C7H         LINE#         1340
  C:48D4H         LINE#         1342
  C:48EBH         LINE#         1343
  C:4902H         LINE#         1346
  C:490EH         LINE#         1347
  -------         ENDPROC       VER_PROG
  -------         PROC          SHOW
  C:A0A5H         LINE#         1354
  C:A0A5H         LINE#         1355
  C:A0A5H         LINE#         1356
  C:A0AEH         LINE#         1357
  C:A0B7H         LINE#         1358
  C:A0C0H         LINE#         1359
  C:A0C9H         LINE#         1360
  C:A0D2H         LINE#         1361
  C:A0DBH         LINE#         1362
  C:A0E4H         LINE#         1363
  C:A0EDH         LINE#         1364
  C:A0F6H         LINE#         1365
  C:A0FFH         LINE#         1366
  C:A108H         LINE#         1367
  C:A111H         LINE#         1368
  C:A11AH         LINE#         1369
  C:A123H         LINE#         1370
  C:A12CH         LINE#         1371
  C:A135H         LINE#         1372
  C:A13EH         LINE#         1373
  -------         ENDPROC       SHOW
  -------         PROC          FIRST_CLAVE
  -------         DO            
  X:0046H         SYMBOL        clave
  -------         ENDDO         
  C:B8DAH         LINE#         1380
  C:B8DAH         LINE#         1381
  C:B8DAH         LINE#         1385
  C:B8E3H         LINE#         1386
  C:B8E8H         LINE#         1387
  C:B8FAH         LINE#         1388
  C:B907H         LINE#         1389
  C:B90DH         LINE#         1390
  C:B910H         LINE#         1391
  C:B913H         LINE#         1392
  C:B915H         LINE#         1394
  -------         ENDPROC       FIRST_CLAVE
  -------         PROC          MENU
BL51 BANKED LINKER/LOCATER V6.22.2.0                                                  06/23/2021  14:18:03  PAGE 85


  -------         DO            
  X:0001H         SYMBOL        cmd
  X:0004H         SYMBOL        option1
  X:0007H         SYMBOL        option2
  X:000AH         SYMBOL        opt_buffer
  X:0032H         SYMBOL        buffer
  -------         ENDDO         
  C:564AH         LINE#         1398
  C:564AH         LINE#         1399
  C:564AH         LINE#         1408
  C:5653H         LINE#         1413
  C:565FH         LINE#         1414
  C:565FH         LINE#         1415
  C:5662H         LINE#         1416
  C:566CH         LINE#         1419
  C:566CH         LINE#         1421
  C:566CH         LINE#         1422
  C:5675H         LINE#         1423
  C:5682H         LINE#         1424
  C:5687H         LINE#         1425
  C:569DH         LINE#         1426
  C:56AFH         LINE#         1427
  C:56B8H         LINE#         1432
  C:56C3H         LINE#         1433
  C:56D1H         LINE#         1434
  C:56DEH         LINE#         1436
  C:56E7H         LINE#         1440
  C:56EAH         LINE#         1441
  C:56EAH         LINE#         1442
  C:56EAH         LINE#         1443
  C:56EDH         LINE#         1446
  C:56F8H         LINE#         1447
  C:5706H         LINE#         1448
  C:571AH         LINE#         1449
  C:572EH         LINE#         1454
  C:5744H         LINE#         1455
  C:5744H         LINE#         1457
  C:5753H         LINE#         1458
  C:5755H         LINE#         1459
  C:5765H         LINE#         1460
  C:5765H         LINE#         1462
  C:5774H         LINE#         1463
  C:5792H         LINE#         1464
  C:5792H         LINE#         1470
  C:57A5H         LINE#         1471
  C:57A5H         LINE#         1472
  C:57F1H         LINE#         1473
  C:57F1H         LINE#         1474
  C:57F1H         LINE#         1475
  C:57F4H         LINE#         1477
  C:57F7H         LINE#         1479
  C:57F7H         LINE#         1480
  C:57FAH         LINE#         1481
  C:57FDH         LINE#         1482
  C:57FDH         LINE#         1483
  C:5800H         LINE#         1484
  C:5803H         LINE#         1485
BL51 BANKED LINKER/LOCATER V6.22.2.0                                                  06/23/2021  14:18:03  PAGE 86


  C:5803H         LINE#         1486
  C:5806H         LINE#         1487
  C:5809H         LINE#         1488
  C:5809H         LINE#         1489
  C:580CH         LINE#         1490
  C:580FH         LINE#         1491
  C:580FH         LINE#         1492
  C:5812H         LINE#         1493
  C:5815H         LINE#         1494
  C:5815H         LINE#         1495
  C:5818H         LINE#         1496
  C:581BH         LINE#         1497
  C:581BH         LINE#         1498
  C:581EH         LINE#         1499
  C:5821H         LINE#         1500
  C:5821H         LINE#         1501
  C:5824H         LINE#         1502
  C:5827H         LINE#         1503
  C:5827H         LINE#         1504
  C:582AH         LINE#         1505
  C:582DH         LINE#         1506
  C:582DH         LINE#         1507
  C:5830H         LINE#         1508
  C:5833H         LINE#         1509
  C:5833H         LINE#         1510
  C:5836H         LINE#         1511
  C:5839H         LINE#         1512
  C:5839H         LINE#         1513
  C:583CH         LINE#         1514
  C:583FH         LINE#         1515
  C:583FH         LINE#         1516
  C:5842H         LINE#         1517
  C:5845H         LINE#         1519
  C:5845H         LINE#         1520
  C:5848H         LINE#         1521
  C:584BH         LINE#         1522
  C:584BH         LINE#         1523
  C:584EH         LINE#         1524
  C:5851H         LINE#         1525
  C:5851H         LINE#         1526
  C:5854H         LINE#         1527
  C:5857H         LINE#         1528
  C:5857H         LINE#         1530
  C:5857H         LINE#         1531
  C:5857H         LINE#         1532
  C:585AH         LINE#         1533
  C:585DH         LINE#         1536
  C:585DH         LINE#         1537
  C:587BH         LINE#         1538
  C:587EH         LINE#         1539
  C:587EH         LINE#         1540
  C:587EH         LINE#         1541
  C:587EH         LINE#         1542
  -------         ENDPROC       MENU
  -------         ENDMOD        PROG

  -------         MODULE        PTO_PARALELO
BL51 BANKED LINKER/LOCATER V6.22.2.0                                                  06/23/2021  14:18:03  PAGE 87


  C:0000H         SYMBOL        _ICE_DUMMY_
  D:0080H         PUBLIC        P0
  D:00A0H         PUBLIC        P2
  D:00B0H         PUBLIC        P3
  B:0080H.2       PUBLIC        led_err_imp
  C:70FEH         PUBLIC        load_and_send_id_cod
  C:A455H         PUBLIC        _recibe_port
  B:00B0H.2       PUBLIC        ready
  B:0080H.6       PUBLIC        rx_in_data
  C:C434H         PUBLIC        Pulso_Bus
  C:AA01H         PUBLIC        _send_portERR
  B:00B0H.3       PUBLIC        busy
  C:B7FAH         PUBLIC        load_and_send_info_reloj
  C:9B54H         PUBLIC        _send_port
  B:00B0H.4       PUBLIC        port_clk
  C:C4AFH         PUBLIC        cond_ini_pto
  -------         PROC          _RECIBE_PORT
  X:0001H         SYMBOL        buffer_port
  -------         DO            
  D:0006H         SYMBOL        count
  X:0004H         SYMBOL        time_out
  X:0005H         SYMBOL        num_data
  X:0006H         SYMBOL        T_ANCHO
  X:0008H         SYMBOL        data_temp
  -------         ENDDO         
  C:A455H         LINE#         60
  C:A460H         LINE#         61
  C:A460H         LINE#         65
  C:A469H         LINE#         66
  C:A46CH         LINE#         69
  C:A46FH         LINE#         70
  C:A46FH         LINE#         72
  C:A472H         LINE#         73
  C:A477H         LINE#         74
  C:A479H         LINE#         75
  C:A47DH         LINE#         76
  C:A47FH         LINE#         79
  C:A484H         LINE#         80
  C:A48DH         LINE#         81
  C:A48DH         LINE#         82
  C:A490H         LINE#         83
  C:A490H         LINE#         85
  C:A495H         LINE#         86
  C:A499H         LINE#         87
  C:A499H         LINE#         88
  C:A49BH         LINE#         89
  C:A49DH         LINE#         90
  C:A49DH         LINE#         91
  C:A49DH         LINE#         93
  C:A49DH         LINE#         94
  C:A4AAH         LINE#         95
  C:A4AAH         LINE#         97
  C:A4ADH         LINE#         98
  C:A4ADH         LINE#         100
  C:A4B3H         LINE#         102
  C:A4B5H         LINE#         103
  C:A4C9H         LINE#         104
BL51 BANKED LINKER/LOCATER V6.22.2.0                                                  06/23/2021  14:18:03  PAGE 88


  C:A4D3H         LINE#         105
  C:A4D9H         LINE#         106
  C:A4DFH         LINE#         107
  C:A4E1H         LINE#         108
  C:A4E1H         LINE#         109
  C:A4E1H         LINE#         110
  C:A4E1H         LINE#         113
  C:A4E3H         LINE#         114
  C:A4E5H         LINE#         115
  C:A4E5H         LINE#         116
  C:A4E8H         LINE#         118
  C:A4EDH         LINE#         119
  -------         ENDPROC       _RECIBE_PORT
  -------         PROC          _SEND_PORT
  X:0016H         SYMBOL        buffer_port
  X:0019H         SYMBOL        length_char
  -------         DO            
  X:001AH         SYMBOL        cont
  X:001EH         SYMBOL        timeOut
  X:001FH         SYMBOL        length
  -------         ENDDO         
  C:9B54H         LINE#         126
  C:9B62H         LINE#         127
  C:9B62H         LINE#         132
  C:9B66H         LINE#         134
  C:9B68H         LINE#         135
  C:9B6AH         LINE#         136
  C:9B6CH         LINE#         137
  C:9B71H         LINE#         138
  C:9B73H         LINE#         139
  C:9B7DH         LINE#         141
  C:9B86H         LINE#         142
  C:9B86H         LINE#         143
  C:9B88H         LINE#         144
  C:9B8AH         LINE#         145
  C:9BAEH         LINE#         146
  C:9BC2H         LINE#         147
  C:9BC2H         LINE#         148
  C:9BC5H         LINE#         149
  C:9BC7H         LINE#         150
  C:9BC7H         LINE#         151
  C:9BC9H         LINE#         152
  C:9BD2H         LINE#         153
  C:9BD2H         LINE#         157
  C:9BD2H         LINE#         159
  C:9BE2H         LINE#         160
  C:9BE5H         LINE#         161
  C:9BEFH         LINE#         163
  C:9BF5H         LINE#         164
  C:9BF8H         LINE#         166
  C:9BF8H         LINE#         168
  C:9BFBH         LINE#         169
  C:9BFDH         LINE#         170
  C:9BFFH         LINE#         171
  C:9C01H         LINE#         172
  -------         ENDPROC       _SEND_PORT
  -------         PROC          PULSO_BUS
BL51 BANKED LINKER/LOCATER V6.22.2.0                                                  06/23/2021  14:18:03  PAGE 89


  C:C434H         LINE#         180
  C:C434H         LINE#         181
  C:C434H         LINE#         182
  C:C436H         LINE#         183
  C:C43DH         LINE#         184
  C:C43FH         LINE#         185
  -------         ENDPROC       PULSO_BUS
  -------         PROC          _SEND_PORTERR
  X:002AH         SYMBOL        cod_err
  -------         DO            
  X:002BH         SYMBOL        timeOut
  X:002CH         SYMBOL        cont
  -------         ENDDO         
  C:AA01H         LINE#         190
  C:AA07H         LINE#         191
  C:AA07H         LINE#         195
  C:AA09H         LINE#         196
  C:AA0BH         LINE#         197
  C:AA0EH         LINE#         198
  C:AA16H         LINE#         200
  C:AA18H         LINE#         201
  C:AA1AH         LINE#         202
  C:AA23H         LINE#         203
  C:AA23H         LINE#         204
  C:AA45H         LINE#         205
  C:AA59H         LINE#         206
  C:AA59H         LINE#         207
  C:AA5EH         LINE#         208
  C:AA5EH         LINE#         209
  C:AA60H         LINE#         210
  C:AA69H         LINE#         211
  C:AA69H         LINE#         212
  C:AA6FH         LINE#         213
  C:AA72H         LINE#         214
  C:AA72H         LINE#         215
  C:AA74H         LINE#         216
  C:AA76H         LINE#         217
  C:AA78H         LINE#         219
  C:AA7BH         LINE#         221
  C:AA82H         LINE#         222
  -------         ENDPROC       _SEND_PORTERR
  -------         PROC          COND_INI_PTO
  C:C4AFH         LINE#         228
  C:C4AFH         LINE#         229
  C:C4AFH         LINE#         231
  C:C4B1H         LINE#         232
  C:C4B3H         LINE#         233
  C:C4B5H         LINE#         234
  C:C4B8H         LINE#         235
  -------         ENDPROC       COND_INI_PTO
  -------         PROC          LOAD_AND_SEND_INFO_RELOJ
  -------         DO            
  X:0002H         SYMBOL        buffer_info
  -------         ENDDO         
  C:B7FAH         LINE#         240
  C:B7FAH         LINE#         241
  C:B7FAH         LINE#         244
BL51 BANKED LINKER/LOCATER V6.22.2.0                                                  06/23/2021  14:18:03  PAGE 90


  C:B800H         LINE#         246
  C:B804H         LINE#         252
  C:B80DH         LINE#         255
  C:B817H         LINE#         256
  C:B81BH         LINE#         257
  C:B81EH         LINE#         258
  C:B827H         LINE#         259
  C:B838H         LINE#         260
  C:B83BH         LINE#         261
  -------         ENDPROC       LOAD_AND_SEND_INFO_RELOJ
  -------         PROC          LOAD_AND_SEND_ID_COD
  -------         DO            
  X:0002H         SYMBOL        buffer_info
  X:000DH         SYMBOL        buf
  X:0011H         SYMBOL        i
  X:0012H         SYMBOL        ID_CLIENTE
  X:0014H         SYMBOL        COD_PARK
  -------         ENDDO         
  C:70FEH         LINE#         268
  C:70FEH         LINE#         269
  C:70FEH         LINE#         277
  C:710EH         LINE#         279
  C:711FH         LINE#         281
  C:7125H         LINE#         282
  C:7129H         LINE#         283
  C:712CH         LINE#         285
  C:7152H         LINE#         286
  C:7169H         LINE#         289
  C:7180H         LINE#         292
  C:71A6H         LINE#         293
  C:71BDH         LINE#         295
  C:71D4H         LINE#         296
  C:71E2H         LINE#         297
  C:71F3H         LINE#         298
  C:7206H         LINE#         299
  C:720CH         LINE#         300
  C:7215H         LINE#         301
  C:7229H         LINE#         302
  C:722CH         LINE#         303
  -------         ENDPROC       LOAD_AND_SEND_ID_COD
  -------         ENDMOD        PTO_PARALELO

  -------         MODULE        TIBBO
  C:0000H         SYMBOL        _ICE_DUMMY_
  C:BA3CH         PUBLIC        _Debug_HexDec
  C:B89CH         PUBLIC        _Debug_txt_Tibbo
  D:0080H         PUBLIC        P0
  D:0090H         PUBLIC        P1
  B:0090H.0       PUBLIC        txd2
  B:00A8H.7       PUBLIC        EA
  C:B849H         PUBLIC        _tx_aux
  B:0080H.0       PUBLIC        rx_ip
  C:C4B9H         PUBLIC        Debug_Dividir_texto
  C:C50EH         PUBLIC        cond_ini_tibbo
  C:C3A9H         PUBLIC        time_mbit
  C:AA89H         PUBLIC        rx_Data
  C:C328H         PUBLIC        time_bit
BL51 BANKED LINKER/LOCATER V6.22.2.0                                                  06/23/2021  14:18:03  PAGE 91


  C:BC0DH         PUBLIC        _Debug_pto_paralelo
  C:BD82H         PUBLIC        _Debug_monitor
  C:AC1FH         PUBLIC        _DebugBufferMF
  C:B922H         PUBLIC        _Debug_chr_Tibbo
  C:C322H         SYMBOL        L?0067
  -------         PROC          L?0066
  -------         ENDPROC       L?0066
  C:C322H         SYMBOL        L?0067
  -------         PROC          TIME_BIT
  -------         DO            
  D:0007H         SYMBOL        j
  -------         ENDDO         
  C:C328H         LINE#         20
  C:C328H         LINE#         21
  C:C328H         LINE#         24
  C:C334H         LINE#         25
  C:C334H         LINE#         26
  C:C335H         LINE#         27
  C:C336H         LINE#         28
  C:C337H         LINE#         29
  C:C338H         LINE#         30
  C:C339H         LINE#         31
  C:C33AH         LINE#         32
  C:C33BH         LINE#         33
  C:C33CH         LINE#         34
  C:C33DH         LINE#         39
  C:C340H         LINE#         40
  -------         ENDPROC       TIME_BIT
  -------         PROC          TIME_MBIT
  -------         DO            
  D:0007H         SYMBOL        j
  -------         ENDDO         
  C:C3A9H         LINE#         43
  C:C3A9H         LINE#         44
  C:C3A9H         LINE#         46
  C:C3B5H         LINE#         47
  C:C3B5H         LINE#         48
  C:C3B6H         LINE#         49
  C:C3B7H         LINE#         50
  C:C3B8H         LINE#         51
  C:C3B9H         LINE#         52
  C:C3BAH         LINE#         53
  C:C3BBH         LINE#         54
  C:C3BCH         LINE#         55
  C:C3BFH         LINE#         57
  -------         ENDPROC       TIME_MBIT
  -------         PROC          L?0070
  -------         ENDPROC       L?0070
  -------         PROC          _TX_AUX
  D:0006H         SYMBOL        caracter
  -------         DO            
  D:0004H         SYMBOL        j
  D:0005H         SYMBOL        temporal
  D:0006H         SYMBOL        bitTX
  -------         ENDDO         
  C:B849H         LINE#         62
  C:B84BH         LINE#         63
BL51 BANKED LINKER/LOCATER V6.22.2.0                                                  06/23/2021  14:18:03  PAGE 92


  C:B84BH         LINE#         66
  C:B84DH         LINE#         67
  C:B84FH         LINE#         68
  C:B852H         LINE#         69
  C:B853H         LINE#         70
  C:B854H         LINE#         71
  C:B856H         LINE#         72
  C:B85AH         LINE#         73
  C:B85CH         LINE#         74
  C:B85CH         LINE#         75
  C:B85EH         LINE#         76
  C:B860H         LINE#         78
  C:B860H         LINE#         79
  C:B862H         LINE#         80
  C:B862H         LINE#         81
  C:B865H         LINE#         82
  C:B871H         LINE#         83
  C:B871H         LINE#         84
  C:B875H         LINE#         85
  C:B878H         LINE#         86
  C:B87AH         LINE#         87
  C:B87AH         LINE#         88
  C:B87CH         LINE#         89
  C:B87EH         LINE#         91
  C:B87EH         LINE#         92
  C:B880H         LINE#         93
  C:B880H         LINE#         94
  C:B883H         LINE#         95
  C:B886H         LINE#         96
  C:B888H         LINE#         97
  C:B88BH         LINE#         98
  C:B88EH         LINE#         100
  C:B890H         LINE#         101
  -------         ENDPROC       _TX_AUX
  -------         PROC          _DEBUG_HEXDEC
  D:0007H         SYMBOL        xfc
  -------         DO            
  X:0018H         SYMBOL        valor
  D:0006H         SYMBOL        centena
  D:0003H         SYMBOL        decena
  D:0002H         SYMBOL        unidad
  -------         ENDDO         
  C:BA3CH         LINE#         104
  C:BA3CH         LINE#         105
  C:BA3CH         LINE#         108
  C:BA43H         LINE#         110
  C:BA44H         LINE#         111
  C:BA45H         LINE#         112
  C:BA46H         LINE#         113
  C:BA4EH         LINE#         114
  C:BA4EH         LINE#         115
  C:BA58H         LINE#         116
  C:BA58H         LINE#         117
  C:BA5CH         LINE#         118
  C:BA5DH         LINE#         119
  C:BA5FH         LINE#         120
  C:BA69H         LINE#         121
BL51 BANKED LINKER/LOCATER V6.22.2.0                                                  06/23/2021  14:18:03  PAGE 93


  C:BA69H         LINE#         122
  C:BA6DH         LINE#         123
  C:BA6EH         LINE#         124
  C:BA70H         LINE#         125
  C:BA72H         LINE#         126
  C:BA76H         LINE#         127
  C:BA7AH         LINE#         128
  C:BA81H         LINE#         130
  C:BA81H         LINE#         131
  -------         ENDPROC       _DEBUG_HEXDEC
  -------         PROC          _DEBUG_CHR_TIBBO
  D:0003H         SYMBOL        Dat
  -------         DO            
  D:0007H         SYMBOL        temp
  -------         ENDDO         
  C:B922H         LINE#         136
  C:B924H         LINE#         137
  C:B924H         LINE#         139
  C:B92CH         LINE#         140
  C:B92CH         LINE#         141
  C:B933H         LINE#         142
  C:B946H         LINE#         144
  C:B949H         LINE#         146
  C:B94DH         LINE#         147
  C:B960H         LINE#         148
  C:B963H         LINE#         149
  C:B968H         LINE#         151
  C:B968H         LINE#         152
  -------         ENDPROC       _DEBUG_CHR_TIBBO
  -------         PROC          _DEBUGBUFFERMF
  X:0027H         SYMBOL        str
  X:002AH         SYMBOL        num_char
  X:002BH         SYMBOL        io
  -------         DO            
  X:002CH         SYMBOL        j
  -------         ENDDO         
  C:AC1FH         LINE#         160
  C:AC2DH         LINE#         161
  C:AC2DH         LINE#         165
  C:AC35H         LINE#         166
  C:AC35H         LINE#         167
  C:AC44H         LINE#         168
  C:AC44H         LINE#         169
  C:AC4AH         LINE#         170
  C:AC4CH         LINE#         171
  C:AC59H         LINE#         172
  C:AC59H         LINE#         173
  C:AC62H         LINE#         174
  C:AC62H         LINE#         176
  C:AC74H         LINE#         177
  C:AC74H         LINE#         178
  C:AC86H         LINE#         179
  C:AC90H         LINE#         180
  C:AC98H         LINE#         181
  C:AC9DH         LINE#         182
  C:ACA2H         LINE#         183
  C:ACA2H         LINE#         185
BL51 BANKED LINKER/LOCATER V6.22.2.0                                                  06/23/2021  14:18:03  PAGE 94


  -------         ENDPROC       _DEBUGBUFFERMF
  C:B896H         SYMBOL        L?0069
  -------         PROC          L?0068
  -------         ENDPROC       L?0068
  C:B896H         SYMBOL        L?0069
  -------         PROC          _DEBUG_TXT_TIBBO
  X:0064H         SYMBOL        str
  -------         DO            
  X:0067H         SYMBOL        i
  -------         ENDDO         
  C:B89CH         LINE#         190
  C:B8A7H         LINE#         191
  C:B8A7H         LINE#         193
  C:B8AAH         LINE#         195
  C:B8B2H         LINE#         196
  C:B8B2H         LINE#         197
  C:B8CEH         LINE#         198
  C:B8CEH         LINE#         199
  C:B8D1H         LINE#         200
  C:B8D9H         LINE#         202
  C:B8D9H         LINE#         203
  -------         ENDPROC       _DEBUG_TXT_TIBBO
  -------         PROC          DEBUG_DIVIDIR_TEXTO
  C:C4B9H         LINE#         205
  C:C4B9H         LINE#         206
  C:C4B9H         LINE#         207
  -------         ENDPROC       DEBUG_DIVIDIR_TEXTO
  -------         PROC          RX_DATA
  -------         DO            
  D:0006H         SYMBOL        temporal
  -------         ENDDO         
  C:AA89H         LINE#         213
  C:AA89H         LINE#         214
  C:AA89H         LINE#         217
  C:AA8BH         LINE#         218
  C:AA8EH         LINE#         220
  C:AA91H         LINE#         222
  C:AA9DH         LINE#         223
  C:AA9DH         LINE#         225
  C:AAA0H         LINE#         227
  C:AAACH         LINE#         228
  C:AAACH         LINE#         230
  C:AAAFH         LINE#         232
  C:AABBH         LINE#         233
  C:AABBH         LINE#         235
  C:AABEH         LINE#         237
  C:AACAH         LINE#         238
  C:AACAH         LINE#         240
  C:AACDH         LINE#         242
  C:AAD9H         LINE#         243
  C:AAD9H         LINE#         245
  C:AADCH         LINE#         247
  C:AAE8H         LINE#         248
  C:AAE8H         LINE#         250
  C:AAEBH         LINE#         252
  C:AAF7H         LINE#         253
  C:AAF7H         LINE#         255
BL51 BANKED LINKER/LOCATER V6.22.2.0                                                  06/23/2021  14:18:03  PAGE 95


  C:AAFAH         LINE#         256
  C:AB08H         LINE#         258
  C:AB0BH         LINE#         259
  C:AB0EH         LINE#         260
  C:AB0EH         LINE#         261
  C:AB0EH         LINE#         264
  C:AB10H         LINE#         266
  -------         ENDPROC       RX_DATA
  -------         PROC          COND_INI_TIBBO
  C:C50EH         LINE#         284
  C:C50EH         LINE#         285
  C:C50EH         LINE#         287
  C:C510H         LINE#         288
  C:C512H         LINE#         289
  -------         ENDPROC       COND_INI_TIBBO
  -------         PROC          _DEBUG_PTO_PARALELO
  X:0001H         SYMBOL        buffer
  X:0004H         SYMBOL        Length_trama
  C:BC0DH         LINE#         290
  C:BC1BH         LINE#         291
  C:BC1BH         LINE#         293
  C:BC24H         LINE#         294
  C:BC3BH         LINE#         295
  C:BC44H         LINE#         296
  C:BC47H         LINE#         297
  C:BC4AH         LINE#         298
  -------         ENDPROC       _DEBUG_PTO_PARALELO
  -------         PROC          _DEBUG_MONITOR
  X:0016H         SYMBOL        buffer
  X:0019H         SYMBOL        Length_trama
  C:BD82H         LINE#         301
  C:BD90H         LINE#         302
  C:BD90H         LINE#         303
  C:BD93H         LINE#         304
  C:BD9CH         LINE#         305
  C:BDAAH         LINE#         306
  C:BDADH         LINE#         307
  C:BDB6H         LINE#         308
  C:BDB9H         LINE#         309
  C:BDBCH         LINE#         310
  -------         ENDPROC       _DEBUG_MONITOR
  -------         ENDMOD        TIBBO

  -------         MODULE        UART
  C:0000H         SYMBOL        _ICE_DUMMY_
  C:C1EFH         PUBLIC        com_getchar
  C:C446H         PUBLIC        com_rbuflen
  C:C458H         PUBLIC        com_tbuflen
  B:00A8H.4       PUBLIC        ES
  B:0098H.0       PUBLIC        RI
  C:BE72H         PUBLIC        _com_putchar
  B:0098H.1       PUBLIC        TI
  B:0021H.4       PUBLIC        aSk
  B:00B8H.4       PUBLIC        PS
  D:000DH         SYMBOL        r_in
  D:000EH         SYMBOL        r_out
  D:000FH         SYMBOL        t_in
BL51 BANKED LINKER/LOCATER V6.22.2.0                                                  06/23/2021  14:18:03  PAGE 96


  D:0010H         SYMBOL        t_out
  D:0099H         PUBLIC        SBUF
  D:0087H         PUBLIC        PCON
  D:0089H         PUBLIC        TMOD
  B:0021H.5       SYMBOL        ti_restart
  B:00A8H.3       PUBLIC        ET1
  D:008DH         PUBLIC        TH1
  B:0098H.7       PUBLIC        SM0
  B:0098H.6       PUBLIC        SM1
  D:008BH         PUBLIC        TL1
  B:0098H.5       PUBLIC        SM2
  B:0088H.6       PUBLIC        TR1
  C:C126H         PUBLIC        com_initialize
  X:0215H         PUBLIC        cnt__ask_off
  B:0098H.4       PUBLIC        REN
  C:C178H         PUBLIC        com_baudrate
  C:6418H         SYMBOL        com_isr
  -------         PROC          COM_ISR
  -------         DO            
  X:0213H         SYMBOL        cDatoRx
  D:0006H         SYMBOL        k
  D:0007H         SYMBOL        bcc
  X:0214H         SYMBOL        num_datos
  -------         ENDDO         
  C:6418H         LINE#         95
  C:642DH         LINE#         103
  C:6433H         LINE#         104
  C:6433H         LINE#         106
  C:6435H         LINE#         107
  C:643BH         LINE#         108
  C:644BH         LINE#         109
  C:644BH         LINE#         110
  C:6456H         LINE#         111
  C:6458H         LINE#         113
  C:6458H         LINE#         114
  C:6468H         LINE#         115
  C:6468H         LINE#         116
  C:646DH         LINE#         117
  C:646DH         LINE#         118
  C:6484H         LINE#         119
  C:6484H         LINE#         123
  C:6484H         LINE#         126
  C:6493H         LINE#         127
  C:6493H         LINE#         128
  C:6495H         LINE#         129
  C:649DH         LINE#         130
  C:64A2H         LINE#         132
  C:64A2H         LINE#         133
  C:64A5H         LINE#         137
  C:64A5H         LINE#         138
  C:64A5H         LINE#         139
  C:64BDH         LINE#         140
  C:64CCH         LINE#         141
  C:64CCH         LINE#         142
  C:64CCH         LINE#         143
  C:64CEH         LINE#         145
  C:64CEH         LINE#         146
BL51 BANKED LINKER/LOCATER V6.22.2.0                                                  06/23/2021  14:18:03  PAGE 97


  C:64D0H         LINE#         147
  C:64D0H         LINE#         148
  C:64D0H         LINE#         149
  C:64D3H         LINE#         153
  C:64D3H         LINE#         155
  C:64DCH         LINE#         156
  C:64DCH         LINE#         158
  C:64E2H         LINE#         159
  C:64F5H         LINE#         160
  C:64F5H         LINE#         161
  C:64F8H         LINE#         163
  C:64F8H         LINE#         164
  C:650DH         LINE#         165
  C:6513H         LINE#         166
  C:6513H         LINE#         168
  C:6516H         LINE#         172
  C:6516H         LINE#         174
  C:652EH         LINE#         175
  C:6534H         LINE#         176
  C:6537H         LINE#         177
  C:6537H         LINE#         178
  C:654FH         LINE#         179
  C:654FH         LINE#         180
  C:6550H         LINE#         181
  C:655DH         LINE#         182
  C:655DH         LINE#         183
  C:656AH         LINE#         184
  C:656DH         LINE#         185
  C:657BH         LINE#         186
  C:657BH         LINE#         187
  C:657DH         LINE#         188
  C:6582H         LINE#         189
  C:6584H         LINE#         190
  C:6588H         LINE#         192
  C:658AH         LINE#         194
  C:658AH         LINE#         195
  C:658AH         LINE#         196
  C:658AH         LINE#         197
  C:658CH         LINE#         199
  C:658CH         LINE#         200
  C:658CH         LINE#         201
  C:658CH         LINE#         203
  C:658EH         LINE#         205
  C:658EH         LINE#         206
  C:6594H         LINE#         207
  C:6594H         LINE#         209
  C:6596H         LINE#         214
  C:6596H         LINE#         215
  C:659BH         LINE#         216
  C:659BH         LINE#         217
  C:659BH         LINE#         218
  C:659BH         LINE#         223
  C:659EH         LINE#         224
  C:659EH         LINE#         225
  C:65A0H         LINE#         227
  C:65A6H         LINE#         228
  C:65A6H         LINE#         229
BL51 BANKED LINKER/LOCATER V6.22.2.0                                                  06/23/2021  14:18:03  PAGE 98


  C:65B0H         LINE#         231
  C:65B2H         LINE#         232
  C:65B4H         LINE#         233
  C:65B6H         LINE#         235
  C:65B6H         LINE#         236
  C:65B8H         LINE#         237
  C:65B8H         LINE#         238
  C:65B8H         LINE#         240
  -------         ENDPROC       COM_ISR
  -------         PROC          COM_INITIALIZE
  C:C126H         LINE#         256
  C:C12DH         LINE#         257
  C:C12DH         LINE#         261
  C:C130H         LINE#         266
  C:C133H         LINE#         267
  C:C135H         LINE#         269
  C:C137H         LINE#         270
  C:C139H         LINE#         275
  C:C13DH         LINE#         276
  C:C13FH         LINE#         277
  C:C141H         LINE#         279
  C:C143H         LINE#         280
  C:C145H         LINE#         281
  C:C147H         LINE#         283
  C:C149H         LINE#         284
  C:C14BH         LINE#         285
  -------         ENDPROC       COM_INITIALIZE
  -------         PROC          COM_BAUDRATE
  C:C178H         LINE#         291
  C:C17FH         LINE#         293
  C:C17FH         LINE#         297
  C:C181H         LINE#         298
  C:C184H         LINE#         299
  C:C186H         LINE#         304
  C:C188H         LINE#         305
  C:C18AH         LINE#         307
  C:C18DH         LINE#         309
  C:C190H         LINE#         310
  C:C193H         LINE#         312
  C:C196H         LINE#         313
  C:C199H         LINE#         314
  C:C19BH         LINE#         315
  -------         ENDPROC       COM_BAUDRATE
  -------         PROC          _COM_PUTCHAR
  X:00AAH         SYMBOL        c
  C:BE72H         LINE#         321
  C:BE7EH         LINE#         322
  C:BE7EH         LINE#         326
  C:BE8BH         LINE#         327
  C:BE8FH         LINE#         333
  C:BE9DH         LINE#         335
  C:BE9FH         LINE#         337
  C:BEA2H         LINE#         338
  C:BEA2H         LINE#         339
  C:BEA4H         LINE#         340
  C:BEA6H         LINE#         341
  C:BEA6H         LINE#         343
BL51 BANKED LINKER/LOCATER V6.22.2.0                                                  06/23/2021  14:18:03  PAGE 99


  C:BEA8H         LINE#         344
  -------         ENDPROC       _COM_PUTCHAR
  -------         PROC          COM_GETCHAR
  C:C1EFH         LINE#         350
  C:C1F6H         LINE#         351
  C:C1F6H         LINE#         352
  C:C1FCH         LINE#         353
  C:C202H         LINE#         355
  C:C210H         LINE#         356
  -------         ENDPROC       COM_GETCHAR
  -------         PROC          COM_RBUFLEN
  C:C446H         LINE#         362
  C:C44DH         LINE#         363
  C:C44DH         LINE#         364
  C:C453H         LINE#         365
  -------         ENDPROC       COM_RBUFLEN
  -------         PROC          COM_TBUFLEN
  C:C458H         LINE#         371
  C:C45FH         LINE#         372
  C:C45FH         LINE#         373
  C:C465H         LINE#         374
  -------         ENDPROC       COM_TBUFLEN
  -------         ENDMOD        UART

  -------         MODULE        LINTECH
  C:0000H         SYMBOL        _ICE_DUMMY_
  C:A1E8H         PUBLIC        _Inicializa
  C:93F7H         PUBLIC        _RD_MF
  C:9E0DH         PUBLIC        Dwload_EEprom
  C:A617H         PUBLIC        _Card_Insercion
  C:893BH         PUBLIC        _Mov_Card
  C:7D7EH         PUBLIC        _WR_MF
  C:A8E8H         PUBLIC        LoadVerify_EEprom
  C:AB11H         PUBLIC        Unique_Identifier_UID
  C:AF2BH         PUBLIC        Power_off
  C:AB99H         PUBLIC        _Check_Status
  C:9D63H         PUBLIC        Clave_Seguridad_S2
  C:AEABH         PUBLIC        Aut_Card_check_Status
  -------         PROC          _INICIALIZA
  X:0002H         SYMBOL        TipoMovimiento
  -------         DO            
  D:0003H         SYMBOL        j
  X:0003H         SYMBOL        bcc
  X:0004H         SYMBOL        g_scArrTxComSoft
  -------         ENDDO         
  C:A1E8H         LINE#         68
  C:A1EDH         LINE#         69
  C:A1EDH         LINE#         72
  C:A1F0H         LINE#         73
  C:A206H         LINE#         74
  C:A206H         LINE#         76
  C:A20FH         LINE#         78
  C:A215H         LINE#         79
  C:A218H         LINE#         80
  C:A21AH         LINE#         81
  C:A21EH         LINE#         82
  C:A222H         LINE#         83
BL51 BANKED LINKER/LOCATER V6.22.2.0                                                  06/23/2021  14:18:03  PAGE 100


  C:A226H         LINE#         84
  C:A22EH         LINE#         85
  C:A232H         LINE#         86
  C:A23EH         LINE#         87
  C:A23EH         LINE#         88
  C:A252H         LINE#         89
  C:A255H         LINE#         90
  C:A25DH         LINE#         91
  C:A25FH         LINE#         92
  C:A264H         LINE#         93
  C:A273H         LINE#         94
  C:A27EH         LINE#         95
  C:A284H         LINE#         96
  C:A284H         LINE#         97
  -------         ENDPROC       _INICIALIZA
  -------         PROC          _CHECK_STATUS
  X:0002H         SYMBOL        Detalle
  -------         DO            
  D:0006H         SYMBOL        j
  D:0007H         SYMBOL        bcc
  X:0003H         SYMBOL        g_scArrTxComSoft
  -------         ENDDO         
  C:AB99H         LINE#         109
  C:AB9EH         LINE#         110
  C:AB9EH         LINE#         114
  C:ABA4H         LINE#         115
  C:ABA4H         LINE#         116
  C:ABA8H         LINE#         117
  C:ABAAH         LINE#         119
  C:ABAAH         LINE#         120
  C:ABB1H         LINE#         121
  C:ABB1H         LINE#         122
  C:ABB3H         LINE#         124
  C:ABB9H         LINE#         125
  C:ABBCH         LINE#         126
  C:ABBEH         LINE#         127
  C:ABC2H         LINE#         128
  C:ABC6H         LINE#         129
  C:ABCAH         LINE#         130
  C:ABD2H         LINE#         131
  C:ABD6H         LINE#         132
  C:ABE2H         LINE#         133
  C:ABE2H         LINE#         134
  C:ABEFH         LINE#         135
  C:ABF2H         LINE#         136
  C:ABF7H         LINE#         137
  C:ABF9H         LINE#         138
  C:ABFEH         LINE#         139
  C:AC0DH         LINE#         140
  C:AC18H         LINE#         141
  C:AC1EH         LINE#         142
  -------         ENDPROC       _CHECK_STATUS
  -------         PROC          _CARD_INSERCION
  D:0007H         SYMBOL        Tipo
  -------         DO            
  D:0006H         SYMBOL        j
  D:0007H         SYMBOL        bcc
BL51 BANKED LINKER/LOCATER V6.22.2.0                                                  06/23/2021  14:18:03  PAGE 101


  X:0002H         SYMBOL        g_scArrTxComSoft
  -------         ENDDO         
  C:A617H         LINE#         152
  C:A617H         LINE#         153
  C:A617H         LINE#         156
  C:A624H         LINE#         157
  C:A624H         LINE#         158
  C:A62BH         LINE#         159
  C:A631H         LINE#         160
  C:A633H         LINE#         162
  C:A633H         LINE#         164
  C:A63AH         LINE#         165
  C:A640H         LINE#         167
  C:A640H         LINE#         169
  C:A642H         LINE#         171
  C:A648H         LINE#         172
  C:A64BH         LINE#         173
  C:A64DH         LINE#         174
  C:A651H         LINE#         175
  C:A655H         LINE#         176
  C:A659H         LINE#         178
  C:A65FH         LINE#         179
  C:A66BH         LINE#         180
  C:A66BH         LINE#         181
  C:A678H         LINE#         182
  C:A67BH         LINE#         184
  C:A680H         LINE#         186
  C:A682H         LINE#         187
  C:A687H         LINE#         188
  C:A696H         LINE#         189
  C:A6A1H         LINE#         190
  C:A6A7H         LINE#         191
  -------         ENDPROC       _CARD_INSERCION
  -------         PROC          _MOV_CARD
  X:0002H         SYMBOL        Posicion
  -------         DO            
  D:0003H         SYMBOL        j
  X:0003H         SYMBOL        bcc
  X:0004H         SYMBOL        g_scArrTxComSoft
  -------         ENDDO         
  C:893BH         LINE#         202
  C:8940H         LINE#         203
  C:8940H         LINE#         206
  C:8943H         LINE#         208
  C:8963H         LINE#         209
  C:8963H         LINE#         210
  C:896AH         LINE#         211
  C:896AH         LINE#         212
  C:8970H         LINE#         213
  C:8972H         LINE#         214
  C:8979H         LINE#         215
  C:8979H         LINE#         216
  C:897FH         LINE#         217
  C:8981H         LINE#         218
  C:8988H         LINE#         219
  C:8988H         LINE#         220
  C:898EH         LINE#         221
BL51 BANKED LINKER/LOCATER V6.22.2.0                                                  06/23/2021  14:18:03  PAGE 102


  C:8990H         LINE#         222
  C:8997H         LINE#         223
  C:8997H         LINE#         224
  C:899DH         LINE#         225
  C:899FH         LINE#         226
  C:89A6H         LINE#         227
  C:89A6H         LINE#         228
  C:89AFH         LINE#         229
  C:89AFH         LINE#         231
  C:89B5H         LINE#         232
  C:89B8H         LINE#         233
  C:89BAH         LINE#         234
  C:89BEH         LINE#         235
  C:89C2H         LINE#         236
  C:89C6H         LINE#         237
  C:89CEH         LINE#         238
  C:89D2H         LINE#         239
  C:89DEH         LINE#         240
  C:89DEH         LINE#         241
  C:89F2H         LINE#         242
  C:89F5H         LINE#         243
  C:89FDH         LINE#         244
  C:89FFH         LINE#         245
  C:8A04H         LINE#         246
  C:8A13H         LINE#         247
  C:8A1EH         LINE#         248
  C:8A24H         LINE#         249
  C:8A24H         LINE#         251
  -------         ENDPROC       _MOV_CARD
  -------         PROC          AUT_CARD_CHECK_STATUS
  -------         DO            
  D:0003H         SYMBOL        j
  X:0002H         SYMBOL        bcc
  X:0003H         SYMBOL        g_scArrTxComSoft
  -------         ENDDO         
  C:AEABH         LINE#         257
  C:AEABH         LINE#         258
  C:AEABH         LINE#         261
  C:AEB0H         LINE#         263
  C:AEB9H         LINE#         265
  C:AEBFH         LINE#         266
  C:AEC2H         LINE#         267
  C:AEC4H         LINE#         268
  C:AEC8H         LINE#         269
  C:AECCH         LINE#         270
  C:AED0H         LINE#         271
  C:AED4H         LINE#         272
  C:AED8H         LINE#         273
  C:AEE4H         LINE#         274
  C:AEE4H         LINE#         275
  C:AEF8H         LINE#         276
  C:AEFBH         LINE#         277
  C:AF03H         LINE#         278
  C:AF05H         LINE#         279
  C:AF0AH         LINE#         280
  C:AF19H         LINE#         281
  C:AF24H         LINE#         282
BL51 BANKED LINKER/LOCATER V6.22.2.0                                                  06/23/2021  14:18:03  PAGE 103


  C:AF2AH         LINE#         283
  -------         ENDPROC       AUT_CARD_CHECK_STATUS
  -------         PROC          CLAVE_SEGURIDAD_S2
  -------         DO            
  D:0003H         SYMBOL        j
  X:0002H         SYMBOL        bcc
  X:0003H         SYMBOL        g_scArrTxComSoft
  -------         ENDDO         
  C:9D63H         LINE#         286
  C:9D63H         LINE#         287
  C:9D63H         LINE#         290
  C:9D68H         LINE#         291
  C:9D71H         LINE#         294
  C:9D77H         LINE#         295
  C:9D7AH         LINE#         296
  C:9D7CH         LINE#         297
  C:9D80H         LINE#         298
  C:9D84H         LINE#         299
  C:9D88H         LINE#         300
  C:9D8CH         LINE#         301
  C:9D8FH         LINE#         302
  C:9D93H         LINE#         303
  C:9D96H         LINE#         304
  C:9D9AH         LINE#         306
  C:9D9EH         LINE#         308
  C:9DA2H         LINE#         309
  C:9DA6H         LINE#         310
  C:9DAAH         LINE#         311
  C:9DAEH         LINE#         312
  C:9DB2H         LINE#         313
  C:9DB6H         LINE#         316
  C:9DBAH         LINE#         318
  C:9DC6H         LINE#         319
  C:9DC6H         LINE#         320
  C:9DDAH         LINE#         321
  C:9DDDH         LINE#         322
  C:9DE5H         LINE#         323
  C:9DE7H         LINE#         324
  C:9DECH         LINE#         325
  C:9DFBH         LINE#         326
  C:9E06H         LINE#         327
  C:9E0CH         LINE#         330
  -------         ENDPROC       CLAVE_SEGURIDAD_S2
  -------         PROC          DWLOAD_EEPROM
  -------         DO            
  D:0003H         SYMBOL        j
  X:0002H         SYMBOL        bcc
  X:0003H         SYMBOL        g_scArrTxComSoft
  -------         ENDDO         
  C:9E0DH         LINE#         335
  C:9E0DH         LINE#         336
  C:9E0DH         LINE#         339
  C:9E12H         LINE#         340
  C:9E1BH         LINE#         342
  C:9E21H         LINE#         343
  C:9E24H         LINE#         344
  C:9E26H         LINE#         345
BL51 BANKED LINKER/LOCATER V6.22.2.0                                                  06/23/2021  14:18:03  PAGE 104


  C:9E2AH         LINE#         346
  C:9E2EH         LINE#         347
  C:9E32H         LINE#         348
  C:9E36H         LINE#         349
  C:9E39H         LINE#         350
  C:9E3DH         LINE#         351
  C:9E40H         LINE#         352
  C:9E43H         LINE#         353
  C:9E47H         LINE#         354
  C:9E4BH         LINE#         355
  C:9E4FH         LINE#         356
  C:9E53H         LINE#         357
  C:9E57H         LINE#         358
  C:9E5BH         LINE#         359
  C:9E5FH         LINE#         360
  C:9E63H         LINE#         362
  C:9E6FH         LINE#         363
  C:9E6FH         LINE#         364
  C:9E83H         LINE#         365
  C:9E86H         LINE#         366
  C:9E8EH         LINE#         367
  C:9E90H         LINE#         368
  C:9E95H         LINE#         369
  C:9EA4H         LINE#         370
  C:9EAFH         LINE#         371
  C:9EB5H         LINE#         372
  -------         ENDPROC       DWLOAD_EEPROM
  -------         PROC          LOADVERIFY_EEPROM
  -------         DO            
  D:0003H         SYMBOL        j
  X:0002H         SYMBOL        bcc
  X:0003H         SYMBOL        g_scArrTxComSoft
  -------         ENDDO         
  C:A8E8H         LINE#         378
  C:A8E8H         LINE#         379
  C:A8E8H         LINE#         382
  C:A8EDH         LINE#         383
  C:A8F6H         LINE#         386
  C:A8FCH         LINE#         387
  C:A8FFH         LINE#         388
  C:A901H         LINE#         389
  C:A905H         LINE#         390
  C:A909H         LINE#         391
  C:A90DH         LINE#         392
  C:A911H         LINE#         393
  C:A914H         LINE#         394
  C:A918H         LINE#         395
  C:A91BH         LINE#         396
  C:A91EH         LINE#         397
  C:A922H         LINE#         402
  C:A92EH         LINE#         403
  C:A92EH         LINE#         404
  C:A942H         LINE#         405
  C:A945H         LINE#         406
  C:A94DH         LINE#         407
  C:A94FH         LINE#         408
  C:A954H         LINE#         409
BL51 BANKED LINKER/LOCATER V6.22.2.0                                                  06/23/2021  14:18:03  PAGE 105


  C:A963H         LINE#         410
  C:A96EH         LINE#         411
  C:A974H         LINE#         413
  -------         ENDPROC       LOADVERIFY_EEPROM
  -------         PROC          _RD_MF
  X:0002H         SYMBOL        Sector
  X:0003H         SYMBOL        Bloque
  -------         DO            
  D:0003H         SYMBOL        j
  X:0004H         SYMBOL        bcc
  X:0005H         SYMBOL        g_scArrTxComSoft
  -------         ENDDO         
  C:93F7H         LINE#         419
  C:93FFH         LINE#         420
  C:93FFH         LINE#         424
  C:9402H         LINE#         426
  C:940BH         LINE#         427
  C:9413H         LINE#         429
  C:941CH         LINE#         430
  C:9424H         LINE#         431
  C:942DH         LINE#         434
  C:9433H         LINE#         435
  C:9436H         LINE#         436
  C:9438H         LINE#         437
  C:943CH         LINE#         438
  C:9440H         LINE#         439
  C:9444H         LINE#         440
  C:9448H         LINE#         441
  C:944BH         LINE#         442
  C:944FH         LINE#         443
  C:9457H         LINE#         444
  C:945FH         LINE#         445
  C:9463H         LINE#         446
  C:9467H         LINE#         448
  C:9473H         LINE#         449
  C:9473H         LINE#         450
  C:9487H         LINE#         451
  C:948AH         LINE#         452
  C:9492H         LINE#         455
  C:9494H         LINE#         456
  C:9499H         LINE#         457
  C:94A8H         LINE#         458
  C:94B3H         LINE#         459
  C:94B9H         LINE#         461
  -------         ENDPROC       _RD_MF
  -------         PROC          _WR_MF
  X:0002H         SYMBOL        Sector
  X:0003H         SYMBOL        Bloque
  X:0004H         SYMBOL        buffer
  -------         DO            
  D:0005H         SYMBOL        j
  X:0007H         SYMBOL        bcc
  X:0008H         SYMBOL        g_scArrTxComSoft
  -------         ENDDO         
  C:7D7EH         LINE#         468
  C:7D8FH         LINE#         470
  C:7D8FH         LINE#         473
BL51 BANKED LINKER/LOCATER V6.22.2.0                                                  06/23/2021  14:18:03  PAGE 106


  C:7D92H         LINE#         475
  C:7D9BH         LINE#         476
  C:7DA3H         LINE#         478
  C:7DACH         LINE#         479
  C:7DB4H         LINE#         480
  C:7DBDH         LINE#         482
  C:7DC3H         LINE#         483
  C:7DC6H         LINE#         484
  C:7DC8H         LINE#         485
  C:7DCCH         LINE#         487
  C:7DD0H         LINE#         488
  C:7DD4H         LINE#         489
  C:7DD8H         LINE#         490
  C:7DDBH         LINE#         491
  C:7DDFH         LINE#         492
  C:7DE7H         LINE#         493
  C:7DEFH         LINE#         494
  C:7DF3H         LINE#         496
  C:7DFFH         LINE#         497
  C:7DFFH         LINE#         498
  C:7E1FH         LINE#         499
  C:7E22H         LINE#         501
  C:7E28H         LINE#         503
  C:7E34H         LINE#         504
  C:7E34H         LINE#         505
  C:7E4BH         LINE#         506
  C:7E4EH         LINE#         507
  C:7E56H         LINE#         510
  C:7E58H         LINE#         511
  C:7E5DH         LINE#         512
  C:7E6CH         LINE#         513
  C:7E77H         LINE#         514
  C:7E7DH         LINE#         516
  -------         ENDPROC       _WR_MF
  -------         PROC          UNIQUE_IDENTIFIER_UID
  -------         DO            
  D:0003H         SYMBOL        j
  X:0002H         SYMBOL        bcc
  X:0003H         SYMBOL        g_scArrTxComSoft
  -------         ENDDO         
  C:AB11H         LINE#         521
  C:AB11H         LINE#         522
  C:AB11H         LINE#         525
  C:AB16H         LINE#         527
  C:AB1FH         LINE#         529
  C:AB25H         LINE#         530
  C:AB28H         LINE#         531
  C:AB2AH         LINE#         532
  C:AB2EH         LINE#         533
  C:AB32H         LINE#         534
  C:AB36H         LINE#         535
  C:AB3AH         LINE#         536
  C:AB3EH         LINE#         537
  C:AB42H         LINE#         538
  C:AB46H         LINE#         539
  C:AB52H         LINE#         540
  C:AB52H         LINE#         541
BL51 BANKED LINKER/LOCATER V6.22.2.0                                                  06/23/2021  14:18:03  PAGE 107


  C:AB66H         LINE#         542
  C:AB69H         LINE#         543
  C:AB71H         LINE#         544
  C:AB73H         LINE#         545
  C:AB78H         LINE#         546
  C:AB87H         LINE#         547
  C:AB92H         LINE#         548
  C:AB98H         LINE#         549
  -------         ENDPROC       UNIQUE_IDENTIFIER_UID
  -------         PROC          POWER_OFF
  -------         DO            
  D:0003H         SYMBOL        j
  X:0002H         SYMBOL        bcc
  X:0003H         SYMBOL        g_scArrTxComSoft
  -------         ENDDO         
  C:AF2BH         LINE#         550
  C:AF2BH         LINE#         551
  C:AF2BH         LINE#         554
  C:AF30H         LINE#         556
  C:AF39H         LINE#         558
  C:AF3FH         LINE#         559
  C:AF42H         LINE#         560
  C:AF44H         LINE#         561
  C:AF48H         LINE#         562
  C:AF4CH         LINE#         563
  C:AF50H         LINE#         564
  C:AF54H         LINE#         565
  C:AF58H         LINE#         566
  C:AF64H         LINE#         567
  C:AF64H         LINE#         568
  C:AF78H         LINE#         569
  C:AF7BH         LINE#         570
  C:AF83H         LINE#         571
  C:AF85H         LINE#         572
  C:AF8AH         LINE#         573
  C:AF99H         LINE#         574
  C:AFA4H         LINE#         575
  C:AFAAH         LINE#         578
  -------         ENDPROC       POWER_OFF
  -------         ENDMOD        LINTECH

  -------         MODULE        VERIFICADOR
  C:0000H         SYMBOL        _ICE_DUMMY_
  D:0080H         PUBLIC        P0
  C:C063H         PUBLIC        Analiza_Presencia_Mensual
  C:B35AH         PUBLIC        Ingreso_Vehiculo
  D:0090H         PUBLIC        P1
  C:C1A0H         PUBLIC        _Armar_Trama_Tarjeta_Sector1_Bloque0
  D:00B0H         PUBLIC        P3
  C:65CBH         PUBLIC        _Valida_Tipo_Tarjeta
  C:BDDBH         PUBLIC        _Load_Secuencia_Expedidor
  C:5E76H         PUBLIC        _Armar_Trama_Tarjeta_Sector1_Bloque2
  C:53F4H         PUBLIC        _Armar_Trama_Pto_Paralelo_Expedidor
  C:9333H         PUBLIC        _Tarjeta_Mensual
  C:C23BH         PUBLIC        Analiza_Presencia_rotacion
  C:A7C8H         PUBLIC        _Disparo_Lock_Entrada_Vehiculo
  C:C0C8H         PUBLIC        Pregunta_Placa
BL51 BANKED LINKER/LOCATER V6.22.2.0                                                  06/23/2021  14:18:03  PAGE 108


  C:A4EEH         PUBLIC        _Valida_Vehiculo_Card_Mensual
  C:BEE7H         PUBLIC        Analiza_card_mount_rf
  C:B5B3H         PUBLIC        _Armar_Trama_Placa
  C:9011H         PUBLIC        _rta_cmd_transporte
  C:C4C2H         PUBLIC        Captura_Expulsa
  C:5151H         PUBLIC        _Armar_Trama_Monitor
  C:6FC0H         PUBLIC        Secuencia_inicio_expedidor
  C:8CC2H         PUBLIC        _Analiza_Uid_Card
  B:0080H.0       PUBLIC        rx_ip
  C:865EH         PUBLIC        _Bloque_Horario
  B:0080H.3       PUBLIC        Atascado_GP0_PIN_3
  B:0090H.7       PUBLIC        lock
  C:A001H         PUBLIC        _Armar_Trama_Tarjeta_Sector1_Bloque1_Camcel
  C:A321H         PUBLIC        _Responde_Lectura_Tarjeta_Sector1_Bloque0
  C:963DH         PUBLIC        error_rx_pto
  C:6061H         PUBLIC        _Responde_Lectura_Tarjeta_Sector1_Bloque1
  C:749FH         PUBLIC        _Responde_Lectura_Tarjeta_Sector1_Bloque2
  C:A285H         PUBLIC        _Respuesta_Placa_Cancel
  B:0090H.1       PUBLIC        DataIn
  C:9F5CH         PUBLIC        _Send_Pto_Paralelo
  C:BCCAH         PUBLIC        Trama_Validacion_P_N
  B:0022H.0       PUBLIC        MenSual
  C:7371H         PUBLIC        _Armar_Trama_Pto_Paralelo_Expedidor_Mensual
  C:7B63H         PUBLIC        _Horarios
  C:9CB7H         PUBLIC        _Hora_Maxima
  C:6BE6H         PUBLIC        _Responde_ReeLectura_Tarjeta_Sector1_Bloque2
  C:3C00H         PUBLIC        _SecuenciaExpedidorMF
  C:B6C0H         PUBLIC        _Pregunta_Lpr
  C:9A9FH         PUBLIC        _Wait_Placa
  C:B0A7H         PUBLIC        Responde_Estado_Sensores_Transporte
  C:A858H         PUBLIC        Entrega_Card_Captura
  C:B556H         PUBLIC        _Respuesta_Segunda_clave
  X:0147H         SYMBOL        Estado
  C:BFC5H         PUBLIC        _Responde_Write_Tarjeta_Sector1_Bloque0
  C:BF8FH         PUBLIC        _Responde_Write_Tarjeta_Sector1_Bloque1
  C:B969H         PUBLIC        _Responde_Write_Tarjeta_Sector2_Bloque0
  C:B2EEH         PUBLIC        _Responde_Write_Tarjeta_Sector1_Bloque2
  C:B20EH         PUBLIC        _En_Horario
  C:B123H         PUBLIC        Responde_Tipo_Tarjeta
  C:C097H         PUBLIC        _Tarjeta_Rotacion
  -------         PROC          CAPTURA_EXPULSA
  -------         DO            
  D:0007H         SYMBOL        Estado_expedidor
  -------         ENDDO         
  C:C4C2H         LINE#         542
  C:C4C2H         LINE#         543
  C:C4C2H         LINE#         547
  C:C4C5H         LINE#         548
  C:C4C5H         LINE#         549
  C:C4C7H         LINE#         550
  C:C4C8H         LINE#         552
  C:C4C8H         LINE#         554
  C:C4CAH         LINE#         555
  C:C4CAH         LINE#         558
  C:C4CAH         LINE#         559
  -------         ENDPROC       CAPTURA_EXPULSA
  -------         PROC          TRAMA_VALIDACION_P_N
BL51 BANKED LINKER/LOCATER V6.22.2.0                                                  06/23/2021  14:18:03  PAGE 109


  -------         DO            
  D:0007H         SYMBOL        Trama_Validacion_P_N
  -------         ENDDO         
  C:BCCAH         LINE#         570
  C:BCCAH         LINE#         571
  C:BCCAH         LINE#         572
  C:BCCCH         LINE#         574
  C:BCE2H         LINE#         575
  C:BCE2H         LINE#         576
  C:BCE5H         LINE#         577
  C:BCE5H         LINE#         578
  C:BCE7H         LINE#         581
  C:BCEFH         LINE#         582
  C:BCEFH         LINE#         584
  C:BCF1H         LINE#         586
  C:BCF2H         LINE#         587
  C:BCF6H         LINE#         588
  C:BCF6H         LINE#         590
  C:BCF8H         LINE#         592
  C:BCF9H         LINE#         594
  C:BCF9H         LINE#         595
  C:BD02H         LINE#         596
  C:BD04H         LINE#         598
  C:BD04H         LINE#         599
  C:BD05H         LINE#         601
  C:BD05H         LINE#         603
  C:BD07H         LINE#         605
  C:BD07H         LINE#         607
  C:BD07H         LINE#         609
  C:BD07H         LINE#         610
  -------         ENDPROC       TRAMA_VALIDACION_P_N
  -------         PROC          ERROR_RX_PTO
  -------         DO            
  X:00B7H         SYMBOL        cnt_espera_ask_on
  X:0007H         SYMBOL        error_rx_pto
  -------         ENDDO         
  C:963DH         LINE#         634
  C:963DH         LINE#         635
  C:963DH         LINE#         638
  C:9643H         LINE#         642
  C:964CH         LINE#         643
  C:9654H         LINE#         644
  C:965DH         LINE#         645
  C:9665H         LINE#         646
  C:966EH         LINE#         647
  C:9671H         LINE#         649
  C:9671H         LINE#         650
  C:9677H         LINE#         651
  C:9681H         LINE#         652
  C:9681H         LINE#         653
  C:968AH         LINE#         654
  C:968CH         LINE#         655
  C:9693H         LINE#         656
  C:9698H         LINE#         657
  C:969EH         LINE#         658
  C:96A3H         LINE#         659
  C:96A5H         LINE#         660
BL51 BANKED LINKER/LOCATER V6.22.2.0                                                  06/23/2021  14:18:03  PAGE 110


  C:96ACH         LINE#         661
  C:96B2H         LINE#         662
  C:96B2H         LINE#         664
  C:96B2H         LINE#         665
  C:96B7H         LINE#         666
  C:96B7H         LINE#         667
  C:96B7H         LINE#         668
  C:96B9H         LINE#         670
  C:96B9H         LINE#         671
  C:96C7H         LINE#         672
  C:96DAH         LINE#         673
  C:96DAH         LINE#         674
  C:96DBH         LINE#         676
  C:96E1H         LINE#         677
  C:96E5H         LINE#         678
  C:96E7H         LINE#         679
  C:96E7H         LINE#         680
  C:96E9H         LINE#         682
  C:96E9H         LINE#         683
  C:96EAH         LINE#         684
  C:96EFH         LINE#         685
  C:96F5H         LINE#         686
  C:96F5H         LINE#         687
  C:96F5H         LINE#         688
  C:96FAH         LINE#         689
  -------         ENDPROC       ERROR_RX_PTO
  -------         PROC          _RTA_CMD_TRANSPORTE
  X:0002H         SYMBOL        secuencia_Expedidor
  -------         DO            
  X:0005H         SYMBOL        temp
  X:0006H         SYMBOL        EstadoComSeqMF
  -------         ENDDO         
  C:9011H         LINE#         705
  C:901CH         LINE#         706
  C:901CH         LINE#         712
  C:9029H         LINE#         713
  C:9029H         LINE#         714
  C:9031H         LINE#         715
  C:9031H         LINE#         716
  C:903FH         LINE#         717
  C:9042H         LINE#         718
  C:9048H         LINE#         719
  C:9048H         LINE#         720
  C:9051H         LINE#         721
  C:9065H         LINE#         723
  C:9076H         LINE#         725
  C:9078H         LINE#         727
  C:9078H         LINE#         730
  C:9090H         LINE#         731
  C:9090H         LINE#         732
  C:909BH         LINE#         733
  C:909DH         LINE#         735
  C:909DH         LINE#         736
  C:90ABH         LINE#         737
  C:90ABH         LINE#         738
  C:90ABH         LINE#         739
  C:90ADH         LINE#         741
BL51 BANKED LINKER/LOCATER V6.22.2.0                                                  06/23/2021  14:18:03  PAGE 111


  C:90ADH         LINE#         743
  C:90C1H         LINE#         744
  C:90D6H         LINE#         745
  C:90D6H         LINE#         746
  C:90DBH         LINE#         747
  -------         ENDPROC       _RTA_CMD_TRANSPORTE
  -------         PROC          ANALIZA_PRESENCIA_MENSUAL
  -------         DO            
  X:0002H         SYMBOL        Estado_expedidor
  -------         ENDDO         
  C:C063H         LINE#         751
  C:C063H         LINE#         752
  C:C063H         LINE#         756
  C:C069H         LINE#         757
  C:C069H         LINE#         758
  C:C077H         LINE#         759
  C:C077H         LINE#         760
  C:C079H         LINE#         761
  C:C07FH         LINE#         762
  C:C081H         LINE#         771
  C:C081H         LINE#         773
  C:C086H         LINE#         774
  C:C08BH         LINE#         775
  C:C091H         LINE#         776
  C:C091H         LINE#         777
  C:C096H         LINE#         778
  -------         ENDPROC       ANALIZA_PRESENCIA_MENSUAL
  -------         PROC          ANALIZA_CARD_MOUNT_RF
  -------         DO            
  X:0002H         SYMBOL        Estado_expedidor
  -------         ENDDO         
  C:BEE7H         LINE#         782
  C:BEE7H         LINE#         783
  C:BEE7H         LINE#         785
  C:BEEDH         LINE#         786
  C:BEF4H         LINE#         787
  C:BEF4H         LINE#         789
  C:BEFDH         LINE#         791
  C:BF03H         LINE#         792
  C:BF05H         LINE#         793
  C:BF0CH         LINE#         795
  C:BF0CH         LINE#         796
  C:BF15H         LINE#         797
  C:BF1BH         LINE#         798
  C:BF1BH         LINE#         801
  C:BF20H         LINE#         802
  -------         ENDPROC       ANALIZA_CARD_MOUNT_RF
  -------         PROC          ANALIZA_PRESENCIA_ROTACION
  -------         DO            
  X:0002H         SYMBOL        Estado_expedidor
  -------         ENDDO         
  C:C23BH         LINE#         806
  C:C23BH         LINE#         807
  C:C23BH         LINE#         809
  C:C241H         LINE#         810
  C:C241H         LINE#         812
  C:C247H         LINE#         813
BL51 BANKED LINKER/LOCATER V6.22.2.0                                                  06/23/2021  14:18:03  PAGE 112


  C:C249H         LINE#         815
  C:C249H         LINE#         817
  C:C24EH         LINE#         818
  C:C253H         LINE#         819
  C:C258H         LINE#         821
  C:C258H         LINE#         822
  C:C25DH         LINE#         823
  -------         ENDPROC       ANALIZA_PRESENCIA_ROTACION
  -------         PROC          _ANALIZA_UID_CARD
  X:0002H         SYMBOL        Atributos_Expedidor
  -------         DO            
  X:0005H         SYMBOL        Estado_expedidor
  D:0007H         SYMBOL        temp
  X:0006H         SYMBOL        buffer_UID
  -------         ENDDO         
  C:8CC2H         LINE#         827
  C:8CCDH         LINE#         828
  C:8CCDH         LINE#         832
  C:8CDDH         LINE#         833
  C:8CDDH         LINE#         835
  C:8CE9H         LINE#         836
  C:8CE9H         LINE#         837
  C:8D01H         LINE#         839
  C:8D04H         LINE#         841
  C:8D0DH         LINE#         842
  C:8D1EH         LINE#         845
  C:8D27H         LINE#         846
  C:8D2FH         LINE#         847
  C:8D37H         LINE#         848
  C:8D3FH         LINE#         849
  C:8D47H         LINE#         850
  C:8D50H         LINE#         852
  C:8D67H         LINE#         853
  C:8D71H         LINE#         854
  C:8D7BH         LINE#         855
  C:8D85H         LINE#         856
  C:8D8BH         LINE#         857
  C:8D8DH         LINE#         859
  C:8D8DH         LINE#         860
  C:8D93H         LINE#         861
  C:8D93H         LINE#         862
  C:8D98H         LINE#         863
  -------         ENDPROC       _ANALIZA_UID_CARD
  -------         PROC          INGRESO_VEHICULO
  -------         DO            
  D:0007H         SYMBOL        CardAutomatic
  X:00B9H         SYMBOL        pulseboton
  -------         ENDDO         
  C:B35AH         LINE#         867
  C:B35AH         LINE#         868
  C:B35AH         LINE#         873
  C:B360H         LINE#         874
  C:B360H         LINE#         875
  C:B369H         LINE#         877
  C:B36EH         LINE#         878
  C:B36EH         LINE#         879
  C:B377H         LINE#         881
BL51 BANKED LINKER/LOCATER V6.22.2.0                                                  06/23/2021  14:18:03  PAGE 113


  C:B377H         LINE#         882
  C:B379H         LINE#         884
  C:B379H         LINE#         886
  C:B386H         LINE#         887
  C:B38BH         LINE#         888
  C:B390H         LINE#         889
  C:B392H         LINE#         891
  C:B392H         LINE#         892
  C:B398H         LINE#         895
  C:B398H         LINE#         896
  C:B39BH         LINE#         897
  C:B39EH         LINE#         898
  C:B39EH         LINE#         899
  C:B3A0H         LINE#         900
  C:B3A5H         LINE#         901
  C:B3ABH         LINE#         902
  C:B3ADH         LINE#         904
  C:B3ADH         LINE#         905
  C:B3B2H         LINE#         906
  C:B3B8H         LINE#         907
  C:B3B8H         LINE#         910
  C:B3B8H         LINE#         911
  C:B3BAH         LINE#         913
  C:B3BAH         LINE#         915
  C:B3BFH         LINE#         916
  C:B3BFH         LINE#         917
  C:B3C4H         LINE#         918
  -------         ENDPROC       INGRESO_VEHICULO
  -------         PROC          RESPONDE_ESTADO_SENSORES_TRANSPORTE
  -------         DO            
  X:0002H         SYMBOL        Estado_expedidor
  -------         ENDDO         
  C:B0A7H         LINE#         925
  C:B0A7H         LINE#         926
  C:B0A7H         LINE#         929
  C:B0B0H         LINE#         931
  C:B0B8H         LINE#         932
  C:B0B8H         LINE#         934
  C:B0C3H         LINE#         935
  C:B0C3H         LINE#         936
  C:B0C7H         LINE#         937
  C:B0C7H         LINE#         938
  C:B0D0H         LINE#         939
  C:B0D5H         LINE#         941
  C:B0D5H         LINE#         942
  C:B0D7H         LINE#         944
  C:B0D7H         LINE#         946
  C:B0DFH         LINE#         948
  C:B0DFH         LINE#         949
  C:B0E1H         LINE#         951
  C:B0E1H         LINE#         953
  C:B0EAH         LINE#         955
  C:B0EFH         LINE#         958
  C:B0EFH         LINE#         959
  C:B0EFH         LINE#         960
  C:B0F1H         LINE#         961
  C:B0F8H         LINE#         962
BL51 BANKED LINKER/LOCATER V6.22.2.0                                                  06/23/2021  14:18:03  PAGE 114


  C:B0F8H         LINE#         964
  C:B0FEH         LINE#         966
  C:B0FEH         LINE#         967
  C:B100H         LINE#         968
  C:B107H         LINE#         970
  C:B107H         LINE#         971
  C:B110H         LINE#         972
  C:B116H         LINE#         973
  C:B118H         LINE#         975
  C:B118H         LINE#         976
  C:B11DH         LINE#         977
  C:B11DH         LINE#         978
  C:B122H         LINE#         979
  -------         ENDPROC       RESPONDE_ESTADO_SENSORES_TRANSPORTE
  -------         PROC          RESPONDE_TIPO_TARJETA
  -------         DO            
  X:0002H         SYMBOL        Estado_expedidor
  -------         ENDDO         
  C:B123H         LINE#         995
  C:B123H         LINE#         996
  C:B123H         LINE#         999
  C:B12CH         LINE#         1001
  C:B134H         LINE#         1002
  C:B134H         LINE#         1003
  C:B13FH         LINE#         1004
  C:B13FH         LINE#         1005
  C:B148H         LINE#         1006
  C:B14EH         LINE#         1007
  C:B14EH         LINE#         1008
  C:B151H         LINE#         1009
  C:B153H         LINE#         1011
  C:B153H         LINE#         1012
  C:B156H         LINE#         1013
  C:B156H         LINE#         1014
  C:B158H         LINE#         1016
  C:B158H         LINE#         1017
  C:B15FH         LINE#         1018
  C:B15FH         LINE#         1020
  C:B165H         LINE#         1022
  C:B165H         LINE#         1023
  C:B165H         LINE#         1025
  C:B165H         LINE#         1027
  C:B167H         LINE#         1029
  C:B167H         LINE#         1030
  C:B167H         LINE#         1031
  C:B167H         LINE#         1032
  C:B167H         LINE#         1033
  C:B167H         LINE#         1034
  C:B169H         LINE#         1036
  C:B169H         LINE#         1037
  C:B170H         LINE#         1038
  C:B170H         LINE#         1041
  C:B179H         LINE#         1043
  C:B17EH         LINE#         1044
  C:B183H         LINE#         1046
  C:B18BH         LINE#         1049
  C:B18DH         LINE#         1051
BL51 BANKED LINKER/LOCATER V6.22.2.0                                                  06/23/2021  14:18:03  PAGE 115


  C:B18DH         LINE#         1052
  C:B18FH         LINE#         1053
  C:B194H         LINE#         1054
  C:B194H         LINE#         1055
  C:B194H         LINE#         1057
  C:B199H         LINE#         1058
  -------         ENDPROC       RESPONDE_TIPO_TARJETA
  -------         PROC          _RESPONDE_LECTURA_TARJETA_SECTOR1_BLOQUE1
  X:0002H         SYMBOL        Atributos_Expedidor
  -------         DO            
  D:0007H         SYMBOL        temp
  X:0005H         SYMBOL        Estado_expedidor
  X:0006H         SYMBOL        buffer_S1_B1
  X:0017H         SYMBOL        ID_CLIENTE
  D:0007H         SYMBOL        COD_PARK
  X:00BAH         SYMBOL        falla
  -------         ENDDO         
  C:6061H         LINE#         1070
  C:606CH         LINE#         1071
  C:606CH         LINE#         1078
  C:6075H         LINE#         1082
  C:6085H         LINE#         1083
  C:6085H         LINE#         1085
  C:6091H         LINE#         1086
  C:6091H         LINE#         1087
  C:60A9H         LINE#         1089
  C:60ACH         LINE#         1092
  C:60B5H         LINE#         1093
  C:60C6H         LINE#         1094
  C:60D3H         LINE#         1095
  C:60DCH         LINE#         1098
  C:60FBH         LINE#         1099
  C:60FBH         LINE#         1101
  C:6104H         LINE#         1102
  C:610CH         LINE#         1103
  C:6115H         LINE#         1105
  C:611EH         LINE#         1106
  C:6126H         LINE#         1107
  C:612FH         LINE#         1109
  C:6138H         LINE#         1110
  C:6140H         LINE#         1111
  C:6149H         LINE#         1113
  C:6152H         LINE#         1114
  C:615AH         LINE#         1115
  C:6163H         LINE#         1117
  C:616CH         LINE#         1118
  C:6174H         LINE#         1119
  C:617DH         LINE#         1121
  C:6194H         LINE#         1123
  C:619EH         LINE#         1124
  C:61A8H         LINE#         1125
  C:61B2H         LINE#         1127
  C:61B7H         LINE#         1128
  C:61CAH         LINE#         1129
  C:61CFH         LINE#         1130
  C:61D5H         LINE#         1132
  C:61D7H         LINE#         1134
BL51 BANKED LINKER/LOCATER V6.22.2.0                                                  06/23/2021  14:18:03  PAGE 116


  C:61D7H         LINE#         1135
  C:61DCH         LINE#         1136
  C:61E5H         LINE#         1137
  C:61EAH         LINE#         1138
  C:61ECH         LINE#         1139
  C:61ECH         LINE#         1140
  C:61ECH         LINE#         1141
  C:61EEH         LINE#         1143
  C:61EEH         LINE#         1145
  C:61F6H         LINE#         1146
  C:61F6H         LINE#         1147
  C:61FCH         LINE#         1148
  C:61FCH         LINE#         1149
  C:6209H         LINE#         1151
  C:6209H         LINE#         1152
  C:6212H         LINE#         1153
  C:6218H         LINE#         1155
  C:621AH         LINE#         1157
  C:621AH         LINE#         1158
  C:621FH         LINE#         1159
  C:6228H         LINE#         1160
  C:622DH         LINE#         1161
  C:6232H         LINE#         1162
  C:623AH         LINE#         1163
  C:623AH         LINE#         1164
  C:623AH         LINE#         1166
  C:623FH         LINE#         1167
  -------         ENDPROC       _RESPONDE_LECTURA_TARJETA_SECTOR1_BLOQUE1
  -------         PROC          _RESPONDE_LECTURA_TARJETA_SECTOR1_BLOQUE2
  X:0002H         SYMBOL        Atributos_Expedidor
  -------         DO            
  D:0007H         SYMBOL        temp
  X:0005H         SYMBOL        Estado_expedidor
  X:0006H         SYMBOL        buffer_S1_B2
  -------         ENDDO         
  C:749FH         LINE#         1172
  C:74AAH         LINE#         1173
  C:74AAH         LINE#         1179
  C:74B3H         LINE#         1183
  C:74C3H         LINE#         1184
  C:74C3H         LINE#         1186
  C:74CFH         LINE#         1187
  C:74CFH         LINE#         1188
  C:74E7H         LINE#         1189
  C:74EAH         LINE#         1190
  C:74F3H         LINE#         1191
  C:7504H         LINE#         1195
  C:750DH         LINE#         1196
  C:751AH         LINE#         1197
  C:7536H         LINE#         1198
  C:753FH         LINE#         1200
  C:7548H         LINE#         1202
  C:7564H         LINE#         1203
  C:756EH         LINE#         1204
  C:7577H         LINE#         1207
  C:7580H         LINE#         1208
  C:7588H         LINE#         1209
BL51 BANKED LINKER/LOCATER V6.22.2.0                                                  06/23/2021  14:18:03  PAGE 117


  C:7591H         LINE#         1213
  C:75A8H         LINE#         1216
  C:75B4H         LINE#         1217
  C:75BAH         LINE#         1220
  C:75BCH         LINE#         1222
  C:75BCH         LINE#         1223
  C:75C4H         LINE#         1224
  C:75C4H         LINE#         1225
  C:75C9H         LINE#         1226
  -------         ENDPROC       _RESPONDE_LECTURA_TARJETA_SECTOR1_BLOQUE2
  -------         PROC          _RESPONDE_LECTURA_TARJETA_SECTOR1_BLOQUE0
  X:0002H         SYMBOL        Nombre_Mensual
  -------         DO            
  D:0007H         SYMBOL        temp
  X:0005H         SYMBOL        Estado_expedidor
  -------         ENDDO         
  C:A321H         LINE#         1228
  C:A32CH         LINE#         1229
  C:A32CH         LINE#         1235
  C:A335H         LINE#         1239
  C:A342H         LINE#         1240
  C:A342H         LINE#         1242
  C:A34EH         LINE#         1243
  C:A34EH         LINE#         1244
  C:A36EH         LINE#         1245
  C:A371H         LINE#         1246
  C:A385H         LINE#         1247
  C:A38EH         LINE#         1248
  C:A39CH         LINE#         1249
  C:A3A5H         LINE#         1250
  C:A3ABH         LINE#         1253
  C:A3ADH         LINE#         1255
  C:A3ADH         LINE#         1256
  C:A3B5H         LINE#         1257
  C:A3B5H         LINE#         1258
  C:A3BAH         LINE#         1259
  -------         ENDPROC       _RESPONDE_LECTURA_TARJETA_SECTOR1_BLOQUE0
  -------         PROC          _RESPONDE_REELECTURA_TARJETA_SECTOR1_BLOQUE2
  X:0002H         SYMBOL        lectura_anterior
  X:0005H         SYMBOL        Atributos_Expedidor
  -------         DO            
  D:0007H         SYMBOL        temp
  X:0008H         SYMBOL        Estado_expedidor
  X:0009H         SYMBOL        reelectura
  X:00BBH         SYMBOL        error_lectura
  -------         ENDDO         
  C:6BE6H         LINE#         1260
  C:6BF1H         LINE#         1261
  C:6BF1H         LINE#         1267
  C:6BFAH         LINE#         1270
  C:6C0AH         LINE#         1271
  C:6C0AH         LINE#         1273
  C:6C16H         LINE#         1274
  C:6C16H         LINE#         1275
  C:6C36H         LINE#         1276
  C:6C39H         LINE#         1277
  C:6C4DH         LINE#         1278
BL51 BANKED LINKER/LOCATER V6.22.2.0                                                  06/23/2021  14:18:03  PAGE 118


  C:6C56H         LINE#         1279
  C:6C6CH         LINE#         1280
  C:6C75H         LINE#         1282
  C:6C99H         LINE#         1283
  C:6C99H         LINE#         1284
  C:6C9DH         LINE#         1285
  C:6CA6H         LINE#         1286
  C:6CAFH         LINE#         1287
  C:6CBFH         LINE#         1288
  C:6CD1H         LINE#         1289
  C:6CDFH         LINE#         1290
  C:6CDFH         LINE#         1291
  C:6CE1H         LINE#         1293
  C:6CE1H         LINE#         1294
  C:6CE7H         LINE#         1295
  C:6CF7H         LINE#         1296
  C:6CF7H         LINE#         1297
  C:6CFAH         LINE#         1298
  C:6D00H         LINE#         1300
  C:6D02H         LINE#         1302
  C:6D02H         LINE#         1303
  C:6D05H         LINE#         1304
  C:6D0EH         LINE#         1305
  C:6D1EH         LINE#         1306
  C:6D31H         LINE#         1307
  C:6D37H         LINE#         1309
  C:6D37H         LINE#         1310
  C:6D37H         LINE#         1312
  C:6D37H         LINE#         1313
  C:6D3CH         LINE#         1314
  -------         ENDPROC       _RESPONDE_REELECTURA_TARJETA_SECTOR1_BLOQUE2
  -------         PROC          _RESPONDE_WRITE_TARJETA_SECTOR1_BLOQUE1
  X:0002H         SYMBOL        Buffer_Write_MF
  -------         DO            
  D:0007H         SYMBOL        Estado_expedidor
  -------         ENDDO         
  C:BF8FH         LINE#         1315
  C:BF9AH         LINE#         1316
  C:BF9AH         LINE#         1318
  C:BFA3H         LINE#         1319
  C:BFACH         LINE#         1320
  C:BFC2H         LINE#         1321
  C:BFC4H         LINE#         1322
  C:BFC4H         LINE#         1323
  -------         ENDPROC       _RESPONDE_WRITE_TARJETA_SECTOR1_BLOQUE1
  -------         PROC          _RESPONDE_WRITE_TARJETA_SECTOR1_BLOQUE2
  X:0002H         SYMBOL        Atributos_Expedidor
  X:0005H         SYMBOL        Buffer_Write_MF
  -------         DO            
  X:0008H         SYMBOL        Estado_expedidor
  -------         ENDDO         
  C:B2EEH         LINE#         1324
  C:B2F9H         LINE#         1325
  C:B2F9H         LINE#         1327
  C:B302H         LINE#         1328
  C:B30BH         LINE#         1329
  C:B321H         LINE#         1330
BL51 BANKED LINKER/LOCATER V6.22.2.0                                                  06/23/2021  14:18:03  PAGE 119


  C:B324H         LINE#         1331
  C:B324H         LINE#         1332
  C:B32AH         LINE#         1338
  C:B32CH         LINE#         1340
  C:B32CH         LINE#         1341
  C:B33CH         LINE#         1342
  C:B34EH         LINE#         1343
  C:B354H         LINE#         1345
  C:B354H         LINE#         1346
  C:B359H         LINE#         1347
  -------         ENDPROC       _RESPONDE_WRITE_TARJETA_SECTOR1_BLOQUE2
  -------         PROC          _RESPONDE_WRITE_TARJETA_SECTOR1_BLOQUE0
  X:0002H         SYMBOL        Buffer_Write_MF
  C:BFC5H         LINE#         1350
  C:BFD0H         LINE#         1351
  C:BFD0H         LINE#         1353
  C:BFD9H         LINE#         1354
  C:BFE2H         LINE#         1355
  C:BFF8H         LINE#         1357
  C:BFFAH         LINE#         1358
  -------         ENDPROC       _RESPONDE_WRITE_TARJETA_SECTOR1_BLOQUE0
  -------         PROC          _RESPONDE_WRITE_TARJETA_SECTOR2_BLOQUE0
  X:0002H         SYMBOL        Buffer_Write_MF
  C:B969H         LINE#         1361
  C:B974H         LINE#         1362
  C:B974H         LINE#         1364
  C:B97DH         LINE#         1365
  C:B986H         LINE#         1366
  C:B98FH         LINE#         1367
  C:B998H         LINE#         1368
  C:B9ADH         LINE#         1369
  C:B9AFH         LINE#         1370
  -------         ENDPROC       _RESPONDE_WRITE_TARJETA_SECTOR2_BLOQUE0
  -------         PROC          _PREGUNTA_LPR
  X:0002H         SYMBOL        Atributos_Expedidor
  -------         DO            
  D:0007H         SYMBOL        Estado_expedidor
  -------         ENDDO         
  C:B6C0H         LINE#         1374
  C:B6CBH         LINE#         1375
  C:B6CBH         LINE#         1377
  C:B6D4H         LINE#         1378
  C:B6E2H         LINE#         1379
  C:B6F0H         LINE#         1380
  C:B6F0H         LINE#         1382
  C:B701H         LINE#         1383
  C:B70DH         LINE#         1384
  C:B70DH         LINE#         1385
  C:B711H         LINE#         1386
  C:B711H         LINE#         1387
  C:B711H         LINE#         1390
  C:B713H         LINE#         1392
  C:B713H         LINE#         1393
  -------         ENDPROC       _PREGUNTA_LPR
  -------         PROC          PREGUNTA_PLACA
  -------         DO            
  X:0002H         SYMBOL        Estado_expedidor
BL51 BANKED LINKER/LOCATER V6.22.2.0                                                  06/23/2021  14:18:03  PAGE 120


  -------         ENDDO         
  C:C0C8H         LINE#         1395
  C:C0C8H         LINE#         1396
  C:C0C8H         LINE#         1398
  C:C0D1H         LINE#         1399
  C:C0E0H         LINE#         1400
  C:C0E0H         LINE#         1402
  C:C0E3H         LINE#         1403
  C:C0E8H         LINE#         1404
  C:C0EDH         LINE#         1405
  C:C0EFH         LINE#         1407
  C:C0EFH         LINE#         1408
  C:C0F2H         LINE#         1409
  C:C0F2H         LINE#         1410
  C:C0F7H         LINE#         1411
  -------         ENDPROC       PREGUNTA_PLACA
  -------         PROC          _RESPUESTA_SEGUNDA_CLAVE
  X:0002H         SYMBOL        Atributos_Expedidor
  X:0005H         SYMBOL        Buffer_Write_MF
  C:B556H         LINE#         1412
  C:B561H         LINE#         1413
  C:B561H         LINE#         1415
  C:B56AH         LINE#         1416
  C:B580H         LINE#         1419
  C:B590H         LINE#         1420
  C:B5A2H         LINE#         1421
  C:B5B0H         LINE#         1423
  C:B5B2H         LINE#         1424
  -------         ENDPROC       _RESPUESTA_SEGUNDA_CLAVE
  -------         PROC          _RESPUESTA_PLACA_CANCEL
  X:0009H         SYMBOL        Atributos_Expedidor
  X:000CH         SYMBOL        Buffer_Write_MF
  -------         DO            
  X:000FH         SYMBOL        Estado_expedidor
  X:0010H         SYMBOL        Cancel
  -------         ENDDO         
  C:A285H         LINE#         1425
  C:A290H         LINE#         1426
  C:A290H         LINE#         1428
  C:A29EH         LINE#         1429
  C:A2A7H         LINE#         1430
  C:A2B0H         LINE#         1431
  C:A2B9H         LINE#         1433
  C:A2D4H         LINE#         1434
  C:A2D4H         LINE#         1435
  C:A2E4H         LINE#         1436
  C:A2F7H         LINE#         1437
  C:A305H         LINE#         1438
  C:A30BH         LINE#         1439
  C:A30DH         LINE#         1441
  C:A30DH         LINE#         1442
  C:A313H         LINE#         1443
  C:A313H         LINE#         1444
  C:A316H         LINE#         1445
  C:A318H         LINE#         1447
  C:A318H         LINE#         1449
  C:A31BH         LINE#         1450
BL51 BANKED LINKER/LOCATER V6.22.2.0                                                  06/23/2021  14:18:03  PAGE 121


  C:A31BH         LINE#         1451
  C:A31BH         LINE#         1452
  C:A320H         LINE#         1453
  -------         ENDPROC       _RESPUESTA_PLACA_CANCEL
  -------         PROC          _ARMAR_TRAMA_TARJETA_SECTOR1_BLOQUE1_CAMCEL
  X:0013H         SYMBOL        Buffer_Write_MF
  -------         DO            
  X:0016H         SYMBOL        ID_CLIENTE
  D:0007H         SYMBOL        COD_PARK
  -------         ENDDO         
  C:A001H         LINE#         1456
  C:A00CH         LINE#         1457
  C:A00CH         LINE#         1461
  C:A00FH         LINE#         1462
  C:A01CH         LINE#         1463
  C:A025H         LINE#         1465
  C:A035H         LINE#         1466
  C:A047H         LINE#         1467
  C:A04EH         LINE#         1468
  C:A058H         LINE#         1469
  C:A05FH         LINE#         1470
  C:A066H         LINE#         1471
  C:A06DH         LINE#         1472
  C:A074H         LINE#         1473
  C:A07BH         LINE#         1474
  C:A082H         LINE#         1475
  C:A089H         LINE#         1476
  C:A090H         LINE#         1477
  C:A097H         LINE#         1478
  C:A09EH         LINE#         1479
  -------         ENDPROC       _ARMAR_TRAMA_TARJETA_SECTOR1_BLOQUE1_CAMCEL
  -------         PROC          _ARMAR_TRAMA_TARJETA_SECTOR1_BLOQUE2
  X:0010H         SYMBOL        Atributos_Expedidor
  X:0013H         SYMBOL        Buffer_Write_MF
  C:5E76H         LINE#         1485
  C:5E81H         LINE#         1486
  C:5E81H         LINE#         1491
  C:5EA5H         LINE#         1492
  C:5ECCH         LINE#         1493
  C:5EF3H         LINE#         1494
  C:5F1AH         LINE#         1495
  C:5F41H         LINE#         1498
  C:5F48H         LINE#         1499
  C:5F4FH         LINE#         1500
  C:5F56H         LINE#         1502
  C:5F6BH         LINE#         1503
  C:5F6BH         LINE#         1504
  C:5F82H         LINE#         1505
  C:5F9BH         LINE#         1506
  C:5F9BH         LINE#         1507
  C:5F9EH         LINE#         1511
  C:5F9EH         LINE#         1513
  C:5FCDH         LINE#         1514
  C:5FFCH         LINE#         1516
  C:6014H         LINE#         1517
  C:6014H         LINE#         1518
  C:6021H         LINE#         1519
BL51 BANKED LINKER/LOCATER V6.22.2.0                                                  06/23/2021  14:18:03  PAGE 122


  C:6023H         LINE#         1521
  C:6023H         LINE#         1522
  C:6033H         LINE#         1523
  C:6033H         LINE#         1524
  C:6033H         LINE#         1526
  C:6045H         LINE#         1527
  C:604CH         LINE#         1528
  C:6053H         LINE#         1529
  C:605AH         LINE#         1530
  -------         ENDPROC       _ARMAR_TRAMA_TARJETA_SECTOR1_BLOQUE2
  -------         PROC          _ARMAR_TRAMA_TARJETA_SECTOR1_BLOQUE0
  X:000CH         SYMBOL        Buffer_Write_MF
  C:C1A0H         LINE#         1532
  C:C1ABH         LINE#         1533
  C:C1ABH         LINE#         1535
  -------         ENDPROC       _ARMAR_TRAMA_TARJETA_SECTOR1_BLOQUE0
  -------         PROC          _ARMAR_TRAMA_PTO_PARALELO_EXPEDIDOR
  X:0009H         SYMBOL        Atributos_Expedidor
  X:000CH         SYMBOL        longitud_trama_pto_paralelo
  -------         DO            
  X:00BCH         SYMBOL        buffer
  X:000FH         SYMBOL        ticket
  X:001AH         SYMBOL        j
  -------         ENDDO         
  C:53F4H         LINE#         1537
  C:53FFH         LINE#         1538
  C:53FFH         LINE#         1545
  C:5405H         LINE#         1546
  C:5409H         LINE#         1547
  C:540CH         LINE#         1548
  C:5418H         LINE#         1549
  C:542FH         LINE#         1550
  C:543DH         LINE#         1552
  C:544EH         LINE#         1554
  C:547AH         LINE#         1555
  C:54A6H         LINE#         1556
  C:54D2H         LINE#         1557
  C:54FEH         LINE#         1558
  C:552AH         LINE#         1559
  C:553EH         LINE#         1569
  C:554DH         LINE#         1570
  C:554DH         LINE#         1571
  C:5553H         LINE#         1572
  C:5553H         LINE#         1573
  C:556AH         LINE#         1574
  C:5580H         LINE#         1575
  C:5596H         LINE#         1576
  C:55ACH         LINE#         1577
  C:55C2H         LINE#         1578
  C:55D7H         LINE#         1579
  C:55D7H         LINE#         1580
  C:55D9H         LINE#         1582
  C:55D9H         LINE#         1583
  C:55ECH         LINE#         1584
  C:55ECH         LINE#         1585
  C:55ECH         LINE#         1586
  C:55EEH         LINE#         1588
BL51 BANKED LINKER/LOCATER V6.22.2.0                                                  06/23/2021  14:18:03  PAGE 123


  C:55EEH         LINE#         1589
  C:5602H         LINE#         1590
  C:5615H         LINE#         1591
  C:5615H         LINE#         1592
  C:5623H         LINE#         1593
  C:5631H         LINE#         1594
  C:5643H         LINE#         1596
  C:5649H         LINE#         1597
  -------         ENDPROC       _ARMAR_TRAMA_PTO_PARALELO_EXPEDIDOR
  -------         PROC          _ARMAR_TRAMA_PTO_PARALELO_EXPEDIDOR_MENSUAL
  X:0009H         SYMBOL        Atributos_Expedidor
  X:000CH         SYMBOL        longitud_trama_pto_paralelo
  -------         DO            
  X:00D8H         SYMBOL        buffer
  -------         ENDDO         
  C:7371H         LINE#         1598
  C:737CH         LINE#         1599
  C:737CH         LINE#         1605
  C:7382H         LINE#         1606
  C:7386H         LINE#         1607
  C:739BH         LINE#         1608
  C:73A5H         LINE#         1609
  C:73AFH         LINE#         1610
  C:73B9H         LINE#         1614
  C:73CAH         LINE#         1615
  C:73E6H         LINE#         1616
  C:7402H         LINE#         1617
  C:741EH         LINE#         1618
  C:743AH         LINE#         1628
  C:7446H         LINE#         1629
  C:7446H         LINE#         1631
  C:744DH         LINE#         1632
  C:7451H         LINE#         1633
  C:7455H         LINE#         1634
  C:7459H         LINE#         1635
  C:745DH         LINE#         1636
  C:7461H         LINE#         1638
  C:7461H         LINE#         1640
  C:7477H         LINE#         1641
  C:7477H         LINE#         1642
  C:747AH         LINE#         1643
  C:747CH         LINE#         1645
  C:747CH         LINE#         1646
  C:747FH         LINE#         1647
  C:747FH         LINE#         1649
  C:7485H         LINE#         1650
  C:7488H         LINE#         1651
  C:7498H         LINE#         1652
  C:749EH         LINE#         1653
  -------         ENDPROC       _ARMAR_TRAMA_PTO_PARALELO_EXPEDIDOR_MENSUAL
  -------         PROC          _ARMAR_TRAMA_MONITOR
  X:0005H         SYMBOL        Atributos_Expedidor
  -------         DO            
  X:00F4H         SYMBOL        buffer
  X:0008H         SYMBOL        ticket
  X:0013H         SYMBOL        j
  -------         ENDDO         
BL51 BANKED LINKER/LOCATER V6.22.2.0                                                  06/23/2021  14:18:03  PAGE 124


  C:5151H         LINE#         1654
  C:515CH         LINE#         1655
  C:515CH         LINE#         1661
  C:5161H         LINE#         1662
  C:5167H         LINE#         1663
  C:516FH         LINE#         1664
  C:5173H         LINE#         1665
  C:517CH         LINE#         1666
  C:517CH         LINE#         1667
  C:517FH         LINE#         1668
  C:5181H         LINE#         1670
  C:5181H         LINE#         1671
  C:5184H         LINE#         1672
  C:5184H         LINE#         1675
  C:5187H         LINE#         1676
  C:5187H         LINE#         1677
  C:518CH         LINE#         1678
  C:5198H         LINE#         1679
  C:51AFH         LINE#         1680
  C:51B2H         LINE#         1682
  C:51B2H         LINE#         1683
  C:51CDH         LINE#         1684
  C:51DBH         LINE#         1685
  C:51E9H         LINE#         1686
  C:51F5H         LINE#         1687
  C:5203H         LINE#         1688
  C:523CH         LINE#         1690
  C:523CH         LINE#         1691
  C:524AH         LINE#         1692
  C:525BH         LINE#         1695
  C:5287H         LINE#         1696
  C:52A5H         LINE#         1699
  C:52C6H         LINE#         1700
  C:52E4H         LINE#         1703
  C:5305H         LINE#         1704
  C:5323H         LINE#         1707
  C:5344H         LINE#         1708
  C:5362H         LINE#         1711
  C:5383H         LINE#         1712
  C:53A1H         LINE#         1713
  C:53B4H         LINE#         1716
  C:53C2H         LINE#         1718
  C:53D0H         LINE#         1719
  C:53DDH         LINE#         1720
  C:53E9H         LINE#         1721
  C:53EEH         LINE#         1722
  C:53F3H         LINE#         1723
  -------         ENDPROC       _ARMAR_TRAMA_MONITOR
  -------         PROC          _ARMAR_TRAMA_PLACA
  X:0008H         SYMBOL        Buffer_Write_MF
  -------         DO            
  D:0006H         SYMBOL        j
  D:0007H         SYMBOL        len_placa
  -------         ENDDO         
  C:B5B3H         LINE#         1724
  C:B5BEH         LINE#         1725
  C:B5BEH         LINE#         1728
BL51 BANKED LINKER/LOCATER V6.22.2.0                                                  06/23/2021  14:18:03  PAGE 125


  C:B5C7H         LINE#         1729
  C:B5CEH         LINE#         1730
  C:B5CEH         LINE#         1731
  C:B5E8H         LINE#         1732
  C:B5EBH         LINE#         1733
  C:B5F7H         LINE#         1734
  C:B5F7H         LINE#         1735
  C:B60BH         LINE#         1736
  C:B60EH         LINE#         1737
  -------         ENDPROC       _ARMAR_TRAMA_PLACA
  C:BDBFH         SYMBOL        L?0405
  -------         PROC          L?0404
  -------         ENDPROC       L?0404
  C:BDBFH         SYMBOL        L?0405
  -------         PROC          _LOAD_SECUENCIA_EXPEDIDOR
  D:0001H         SYMBOL        Secuencia_Expedidor
  D:0004H         SYMBOL        estadoactivo
  X:0007H         SYMBOL        estadoactual
  X:0009H         SYMBOL        estadofuturo
  C:BDDBH         LINE#         1738
  C:BDDBH         LINE#         1739
  C:BDDBH         LINE#         1740
  C:BDE2H         LINE#         1741
  C:BDEAH         LINE#         1742
  C:BDF5H         LINE#         1743
  C:BDFBH         LINE#         1744
  -------         ENDPROC       _LOAD_SECUENCIA_EXPEDIDOR
  -------         PROC          _DISPARO_LOCK_ENTRADA_VEHICULO
  X:0002H         SYMBOL        Nombre_Mensual
  -------         DO            
  X:0005H         SYMBOL        Estado_expedidor
  X:010CH         SYMBOL        take_card
  -------         ENDDO         
  C:A7C8H         LINE#         1745
  C:A7D3H         LINE#         1746
  C:A7D3H         LINE#         1751
  C:A7DCH         LINE#         1755
  C:A7E3H         LINE#         1756
  C:A7E3H         LINE#         1758
  C:A7ECH         LINE#         1760
  C:A7F2H         LINE#         1761
  C:A7F4H         LINE#         1762
  C:A7F9H         LINE#         1763
  C:A809H         LINE#         1764
  C:A80FH         LINE#         1767
  C:A811H         LINE#         1768
  C:A819H         LINE#         1769
  C:A819H         LINE#         1770
  C:A81FH         LINE#         1771
  C:A81FH         LINE#         1772
  C:A82CH         LINE#         1773
  C:A831H         LINE#         1774
  C:A836H         LINE#         1775
  C:A838H         LINE#         1777
  C:A838H         LINE#         1778
  C:A83EH         LINE#         1780
  C:A83EH         LINE#         1782
BL51 BANKED LINKER/LOCATER V6.22.2.0                                                  06/23/2021  14:18:03  PAGE 126


  C:A844H         LINE#         1783
  C:A84AH         LINE#         1785
  C:A84CH         LINE#         1787
  C:A84CH         LINE#         1788
  C:A852H         LINE#         1789
  C:A852H         LINE#         1791
  C:A852H         LINE#         1796
  C:A857H         LINE#         1797
  -------         ENDPROC       _DISPARO_LOCK_ENTRADA_VEHICULO
  -------         PROC          _SEND_PTO_PARALELO
  X:0002H         SYMBOL        Atributos_Expedidor
  -------         DO            
  X:0005H         SYMBOL        Trama_Expedidor
  X:0008H         SYMBOL        leng_trama_pto
  -------         ENDDO         
  C:9F5CH         LINE#         1798
  C:9F67H         LINE#         1799
  C:9F67H         LINE#         1802
  C:9F6AH         LINE#         1803
  C:9F6AH         LINE#         1804
  C:9F91H         LINE#         1805
  C:9F93H         LINE#         1807
  C:9F93H         LINE#         1808
  C:9FBAH         LINE#         1809
  C:9FBDH         LINE#         1810
  C:9FBDH         LINE#         1812
  C:9FCEH         LINE#         1813
  C:9FD7H         LINE#         1814
  C:9FEEH         LINE#         1818
  C:9FF1H         LINE#         1819
  C:9FF7H         LINE#         1820
  C:9FFCH         LINE#         1821
  C:9FFEH         LINE#         1822
  C:A000H         LINE#         1823
  -------         ENDPROC       _SEND_PTO_PARALELO
  -------         PROC          ENTREGA_CARD_CAPTURA
  -------         DO            
  X:0002H         SYMBOL        Estado_expedidor
  -------         ENDDO         
  C:A858H         LINE#         1827
  C:A858H         LINE#         1828
  C:A858H         LINE#         1832
  C:A861H         LINE#         1833
  C:A864H         LINE#         1834
  C:A867H         LINE#         1835
  C:A867H         LINE#         1836
  C:A871H         LINE#         1837
  C:A871H         LINE#         1838
  C:A873H         LINE#         1839
  C:A875H         LINE#         1840
  C:A87EH         LINE#         1841
  C:A87EH         LINE#         1842
  C:A87EH         LINE#         1844
  C:A880H         LINE#         1846
  C:A880H         LINE#         1847
  C:A886H         LINE#         1848
  C:A886H         LINE#         1850
BL51 BANKED LINKER/LOCATER V6.22.2.0                                                  06/23/2021  14:18:03  PAGE 127


  C:A88CH         LINE#         1852
  C:A89FH         LINE#         1853
  C:A89FH         LINE#         1854
  C:A8ACH         LINE#         1855
  C:A8ACH         LINE#         1856
  C:A8AEH         LINE#         1857
  C:A8B7H         LINE#         1859
  C:A8B9H         LINE#         1860
  C:A8B9H         LINE#         1861
  C:A8BBH         LINE#         1862
  C:A8C8H         LINE#         1863
  C:A8C8H         LINE#         1864
  C:A8CEH         LINE#         1865
  C:A8CEH         LINE#         1866
  C:A8CEH         LINE#         1868
  C:A8D0H         LINE#         1870
  C:A8D0H         LINE#         1871
  C:A8D2H         LINE#         1872
  C:A8DBH         LINE#         1873
  C:A8DDH         LINE#         1874
  C:A8E2H         LINE#         1875
  C:A8E2H         LINE#         1876
  C:A8E2H         LINE#         1878
  C:A8E7H         LINE#         1879
  -------         ENDPROC       ENTREGA_CARD_CAPTURA
  -------         PROC          _WAIT_PLACA
  X:0002H         SYMBOL        Atributos_Expedidor
  X:0005H         SYMBOL        Buffer_Write_MF
  -------         DO            
  X:0008H         SYMBOL        Estado_expedidor
  -------         ENDDO         
  C:9A9FH         LINE#         1880
  C:9AAAH         LINE#         1881
  C:9AAAH         LINE#         1884
  C:9AB3H         LINE#         1886
  C:9AC9H         LINE#         1887
  C:9AC9H         LINE#         1888
  C:9ACCH         LINE#         1889
  C:9ACCH         LINE#         1891
  C:9ACFH         LINE#         1892
  C:9ACFH         LINE#         1893
  C:9AD1H         LINE#         1895
  C:9AD4H         LINE#         1896
  C:9AD4H         LINE#         1897
  C:9AFCH         LINE#         1898
  C:9AFEH         LINE#         1901
  C:9AFEH         LINE#         1902
  C:9B04H         LINE#         1903
  C:9B17H         LINE#         1904
  C:9B17H         LINE#         1905
  C:9B24H         LINE#         1906
  C:9B24H         LINE#         1907
  C:9B33H         LINE#         1908
  C:9B39H         LINE#         1909
  C:9B3BH         LINE#         1910
  C:9B48H         LINE#         1911
  C:9B48H         LINE#         1912
BL51 BANKED LINKER/LOCATER V6.22.2.0                                                  06/23/2021  14:18:03  PAGE 128


  C:9B4EH         LINE#         1913
  C:9B4EH         LINE#         1914
  C:9B4EH         LINE#         1915
  C:9B4EH         LINE#         1916
  C:9B53H         LINE#         1917
  -------         ENDPROC       _WAIT_PLACA
  -------         PROC          _VALIDA_VEHICULO_CARD_MENSUAL
  X:0010H         SYMBOL        Atributos_Expedidor
  -------         DO            
  X:0013H         SYMBOL        Estado_expedidor
  -------         ENDDO         
  C:A4EEH         LINE#         1918
  C:A4F9H         LINE#         1919
  C:A4F9H         LINE#         1922
  C:A502H         LINE#         1923
  C:A517H         LINE#         1924
  C:A517H         LINE#         1925
  C:A51BH         LINE#         1926
  C:A51DH         LINE#         1928
  C:A51DH         LINE#         1929
  C:A524H         LINE#         1930
  C:A524H         LINE#         1932
  C:A52DH         LINE#         1933
  C:A53BH         LINE#         1934
  C:A53BH         LINE#         1935
  C:A554H         LINE#         1936
  C:A554H         LINE#         1937
  C:A55AH         LINE#         1938
  C:A55AH         LINE#         1939
  C:A55CH         LINE#         1942
  C:A55CH         LINE#         1943
  C:A561H         LINE#         1944
  C:A56AH         LINE#         1945
  C:A56FH         LINE#         1946
  C:A56FH         LINE#         1947
  C:A571H         LINE#         1949
  C:A571H         LINE#         1950
  C:A57AH         LINE#         1951
  C:A580H         LINE#         1952
  C:A580H         LINE#         1953
  C:A585H         LINE#         1954
  -------         ENDPROC       _VALIDA_VEHICULO_CARD_MENSUAL
  -------         PROC          _TARJETA_MENSUAL
  X:0009H         SYMBOL        Atributos_Expedidor
  X:000CH         SYMBOL        Buffer_Write_MF
  -------         DO            
  X:000FH         SYMBOL        Estado_expedidor
  -------         ENDDO         
  C:9333H         LINE#         1955
  C:933EH         LINE#         1956
  C:933EH         LINE#         1961
  C:9349H         LINE#         1962
  C:9349H         LINE#         1963
  C:9367H         LINE#         1964
  C:9367H         LINE#         1966
  C:9378H         LINE#         1967
  C:9378H         LINE#         1968
BL51 BANKED LINKER/LOCATER V6.22.2.0                                                  06/23/2021  14:18:03  PAGE 129


  C:9380H         LINE#         1969
  C:9382H         LINE#         1971
  C:9382H         LINE#         1972
  C:938BH         LINE#         1973
  C:939BH         LINE#         1974
  C:93AEH         LINE#         1975
  C:93CEH         LINE#         1976
  C:93D4H         LINE#         1977
  C:93D4H         LINE#         1978
  C:93D6H         LINE#         1980
  C:93D6H         LINE#         1981
  C:93DBH         LINE#         1983
  C:93E0H         LINE#         1984
  C:93E9H         LINE#         1985
  C:93E9H         LINE#         1986
  C:93E9H         LINE#         1987
  C:93EBH         LINE#         1989
  C:93EBH         LINE#         1991
  C:93F1H         LINE#         1992
  C:93F1H         LINE#         1993
  C:93F6H         LINE#         1994
  -------         ENDPROC       _TARJETA_MENSUAL
  -------         PROC          _TARJETA_ROTACION
  D:0001H         SYMBOL        Atributos_Expedidor
  X:000CH         SYMBOL        Buffer_Write_MF
  C:C097H         LINE#         1995
  C:C097H         LINE#         1996
  C:C097H         LINE#         1997
  C:C09CH         LINE#         1998
  C:C0A5H         LINE#         1999
  C:C0C5H         LINE#         2000
  C:C0C7H         LINE#         2003
  -------         ENDPROC       _TARJETA_ROTACION
  -------         PROC          _VALIDA_TIPO_TARJETA
  X:0002H         SYMBOL        Atributos_Expedidor
  X:0005H         SYMBOL        Buffer_Write_MF
  -------         DO            
  X:0008H         SYMBOL        Estado_expedidor
  -------         ENDDO         
  C:65CBH         LINE#         2004
  C:65D6H         LINE#         2005
  C:65D6H         LINE#         2007
  C:65E3H         LINE#         2008
  C:65E3H         LINE#         2009
  C:65ECH         LINE#         2010
  C:65F2H         LINE#         2011
  C:65F2H         LINE#         2015
  C:6600H         LINE#         2016
  C:6600H         LINE#         2019
  C:661DH         LINE#         2020
  C:661DH         LINE#         2021
  C:663AH         LINE#         2023
  C:663CH         LINE#         2025
  C:663CH         LINE#         2026
  C:6645H         LINE#         2027
  C:6647H         LINE#         2028
  C:6647H         LINE#         2029
BL51 BANKED LINKER/LOCATER V6.22.2.0                                                  06/23/2021  14:18:03  PAGE 130


  C:6647H         LINE#         2030
  C:664AH         LINE#         2033
  C:664AH         LINE#         2034
  C:6653H         LINE#         2036
  C:6676H         LINE#         2037
  C:6676H         LINE#         2038
  C:6679H         LINE#         2040
  C:6679H         LINE#         2041
  C:667EH         LINE#         2042
  C:6683H         LINE#         2043
  C:6686H         LINE#         2044
  C:6686H         LINE#         2045
  C:6689H         LINE#         2046
  C:66A1H         LINE#         2047
  C:66A1H         LINE#         2049
  C:66AAH         LINE#         2050
  C:66B0H         LINE#         2051
  C:66B0H         LINE#         2052
  C:66BCH         LINE#         2053
  C:66BCH         LINE#         2054
  C:66D9H         LINE#         2056
  C:66D9H         LINE#         2057
  C:66F9H         LINE#         2058
  C:66FBH         LINE#         2060
  C:66FBH         LINE#         2061
  C:6704H         LINE#         2062
  C:6709H         LINE#         2063
  C:670EH         LINE#         2064
  C:6711H         LINE#         2065
  C:6711H         LINE#         2066
  C:6713H         LINE#         2068
  C:6713H         LINE#         2069
  C:671CH         LINE#         2070
  C:673FH         LINE#         2071
  C:673FH         LINE#         2072
  C:6741H         LINE#         2074
  C:6741H         LINE#         2076
  C:6746H         LINE#         2077
  C:674BH         LINE#         2078
  C:6751H         LINE#         2079
  C:6751H         LINE#         2080
  C:6753H         LINE#         2082
  C:6753H         LINE#         2083
  C:675CH         LINE#         2084
  C:6761H         LINE#         2086
  C:6769H         LINE#         2087
  C:6769H         LINE#         2089
  C:676EH         LINE#         2090
  -------         ENDPROC       _VALIDA_TIPO_TARJETA
  -------         PROC          _HORARIOS
  X:0010H         SYMBOL        Atributos_Expedidor
  -------         DO            
  X:0013H         SYMBOL        Estado_Horario
  X:0014H         SYMBOL        Addr_horarios
  X:001FH         SYMBOL        dia_semana
  X:0020H         SYMBOL        EE_dia_semana
  X:0021H         SYMBOL        addr
BL51 BANKED LINKER/LOCATER V6.22.2.0                                                  06/23/2021  14:18:03  PAGE 131


  -------         ENDDO         
  C:7B63H         LINE#         2184
  C:7B6EH         LINE#         2185
  C:7B6EH         LINE#         2191
  C:7B79H         LINE#         2192
  C:7B79H         LINE#         2194
  C:7B85H         LINE#         2196
  C:7BABH         LINE#         2200
  C:7BBEH         LINE#         2201
  C:7BBEH         LINE#         2203
  C:7BC8H         LINE#         2204
  C:7BD1H         LINE#         2205
  C:7BD9H         LINE#         2206
  C:7BE2H         LINE#         2209
  C:7C07H         LINE#         2210
  C:7C10H         LINE#         2211
  C:7C18H         LINE#         2212
  C:7C21H         LINE#         2214
  C:7C2BH         LINE#         2215
  C:7C2BH         LINE#         2217
  C:7C39H         LINE#         2218
  C:7C3BH         LINE#         2220
  C:7C3BH         LINE#         2222
  C:7C44H         LINE#         2223
  C:7C49H         LINE#         2224
  C:7C49H         LINE#         2225
  C:7C4BH         LINE#         2227
  C:7C4BH         LINE#         2229
  C:7C50H         LINE#         2230
  C:7C55H         LINE#         2231
  C:7C5BH         LINE#         2233
  C:7C5BH         LINE#         2235
  C:7C5DH         LINE#         2237
  C:7C5DH         LINE#         2238
  C:7C63H         LINE#         2240
  C:7C6CH         LINE#         2241
  C:7C6CH         LINE#         2242
  C:7C71H         LINE#         2243
  -------         ENDPROC       _HORARIOS
  -------         PROC          _HORA_MAXIMA
  X:002FH         SYMBOL        addr
  -------         DO            
  X:0031H         SYMBOL        Hora_High
  X:0032H         SYMBOL        Minuto_High
  X:0033H         SYMBOL        HoraIni
  X:0034H         SYMBOL        MinutoIni
  X:0035H         SYMBOL        Hora_Prog
  -------         ENDDO         
  C:9CB7H         LINE#         2244
  C:9CBFH         LINE#         2245
  C:9CBFH         LINE#         2250
  C:9CD4H         LINE#         2251
  C:9CF4H         LINE#         2252
  C:9D11H         LINE#         2253
  C:9D31H         LINE#         2254
  C:9D39H         LINE#         2255
  C:9D41H         LINE#         2256
BL51 BANKED LINKER/LOCATER V6.22.2.0                                                  06/23/2021  14:18:03  PAGE 132


  C:9D4AH         LINE#         2258
  C:9D62H         LINE#         2259
  -------         ENDPROC       _HORA_MAXIMA
  -------         PROC          _EN_HORARIO
  X:002AH         SYMBOL        HoraNow
  D:0004H         SYMBOL        Hora_Prog
  X:002CH         SYMBOL        addr
  -------         DO            
  X:002EH         SYMBOL        Estado_Horario
  -------         ENDDO         
  C:B20EH         LINE#         2260
  C:B21CH         LINE#         2261
  C:B21CH         LINE#         2264
  C:B229H         LINE#         2265
  C:B229H         LINE#         2268
  C:B232H         LINE#         2269
  C:B247H         LINE#         2272
  C:B256H         LINE#         2273
  C:B256H         LINE#         2275
  C:B25DH         LINE#         2276
  C:B263H         LINE#         2277
  C:B265H         LINE#         2279
  C:B265H         LINE#         2282
  C:B269H         LINE#         2283
  C:B269H         LINE#         2284
  C:B269H         LINE#         2286
  C:B26BH         LINE#         2288
  C:B26BH         LINE#         2291
  C:B274H         LINE#         2292
  C:B279H         LINE#         2294
  C:B279H         LINE#         2295
  C:B27EH         LINE#         2296
  -------         ENDPROC       _EN_HORARIO
  -------         PROC          _BLOQUE_HORARIO
  X:0023H         SYMBOL        addr
  -------         DO            
  X:0025H         SYMBOL        Estado_Horario
  X:0026H         SYMBOL        HoraNow
  X:0028H         SYMBOL        Hora_Prog
  -------         ENDDO         
  C:865EH         LINE#         2298
  C:8666H         LINE#         2299
  C:8666H         LINE#         2305
  C:866FH         LINE#         2306
  C:8677H         LINE#         2307
  C:867FH         LINE#         2308
  C:8688H         LINE#         2309
  C:86AFH         LINE#         2314
  C:86B8H         LINE#         2315
  C:86CDH         LINE#         2316
  C:86E5H         LINE#         2317
  C:86E7H         LINE#         2318
  C:86E7H         LINE#         2321
  C:86FFH         LINE#         2322
  C:86FFH         LINE#         2323
  C:8708H         LINE#         2324
  C:8723H         LINE#         2325
BL51 BANKED LINKER/LOCATER V6.22.2.0                                                  06/23/2021  14:18:03  PAGE 133


  C:8741H         LINE#         2326
  C:8743H         LINE#         2328
  C:8743H         LINE#         2329
  C:8748H         LINE#         2330
  C:874DH         LINE#         2331
  C:8752H         LINE#         2332
  C:8752H         LINE#         2333
  C:8752H         LINE#         2335
  C:8759H         LINE#         2336
  -------         ENDPROC       _BLOQUE_HORARIO
  -------         PROC          SECUENCIA_INICIO_EXPEDIDOR
  -------         DO            
  X:0001H         SYMBOL        temp
  -------         ENDDO         
  C:6FC0H         LINE#         2345
  C:6FC0H         LINE#         2346
  C:6FC0H         LINE#         2348
  C:6FE0H         LINE#         2349
  C:6FE0H         LINE#         2350
  C:6FE0H         LINE#         2353
  C:6FE5H         LINE#         2354
  C:6FEBH         LINE#         2357
  C:6FEDH         LINE#         2358
  C:6FEDH         LINE#         2369
  C:6FEDH         LINE#         2371
  C:6FFBH         LINE#         2372
  C:6FFBH         LINE#         2373
  C:7007H         LINE#         2374
  C:7007H         LINE#         2375
  C:700DH         LINE#         2376
  C:7010H         LINE#         2377
  C:7018H         LINE#         2378
  C:7018H         LINE#         2379
  C:701FH         LINE#         2380
  C:7033H         LINE#         2381
  C:7033H         LINE#         2382
  C:7035H         LINE#         2384
  C:7035H         LINE#         2385
  C:703CH         LINE#         2386
  C:7042H         LINE#         2387
  C:7042H         LINE#         2388
  C:7045H         LINE#         2390
  C:7045H         LINE#         2391
  C:704EH         LINE#         2392
  C:7062H         LINE#         2393
  C:7068H         LINE#         2394
  C:7068H         LINE#         2395
  C:706BH         LINE#         2396
  C:706BH         LINE#         2402
  C:706BH         LINE#         2404
  C:706EH         LINE#         2405
  C:7074H         LINE#         2409
  C:7076H         LINE#         2410
  C:7076H         LINE#         2420
  C:7076H         LINE#         2422
  C:7084H         LINE#         2423
  C:7084H         LINE#         2424
BL51 BANKED LINKER/LOCATER V6.22.2.0                                                  06/23/2021  14:18:03  PAGE 134


  C:7090H         LINE#         2425
  C:7090H         LINE#         2426
  C:7096H         LINE#         2427
  C:7098H         LINE#         2428
  C:70A0H         LINE#         2429
  C:70A0H         LINE#         2430
  C:70A7H         LINE#         2431
  C:70BBH         LINE#         2432
  C:70BBH         LINE#         2433
  C:70BDH         LINE#         2435
  C:70BDH         LINE#         2436
  C:70C4H         LINE#         2437
  C:70CAH         LINE#         2438
  C:70CAH         LINE#         2439
  C:70CCH         LINE#         2441
  C:70CCH         LINE#         2442
  C:70D5H         LINE#         2443
  C:70E9H         LINE#         2444
  C:70EEH         LINE#         2445
  C:70EEH         LINE#         2447
  C:70F0H         LINE#         2448
  C:70F0H         LINE#         2454
  C:70F0H         LINE#         2456
  C:70F6H         LINE#         2457
  C:70F6H         LINE#         2460
  C:70F6H         LINE#         2461
  C:70FDH         LINE#         2462
  C:70FDH         LINE#         2463
  C:70FDH         LINE#         2464
  -------         ENDPROC       SECUENCIA_INICIO_EXPEDIDOR
  -------         PROC          _SECUENCIAEXPEDIDORMF
  X:0001H         SYMBOL        EstadoActivo
  -------         DO            
  X:010DH         SYMBOL        Buffer_Write_MF
  X:011EH         SYMBOL        Atributos_Expedidor
  X:0132H         SYMBOL        Secuencia_Expedidor
  X:0136H         SYMBOL        Nombre_Mensual
  -------         ENDDO         
  C:3C00H         LINE#         2474
  C:3C05H         LINE#         2475
  C:3C05H         LINE#         2483
  C:3C68H         LINE#         2484
  C:3C68H         LINE#         2487
  C:3C68H         LINE#         2489
  C:3C78H         LINE#         2490
  C:3C78H         LINE#         2493
  C:3C7AH         LINE#         2494
  C:3C7CH         LINE#         2495
  C:3C81H         LINE#         2496
  C:3C89H         LINE#         2497
  C:3C8EH         LINE#         2498
  C:3C91H         LINE#         2499
  C:3C91H         LINE#         2500
  C:3C97H         LINE#         2501
  C:3C97H         LINE#         2502
  C:3C9AH         LINE#         2503
  C:3C9AH         LINE#         2504
BL51 BANKED LINKER/LOCATER V6.22.2.0                                                  06/23/2021  14:18:03  PAGE 135


  C:3C9AH         LINE#         2506
  C:3C9DH         LINE#         2507
  C:3C9DH         LINE#         2509
  C:3CA6H         LINE#         2510
  C:3CA9H         LINE#         2511
  C:3CA9H         LINE#         2512
  C:3CAEH         LINE#         2513
  C:3CCEH         LINE#         2514
  C:3CD1H         LINE#         2515
  C:3CD1H         LINE#         2516
  C:3CD6H         LINE#         2517
  C:3CDEH         LINE#         2518
  C:3CE4H         LINE#         2519
  C:3CE7H         LINE#         2520
  C:3CE7H         LINE#         2521
  C:3CEAH         LINE#         2522
  C:3CF2H         LINE#         2523
  C:3CF8H         LINE#         2524
  C:3CFBH         LINE#         2525
  C:3CFBH         LINE#         2526
  C:3CFEH         LINE#         2527
  C:3D23H         LINE#         2528
  C:3D29H         LINE#         2529
  C:3D2BH         LINE#         2530
  C:3D2EH         LINE#         2531
  C:3D2EH         LINE#         2532
  C:3D39H         LINE#         2533
  C:3D41H         LINE#         2534
  C:3D47H         LINE#         2535
  C:3D4AH         LINE#         2536
  C:3D4AH         LINE#         2537
  C:3D5BH         LINE#         2538
  C:3D63H         LINE#         2539
  C:3D69H         LINE#         2540
  C:3D6CH         LINE#         2541
  C:3D6CH         LINE#         2542
  C:3D71H         LINE#         2543
  C:3D8FH         LINE#         2544
  C:3D92H         LINE#         2545
  C:3D92H         LINE#         2546
  C:3D97H         LINE#         2547
  C:3DB7H         LINE#         2548
  C:3DBAH         LINE#         2549
  C:3DBAH         LINE#         2550
  C:3DBFH         LINE#         2551
  C:3DC1H         LINE#         2552
  C:3DDFH         LINE#         2553
  C:3DE2H         LINE#         2554
  C:3DE2H         LINE#         2555
  C:3DE7H         LINE#         2556
  C:3E07H         LINE#         2557
  C:3E0AH         LINE#         2558
  C:3E0AH         LINE#         2559
  C:3E1DH         LINE#         2560
  C:3E1DH         LINE#         2561
  C:3E22H         LINE#         2562
  C:3E2AH         LINE#         2563
BL51 BANKED LINKER/LOCATER V6.22.2.0                                                  06/23/2021  14:18:03  PAGE 136


  C:3E30H         LINE#         2564
  C:3E30H         LINE#         2565
  C:3E33H         LINE#         2566
  C:3E33H         LINE#         2567
  C:3E46H         LINE#         2568
  C:3E46H         LINE#         2569
  C:3E4BH         LINE#         2570
  C:3E4EH         LINE#         2571
  C:3E4EH         LINE#         2572
  C:3E51H         LINE#         2573
  C:3E51H         LINE#         2574
  C:3E54H         LINE#         2575
  C:3E74H         LINE#         2576
  C:3E77H         LINE#         2577
  C:3E77H         LINE#         2578
  C:3E79H         LINE#         2579
  C:3E7CH         LINE#         2580
  C:3E7FH         LINE#         2581
  C:3E7FH         LINE#         2582
  C:3E88H         LINE#         2583
  C:3E8BH         LINE#         2584
  C:3E8BH         LINE#         2585
  C:3EA2H         LINE#         2586
  C:3EA5H         LINE#         2587
  C:3EA5H         LINE#         2588
  C:3EA8H         LINE#         2589
  C:3EB0H         LINE#         2590
  C:3EB6H         LINE#         2591
  C:3EB9H         LINE#         2592
  C:3EB9H         LINE#         2593
  C:3EC2H         LINE#         2594
  C:3EC5H         LINE#         2595
  C:3EC5H         LINE#         2596
  C:3EC7H         LINE#         2597
  C:3ECAH         LINE#         2598
  C:3ECDH         LINE#         2599
  C:3ECDH         LINE#         2600
  C:3EE4H         LINE#         2601
  C:3EE7H         LINE#         2602
  C:3EE7H         LINE#         2605
  C:3EECH         LINE#         2606
  C:3EF4H         LINE#         2607
  C:3EFAH         LINE#         2609
  C:3EFDH         LINE#         2610
  C:3EFDH         LINE#         2611
  C:3F00H         LINE#         2612
  C:3F20H         LINE#         2613
  C:3F23H         LINE#         2614
  C:3F23H         LINE#         2615
  C:3F26H         LINE#         2616
  C:3F46H         LINE#         2617
  C:3F49H         LINE#         2618
  C:3F49H         LINE#         2619
  C:3F4CH         LINE#         2620
  C:3F54H         LINE#         2621
  C:3F57H         LINE#         2622
  C:3F59H         LINE#         2623
BL51 BANKED LINKER/LOCATER V6.22.2.0                                                  06/23/2021  14:18:03  PAGE 137


  C:3F59H         LINE#         2625
  C:3F64H         LINE#         2626
  C:3F6CH         LINE#         2627
  C:3F80H         LINE#         2628
  C:3F83H         LINE#         2632
  C:3F83H         LINE#         2633
  C:3F89H         LINE#         2634
  C:3F8FH         LINE#         2635
  C:3F8FH         LINE#         2636
  C:3F97H         LINE#         2637
  C:3F9DH         LINE#         2639
  C:3FA0H         LINE#         2640
  C:3FA8H         LINE#         2641
  C:3FA8H         LINE#         2643
  C:3FABH         LINE#         2644
  C:3FAEH         LINE#         2645
  C:3FB6H         LINE#         2646
  C:3FB6H         LINE#         2647
  C:3FC4H         LINE#         2648
  C:3FC4H         LINE#         2649
  C:3FCDH         LINE#         2650
  C:3FD0H         LINE#         2651
  C:3FDCH         LINE#         2652
  C:3FDCH         LINE#         2653
  C:3FE5H         LINE#         2654
  C:3FE8H         LINE#         2656
  C:3FE8H         LINE#         2657
  C:3FF1H         LINE#         2658
  C:3FF1H         LINE#         2659
  C:3FF4H         LINE#         2660
  C:3FFCH         LINE#         2661
  C:3FFCH         LINE#         2662
  C:400AH         LINE#         2663
  C:400AH         LINE#         2664
  C:4020H         LINE#         2665
  C:4023H         LINE#         2666
  C:402FH         LINE#         2667
  C:402FH         LINE#         2668
  C:4038H         LINE#         2669
  C:403BH         LINE#         2670
  C:4049H         LINE#         2671
  C:4049H         LINE#         2672
  C:4052H         LINE#         2673
  C:4054H         LINE#         2675
  C:4054H         LINE#         2676
  C:405DH         LINE#         2677
  C:405DH         LINE#         2678
  C:405FH         LINE#         2679
  C:4067H         LINE#         2680
  C:4067H         LINE#         2681
  C:4070H         LINE#         2682
  C:4072H         LINE#         2683
  C:407AH         LINE#         2684
  C:407AH         LINE#         2685
  C:4090H         LINE#         2686
  C:4092H         LINE#         2687
  C:409AH         LINE#         2688
BL51 BANKED LINKER/LOCATER V6.22.2.0                                                  06/23/2021  14:18:03  PAGE 138


  C:409AH         LINE#         2689
  C:409DH         LINE#         2690
  C:409FH         LINE#         2692
  C:40A7H         LINE#         2693
  C:40A7H         LINE#         2694
  C:40B0H         LINE#         2695
  C:40B2H         LINE#         2698
  C:40BAH         LINE#         2699
  C:40BAH         LINE#         2700
  C:40C2H         LINE#         2701
  C:40C4H         LINE#         2703
  C:40C4H         LINE#         2704
  C:40CDH         LINE#         2705
  C:40CDH         LINE#         2706
  C:40CFH         LINE#         2707
  C:40CFH         LINE#         2708
  C:40D4H         LINE#         2709
  C:40D4H         LINE#         2711
  C:40D4H         LINE#         2712
  C:40D9H         LINE#         2713
  -------         ENDPROC       _SECUENCIAEXPEDIDORMF
  -------         ENDMOD        VERIFICADOR

  -------         MODULE        MONITOR
  C:0000H         SYMBOL        _ICE_DUMMY_
  D:0080H         PUBLIC        P0
  D:0090H         PUBLIC        P1
  I:0011H         PUBLIC        placa
  C:C215H         PUBLIC        Rx_Monitor
  B:0080H.0       PUBLIC        rx_ip
  B:0090H.7       PUBLIC        lock
  C:957CH         PUBLIC        _recibe_cmd_Monitor
  C:C37AH         PUBLIC        clear_placa
  C:9875H         PUBLIC        _Valida_Trama_Monitor
  -------         PROC          _RECIBE_CMD_MONITOR
  X:0016H         SYMBOL        buffer_cmd
  -------         DO            
  X:0019H         SYMBOL        j
  X:001AH         SYMBOL        NumDatos
  X:001BH         SYMBOL        time_out
  X:001CH         SYMBOL        MaxChrRx
  X:001DH         SYMBOL        contador
  -------         ENDDO         
  C:957CH         LINE#         50
  C:9587H         LINE#         51
  C:9587H         LINE#         55
  C:958CH         LINE#         56
  C:9592H         LINE#         58
  C:959DH         LINE#         59
  C:959DH         LINE#         60
  C:95AEH         LINE#         61
  C:95AEH         LINE#         62
  C:95B5H         LINE#         63
  C:95B9H         LINE#         64
  C:95C2H         LINE#         65
  C:95C2H         LINE#         66
  C:95D0H         LINE#         67
BL51 BANKED LINKER/LOCATER V6.22.2.0                                                  06/23/2021  14:18:03  PAGE 139


  C:95E7H         LINE#         68
  C:95E7H         LINE#         69
  C:95EDH         LINE#         70
  C:95F3H         LINE#         71
  C:95F3H         LINE#         72
  C:95F5H         LINE#         73
  C:95FDH         LINE#         74
  C:9603H         LINE#         75
  C:9615H         LINE#         76
  C:961FH         LINE#         77
  C:9628H         LINE#         79
  C:9637H         LINE#         82
  C:9637H         LINE#         83
  C:963CH         LINE#         84
  -------         ENDPROC       _RECIBE_CMD_MONITOR
  -------         PROC          _VALIDA_TRAMA_MONITOR
  X:0016H         SYMBOL        buffer
  D:0005H         SYMBOL        length_trama
  -------         DO            
  X:0019H         SYMBOL        j
  X:001AH         SYMBOL        p
  X:001BH         SYMBOL        cont
  -------         ENDDO         
  C:9875H         LINE#         89
  C:9880H         LINE#         90
  C:9880H         LINE#         91
  C:9883H         LINE#         92
  C:9887H         LINE#         93
  C:988AH         LINE#         94
  C:988CH         LINE#         97
  C:98A0H         LINE#         98
  C:98A0H         LINE#         100
  C:98A2H         LINE#         102
  C:98A9H         LINE#         103
  C:98AEH         LINE#         106
  C:98AEH         LINE#         108
  C:98C9H         LINE#         109
  C:98C9H         LINE#         112
  C:98C9H         LINE#         113
  C:98EAH         LINE#         114
  C:98EEH         LINE#         115
  C:98F4H         LINE#         116
  C:9906H         LINE#         117
  C:991EH         LINE#         118
  C:9927H         LINE#         119
  C:9929H         LINE#         120
  C:992FH         LINE#         123
  C:992FH         LINE#         126
  -------         ENDPROC       _VALIDA_TRAMA_MONITOR
  -------         PROC          CLEAR_PLACA
  -------         DO            
  D:0007H         SYMBOL        i
  -------         ENDDO         
  C:C37AH         LINE#         127
  C:C37AH         LINE#         128
  C:C37AH         LINE#         130
  C:C386H         LINE#         131
BL51 BANKED LINKER/LOCATER V6.22.2.0                                                  06/23/2021  14:18:03  PAGE 140


  C:C386H         LINE#         132
  C:C38CH         LINE#         133
  C:C38FH         LINE#         134
  C:C391H         LINE#         135
  -------         ENDPROC       CLEAR_PLACA
  -------         PROC          RX_MONITOR
  -------         DO            
  X:0009H         SYMBOL        Length_trama
  X:000AH         SYMBOL        buffer1
  -------         ENDDO         
  C:C215H         LINE#         136
  C:C215H         LINE#         137
  C:C215H         LINE#         140
  C:C224H         LINE#         141
  C:C22DH         LINE#         142
  -------         ENDPROC       RX_MONITOR
  -------         ENDMOD        MONITOR

  -------         MODULE        ?C?FPADD
  C:1448H         PUBLIC        ?C?FPADD
  C:1444H         PUBLIC        ?C?FPSUB
  -------         ENDMOD        ?C?FPADD

  -------         MODULE        ?C?FPMUL
  C:1539H         PUBLIC        ?C?FPMUL
  -------         ENDMOD        ?C?FPMUL

  -------         MODULE        ?C?FCAST
  C:1649H         PUBLIC        ?C?FCASTC
  C:1644H         PUBLIC        ?C?FCASTI
  C:163FH         PUBLIC        ?C?FCASTL
  -------         ENDMOD        ?C?FCAST

  -------         MODULE        ?C?CASTF
  C:167DH         PUBLIC        ?C?CASTF
  -------         ENDMOD        ?C?CASTF

  -------         MODULE        PRINTF
  X:0077H         PUBLIC        ?_PRINTF?BYTE
  X:0077H         PUBLIC        ?_SPRINTF?BYTE
  C:4145H         PUBLIC        _PRINTF
  C:413FH         PUBLIC        _SPRINTF
  -------         ENDMOD        PRINTF

  -------         MODULE        POW
  X:0020H         PUBLIC        ?_pow?BYTE
  C:6A80H         PUBLIC        _pow
  -------         ENDMOD        POW

  -------         MODULE        ?C?CHKFLOAT
  C:16FEH         PUBLIC        ?C?CHKFLOAT
  -------         ENDMOD        ?C?CHKFLOAT

  -------         MODULE        ?C?FPCMP
  C:171AH         PUBLIC        ?C?FPCMP
  C:1718H         PUBLIC        ?C?FPCMP3
  -------         ENDMOD        ?C?FPCMP
BL51 BANKED LINKER/LOCATER V6.22.2.0                                                  06/23/2021  14:18:03  PAGE 141



  -------         MODULE        ?C?FPNEG
  C:1791H         PUBLIC        ?C?FPNEG
  -------         ENDMOD        ?C?FPNEG

  -------         MODULE        ?C?FPROUND
  C:17A2H         PUBLIC        ?C?FPROUND
  -------         ENDMOD        ?C?FPROUND

  -------         MODULE        ?C?FPCONVERT
  C:17DFH         PUBLIC        ?C?FPCONVERT
  -------         ENDMOD        ?C?FPCONVERT

  -------         MODULE        EXP
  C:A3F3H         PUBLIC        _EXP
  -------         ENDMOD        EXP

  -------         MODULE        LOG
  C:75FEH         PUBLIC        _LOG
  C:75FAH         PUBLIC        _LOG10
  -------         ENDMOD        LOG

  -------         MODULE        ?C?FPDIV
  C:18E7H         PUBLIC        ?C?FPDIV
  -------         ENDMOD        ?C?FPDIV

  -------         MODULE        ?C?FTNPWR
  C:19B4H         PUBLIC        ?C?FTNPWR
  -------         ENDMOD        ?C?FTNPWR

  -------         MODULE        ?C?COPY
  C:1B11H         PUBLIC        ?C?COPY
  -------         ENDMOD        ?C?COPY

  -------         MODULE        ?C?CLDPTR
  C:1B37H         PUBLIC        ?C?CLDPTR
  -------         ENDMOD        ?C?CLDPTR

  -------         MODULE        ?C?CLDOPTR
  C:1B50H         PUBLIC        ?C?CLDOPTR
  -------         ENDMOD        ?C?CLDOPTR

  -------         MODULE        ?C?CSTPTR
  C:1B7DH         PUBLIC        ?C?CSTPTR
  -------         ENDMOD        ?C?CSTPTR

  -------         MODULE        ?C?CSTOPTR
  C:1B8FH         PUBLIC        ?C?CSTOPTR
  -------         ENDMOD        ?C?CSTOPTR

  -------         MODULE        ?C?IMUL
  C:1BB1H         PUBLIC        ?C?IMUL
  -------         ENDMOD        ?C?IMUL

  -------         MODULE        ?C?IILDX
  C:1BC3H         PUBLIC        ?C?IILDX
  -------         ENDMOD        ?C?IILDX
BL51 BANKED LINKER/LOCATER V6.22.2.0                                                  06/23/2021  14:18:03  PAGE 142



  -------         MODULE        ?C?LNEG
  C:1BD9H         PUBLIC        ?C?LNEG
  -------         ENDMOD        ?C?LNEG

  -------         MODULE        ?C?SLCMP
  C:1BE7H         PUBLIC        ?C?SLCMP
  -------         ENDMOD        ?C?SLCMP

  -------         MODULE        ?C?ULCMP
  C:1BFDH         PUBLIC        ?C?ULCMP
  -------         ENDMOD        ?C?ULCMP

  -------         MODULE        ?C?ULSHR
  C:1C0EH         PUBLIC        ?C?ULSHR
  -------         ENDMOD        ?C?ULSHR

  -------         MODULE        ?C?LSHL
  C:1C21H         PUBLIC        ?C?LSHL
  -------         ENDMOD        ?C?LSHL

  -------         MODULE        ?C?LLDCODE
  C:1C34H         PUBLIC        ?C?LLDCODE
  -------         ENDMOD        ?C?LLDCODE

  -------         MODULE        ?C?LLDXDATA0
  C:1C44H         PUBLIC        ?C?LLDXDATA0
  -------         ENDMOD        ?C?LLDXDATA0

  -------         MODULE        ?C?LLDCODE0
  C:1C50H         PUBLIC        ?C?LLDCODE0
  -------         ENDMOD        ?C?LLDCODE0

  -------         MODULE        ?C?LSTXDATA
  C:1C60H         PUBLIC        ?C?LSTXDATA
  -------         ENDMOD        ?C?LSTXDATA

  -------         MODULE        ?C?LSTKXDATA
  C:1C6CH         PUBLIC        ?C?LSTKXDATA
  -------         ENDMOD        ?C?LSTKXDATA

  -------         MODULE        ?C?PLDIXDATA
  C:1C9DH         PUBLIC        ?C?PLDIXDATA
  -------         ENDMOD        ?C?PLDIXDATA

  -------         MODULE        ?C?PSTXDATA
  C:1CB4H         PUBLIC        ?C?PSTXDATA
  -------         ENDMOD        ?C?PSTXDATA

  -------         MODULE        ?C?CCASE
  C:1CBDH         PUBLIC        ?C?CCASE
  -------         ENDMOD        ?C?CCASE

  -------         MODULE        STRCAT
  X:0046H         PUBLIC        ?_strcat?BYTE
  C:B3C5H         PUBLIC        _strcat
  -------         ENDMOD        STRCAT
BL51 BANKED LINKER/LOCATER V6.22.2.0                                                  06/23/2021  14:18:03  PAGE 143



  -------         MODULE        ?C?STRCMP
  C:1E61H         PUBLIC        ?C?STRCMP
  -------         ENDMOD        ?C?STRCMP

  -------         MODULE        ?C?STRCPY
  C:1F4AH         PUBLIC        ?C?STRCPY
  -------         ENDMOD        ?C?STRCPY

  -------         MODULE        STRLEN
  C:000EH         PUBLIC        _STRLEN
  -------         ENDMOD        STRLEN

  -------         MODULE        STRTOK
  X:0064H         PUBLIC        ?_strtok?BYTE
  C:8A25H         PUBLIC        _strtok
  -------         ENDMOD        STRTOK

  -------         MODULE        ATOL
  C:7C72H         PUBLIC        _atol
  -------         ENDMOD        ATOL

  -------         MODULE        ATOI
  C:8BE7H         PUBLIC        _atoi
  -------         ENDMOD        ATOI

  -------         MODULE        ?C?ILDIX
  C:1F67H         PUBLIC        ?C?ILDIX
  -------         ENDMOD        ?C?ILDIX

  -------         MODULE        ?C?LMUL
  C:1F7DH         PUBLIC        ?C?LMUL
  -------         ENDMOD        ?C?LMUL

  -------         MODULE        ISDIGIT
  C:C48AH         PUBLIC        _isdigit
  -------         ENDMOD        ISDIGIT

  -------         MODULE        ISSPACE
  C:C3EAH         PUBLIC        _isspace
  -------         ENDMOD        ISSPACE

  -------         MODULE        STRSPN
  X:006AH         PUBLIC        ?_strspn?BYTE
  C:ACA3H         PUBLIC        _strspn
  -------         ENDMOD        STRSPN

  -------         MODULE        STRPBRK
  X:006AH         PUBLIC        ?_strpbrk?BYTE
  C:ADAAH         PUBLIC        _strpbrk
  -------         ENDMOD        STRPBRK

Program Size: data=99.1 xdata=541 code=50455
LINK/LOCATE RUN COMPLETE.  0 WARNING(S),  0 ERROR(S)
