BL51 BANKED LINKER/LOCATER V6.22.2.0                                                    07/21/2020  12:52:08  PAGE 1


BL51 BANKED LINKER/LOCATER V6.22.2.0, INVOKED BY:
C:\KEIL_V5\C51\BIN\BL51.EXE .\Objects\main.obj, .\Objects\Accescan.obj, .\Objects\Clock.obj, .\Objects\delay.obj, .\Obje
>> cts\eeprom.obj, .\Objects\io_sensores.obj, .\Objects\pantallas.obj, .\Objects\prog.obj, .\Objects\pto_paralelo.obj, .
>> \Objects\tibbo.obj, .\Objects\uart.obj, .\Objects\lintech.obj, .\Objects\verificador.obj, .\Objects\Monitor.obj TO .\
>> Objects\expedidor_v_01_raspberry PRINT (.\Listings\expedidor_v_01_raspberry.m51) RAMSIZE (256)


MEMORY MODEL: LARGE WITH FLOATING POINT ARITHMETIC


INPUT MODULES INCLUDED:
  .\Objects\main.obj (MAIN)
  .\Objects\Accescan.obj (ACCESCAN)
  .\Objects\Clock.obj (CLOCK)
  .\Objects\delay.obj (DELAY)
  .\Objects\eeprom.obj (EEPROM)
  .\Objects\io_sensores.obj (IO_SENSORES)
  .\Objects\pantallas.obj (PANTALLAS)
  .\Objects\prog.obj (PROG)
  .\Objects\pto_paralelo.obj (PTO_PARALELO)
  .\Objects\tibbo.obj (TIBBO)
  .\Objects\uart.obj (UART)
  .\Objects\lintech.obj (LINTECH)
  .\Objects\verificador.obj (VERIFICADOR)
  .\Objects\Monitor.obj (MONITOR)
  C:\KEIL_V5\C51\LIB\C51FPL.LIB (?C?FPADD)
  C:\KEIL_V5\C51\LIB\C51FPL.LIB (?C?FPMUL)
  C:\KEIL_V5\C51\LIB\C51FPL.LIB (?C?FCAST)
  C:\KEIL_V5\C51\LIB\C51FPL.LIB (?C?CASTF)
  C:\KEIL_V5\C51\LIB\C51FPL.LIB (PRINTF)
  C:\KEIL_V5\C51\LIB\C51FPL.LIB (POW)
  C:\KEIL_V5\C51\LIB\C51FPL.LIB (?C?FPGETOPN)
  C:\KEIL_V5\C51\LIB\C51FPL.LIB (?C?CHKFLOAT)
  C:\KEIL_V5\C51\LIB\C51FPL.LIB (?C?FPCMP)
  C:\KEIL_V5\C51\LIB\C51FPL.LIB (?C?FPNEG)
  C:\KEIL_V5\C51\LIB\C51FPL.LIB (?C?FPROUND)
  C:\KEIL_V5\C51\LIB\C51FPL.LIB (?C?FPCONVERT)
  C:\KEIL_V5\C51\LIB\C51FPL.LIB (EXP)
  C:\KEIL_V5\C51\LIB\C51FPL.LIB (LOG)
  C:\KEIL_V5\C51\LIB\C51FPL.LIB (?C?FPDIV)
  C:\KEIL_V5\C51\LIB\C51FPL.LIB (?C?FTNPWR)
  C:\KEIL_V5\C51\LIB\C51FPL.LIB (?C?FPSERIES)
  C:\KEIL_V5\C51\LIB\C51L.LIB (?C_STARTUP)
  C:\KEIL_V5\C51\LIB\C51L.LIB (?C?COPY)
  C:\KEIL_V5\C51\LIB\C51L.LIB (?C?CLDPTR)
  C:\KEIL_V5\C51\LIB\C51L.LIB (?C?CLDOPTR)
  C:\KEIL_V5\C51\LIB\C51L.LIB (?C?CSTPTR)
  C:\KEIL_V5\C51\LIB\C51L.LIB (?C?CSTOPTR)
  C:\KEIL_V5\C51\LIB\C51L.LIB (?C?IMUL)
  C:\KEIL_V5\C51\LIB\C51L.LIB (?C?IILDX)
  C:\KEIL_V5\C51\LIB\C51L.LIB (?C?LNEG)
  C:\KEIL_V5\C51\LIB\C51L.LIB (?C?SLCMP)
  C:\KEIL_V5\C51\LIB\C51L.LIB (?C?ULCMP)
  C:\KEIL_V5\C51\LIB\C51L.LIB (?C?ULSHR)
  C:\KEIL_V5\C51\LIB\C51L.LIB (?C?LSHL)
  C:\KEIL_V5\C51\LIB\C51L.LIB (?C?LLDCODE)
  C:\KEIL_V5\C51\LIB\C51L.LIB (?C?LLDXDATA0)
  C:\KEIL_V5\C51\LIB\C51L.LIB (?C?LLDCODE0)
BL51 BANKED LINKER/LOCATER V6.22.2.0                                                  07/21/2020  12:52:08  PAGE 2


  C:\KEIL_V5\C51\LIB\C51L.LIB (?C?LSTXDATA)
  C:\KEIL_V5\C51\LIB\C51L.LIB (?C?LSTKXDATA)
  C:\KEIL_V5\C51\LIB\C51L.LIB (?C?PLDIXDATA)
  C:\KEIL_V5\C51\LIB\C51L.LIB (?C?PSTXDATA)
  C:\KEIL_V5\C51\LIB\C51L.LIB (?C?CCASE)
  C:\KEIL_V5\C51\LIB\C51L.LIB (STRCAT)
  C:\KEIL_V5\C51\LIB\C51L.LIB (?C?STRCMP)
  C:\KEIL_V5\C51\LIB\C51L.LIB (?C?STRCPY)
  C:\KEIL_V5\C51\LIB\C51L.LIB (STRLEN)
  C:\KEIL_V5\C51\LIB\C51L.LIB (STRTOK)
  C:\KEIL_V5\C51\LIB\C51L.LIB (ATOL)
  C:\KEIL_V5\C51\LIB\C51L.LIB (ATOI)
  C:\KEIL_V5\C51\LIB\C51L.LIB (?C_INIT)
  C:\KEIL_V5\C51\LIB\C51L.LIB (?C?ILDIX)
  C:\KEIL_V5\C51\LIB\C51L.LIB (?C?LMUL)
  C:\KEIL_V5\C51\LIB\C51L.LIB (ISDIGIT)
  C:\KEIL_V5\C51\LIB\C51L.LIB (ISSPACE)
  C:\KEIL_V5\C51\LIB\C51L.LIB (STRSPN)
  C:\KEIL_V5\C51\LIB\C51L.LIB (STRPBRK)


LINK MAP OF MODULE:  .\Objects\expedidor_v_01_raspberry (MAIN)


            TYPE    BASE      LENGTH    RELOCATION   SEGMENT NAME
            -----------------------------------------------------

            * * * * * * *   D A T A   M E M O R Y   * * * * * * *
            REG     0000H     0008H     ABSOLUTE     "REG BANK 0"
            DATA    0008H     0005H     UNIT         _DATA_GROUP_
            DATA    000DH     0004H     UNIT         ?DT?UART
                    0011H     000FH                  *** GAP ***
            BIT     0020H.0   0001H.1   UNIT         _BIT_GROUP_
            BIT     0021H.1   0000H.2   UNIT         ?BI?MAIN
            BIT     0021H.3   0000H.2   UNIT         ?BI?UART
            BIT     0021H.5   0000H.1   UNIT         ?BI?EEPROM
            BIT     0021H.6   0000H.1   UNIT         ?BI?VERIFICADOR
                    0021H.7   0000H.1                *** GAP ***
            IDATA   0022H     0064H     UNIT         ?ID?MAIN
            IDATA   0086H     0001H     UNIT         ?STACK

            * * * * * * *  X D A T A   M E M O R Y  * * * * * * *
            XDATA   0000H     00B8H     UNIT         _XDATA_GROUP_
            XDATA   00B8H     0079H     UNIT         ?XD?VERIFICADOR
            XDATA   0131H     006BH     UNIT         ?XD?MAIN
            XDATA   019CH     0056H     UNIT         ?XD?PROG
            XDATA   01F2H     0009H     UNIT         ?XD?MONITOR
            XDATA   01FBH     0003H     UNIT         ?XD?EEPROM
            XDATA   01FEH     0003H     UNIT         ?XD?UART
            XDATA   0201H     0003H     UNIT         ?XD?STRTOK
            XDATA   0204H     0001H     UNIT         ?XD?ACCESCAN
            XDATA   0205H     0001H     UNIT         ?XD?CLOCK
            XDATA   0206H     0001H     UNIT         ?XD?IO_SENSORES
            XDATA   0207H     0001H     UNIT         ?XD?PANTALLAS

            * * * * * * *   C O D E   M E M O R Y   * * * * * * *
            CODE    0000H     0003H     ABSOLUTE     
BL51 BANKED LINKER/LOCATER V6.22.2.0                                                  07/21/2020  12:52:08  PAGE 3


            CODE    0003H     0008H     UNIT         ?PR?P_CK?CLOCK
            CODE    000BH     0003H     ABSOLUTE     
            CODE    000EH     0015H     UNIT         ?PR?_STRLEN?STRLEN
            CODE    0023H     0003H     ABSOLUTE     
            CODE    0026H     0E44H     UNIT         ?CO?PROG
            CODE    0E6AH     0B8BH     UNIT         ?C?LIB_CODE
            CODE    19F5H     06F4H     UNIT         ?CO?VERIFICADOR
            CODE    20E9H     0679H     UNIT         ?CO?PANTALLAS
            CODE    2762H     051EH     UNIT         ?PR?_PANTALLALCD?PANTALLAS
            CODE    2C80H     0483H     UNIT         ?PR?PRINTF?PRINTF
            CODE    3103H     0417H     UNIT         ?PR?_SECUENCIAEXPEDIDORMF?VERIFICADOR
            CODE    351AH     033EH     UNIT         ?PR?_VALIDA_TRAMA_PTO?ACCESCAN
            CODE    3858H     02D0H     UNIT         ?PR?_TWO_BYTEHEX_DECIMAL?CLOCK
            CODE    3B28H     02B7H     UNIT         ?PR?_PROG_HORARIO_DIAS?PROG
            CODE    3DDFH     021FH     UNIT         ?PR?MENU?PROG
            CODE    3FFEH     0206H     UNIT         ?PR?_HASH_ID?PROG
            CODE    4204H     01FAH     UNIT         ?PR?_PROG_HORARIO_DESDE_HASTA?PROG
            CODE    43FEH     01F5H     UNIT         ?PR?PROG_FECHA_VENCIMIENTO?PROG
            CODE    45F3H     01EBH     UNIT         ?PR?_PANTALLALCD_LINEA_2?PANTALLAS
            CODE    47DEH     01DFH     UNIT         ?PR?_RESPONDE_LECTURA_TARJETA_SECTOR1_BLOQUE1?VERIFICADOR
            CODE    49BDH     01B3H     UNIT         ?PR?COM_ISR?UART
            CODE    4B70H     01A5H     UNIT         ?PR?_VALIDA_TIPO_TARJETA?VERIFICADOR
            CODE    4D15H     019BH     UNIT         ?PR?ARMAR_TRAMA_PTO_PARALELO_EXPEDIDOR?VERIFICADOR
            CODE    4EB0H     017AH     UNIT         ?CO?LINTECH
            CODE    502AH     016EH     UNIT         ?PR?_BLOCK_READ_CLOCK_ASCII?CLOCK
            CODE    5198H     0166H     UNIT         ?PR?_POW?POW
            CODE    52FEH     0148H     UNIT         ?PR?_ARMAR_TRAMA_MONITOR?VERIFICADOR
            CODE    5446H     0145H     UNIT         ?PR?PROG_HORARIOS?PROG
            CODE    558BH     0142H     UNIT         ?PR?_ARMAR_TRAMA_TARJETA_SECTOR1_BLOQUE2?VERIFICADOR
            CODE    56CDH     013EH     UNIT         ?PR?PROG_SIN_COBRO?PROG
            CODE    580BH     013EH     UNIT         ?PR?SECUENCIA_INICIO_EXPEDIDOR?VERIFICADOR
            CODE    5949H     012BH     UNIT         ?PR?_RESPONDE_LECTURA_TARJETA_SECTOR1_BLOQUE2?VERIFICADOR
            CODE    5A74H     0129H     UNIT         ?PR?LOG?LOG
            CODE    5B9DH     011CH     UNIT         ?PR?LOAD_AND_SEND_ID_COD?PTO_PARALELO
            CODE    5CB9H     011AH     UNIT         ?PR?_PROG_HORARIOS_ON_OFF?PROG
            CODE    5DD3H     0115H     UNIT         ?PR?_VALIDAR_CLK?CLOCK
            CODE    5EE8H     010FH     UNIT         ?PR?_HORARIOS?VERIFICADOR
            CODE    5FF7H     010CH     UNIT         ?PR?_ATOL?ATOL
            CODE    6103H     0103H     UNIT         ?PR?_BLOQUE_HORARIO?VERIFICADOR
            CODE    6206H     0100H     UNIT         ?PR?_WR_MF?LINTECH
            CODE    6306H     00FCH     UNIT         ?PR?PROG_DEBUG?PROG
            CODE    6402H     00FCH     UNIT         ?PR?PROG_USE_LPR?PROG
            CODE    64FEH     00FCH     UNIT         ?PR?TIPO_PANTALLA?PROG
            CODE    65FAH     00FCH     UNIT         ?PR?PROG_ANTIPASSBACK?PROG
            CODE    66F6H     00FCH     UNIT         ?PR?PROG_PLACA?PROG
            CODE    67F2H     00FCH     UNIT         ?PR?PROG_VALIDAR_TIPO_VEHICULO_MENSUAL?PROG
            CODE    68EEH     00FCH     UNIT         ?PR?PROG_APB_MENSUAL?PROG
            CODE    69EAH     00EAH     UNIT         ?PR?_MOV_CARD?LINTECH
            CODE    6AD4H     00E6H     UNIT         ?PR?_WRITE_EEPROM_TICKET?EEPROM
            CODE    6BBAH     00E4H     UNIT         ?PR?_STRTOK?STRTOK
            CODE    6C9EH     00DEH     UNIT         ?PR?PROG_ADDRESS_HIGH_BOARD?PROG
            CODE    6D7CH     00DBH     UNIT         ?PR?_ATOI?ATOI
            CODE    6E57H     00D7H     UNIT         ?PR?_ANALIZA_UID_CARD?VERIFICADOR
            CODE    6F2EH     00D6H     UNIT         ?PR?_CMD_LPR_SALIDA_WIEGAND?ACCESCAN
            CODE    7004H     00D6H     UNIT         ?PR?_ARMAR_TRAMA_PTO_PARALELO_EXPEDIDOR_MENSUAL?VERIFICADOR
            CODE    70DAH     00CBH     UNIT         ?PR?_RTA_CMD_TRANSPORTE?VERIFICADOR
            CODE    71A5H     00CAH     UNIT         ?PR?READ_EEPROM_TICKET?EEPROM
BL51 BANKED LINKER/LOCATER V6.22.2.0                                                  07/21/2020  12:52:08  PAGE 4


            CODE    726FH     00C9H     UNIT         ?PR?_CHECK_FECHAOUT?CLOCK
            CODE    7338H     00C4H     UNIT         ?PR?_BLOCK_READ_CLOCK?CLOCK
            CODE    73FCH     00C4H     UNIT         ?PR?_TARJETA_MENSUAL?VERIFICADOR
            CODE    74C0H     00C3H     UNIT         ?PR?_RD_MF?LINTECH
            CODE    7583H     00C2H     UNIT         ?PR?PROG_TARJETA_AUTOMATICA_O_BOTON?PROG
            CODE    7645H     00C1H     UNIT         ?PR?_RECIBE_CMD_MONITOR?MONITOR
            CODE    7706H     00BEH     UNIT         ?PR?ERROR_RX_PTO?VERIFICADOR
            CODE    77C4H     00BDH     UNIT         ?C_INITSEG
            CODE    7881H     00BDH     UNIT         ?PR?PROG_COD_PARK?PROG
            CODE    793EH     00BDH     UNIT         ?PR?PROG_TIEMPO_GRACIA?PROG
            CODE    79FBH     00BCH     UNIT         ?PR?_GRABA_SERIE?EEPROM
            CODE    7AB7H     00BAH     UNIT         ?CO?TIBBO
            CODE    7B71H     00B6H     UNIT         ?PR?PROG_ID_CLIENTE?PROG
            CODE    7C27H     00B4H     UNIT         ?PR?_SEND_PORT?PTO_PARALELO
            CODE    7CDBH     00ADH     UNIT         ?CO?IO_SENSORES
            CODE    7D88H     00ACH     UNIT         ?PR?_HORA_MAXIMA?VERIFICADOR
            CODE    7E34H     00AAH     UNIT         ?PR?CLAVE_SEGURIDAD_S2?LINTECH
            CODE    7EDEH     00A9H     UNIT         ?PR?DWLOAD_EEPROM?LINTECH
            CODE    7F87H     00A6H     UNIT         ?PR?_BLOCK_READ_CLOCK_HEX?CLOCK
            CODE    802DH     00A3H     UNIT         ?PR?_WAIT_PLACA?VERIFICADOR
            CODE    80D0H     00A1H     UNIT         ?PR?_VALIDA_TRAMA_MONITOR?MONITOR
            CODE    8171H     009DH     UNIT         ?PR?_INICIALIZA?LINTECH
            CODE    820EH     009AH     UNIT         ?PR?EXP?EXP
            CODE    82A8H     0099H     UNIT         ?PR?_RECIBE_PORT?PTO_PARALELO
            CODE    8341H     0098H     UNIT         ?PR?_VALIDA_VEHICULO_CARD_MENSUAL?VERIFICADOR
            CODE    83D9H     0091H     UNIT         ?PR?_HEX_ASCII?CLOCK
            CODE    846AH     0091H     UNIT         ?PR?_CARD_INSERCION?LINTECH
            CODE    84FBH     0091H     UNIT         ?PR?LOADVERIFY_EEPROM?LINTECH
            CODE    858CH     0090H     UNIT         ?PR?_LEE_CLK?CLOCK
            CODE    861CH     0090H     UNIT         ?PR?_GETOPTION?PROG
            CODE    86ACH     0090H     UNIT         ?PR?SHOW?PROG
            CODE    873CH     008FH     UNIT         ?PR?_BLOCK_WRITE_CLOCK_ASCII?CLOCK
            CODE    87CBH     008CH     UNIT         ?C_C51STARTUP
            CODE    8857H     0088H     UNIT         ?PR?_SEND_PORTERR?PTO_PARALELO
            CODE    88DFH     0088H     UNIT         ?PR?RX_DATA?TIBBO
            CODE    8967H     0088H     UNIT         ?PR?UNIQUE_IDENTIFIER_UID?LINTECH
            CODE    89EFH     0088H     UNIT         ?PR?_SEND_PTO_PARALELO?VERIFICADOR
            CODE    8A77H     0084H     UNIT         ?PR?_STRSPN?STRSPN
            CODE    8AFBH     0081H     UNIT         ?PR?MAIN?MAIN
            CODE    8B7CH     0081H     UNIT         ?PR?_STRPBRK?STRPBRK
            CODE    8BFDH     0080H     UNIT         ?PR?MSJ_LCD_INFORMATIVO?IO_SENSORES
            CODE    8C7DH     0080H     UNIT         ?PR?_INGRESADATO?PROG
            CODE    8CFDH     0080H     UNIT         ?PR?AUT_CARD_CHECK_STATUS?LINTECH
            CODE    8D7DH     0080H     UNIT         ?PR?POWER_OFF?LINTECH
            CODE    8DFDH     007CH     UNIT         ?PR?_CHECK_STATUS?LINTECH
            CODE    8E79H     007CH     UNIT         ?PR?RESPONDE_ESTADO_SENSORES_TRANSPORTE?VERIFICADOR
            CODE    8EF5H     007AH     UNIT         ?PR?_RESPONDE_WRITE_TARJETA_SECTOR1_BLOQUE2?VERIFICADOR
            CODE    8F6FH     0079H     UNIT         ?PR?ENTREGA_CARD_CAPTURA?VERIFICADOR
            CODE    8FE8H     0076H     UNIT         ?PR?_ESCRIBIRMEMORIA?EEPROM
            CODE    905EH     0073H     UNIT         ?PR?_DEBUGBUFFERMF?TIBBO
            CODE    90D1H     0071H     UNIT         ?PR?RESPONDE_TIPO_TARJETA?VERIFICADOR
            CODE    9142H     0071H     UNIT         ?PR?_EN_HORARIO?VERIFICADOR
            CODE    91B3H     006BH     UNIT         ?PR?_STRCAT?STRCAT
            CODE    921EH     0066H     UNIT         ?PR?_LEERMEMORIA?EEPROM
            CODE    9284H     0062H     UNIT         ?PR?_LISTACOMANDOS?PROG
            CODE    92E6H     0061H     UNIT         ?PR?_PREGUNTA_LPR?VERIFICADOR
            CODE    9347H     005EH     UNIT         ?PR?_BYTEHEX_DECIMAL?CLOCK
BL51 BANKED LINKER/LOCATER V6.22.2.0                                                  07/21/2020  12:52:08  PAGE 5


            CODE    93A5H     005EH     UNIT         ?PR?_ARMAR_TRAMA_PLACA?VERIFICADOR
            CODE    9403H     005DH     UNIT         ?PR?_RESPUESTA_SEGUNDA_CLAVE?VERIFICADOR
            CODE    9460H     005BH     UNIT         ?PR?_RASPBERRY_DATA?PANTALLAS
            CODE    94BBH     0059H     UNIT         ?PR?INGRESO_VEHICULO?VERIFICADOR
            CODE    9514H     0058H     UNIT         ?PR?VALIDA_SENSOR1_AUTO?IO_SENSORES
            CODE    956CH     0057H     UNIT         ?PR?RELOJ_PANTALLA_LCD?PANTALLAS
            CODE    95C3H     0050H     UNIT         ?PR?DISPARO_LOCK_ENTRADA_VEHICULO?VERIFICADOR
            CODE    9613H     004DH     UNIT         ?PR?VARIABLE_INICIO?MAIN
            CODE    9660H     004DH     UNIT         ?PR?L_D_M?EEPROM
            CODE    96ADH     004BH     UNIT         ?PR?_TX_AUX?TIBBO
            CODE    96F8H     0049H     UNIT         ?PR?_DEBUG_TXT_TIBBO?TIBBO
            CODE    9741H     0048H     UNIT         ?PR?FIRST_CLAVE?PROG
            CODE    9789H     0047H     UNIT         ?PR?_DEBUG_CHR_TIBBO?TIBBO
            CODE    97D0H     0047H     UNIT         ?PR?_RESPONDE_WRITE_TARJETA_SECTOR2_BLOQUE0?VERIFICADOR
            CODE    9817H     0046H     UNIT         ?PR?_ESCRIBIRCADENASOFT_BUFFER?MAIN
            CODE    985DH     0046H     UNIT         ?PR?_WR_EEPROM?EEPROM
            CODE    98A3H     0046H     UNIT         ?PR?_LCD_TXT_NUM_CHAR?PANTALLAS
            CODE    98E9H     0046H     UNIT         ?PR?_DEBUG_HEXDEC?TIBBO
            CODE    992FH     0044H     UNIT         ?PR?_LCD_TXT?PANTALLAS
            CODE    9973H     0043H     UNIT         ?PR?DIR_BOARD?IO_SENSORES
            CODE    99B6H     0042H     UNIT         ?PR?_VALIDARCLAVE?PROG
            CODE    99F8H     0041H     UNIT         ?PR?_MONITOR_CHR?ACCESCAN
            CODE    9A39H     0041H     UNIT         ?PR?_TWO_ONE?CLOCK
            CODE    9A7AH     0040H     UNIT         ?PR?_GETCMD?PROG
            CODE    9ABAH     003FH     UNIT         ?PR?_EB_CLK?CLOCK
            CODE    9AF9H     003EH     UNIT         ?PR?_PUTCHAR?MAIN
            CODE    9B37H     003DH     UNIT         ?PR?_HEX_BCD?CLOCK
            CODE    9B74H     003DH     UNIT         ?PR?_RD_EEPROM?EEPROM
            CODE    9BB1H     003DH     UNIT         ?PR?_LOAD_SECUENCIA_EXPEDIDOR?VERIFICADOR
            CODE    9BEEH     003BH     UNIT         ?CO?EEPROM
            CODE    9C29H     003BH     UNIT         ?PR?_DEBUG_PTO_PARALELO?TIBBO
            CODE    9C64H     003BH     UNIT         ?PR?_COM_PUTCHAR?UART
            CODE    9C9FH     003AH     UNIT         ?PR?_DELAY_10MS?DELAY
            CODE    9CD9H     0038H     UNIT         ?PR?VALIDASENSORESPASO?IO_SENSORES
            CODE    9D11H     0037H     UNIT         ?PR?LEE_NO_TICKET?EEPROM
            CODE    9D48H     0036H     UNIT         ?PR?_RESPONDE_WRITE_TARJETA_SECTOR1_BLOQUE0?VERIFICADOR
            CODE    9D7EH     0034H     UNIT         ?PR?INCREMENTE_TICKET?EEPROM
            CODE    9DB2H     0034H     UNIT         ?PR?ADDR_HORARIOS?PROG
            CODE    9DE6H     0033H     UNIT         ?PR?TRAMA_VALIDACION_P_N?VERIFICADOR
            CODE    9E19H     0032H     UNIT         ?PR?_DEBUG_MONITOR?TIBBO
            CODE    9E4BH     0031H     UNIT         ?PR?_TARJETA_ROTACION?VERIFICADOR
            CODE    9E7CH     002EH     UNIT         ?PR?TIMER0_INT?MAIN
            CODE    9EAAH     002CH     UNIT         ?PR?LOAD_AND_SEND_INFO_RELOJ?PTO_PARALELO
            CODE    9ED6H     002AH     UNIT         ?PR?COM_INITIALIZE?UART
            CODE    9F00H     0028H     UNIT         ?PR?_WR_CLK?CLOCK
            CODE    9F28H     0028H     UNIT         ?PR?COM_BAUDRATE?UART
            CODE    9F50H     0028H     UNIT         ?PR?_ARMAR_TRAMA_TARJETA_SECTOR1_BLOQUE0?VERIFICADOR
            CODE    9F78H     0027H     UNIT         ?PR?_TX_CHRLCD?PANTALLAS
            CODE    9F9FH     0026H     UNIT         ?PR?COM_GETCHAR?UART
            CODE    9FC5H     0026H     UNIT         ?PR?ANALIZA_PRESENCIA_MENSUAL?VERIFICADOR
            CODE    9FEBH     0026H     UNIT         ?PR?RX_MONITOR?MONITOR
            CODE    A011H     0023H     UNIT         ?PR?ANALIZA_PRESENCIA_ROTACION?VERIFICADOR
            CODE    A034H     0022H     UNIT         ?PR?_E_D_M?EEPROM
            CODE    A056H     0020H     UNIT         ?PR?ACKD?EEPROM
            CODE    A076H     0020H     UNIT         ?PR?ACK_LECT?EEPROM
            CODE    A096H     001FH     UNIT         ?PR?VALIDASENSOR?IO_SENSORES
            CODE    A0B5H     001FH     UNIT         ?PR?TIME_BIT?TIBBO
BL51 BANKED LINKER/LOCATER V6.22.2.0                                                  07/21/2020  12:52:08  PAGE 6


            CODE    A0D4H     001FH     UNIT         ?PR?CLEAR_PLACA?MONITOR
            CODE    A0F3H     001EH     UNIT         ?PR?_BCD_HEX?CLOCK
            CODE    A111H     001BH     UNIT         ?PR?_DELAY_1MS?DELAY
            CODE    A12CH     0017H     UNIT         ?PR?DISPLAYCURSOR?PROG
            CODE    A143H     0017H     UNIT         ?PR?TIME_MBIT?TIBBO
            CODE    A15AH     0014H     UNIT         ?PR?DEBUG_DIVIDIR_TEXTO?TIBBO
            CODE    A16EH     0014H     UNIT         ?PR?_ISSPACE?ISSPACE
            CODE    A182H     0012H     UNIT         ?PR?_DELAY_20US?DELAY
            CODE    A194H     0012H     UNIT         ?PR?START?EEPROM
            CODE    A1A6H     0012H     UNIT         ?PR?PULSO_BUS?PTO_PARALELO
            CODE    A1B8H     0012H     UNIT         ?PR?COM_RBUFLEN?UART
            CODE    A1CAH     0012H     UNIT         ?PR?COM_TBUFLEN?UART
            CODE    A1DCH     0010H     UNIT         ?PR?INI_TIMER?MAIN
            CODE    A1ECH     0010H     UNIT         ?PR?INICIA_BOARD?MAIN
            CODE    A1FCH     000FH     UNIT         ?PR?_ISDIGIT?ISDIGIT
            CODE    A20BH     000CH     UNIT         ?PR?_GETKEY?MAIN
            CODE    A217H     000AH     UNIT         ?PR?COND_INI_PTO?PTO_PARALELO
            CODE    A221H     0009H     UNIT         ?PR?STOP?EEPROM
            CODE    A22AH     0009H     UNIT         ?PR?CAPTURA_EXPULSA?VERIFICADOR
            CODE    A233H     0007H     UNIT         ?PR?COND_INI_CLOCK?CLOCK
            CODE    A23AH     0007H     UNIT         ?PR?SEL_FUNCION?IO_SENSORES
            CODE    A241H     0007H     UNIT         ?PR?SEL_AUTO?IO_SENSORES
            CODE    A248H     0007H     UNIT         ?PR?SEL_PULSA?IO_SENSORES
            CODE    A24FH     0007H     UNIT         ?PR?SEL_SENSOR2?IO_SENSORES
            CODE    A256H     0007H     UNIT         ?PR?SEL_SENSOR1?IO_SENSORES
            CODE    A25DH     0007H     UNIT         ?PR?SEL_DIR1?IO_SENSORES
            CODE    A264H     0007H     UNIT         ?PR?SEL_DIR2?IO_SENSORES
            CODE    A26BH     0006H     UNIT         ?PR?P_ME?EEPROM
            CODE    A271H     0005H     UNIT         ?PR?ON_TIMER0_INTERRUP?MAIN
            CODE    A276H     0005H     UNIT         ?CO?ACCESCAN
            CODE    A27BH     0005H     UNIT         ?PR?COND_INI_TIBBO?TIBBO
            CODE    A280H     0003H     UNIT         ?PR?OFF_TIMER0_INTERRUP?MAIN
            CODE    A283H     0003H     UNIT         ?CO?PTO_PARALELO
            CODE    A286H     0001H     UNIT         ?PR?DELAY?DELAY



OVERLAY MAP OF MODULE:   .\Objects\expedidor_v_01_raspberry (MAIN)


SEGMENT                                             BIT_GROUP          DATA_GROUP          XDATA_GROUP
  +--> CALLED SEGMENT                            START    LENGTH     START    LENGTH     START    LENGTH
--------------------------------------------------------------------------------------------------------
?C_C51STARTUP                                    -----    -----      -----    -----      -----    -----
  +--> ?PR?MAIN?MAIN
  +--> ?C_INITSEG

?PR?MAIN?MAIN                                    -----    -----      -----    -----      0000H    0002H
  +--> ?PR?INI_TIMER?MAIN
  +--> ?PR?ON_TIMER0_INTERRUP?MAIN
  +--> ?PR?COM_INITIALIZE?UART
  +--> ?PR?COM_BAUDRATE?UART
  +--> ?PR?INICIA_BOARD?MAIN
  +--> ?PR?TIME_BIT?TIBBO
  +--> ?PR?_DELAY_20US?DELAY
  +--> ?PR?TIME_MBIT?TIBBO
  +--> ?PR?_TX_AUX?TIBBO
BL51 BANKED LINKER/LOCATER V6.22.2.0                                                  07/21/2020  12:52:08  PAGE 7


  +--> ?PR?SEL_FUNCION?IO_SENSORES
  +--> ?PR?MENU?PROG
  +--> ?PR?VARIABLE_INICIO?MAIN
  +--> ?PR?SECUENCIA_INICIO_EXPEDIDOR?VERIFI...
  +--> ?PR?RX_MONITOR?MONITOR
  +--> ?PR?_SECUENCIAEXPEDIDORMF?VERIFICADOR
  +--> ?PR?_RECIBE_PORT?PTO_PARALELO
  +--> ?PR?_DEBUG_PTO_PARALELO?TIBBO
  +--> ?PR?_VALIDA_TRAMA_PTO?ACCESCAN
  +--> ?PR?MSJ_LCD_INFORMATIVO?IO_SENSORES

?PR?COM_INITIALIZE?UART                          -----    -----      -----    -----      -----    -----
  +--> ?PR?COM_BAUDRATE?UART

?PR?INICIA_BOARD?MAIN                            -----    -----      -----    -----      -----    -----
  +--> ?PR?COND_INI_TIBBO?TIBBO
  +--> ?PR?COND_INI_CLOCK?CLOCK
  +--> ?PR?COND_INI_PTO?PTO_PARALELO

?PR?_TX_AUX?TIBBO                                -----    -----      -----    -----      -----    -----
  +--> ?PR?TIME_BIT?TIBBO

?PR?MENU?PROG                                    -----    -----      -----    -----      0002H    0045H
  +--> ?CO?PROG
  +--> ?PR?PRINTF?PRINTF
  +--> ?PR?_RD_EEPROM?EEPROM
  +--> ?PR?FIRST_CLAVE?PROG
  +--> ?PR?_WR_EEPROM?EEPROM
  +--> ?PR?_LEERMEMORIA?EEPROM
  +--> ?PR?_HASH_ID?PROG
  +--> ?PR?_INGRESADATO?PROG
  +--> ?PR?_GETCMD?PROG
  +--> ?PR?_ESCRIBIRMEMORIA?EEPROM
  +--> ?PR?_VALIDARCLAVE?PROG
  +--> ?PR?DISPLAYCURSOR?PROG
  +--> ?PR?_STRLEN?STRLEN
  +--> ?PR?_GETOPTION?PROG
  +--> ?PR?_STRCAT?STRCAT
  +--> ?PR?_LISTACOMANDOS?PROG
  +--> ?PR?PROG_ID_CLIENTE?PROG
  +--> ?PR?PROG_COD_PARK?PROG
  +--> ?PR?PROG_TIEMPO_GRACIA?PROG
  +--> ?PR?PROG_SIN_COBRO?PROG
  +--> ?PR?PROG_DEBUG?PROG
  +--> ?PR?PROG_USE_LPR?PROG
  +--> ?PR?TIPO_PANTALLA?PROG
  +--> ?PR?PROG_TARJETA_AUTOMATICA_O_BOTON?PROG
  +--> ?PR?PROG_ANTIPASSBACK?PROG
  +--> ?PR?PROG_PLACA?PROG
  +--> ?PR?PROG_ADDRESS_HIGH_BOARD?PROG
  +--> ?PR?PROG_HORARIOS?PROG
  +--> ?PR?PROG_VALIDAR_TIPO_VEHICULO_MENSUA...
  +--> ?PR?PROG_APB_MENSUAL?PROG
  +--> ?PR?SHOW?PROG
  +--> ?PR?PROG_FECHA_VENCIMIENTO?PROG

?PR?PRINTF?PRINTF                                0020H.0  0001H.1    0008H    0005H      0076H    0030H
BL51 BANKED LINKER/LOCATER V6.22.2.0                                                  07/21/2020  12:52:08  PAGE 8


  +--> ?PR?_PUTCHAR?MAIN

?PR?_PUTCHAR?MAIN                                -----    -----      -----    -----      00A6H    0003H
  +--> ?PR?_COM_PUTCHAR?UART

?PR?_COM_PUTCHAR?UART                            -----    -----      -----    -----      00A9H    0001H
  +--> ?PR?COM_TBUFLEN?UART

?PR?_RD_EEPROM?EEPROM                            -----    -----      -----    -----      -----    -----
  +--> ?PR?START?EEPROM
  +--> ?PR?ACK_LECT?EEPROM
  +--> ?PR?_E_D_M?EEPROM
  +--> ?PR?ACKD?EEPROM
  +--> ?PR?L_D_M?EEPROM
  +--> ?PR?STOP?EEPROM

?PR?ACK_LECT?EEPROM                              -----    -----      -----    -----      -----    -----
  +--> ?PR?_E_D_M?EEPROM

?PR?_E_D_M?EEPROM                                -----    -----      -----    -----      -----    -----
  +--> ?PR?P_ME?EEPROM

?PR?ACKD?EEPROM                                  -----    -----      -----    -----      -----    -----
  +--> ?PR?_E_D_M?EEPROM

?PR?FIRST_CLAVE?PROG                             -----    -----      -----    -----      0047H    000BH
  +--> ?PR?_BLOCK_READ_CLOCK_ASCII?CLOCK
  +--> ?PR?_HASH_ID?PROG
  +--> ?PR?_ESCRIBIRMEMORIA?EEPROM

?PR?_BLOCK_READ_CLOCK_ASCII?CLOCK                -----    -----      -----    -----      0052H    0003H
  +--> ?PR?_LEE_CLK?CLOCK

?PR?_LEE_CLK?CLOCK                               -----    -----      -----    -----      00B2H    0003H
  +--> ?PR?_DELAY_20US?DELAY
  +--> ?PR?_EB_CLK?CLOCK
  +--> ?PR?P_CK?CLOCK

?PR?_EB_CLK?CLOCK                                -----    -----      -----    -----      00B5H    0003H
  +--> ?PR?P_CK?CLOCK

?PR?P_CK?CLOCK                                   -----    -----      -----    -----      -----    -----
  +--> ?PR?DELAY?DELAY

?PR?_HASH_ID?PROG                                -----    -----      -----    -----      005EH    003FH
  +--> ?CO?PROG
  +--> ?PR?_LEERMEMORIA?EEPROM
  +--> ?PR?_CHECK_FECHAOUT?CLOCK
  +--> ?PR?_STRLEN?STRLEN

?PR?_LEERMEMORIA?EEPROM                          -----    -----      -----    -----      009DH    0005H
  +--> ?PR?_RD_EEPROM?EEPROM

?PR?_CHECK_FECHAOUT?CLOCK                        -----    -----      -----    -----      009DH    0012H
  +--> ?PR?_BLOCK_READ_CLOCK_HEX?CLOCK

?PR?_BLOCK_READ_CLOCK_HEX?CLOCK                  -----    -----      -----    -----      00AFH    0003H
BL51 BANKED LINKER/LOCATER V6.22.2.0                                                  07/21/2020  12:52:08  PAGE 9


  +--> ?PR?_LEE_CLK?CLOCK
  +--> ?PR?_BCD_HEX?CLOCK

?PR?_ESCRIBIRMEMORIA?EEPROM                      -----    -----      -----    -----      005EH    0005H
  +--> ?PR?_WR_EEPROM?EEPROM

?PR?_WR_EEPROM?EEPROM                            -----    -----      -----    -----      -----    -----
  +--> ?PR?START?EEPROM
  +--> ?PR?ACKD?EEPROM
  +--> ?PR?_E_D_M?EEPROM
  +--> ?PR?STOP?EEPROM
  +--> ?PR?_DELAY_1MS?DELAY
  +--> ?PR?_DELAY_20US?DELAY

?PR?_DELAY_1MS?DELAY                             -----    -----      -----    -----      -----    -----
  +--> ?PR?_DELAY_20US?DELAY

?PR?_INGRESADATO?PROG                            -----    -----      -----    -----      0072H    0004H
  +--> ?PR?_GETKEY?MAIN
  +--> ?CO?PROG
  +--> ?PR?PRINTF?PRINTF
  +--> ?PR?_PUTCHAR?MAIN

?PR?_GETKEY?MAIN                                 -----    -----      -----    -----      -----    -----
  +--> ?PR?COM_GETCHAR?UART

?PR?COM_GETCHAR?UART                             -----    -----      -----    -----      -----    -----
  +--> ?PR?COM_RBUFLEN?UART

?PR?_GETCMD?PROG                                 -----    -----      -----    -----      005EH    0007H
  +--> ?CO?PROG
  +--> ?PR?_STRTOK?STRTOK

?PR?_STRTOK?STRTOK                               -----    -----      -----    -----      0065H    0006H
  +--> ?PR?_STRSPN?STRSPN
  +--> ?PR?_STRPBRK?STRPBRK

?PR?_STRSPN?STRSPN                               -----    -----      -----    -----      006BH    0008H

?PR?_STRPBRK?STRPBRK                             -----    -----      -----    -----      006BH    0009H

?PR?_VALIDARCLAVE?PROG                           -----    -----      -----    -----      005EH    000EH

?PR?DISPLAYCURSOR?PROG                           -----    -----      -----    -----      -----    -----
  +--> ?CO?PROG
  +--> ?PR?PRINTF?PRINTF

?PR?_GETOPTION?PROG                              -----    -----      -----    -----      0047H    000BH
  +--> ?CO?PROG
  +--> ?PR?_STRTOK?STRTOK

?PR?_STRCAT?STRCAT                               -----    -----      -----    -----      0047H    0009H

?PR?_LISTACOMANDOS?PROG                          -----    -----      -----    -----      0047H    0007H

?PR?PROG_ID_CLIENTE?PROG                         -----    -----      -----    -----      0047H    000CH
  +--> ?PR?_RD_EEPROM?EEPROM
BL51 BANKED LINKER/LOCATER V6.22.2.0                                                  07/21/2020  12:52:08  PAGE 10


  +--> ?CO?PROG
  +--> ?PR?PRINTF?PRINTF
  +--> ?PR?_INGRESADATO?PROG
  +--> ?PR?_ATOI?ATOI
  +--> ?PR?_WR_EEPROM?EEPROM

?PR?_ATOI?ATOI                                   0020H.0  0000H.1    -----    -----      0072H    0005H
  +--> ?PR?_ISSPACE?ISSPACE
  +--> ?PR?_ISDIGIT?ISDIGIT

?PR?PROG_COD_PARK?PROG                           -----    -----      -----    -----      0047H    000CH
  +--> ?PR?_RD_EEPROM?EEPROM
  +--> ?CO?PROG
  +--> ?PR?PRINTF?PRINTF
  +--> ?PR?_INGRESADATO?PROG
  +--> ?PR?_ATOI?ATOI
  +--> ?PR?_WR_EEPROM?EEPROM

?PR?PROG_TIEMPO_GRACIA?PROG                      -----    -----      -----    -----      0047H    000CH
  +--> ?PR?_RD_EEPROM?EEPROM
  +--> ?CO?PROG
  +--> ?PR?PRINTF?PRINTF
  +--> ?PR?_INGRESADATO?PROG
  +--> ?PR?_ATOI?ATOI
  +--> ?PR?_WR_EEPROM?EEPROM

?PR?PROG_SIN_COBRO?PROG                          -----    -----      -----    -----      0047H    000CH
  +--> ?PR?_RD_EEPROM?EEPROM
  +--> ?CO?PROG
  +--> ?PR?PRINTF?PRINTF
  +--> ?PR?_INGRESADATO?PROG
  +--> ?PR?_ATOI?ATOI
  +--> ?PR?_WR_EEPROM?EEPROM

?PR?PROG_DEBUG?PROG                              -----    -----      -----    -----      0047H    000CH
  +--> ?PR?_RD_EEPROM?EEPROM
  +--> ?CO?PROG
  +--> ?PR?PRINTF?PRINTF
  +--> ?PR?_INGRESADATO?PROG
  +--> ?PR?_ATOI?ATOI
  +--> ?PR?_WR_EEPROM?EEPROM

?PR?PROG_USE_LPR?PROG                            -----    -----      -----    -----      0047H    000CH
  +--> ?PR?_RD_EEPROM?EEPROM
  +--> ?CO?PROG
  +--> ?PR?PRINTF?PRINTF
  +--> ?PR?_INGRESADATO?PROG
  +--> ?PR?_ATOI?ATOI
  +--> ?PR?_WR_EEPROM?EEPROM

?PR?TIPO_PANTALLA?PROG                           -----    -----      -----    -----      0047H    000CH
  +--> ?PR?_RD_EEPROM?EEPROM
  +--> ?CO?PROG
  +--> ?PR?PRINTF?PRINTF
  +--> ?PR?_INGRESADATO?PROG
  +--> ?PR?_ATOI?ATOI
  +--> ?PR?_WR_EEPROM?EEPROM
BL51 BANKED LINKER/LOCATER V6.22.2.0                                                  07/21/2020  12:52:08  PAGE 11



?PR?PROG_TARJETA_AUTOMATICA_O_BOTON?PROG         -----    -----      -----    -----      0047H    000CH
  +--> ?PR?_RD_EEPROM?EEPROM
  +--> ?CO?PROG
  +--> ?PR?PRINTF?PRINTF
  +--> ?PR?_INGRESADATO?PROG
  +--> ?PR?_ATOI?ATOI
  +--> ?PR?_WR_EEPROM?EEPROM

?PR?PROG_ANTIPASSBACK?PROG                       -----    -----      -----    -----      0047H    000CH
  +--> ?PR?_RD_EEPROM?EEPROM
  +--> ?CO?PROG
  +--> ?PR?PRINTF?PRINTF
  +--> ?PR?_INGRESADATO?PROG
  +--> ?PR?_ATOI?ATOI
  +--> ?PR?_WR_EEPROM?EEPROM

?PR?PROG_PLACA?PROG                              -----    -----      -----    -----      0047H    000CH
  +--> ?PR?_RD_EEPROM?EEPROM
  +--> ?CO?PROG
  +--> ?PR?PRINTF?PRINTF
  +--> ?PR?_INGRESADATO?PROG
  +--> ?PR?_ATOI?ATOI
  +--> ?PR?_WR_EEPROM?EEPROM

?PR?PROG_ADDRESS_HIGH_BOARD?PROG                 -----    -----      -----    -----      0047H    000CH
  +--> ?PR?_RD_EEPROM?EEPROM
  +--> ?CO?PROG
  +--> ?PR?PRINTF?PRINTF
  +--> ?PR?_INGRESADATO?PROG
  +--> ?PR?_ATOI?ATOI
  +--> ?PR?_WR_EEPROM?EEPROM

?PR?PROG_HORARIOS?PROG                           -----    -----      -----    -----      0047H    001BH
  +--> ?PR?ADDR_HORARIOS?PROG
  +--> ?CO?PROG
  +--> ?PR?PRINTF?PRINTF
  +--> ?PR?_INGRESADATO?PROG
  +--> ?PR?_ATOI?ATOI
  +--> ?PR?_PROG_HORARIOS_ON_OFF?PROG
  +--> ?PR?_WR_EEPROM?EEPROM
  +--> ?PR?_PROG_HORARIO_DIAS?PROG
  +--> ?PR?_PROG_HORARIO_DESDE_HASTA?PROG
  +--> ?PR?_RD_EEPROM?EEPROM

?PR?ADDR_HORARIOS?PROG                           -----    -----      -----    -----      0062H    000BH

?PR?_PROG_HORARIOS_ON_OFF?PROG                   -----    -----      -----    -----      0062H    0010H
  +--> ?PR?_RD_EEPROM?EEPROM
  +--> ?CO?PROG
  +--> ?PR?PRINTF?PRINTF
  +--> ?PR?_INGRESADATO?PROG
  +--> ?PR?_ATOI?ATOI
  +--> ?PR?_WR_EEPROM?EEPROM

?PR?_PROG_HORARIO_DIAS?PROG                      -----    -----      -----    -----      0062H    000FH
  +--> ?CO?PROG
BL51 BANKED LINKER/LOCATER V6.22.2.0                                                  07/21/2020  12:52:08  PAGE 12


  +--> ?PR?PRINTF?PRINTF
  +--> ?PR?_INGRESADATO?PROG
  +--> ?PR?_WR_EEPROM?EEPROM
  +--> ?PR?_RD_EEPROM?EEPROM

?PR?_PROG_HORARIO_DESDE_HASTA?PROG               -----    -----      -----    -----      0062H    000CH
  +--> ?CO?PROG
  +--> ?PR?PRINTF?PRINTF
  +--> ?PR?_INGRESADATO?PROG
  +--> ?PR?_WR_EEPROM?EEPROM
  +--> ?PR?_RD_EEPROM?EEPROM

?PR?PROG_VALIDAR_TIPO_VEHICULO_MENSUA...         -----    -----      -----    -----      0047H    000CH
  +--> ?PR?_RD_EEPROM?EEPROM
  +--> ?CO?PROG
  +--> ?PR?PRINTF?PRINTF
  +--> ?PR?_INGRESADATO?PROG
  +--> ?PR?_ATOI?ATOI
  +--> ?PR?_WR_EEPROM?EEPROM

?PR?PROG_APB_MENSUAL?PROG                        -----    -----      -----    -----      0047H    000CH
  +--> ?PR?_RD_EEPROM?EEPROM
  +--> ?CO?PROG
  +--> ?PR?PRINTF?PRINTF
  +--> ?PR?_INGRESADATO?PROG
  +--> ?PR?_ATOI?ATOI
  +--> ?PR?_WR_EEPROM?EEPROM

?PR?SHOW?PROG                                    -----    -----      -----    -----      -----    -----
  +--> ?CO?PROG
  +--> ?PR?PRINTF?PRINTF

?PR?PROG_FECHA_VENCIMIENTO?PROG                  -----    -----      -----    -----      0047H    0017H
  +--> ?PR?_LEERMEMORIA?EEPROM
  +--> ?PR?_HEX_ASCII?CLOCK
  +--> ?CO?PROG
  +--> ?PR?PRINTF?PRINTF
  +--> ?PR?_HASH_ID?PROG
  +--> ?PR?_INGRESADATO?PROG
  +--> ?PR?_GETCMD?PROG
  +--> ?PR?_ESCRIBIRMEMORIA?EEPROM
  +--> ?PR?_VALIDARCLAVE?PROG
  +--> ?PR?_ATOI?ATOI
  +--> ?PR?_WR_EEPROM?EEPROM

?PR?_HEX_ASCII?CLOCK                             -----    -----      -----    -----      005EH    0006H
  +--> ?PR?_HEX_BCD?CLOCK

?PR?VARIABLE_INICIO?MAIN                         -----    -----      -----    -----      -----    -----
  +--> ?PR?_RD_EEPROM?EEPROM

?PR?SECUENCIA_INICIO_EXPEDIDOR?VERIFI...         -----    -----      -----    -----      0002H    0001H
  +--> ?PR?_INICIALIZA?LINTECH
  +--> ?PR?TRAMA_VALIDACION_P_N?VERIFICADOR
  +--> ?CO?VERIFICADOR
  +--> ?PR?_DEBUG_TXT_TIBBO?TIBBO
  +--> ?PR?_DEBUGBUFFERMF?TIBBO
BL51 BANKED LINKER/LOCATER V6.22.2.0                                                  07/21/2020  12:52:08  PAGE 13


  +--> ?PR?DWLOAD_EEPROM?LINTECH

?PR?_INICIALIZA?LINTECH                          -----    -----      -----    -----      0003H    000CH
  +--> ?CO?LINTECH
  +--> ?PR?_DEBUG_TXT_TIBBO?TIBBO
  +--> ?PR?_DEBUGBUFFERMF?TIBBO
  +--> ?PR?_ESCRIBIRCADENASOFT_BUFFER?MAIN

?PR?_DEBUG_TXT_TIBBO?TIBBO                       -----    -----      -----    -----      0038H    0004H
  +--> ?PR?_DEBUG_CHR_TIBBO?TIBBO
  +--> ?CO?TIBBO
  +--> ?PR?_TX_AUX?TIBBO

?PR?_DEBUG_CHR_TIBBO?TIBBO                       -----    -----      -----    -----      -----    -----
  +--> ?PR?_TX_AUX?TIBBO

?PR?_DEBUGBUFFERMF?TIBBO                         -----    -----      -----    -----      0028H    0006H
  +--> ?CO?TIBBO
  +--> ?PR?_DEBUG_TXT_TIBBO?TIBBO
  +--> ?PR?_DEBUG_CHR_TIBBO?TIBBO
  +--> ?PR?_TX_AUX?TIBBO

?PR?_ESCRIBIRCADENASOFT_BUFFER?MAIN              -----    -----      -----    -----      0028H    0006H
  +--> ?PR?_PUTCHAR?MAIN

?PR?TRAMA_VALIDACION_P_N?VERIFICADOR             -----    -----      -----    -----      -----    -----
  +--> ?CO?VERIFICADOR
  +--> ?PR?_DEBUG_TXT_TIBBO?TIBBO

?PR?DWLOAD_EEPROM?LINTECH                        -----    -----      -----    -----      0003H    0016H
  +--> ?CO?LINTECH
  +--> ?PR?_DEBUG_TXT_TIBBO?TIBBO
  +--> ?PR?_DEBUGBUFFERMF?TIBBO
  +--> ?PR?_ESCRIBIRCADENASOFT_BUFFER?MAIN

?PR?RX_MONITOR?MONITOR                           -----    -----      -----    -----      0008H    000DH
  +--> ?PR?_RECIBE_CMD_MONITOR?MONITOR
  +--> ?PR?_DEBUG_MONITOR?TIBBO
  +--> ?PR?_VALIDA_TRAMA_MONITOR?MONITOR

?PR?_RECIBE_CMD_MONITOR?MONITOR                  -----    -----      -----    -----      0015H    0009H
  +--> ?PR?RX_DATA?TIBBO

?PR?RX_DATA?TIBBO                                -----    -----      -----    -----      -----    -----
  +--> ?PR?TIME_MBIT?TIBBO
  +--> ?PR?TIME_BIT?TIBBO

?PR?_DEBUG_MONITOR?TIBBO                         -----    -----      -----    -----      0015H    0004H
  +--> ?PR?DEBUG_DIVIDIR_TEXTO?TIBBO
  +--> ?CO?TIBBO
  +--> ?PR?_DEBUG_TXT_TIBBO?TIBBO

?PR?DEBUG_DIVIDIR_TEXTO?TIBBO                    -----    -----      -----    -----      -----    -----
  +--> ?CO?TIBBO
  +--> ?PR?_DEBUG_TXT_TIBBO?TIBBO

?PR?_VALIDA_TRAMA_MONITOR?MONITOR                -----    -----      -----    -----      0015H    0003H
BL51 BANKED LINKER/LOCATER V6.22.2.0                                                  07/21/2020  12:52:08  PAGE 14



?PR?_SECUENCIAEXPEDIDORMF?VERIFICADOR            -----    -----      -----    -----      0002H    0001H
  +--> ?PR?_CHECK_STATUS?LINTECH
  +--> ?PR?_LOAD_SECUENCIA_EXPEDIDOR?VERIFIC...
  +--> ?PR?_RTA_CMD_TRANSPORTE?VERIFICADOR
  +--> ?PR?RESPONDE_ESTADO_SENSORES_TRANSPOR...
  +--> ?PR?RESPONDE_TIPO_TARJETA?VERIFICADOR
  +--> ?PR?_RESPONDE_LECTURA_TARJETA_SECTOR1...
  +--> ?PR?_RESPONDE_LECTURA_TARJETA_SECTOR1...
  +--> ?PR?_RESPONDE_WRITE_TARJETA_SECTOR1_B...
  +--> ?PR?_RESPONDE_WRITE_TARJETA_SECTOR2_B...
  +--> ?PR?_RESPONDE_WRITE_TARJETA_SECTOR1_B...
  +--> ?PR?DISPARO_LOCK_ENTRADA_VEHICULO?VER...
  +--> ?PR?_RESPUESTA_SEGUNDA_CLAVE?VERIFICADOR
  +--> ?PR?ANALIZA_PRESENCIA_MENSUAL?VERIFIC...
  +--> ?PR?_ANALIZA_UID_CARD?VERIFICADOR
  +--> ?CO?VERIFICADOR
  +--> ?PR?_DEBUG_TXT_TIBBO?TIBBO
  +--> ?PR?_MOV_CARD?LINTECH
  +--> ?PR?_CARD_INSERCION?LINTECH
  +--> ?PR?AUT_CARD_CHECK_STATUS?LINTECH
  +--> ?PR?LOADVERIFY_EEPROM?LINTECH
  +--> ?PR?_RD_MF?LINTECH
  +--> ?PR?_WR_MF?LINTECH
  +--> ?PR?DWLOAD_EEPROM?LINTECH
  +--> ?PR?ENTREGA_CARD_CAPTURA?VERIFICADOR
  +--> ?PR?_SEND_PTO_PARALELO?VERIFICADOR
  +--> ?PR?_WAIT_PLACA?VERIFICADOR
  +--> ?PR?UNIQUE_IDENTIFIER_UID?LINTECH
  +--> ?PR?_PREGUNTA_LPR?VERIFICADOR
  +--> ?PR?_VALIDA_TIPO_TARJETA?VERIFICADOR
  +--> ?PR?ANALIZA_PRESENCIA_ROTACION?VERIFI...
  +--> ?PR?POWER_OFF?LINTECH

?PR?_CHECK_STATUS?LINTECH                        -----    -----      -----    -----      0003H    000BH
  +--> ?CO?LINTECH
  +--> ?PR?_DEBUG_TXT_TIBBO?TIBBO
  +--> ?PR?_DEBUGBUFFERMF?TIBBO
  +--> ?PR?_ESCRIBIRCADENASOFT_BUFFER?MAIN

?PR?_LOAD_SECUENCIA_EXPEDIDOR?VERIFIC...         -----    -----      -----    -----      0008H    0009H

?PR?_RTA_CMD_TRANSPORTE?VERIFICADOR              -----    -----      -----    -----      0003H    0005H
  +--> ?PR?TRAMA_VALIDACION_P_N?VERIFICADOR
  +--> ?CO?VERIFICADOR
  +--> ?PR?_DEBUG_TXT_TIBBO?TIBBO
  +--> ?PR?_DEBUGBUFFERMF?TIBBO
  +--> ?PR?ERROR_RX_PTO?VERIFICADOR

?PR?ERROR_RX_PTO?VERIFICADOR                     -----    -----      -----    -----      0008H    0001H
  +--> ?CO?VERIFICADOR
  +--> ?PR?_DEBUG_TXT_TIBBO?TIBBO
  +--> ?PR?_DEBUG_CHR_TIBBO?TIBBO
  +--> ?PR?_DELAY_10MS?DELAY

?PR?_DELAY_10MS?DELAY                            -----    -----      -----    -----      0009H    0004H
  +--> ?PR?_DELAY_1MS?DELAY
BL51 BANKED LINKER/LOCATER V6.22.2.0                                                  07/21/2020  12:52:08  PAGE 15



?PR?RESPONDE_ESTADO_SENSORES_TRANSPOR...         -----    -----      -----    -----      0003H    0001H
  +--> ?CO?VERIFICADOR
  +--> ?PR?_DEBUG_TXT_TIBBO?TIBBO
  +--> ?PR?_SEND_PORTERR?PTO_PARALELO
  +--> ?PR?INGRESO_VEHICULO?VERIFICADOR

?PR?_SEND_PORTERR?PTO_PARALELO                   -----    -----      -----    -----      002BH    0006H
  +--> ?PR?PULSO_BUS?PTO_PARALELO
  +--> ?PR?_DELAY_20US?DELAY

?PR?PULSO_BUS?PTO_PARALELO                       -----    -----      -----    -----      -----    -----
  +--> ?PR?_DELAY_20US?DELAY

?PR?INGRESO_VEHICULO?VERIFICADOR                 -----    -----      -----    -----      -----    -----
  +--> ?PR?VALIDASENSORESPASO?IO_SENSORES
  +--> ?PR?_RD_EEPROM?EEPROM
  +--> ?CO?VERIFICADOR
  +--> ?PR?_DEBUG_TXT_TIBBO?TIBBO
  +--> ?PR?_PANTALLALCD?PANTALLAS
  +--> ?PR?SEL_PULSA?IO_SENSORES

?PR?VALIDASENSORESPASO?IO_SENSORES               -----    -----      -----    -----      0011H    0001H
  +--> ?PR?SEL_SENSOR2?IO_SENSORES
  +--> ?PR?VALIDASENSOR?IO_SENSORES
  +--> ?PR?VALIDA_SENSOR1_AUTO?IO_SENSORES
  +--> ?CO?IO_SENSORES
  +--> ?PR?_DEBUG_TXT_TIBBO?TIBBO

?PR?VALIDA_SENSOR1_AUTO?IO_SENSORES              -----    -----      -----    -----      0012H    0001H
  +--> ?PR?SEL_SENSOR1?IO_SENSORES
  +--> ?PR?SEL_AUTO?IO_SENSORES
  +--> ?CO?IO_SENSORES
  +--> ?PR?_DEBUG_TXT_TIBBO?TIBBO

?PR?_PANTALLALCD?PANTALLAS                       -----    -----      -----    -----      002BH    0008H
  +--> ?CO?PANTALLAS
  +--> ?PR?_LCD_TXT?PANTALLAS
  +--> ?PR?_STRLEN?STRLEN
  +--> ?PR?_TX_CHRLCD?PANTALLAS
  +--> ?PR?_RASPBERRY_DATA?PANTALLAS

?PR?_LCD_TXT?PANTALLAS                           -----    -----      -----    -----      0046H    0005H
  +--> ?PR?_TX_CHRLCD?PANTALLAS

?PR?_TX_CHRLCD?PANTALLAS                         -----    -----      -----    -----      004BH    0002H
  +--> ?PR?_PUTCHAR?MAIN

?PR?_RASPBERRY_DATA?PANTALLAS                    -----    -----      -----    -----      0046H    0005H
  +--> ?PR?_STRLEN?STRLEN
  +--> ?PR?_PUTCHAR?MAIN

?PR?RESPONDE_TIPO_TARJETA?VERIFICADOR            -----    -----      -----    -----      0003H    0001H
  +--> ?CO?VERIFICADOR
  +--> ?PR?_DEBUG_TXT_TIBBO?TIBBO
  +--> ?PR?_SEND_PORTERR?PTO_PARALELO
  +--> ?PR?_PANTALLALCD?PANTALLAS
BL51 BANKED LINKER/LOCATER V6.22.2.0                                                  07/21/2020  12:52:08  PAGE 16


  +--> ?PR?CAPTURA_EXPULSA?VERIFICADOR

?PR?_RESPONDE_LECTURA_TARJETA_SECTOR1...         -----    -----      -----    -----      0003H    0016H
  +--> ?CO?VERIFICADOR
  +--> ?PR?_DEBUG_TXT_TIBBO?TIBBO
  +--> ?PR?_DEBUGBUFFERMF?TIBBO
  +--> ?PR?_RD_EEPROM?EEPROM
  +--> ?PR?_DEBUG_HEXDEC?TIBBO
  +--> ?PR?_DEBUG_CHR_TIBBO?TIBBO
  +--> ?PR?_SEND_PORTERR?PTO_PARALELO
  +--> ?PR?_PANTALLALCD?PANTALLAS
  +--> ?PR?CAPTURA_EXPULSA?VERIFICADOR

?PR?_DEBUG_HEXDEC?TIBBO                          -----    -----      -----    -----      0019H    0002H
  +--> ?PR?_TX_AUX?TIBBO

?PR?_RESPONDE_LECTURA_TARJETA_SECTOR1...         -----    -----      -----    -----      0003H    0015H
  +--> ?CO?VERIFICADOR
  +--> ?PR?_DEBUG_TXT_TIBBO?TIBBO
  +--> ?PR?_DEBUGBUFFERMF?TIBBO
  +--> ?PR?_DEBUG_CHR_TIBBO?TIBBO
  +--> ?PR?CAPTURA_EXPULSA?VERIFICADOR

?PR?_RESPONDE_WRITE_TARJETA_SECTOR1_B...         -----    -----      -----    -----      0003H    0007H
  +--> ?CO?VERIFICADOR
  +--> ?PR?_DEBUG_TXT_TIBBO?TIBBO
  +--> ?PR?_DEBUGBUFFERMF?TIBBO
  +--> ?PR?_ARMAR_TRAMA_TARJETA_SECTOR1_BLOQ...

?PR?_ARMAR_TRAMA_TARJETA_SECTOR1_BLOQ...         -----    -----      -----    -----      000AH    0003H
  +--> ?PR?LEE_NO_TICKET?EEPROM

?PR?LEE_NO_TICKET?EEPROM                         -----    -----      -----    -----      000DH    000BH
  +--> ?PR?READ_EEPROM_TICKET?EEPROM
  +--> ?CO?EEPROM
  +--> ?PR?PRINTF?PRINTF
  +--> ?PR?_DEBUG_TXT_TIBBO?TIBBO

?PR?READ_EEPROM_TICKET?EEPROM                    -----    -----      -----    -----      0018H    0007H
  +--> ?PR?_RD_EEPROM?EEPROM

?PR?_RESPONDE_WRITE_TARJETA_SECTOR2_B...         -----    -----      -----    -----      0003H    0003H
  +--> ?CO?VERIFICADOR
  +--> ?PR?_DEBUG_TXT_TIBBO?TIBBO
  +--> ?PR?_DEBUGBUFFERMF?TIBBO

?PR?_RESPONDE_WRITE_TARJETA_SECTOR1_B...         -----    -----      -----    -----      0003H    0003H
  +--> ?CO?VERIFICADOR
  +--> ?PR?_DEBUG_TXT_TIBBO?TIBBO
  +--> ?PR?_DEBUGBUFFERMF?TIBBO

?PR?DISPARO_LOCK_ENTRADA_VEHICULO?VER...         -----    -----      -----    -----      0003H    0001H
  +--> ?CO?VERIFICADOR
  +--> ?PR?_DEBUG_TXT_TIBBO?TIBBO
  +--> ?PR?_PANTALLALCD?PANTALLAS
  +--> ?PR?_SEND_PORTERR?PTO_PARALELO
  +--> ?PR?VALIDA_SENSOR1_AUTO?IO_SENSORES
BL51 BANKED LINKER/LOCATER V6.22.2.0                                                  07/21/2020  12:52:08  PAGE 17



?PR?_RESPUESTA_SEGUNDA_CLAVE?VERIFICADOR         -----    -----      -----    -----      0003H    0006H
  +--> ?CO?VERIFICADOR
  +--> ?PR?_DEBUG_TXT_TIBBO?TIBBO
  +--> ?PR?_DEBUGBUFFERMF?TIBBO
  +--> ?PR?_ARMAR_TRAMA_PLACA?VERIFICADOR

?PR?_ARMAR_TRAMA_PLACA?VERIFICADOR               -----    -----      -----    -----      0009H    0003H

?PR?ANALIZA_PRESENCIA_MENSUAL?VERIFIC...         -----    -----      -----    -----      0003H    0001H
  +--> ?PR?VALIDASENSORESPASO?IO_SENSORES
  +--> ?PR?_SEND_PORTERR?PTO_PARALELO
  +--> ?PR?_PANTALLALCD?PANTALLAS

?PR?_ANALIZA_UID_CARD?VERIFICADOR                -----    -----      -----    -----      0003H    0015H
  +--> ?CO?VERIFICADOR
  +--> ?PR?_DEBUG_TXT_TIBBO?TIBBO
  +--> ?PR?_DEBUGBUFFERMF?TIBBO
  +--> ?PR?_DEBUG_CHR_TIBBO?TIBBO

?PR?_MOV_CARD?LINTECH                            -----    -----      -----    -----      0003H    000CH
  +--> ?CO?LINTECH
  +--> ?PR?_DEBUG_TXT_TIBBO?TIBBO
  +--> ?PR?_DEBUGBUFFERMF?TIBBO
  +--> ?PR?_ESCRIBIRCADENASOFT_BUFFER?MAIN

?PR?_CARD_INSERCION?LINTECH                      -----    -----      -----    -----      0003H    000AH
  +--> ?CO?LINTECH
  +--> ?PR?_DEBUG_TXT_TIBBO?TIBBO
  +--> ?PR?_DEBUGBUFFERMF?TIBBO
  +--> ?PR?_ESCRIBIRCADENASOFT_BUFFER?MAIN

?PR?AUT_CARD_CHECK_STATUS?LINTECH                -----    -----      -----    -----      0003H    000BH
  +--> ?CO?LINTECH
  +--> ?PR?_DEBUG_TXT_TIBBO?TIBBO
  +--> ?PR?_DEBUGBUFFERMF?TIBBO
  +--> ?PR?_ESCRIBIRCADENASOFT_BUFFER?MAIN

?PR?LOADVERIFY_EEPROM?LINTECH                    -----    -----      -----    -----      0003H    0010H
  +--> ?CO?LINTECH
  +--> ?PR?_DEBUG_TXT_TIBBO?TIBBO
  +--> ?PR?_DEBUGBUFFERMF?TIBBO
  +--> ?PR?_ESCRIBIRCADENASOFT_BUFFER?MAIN

?PR?_RD_MF?LINTECH                               -----    -----      -----    -----      0003H    0012H
  +--> ?CO?LINTECH
  +--> ?PR?_DEBUG_TXT_TIBBO?TIBBO
  +--> ?PR?_DEBUG_CHR_TIBBO?TIBBO
  +--> ?PR?_DEBUGBUFFERMF?TIBBO
  +--> ?PR?_ESCRIBIRCADENASOFT_BUFFER?MAIN

?PR?_WR_MF?LINTECH                               -----    -----      -----    -----      0003H    0025H
  +--> ?CO?LINTECH
  +--> ?PR?_DEBUG_TXT_TIBBO?TIBBO
  +--> ?PR?_DEBUG_CHR_TIBBO?TIBBO
  +--> ?PR?_DEBUGBUFFERMF?TIBBO
  +--> ?PR?_ESCRIBIRCADENASOFT_BUFFER?MAIN
BL51 BANKED LINKER/LOCATER V6.22.2.0                                                  07/21/2020  12:52:08  PAGE 18



?PR?ENTREGA_CARD_CAPTURA?VERIFICADOR             -----    -----      -----    -----      0003H    0001H
  +--> ?CO?VERIFICADOR
  +--> ?PR?_DEBUG_TXT_TIBBO?TIBBO
  +--> ?PR?SEL_SENSOR2?IO_SENSORES
  +--> ?PR?VALIDASENSOR?IO_SENSORES
  +--> ?PR?VALIDA_SENSOR1_AUTO?IO_SENSORES

?PR?_SEND_PTO_PARALELO?VERIFICADOR               -----    -----      -----    -----      0003H    0003H
  +--> ?PR?_ARMAR_TRAMA_PTO_PARALELO_EXPEDID...
  +--> ?PR?ARMAR_TRAMA_PTO_PARALELO_EXPEDIDO...
  +--> ?PR?INCREMENTE_TICKET?EEPROM
  +--> ?PR?_STRLEN?STRLEN
  +--> ?PR?_SEND_PORT?PTO_PARALELO
  +--> ?CO?VERIFICADOR
  +--> ?PR?_DEBUG_TXT_TIBBO?TIBBO
  +--> ?PR?_DEBUGBUFFERMF?TIBBO
  +--> ?PR?CLEAR_PLACA?MONITOR

?PR?_ARMAR_TRAMA_PTO_PARALELO_EXPEDID...         -----    -----      -----    -----      0006H    0003H
  +--> ?PR?_BLOCK_READ_CLOCK_HEX?CLOCK
  +--> ?PR?_RD_EEPROM?EEPROM

?PR?ARMAR_TRAMA_PTO_PARALELO_EXPEDIDO...         -----    -----      -----    -----      0006H    0001H
  +--> ?PR?LEE_NO_TICKET?EEPROM
  +--> ?PR?_STRLEN?STRLEN
  +--> ?PR?_STRCAT?STRCAT
  +--> ?PR?_BLOCK_READ_CLOCK_HEX?CLOCK
  +--> ?PR?_RD_EEPROM?EEPROM

?PR?INCREMENTE_TICKET?EEPROM                     -----    -----      -----    -----      0006H    000BH
  +--> ?PR?READ_EEPROM_TICKET?EEPROM
  +--> ?CO?EEPROM
  +--> ?PR?PRINTF?PRINTF
  +--> ?PR?_WRITE_EEPROM_TICKET?EEPROM

?PR?_WRITE_EEPROM_TICKET?EEPROM                  -----    -----      -----    -----      0016H    000BH
  +--> ?CO?EEPROM
  +--> ?PR?_DEBUG_TXT_TIBBO?TIBBO
  +--> ?PR?_ATOL?ATOL
  +--> ?PR?_DEBUG_CHR_TIBBO?TIBBO
  +--> ?PR?_WR_EEPROM?EEPROM

?PR?_ATOL?ATOL                                   0020H.0  0000H.1    -----    -----      0021H    0007H
  +--> ?PR?_ISSPACE?ISSPACE
  +--> ?PR?_ISDIGIT?ISDIGIT

?PR?_SEND_PORT?PTO_PARALELO                      -----    -----      -----    -----      0016H    000AH
  +--> ?PR?PULSO_BUS?PTO_PARALELO
  +--> ?PR?_DELAY_20US?DELAY

?PR?_WAIT_PLACA?VERIFICADOR                      -----    -----      -----    -----      0003H    0005H
  +--> ?PR?RX_MONITOR?MONITOR
  +--> ?PR?CLAVE_SEGURIDAD_S2?LINTECH
  +--> ?PR?_LOAD_SECUENCIA_EXPEDIDOR?VERIFIC...

?PR?CLAVE_SEGURIDAD_S2?LINTECH                   -----    -----      -----    -----      0008H    0016H
BL51 BANKED LINKER/LOCATER V6.22.2.0                                                  07/21/2020  12:52:08  PAGE 19


  +--> ?CO?LINTECH
  +--> ?PR?_DEBUG_TXT_TIBBO?TIBBO
  +--> ?PR?_DEBUGBUFFERMF?TIBBO
  +--> ?PR?_ESCRIBIRCADENASOFT_BUFFER?MAIN

?PR?UNIQUE_IDENTIFIER_UID?LINTECH                -----    -----      -----    -----      0003H    000BH
  +--> ?CO?LINTECH
  +--> ?PR?_DEBUG_TXT_TIBBO?TIBBO
  +--> ?PR?_DEBUGBUFFERMF?TIBBO
  +--> ?PR?_ESCRIBIRCADENASOFT_BUFFER?MAIN

?PR?_PREGUNTA_LPR?VERIFICADOR                    -----    -----      -----    -----      0003H    0004H
  +--> ?PR?_RD_EEPROM?EEPROM
  +--> ?PR?_ARMAR_TRAMA_MONITOR?VERIFICADOR
  +--> ?PR?_DEBUG_TXT_TIBBO?TIBBO

?PR?_ARMAR_TRAMA_MONITOR?VERIFICADOR             -----    -----      -----    -----      0007H    0004H
  +--> ?PR?DIR_BOARD?IO_SENSORES
  +--> ?PR?LEE_NO_TICKET?EEPROM
  +--> ?PR?_STRCAT?STRCAT
  +--> ?PR?_BYTEHEX_DECIMAL?CLOCK
  +--> ?PR?_STRLEN?STRLEN
  +--> ?PR?_TWO_BYTEHEX_DECIMAL?CLOCK
  +--> ?PR?_BLOCK_READ_CLOCK_ASCII?CLOCK

?PR?DIR_BOARD?IO_SENSORES                        -----    -----      -----    -----      0033H    0001H
  +--> ?PR?SEL_DIR1?IO_SENSORES
  +--> ?PR?SEL_DIR2?IO_SENSORES
  +--> ?PR?_RD_EEPROM?EEPROM

?PR?_BYTEHEX_DECIMAL?CLOCK                       -----    -----      -----    -----      0011H    0001H

?PR?_TWO_BYTEHEX_DECIMAL?CLOCK                   -----    -----      -----    -----      0011H    000CH
  +--> ?PR?_POW?POW

?PR?_POW?POW                                     -----    -----      -----    -----      001DH    000AH
  +--> ?PR?LOG?LOG
  +--> ?PR?EXP?EXP

?PR?LOG?LOG                                      0020H.0  0000H.1    -----    -----      0027H    0004H

?PR?_VALIDA_TIPO_TARJETA?VERIFICADOR             -----    -----      -----    -----      0003H    0007H
  +--> ?CO?VERIFICADOR
  +--> ?PR?_DEBUG_TXT_TIBBO?TIBBO
  +--> ?PR?_RD_EEPROM?EEPROM
  +--> ?PR?_SEND_PORTERR?PTO_PARALELO
  +--> ?PR?_TARJETA_MENSUAL?VERIFICADOR
  +--> ?PR?_PANTALLALCD?PANTALLAS
  +--> ?PR?CAPTURA_EXPULSA?VERIFICADOR
  +--> ?PR?_TARJETA_ROTACION?VERIFICADOR

?PR?_TARJETA_MENSUAL?VERIFICADOR                 -----    -----      -----    -----      000AH    0007H
  +--> ?PR?_HORARIOS?VERIFICADOR
  +--> ?PR?_CHECK_FECHAOUT?CLOCK
  +--> ?PR?_VALIDA_VEHICULO_CARD_MENSUAL?VER...
  +--> ?PR?CAPTURA_EXPULSA?VERIFICADOR
  +--> ?CO?VERIFICADOR
BL51 BANKED LINKER/LOCATER V6.22.2.0                                                  07/21/2020  12:52:08  PAGE 20


  +--> ?PR?_DEBUG_TXT_TIBBO?TIBBO
  +--> ?PR?_ARMAR_TRAMA_TARJETA_SECTOR1_BLOQ...
  +--> ?PR?_SEND_PORTERR?PTO_PARALELO
  +--> ?PR?_PANTALLALCD?PANTALLAS

?PR?_HORARIOS?VERIFICADOR                        -----    -----      -----    -----      0011H    0013H
  +--> ?PR?ADDR_HORARIOS?PROG
  +--> ?PR?_RD_EEPROM?EEPROM
  +--> ?PR?_LEE_CLK?CLOCK
  +--> ?CO?VERIFICADOR
  +--> ?PR?_DEBUG_TXT_TIBBO?TIBBO
  +--> ?PR?_DEBUG_CHR_TIBBO?TIBBO
  +--> ?PR?_BLOQUE_HORARIO?VERIFICADOR
  +--> ?PR?_PANTALLALCD?PANTALLAS

?PR?_BLOQUE_HORARIO?VERIFICADOR                  -----    -----      -----    -----      0024H    0007H
  +--> ?CO?VERIFICADOR
  +--> ?PR?_DEBUG_TXT_TIBBO?TIBBO
  +--> ?PR?_LEE_CLK?CLOCK
  +--> ?PR?_DEBUG_CHR_TIBBO?TIBBO
  +--> ?PR?_HORA_MAXIMA?VERIFICADOR
  +--> ?PR?_EN_HORARIO?VERIFICADOR
  +--> ?PR?_RD_EEPROM?EEPROM
  +--> ?PR?_SEND_PORTERR?PTO_PARALELO
  +--> ?PR?_PANTALLALCD?PANTALLAS

?PR?_HORA_MAXIMA?VERIFICADOR                     -----    -----      -----    -----      0030H    0008H
  +--> ?PR?_RD_EEPROM?EEPROM
  +--> ?PR?_DEBUG_CHR_TIBBO?TIBBO
  +--> ?CO?VERIFICADOR
  +--> ?PR?_DEBUG_TXT_TIBBO?TIBBO

?PR?_EN_HORARIO?VERIFICADOR                      -----    -----      -----    -----      002BH    0005H
  +--> ?CO?VERIFICADOR
  +--> ?PR?_DEBUG_TXT_TIBBO?TIBBO
  +--> ?PR?_HORA_MAXIMA?VERIFICADOR

?PR?_VALIDA_VEHICULO_CARD_MENSUAL?VER...         -----    -----      -----    -----      0011H    0004H
  +--> ?CO?VERIFICADOR
  +--> ?PR?_DEBUG_TXT_TIBBO?TIBBO
  +--> ?PR?_RD_EEPROM?EEPROM
  +--> ?PR?_SEND_PORTERR?PTO_PARALELO

?PR?_ARMAR_TRAMA_TARJETA_SECTOR1_BLOQ...         -----    -----      -----    -----      0011H    0006H
  +--> ?PR?_BLOCK_READ_CLOCK_HEX?CLOCK
  +--> ?PR?DIR_BOARD?IO_SENSORES

?PR?_TARJETA_ROTACION?VERIFICADOR                -----    -----      -----    -----      000AH    0006H
  +--> ?PR?_ARMAR_TRAMA_TARJETA_SECTOR1_BLOQ...

?PR?ANALIZA_PRESENCIA_ROTACION?VERIFI...         -----    -----      -----    -----      0003H    0001H
  +--> ?PR?VALIDASENSORESPASO?IO_SENSORES
  +--> ?PR?_SEND_PORTERR?PTO_PARALELO
  +--> ?PR?_PANTALLALCD?PANTALLAS

?PR?POWER_OFF?LINTECH                            -----    -----      -----    -----      0003H    000BH
  +--> ?CO?LINTECH
BL51 BANKED LINKER/LOCATER V6.22.2.0                                                  07/21/2020  12:52:08  PAGE 21


  +--> ?PR?_DEBUG_TXT_TIBBO?TIBBO
  +--> ?PR?_DEBUGBUFFERMF?TIBBO
  +--> ?PR?_ESCRIBIRCADENASOFT_BUFFER?MAIN

?PR?_RECIBE_PORT?PTO_PARALELO                    -----    -----      -----    -----      0002H    0008H
  +--> ?PR?OFF_TIMER0_INTERRUP?MAIN
  +--> ?PR?ON_TIMER0_INTERRUP?MAIN

?PR?_DEBUG_PTO_PARALELO?TIBBO                    -----    -----      -----    -----      0002H    0004H
  +--> ?PR?DEBUG_DIVIDIR_TEXTO?TIBBO
  +--> ?CO?TIBBO
  +--> ?PR?_DEBUG_TXT_TIBBO?TIBBO
  +--> ?PR?_DEBUGBUFFERMF?TIBBO

?PR?_VALIDA_TRAMA_PTO?ACCESCAN                   -----    -----      -----    -----      0002H    000FH
  +--> ?PR?_VALIDAR_CLK?CLOCK
  +--> ?PR?_BLOCK_WRITE_CLOCK_ASCII?CLOCK
  +--> ?PR?RELOJ_PANTALLA_LCD?PANTALLAS
  +--> ?PR?_PANTALLALCD?PANTALLAS
  +--> ?CO?ACCESCAN
  +--> ?PR?_DEBUG_TXT_TIBBO?TIBBO
  +--> ?PR?_BYTEHEX_DECIMAL?CLOCK
  +--> ?PR?_TWO_BYTEHEX_DECIMAL?CLOCK
  +--> ?PR?VALIDASENSORESPASO?IO_SENSORES
  +--> ?PR?_CMD_LPR_SALIDA_WIEGAND?ACCESCAN
  +--> ?PR?_PANTALLALCD_LINEA_2?PANTALLAS
  +--> ?PR?_GRABA_SERIE?EEPROM

?PR?_BLOCK_WRITE_CLOCK_ASCII?CLOCK               -----    -----      -----    -----      0011H    0003H
  +--> ?PR?_TWO_ONE?CLOCK
  +--> ?PR?_WR_CLK?CLOCK

?PR?_WR_CLK?CLOCK                                -----    -----      -----    -----      0014H    0002H
  +--> ?PR?_DELAY_20US?DELAY
  +--> ?PR?_EB_CLK?CLOCK

?PR?RELOJ_PANTALLA_LCD?PANTALLAS                 -----    -----      -----    -----      0011H    000DH
  +--> ?CO?PANTALLAS
  +--> ?PR?_BLOCK_READ_CLOCK?CLOCK
  +--> ?PR?_LCD_TXT_NUM_CHAR?PANTALLAS
  +--> ?PR?_RASPBERRY_DATA?PANTALLAS

?PR?_BLOCK_READ_CLOCK?CLOCK                      -----    -----      -----    -----      001EH    0003H
  +--> ?PR?_LEE_CLK?CLOCK

?PR?_LCD_TXT_NUM_CHAR?PANTALLAS                  -----    -----      -----    -----      001EH    0006H
  +--> ?PR?_TX_CHRLCD?PANTALLAS

?PR?_CMD_LPR_SALIDA_WIEGAND?ACCESCAN             -----    -----      -----    -----      0011H    0022H
  +--> ?PR?DIR_BOARD?IO_SENSORES
  +--> ?PR?_BLOCK_READ_CLOCK_ASCII?CLOCK
  +--> ?PR?_MONITOR_CHR?ACCESCAN

?PR?_MONITOR_CHR?ACCESCAN                        -----    -----      -----    -----      0033H    0005H
  +--> ?PR?_TX_AUX?TIBBO

?PR?_PANTALLALCD_LINEA_2?PANTALLAS               -----    -----      -----    -----      0011H    0035H
BL51 BANKED LINKER/LOCATER V6.22.2.0                                                  07/21/2020  12:52:08  PAGE 22


  +--> ?CO?PANTALLAS
  +--> ?PR?_LCD_TXT?PANTALLAS
  +--> ?PR?_STRLEN?STRLEN
  +--> ?PR?_TX_CHRLCD?PANTALLAS
  +--> ?PR?_STRCAT?STRCAT
  +--> ?PR?_RASPBERRY_DATA?PANTALLAS

?PR?_GRABA_SERIE?EEPROM                          -----    -----      -----    -----      0011H    0005H
  +--> ?CO?EEPROM
  +--> ?PR?_DEBUG_TXT_TIBBO?TIBBO
  +--> ?PR?_WRITE_EEPROM_TICKET?EEPROM
  +--> ?PR?_WR_EEPROM?EEPROM

?PR?MSJ_LCD_INFORMATIVO?IO_SENSORES              -----    -----      -----    -----      0002H    0001H
  +--> ?PR?SEL_FUNCION?IO_SENSORES
  +--> ?PR?LOAD_AND_SEND_INFO_RELOJ?PTO_PARA...
  +--> ?PR?LOAD_AND_SEND_ID_COD?PTO_PARALELO
  +--> ?PR?_RD_EEPROM?EEPROM
  +--> ?PR?_SEND_PORTERR?PTO_PARALELO

?PR?LOAD_AND_SEND_INFO_RELOJ?PTO_PARA...         -----    -----      -----    -----      0003H    000BH
  +--> ?PR?_BLOCK_READ_CLOCK?CLOCK
  +--> ?PR?_LEE_CLK?CLOCK
  +--> ?PR?_SEND_PORT?PTO_PARALELO

?PR?LOAD_AND_SEND_ID_COD?PTO_PARALELO            -----    -----      -----    -----      0003H    0013H
  +--> ?PR?_RD_EEPROM?EEPROM
  +--> ?CO?PTO_PARALELO
  +--> ?PR?PRINTF?PRINTF
  +--> ?PR?_SEND_PORT?PTO_PARALELO



SYMBOL TABLE OF MODULE:  .\Objects\expedidor_v_01_raspberry (MAIN)

  VALUE           TYPE          NAME
  ----------------------------------

  -------         MODULE        MAIN
  C:0000H         SYMBOL        _ICE_DUMMY_
  D:0080H         PUBLIC        P0
  D:0090H         PUBLIC        P1
  C:9E7CH         PUBLIC        timer0_int
  D:00B0H         PUBLIC        P3
  B:00A8H.7       PUBLIC        EA
  C:A280H         PUBLIC        off_Timer0_Interrup
  X:0159H         PUBLIC        ValTimeOutCom
  X:015AH         PUBLIC        Buffer_Rta_Lintech
  X:018CH         PUBLIC        Timer_wait
  X:018DH         PUBLIC        g_cContByteRx
  B:0080H.0       PUBLIC        rx_ip
  B:0080H.3       PUBLIC        Atascado
  C:8AFBH         PUBLIC        main
  X:018EH         PUBLIC        Timer_tivo
  C:9613H         PUBLIC        variable_inicio
  B:0090H.7       PUBLIC        lock
  I:0022H         PUBLIC        rbuf
BL51 BANKED LINKER/LOCATER V6.22.2.0                                                  07/21/2020  12:52:08  PAGE 23


  C:A271H         PUBLIC        on_Timer0_Interrup
  I:0054H         PUBLIC        tbuf
  B:0090H.1       PUBLIC        DataIn
  D:0089H         PUBLIC        TMOD
  X:0190H         PUBLIC        USE_LPR
  X:0191H         PUBLIC        Debug_Tibbo
  X:0192H         PUBLIC        Raspberry
  X:0193H         PUBLIC        SIN_COBRO
  X:0195H         PUBLIC        Tipo_Vehiculo
  B:00B0H.3       PUBLIC        busy
  C:A1DCH         PUBLIC        ini_timer
  B:00A8H.1       PUBLIC        ET0
  B:0088H.5       PUBLIC        TF0
  D:008CH         PUBLIC        TH0
  X:0196H         PUBLIC        ACK
  X:0197H         PUBLIC        g_cEstadoComSoft
  D:008AH         PUBLIC        TL0
  B:0088H.4       PUBLIC        TR0
  C:A1ECH         PUBLIC        inicia_board
  X:0198H         PUBLIC        T_GRACIA
  B:0080H.7       PUBLIC        sel_com
  X:019AH         PUBLIC        STX_LINTECH
  C:A20BH         PUBLIC        _getkey
  X:019BH         PUBLIC        ETX
  C:9817H         PUBLIC        _EscribirCadenaSoft_buffer
  B:0021H.1       PUBLIC        buffer_ready
  C:9AF9H         PUBLIC        _putchar
  B:0021H.2       PUBLIC        placa_ready
  -------         PROC          TIMER0_INT
  C:9E7CH         LINE#         16
  C:9E82H         LINE#         19
  C:9E88H         LINE#         20
  C:9E8DH         LINE#         21
  C:9E8DH         LINE#         22
  C:9E93H         LINE#         23
  C:9E93H         LINE#         25
  C:9EA1H         LINE#         26
  C:9EA3H         LINE#         28
  -------         ENDPROC       TIMER0_INT
  -------         PROC          INI_TIMER
  C:A1DCH         LINE#         31
  C:A1DCH         LINE#         32
  C:A1DCH         LINE#         34
  C:A1E4H         LINE#         36
  C:A1E7H         LINE#         37
  C:A1E9H         LINE#         38
  C:A1EBH         LINE#         40
  -------         ENDPROC       INI_TIMER
  -------         PROC          ON_TIMER0_INTERRUP
  C:A271H         LINE#         43
  C:A271H         LINE#         44
  C:A271H         LINE#         45
  C:A273H         LINE#         46
  C:A275H         LINE#         48
  -------         ENDPROC       ON_TIMER0_INTERRUP
  -------         PROC          OFF_TIMER0_INTERRUP
  C:A280H         LINE#         51
BL51 BANKED LINKER/LOCATER V6.22.2.0                                                  07/21/2020  12:52:08  PAGE 24


  C:A280H         LINE#         52
  C:A280H         LINE#         53
  C:A282H         LINE#         55
  -------         ENDPROC       OFF_TIMER0_INTERRUP
  -------         PROC          _GETKEY
  -------         DO            
  D:0006H         SYMBOL        k
  -------         ENDDO         
  C:A20BH         LINE#         63
  C:A20BH         LINE#         64
  C:A20BH         LINE#         68
  C:A20BH         LINE#         69
  C:A20EH         LINE#         70
  C:A20EH         LINE#         71
  C:A216H         LINE#         73
  C:A216H         LINE#         74
  -------         ENDPROC       _GETKEY
  -------         PROC          _PUTCHAR
  X:00A6H         SYMBOL        c
  -------         DO            
  X:00A7H         SYMBOL        i
  -------         ENDDO         
  C:9AF9H         LINE#         78
  C:9AFEH         LINE#         79
  C:9AFEH         LINE#         82
  C:9B0DH         LINE#         83
  C:9B0DH         LINE#         84
  C:9B23H         LINE#         85
  C:9B23H         LINE#         87
  C:9B31H         LINE#         88
  C:9B31H         LINE#         90
  C:9B36H         LINE#         91
  -------         ENDPROC       _PUTCHAR
  -------         PROC          _ESCRIBIRCADENASOFT_BUFFER
  X:0028H         SYMBOL        buffer
  X:002BH         SYMBOL        tamano_cadena
  -------         DO            
  X:002CH         SYMBOL        i
  X:002DH         SYMBOL        d
  -------         ENDDO         
  C:9817H         LINE#         95
  C:9825H         LINE#         96
  C:9825H         LINE#         98
  C:9833H         LINE#         99
  C:9833H         LINE#         100
  C:984AH         LINE#         101
  C:9854H         LINE#         102
  C:985CH         LINE#         103
  -------         ENDPROC       _ESCRIBIRCADENASOFT_BUFFER
  -------         PROC          INICIA_BOARD
  C:A1ECH         LINE#         108
  C:A1ECH         LINE#         109
  C:A1ECH         LINE#         110
  C:A1EFH         LINE#         111
  C:A1F2H         LINE#         112
  C:A1F5H         LINE#         113
  C:A1F7H         LINE#         114
BL51 BANKED LINKER/LOCATER V6.22.2.0                                                  07/21/2020  12:52:08  PAGE 25


  C:A1F9H         LINE#         115
  C:A1FBH         LINE#         117
  -------         ENDPROC       INICIA_BOARD
  -------         PROC          VARIABLE_INICIO
  C:9613H         LINE#         122
  C:9613H         LINE#         123
  C:9613H         LINE#         126
  C:9624H         LINE#         127
  C:9635H         LINE#         128
  C:9643H         LINE#         129
  C:9651H         LINE#         130
  C:965FH         LINE#         132
  -------         ENDPROC       VARIABLE_INICIO
  -------         PROC          MAIN
  -------         DO            
  X:0131H         SYMBOL        buffer
  X:0000H         SYMBOL        Estado_Comunicacion_Secuencia_MF
  X:0001H         SYMBOL        Length_trama
  -------         ENDDO         
  C:8AFBH         LINE#         140
  C:8AFBH         LINE#         141
  C:8AFBH         LINE#         145
  C:8B00H         LINE#         149
  C:8B03H         LINE#         150
  C:8B06H         LINE#         151
  C:8B09H         LINE#         152
  C:8B0CH         LINE#         153
  C:8B0FH         LINE#         154
  C:8B11H         LINE#         156
  C:8B14H         LINE#         157
  C:8B1BH         LINE#         158
  C:8B1EH         LINE#         160
  C:8B23H         LINE#         162
  C:8B26H         LINE#         164
  C:8B29H         LINE#         165
  C:8B29H         LINE#         166
  C:8B2CH         LINE#         167
  C:8B2CH         LINE#         170
  C:8B2FH         LINE#         171
  C:8B35H         LINE#         172
  C:8B3BH         LINE#         174
  C:8B3BH         LINE#         175
  C:8B3BH         LINE#         178
  C:8B3EH         LINE#         179
  C:8B3EH         LINE#         180
  C:8B41H         LINE#         181
  C:8B41H         LINE#         185
  C:8B4EH         LINE#         190
  C:8B51H         LINE#         191
  C:8B51H         LINE#         193
  C:8B60H         LINE#         195
  C:8B69H         LINE#         197
  C:8B77H         LINE#         199
  C:8B77H         LINE#         200
  C:8B7AH         LINE#         204
  -------         ENDPROC       MAIN
  -------         ENDMOD        MAIN
BL51 BANKED LINKER/LOCATER V6.22.2.0                                                  07/21/2020  12:52:08  PAGE 26



  -------         MODULE        ACCESCAN
  C:0000H         SYMBOL        _ICE_DUMMY_
  D:0080H         PUBLIC        P0
  D:0090H         PUBLIC        P1
  B:0080H.2       PUBLIC        led_err_imp
  C:99F8H         PUBLIC        _Monitor_chr
  B:0080H.3       PUBLIC        Atascado
  B:0090H.7       PUBLIC        lock
  C:351AH         PUBLIC        _Valida_Trama_Pto
  C:6F2EH         PUBLIC        _Cmd_LPR_Salida_wiegand
  -------         PROC          _VALIDA_TRAMA_PTO
  X:0002H         SYMBOL        buffer
  X:0005H         SYMBOL        length_trama
  -------         DO            
  X:0204H         SYMBOL        cont
  X:0006H         SYMBOL        buff
  -------         ENDDO         
  C:351AH         LINE#         85
  C:3528H         LINE#         86
  C:3528H         LINE#         92
  C:355EH         LINE#         93
  C:355EH         LINE#         94
  C:3573H         LINE#         95
  C:3573H         LINE#         96
  C:3586H         LINE#         98
  C:3589H         LINE#         100
  C:3589H         LINE#         102
  C:3589H         LINE#         104
  C:359BH         LINE#         105
  C:359BH         LINE#         106
  C:35A1H         LINE#         107
  C:35AEH         LINE#         108
  C:35AEH         LINE#         109
  C:35B3H         LINE#         110
  C:35B5H         LINE#         111
  C:35BAH         LINE#         112
  C:35BCH         LINE#         113
  C:35BEH         LINE#         114
  C:35C2H         LINE#         115
  C:35C2H         LINE#         116
  C:35C3H         LINE#         118
  C:35DBH         LINE#         119
  C:35DBH         LINE#         121
  C:35E8H         LINE#         122
  C:35E8H         LINE#         123
  C:35EAH         LINE#         124
  C:35ECH         LINE#         125
  C:35EEH         LINE#         126
  C:35F0H         LINE#         127
  C:35F0H         LINE#         129
  C:3616H         LINE#         130
  C:3616H         LINE#         131
  C:361AH         LINE#         132
  C:361FH         LINE#         133
  C:3628H         LINE#         134
  C:362DH         LINE#         135
BL51 BANKED LINKER/LOCATER V6.22.2.0                                                  07/21/2020  12:52:08  PAGE 27


  C:362DH         LINE#         138
  C:362EH         LINE#         141
  C:3640H         LINE#         142
  C:3640H         LINE#         143
  C:3642H         LINE#         144
  C:3645H         LINE#         146
  C:3657H         LINE#         147
  C:3657H         LINE#         148
  C:3659H         LINE#         149
  C:365CH         LINE#         151
  C:3676H         LINE#         152
  C:3676H         LINE#         153
  C:3678H         LINE#         154
  C:367BH         LINE#         157
  C:3695H         LINE#         158
  C:3695H         LINE#         159
  C:3697H         LINE#         160
  C:3699H         LINE#         163
  C:36B3H         LINE#         164
  C:36B3H         LINE#         165
  C:36B5H         LINE#         166
  C:36B7H         LINE#         170
  C:36D1H         LINE#         171
  C:36D1H         LINE#         172
  C:36D3H         LINE#         173
  C:36D5H         LINE#         176
  C:36EFH         LINE#         177
  C:36EFH         LINE#         178
  C:36F1H         LINE#         179
  C:36F3H         LINE#         181
  C:370DH         LINE#         182
  C:370DH         LINE#         183
  C:3712H         LINE#         184
  C:3712H         LINE#         186
  C:3742H         LINE#         187
  C:3742H         LINE#         188
  C:3750H         LINE#         189
  C:3753H         LINE#         192
  C:3796H         LINE#         193
  C:3796H         LINE#         195
  C:37ABH         LINE#         196
  C:37B1H         LINE#         197
  C:37DBH         LINE#         200
  C:37E3H         LINE#         201
  C:37E3H         LINE#         204
  C:37EAH         LINE#         205
  C:37EAH         LINE#         206
  C:37EFH         LINE#         207
  C:37EFH         LINE#         208
  C:37F1H         LINE#         210
  C:37F1H         LINE#         211
  C:37FAH         LINE#         212
  C:3802H         LINE#         213
  C:3802H         LINE#         218
  C:3804H         LINE#         221
  C:3804H         LINE#         224
  C:380BH         LINE#         225
BL51 BANKED LINKER/LOCATER V6.22.2.0                                                  07/21/2020  12:52:08  PAGE 28


  C:380BH         LINE#         226
  C:3810H         LINE#         227
  C:3810H         LINE#         228
  C:381BH         LINE#         232
  C:381BH         LINE#         233
  C:381BH         LINE#         235
  C:3848H         LINE#         236
  C:3848H         LINE#         237
  C:3857H         LINE#         239
  C:3857H         LINE#         241
  -------         ENDPROC       _VALIDA_TRAMA_PTO
  -------         PROC          _MONITOR_CHR
  X:0033H         SYMBOL        str
  X:0036H         SYMBOL        num_char
  -------         DO            
  X:0037H         SYMBOL        j
  -------         ENDDO         
  C:99F8H         LINE#         396
  C:9A06H         LINE#         397
  C:9A06H         LINE#         399
  C:9A14H         LINE#         400
  C:9A14H         LINE#         401
  C:9A26H         LINE#         402
  C:9A30H         LINE#         403
  C:9A38H         LINE#         404
  -------         ENDPROC       _MONITOR_CHR
  -------         PROC          _CMD_LPR_SALIDA_WIEGAND
  X:0011H         SYMBOL        buffer
  -------         DO            
  X:0014H         SYMBOL        Buffer_Lpr
  X:0032H         SYMBOL        j
  -------         ENDDO         
  C:6F2EH         LINE#         409
  C:6F39H         LINE#         410
  C:6F39H         LINE#         412
  C:6F3FH         LINE#         413
  C:6F44H         LINE#         414
  C:6F4CH         LINE#         415
  C:6F50H         LINE#         416
  C:6F59H         LINE#         417
  C:6F59H         LINE#         418
  C:6F6AH         LINE#         419
  C:6F6CH         LINE#         421
  C:6F6CH         LINE#         422
  C:6F7DH         LINE#         423
  C:6F7DH         LINE#         427
  C:6F94H         LINE#         428
  C:6F94H         LINE#         429
  C:6FA3H         LINE#         430
  C:6FADH         LINE#         432
  C:6FB5H         LINE#         433
  C:6FC9H         LINE#         435
  C:6FD9H         LINE#         436
  C:6FEAH         LINE#         437
  C:6FF7H         LINE#         441
  -------         ENDPROC       _CMD_LPR_SALIDA_WIEGAND
  -------         ENDMOD        ACCESCAN
BL51 BANKED LINKER/LOCATER V6.22.2.0                                                  07/21/2020  12:52:08  PAGE 29



  -------         MODULE        CLOCK
  C:0000H         SYMBOL        _ICE_DUMMY_
  C:9A6DH         PUBLIC        _two_one
  D:0090H         PUBLIC        P1
  C:5DD3H         PUBLIC        _validar_clk
  C:9F00H         PUBLIC        _wr_clk
  C:726FH         PUBLIC        _check_fechaOut
  B:00D0H.7       PUBLIC        CY
  C:0003H         PUBLIC        p_ck
  C:83D9H         PUBLIC        _hex_ascii
  X:0205H         PUBLIC        data_clk
  C:A233H         PUBLIC        cond_ini_clock
  C:7338H         PUBLIC        _Block_read_Clock
  B:0090H.4       PUBLIC        sck
  C:7F87H         PUBLIC        _Block_read_Clock_Hex
  C:502AH         PUBLIC        _Block_read_clock_ascii
  C:9B53H         PUBLIC        _hex_bcd
  C:A0F3H         PUBLIC        _bcd_hex
  C:9347H         PUBLIC        _ByteHex_Decimal
  C:8596H         PUBLIC        _lee_clk
  B:0090H.5       PUBLIC        io
  C:873CH         PUBLIC        _Block_write_clock_ascii
  B:0090H.6       PUBLIC        rst
  C:9ABAH         PUBLIC        _eb_clk
  C:3858H         PUBLIC        _Two_ByteHex_Decimal
  -------         PROC          P_CK
  C:0003H         LINE#         46
  C:0003H         LINE#         47
  C:0003H         LINE#         48
  C:0005H         LINE#         49
  C:0008H         LINE#         50
  C:000AH         LINE#         51
  -------         ENDPROC       P_CK
  -------         PROC          _EB_CLK
  X:00B5H         SYMBOL        dir_clk
  -------         DO            
  X:00B6H         SYMBOL        nbits
  -------         ENDDO         
  C:9ABAH         LINE#         53
  C:9ABFH         LINE#         55
  C:9AC4H         LINE#         56
  C:9AC4H         LINE#         57
  C:9ACDH         LINE#         58
  C:9AD0H         LINE#         59
  C:9AD0H         LINE#         60
  C:9AD2H         LINE#         61
  C:9AD4H         LINE#         63
  C:9AD4H         LINE#         64
  C:9AD6H         LINE#         65
  C:9AD6H         LINE#         66
  C:9AD9H         LINE#         67
  C:9AF8H         LINE#         68
  -------         ENDPROC       _EB_CLK
  C:858CH         SYMBOL        L?0082
  -------         PROC          L?0081
  -------         ENDPROC       L?0081
BL51 BANKED LINKER/LOCATER V6.22.2.0                                                  07/21/2020  12:52:08  PAGE 30


  C:858CH         SYMBOL        L?0082
  -------         PROC          _LEE_CLK
  X:00B2H         SYMBOL        dir_clk
  -------         DO            
  X:00B3H         SYMBOL        nbits
  -------         ENDDO         
  C:8596H         LINE#         70
  C:859BH         LINE#         72
  C:859DH         LINE#         73
  C:85A4H         LINE#         74
  C:85ACH         LINE#         75
  C:85C5H         LINE#         76
  C:85C5H         LINE#         77
  C:85C8H         LINE#         78
  C:85C8H         LINE#         79
  C:85CFH         LINE#         80
  C:85D9H         LINE#         81
  C:85DEH         LINE#         82
  C:85DEH         LINE#         83
  C:85DEH         LINE#         84
  C:85E1H         LINE#         85
  C:85E1H         LINE#         86
  C:85E8H         LINE#         87
  C:85F9H         LINE#         88
  C:85F9H         LINE#         89
  C:8601H         LINE#         90
  C:8601H         LINE#         91
  C:8601H         LINE#         92
  C:8604H         LINE#         93
  C:8614H         LINE#         94
  C:8616H         LINE#         95
  C:861BH         LINE#         96
  -------         ENDPROC       _LEE_CLK
  -------         PROC          _WR_CLK
  X:0014H         SYMBOL        dir_clk
  X:0015H         SYMBOL        byte
  C:9F00H         LINE#         98
  C:9F08H         LINE#         99
  C:9F0AH         LINE#         100
  C:9F11H         LINE#         101
  C:9F19H         LINE#         102
  C:9F22H         LINE#         103
  C:9F25H         LINE#         104
  C:9F27H         LINE#         106
  -------         ENDPROC       _WR_CLK
  C:9A39H         SYMBOL        L?0077
  C:9A57H         SYMBOL        L?0078
  -------         PROC          L?0076
  -------         ENDPROC       L?0076
  C:9A39H         SYMBOL        L?0077
  C:9A57H         SYMBOL        L?0078
  -------         PROC          _TWO_ONE
  D:0007H         SYMBOL        byte_h
  D:0005H         SYMBOL        byte_l
  -------         DO            
  D:0007H         SYMBOL        byte_out
  -------         ENDDO         
BL51 BANKED LINKER/LOCATER V6.22.2.0                                                  07/21/2020  12:52:08  PAGE 31


  C:9A6DH         LINE#         108
  C:9A6DH         LINE#         109
  C:9A6DH         LINE#         111
  C:9A70H         LINE#         112
  C:9A74H         LINE#         113
  C:9A77H         LINE#         114
  C:9A79H         LINE#         115
  C:9A79H         LINE#         116
  -------         ENDPROC       _TWO_ONE
  -------         PROC          _VALIDAR_CLK
  D:0001H         SYMBOL        datos_clock
  -------         DO            
  D:0007H         SYMBOL        validador
  -------         ENDDO         
  C:5DD3H         LINE#         120
  C:5DD3H         LINE#         121
  C:5DD3H         LINE#         122
  C:5DD5H         LINE#         125
  C:5DEAH         LINE#         126
  C:5DEAH         LINE#         128
  C:5E02H         LINE#         129
  C:5E02H         LINE#         131
  C:5E1AH         LINE#         132
  C:5E1AH         LINE#         133
  C:5E32H         LINE#         134
  C:5E32H         LINE#         135
  C:5E4AH         LINE#         136
  C:5E4AH         LINE#         137
  C:5E5FH         LINE#         138
  C:5E5FH         LINE#         139
  C:5E71H         LINE#         140
  C:5E71H         LINE#         141
  C:5E83H         LINE#         142
  C:5E83H         LINE#         143
  C:5E95H         LINE#         144
  C:5E95H         LINE#         145
  C:5EA7H         LINE#         146
  C:5EA7H         LINE#         147
  C:5EB9H         LINE#         148
  C:5EB9H         LINE#         149
  C:5EC9H         LINE#         150
  C:5EC9H         LINE#         151
  C:5EC9H         LINE#         152
  C:5EC9H         LINE#         153
  C:5ECAH         LINE#         155
  C:5ECAH         LINE#         156
  C:5ECCH         LINE#         157
  C:5ECCH         LINE#         158
  C:5ECDH         LINE#         160
  C:5ECDH         LINE#         161
  C:5ECFH         LINE#         163
  C:5ECFH         LINE#         164
  C:5ED0H         LINE#         166
  C:5ED0H         LINE#         167
  C:5ED2H         LINE#         169
  C:5ED2H         LINE#         171
  C:5ED3H         LINE#         173
BL51 BANKED LINKER/LOCATER V6.22.2.0                                                  07/21/2020  12:52:08  PAGE 32


  C:5ED3H         LINE#         174
  C:5ED5H         LINE#         176
  C:5ED5H         LINE#         177
  C:5ED6H         LINE#         179
  C:5ED6H         LINE#         180
  C:5ED8H         LINE#         182
  C:5ED8H         LINE#         183
  C:5ED9H         LINE#         185
  C:5ED9H         LINE#         186
  C:5EDBH         LINE#         188
  C:5EDBH         LINE#         189
  C:5EDCH         LINE#         191
  C:5EDCH         LINE#         192
  C:5EDEH         LINE#         194
  C:5EDEH         LINE#         195
  C:5EDEH         LINE#         197
  C:5EDFH         LINE#         199
  C:5EDFH         LINE#         200
  C:5EE1H         LINE#         202
  C:5EE1H         LINE#         204
  C:5EE2H         LINE#         207
  C:5EE2H         LINE#         208
  C:5EE4H         LINE#         210
  C:5EE4H         LINE#         212
  C:5EE5H         LINE#         215
  C:5EE5H         LINE#         216
  C:5EE7H         LINE#         218
  C:5EE7H         LINE#         220
  C:5EE7H         LINE#         222
  -------         ENDPROC       _VALIDAR_CLK
  -------         PROC          _BLOCK_WRITE_CLOCK_ASCII
  X:0011H         SYMBOL        datos_clock
  -------         DO            
  D:0007H         SYMBOL        temp
  -------         ENDDO         
  C:873CH         LINE#         228
  C:8747H         LINE#         230
  C:8747H         LINE#         235
  C:8751H         LINE#         236
  C:8751H         LINE#         237
  C:8751H         LINE#         238
  C:8751H         LINE#         240
  C:875BH         LINE#         241
  C:8765H         LINE#         242
  C:876FH         LINE#         243
  C:876FH         LINE#         244
  C:876FH         LINE#         245
  C:876FH         LINE#         247
  C:8779H         LINE#         248
  C:8779H         LINE#         249
  C:8779H         LINE#         250
  C:8779H         LINE#         252
  C:8783H         LINE#         253
  C:8783H         LINE#         254
  C:8783H         LINE#         255
  C:8783H         LINE#         257
  C:878DH         LINE#         258
BL51 BANKED LINKER/LOCATER V6.22.2.0                                                  07/21/2020  12:52:08  PAGE 33


  C:878DH         LINE#         259
  C:878DH         LINE#         260
  C:878DH         LINE#         262
  C:8797H         LINE#         263
  C:87A1H         LINE#         264
  C:87ABH         LINE#         265
  C:87B5H         LINE#         267
  C:87C5H         LINE#         268
  -------         ENDPROC       _BLOCK_WRITE_CLOCK_ASCII
  -------         PROC          _BCD_HEX
  D:0007H         SYMBOL        l_data
  -------         DO            
  D:0006H         SYMBOL        temp
  D:0005H         SYMBOL        j
  -------         ENDDO         
  C:A0F3H         LINE#         274
  C:A0F3H         LINE#         275
  C:A0F3H         LINE#         277
  C:A0F5H         LINE#         278
  C:A0F9H         LINE#         279
  C:A0FCH         LINE#         280
  C:A0FEH         LINE#         281
  C:A0FEH         LINE#         282
  C:A102H         LINE#         283
  C:A109H         LINE#         284
  C:A109H         LINE#         285
  C:A10DH         LINE#         286
  C:A110H         LINE#         287
  C:A110H         LINE#         288
  C:A110H         LINE#         289
  -------         ENDPROC       _BCD_HEX
  C:9B44H         SYMBOL        L?0080
  -------         PROC          L?0079
  -------         ENDPROC       L?0079
  C:9B44H         SYMBOL        L?0080
  -------         PROC          _HEX_BCD
  D:0007H         SYMBOL        byte
  -------         DO            
  D:0006H         SYMBOL        nibble_h
  D:0005H         SYMBOL        nibble_l
  D:0004H         SYMBOL        k
  D:0007H         SYMBOL        byte_out
  -------         ENDDO         
  C:9B53H         LINE#         293
  C:9B53H         LINE#         294
  C:9B53H         LINE#         299
  C:9B55H         LINE#         300
  C:9B56H         LINE#         302
  C:9B5CH         LINE#         303
  C:9B5CH         LINE#         304
  C:9B5DH         LINE#         305
  C:9B62H         LINE#         306
  C:9B62H         LINE#         307
  C:9B63H         LINE#         308
  C:9B64H         LINE#         309
  C:9B64H         LINE#         310
  C:9B67H         LINE#         311
BL51 BANKED LINKER/LOCATER V6.22.2.0                                                  07/21/2020  12:52:08  PAGE 34


  C:9B6BH         LINE#         312
  C:9B6EH         LINE#         313
  C:9B71H         LINE#         314
  C:9B73H         LINE#         315
  C:9B73H         LINE#         317
  -------         ENDPROC       _HEX_BCD
  -------         PROC          _HEX_ASCII
  X:005EH         SYMBOL        datos
  X:0061H         SYMBOL        fecha_asii
  -------         DO            
  D:0007H         SYMBOL        dato
  -------         ENDDO         
  C:83D9H         LINE#         318
  C:83E4H         LINE#         319
  C:83E4H         LINE#         323
  C:83E7H         LINE#         324
  C:83FFH         LINE#         325
  C:8414H         LINE#         326
  C:8414H         LINE#         328
  C:8417H         LINE#         329
  C:8432H         LINE#         330
  C:843AH         LINE#         331
  C:843AH         LINE#         333
  C:843DH         LINE#         334
  C:8458H         LINE#         335
  C:8463H         LINE#         337
  -------         ENDPROC       _HEX_ASCII
  -------         PROC          _BYTEHEX_DECIMAL
  D:0001H         SYMBOL        buffer
  D:0005H         SYMBOL        valorhex
  -------         DO            
  X:0011H         SYMBOL        numero
  D:0007H         SYMBOL        centena
  D:0006H         SYMBOL        decena
  -------         ENDDO         
  C:9347H         LINE#         345
  C:9347H         LINE#         346
  C:9347H         LINE#         349
  C:9349H         LINE#         350
  C:934AH         LINE#         351
  C:934FH         LINE#         353
  C:935CH         LINE#         354
  C:935CH         LINE#         355
  C:9360H         LINE#         356
  C:9361H         LINE#         357
  C:9363H         LINE#         358
  C:9369H         LINE#         359
  C:9370H         LINE#         360
  C:937DH         LINE#         361
  C:937DH         LINE#         362
  C:9381H         LINE#         363
  C:9382H         LINE#         364
  C:9384H         LINE#         365
  C:938AH         LINE#         366
  C:9391H         LINE#         367
  C:939AH         LINE#         368
  C:93A1H         LINE#         369
BL51 BANKED LINKER/LOCATER V6.22.2.0                                                  07/21/2020  12:52:08  PAGE 35


  -------         ENDPROC       _BYTEHEX_DECIMAL
  -------         PROC          _TWO_BYTEHEX_DECIMAL
  X:0011H         SYMBOL        buffer
  X:0014H         SYMBOL        id_h
  X:0015H         SYMBOL        id_l
  -------         DO            
  X:0016H         SYMBOL        valor
  D:0006H         SYMBOL        numero
  X:0018H         SYMBOL        temp
  X:0019H         SYMBOL        dmil
  X:001AH         SYMBOL        mil
  X:001BH         SYMBOL        centena
  X:001CH         SYMBOL        decena
  -------         ENDDO         
  C:3858H         LINE#         376
  C:3866H         LINE#         377
  C:3866H         LINE#         381
  C:386DH         LINE#         382
  C:3871H         LINE#         383
  C:3873H         LINE#         384
  C:3875H         LINE#         385
  C:3877H         LINE#         388
  C:387CH         LINE#         389
  C:387FH         LINE#         390
  C:3885H         LINE#         392
  C:38E0H         LINE#         393
  C:38E8H         LINE#         394
  C:38EBH         LINE#         395
  C:3946H         LINE#         397
  C:394EH         LINE#         398
  C:3951H         LINE#         399
  C:3957H         LINE#         400
  C:39B2H         LINE#         401
  C:39BAH         LINE#         402
  C:39BDH         LINE#         403
  C:3A18H         LINE#         404
  C:3A18H         LINE#         406
  C:3A21H         LINE#         407
  C:3A21H         LINE#         408
  C:3A29H         LINE#         409
  C:3A2FH         LINE#         410
  C:3A31H         LINE#         411
  C:3A47H         LINE#         412
  C:3A51H         LINE#         413
  C:3A5AH         LINE#         414
  C:3A5AH         LINE#         415
  C:3A62H         LINE#         416
  C:3A68H         LINE#         417
  C:3A6AH         LINE#         418
  C:3A80H         LINE#         419
  C:3A8AH         LINE#         420
  C:3A93H         LINE#         421
  C:3A93H         LINE#         422
  C:3A9BH         LINE#         423
  C:3AA1H         LINE#         424
  C:3AA3H         LINE#         425
  C:3AB9H         LINE#         426
BL51 BANKED LINKER/LOCATER V6.22.2.0                                                  07/21/2020  12:52:08  PAGE 36


  C:3AC3H         LINE#         427
  C:3ACCH         LINE#         428
  C:3ACCH         LINE#         429
  C:3AD4H         LINE#         430
  C:3ADAH         LINE#         431
  C:3ADCH         LINE#         432
  C:3AF2H         LINE#         433
  C:3AFCH         LINE#         434
  C:3B0FH         LINE#         435
  C:3B19H         LINE#         436
  -------         ENDPROC       _TWO_BYTEHEX_DECIMAL
  -------         PROC          _BLOCK_READ_CLOCK_ASCII
  X:0052H         SYMBOL        datos_clock
  -------         DO            
  D:0007H         SYMBOL        dato
  -------         ENDDO         
  C:502AH         LINE#         442
  C:502DH         LINE#         443
  C:502DH         LINE#         449
  C:5030H         LINE#         450
  C:5048H         LINE#         451
  C:5052H         LINE#         452
  C:5067H         LINE#         453
  C:5071H         LINE#         456
  C:5076H         LINE#         457
  C:508EH         LINE#         458
  C:5098H         LINE#         459
  C:50ADH         LINE#         460
  C:50B7H         LINE#         463
  C:50BCH         LINE#         464
  C:50D4H         LINE#         465
  C:50DEH         LINE#         466
  C:50F3H         LINE#         467
  C:50FDH         LINE#         471
  C:5102H         LINE#         472
  C:511AH         LINE#         473
  C:5124H         LINE#         474
  C:5139H         LINE#         475
  C:5143H         LINE#         478
  C:5148H         LINE#         479
  C:5160H         LINE#         480
  C:516AH         LINE#         481
  C:517FH         LINE#         482
  C:5189H         LINE#         483
  -------         ENDPROC       _BLOCK_READ_CLOCK_ASCII
  -------         PROC          _BLOCK_READ_CLOCK_HEX
  X:00AFH         SYMBOL        datos_clock
  C:7F87H         LINE#         487
  C:7F8AH         LINE#         488
  C:7F8AH         LINE#         491
  C:7F9FH         LINE#         492
  C:7FA9H         LINE#         494
  C:7FC0H         LINE#         495
  C:7FCAH         LINE#         497
  C:7FE1H         LINE#         498
  C:7FEBH         LINE#         500
  C:8002H         LINE#         501
BL51 BANKED LINKER/LOCATER V6.22.2.0                                                  07/21/2020  12:52:08  PAGE 37


  C:800CH         LINE#         503
  C:8023H         LINE#         504
  -------         ENDPROC       _BLOCK_READ_CLOCK_HEX
  -------         PROC          _BLOCK_READ_CLOCK
  X:001EH         SYMBOL        datos_clock
  C:7338H         LINE#         531
  C:733BH         LINE#         532
  C:733BH         LINE#         534
  C:734DH         LINE#         535
  C:7357H         LINE#         537
  C:736BH         LINE#         538
  C:7375H         LINE#         540
  C:7389H         LINE#         541
  C:7393H         LINE#         543
  C:73A7H         LINE#         544
  C:73B1H         LINE#         546
  C:73C5H         LINE#         547
  C:73CFH         LINE#         549
  C:73E3H         LINE#         550
  C:73EDH         LINE#         551
  -------         ENDPROC       _BLOCK_READ_CLOCK
  -------         PROC          COND_INI_CLOCK
  C:A233H         LINE#         554
  C:A233H         LINE#         555
  C:A233H         LINE#         556
  C:A235H         LINE#         557
  C:A237H         LINE#         558
  C:A239H         LINE#         559
  -------         ENDPROC       COND_INI_CLOCK
  -------         PROC          _CHECK_FECHAOUT
  X:009DH         SYMBOL        buffer
  -------         DO            
  X:00A0H         SYMBOL        fecha_inicio
  X:00A4H         SYMBOL        fecha_fin
  X:00A8H         SYMBOL        datos_clk
  X:00AEH         SYMBOL        temp
  -------         ENDDO         
  C:726FH         LINE#         569
  C:727AH         LINE#         570
  C:727AH         LINE#         576
  C:7283H         LINE#         577
  C:72B2H         LINE#         578
  C:7305H         LINE#         581
  C:7325H         LINE#         582
  C:7325H         LINE#         583
  C:732BH         LINE#         584
  C:732DH         LINE#         586
  C:732DH         LINE#         587
  C:7332H         LINE#         588
  C:7332H         LINE#         592
  C:7337H         LINE#         593
  -------         ENDPROC       _CHECK_FECHAOUT
  -------         ENDMOD        CLOCK

  -------         MODULE        DELAY
  C:0000H         SYMBOL        _ICE_DUMMY_
  C:9C9FH         PUBLIC        _Delay_10ms
BL51 BANKED LINKER/LOCATER V6.22.2.0                                                  07/21/2020  12:52:08  PAGE 38


  C:A182H         PUBLIC        _Delay_20us
  C:A111H         PUBLIC        _Delay_1ms
  C:A286H         PUBLIC        Delay
  -------         PROC          _DELAY_20US
  D:0006H         SYMBOL        cntd_us
  -------         DO            
  D:0004H         SYMBOL        i
  -------         ENDDO         
  C:A182H         LINE#         20
  C:A182H         LINE#         21
  C:A182H         LINE#         24
  C:A18CH         LINE#         26
  C:A193H         LINE#         27
  -------         ENDPROC       _DELAY_20US
  -------         PROC          _DELAY_1MS
  D:0002H         SYMBOL        cntd_ms
  -------         DO            
  D:0082H         SYMBOL        i
  -------         ENDDO         
  C:A111H         LINE#         38
  C:A115H         LINE#         39
  C:A115H         LINE#         41
  C:A12BH         LINE#         42
  -------         ENDPROC       _DELAY_1MS
  -------         PROC          _DELAY_10MS
  X:0009H         SYMBOL        cntd_10ms
  -------         DO            
  X:000BH         SYMBOL        i
  -------         ENDDO         
  C:9C9FH         LINE#         54
  C:9CA7H         LINE#         55
  C:9CA7H         LINE#         57
  C:9CD8H         LINE#         58
  -------         ENDPROC       _DELAY_10MS
  -------         PROC          DELAY
  C:A286H         LINE#         60
  C:A286H         LINE#         62
  -------         ENDPROC       DELAY
  -------         ENDMOD        DELAY

  -------         MODULE        EEPROM
  C:0000H         SYMBOL        _ICE_DUMMY_
  D:0090H         PUBLIC        P1
  C:6AD4H         PUBLIC        _Write_EEprom_Ticket
  C:8FE8H         PUBLIC        _EscribirMemoria
  X:01FBH         PUBLIC        l_chr
  C:A059H         PUBLIC        ackd
  B:0021H.5       PUBLIC        memory_flag
  B:00D0H.7       PUBLIC        CY
  C:A26BH         PUBLIC        p_me
  C:A19CH         PUBLIC        start
  B:0090H.2       PUBLIC        sda
  C:A079H         PUBLIC        ack_lect
  B:0090H.3       PUBLIC        scl
  C:9B78H         PUBLIC        _rd_eeprom
  C:A221H         PUBLIC        stop
  X:01FCH         PUBLIC        l_data_eeprom
BL51 BANKED LINKER/LOCATER V6.22.2.0                                                  07/21/2020  12:52:08  PAGE 39


  C:9864H         PUBLIC        _wr_eeprom
  C:921EH         PUBLIC        _LeerMemoria
  C:9D7EH         PUBLIC        Incremente_Ticket
  X:01FDH         PUBLIC        byte_rd
  C:71A5H         PUBLIC        Read_EEprom_Ticket
  C:A034H         PUBLIC        _e_d_m
  C:79FBH         PUBLIC        _graba_serie
  C:9D11H         PUBLIC        Lee_No_Ticket
  C:9660H         PUBLIC        l_d_m
  -------         PROC          L?0058
  -------         ENDPROC       L?0058
  -------         PROC          ACKD
  -------         DO            
  D:0006H         SYMBOL        i
  -------         ENDDO         
  C:A059H         LINE#         35
  C:A059H         LINE#         36
  C:A059H         LINE#         38
  C:A05BH         LINE#         39
  C:A05DH         LINE#         40
  C:A05FH         LINE#         41
  C:A062H         LINE#         42
  C:A062H         LINE#         43
  C:A065H         LINE#         44
  C:A065H         LINE#         45
  C:A067H         LINE#         46
  C:A069H         LINE#         48
  C:A06AH         LINE#         49
  C:A06AH         LINE#         50
  C:A075H         LINE#         52
  C:A075H         LINE#         53
  C:A075H         LINE#         55
  C:A075H         LINE#         56
  -------         ENDPROC       ACKD
  -------         PROC          L?0062
  -------         ENDPROC       L?0062
  -------         PROC          ACK_LECT
  -------         DO            
  D:0006H         SYMBOL        i
  -------         ENDDO         
  C:A079H         LINE#         59
  C:A079H         LINE#         60
  C:A079H         LINE#         62
  C:A07BH         LINE#         63
  C:A07DH         LINE#         64
  C:A07FH         LINE#         65
  C:A082H         LINE#         66
  C:A082H         LINE#         67
  C:A085H         LINE#         68
  C:A085H         LINE#         69
  C:A087H         LINE#         70
  C:A089H         LINE#         71
  C:A08AH         LINE#         72
  C:A08AH         LINE#         73
  C:A095H         LINE#         74
  -------         ENDPROC       ACK_LECT
  -------         PROC          P_ME
BL51 BANKED LINKER/LOCATER V6.22.2.0                                                  07/21/2020  12:52:08  PAGE 40


  C:A26BH         LINE#         76
  C:A26BH         LINE#         77
  C:A26BH         LINE#         78
  C:A26DH         LINE#         79
  C:A26EH         LINE#         80
  C:A270H         LINE#         81
  -------         ENDPROC       P_ME
  -------         PROC          _E_D_M
  D:0007H         SYMBOL        a_serial_eeprom
  -------         DO            
  D:0006H         SYMBOL        nbits
  -------         ENDDO         
  C:A034H         LINE#         83
  C:A034H         LINE#         84
  C:A034H         LINE#         86
  C:A040H         LINE#         87
  C:A040H         LINE#         88
  C:A044H         LINE#         89
  C:A047H         LINE#         90
  C:A047H         LINE#         91
  C:A049H         LINE#         92
  C:A04BH         LINE#         94
  C:A04BH         LINE#         95
  C:A04DH         LINE#         96
  C:A04DH         LINE#         97
  C:A04FH         LINE#         98
  C:A052H         LINE#         99
  C:A055H         LINE#         101
  -------         ENDPROC       _E_D_M
  -------         PROC          L?0059
  -------         ENDPROC       L?0059
  -------         PROC          START
  C:A19CH         LINE#         103
  C:A19CH         LINE#         104
  C:A19CH         LINE#         105
  C:A19EH         LINE#         106
  C:A1A0H         LINE#         107
  C:A1A1H         LINE#         108
  C:A1A3H         LINE#         109
  C:A1A5H         LINE#         111
  -------         ENDPROC       START
  -------         PROC          STOP
  C:A221H         LINE#         113
  C:A221H         LINE#         114
  C:A221H         LINE#         115
  C:A223H         LINE#         116
  C:A225H         LINE#         117
  C:A227H         LINE#         118
  C:A229H         LINE#         120
  -------         ENDPROC       STOP
  -------         PROC          L_D_M
  -------         DO            
  D:0003H         SYMBOL        nbits
  -------         ENDDO         
  C:9660H         LINE#         122
  C:9660H         LINE#         123
  C:9660H         LINE#         125
BL51 BANKED LINKER/LOCATER V6.22.2.0                                                  07/21/2020  12:52:08  PAGE 41


  C:966DH         LINE#         126
  C:966DH         LINE#         127
  C:966FH         LINE#         128
  C:9672H         LINE#         129
  C:9672H         LINE#         130
  C:9679H         LINE#         131
  C:9682H         LINE#         132
  C:9682H         LINE#         133
  C:9686H         LINE#         134
  C:9688H         LINE#         135
  C:9688H         LINE#         136
  C:9688H         LINE#         137
  C:968BH         LINE#         138
  C:968BH         LINE#         139
  C:9692H         LINE#         140
  C:969CH         LINE#         141
  C:969CH         LINE#         142
  C:96A0H         LINE#         143
  C:96A2H         LINE#         144
  C:96A2H         LINE#         145
  C:96A2H         LINE#         146
  C:96A5H         LINE#         147
  C:96A7H         LINE#         148
  C:96ACH         LINE#         149
  -------         ENDPROC       L_D_M
  C:985FH         SYMBOL        L?0056
  C:9860H         SYMBOL        L?0057
  -------         PROC          L?0055
  -------         ENDPROC       L?0055
  C:985FH         SYMBOL        L?0056
  C:9860H         SYMBOL        L?0057
  -------         PROC          _WR_EEPROM
  D:0002H         SYMBOL        control
  D:0004H         SYMBOL        Dir
  D:0003H         SYMBOL        data_eeprom
  -------         DO            
  D:0005H         SYMBOL        dir_h
  D:0001H         SYMBOL        dir_l
  -------         ENDDO         
  C:9864H         LINE#         155
  C:9866H         LINE#         156
  C:9866H         LINE#         158
  C:986AH         LINE#         159
  C:986AH         LINE#         160
  C:986AH         LINE#         163
  C:986AH         LINE#         164
  C:986AH         LINE#         166
  C:986DH         LINE#         167
  C:986FH         LINE#         168
  C:9872H         LINE#         169
  C:9874H         LINE#         170
  C:9877H         LINE#         171
  C:987CH         LINE#         172
  C:987FH         LINE#         173
  C:9884H         LINE#         174
  C:9887H         LINE#         175
  C:988AH         LINE#         176
BL51 BANKED LINKER/LOCATER V6.22.2.0                                                  07/21/2020  12:52:08  PAGE 42


  C:9891H         LINE#         178
  C:9893H         LINE#         179
  C:9895H         LINE#         180
  C:989CH         LINE#         181
  -------         ENDPROC       _WR_EEPROM
  C:9B74H         SYMBOL        L?0061
  -------         PROC          L?0060
  -------         ENDPROC       L?0060
  C:9B74H         SYMBOL        L?0061
  -------         PROC          _RD_EEPROM
  D:0003H         SYMBOL        control
  D:0004H         SYMBOL        Dir
  -------         DO            
  D:0005H         SYMBOL        dir_h
  D:0002H         SYMBOL        dir_l
  -------         ENDDO         
  C:9B78H         LINE#         219
  C:9B7AH         LINE#         220
  C:9B7AH         LINE#         223
  C:9B7EH         LINE#         224
  C:9B7EH         LINE#         225
  C:9B7EH         LINE#         227
  C:9B7EH         LINE#         228
  C:9B7EH         LINE#         230
  C:9B81H         LINE#         231
  C:9B83H         LINE#         232
  C:9B86H         LINE#         233
  C:9B88H         LINE#         234
  C:9B8BH         LINE#         235
  C:9B90H         LINE#         236
  C:9B93H         LINE#         237
  C:9B96H         LINE#         238
  C:9B9CH         LINE#         239
  C:9B9FH         LINE#         240
  C:9BA1H         LINE#         241
  C:9BA4H         LINE#         242
  C:9BA7H         LINE#         243
  C:9BA9H         LINE#         244
  C:9BABH         LINE#         245
  C:9BB0H         LINE#         246
  -------         ENDPROC       _RD_EEPROM
  -------         PROC          _GRABA_SERIE
  X:0011H         SYMBOL        buffer
  -------         DO            
  X:0014H         SYMBOL        j
  X:0015H         SYMBOL        error
  -------         ENDDO         
  C:79FBH         LINE#         253
  C:7A06H         LINE#         254
  C:7A06H         LINE#         257
  C:7A0BH         LINE#         262
  C:7A1DH         LINE#         264
  C:7A30H         LINE#         265
  C:7A30H         LINE#         266
  C:7A59H         LINE#         267
  C:7A59H         LINE#         268
  C:7A5FH         LINE#         270
BL51 BANKED LINKER/LOCATER V6.22.2.0                                                  07/21/2020  12:52:08  PAGE 43


  C:7A68H         LINE#         271
  C:7A76H         LINE#         272
  C:7A7FH         LINE#         273
  C:7A7FH         LINE#         275
  C:7A87H         LINE#         279
  C:7A8DH         LINE#         280
  C:7A8DH         LINE#         281
  C:7A9BH         LINE#         283
  C:7A9BH         LINE#         285
  C:7A9BH         LINE#         286
  C:7AA1H         LINE#         287
  C:7AA5H         LINE#         288
  C:7AB0H         LINE#         289
  C:7AB6H         LINE#         291
  C:7AB6H         LINE#         292
  -------         ENDPROC       _GRABA_SERIE
  -------         PROC          _WRITE_EEPROM_TICKET
  X:0016H         SYMBOL        buffer
  -------         DO            
  X:0019H         SYMBOL        cod_3
  X:001AH         SYMBOL        cod_2
  X:001BH         SYMBOL        cod_1
  X:001CH         SYMBOL        cod_0
  X:001DH         SYMBOL        Noticket
  D:0004H         SYMBOL        Bnoticket
  -------         ENDDO         
  C:6AD4H         LINE#         293
  C:6ADFH         LINE#         294
  C:6ADFH         LINE#         296
  C:6AE7H         LINE#         297
  C:6AF0H         LINE#         298
  C:6AFEH         LINE#         299
  C:6B07H         LINE#         300
  C:6B1BH         LINE#         302
  C:6B24H         LINE#         303
  C:6B37H         LINE#         304
  C:6B3CH         LINE#         305
  C:6B3FH         LINE#         307
  C:6B52H         LINE#         308
  C:6B57H         LINE#         309
  C:6B5AH         LINE#         311
  C:6B6DH         LINE#         312
  C:6B72H         LINE#         313
  C:6B75H         LINE#         315
  C:6B81H         LINE#         316
  C:6B84H         LINE#         317
  C:6B8DH         LINE#         319
  C:6B97H         LINE#         320
  C:6B9EH         LINE#         321
  C:6BACH         LINE#         322
  -------         ENDPROC       _WRITE_EEPROM_TICKET
  -------         PROC          LEE_NO_TICKET
  -------         DO            
  D:0004H         SYMBOL        Noticket
  X:000DH         SYMBOL        Lee_No_Ticket
  -------         ENDDO         
  C:9D11H         LINE#         327
BL51 BANKED LINKER/LOCATER V6.22.2.0                                                  07/21/2020  12:52:08  PAGE 44


  C:9D11H         LINE#         328
  C:9D11H         LINE#         331
  C:9D14H         LINE#         332
  C:9D2FH         LINE#         333
  C:9D38H         LINE#         334
  C:9D41H         LINE#         335
  C:9D47H         LINE#         336
  -------         ENDPROC       LEE_NO_TICKET
  -------         PROC          READ_EEPROM_TICKET
  -------         DO            
  D:0001H         SYMBOL        cod3
  X:0018H         SYMBOL        cod2
  X:0019H         SYMBOL        cod1
  X:001AH         SYMBOL        cod0
  X:001BH         SYMBOL        Noticket
  -------         ENDDO         
  C:71A5H         LINE#         340
  C:71A5H         LINE#         341
  C:71A5H         LINE#         343
  C:71AFH         LINE#         344
  C:71B6H         LINE#         345
  C:71C0H         LINE#         346
  C:71CEH         LINE#         347
  C:71D8H         LINE#         349
  C:71F8H         LINE#         350
  C:721DH         LINE#         351
  C:7242H         LINE#         352
  C:7260H         LINE#         353
  C:726EH         LINE#         354
  -------         ENDPROC       READ_EEPROM_TICKET
  -------         PROC          INCREMENTE_TICKET
  -------         DO            
  D:0004H         SYMBOL        Noticket
  X:0006H         SYMBOL        Lee_No_Ticket
  -------         ENDDO         
  C:9D7EH         LINE#         358
  C:9D7EH         LINE#         359
  C:9D7EH         LINE#         363
  C:9D81H         LINE#         364
  C:9D8EH         LINE#         365
  C:9DA9H         LINE#         366
  -------         ENDPROC       INCREMENTE_TICKET
  -------         PROC          _LEERMEMORIA
  X:009DH         SYMBOL        addres
  X:009FH         SYMBOL        res
  -------         DO            
  D:0007H         SYMBOL        i
  -------         ENDDO         
  C:921EH         LINE#         372
  C:922FH         LINE#         373
  C:922FH         LINE#         375
  C:922FH         LINE#         376
  C:924BH         LINE#         377
  C:925AH         LINE#         378
  C:9268H         LINE#         379
  C:9272H         LINE#         380
  C:9275H         LINE#         381
BL51 BANKED LINKER/LOCATER V6.22.2.0                                                  07/21/2020  12:52:08  PAGE 45


  -------         ENDPROC       _LEERMEMORIA
  -------         PROC          _ESCRIBIRMEMORIA
  X:005EH         SYMBOL        addres
  X:0060H         SYMBOL        res
  C:8FE8H         LINE#         383
  C:8FF9H         LINE#         384
  C:8FF9H         LINE#         387
  C:9009H         LINE#         388
  C:9010H         LINE#         389
  C:902AH         LINE#         391
  C:9038H         LINE#         392
  C:9042H         LINE#         393
  C:9044H         LINE#         394
  -------         ENDPROC       _ESCRIBIRMEMORIA
  -------         ENDMOD        EEPROM

  -------         MODULE        IO_SENSORES
  C:0000H         SYMBOL        _ICE_DUMMY_
  D:0090H         PUBLIC        P1
  D:00B0H         PUBLIC        P3
  C:9973H         PUBLIC        Dir_board
  C:A248H         PUBLIC        sel_Pulsa
  B:0090H.1       PUBLIC        DataIn
  C:A241H         PUBLIC        sel_Auto
  C:9CD9H         PUBLIC        ValidaSensoresPaso
  B:00B0H.3       PUBLIC        busy
  C:A096H         PUBLIC        ValidaSensor
  C:A256H         PUBLIC        sel_Sensor1
  C:A24FH         PUBLIC        sel_Sensor2
  C:9514H         PUBLIC        Valida_Sensor1_Auto
  B:00B0H.5       PUBLIC        sel_A
  B:00B0H.6       PUBLIC        sel_B
  B:00B0H.7       PUBLIC        sel_C
  C:8BFDH         PUBLIC        msj_lcd_informativo
  C:A25DH         PUBLIC        sel_Dir1
  C:A264H         PUBLIC        sel_Dir2
  C:A23AH         PUBLIC        sel_Funcion
  -------         PROC          SEL_FUNCION
  C:A23AH         LINE#         31
  C:A23AH         LINE#         32
  C:A23AH         LINE#         33
  C:A23CH         LINE#         34
  C:A23EH         LINE#         35
  C:A240H         LINE#         36
  -------         ENDPROC       SEL_FUNCION
  -------         PROC          SEL_AUTO
  C:A241H         LINE#         38
  C:A241H         LINE#         39
  C:A241H         LINE#         40
  C:A243H         LINE#         41
  C:A245H         LINE#         42
  C:A247H         LINE#         43
  -------         ENDPROC       SEL_AUTO
  -------         PROC          SEL_PULSA
  C:A248H         LINE#         45
  C:A248H         LINE#         46
  C:A248H         LINE#         47
BL51 BANKED LINKER/LOCATER V6.22.2.0                                                  07/21/2020  12:52:08  PAGE 46


  C:A24AH         LINE#         48
  C:A24CH         LINE#         49
  C:A24EH         LINE#         50
  -------         ENDPROC       SEL_PULSA
  -------         PROC          SEL_SENSOR2
  C:A24FH         LINE#         53
  C:A24FH         LINE#         54
  C:A24FH         LINE#         55
  C:A251H         LINE#         56
  C:A253H         LINE#         57
  C:A255H         LINE#         58
  -------         ENDPROC       SEL_SENSOR2
  -------         PROC          SEL_SENSOR1
  C:A256H         LINE#         60
  C:A256H         LINE#         61
  C:A256H         LINE#         62
  C:A258H         LINE#         63
  C:A25AH         LINE#         64
  C:A25CH         LINE#         65
  -------         ENDPROC       SEL_SENSOR1
  -------         PROC          SEL_DIR1
  C:A25DH         LINE#         67
  C:A25DH         LINE#         68
  C:A25DH         LINE#         69
  C:A25FH         LINE#         70
  C:A261H         LINE#         71
  C:A263H         LINE#         72
  -------         ENDPROC       SEL_DIR1
  -------         PROC          SEL_DIR2
  C:A264H         LINE#         74
  C:A264H         LINE#         75
  C:A264H         LINE#         76
  C:A266H         LINE#         77
  C:A268H         LINE#         78
  C:A26AH         LINE#         79
  -------         ENDPROC       SEL_DIR2
  -------         PROC          VALIDASENSOR
  -------         DO            
  D:0007H         SYMBOL        Valido
  D:0004H         SYMBOL        Tmin
  -------         ENDDO         
  C:A096H         LINE#         81
  C:A096H         LINE#         82
  C:A096H         LINE#         84
  C:A098H         LINE#         85
  C:A09CH         LINE#         86
  C:A0A7H         LINE#         87
  C:A0A7H         LINE#         88
  C:A0ACH         LINE#         89
  C:A0B0H         LINE#         90
  C:A0B0H         LINE#         91
  C:A0B2H         LINE#         92
  C:A0B2H         LINE#         93
  C:A0B4H         LINE#         94
  C:A0B4H         LINE#         95
  -------         ENDPROC       VALIDASENSOR
  -------         PROC          DIR_BOARD
BL51 BANKED LINKER/LOCATER V6.22.2.0                                                  07/21/2020  12:52:08  PAGE 47


  -------         DO            
  X:0033H         SYMBOL        Board
  D:0007H         SYMBOL        Board_High
  -------         ENDDO         
  C:9973H         LINE#         99
  C:9973H         LINE#         100
  C:9973H         LINE#         101
  C:9979H         LINE#         103
  C:997CH         LINE#         104
  C:997FH         LINE#         105
  C:997FH         LINE#         106
  C:9982H         LINE#         107
  C:9982H         LINE#         108
  C:9985H         LINE#         109
  C:9988H         LINE#         110
  C:9988H         LINE#         111
  C:998FH         LINE#         112
  C:998FH         LINE#         113
  C:9997H         LINE#         114
  C:9997H         LINE#         115
  C:999FH         LINE#         117
  C:99A2H         LINE#         118
  C:99A2H         LINE#         119
  C:99A8H         LINE#         120
  C:99A8H         LINE#         121
  C:99AAH         LINE#         122
  C:99ACH         LINE#         123
  C:99AEH         LINE#         124
  C:99AEH         LINE#         126
  C:99AEH         LINE#         127
  C:99B5H         LINE#         128
  -------         ENDPROC       DIR_BOARD
  -------         PROC          VALIDA_SENSOR1_AUTO
  -------         DO            
  X:0012H         SYMBOL        sensor
  -------         ENDDO         
  C:9514H         LINE#         132
  C:9514H         LINE#         133
  C:9514H         LINE#         135
  C:9517H         LINE#         136
  C:951AH         LINE#         137
  C:951DH         LINE#         138
  C:9522H         LINE#         139
  C:9522H         LINE#         140
  C:9529H         LINE#         141
  C:952DH         LINE#         142
  C:952DH         LINE#         144
  C:952FH         LINE#         146
  C:952FH         LINE#         147
  C:9536H         LINE#         148
  C:953BH         LINE#         149
  C:953BH         LINE#         150
  C:953BH         LINE#         153
  C:953DH         LINE#         155
  C:9540H         LINE#         156
  C:9545H         LINE#         157
  C:9545H         LINE#         159
BL51 BANKED LINKER/LOCATER V6.22.2.0                                                  07/21/2020  12:52:08  PAGE 48


  C:954CH         LINE#         160
  C:9552H         LINE#         161
  C:9558H         LINE#         162
  C:955AH         LINE#         164
  C:955AH         LINE#         165
  C:9561H         LINE#         166
  C:9566H         LINE#         167
  C:9566H         LINE#         170
  C:9566H         LINE#         171
  C:956BH         LINE#         172
  -------         ENDPROC       VALIDA_SENSOR1_AUTO
  -------         PROC          VALIDASENSORESPASO
  -------         DO            
  X:0011H         SYMBOL        sensor
  -------         ENDDO         
  C:9CD9H         LINE#         177
  C:9CD9H         LINE#         178
  C:9CD9H         LINE#         180
  C:9CDCH         LINE#         181
  C:9CDFH         LINE#         182
  C:9CDFH         LINE#         183
  C:9CEDH         LINE#         184
  C:9CEDH         LINE#         185
  C:9CF5H         LINE#         187
  C:9CF7H         LINE#         189
  C:9CF7H         LINE#         190
  C:9CFDH         LINE#         191
  C:9CFFH         LINE#         192
  C:9CFFH         LINE#         193
  C:9CFFH         LINE#         194
  C:9CFFH         LINE#         195
  C:9D08H         LINE#         196
  C:9D0BH         LINE#         197
  C:9D0BH         LINE#         198
  C:9D10H         LINE#         199
  -------         ENDPROC       VALIDASENSORESPASO
  -------         PROC          MSJ_LCD_INFORMATIVO
  -------         DO            
  X:0002H         SYMBOL        info
  X:0206H         SYMBOL        toggle
  -------         ENDDO         
  C:8BFDH         LINE#         209
  C:8BFDH         LINE#         210
  C:8BFDH         LINE#         211
  C:8C02H         LINE#         213
  C:8C05H         LINE#         214
  C:8C08H         LINE#         215
  C:8C08H         LINE#         216
  C:8C14H         LINE#         217
  C:8C14H         LINE#         218
  C:8C17H         LINE#         219
  C:8C17H         LINE#         220
  C:8C19H         LINE#         221
  C:8C1CH         LINE#         222
  C:8C22H         LINE#         223
  C:8C22H         LINE#         224
  C:8C24H         LINE#         225
BL51 BANKED LINKER/LOCATER V6.22.2.0                                                  07/21/2020  12:52:08  PAGE 49


  C:8C32H         LINE#         226
  C:8C32H         LINE#         227
  C:8C35H         LINE#         228
  C:8C35H         LINE#         229
  C:8C37H         LINE#         230
  C:8C3AH         LINE#         231
  C:8C40H         LINE#         232
  C:8C40H         LINE#         233
  C:8C42H         LINE#         234
  C:8C50H         LINE#         235
  C:8C50H         LINE#         236
  C:8C53H         LINE#         237
  C:8C53H         LINE#         238
  C:8C55H         LINE#         239
  C:8C63H         LINE#         240
  C:8C63H         LINE#         241
  C:8C65H         LINE#         242
  C:8C6CH         LINE#         244
  C:8C71H         LINE#         245
  C:8C71H         LINE#         247
  C:8C71H         LINE#         249
  C:8C71H         LINE#         251
  C:8C74H         LINE#         252
  C:8C77H         LINE#         253
  C:8C77H         LINE#         254
  C:8C7CH         LINE#         255
  C:8C7CH         LINE#         257
  -------         ENDPROC       MSJ_LCD_INFORMATIVO
  -------         ENDMOD        IO_SENSORES

  -------         MODULE        PANTALLAS
  C:0000H         SYMBOL        _ICE_DUMMY_
  D:0080H         PUBLIC        P0
  C:956CH         PUBLIC        Reloj_Pantalla_Lcd
  C:2762H         PUBLIC        _PantallaLCD
  C:9937H         PUBLIC        _LCD_txt
  C:9460H         PUBLIC        _Raspberry_data
  C:9F81H         PUBLIC        _tx_chrlcd
  C:2749H         SYMBOL        _?ix1000
  C:2756H         SYMBOL        _?ix1001
  C:275CH         SYMBOL        _?ix1002
  C:98A3H         PUBLIC        _LCD_txt_num_char
  C:45F3H         PUBLIC        _PantallaLCD_LINEA_2
  B:0098H.4       PUBLIC        REN
  B:0080H.7       PUBLIC        sel_com
  C:9F78H         SYMBOL        L?0153
  C:9F7BH         SYMBOL        L?0154
  C:9F7CH         SYMBOL        L?0155
  -------         PROC          L?0152
  -------         ENDPROC       L?0152
  C:9F78H         SYMBOL        L?0153
  C:9F7BH         SYMBOL        L?0154
  C:9F7CH         SYMBOL        L?0155
  -------         PROC          _TX_CHRLCD
  D:0007H         SYMBOL        data_com
  X:004BH         SYMBOL        enable_char_add
  -------         DO            
BL51 BANKED LINKER/LOCATER V6.22.2.0                                                  07/21/2020  12:52:08  PAGE 50


  X:004CH         SYMBOL        d
  -------         ENDDO         
  C:9F81H         LINE#         77
  C:9F86H         LINE#         78
  C:9F86H         LINE#         80
  C:9F8EH         LINE#         81
  C:9F9EH         LINE#         83
  -------         ENDPROC       _TX_CHRLCD
  -------         PROC          L?0156
  -------         ENDPROC       L?0156
  -------         PROC          _LCD_TXT
  X:0046H         SYMBOL        msg
  X:0049H         SYMBOL        enable_char_add
  -------         DO            
  X:004AH         SYMBOL        i
  -------         ENDDO         
  C:9937H         LINE#         90
  C:9945H         LINE#         91
  C:9945H         LINE#         94
  C:9962H         LINE#         95
  C:9962H         LINE#         96
  C:996AH         LINE#         97
  C:9972H         LINE#         98
  -------         ENDPROC       _LCD_TXT
  -------         PROC          _LCD_TXT_NUM_CHAR
  X:001EH         SYMBOL        msg
  X:0021H         SYMBOL        length_char
  X:0022H         SYMBOL        enable_char_add
  -------         DO            
  X:0023H         SYMBOL        i
  -------         ENDDO         
  C:98A3H         LINE#         105
  C:98B1H         LINE#         106
  C:98B1H         LINE#         109
  C:98C4H         LINE#         110
  C:98C4H         LINE#         111
  C:98E0H         LINE#         112
  C:98E8H         LINE#         113
  -------         ENDPROC       _LCD_TXT_NUM_CHAR
  -------         PROC          _RASPBERRY_DATA
  X:0046H         SYMBOL        msg
  -------         DO            
  X:0207H         SYMBOL        i
  X:0049H         SYMBOL        lenth_cadena
  X:004AH         SYMBOL        d
  -------         ENDDO         
  C:9460H         LINE#         118
  C:946BH         LINE#         119
  C:946BH         LINE#         124
  C:9473H         LINE#         129
  C:9491H         LINE#         130
  C:9491H         LINE#         131
  C:94A8H         LINE#         132
  C:94B2H         LINE#         133
  C:94BAH         LINE#         137
  -------         ENDPROC       _RASPBERRY_DATA
  -------         PROC          RELOJ_PANTALLA_LCD
BL51 BANKED LINKER/LOCATER V6.22.2.0                                                  07/21/2020  12:52:08  PAGE 51


  -------         DO            
  X:0011H         SYMBOL        Ini_Clock_LCD
  -------         ENDDO         
  C:956CH         LINE#         146
  C:956CH         LINE#         147
  C:956CH         LINE#         149
  C:957FH         LINE#         150
  C:9585H         LINE#         151
  C:9585H         LINE#         152
  C:9587H         LINE#         153
  C:9590H         LINE#         157
  C:9592H         LINE#         158
  C:95A2H         LINE#         160
  C:95A4H         LINE#         161
  C:95A6H         LINE#         163
  C:95A7H         LINE#         165
  C:95A7H         LINE#         166
  C:95A9H         LINE#         167
  C:95AEH         LINE#         168
  C:95B7H         LINE#         169
  C:95C0H         LINE#         170
  C:95C2H         LINE#         171
  C:95C2H         LINE#         172
  -------         ENDPROC       RELOJ_PANTALLA_LCD
  -------         PROC          _PANTALLALCD
  X:002BH         SYMBOL        cod_msg
  -------         DO            
  X:002CH         SYMBOL        Ini_LCD_Line_one
  X:0032H         SYMBOL        num_chr
  -------         ENDDO         
  C:2762H         LINE#         176
  C:2767H         LINE#         177
  C:2767H         LINE#         179
  C:277AH         LINE#         186
  C:277CH         LINE#         188
  C:2785H         LINE#         189
  C:2785H         LINE#         190
  C:278FH         LINE#         192
  C:27EBH         LINE#         193
  C:27EBH         LINE#         195
  C:27EBH         LINE#         196
  C:27F9H         LINE#         197
  C:27FFH         LINE#         198
  C:2802H         LINE#         199
  C:2808H         LINE#         200
  C:280BH         LINE#         202
  C:280BH         LINE#         204
  C:2819H         LINE#         205
  C:281FH         LINE#         206
  C:2822H         LINE#         207
  C:2828H         LINE#         208
  C:282BH         LINE#         210
  C:282BH         LINE#         212
  C:2839H         LINE#         213
  C:283FH         LINE#         214
  C:2842H         LINE#         215
  C:2848H         LINE#         216
BL51 BANKED LINKER/LOCATER V6.22.2.0                                                  07/21/2020  12:52:08  PAGE 52


  C:284BH         LINE#         217
  C:284BH         LINE#         218
  C:2859H         LINE#         219
  C:285FH         LINE#         220
  C:2862H         LINE#         221
  C:2868H         LINE#         222
  C:286BH         LINE#         223
  C:286BH         LINE#         224
  C:2879H         LINE#         225
  C:287FH         LINE#         226
  C:2882H         LINE#         227
  C:2888H         LINE#         228
  C:288BH         LINE#         229
  C:288BH         LINE#         230
  C:2899H         LINE#         231
  C:289FH         LINE#         232
  C:28A2H         LINE#         233
  C:28A8H         LINE#         234
  C:28ABH         LINE#         235
  C:28ABH         LINE#         237
  C:28B9H         LINE#         238
  C:28BFH         LINE#         239
  C:28C2H         LINE#         240
  C:28C8H         LINE#         241
  C:28CBH         LINE#         242
  C:28CBH         LINE#         248
  C:28CBH         LINE#         249
  C:28D9H         LINE#         250
  C:28DFH         LINE#         251
  C:28E2H         LINE#         252
  C:28E8H         LINE#         253
  C:28EBH         LINE#         254
  C:28EBH         LINE#         255
  C:28F9H         LINE#         256
  C:28FFH         LINE#         257
  C:2902H         LINE#         258
  C:2908H         LINE#         259
  C:290BH         LINE#         261
  C:290BH         LINE#         262
  C:2919H         LINE#         263
  C:291FH         LINE#         264
  C:2922H         LINE#         265
  C:2928H         LINE#         266
  C:292BH         LINE#         268
  C:292BH         LINE#         269
  C:2939H         LINE#         270
  C:293FH         LINE#         271
  C:2942H         LINE#         272
  C:2948H         LINE#         273
  C:294BH         LINE#         278
  C:294BH         LINE#         280
  C:2959H         LINE#         281
  C:295FH         LINE#         282
  C:2962H         LINE#         283
  C:2968H         LINE#         284
  C:296BH         LINE#         285
  C:296BH         LINE#         287
BL51 BANKED LINKER/LOCATER V6.22.2.0                                                  07/21/2020  12:52:08  PAGE 53


  C:2979H         LINE#         288
  C:297FH         LINE#         289
  C:2982H         LINE#         290
  C:2988H         LINE#         291
  C:298BH         LINE#         292
  C:298BH         LINE#         294
  C:2999H         LINE#         295
  C:299FH         LINE#         296
  C:29A2H         LINE#         297
  C:29A8H         LINE#         298
  C:29ABH         LINE#         299
  C:29ABH         LINE#         301
  C:29B9H         LINE#         302
  C:29BFH         LINE#         303
  C:29C2H         LINE#         304
  C:29C8H         LINE#         305
  C:29CBH         LINE#         307
  C:29CBH         LINE#         309
  C:29D9H         LINE#         310
  C:29DFH         LINE#         311
  C:29E2H         LINE#         312
  C:29E8H         LINE#         313
  C:29EBH         LINE#         315
  C:29EBH         LINE#         316
  C:29F9H         LINE#         317
  C:29FFH         LINE#         318
  C:2A02H         LINE#         319
  C:2A08H         LINE#         320
  C:2A0BH         LINE#         321
  C:2A0BH         LINE#         322
  C:2A19H         LINE#         323
  C:2A1FH         LINE#         324
  C:2A22H         LINE#         325
  C:2A28H         LINE#         326
  C:2A2BH         LINE#         327
  C:2A2BH         LINE#         328
  C:2A39H         LINE#         329
  C:2A3FH         LINE#         330
  C:2A42H         LINE#         331
  C:2A48H         LINE#         332
  C:2A4BH         LINE#         333
  C:2A4BH         LINE#         334
  C:2A59H         LINE#         335
  C:2A5FH         LINE#         336
  C:2A62H         LINE#         337
  C:2A68H         LINE#         338
  C:2A6BH         LINE#         339
  C:2A6BH         LINE#         340
  C:2A79H         LINE#         341
  C:2A7FH         LINE#         342
  C:2A82H         LINE#         343
  C:2A88H         LINE#         344
  C:2A8BH         LINE#         346
  C:2A8BH         LINE#         347
  C:2A99H         LINE#         348
  C:2A9FH         LINE#         349
  C:2AA2H         LINE#         350
BL51 BANKED LINKER/LOCATER V6.22.2.0                                                  07/21/2020  12:52:08  PAGE 54


  C:2AA8H         LINE#         351
  C:2AABH         LINE#         352
  C:2AABH         LINE#         353
  C:2AB9H         LINE#         354
  C:2ABFH         LINE#         355
  C:2AC2H         LINE#         356
  C:2AC8H         LINE#         357
  C:2ACAH         LINE#         358
  C:2ACAH         LINE#         359
  C:2AD8H         LINE#         360
  C:2ADEH         LINE#         361
  C:2AE1H         LINE#         362
  C:2AE7H         LINE#         363
  C:2AE9H         LINE#         364
  C:2AE9H         LINE#         365
  C:2AF7H         LINE#         366
  C:2AFDH         LINE#         367
  C:2B00H         LINE#         368
  C:2B06H         LINE#         369
  C:2B08H         LINE#         370
  C:2B08H         LINE#         371
  C:2B16H         LINE#         372
  C:2B19H         LINE#         373
  C:2B24H         LINE#         374
  C:2B24H         LINE#         376
  C:2B24H         LINE#         378
  C:2B24H         LINE#         379
  C:2B24H         LINE#         380
  C:2B26H         LINE#         382
  C:2B27H         LINE#         384
  C:2B27H         LINE#         385
  C:2B29H         LINE#         386
  C:2B88H         LINE#         387
  C:2B88H         LINE#         390
  C:2B88H         LINE#         391
  C:2B8EH         LINE#         392
  C:2B91H         LINE#         393
  C:2B91H         LINE#         395
  C:2B97H         LINE#         396
  C:2B9AH         LINE#         398
  C:2B9AH         LINE#         400
  C:2BA0H         LINE#         401
  C:2BA3H         LINE#         402
  C:2BA3H         LINE#         403
  C:2BA9H         LINE#         404
  C:2BACH         LINE#         405
  C:2BACH         LINE#         406
  C:2BB2H         LINE#         407
  C:2BB5H         LINE#         408
  C:2BB5H         LINE#         409
  C:2BBBH         LINE#         410
  C:2BBEH         LINE#         411
  C:2BBEH         LINE#         413
  C:2BC4H         LINE#         414
  C:2BC7H         LINE#         415
  C:2BC7H         LINE#         416
  C:2BCDH         LINE#         417
BL51 BANKED LINKER/LOCATER V6.22.2.0                                                  07/21/2020  12:52:08  PAGE 55


  C:2BD0H         LINE#         419
  C:2BD0H         LINE#         420
  C:2BD6H         LINE#         421
  C:2BD9H         LINE#         423
  C:2BD9H         LINE#         424
  C:2BDFH         LINE#         425
  C:2BE2H         LINE#         427
  C:2BE2H         LINE#         428
  C:2BE8H         LINE#         429
  C:2BEBH         LINE#         431
  C:2BEBH         LINE#         432
  C:2BF1H         LINE#         433
  C:2BF4H         LINE#         437
  C:2BF4H         LINE#         439
  C:2BFAH         LINE#         440
  C:2BFCH         LINE#         441
  C:2BFCH         LINE#         443
  C:2C02H         LINE#         444
  C:2C04H         LINE#         446
  C:2C04H         LINE#         447
  C:2C0AH         LINE#         448
  C:2C0CH         LINE#         450
  C:2C0CH         LINE#         452
  C:2C12H         LINE#         453
  C:2C14H         LINE#         454
  C:2C14H         LINE#         455
  C:2C1AH         LINE#         456
  C:2C1CH         LINE#         458
  C:2C1CH         LINE#         460
  C:2C22H         LINE#         461
  C:2C24H         LINE#         462
  C:2C24H         LINE#         463
  C:2C2AH         LINE#         464
  C:2C2CH         LINE#         465
  C:2C2CH         LINE#         466
  C:2C32H         LINE#         467
  C:2C34H         LINE#         468
  C:2C34H         LINE#         469
  C:2C3AH         LINE#         470
  C:2C3CH         LINE#         471
  C:2C3CH         LINE#         472
  C:2C42H         LINE#         473
  C:2C44H         LINE#         474
  C:2C44H         LINE#         475
  C:2C4AH         LINE#         476
  C:2C4CH         LINE#         477
  C:2C4CH         LINE#         479
  C:2C4CH         LINE#         480
  C:2C52H         LINE#         481
  C:2C54H         LINE#         482
  C:2C54H         LINE#         483
  C:2C5AH         LINE#         484
  C:2C5CH         LINE#         485
  C:2C5CH         LINE#         486
  C:2C62H         LINE#         487
  C:2C64H         LINE#         489
  C:2C64H         LINE#         490
BL51 BANKED LINKER/LOCATER V6.22.2.0                                                  07/21/2020  12:52:08  PAGE 56


  C:2C6AH         LINE#         491
  C:2C6CH         LINE#         492
  C:2C6CH         LINE#         493
  C:2C72H         LINE#         495
  C:2C74H         LINE#         496
  C:2C74H         LINE#         497
  C:2C7DH         LINE#         498
  C:2C7DH         LINE#         500
  C:2C7DH         LINE#         501
  C:2C7DH         LINE#         502
  C:2C7FH         LINE#         503
  C:2C7FH         LINE#         507
  -------         ENDPROC       _PANTALLALCD
  -------         PROC          _PANTALLALCD_LINEA_2
  X:0011H         SYMBOL        cod_msg
  X:0012H         SYMBOL        buffer
  -------         DO            
  X:0015H         SYMBOL        Ini_LCD_Line_one
  X:001BH         SYMBOL        num_chr
  X:001CH         SYMBOL        buf
  -------         ENDDO         
  C:45F3H         LINE#         508
  C:4601H         LINE#         509
  C:4601H         LINE#         511
  C:4614H         LINE#         518
  C:4616H         LINE#         520
  C:461FH         LINE#         521
  C:461FH         LINE#         524
  C:462DH         LINE#         525
  C:462DH         LINE#         527
  C:462DH         LINE#         528
  C:4630H         LINE#         529
  C:463EH         LINE#         530
  C:4653H         LINE#         531
  C:4659H         LINE#         532
  C:465FH         LINE#         533
  C:4665H         LINE#         534
  C:4665H         LINE#         535
  C:4667H         LINE#         536
  C:4667H         LINE#         537
  C:466AH         LINE#         538
  C:4678H         LINE#         539
  C:468DH         LINE#         540
  C:4693H         LINE#         541
  C:4699H         LINE#         542
  C:46A4H         LINE#         543
  C:46B4H         LINE#         544
  C:46B4H         LINE#         548
  C:46B4H         LINE#         550
  C:46B4H         LINE#         552
  C:46B4H         LINE#         553
  C:46B6H         LINE#         554
  C:46B7H         LINE#         556
  C:46B7H         LINE#         557
  C:46B9H         LINE#         558
  C:46D3H         LINE#         559
  C:46D3H         LINE#         560
BL51 BANKED LINKER/LOCATER V6.22.2.0                                                  07/21/2020  12:52:08  PAGE 57


  C:46D3H         LINE#         562
  C:46E2H         LINE#         563
  C:46E2H         LINE#         564
  C:46E2H         LINE#         565
  C:46E2H         LINE#         567
  C:46E5H         LINE#         569
  C:46E5H         LINE#         570
  C:46F4H         LINE#         571
  C:4707H         LINE#         572
  C:4721H         LINE#         573
  C:4721H         LINE#         574
  C:4721H         LINE#         575
  C:4721H         LINE#         576
  C:4723H         LINE#         577
  C:4723H         LINE#         578
  C:4732H         LINE#         579
  C:4745H         LINE#         580
  C:475FH         LINE#         581
  C:475FH         LINE#         582
  C:475FH         LINE#         583
  C:475FH         LINE#         584
  C:4761H         LINE#         585
  C:4761H         LINE#         586
  C:4770H         LINE#         587
  C:4783H         LINE#         588
  C:479DH         LINE#         589
  C:47BBH         LINE#         590
  C:47D2H         LINE#         591
  C:47DBH         LINE#         592
  C:47DBH         LINE#         594
  C:47DBH         LINE#         596
  C:47DBH         LINE#         597
  C:47DBH         LINE#         598
  C:47DDH         LINE#         599
  C:47DDH         LINE#         602
  -------         ENDPROC       _PANTALLALCD_LINEA_2
  -------         ENDMOD        PANTALLAS

  -------         MODULE        PROG
  C:0000H         SYMBOL        _ICE_DUMMY_
  C:43FEH         PUBLIC        Prog_fecha_vencimiento
  C:56CDH         PUBLIC        Prog_Sin_Cobro
  C:6306H         PUBLIC        Prog_debug
  C:65FAH         PUBLIC        Prog_AntiPassBack
  C:862FH         PUBLIC        _GetOption
  X:01A0H         PUBLIC        validacion
  C:67F2H         PUBLIC        Prog_Validar_Tipo_Vehiculo_Mensual
  X:01ABH         PUBLIC        cursor
  C:5CB9H         PUBLIC        _Prog_Horarios_on_off
  C:86ACH         PUBLIC        Show
  C:9DB2H         PUBLIC        Addr_Horarios
  C:7B71H         PUBLIC        prog_id_cliente
  C:99BEH         PUBLIC        _ValidarClave
  C:3DDFH         PUBLIC        menu
  C:6402H         PUBLIC        Prog_Use_Lpr
  C:9284H         PUBLIC        _ListaComandos
  C:0E33H         SYMBOL        _?ix1000
BL51 BANKED LINKER/LOCATER V6.22.2.0                                                  07/21/2020  12:52:08  PAGE 58


  C:0E3EH         SYMBOL        _?ix1001
  C:0E4EH         SYMBOL        _?ix1002
  C:0E5EH         SYMBOL        _?ix1003
  C:0E62H         SYMBOL        _?ix1004
  C:5446H         PUBLIC        Prog_Horarios
  C:0E66H         SYMBOL        _?ix1005
  C:68EEH         PUBLIC        Prog_Apb_Mensual
  C:7583H         PUBLIC        Prog_tarjeta_automatica_o_boton
  C:3FFEH         PUBLIC        _hash_id
  C:3B28H         PUBLIC        _Prog_Horario_dias
  C:793EH         PUBLIC        Prog_tiempo_gracia
  C:8C85H         PUBLIC        _IngresaDato
  X:01BFH         PUBLIC        comandos
  C:9741H         PUBLIC        First_Clave
  C:A12CH         PUBLIC        DisplayCursor
  C:66F6H         PUBLIC        Prog_Placa
  C:7881H         PUBLIC        prog_cod_park
  C:4204H         PUBLIC        _Prog_Horario_Desde_Hasta
  C:64FEH         PUBLIC        tipo_pantalla
  C:6C9EH         PUBLIC        Prog_Address_High_Board
  C:9A80H         PUBLIC        _GetCMD
  -------         PROC          _HASH_ID
  X:005EH         SYMBOL        clave
  -------         DO            
  X:0061H         SYMBOL        len_clave
  X:0062H         SYMBOL        i
  X:019CH         SYMBOL        temp
  X:019EH         SYMBOL        temp1
  X:0063H         SYMBOL        aleatorio
  X:006EH         SYMBOL        suma
  X:007EH         SYMBOL        xxor
  X:008EH         SYMBOL        usuario1
  X:0099H         SYMBOL        vencimiento_password
  -------         ENDDO         
  C:3FFEH         LINE#         120
  C:4009H         LINE#         121
  C:4009H         LINE#         124
  C:401CH         LINE#         126
  C:402FH         LINE#         127
  C:4042H         LINE#         131
  C:404FH         LINE#         132
  C:406BH         LINE#         134
  C:406BH         LINE#         135
  C:406FH         LINE#         136
  C:4071H         LINE#         138
  C:4071H         LINE#         139
  C:4078H         LINE#         140
  C:4078H         LINE#         141
  C:408BH         LINE#         142
  C:409DH         LINE#         143
  C:409DH         LINE#         144
  C:40C9H         LINE#         145
  C:40D4H         LINE#         146
  C:40E1H         LINE#         147
  C:40FFH         LINE#         148
  C:410AH         LINE#         149
  C:4117H         LINE#         150
BL51 BANKED LINKER/LOCATER V6.22.2.0                                                  07/21/2020  12:52:08  PAGE 59


  C:413BH         LINE#         151
  C:4143H         LINE#         152
  C:4143H         LINE#         153
  C:4148H         LINE#         154
  C:4148H         LINE#         155
  C:4161H         LINE#         156
  C:4161H         LINE#         157
  C:416DH         LINE#         159
  C:416DH         LINE#         160
  C:417CH         LINE#         161
  C:417CH         LINE#         162
  C:4188H         LINE#         163
  C:4188H         LINE#         164
  C:41A1H         LINE#         165
  C:41A1H         LINE#         166
  C:41ACH         LINE#         167
  C:41ACH         LINE#         168
  C:41C5H         LINE#         169
  C:41C5H         LINE#         170
  C:41D0H         LINE#         171
  C:41D0H         LINE#         172
  C:41E5H         LINE#         174
  C:41EEH         LINE#         175
  C:41FDH         LINE#         177
  C:4203H         LINE#         178
  -------         ENDPROC       _HASH_ID
  -------         PROC          _LISTACOMANDOS
  X:0047H         SYMBOL        cmd
  -------         DO            
  X:004AH         SYMBOL        buf
  X:004DH         SYMBOL        i
  -------         ENDDO         
  C:9284H         LINE#         185
  C:928FH         LINE#         186
  C:928FH         LINE#         190
  C:92A2H         LINE#         191
  C:92A2H         LINE#         192
  C:92BAH         LINE#         193
  C:92D5H         LINE#         194
  C:92DBH         LINE#         195
  C:92E3H         LINE#         197
  C:92E5H         LINE#         198
  -------         ENDPROC       _LISTACOMANDOS
  -------         PROC          L?0208
  -------         ENDPROC       L?0208
  -------         PROC          _VALIDARCLAVE
  X:005EH         SYMBOL        buffer
  -------         DO            
  X:0061H         SYMBOL        buf
  -------         ENDDO         
  C:99BEH         LINE#         204
  C:99C9H         LINE#         205
  C:99C9H         LINE#         208
  C:99D8H         LINE#         209
  C:99F3H         LINE#         210
  C:99F5H         LINE#         213
  C:99F7H         LINE#         214
BL51 BANKED LINKER/LOCATER V6.22.2.0                                                  07/21/2020  12:52:08  PAGE 60


  -------         ENDPROC       _VALIDARCLAVE
  -------         PROC          L?0209
  -------         ENDPROC       L?0209
  -------         PROC          _GETCMD
  X:005EH         SYMBOL        in
  -------         DO            
  X:0061H         SYMBOL        tokens
  -------         ENDDO         
  C:9A80H         LINE#         221
  C:9A8BH         LINE#         222
  C:9A8BH         LINE#         223
  C:9A9EH         LINE#         224
  -------         ENDPROC       _GETCMD
  -------         PROC          L?0207
  -------         ENDPROC       L?0207
  -------         PROC          _GETOPTION
  X:0047H         SYMBOL        in
  -------         DO            
  X:004AH         SYMBOL        tokensSpace
  X:004EH         SYMBOL        tokensQuote
  -------         ENDDO         
  C:862FH         LINE#         230
  C:863AH         LINE#         231
  C:863AH         LINE#         232
  C:864DH         LINE#         233
  C:8660H         LINE#         236
  C:8672H         LINE#         237
  C:867EH         LINE#         240
  C:8685H         LINE#         241
  C:8692H         LINE#         243
  C:86ABH         LINE#         244
  -------         ENDPROC       _GETOPTION
  -------         PROC          DISPLAYCURSOR
  C:A12CH         LINE#         249
  C:A12CH         LINE#         250
  C:A12CH         LINE#         251
  -------         ENDPROC       DISPLAYCURSOR
  C:8C81H         SYMBOL        L?0206
  -------         PROC          L?0205
  -------         ENDPROC       L?0205
  C:8C81H         SYMBOL        L?0206
  -------         PROC          _INGRESADATO
  X:0072H         SYMBOL        buffer
  X:0075H         SYMBOL        modo
  -------         DO            
  D:0006H         SYMBOL        i
  -------         ENDDO         
  C:8C85H         LINE#         258
  C:8C93H         LINE#         259
  C:8C93H         LINE#         264
  C:8C93H         LINE#         265
  C:8CA5H         LINE#         266
  C:8CABH         LINE#         267
  C:8CABH         LINE#         268
  C:8CC6H         LINE#         269
  C:8CC8H         LINE#         271
  C:8CC8H         LINE#         272
BL51 BANKED LINKER/LOCATER V6.22.2.0                                                  07/21/2020  12:52:08  PAGE 61


  C:8CCDH         LINE#         273
  C:8CCDH         LINE#         274
  C:8CDEH         LINE#         275
  C:8CE8H         LINE#         276
  C:8CF7H         LINE#         278
  C:8CFCH         LINE#         282
  -------         ENDPROC       _INGRESADATO
  -------         PROC          PROG_ID_CLIENTE
  -------         DO            
  X:0047H         SYMBOL        buffer
  X:0051H         SYMBOL        dataee
  -------         ENDDO         
  C:7B71H         LINE#         299
  C:7B71H         LINE#         300
  C:7B71H         LINE#         304
  C:7B83H         LINE#         305
  C:7BA0H         LINE#         307
  C:7BB7H         LINE#         309
  C:7BC0H         LINE#         310
  C:7BC7H         LINE#         311
  C:7BD8H         LINE#         312
  C:7BE1H         LINE#         314
  C:7BF3H         LINE#         315
  C:7C10H         LINE#         316
  -------         ENDPROC       PROG_ID_CLIENTE
  -------         PROC          PROG_COD_PARK
  -------         DO            
  X:0047H         SYMBOL        buffer
  X:0051H         SYMBOL        dataee
  -------         ENDDO         
  C:7881H         LINE#         321
  C:7881H         LINE#         322
  C:7881H         LINE#         326
  C:7894H         LINE#         327
  C:78B1H         LINE#         329
  C:78C8H         LINE#         331
  C:78D1H         LINE#         332
  C:78DCH         LINE#         333
  C:78EDH         LINE#         334
  C:78F7H         LINE#         336
  C:790AH         LINE#         337
  C:7927H         LINE#         338
  -------         ENDPROC       PROG_COD_PARK
  -------         PROC          PROG_TIEMPO_GRACIA
  -------         DO            
  X:0047H         SYMBOL        buffer
  X:0051H         SYMBOL        dataee
  -------         ENDDO         
  C:793EH         LINE#         343
  C:793EH         LINE#         344
  C:793EH         LINE#         348
  C:7951H         LINE#         349
  C:796EH         LINE#         351
  C:7985H         LINE#         353
  C:798EH         LINE#         354
  C:7999H         LINE#         355
  C:79AAH         LINE#         356
BL51 BANKED LINKER/LOCATER V6.22.2.0                                                  07/21/2020  12:52:08  PAGE 62


  C:79B4H         LINE#         358
  C:79C7H         LINE#         359
  C:79E4H         LINE#         360
  -------         ENDPROC       PROG_TIEMPO_GRACIA
  -------         PROC          PROG_SIN_COBRO
  -------         DO            
  X:0047H         SYMBOL        buffer
  X:0051H         SYMBOL        dataee
  -------         ENDDO         
  C:56CDH         LINE#         366
  C:56CDH         LINE#         367
  C:56CDH         LINE#         373
  C:56E0H         LINE#         374
  C:56FDH         LINE#         375
  C:5707H         LINE#         376
  C:5707H         LINE#         377
  C:571AH         LINE#         378
  C:571CH         LINE#         379
  C:5728H         LINE#         380
  C:5728H         LINE#         381
  C:573BH         LINE#         382
  C:573DH         LINE#         384
  C:573DH         LINE#         385
  C:5754H         LINE#         386
  C:5754H         LINE#         388
  C:575DH         LINE#         389
  C:5768H         LINE#         390
  C:5779H         LINE#         391
  C:5783H         LINE#         393
  C:5796H         LINE#         394
  C:57B3H         LINE#         395
  C:57BDH         LINE#         396
  C:57BDH         LINE#         397
  C:57D0H         LINE#         398
  C:57D2H         LINE#         399
  C:57DEH         LINE#         400
  C:57DEH         LINE#         401
  C:57F1H         LINE#         402
  C:57F3H         LINE#         404
  C:57F3H         LINE#         405
  C:580AH         LINE#         406
  C:580AH         LINE#         408
  -------         ENDPROC       PROG_SIN_COBRO
  -------         PROC          PROG_DEBUG
  -------         DO            
  X:0047H         SYMBOL        buffer
  X:0051H         SYMBOL        dataee
  -------         ENDDO         
  C:6306H         LINE#         414
  C:6306H         LINE#         415
  C:6306H         LINE#         420
  C:6319H         LINE#         421
  C:6336H         LINE#         422
  C:6340H         LINE#         423
  C:6340H         LINE#         424
  C:6353H         LINE#         425
  C:6355H         LINE#         427
BL51 BANKED LINKER/LOCATER V6.22.2.0                                                  07/21/2020  12:52:08  PAGE 63


  C:6355H         LINE#         428
  C:636CH         LINE#         429
  C:636CH         LINE#         431
  C:6375H         LINE#         432
  C:6380H         LINE#         433
  C:6391H         LINE#         434
  C:639BH         LINE#         436
  C:63AEH         LINE#         437
  C:63CBH         LINE#         438
  C:63D5H         LINE#         439
  C:63D5H         LINE#         440
  C:63E8H         LINE#         441
  C:63EAH         LINE#         443
  C:63EAH         LINE#         444
  C:6401H         LINE#         445
  C:6401H         LINE#         446
  -------         ENDPROC       PROG_DEBUG
  -------         PROC          PROG_USE_LPR
  -------         DO            
  X:0047H         SYMBOL        buffer
  X:0051H         SYMBOL        dataee
  -------         ENDDO         
  C:6402H         LINE#         451
  C:6402H         LINE#         452
  C:6402H         LINE#         457
  C:6415H         LINE#         458
  C:6432H         LINE#         459
  C:643CH         LINE#         460
  C:643CH         LINE#         461
  C:644FH         LINE#         462
  C:6451H         LINE#         464
  C:6451H         LINE#         465
  C:6468H         LINE#         466
  C:6468H         LINE#         468
  C:6471H         LINE#         469
  C:647CH         LINE#         470
  C:648DH         LINE#         471
  C:6497H         LINE#         473
  C:64AAH         LINE#         474
  C:64C7H         LINE#         475
  C:64D1H         LINE#         476
  C:64D1H         LINE#         477
  C:64E4H         LINE#         478
  C:64E6H         LINE#         480
  C:64E6H         LINE#         481
  C:64FDH         LINE#         482
  C:64FDH         LINE#         483
  -------         ENDPROC       PROG_USE_LPR
  -------         PROC          TIPO_PANTALLA
  -------         DO            
  X:0047H         SYMBOL        buffer
  X:0051H         SYMBOL        dataee
  -------         ENDDO         
  C:64FEH         LINE#         490
  C:64FEH         LINE#         491
  C:64FEH         LINE#         496
  C:6511H         LINE#         497
BL51 BANKED LINKER/LOCATER V6.22.2.0                                                  07/21/2020  12:52:08  PAGE 64


  C:652EH         LINE#         498
  C:6538H         LINE#         499
  C:6538H         LINE#         500
  C:654BH         LINE#         501
  C:654DH         LINE#         503
  C:654DH         LINE#         504
  C:6564H         LINE#         505
  C:6564H         LINE#         507
  C:656DH         LINE#         508
  C:6578H         LINE#         509
  C:6589H         LINE#         510
  C:6593H         LINE#         512
  C:65A6H         LINE#         513
  C:65C3H         LINE#         514
  C:65CDH         LINE#         515
  C:65CDH         LINE#         516
  C:65E0H         LINE#         517
  C:65E2H         LINE#         519
  C:65E2H         LINE#         520
  C:65F9H         LINE#         521
  C:65F9H         LINE#         523
  -------         ENDPROC       TIPO_PANTALLA
  -------         PROC          PROG_TARJETA_AUTOMATICA_O_BOTON
  -------         DO            
  X:0047H         SYMBOL        buffer
  X:0051H         SYMBOL        dataee
  -------         ENDDO         
  C:7583H         LINE#         524
  C:7583H         LINE#         525
  C:7583H         LINE#         530
  C:7596H         LINE#         531
  C:75B3H         LINE#         532
  C:75BFH         LINE#         533
  C:75BFH         LINE#         534
  C:75C3H         LINE#         535
  C:75C5H         LINE#         537
  C:75C5H         LINE#         538
  C:75CCH         LINE#         539
  C:75CCH         LINE#         541
  C:75D5H         LINE#         542
  C:75E0H         LINE#         543
  C:75F1H         LINE#         544
  C:75FBH         LINE#         546
  C:760EH         LINE#         547
  C:762BH         LINE#         548
  C:7637H         LINE#         549
  C:7637H         LINE#         550
  C:763BH         LINE#         551
  C:763DH         LINE#         553
  C:763DH         LINE#         554
  C:7644H         LINE#         555
  C:7644H         LINE#         556
  -------         ENDPROC       PROG_TARJETA_AUTOMATICA_O_BOTON
  -------         PROC          PROG_ANTIPASSBACK
  -------         DO            
  X:0047H         SYMBOL        buffer
  X:0051H         SYMBOL        dataee
BL51 BANKED LINKER/LOCATER V6.22.2.0                                                  07/21/2020  12:52:08  PAGE 65


  -------         ENDDO         
  C:65FAH         LINE#         557
  C:65FAH         LINE#         558
  C:65FAH         LINE#         563
  C:660DH         LINE#         564
  C:662AH         LINE#         565
  C:6634H         LINE#         566
  C:6634H         LINE#         567
  C:6647H         LINE#         568
  C:6649H         LINE#         570
  C:6649H         LINE#         571
  C:6660H         LINE#         572
  C:6660H         LINE#         574
  C:6669H         LINE#         575
  C:6674H         LINE#         576
  C:6685H         LINE#         577
  C:668FH         LINE#         579
  C:66A2H         LINE#         580
  C:66BFH         LINE#         581
  C:66C9H         LINE#         582
  C:66C9H         LINE#         583
  C:66DCH         LINE#         584
  C:66DEH         LINE#         586
  C:66DEH         LINE#         587
  C:66F5H         LINE#         588
  C:66F5H         LINE#         589
  -------         ENDPROC       PROG_ANTIPASSBACK
  -------         PROC          PROG_PLACA
  -------         DO            
  X:0047H         SYMBOL        buffer
  X:0051H         SYMBOL        dataee
  -------         ENDDO         
  C:66F6H         LINE#         590
  C:66F6H         LINE#         591
  C:66F6H         LINE#         596
  C:6709H         LINE#         597
  C:6726H         LINE#         598
  C:6730H         LINE#         599
  C:6730H         LINE#         600
  C:6743H         LINE#         601
  C:6745H         LINE#         603
  C:6745H         LINE#         604
  C:675CH         LINE#         605
  C:675CH         LINE#         607
  C:6765H         LINE#         608
  C:6770H         LINE#         609
  C:6781H         LINE#         610
  C:678BH         LINE#         612
  C:679EH         LINE#         613
  C:67BBH         LINE#         614
  C:67C5H         LINE#         615
  C:67C5H         LINE#         616
  C:67D8H         LINE#         617
  C:67DAH         LINE#         619
  C:67DAH         LINE#         620
  C:67F1H         LINE#         621
  C:67F1H         LINE#         622
BL51 BANKED LINKER/LOCATER V6.22.2.0                                                  07/21/2020  12:52:08  PAGE 66


  -------         ENDPROC       PROG_PLACA
  -------         PROC          PROG_ADDRESS_HIGH_BOARD
  -------         DO            
  X:0047H         SYMBOL        buffer
  X:0051H         SYMBOL        dataee
  -------         ENDDO         
  C:6C9EH         LINE#         623
  C:6C9EH         LINE#         624
  C:6C9EH         LINE#         629
  C:6CB1H         LINE#         630
  C:6CCEH         LINE#         631
  C:6CD8H         LINE#         632
  C:6CD8H         LINE#         633
  C:6CDCH         LINE#         634
  C:6CDEH         LINE#         636
  C:6CDEH         LINE#         637
  C:6CF5H         LINE#         638
  C:6CF5H         LINE#         640
  C:6CFEH         LINE#         641
  C:6D09H         LINE#         642
  C:6D1AH         LINE#         643
  C:6D24H         LINE#         645
  C:6D37H         LINE#         646
  C:6D54H         LINE#         647
  C:6D5EH         LINE#         648
  C:6D5EH         LINE#         649
  C:6D62H         LINE#         650
  C:6D64H         LINE#         652
  C:6D64H         LINE#         653
  C:6D7BH         LINE#         654
  C:6D7BH         LINE#         655
  -------         ENDPROC       PROG_ADDRESS_HIGH_BOARD
  -------         PROC          ADDR_HORARIOS
  -------         DO            
  X:0062H         SYMBOL        ee_addr_horario
  -------         ENDDO         
  C:9DB2H         LINE#         657
  C:9DB2H         LINE#         658
  C:9DB2H         LINE#         661
  C:9DB8H         LINE#         662
  C:9DBCH         LINE#         663
  C:9DC0H         LINE#         664
  C:9DC4H         LINE#         665
  C:9DC8H         LINE#         666
  C:9DCCH         LINE#         667
  C:9DD0H         LINE#         668
  C:9DD4H         LINE#         669
  C:9DD8H         LINE#         670
  C:9DDCH         LINE#         671
  C:9DDFH         LINE#         672
  C:9DE5H         LINE#         673
  -------         ENDPROC       ADDR_HORARIOS
  -------         PROC          _PROG_HORARIOS_ON_OFF
  X:0062H         SYMBOL        addr
  -------         DO            
  X:0064H         SYMBOL        buffer
  X:006EH         SYMBOL        dataee
BL51 BANKED LINKER/LOCATER V6.22.2.0                                                  07/21/2020  12:52:08  PAGE 67


  X:0070H         SYMBOL        habilitado
  -------         ENDDO         
  C:5CB9H         LINE#         674
  C:5CC3H         LINE#         675
  C:5CC3H         LINE#         678
  C:5CD2H         LINE#         679
  C:5CEFH         LINE#         680
  C:5CF9H         LINE#         681
  C:5CF9H         LINE#         682
  C:5D0CH         LINE#         683
  C:5D0EH         LINE#         685
  C:5D0EH         LINE#         686
  C:5D25H         LINE#         687
  C:5D25H         LINE#         688
  C:5D2EH         LINE#         689
  C:5D39H         LINE#         690
  C:5D4AH         LINE#         691
  C:5D59H         LINE#         693
  C:5D70H         LINE#         694
  C:5D8DH         LINE#         695
  C:5D9AH         LINE#         696
  C:5D9AH         LINE#         697
  C:5D9DH         LINE#         698
  C:5DB0H         LINE#         699
  C:5DB2H         LINE#         701
  C:5DB2H         LINE#         702
  C:5DB7H         LINE#         703
  C:5DCCH         LINE#         704
  C:5DCCH         LINE#         705
  C:5DD2H         LINE#         706
  -------         ENDPROC       _PROG_HORARIOS_ON_OFF
  -------         PROC          _PROG_HORARIO_DESDE_HASTA
  X:0062H         SYMBOL        addr
  -------         DO            
  X:0064H         SYMBOL        buffer
  D:0007H         SYMBOL        dataee
  -------         ENDDO         
  C:4204H         LINE#         707
  C:420CH         LINE#         708
  C:420CH         LINE#         713
  C:4215H         LINE#         714
  C:4218H         LINE#         715
  C:4221H         LINE#         716
  C:4239H         LINE#         717
  C:424CH         LINE#         718
  C:425AH         LINE#         719
  C:4272H         LINE#         720
  C:4285H         LINE#         721
  C:4293H         LINE#         722
  C:42ABH         LINE#         723
  C:42BEH         LINE#         724
  C:42CCH         LINE#         725
  C:42E4H         LINE#         726
  C:42F7H         LINE#         727
  C:4305H         LINE#         731
  C:430EH         LINE#         732
  C:4311H         LINE#         734
BL51 BANKED LINKER/LOCATER V6.22.2.0                                                  07/21/2020  12:52:08  PAGE 68


  C:431AH         LINE#         736
  C:4332H         LINE#         737
  C:4345H         LINE#         738
  C:4353H         LINE#         739
  C:436BH         LINE#         740
  C:437EH         LINE#         741
  C:438CH         LINE#         742
  C:43A4H         LINE#         743
  C:43B7H         LINE#         744
  C:43C5H         LINE#         745
  C:43DDH         LINE#         746
  C:43F0H         LINE#         747
  -------         ENDPROC       _PROG_HORARIO_DESDE_HASTA
  -------         PROC          _PROG_HORARIO_DIAS
  X:0062H         SYMBOL        addr
  -------         DO            
  X:0064H         SYMBOL        buffer
  X:006EH         SYMBOL        dataee
  X:006FH         SYMBOL        j
  X:0070H         SYMBOL        temp
  -------         ENDDO         
  C:3B28H         LINE#         749
  C:3B30H         LINE#         750
  C:3B30H         LINE#         754
  C:3B39H         LINE#         755
  C:3B42H         LINE#         756
  C:3B4BH         LINE#         757
  C:3B56H         LINE#         760
  C:3B5FH         LINE#         762
  C:3B75H         LINE#         763
  C:3B75H         LINE#         765
  C:3B88H         LINE#         766
  C:3B88H         LINE#         767
  C:3B91H         LINE#         769
  C:3BA6H         LINE#         770
  C:3BBEH         LINE#         771
  C:3BCBH         LINE#         772
  C:3BCBH         LINE#         774
  C:3BE1H         LINE#         775
  C:3BE1H         LINE#         776
  C:3BEAH         LINE#         777
  C:3BFFH         LINE#         778
  C:3C17H         LINE#         779
  C:3C24H         LINE#         780
  C:3C24H         LINE#         782
  C:3C3AH         LINE#         783
  C:3C3AH         LINE#         784
  C:3C43H         LINE#         785
  C:3C58H         LINE#         786
  C:3C70H         LINE#         787
  C:3C7DH         LINE#         788
  C:3C7DH         LINE#         790
  C:3C93H         LINE#         791
  C:3C93H         LINE#         792
  C:3C9CH         LINE#         793
  C:3CB1H         LINE#         794
  C:3CC9H         LINE#         795
BL51 BANKED LINKER/LOCATER V6.22.2.0                                                  07/21/2020  12:52:08  PAGE 69


  C:3CD6H         LINE#         796
  C:3CD6H         LINE#         798
  C:3CECH         LINE#         799
  C:3CECH         LINE#         800
  C:3CF5H         LINE#         801
  C:3D0AH         LINE#         802
  C:3D22H         LINE#         803
  C:3D2FH         LINE#         804
  C:3D2FH         LINE#         806
  C:3D45H         LINE#         807
  C:3D45H         LINE#         808
  C:3D4EH         LINE#         809
  C:3D63H         LINE#         810
  C:3D7BH         LINE#         811
  C:3D88H         LINE#         812
  C:3D88H         LINE#         814
  C:3D9EH         LINE#         815
  C:3D9EH         LINE#         816
  C:3DA7H         LINE#         817
  C:3DB6H         LINE#         818
  C:3DC8H         LINE#         819
  C:3DD5H         LINE#         820
  C:3DD5H         LINE#         821
  C:3DDEH         LINE#         823
  -------         ENDPROC       _PROG_HORARIO_DIAS
  -------         PROC          PROG_HORARIOS
  -------         DO            
  X:0047H         SYMBOL        buffer
  X:0051H         SYMBOL        ee_addr_horario
  X:005CH         SYMBOL        addr
  X:005EH         SYMBOL        temp
  X:0060H         SYMBOL        dataee
  X:0061H         SYMBOL        j
  -------         ENDDO         
  C:5446H         LINE#         824
  C:5446H         LINE#         825
  C:5446H         LINE#         834
  C:5452H         LINE#         838
  C:545BH         LINE#         839
  C:5466H         LINE#         841
  C:5475H         LINE#         845
  C:548BH         LINE#         846
  C:5491H         LINE#         850
  C:549FH         LINE#         851
  C:54A7H         LINE#         852
  C:54A7H         LINE#         854
  C:54B6H         LINE#         855
  C:54CAH         LINE#         856
  C:54CAH         LINE#         857
  C:54DEH         LINE#         858
  C:54E6H         LINE#         860
  C:54F6H         LINE#         863
  C:54F9H         LINE#         867
  C:5504H         LINE#         870
  C:550DH         LINE#         871
  C:5518H         LINE#         872
  C:5527H         LINE#         873
BL51 BANKED LINKER/LOCATER V6.22.2.0                                                  07/21/2020  12:52:08  PAGE 70


  C:553AH         LINE#         875
  C:5552H         LINE#         876
  C:556CH         LINE#         877
  C:5574H         LINE#         878
  C:5574H         LINE#         880
  C:5582H         LINE#         881
  C:558AH         LINE#         882
  C:558AH         LINE#         883
  C:558AH         LINE#         885
  -------         ENDPROC       PROG_HORARIOS
  -------         PROC          PROG_VALIDAR_TIPO_VEHICULO_MENSUAL
  -------         DO            
  X:0047H         SYMBOL        buffer
  X:0051H         SYMBOL        dataee
  -------         ENDDO         
  C:67F2H         LINE#         886
  C:67F2H         LINE#         887
  C:67F2H         LINE#         892
  C:6805H         LINE#         893
  C:6822H         LINE#         894
  C:682CH         LINE#         895
  C:682CH         LINE#         896
  C:683FH         LINE#         897
  C:6841H         LINE#         899
  C:6841H         LINE#         900
  C:6858H         LINE#         901
  C:6858H         LINE#         903
  C:6861H         LINE#         904
  C:686CH         LINE#         905
  C:687DH         LINE#         906
  C:6887H         LINE#         908
  C:689AH         LINE#         909
  C:68B7H         LINE#         910
  C:68C1H         LINE#         911
  C:68C1H         LINE#         912
  C:68D4H         LINE#         913
  C:68D6H         LINE#         915
  C:68D6H         LINE#         916
  C:68EDH         LINE#         917
  C:68EDH         LINE#         918
  -------         ENDPROC       PROG_VALIDAR_TIPO_VEHICULO_MENSUAL
  -------         PROC          PROG_APB_MENSUAL
  -------         DO            
  X:0047H         SYMBOL        buffer
  X:0051H         SYMBOL        dataee
  -------         ENDDO         
  C:68EEH         LINE#         919
  C:68EEH         LINE#         920
  C:68EEH         LINE#         925
  C:6901H         LINE#         926
  C:691EH         LINE#         927
  C:6928H         LINE#         928
  C:6928H         LINE#         929
  C:693BH         LINE#         930
  C:693DH         LINE#         932
  C:693DH         LINE#         933
  C:6954H         LINE#         934
BL51 BANKED LINKER/LOCATER V6.22.2.0                                                  07/21/2020  12:52:08  PAGE 71


  C:6954H         LINE#         936
  C:695DH         LINE#         937
  C:6968H         LINE#         938
  C:6979H         LINE#         939
  C:6983H         LINE#         941
  C:6996H         LINE#         942
  C:69B3H         LINE#         943
  C:69BDH         LINE#         944
  C:69BDH         LINE#         945
  C:69D0H         LINE#         946
  C:69D2H         LINE#         948
  C:69D2H         LINE#         949
  C:69E9H         LINE#         950
  C:69E9H         LINE#         951
  -------         ENDPROC       PROG_APB_MENSUAL
  -------         PROC          PROG_FECHA_VENCIMIENTO
  -------         DO            
  X:0047H         SYMBOL        buffer
  X:0052H         SYMBOL        cmd
  X:0055H         SYMBOL        fecha
  X:005CH         SYMBOL        dataee
  -------         ENDDO         
  C:43FEH         LINE#         953
  C:43FEH         LINE#         954
  C:43FEH         LINE#         961
  C:440BH         LINE#         962
  C:4422H         LINE#         965
  C:4439H         LINE#         967
  C:4439H         LINE#         968
  C:4442H         LINE#         969
  C:444FH         LINE#         970
  C:4466H         LINE#         971
  C:4478H         LINE#         972
  C:4481H         LINE#         977
  C:448CH         LINE#         978
  C:44A0H         LINE#         979
  C:44ADH         LINE#         981
  C:44B6H         LINE#         984
  C:44BFH         LINE#         985
  C:44CAH         LINE#         986
  C:44E1H         LINE#         988
  C:44E9H         LINE#         989
  C:44F1H         LINE#         990
  C:44F4H         LINE#         992
  C:4505H         LINE#         993
  C:4516H         LINE#         995
  C:4525H         LINE#         996
  C:452DH         LINE#         997
  C:4535H         LINE#         998
  C:4538H         LINE#         999
  C:4549H         LINE#         1000
  C:455AH         LINE#         1001
  C:4569H         LINE#         1002
  C:4571H         LINE#         1003
  C:4579H         LINE#         1004
  C:457CH         LINE#         1005
  C:458DH         LINE#         1006
BL51 BANKED LINKER/LOCATER V6.22.2.0                                                  07/21/2020  12:52:08  PAGE 72


  C:459EH         LINE#         1007
  C:45ADH         LINE#         1008
  C:45B8H         LINE#         1010
  C:45C5H         LINE#         1012
  C:45DCH         LINE#         1013
  -------         ENDPROC       PROG_FECHA_VENCIMIENTO
  -------         PROC          SHOW
  C:86ACH         LINE#         1019
  C:86ACH         LINE#         1020
  C:86ACH         LINE#         1021
  C:86B5H         LINE#         1022
  C:86BEH         LINE#         1023
  C:86C7H         LINE#         1024
  C:86D0H         LINE#         1025
  C:86D9H         LINE#         1026
  C:86E2H         LINE#         1027
  C:86EBH         LINE#         1028
  C:86F4H         LINE#         1029
  C:86FDH         LINE#         1030
  C:8706H         LINE#         1031
  C:870FH         LINE#         1032
  C:8718H         LINE#         1033
  C:8721H         LINE#         1034
  C:872AH         LINE#         1035
  C:8733H         LINE#         1036
  -------         ENDPROC       SHOW
  -------         PROC          FIRST_CLAVE
  -------         DO            
  X:0047H         SYMBOL        clave
  -------         ENDDO         
  C:9741H         LINE#         1043
  C:9741H         LINE#         1044
  C:9741H         LINE#         1048
  C:974AH         LINE#         1049
  C:974FH         LINE#         1050
  C:9761H         LINE#         1051
  C:976EH         LINE#         1052
  C:9774H         LINE#         1053
  C:9777H         LINE#         1054
  C:977AH         LINE#         1055
  C:977CH         LINE#         1057
  -------         ENDPROC       FIRST_CLAVE
  -------         PROC          MENU
  -------         DO            
  X:0002H         SYMBOL        cmd
  X:0005H         SYMBOL        option1
  X:0008H         SYMBOL        option2
  X:000BH         SYMBOL        opt_buffer
  X:0033H         SYMBOL        buffer
  -------         ENDDO         
  C:3DDFH         LINE#         1061
  C:3DDFH         LINE#         1062
  C:3DDFH         LINE#         1071
  C:3DE8H         LINE#         1076
  C:3DF4H         LINE#         1077
  C:3DF4H         LINE#         1078
  C:3DF7H         LINE#         1079
BL51 BANKED LINKER/LOCATER V6.22.2.0                                                  07/21/2020  12:52:08  PAGE 73


  C:3E01H         LINE#         1082
  C:3E01H         LINE#         1084
  C:3E01H         LINE#         1085
  C:3E0AH         LINE#         1086
  C:3E17H         LINE#         1087
  C:3E2EH         LINE#         1088
  C:3E40H         LINE#         1089
  C:3E49H         LINE#         1094
  C:3E54H         LINE#         1095
  C:3E62H         LINE#         1096
  C:3E6FH         LINE#         1098
  C:3E78H         LINE#         1102
  C:3E7BH         LINE#         1103
  C:3E7BH         LINE#         1104
  C:3E7BH         LINE#         1105
  C:3E7EH         LINE#         1108
  C:3E89H         LINE#         1109
  C:3E97H         LINE#         1110
  C:3EABH         LINE#         1111
  C:3EBFH         LINE#         1116
  C:3ED5H         LINE#         1117
  C:3ED5H         LINE#         1119
  C:3EE4H         LINE#         1120
  C:3EE6H         LINE#         1121
  C:3EF6H         LINE#         1122
  C:3EF6H         LINE#         1124
  C:3F05H         LINE#         1125
  C:3F23H         LINE#         1126
  C:3F23H         LINE#         1132
  C:3F36H         LINE#         1133
  C:3F36H         LINE#         1134
  C:3F7CH         LINE#         1135
  C:3F7CH         LINE#         1136
  C:3F7CH         LINE#         1137
  C:3F7FH         LINE#         1139
  C:3F82H         LINE#         1141
  C:3F82H         LINE#         1142
  C:3F85H         LINE#         1143
  C:3F88H         LINE#         1144
  C:3F88H         LINE#         1145
  C:3F8BH         LINE#         1146
  C:3F8EH         LINE#         1147
  C:3F8EH         LINE#         1148
  C:3F91H         LINE#         1149
  C:3F94H         LINE#         1150
  C:3F94H         LINE#         1151
  C:3F97H         LINE#         1152
  C:3F9AH         LINE#         1153
  C:3F9AH         LINE#         1154
  C:3F9DH         LINE#         1155
  C:3FA0H         LINE#         1156
  C:3FA0H         LINE#         1157
  C:3FA3H         LINE#         1158
  C:3FA6H         LINE#         1159
  C:3FA6H         LINE#         1160
  C:3FA9H         LINE#         1161
  C:3FACH         LINE#         1162
BL51 BANKED LINKER/LOCATER V6.22.2.0                                                  07/21/2020  12:52:08  PAGE 74


  C:3FACH         LINE#         1163
  C:3FAFH         LINE#         1164
  C:3FB2H         LINE#         1165
  C:3FB2H         LINE#         1166
  C:3FB5H         LINE#         1167
  C:3FB8H         LINE#         1168
  C:3FB8H         LINE#         1169
  C:3FBBH         LINE#         1170
  C:3FBEH         LINE#         1171
  C:3FBEH         LINE#         1172
  C:3FC1H         LINE#         1173
  C:3FC4H         LINE#         1174
  C:3FC4H         LINE#         1175
  C:3FC7H         LINE#         1176
  C:3FCAH         LINE#         1177
  C:3FCAH         LINE#         1178
  C:3FCDH         LINE#         1179
  C:3FD0H         LINE#         1180
  C:3FD0H         LINE#         1181
  C:3FD3H         LINE#         1182
  C:3FD6H         LINE#         1183
  C:3FD6H         LINE#         1185
  C:3FD6H         LINE#         1186
  C:3FD6H         LINE#         1187
  C:3FD9H         LINE#         1188
  C:3FDCH         LINE#         1191
  C:3FDCH         LINE#         1192
  C:3FFAH         LINE#         1193
  C:3FFDH         LINE#         1194
  C:3FFDH         LINE#         1195
  C:3FFDH         LINE#         1196
  C:3FFDH         LINE#         1197
  -------         ENDPROC       MENU
  -------         ENDMOD        PROG

  -------         MODULE        PTO_PARALELO
  C:0000H         SYMBOL        _ICE_DUMMY_
  D:0080H         PUBLIC        P0
  D:00A0H         PUBLIC        P2
  D:00B0H         PUBLIC        P3
  B:0080H.2       PUBLIC        led_err_imp
  C:5B9DH         PUBLIC        load_and_send_id_cod
  C:82A8H         PUBLIC        _recibe_port
  B:00B0H.2       PUBLIC        ready
  B:0080H.6       PUBLIC        rx_in_data
  C:A1A6H         PUBLIC        Pulso_Bus
  C:8857H         PUBLIC        _send_portERR
  B:00B0H.3       PUBLIC        busy
  C:9EAAH         PUBLIC        load_and_send_info_reloj
  C:7C27H         PUBLIC        _send_port
  B:00B0H.4       PUBLIC        port_clk
  C:A217H         PUBLIC        cond_ini_pto
  -------         PROC          _RECIBE_PORT
  X:0002H         SYMBOL        buffer_port
  -------         DO            
  D:0006H         SYMBOL        count
  X:0005H         SYMBOL        time_out
BL51 BANKED LINKER/LOCATER V6.22.2.0                                                  07/21/2020  12:52:08  PAGE 75


  X:0006H         SYMBOL        num_data
  X:0007H         SYMBOL        T_ANCHO
  X:0009H         SYMBOL        data_temp
  -------         ENDDO         
  C:82A8H         LINE#         48
  C:82B3H         LINE#         49
  C:82B3H         LINE#         53
  C:82BCH         LINE#         54
  C:82BFH         LINE#         57
  C:82C2H         LINE#         58
  C:82C2H         LINE#         60
  C:82C5H         LINE#         61
  C:82CAH         LINE#         62
  C:82CCH         LINE#         63
  C:82D0H         LINE#         64
  C:82D2H         LINE#         67
  C:82D7H         LINE#         68
  C:82E0H         LINE#         69
  C:82E0H         LINE#         70
  C:82E3H         LINE#         71
  C:82E3H         LINE#         73
  C:82E8H         LINE#         74
  C:82ECH         LINE#         75
  C:82ECH         LINE#         76
  C:82EEH         LINE#         77
  C:82F0H         LINE#         78
  C:82F0H         LINE#         79
  C:82F0H         LINE#         81
  C:82F0H         LINE#         82
  C:82FDH         LINE#         83
  C:82FDH         LINE#         85
  C:8300H         LINE#         86
  C:8300H         LINE#         88
  C:8306H         LINE#         90
  C:8308H         LINE#         91
  C:831CH         LINE#         92
  C:8326H         LINE#         93
  C:832CH         LINE#         94
  C:8332H         LINE#         95
  C:8334H         LINE#         96
  C:8334H         LINE#         97
  C:8334H         LINE#         98
  C:8334H         LINE#         101
  C:8336H         LINE#         102
  C:8338H         LINE#         103
  C:8338H         LINE#         104
  C:833BH         LINE#         106
  C:8340H         LINE#         107
  -------         ENDPROC       _RECIBE_PORT
  -------         PROC          _SEND_PORT
  X:0016H         SYMBOL        buffer_port
  X:0019H         SYMBOL        length_char
  -------         DO            
  X:001AH         SYMBOL        cont
  X:001EH         SYMBOL        timeOut
  X:001FH         SYMBOL        length
  -------         ENDDO         
BL51 BANKED LINKER/LOCATER V6.22.2.0                                                  07/21/2020  12:52:08  PAGE 76


  C:7C27H         LINE#         114
  C:7C35H         LINE#         115
  C:7C35H         LINE#         120
  C:7C39H         LINE#         122
  C:7C3BH         LINE#         123
  C:7C3DH         LINE#         124
  C:7C3FH         LINE#         125
  C:7C44H         LINE#         126
  C:7C46H         LINE#         127
  C:7C50H         LINE#         129
  C:7C59H         LINE#         130
  C:7C59H         LINE#         131
  C:7C5BH         LINE#         132
  C:7C5DH         LINE#         133
  C:7C81H         LINE#         134
  C:7C95H         LINE#         135
  C:7C95H         LINE#         136
  C:7C98H         LINE#         137
  C:7C9AH         LINE#         138
  C:7C9AH         LINE#         139
  C:7C9CH         LINE#         140
  C:7CA5H         LINE#         141
  C:7CA5H         LINE#         145
  C:7CA5H         LINE#         147
  C:7CB5H         LINE#         148
  C:7CB8H         LINE#         149
  C:7CC2H         LINE#         151
  C:7CC8H         LINE#         152
  C:7CCBH         LINE#         154
  C:7CCBH         LINE#         156
  C:7CCEH         LINE#         157
  C:7CD0H         LINE#         158
  C:7CD2H         LINE#         159
  C:7CD4H         LINE#         160
  -------         ENDPROC       _SEND_PORT
  -------         PROC          PULSO_BUS
  C:A1A6H         LINE#         435
  C:A1A6H         LINE#         436
  C:A1A6H         LINE#         437
  C:A1A8H         LINE#         438
  C:A1AFH         LINE#         439
  C:A1B1H         LINE#         440
  -------         ENDPROC       PULSO_BUS
  -------         PROC          _SEND_PORTERR
  X:002BH         SYMBOL        cod_err
  -------         DO            
  X:002CH         SYMBOL        timeOut
  X:002DH         SYMBOL        cont
  -------         ENDDO         
  C:8857H         LINE#         445
  C:885DH         LINE#         446
  C:885DH         LINE#         450
  C:885FH         LINE#         451
  C:8861H         LINE#         452
  C:8864H         LINE#         453
  C:886CH         LINE#         455
  C:886EH         LINE#         456
BL51 BANKED LINKER/LOCATER V6.22.2.0                                                  07/21/2020  12:52:08  PAGE 77


  C:8870H         LINE#         457
  C:8879H         LINE#         458
  C:8879H         LINE#         459
  C:889BH         LINE#         460
  C:88AFH         LINE#         461
  C:88AFH         LINE#         462
  C:88B4H         LINE#         463
  C:88B4H         LINE#         464
  C:88B6H         LINE#         465
  C:88BFH         LINE#         466
  C:88BFH         LINE#         467
  C:88C5H         LINE#         468
  C:88C8H         LINE#         469
  C:88C8H         LINE#         470
  C:88CAH         LINE#         471
  C:88CCH         LINE#         472
  C:88CEH         LINE#         474
  C:88D1H         LINE#         476
  C:88D8H         LINE#         477
  -------         ENDPROC       _SEND_PORTERR
  -------         PROC          COND_INI_PTO
  C:A217H         LINE#         483
  C:A217H         LINE#         484
  C:A217H         LINE#         486
  C:A219H         LINE#         487
  C:A21BH         LINE#         488
  C:A21DH         LINE#         489
  C:A220H         LINE#         490
  -------         ENDPROC       COND_INI_PTO
  -------         PROC          LOAD_AND_SEND_INFO_RELOJ
  -------         DO            
  X:0003H         SYMBOL        buffer_info
  -------         ENDDO         
  C:9EAAH         LINE#         495
  C:9EAAH         LINE#         496
  C:9EAAH         LINE#         499
  C:9EB0H         LINE#         501
  C:9EB4H         LINE#         503
  C:9EBDH         LINE#         504
  C:9EC7H         LINE#         505
  C:9ECBH         LINE#         509
  -------         ENDPROC       LOAD_AND_SEND_INFO_RELOJ
  -------         PROC          LOAD_AND_SEND_ID_COD
  -------         DO            
  X:0003H         SYMBOL        buffer_info
  X:000EH         SYMBOL        buf
  X:0012H         SYMBOL        i
  X:0013H         SYMBOL        k
  X:0014H         SYMBOL        ID_CLIENTE
  X:0015H         SYMBOL        COD_PARK
  -------         ENDDO         
  C:5B9DH         LINE#         516
  C:5B9DH         LINE#         517
  C:5B9DH         LINE#         523
  C:5BA2H         LINE#         524
  C:5BAEH         LINE#         525
  C:5BBCH         LINE#         526
BL51 BANKED LINKER/LOCATER V6.22.2.0                                                  07/21/2020  12:52:08  PAGE 78


  C:5BC2H         LINE#         527
  C:5BC6H         LINE#         528
  C:5BE5H         LINE#         529
  C:5BEBH         LINE#         530
  C:5BEBH         LINE#         531
  C:5BFCH         LINE#         532
  C:5BFCH         LINE#         533
  C:5C0BH         LINE#         534
  C:5C11H         LINE#         535
  C:5C13H         LINE#         536
  C:5C2BH         LINE#         538
  C:5C33H         LINE#         541
  C:5C52H         LINE#         543
  C:5C57H         LINE#         544
  C:5C57H         LINE#         545
  C:5C68H         LINE#         546
  C:5C68H         LINE#         547
  C:5C77H         LINE#         548
  C:5C7DH         LINE#         549
  C:5C97H         LINE#         550
  C:5C9FH         LINE#         553
  C:5CB0H         LINE#         554
  -------         ENDPROC       LOAD_AND_SEND_ID_COD
  -------         ENDMOD        PTO_PARALELO

  -------         MODULE        TIBBO
  C:0000H         SYMBOL        _ICE_DUMMY_
  C:98E9H         PUBLIC        _Debug_HexDec
  C:9703H         PUBLIC        _Debug_txt_Tibbo
  D:0080H         PUBLIC        P0
  D:0090H         PUBLIC        P1
  B:0090H.0       PUBLIC        txd2
  B:00A8H.7       PUBLIC        EA
  C:96B0H         PUBLIC        _tx_aux
  B:0080H.0       PUBLIC        rx_ip
  C:A165H         PUBLIC        Debug_Dividir_texto
  C:A27BH         PUBLIC        cond_ini_tibbo
  C:A143H         PUBLIC        time_mbit
  C:88DFH         PUBLIC        rx_Data
  C:A0BBH         PUBLIC        time_bit
  C:9C29H         PUBLIC        _Debug_pto_paralelo
  C:9E19H         PUBLIC        _Debug_monitor
  C:905EH         PUBLIC        _DebugBufferMF
  C:9789H         PUBLIC        _Debug_chr_Tibbo
  C:A0B5H         SYMBOL        L?0066
  -------         PROC          L?0065
  -------         ENDPROC       L?0065
  C:A0B5H         SYMBOL        L?0066
  -------         PROC          TIME_BIT
  -------         DO            
  D:0007H         SYMBOL        j
  -------         ENDDO         
  C:A0BBH         LINE#         19
  C:A0BBH         LINE#         20
  C:A0BBH         LINE#         23
  C:A0C7H         LINE#         24
  C:A0C7H         LINE#         25
BL51 BANKED LINKER/LOCATER V6.22.2.0                                                  07/21/2020  12:52:08  PAGE 79


  C:A0C8H         LINE#         26
  C:A0C9H         LINE#         27
  C:A0CAH         LINE#         28
  C:A0CBH         LINE#         29
  C:A0CCH         LINE#         30
  C:A0CDH         LINE#         31
  C:A0CEH         LINE#         32
  C:A0CFH         LINE#         33
  C:A0D0H         LINE#         38
  C:A0D3H         LINE#         39
  -------         ENDPROC       TIME_BIT
  -------         PROC          TIME_MBIT
  -------         DO            
  D:0007H         SYMBOL        j
  -------         ENDDO         
  C:A143H         LINE#         42
  C:A143H         LINE#         43
  C:A143H         LINE#         45
  C:A14FH         LINE#         46
  C:A14FH         LINE#         47
  C:A150H         LINE#         48
  C:A151H         LINE#         49
  C:A152H         LINE#         50
  C:A153H         LINE#         51
  C:A154H         LINE#         52
  C:A155H         LINE#         53
  C:A156H         LINE#         54
  C:A159H         LINE#         56
  -------         ENDPROC       TIME_MBIT
  -------         PROC          L?0070
  -------         ENDPROC       L?0070
  -------         PROC          _TX_AUX
  D:0006H         SYMBOL        caracter
  -------         DO            
  D:0004H         SYMBOL        j
  D:0005H         SYMBOL        temporal
  D:0006H         SYMBOL        bitTX
  -------         ENDDO         
  C:96B0H         LINE#         61
  C:96B2H         LINE#         62
  C:96B2H         LINE#         65
  C:96B4H         LINE#         66
  C:96B6H         LINE#         67
  C:96B9H         LINE#         68
  C:96BAH         LINE#         69
  C:96BBH         LINE#         70
  C:96BDH         LINE#         71
  C:96C1H         LINE#         72
  C:96C3H         LINE#         73
  C:96C3H         LINE#         74
  C:96C5H         LINE#         75
  C:96C7H         LINE#         77
  C:96C7H         LINE#         78
  C:96C9H         LINE#         79
  C:96C9H         LINE#         80
  C:96CCH         LINE#         81
  C:96D8H         LINE#         82
BL51 BANKED LINKER/LOCATER V6.22.2.0                                                  07/21/2020  12:52:08  PAGE 80


  C:96D8H         LINE#         83
  C:96DCH         LINE#         84
  C:96DFH         LINE#         85
  C:96E1H         LINE#         86
  C:96E1H         LINE#         87
  C:96E3H         LINE#         88
  C:96E5H         LINE#         90
  C:96E5H         LINE#         91
  C:96E7H         LINE#         92
  C:96E7H         LINE#         93
  C:96EAH         LINE#         94
  C:96EDH         LINE#         95
  C:96EFH         LINE#         96
  C:96F2H         LINE#         97
  C:96F5H         LINE#         99
  C:96F7H         LINE#         100
  -------         ENDPROC       _TX_AUX
  -------         PROC          _DEBUG_HEXDEC
  D:0007H         SYMBOL        xfc
  -------         DO            
  X:0019H         SYMBOL        valor
  D:0006H         SYMBOL        centena
  D:0003H         SYMBOL        decena
  D:0002H         SYMBOL        unidad
  -------         ENDDO         
  C:98E9H         LINE#         103
  C:98E9H         LINE#         104
  C:98E9H         LINE#         107
  C:98F0H         LINE#         109
  C:98F1H         LINE#         110
  C:98F2H         LINE#         111
  C:98F3H         LINE#         112
  C:98FBH         LINE#         113
  C:98FBH         LINE#         114
  C:9905H         LINE#         115
  C:9905H         LINE#         116
  C:9909H         LINE#         117
  C:990AH         LINE#         118
  C:990CH         LINE#         119
  C:9916H         LINE#         120
  C:9916H         LINE#         121
  C:991AH         LINE#         122
  C:991BH         LINE#         123
  C:991DH         LINE#         124
  C:991FH         LINE#         125
  C:9923H         LINE#         126
  C:9927H         LINE#         127
  C:992EH         LINE#         129
  C:992EH         LINE#         130
  -------         ENDPROC       _DEBUG_HEXDEC
  -------         PROC          _DEBUG_CHR_TIBBO
  D:0003H         SYMBOL        Dat
  -------         DO            
  D:0007H         SYMBOL        temp
  -------         ENDDO         
  C:9789H         LINE#         135
  C:978BH         LINE#         136
BL51 BANKED LINKER/LOCATER V6.22.2.0                                                  07/21/2020  12:52:08  PAGE 81


  C:978BH         LINE#         138
  C:9793H         LINE#         139
  C:9793H         LINE#         140
  C:979AH         LINE#         141
  C:97ADH         LINE#         143
  C:97B0H         LINE#         145
  C:97B4H         LINE#         146
  C:97C7H         LINE#         147
  C:97CAH         LINE#         148
  C:97CFH         LINE#         150
  C:97CFH         LINE#         151
  -------         ENDPROC       _DEBUG_CHR_TIBBO
  -------         PROC          _DEBUGBUFFERMF
  X:0028H         SYMBOL        str
  X:002BH         SYMBOL        num_char
  X:002CH         SYMBOL        io
  -------         DO            
  X:002DH         SYMBOL        j
  -------         ENDDO         
  C:905EH         LINE#         158
  C:906CH         LINE#         159
  C:906CH         LINE#         163
  C:9074H         LINE#         164
  C:9074H         LINE#         165
  C:9083H         LINE#         166
  C:9083H         LINE#         167
  C:9087H         LINE#         168
  C:9090H         LINE#         169
  C:90A2H         LINE#         170
  C:90A2H         LINE#         171
  C:90B4H         LINE#         172
  C:90BEH         LINE#         173
  C:90C6H         LINE#         174
  C:90CBH         LINE#         175
  C:90D0H         LINE#         176
  C:90D0H         LINE#         178
  -------         ENDPROC       _DEBUGBUFFERMF
  C:96FDH         SYMBOL        L?0068
  -------         PROC          L?0067
  -------         ENDPROC       L?0067
  C:96FDH         SYMBOL        L?0068
  -------         PROC          _DEBUG_TXT_TIBBO
  X:0038H         SYMBOL        str
  -------         DO            
  X:003BH         SYMBOL        i
  -------         ENDDO         
  C:9703H         LINE#         183
  C:970EH         LINE#         184
  C:970EH         LINE#         186
  C:9711H         LINE#         188
  C:9719H         LINE#         189
  C:9719H         LINE#         190
  C:9735H         LINE#         191
  C:9735H         LINE#         192
  C:9738H         LINE#         193
  C:9740H         LINE#         195
  C:9740H         LINE#         196
BL51 BANKED LINKER/LOCATER V6.22.2.0                                                  07/21/2020  12:52:08  PAGE 82


  -------         ENDPROC       _DEBUG_TXT_TIBBO
  -------         PROC          L?0069
  -------         ENDPROC       L?0069
  -------         PROC          DEBUG_DIVIDIR_TEXTO
  C:A165H         LINE#         198
  C:A165H         LINE#         199
  C:A165H         LINE#         200
  -------         ENDPROC       DEBUG_DIVIDIR_TEXTO
  -------         PROC          RX_DATA
  -------         DO            
  D:0006H         SYMBOL        temporal
  -------         ENDDO         
  C:88DFH         LINE#         206
  C:88DFH         LINE#         207
  C:88DFH         LINE#         210
  C:88E1H         LINE#         211
  C:88E4H         LINE#         213
  C:88E7H         LINE#         215
  C:88F3H         LINE#         216
  C:88F3H         LINE#         218
  C:88F6H         LINE#         220
  C:8902H         LINE#         221
  C:8902H         LINE#         223
  C:8905H         LINE#         225
  C:8911H         LINE#         226
  C:8911H         LINE#         228
  C:8914H         LINE#         230
  C:8920H         LINE#         231
  C:8920H         LINE#         233
  C:8923H         LINE#         235
  C:892FH         LINE#         236
  C:892FH         LINE#         238
  C:8932H         LINE#         240
  C:893EH         LINE#         241
  C:893EH         LINE#         243
  C:8941H         LINE#         245
  C:894DH         LINE#         246
  C:894DH         LINE#         248
  C:8950H         LINE#         249
  C:895EH         LINE#         251
  C:8961H         LINE#         252
  C:8964H         LINE#         253
  C:8964H         LINE#         254
  C:8964H         LINE#         257
  C:8966H         LINE#         259
  -------         ENDPROC       RX_DATA
  -------         PROC          COND_INI_TIBBO
  C:A27BH         LINE#         277
  C:A27BH         LINE#         278
  C:A27BH         LINE#         280
  C:A27DH         LINE#         281
  C:A27FH         LINE#         282
  -------         ENDPROC       COND_INI_TIBBO
  -------         PROC          _DEBUG_PTO_PARALELO
  X:0002H         SYMBOL        buffer
  X:0005H         SYMBOL        Length_trama
  C:9C29H         LINE#         283
BL51 BANKED LINKER/LOCATER V6.22.2.0                                                  07/21/2020  12:52:08  PAGE 83


  C:9C2CH         LINE#         284
  C:9C2CH         LINE#         285
  C:9C2FH         LINE#         286
  C:9C38H         LINE#         287
  C:9C4FH         LINE#         288
  C:9C52H         LINE#         289
  C:9C5BH         LINE#         290
  C:9C5EH         LINE#         291
  C:9C61H         LINE#         292
  -------         ENDPROC       _DEBUG_PTO_PARALELO
  -------         PROC          _DEBUG_MONITOR
  X:0015H         SYMBOL        buffer
  X:0018H         SYMBOL        Length_trama
  C:9E19H         LINE#         295
  C:9E1CH         LINE#         296
  C:9E1CH         LINE#         297
  C:9E1FH         LINE#         298
  C:9E28H         LINE#         299
  C:9E36H         LINE#         300
  C:9E39H         LINE#         301
  C:9E42H         LINE#         302
  C:9E45H         LINE#         303
  C:9E48H         LINE#         304
  -------         ENDPROC       _DEBUG_MONITOR
  -------         ENDMOD        TIBBO

  -------         MODULE        UART
  C:0000H         SYMBOL        _ICE_DUMMY_
  C:9F9FH         PUBLIC        com_getchar
  C:A1B8H         PUBLIC        com_rbuflen
  C:A1CAH         PUBLIC        com_tbuflen
  B:00A8H.4       PUBLIC        ES
  B:0098H.0       PUBLIC        RI
  C:9C64H         PUBLIC        _com_putchar
  B:0098H.1       PUBLIC        TI
  B:0021H.3       PUBLIC        aSk
  B:00B8H.4       PUBLIC        PS
  D:000DH         SYMBOL        r_in
  D:000EH         SYMBOL        r_out
  D:000FH         SYMBOL        t_in
  D:0010H         SYMBOL        t_out
  D:0099H         PUBLIC        SBUF
  D:0087H         PUBLIC        PCON
  D:0089H         PUBLIC        TMOD
  B:0021H.4       SYMBOL        ti_restart
  B:00A8H.3       PUBLIC        ET1
  D:008DH         PUBLIC        TH1
  B:0098H.7       PUBLIC        SM0
  B:0098H.6       PUBLIC        SM1
  D:008BH         PUBLIC        TL1
  B:0098H.5       PUBLIC        SM2
  B:0088H.6       PUBLIC        TR1
  C:9ED6H         PUBLIC        com_initialize
  X:0200H         PUBLIC        cnt__ask_off
  B:0098H.4       PUBLIC        REN
  C:9F28H         PUBLIC        com_baudrate
  C:49BDH         SYMBOL        com_isr
BL51 BANKED LINKER/LOCATER V6.22.2.0                                                  07/21/2020  12:52:08  PAGE 84


  -------         PROC          COM_ISR
  -------         DO            
  X:01FEH         SYMBOL        cDatoRx
  D:0006H         SYMBOL        k
  D:0007H         SYMBOL        bcc
  X:01FFH         SYMBOL        num_datos
  -------         ENDDO         
  C:49BDH         LINE#         96
  C:49D2H         LINE#         104
  C:49D8H         LINE#         105
  C:49D8H         LINE#         107
  C:49DAH         LINE#         108
  C:49E0H         LINE#         109
  C:49F0H         LINE#         110
  C:49F0H         LINE#         111
  C:49FBH         LINE#         112
  C:49FDH         LINE#         114
  C:49FDH         LINE#         115
  C:4A0DH         LINE#         116
  C:4A0DH         LINE#         117
  C:4A12H         LINE#         118
  C:4A12H         LINE#         119
  C:4A29H         LINE#         120
  C:4A29H         LINE#         124
  C:4A29H         LINE#         127
  C:4A38H         LINE#         128
  C:4A38H         LINE#         129
  C:4A3AH         LINE#         130
  C:4A42H         LINE#         131
  C:4A47H         LINE#         133
  C:4A47H         LINE#         134
  C:4A4AH         LINE#         138
  C:4A4AH         LINE#         139
  C:4A4AH         LINE#         140
  C:4A62H         LINE#         141
  C:4A71H         LINE#         142
  C:4A71H         LINE#         143
  C:4A71H         LINE#         144
  C:4A73H         LINE#         146
  C:4A73H         LINE#         147
  C:4A75H         LINE#         148
  C:4A75H         LINE#         149
  C:4A75H         LINE#         150
  C:4A78H         LINE#         154
  C:4A78H         LINE#         156
  C:4A81H         LINE#         157
  C:4A81H         LINE#         159
  C:4A87H         LINE#         160
  C:4A9AH         LINE#         161
  C:4A9AH         LINE#         162
  C:4A9DH         LINE#         164
  C:4A9DH         LINE#         165
  C:4AB2H         LINE#         166
  C:4AB8H         LINE#         167
  C:4AB8H         LINE#         169
  C:4ABBH         LINE#         173
  C:4ABBH         LINE#         175
BL51 BANKED LINKER/LOCATER V6.22.2.0                                                  07/21/2020  12:52:08  PAGE 85


  C:4AD3H         LINE#         176
  C:4AD9H         LINE#         177
  C:4ADCH         LINE#         178
  C:4ADCH         LINE#         179
  C:4AF4H         LINE#         180
  C:4AF4H         LINE#         181
  C:4AF5H         LINE#         182
  C:4B02H         LINE#         183
  C:4B02H         LINE#         184
  C:4B0FH         LINE#         185
  C:4B12H         LINE#         186
  C:4B20H         LINE#         187
  C:4B20H         LINE#         188
  C:4B22H         LINE#         189
  C:4B27H         LINE#         190
  C:4B29H         LINE#         191
  C:4B2DH         LINE#         193
  C:4B2FH         LINE#         195
  C:4B2FH         LINE#         196
  C:4B2FH         LINE#         197
  C:4B2FH         LINE#         198
  C:4B31H         LINE#         200
  C:4B31H         LINE#         201
  C:4B31H         LINE#         202
  C:4B31H         LINE#         204
  C:4B33H         LINE#         206
  C:4B33H         LINE#         207
  C:4B39H         LINE#         208
  C:4B39H         LINE#         210
  C:4B3BH         LINE#         215
  C:4B3BH         LINE#         216
  C:4B40H         LINE#         217
  C:4B40H         LINE#         218
  C:4B40H         LINE#         219
  C:4B40H         LINE#         224
  C:4B43H         LINE#         225
  C:4B43H         LINE#         226
  C:4B45H         LINE#         228
  C:4B4BH         LINE#         229
  C:4B4BH         LINE#         230
  C:4B55H         LINE#         231
  C:4B57H         LINE#         232
  C:4B59H         LINE#         233
  C:4B5BH         LINE#         235
  C:4B5BH         LINE#         236
  C:4B5DH         LINE#         237
  C:4B5DH         LINE#         238
  C:4B5DH         LINE#         240
  -------         ENDPROC       COM_ISR
  -------         PROC          COM_INITIALIZE
  C:9ED6H         LINE#         256
  C:9EDDH         LINE#         257
  C:9EDDH         LINE#         261
  C:9EE0H         LINE#         266
  C:9EE3H         LINE#         267
  C:9EE5H         LINE#         269
  C:9EE7H         LINE#         270
BL51 BANKED LINKER/LOCATER V6.22.2.0                                                  07/21/2020  12:52:08  PAGE 86


  C:9EE9H         LINE#         275
  C:9EEDH         LINE#         276
  C:9EEFH         LINE#         277
  C:9EF1H         LINE#         279
  C:9EF3H         LINE#         280
  C:9EF5H         LINE#         281
  C:9EF7H         LINE#         283
  C:9EF9H         LINE#         284
  C:9EFBH         LINE#         285
  -------         ENDPROC       COM_INITIALIZE
  -------         PROC          COM_BAUDRATE
  C:9F28H         LINE#         291
  C:9F2FH         LINE#         293
  C:9F2FH         LINE#         297
  C:9F31H         LINE#         298
  C:9F34H         LINE#         299
  C:9F36H         LINE#         304
  C:9F38H         LINE#         305
  C:9F3AH         LINE#         307
  C:9F3DH         LINE#         309
  C:9F40H         LINE#         310
  C:9F43H         LINE#         312
  C:9F46H         LINE#         313
  C:9F49H         LINE#         314
  C:9F4BH         LINE#         315
  -------         ENDPROC       COM_BAUDRATE
  -------         PROC          _COM_PUTCHAR
  X:00A9H         SYMBOL        c
  C:9C64H         LINE#         321
  C:9C70H         LINE#         323
  C:9C70H         LINE#         327
  C:9C7DH         LINE#         328
  C:9C81H         LINE#         334
  C:9C8FH         LINE#         335
  C:9C91H         LINE#         337
  C:9C94H         LINE#         338
  C:9C94H         LINE#         339
  C:9C96H         LINE#         340
  C:9C98H         LINE#         341
  C:9C98H         LINE#         343
  C:9C9AH         LINE#         344
  -------         ENDPROC       _COM_PUTCHAR
  -------         PROC          COM_GETCHAR
  C:9F9FH         LINE#         350
  C:9FA6H         LINE#         351
  C:9FA6H         LINE#         352
  C:9FACH         LINE#         353
  C:9FB2H         LINE#         355
  C:9FC0H         LINE#         356
  -------         ENDPROC       COM_GETCHAR
  -------         PROC          COM_RBUFLEN
  C:A1B8H         LINE#         362
  C:A1BFH         LINE#         363
  C:A1BFH         LINE#         364
  C:A1C5H         LINE#         365
  -------         ENDPROC       COM_RBUFLEN
  -------         PROC          COM_TBUFLEN
BL51 BANKED LINKER/LOCATER V6.22.2.0                                                  07/21/2020  12:52:08  PAGE 87


  C:A1CAH         LINE#         371
  C:A1D1H         LINE#         372
  C:A1D1H         LINE#         373
  C:A1D7H         LINE#         374
  -------         ENDPROC       COM_TBUFLEN
  -------         ENDMOD        UART

  -------         MODULE        LINTECH
  C:0000H         SYMBOL        _ICE_DUMMY_
  C:8171H         PUBLIC        _Inicializa
  C:74C0H         PUBLIC        _RD_MF
  C:7EDEH         PUBLIC        Dwload_EEprom
  C:846AH         PUBLIC        _Card_Insercion
  C:69EAH         PUBLIC        _Mov_Card
  C:6206H         PUBLIC        _WR_MF
  C:84FBH         PUBLIC        LoadVerify_EEprom
  C:8967H         PUBLIC        Unique_Identifier_UID
  C:8D7DH         PUBLIC        Power_off
  C:8DFDH         PUBLIC        _Check_Status
  C:7E34H         PUBLIC        Clave_Seguridad_S2
  C:8CFDH         PUBLIC        Aut_Card_check_Status
  -------         PROC          _INICIALIZA
  X:0003H         SYMBOL        TipoMovimiento
  -------         DO            
  D:0003H         SYMBOL        j
  X:0004H         SYMBOL        bcc
  X:0005H         SYMBOL        g_scArrTxComSoft
  -------         ENDDO         
  C:8171H         LINE#         66
  C:8176H         LINE#         67
  C:8176H         LINE#         70
  C:8179H         LINE#         71
  C:818FH         LINE#         72
  C:818FH         LINE#         74
  C:8198H         LINE#         76
  C:819EH         LINE#         77
  C:81A1H         LINE#         78
  C:81A3H         LINE#         79
  C:81A7H         LINE#         80
  C:81ABH         LINE#         81
  C:81AFH         LINE#         82
  C:81B7H         LINE#         83
  C:81BBH         LINE#         84
  C:81C7H         LINE#         85
  C:81C7H         LINE#         86
  C:81DBH         LINE#         87
  C:81DEH         LINE#         88
  C:81E6H         LINE#         89
  C:81E8H         LINE#         90
  C:81EDH         LINE#         91
  C:81FCH         LINE#         92
  C:8207H         LINE#         93
  C:820DH         LINE#         94
  C:820DH         LINE#         95
  -------         ENDPROC       _INICIALIZA
  -------         PROC          _CHECK_STATUS
  X:0003H         SYMBOL        Detalle
BL51 BANKED LINKER/LOCATER V6.22.2.0                                                  07/21/2020  12:52:08  PAGE 88


  -------         DO            
  D:0006H         SYMBOL        j
  D:0007H         SYMBOL        bcc
  X:0004H         SYMBOL        g_scArrTxComSoft
  -------         ENDDO         
  C:8DFDH         LINE#         107
  C:8E02H         LINE#         108
  C:8E02H         LINE#         111
  C:8E0BH         LINE#         113
  C:8E0DH         LINE#         115
  C:8E13H         LINE#         116
  C:8E16H         LINE#         117
  C:8E18H         LINE#         118
  C:8E1CH         LINE#         119
  C:8E20H         LINE#         120
  C:8E24H         LINE#         121
  C:8E2CH         LINE#         122
  C:8E30H         LINE#         123
  C:8E3CH         LINE#         124
  C:8E3CH         LINE#         125
  C:8E49H         LINE#         126
  C:8E4CH         LINE#         127
  C:8E51H         LINE#         128
  C:8E53H         LINE#         129
  C:8E58H         LINE#         130
  C:8E67H         LINE#         131
  C:8E72H         LINE#         132
  C:8E78H         LINE#         133
  -------         ENDPROC       _CHECK_STATUS
  -------         PROC          _CARD_INSERCION
  D:0007H         SYMBOL        Tipo
  -------         DO            
  D:0006H         SYMBOL        j
  D:0007H         SYMBOL        bcc
  X:0003H         SYMBOL        g_scArrTxComSoft
  -------         ENDDO         
  C:846AH         LINE#         143
  C:846AH         LINE#         144
  C:846AH         LINE#         147
  C:8477H         LINE#         148
  C:8477H         LINE#         149
  C:847EH         LINE#         150
  C:8484H         LINE#         151
  C:8486H         LINE#         153
  C:8486H         LINE#         155
  C:848DH         LINE#         156
  C:8493H         LINE#         158
  C:8493H         LINE#         160
  C:8495H         LINE#         162
  C:849BH         LINE#         163
  C:849EH         LINE#         164
  C:84A0H         LINE#         165
  C:84A4H         LINE#         166
  C:84A8H         LINE#         167
  C:84ACH         LINE#         169
  C:84B2H         LINE#         170
  C:84BEH         LINE#         171
BL51 BANKED LINKER/LOCATER V6.22.2.0                                                  07/21/2020  12:52:08  PAGE 89


  C:84BEH         LINE#         172
  C:84CBH         LINE#         173
  C:84CEH         LINE#         175
  C:84D3H         LINE#         177
  C:84D5H         LINE#         178
  C:84DAH         LINE#         179
  C:84E9H         LINE#         180
  C:84F4H         LINE#         181
  C:84FAH         LINE#         182
  -------         ENDPROC       _CARD_INSERCION
  -------         PROC          _MOV_CARD
  X:0003H         SYMBOL        Posicion
  -------         DO            
  D:0003H         SYMBOL        j
  X:0004H         SYMBOL        bcc
  X:0005H         SYMBOL        g_scArrTxComSoft
  -------         ENDDO         
  C:69EAH         LINE#         193
  C:69EFH         LINE#         194
  C:69EFH         LINE#         197
  C:69F2H         LINE#         199
  C:6A12H         LINE#         200
  C:6A12H         LINE#         201
  C:6A19H         LINE#         202
  C:6A19H         LINE#         203
  C:6A1FH         LINE#         204
  C:6A21H         LINE#         205
  C:6A28H         LINE#         206
  C:6A28H         LINE#         207
  C:6A2EH         LINE#         208
  C:6A30H         LINE#         209
  C:6A37H         LINE#         210
  C:6A37H         LINE#         211
  C:6A3DH         LINE#         212
  C:6A3FH         LINE#         213
  C:6A46H         LINE#         214
  C:6A46H         LINE#         215
  C:6A4CH         LINE#         216
  C:6A4EH         LINE#         217
  C:6A55H         LINE#         218
  C:6A55H         LINE#         219
  C:6A5EH         LINE#         220
  C:6A5EH         LINE#         222
  C:6A64H         LINE#         223
  C:6A67H         LINE#         224
  C:6A69H         LINE#         225
  C:6A6DH         LINE#         226
  C:6A71H         LINE#         227
  C:6A75H         LINE#         228
  C:6A7DH         LINE#         229
  C:6A81H         LINE#         230
  C:6A8DH         LINE#         231
  C:6A8DH         LINE#         232
  C:6AA1H         LINE#         233
  C:6AA4H         LINE#         234
  C:6AACH         LINE#         235
  C:6AAEH         LINE#         236
BL51 BANKED LINKER/LOCATER V6.22.2.0                                                  07/21/2020  12:52:08  PAGE 90


  C:6AB3H         LINE#         237
  C:6AC2H         LINE#         238
  C:6ACDH         LINE#         239
  C:6AD3H         LINE#         240
  C:6AD3H         LINE#         242
  -------         ENDPROC       _MOV_CARD
  -------         PROC          AUT_CARD_CHECK_STATUS
  -------         DO            
  D:0003H         SYMBOL        j
  X:0003H         SYMBOL        bcc
  X:0004H         SYMBOL        g_scArrTxComSoft
  -------         ENDDO         
  C:8CFDH         LINE#         248
  C:8CFDH         LINE#         249
  C:8CFDH         LINE#         252
  C:8D02H         LINE#         254
  C:8D0BH         LINE#         256
  C:8D11H         LINE#         257
  C:8D14H         LINE#         258
  C:8D16H         LINE#         259
  C:8D1AH         LINE#         260
  C:8D1EH         LINE#         261
  C:8D22H         LINE#         262
  C:8D26H         LINE#         263
  C:8D2AH         LINE#         264
  C:8D36H         LINE#         265
  C:8D36H         LINE#         266
  C:8D4AH         LINE#         267
  C:8D4DH         LINE#         268
  C:8D55H         LINE#         269
  C:8D57H         LINE#         270
  C:8D5CH         LINE#         271
  C:8D6BH         LINE#         272
  C:8D76H         LINE#         273
  C:8D7CH         LINE#         274
  -------         ENDPROC       AUT_CARD_CHECK_STATUS
  -------         PROC          CLAVE_SEGURIDAD_S2
  -------         DO            
  D:0003H         SYMBOL        j
  X:0008H         SYMBOL        bcc
  X:0009H         SYMBOL        g_scArrTxComSoft
  -------         ENDDO         
  C:7E34H         LINE#         277
  C:7E34H         LINE#         278
  C:7E34H         LINE#         281
  C:7E39H         LINE#         282
  C:7E42H         LINE#         285
  C:7E48H         LINE#         286
  C:7E4BH         LINE#         287
  C:7E4DH         LINE#         288
  C:7E51H         LINE#         289
  C:7E55H         LINE#         290
  C:7E59H         LINE#         291
  C:7E5DH         LINE#         292
  C:7E60H         LINE#         293
  C:7E64H         LINE#         294
  C:7E67H         LINE#         295
BL51 BANKED LINKER/LOCATER V6.22.2.0                                                  07/21/2020  12:52:08  PAGE 91


  C:7E6BH         LINE#         297
  C:7E6FH         LINE#         299
  C:7E73H         LINE#         300
  C:7E77H         LINE#         301
  C:7E7BH         LINE#         302
  C:7E7FH         LINE#         303
  C:7E83H         LINE#         304
  C:7E87H         LINE#         307
  C:7E8BH         LINE#         309
  C:7E97H         LINE#         310
  C:7E97H         LINE#         311
  C:7EABH         LINE#         312
  C:7EAEH         LINE#         313
  C:7EB6H         LINE#         314
  C:7EB8H         LINE#         315
  C:7EBDH         LINE#         316
  C:7ECCH         LINE#         317
  C:7ED7H         LINE#         318
  C:7EDDH         LINE#         321
  -------         ENDPROC       CLAVE_SEGURIDAD_S2
  -------         PROC          DWLOAD_EEPROM
  -------         DO            
  D:0003H         SYMBOL        j
  X:0003H         SYMBOL        bcc
  X:0004H         SYMBOL        g_scArrTxComSoft
  -------         ENDDO         
  C:7EDEH         LINE#         326
  C:7EDEH         LINE#         327
  C:7EDEH         LINE#         330
  C:7EE3H         LINE#         331
  C:7EECH         LINE#         333
  C:7EF2H         LINE#         334
  C:7EF5H         LINE#         335
  C:7EF7H         LINE#         336
  C:7EFBH         LINE#         337
  C:7EFFH         LINE#         338
  C:7F03H         LINE#         339
  C:7F07H         LINE#         340
  C:7F0AH         LINE#         341
  C:7F0EH         LINE#         342
  C:7F11H         LINE#         343
  C:7F14H         LINE#         344
  C:7F18H         LINE#         345
  C:7F1CH         LINE#         346
  C:7F20H         LINE#         347
  C:7F24H         LINE#         348
  C:7F28H         LINE#         349
  C:7F2CH         LINE#         350
  C:7F30H         LINE#         351
  C:7F34H         LINE#         353
  C:7F40H         LINE#         354
  C:7F40H         LINE#         355
  C:7F54H         LINE#         356
  C:7F57H         LINE#         357
  C:7F5FH         LINE#         358
  C:7F61H         LINE#         359
  C:7F66H         LINE#         360
BL51 BANKED LINKER/LOCATER V6.22.2.0                                                  07/21/2020  12:52:08  PAGE 92


  C:7F75H         LINE#         361
  C:7F80H         LINE#         362
  C:7F86H         LINE#         363
  -------         ENDPROC       DWLOAD_EEPROM
  -------         PROC          LOADVERIFY_EEPROM
  -------         DO            
  D:0003H         SYMBOL        j
  X:0003H         SYMBOL        bcc
  X:0004H         SYMBOL        g_scArrTxComSoft
  -------         ENDDO         
  C:84FBH         LINE#         369
  C:84FBH         LINE#         370
  C:84FBH         LINE#         373
  C:8500H         LINE#         374
  C:8509H         LINE#         377
  C:850FH         LINE#         378
  C:8512H         LINE#         379
  C:8514H         LINE#         380
  C:8518H         LINE#         381
  C:851CH         LINE#         382
  C:8520H         LINE#         383
  C:8524H         LINE#         384
  C:8527H         LINE#         385
  C:852BH         LINE#         386
  C:852EH         LINE#         387
  C:8531H         LINE#         388
  C:8535H         LINE#         389
  C:8539H         LINE#         393
  C:8545H         LINE#         394
  C:8545H         LINE#         395
  C:8559H         LINE#         396
  C:855CH         LINE#         397
  C:8564H         LINE#         398
  C:8566H         LINE#         399
  C:856BH         LINE#         400
  C:857AH         LINE#         401
  C:8585H         LINE#         402
  C:858BH         LINE#         404
  -------         ENDPROC       LOADVERIFY_EEPROM
  -------         PROC          _RD_MF
  X:0003H         SYMBOL        Sector
  X:0004H         SYMBOL        Bloque
  -------         DO            
  D:0003H         SYMBOL        j
  X:0005H         SYMBOL        bcc
  X:0006H         SYMBOL        g_scArrTxComSoft
  -------         ENDDO         
  C:74C0H         LINE#         410
  C:74C8H         LINE#         411
  C:74C8H         LINE#         415
  C:74CBH         LINE#         417
  C:74D4H         LINE#         418
  C:74DCH         LINE#         420
  C:74E5H         LINE#         421
  C:74EDH         LINE#         422
  C:74F6H         LINE#         425
  C:74FCH         LINE#         426
BL51 BANKED LINKER/LOCATER V6.22.2.0                                                  07/21/2020  12:52:08  PAGE 93


  C:74FFH         LINE#         427
  C:7501H         LINE#         428
  C:7505H         LINE#         429
  C:7509H         LINE#         430
  C:750DH         LINE#         431
  C:7511H         LINE#         432
  C:7514H         LINE#         433
  C:7518H         LINE#         434
  C:7520H         LINE#         435
  C:7528H         LINE#         436
  C:752CH         LINE#         437
  C:7530H         LINE#         439
  C:753CH         LINE#         440
  C:753CH         LINE#         441
  C:7550H         LINE#         442
  C:7553H         LINE#         443
  C:755BH         LINE#         446
  C:755DH         LINE#         447
  C:7562H         LINE#         448
  C:7571H         LINE#         449
  C:757CH         LINE#         450
  C:7582H         LINE#         452
  -------         ENDPROC       _RD_MF
  -------         PROC          _WR_MF
  X:0003H         SYMBOL        Sector
  X:0004H         SYMBOL        Bloque
  X:0005H         SYMBOL        buffer
  -------         DO            
  D:0005H         SYMBOL        j
  X:0008H         SYMBOL        bcc
  X:0009H         SYMBOL        g_scArrTxComSoft
  -------         ENDDO         
  C:6206H         LINE#         459
  C:6217H         LINE#         461
  C:6217H         LINE#         464
  C:621AH         LINE#         466
  C:6223H         LINE#         467
  C:622BH         LINE#         469
  C:6234H         LINE#         470
  C:623CH         LINE#         471
  C:6245H         LINE#         473
  C:624BH         LINE#         474
  C:624EH         LINE#         475
  C:6250H         LINE#         476
  C:6254H         LINE#         478
  C:6258H         LINE#         479
  C:625CH         LINE#         480
  C:6260H         LINE#         481
  C:6263H         LINE#         482
  C:6267H         LINE#         483
  C:626FH         LINE#         484
  C:6277H         LINE#         485
  C:627BH         LINE#         487
  C:6287H         LINE#         488
  C:6287H         LINE#         489
  C:62A7H         LINE#         490
  C:62AAH         LINE#         492
BL51 BANKED LINKER/LOCATER V6.22.2.0                                                  07/21/2020  12:52:08  PAGE 94


  C:62B0H         LINE#         494
  C:62BCH         LINE#         495
  C:62BCH         LINE#         496
  C:62D3H         LINE#         497
  C:62D6H         LINE#         498
  C:62DEH         LINE#         501
  C:62E0H         LINE#         502
  C:62E5H         LINE#         503
  C:62F4H         LINE#         504
  C:62FFH         LINE#         505
  C:6305H         LINE#         507
  -------         ENDPROC       _WR_MF
  -------         PROC          UNIQUE_IDENTIFIER_UID
  -------         DO            
  D:0003H         SYMBOL        j
  X:0003H         SYMBOL        bcc
  X:0004H         SYMBOL        g_scArrTxComSoft
  -------         ENDDO         
  C:8967H         LINE#         512
  C:8967H         LINE#         513
  C:8967H         LINE#         516
  C:896CH         LINE#         518
  C:8975H         LINE#         520
  C:897BH         LINE#         521
  C:897EH         LINE#         522
  C:8980H         LINE#         523
  C:8984H         LINE#         524
  C:8988H         LINE#         525
  C:898CH         LINE#         526
  C:8990H         LINE#         527
  C:8994H         LINE#         528
  C:8998H         LINE#         529
  C:899CH         LINE#         530
  C:89A8H         LINE#         531
  C:89A8H         LINE#         532
  C:89BCH         LINE#         533
  C:89BFH         LINE#         534
  C:89C7H         LINE#         535
  C:89C9H         LINE#         536
  C:89CEH         LINE#         537
  C:89DDH         LINE#         538
  C:89E8H         LINE#         539
  C:89EEH         LINE#         540
  -------         ENDPROC       UNIQUE_IDENTIFIER_UID
  -------         PROC          POWER_OFF
  -------         DO            
  D:0003H         SYMBOL        j
  X:0003H         SYMBOL        bcc
  X:0004H         SYMBOL        g_scArrTxComSoft
  -------         ENDDO         
  C:8D7DH         LINE#         541
  C:8D7DH         LINE#         542
  C:8D7DH         LINE#         545
  C:8D82H         LINE#         547
  C:8D8BH         LINE#         549
  C:8D91H         LINE#         550
  C:8D94H         LINE#         551
BL51 BANKED LINKER/LOCATER V6.22.2.0                                                  07/21/2020  12:52:08  PAGE 95


  C:8D96H         LINE#         552
  C:8D9AH         LINE#         553
  C:8D9EH         LINE#         554
  C:8DA2H         LINE#         555
  C:8DA6H         LINE#         556
  C:8DAAH         LINE#         557
  C:8DB6H         LINE#         558
  C:8DB6H         LINE#         559
  C:8DCAH         LINE#         560
  C:8DCDH         LINE#         561
  C:8DD5H         LINE#         562
  C:8DD7H         LINE#         563
  C:8DDCH         LINE#         564
  C:8DEBH         LINE#         565
  C:8DF6H         LINE#         566
  C:8DFCH         LINE#         569
  -------         ENDPROC       POWER_OFF
  -------         ENDMOD        LINTECH

  -------         MODULE        VERIFICADOR
  C:0000H         SYMBOL        _ICE_DUMMY_
  D:0080H         PUBLIC        P0
  C:9FC5H         PUBLIC        Analiza_Presencia_Mensual
  C:94BBH         PUBLIC        Ingreso_Vehiculo
  D:0090H         PUBLIC        P1
  C:9F50H         PUBLIC        _Armar_Trama_Tarjeta_Sector1_Bloque0
  D:00B0H         PUBLIC        P3
  C:4B70H         PUBLIC        _Valida_Tipo_Tarjeta
  C:9BCDH         PUBLIC        _Load_Secuencia_Expedidor
  C:558BH         PUBLIC        _Armar_Trama_Tarjeta_Sector1_Bloque2
  C:4D15H         PUBLIC        Armar_Trama_Pto_Paralelo_Expedidor
  C:73FCH         PUBLIC        _Tarjeta_Mensual
  C:A011H         PUBLIC        Analiza_Presencia_rotacion
  C:95C3H         PUBLIC        Disparo_Lock_Entrada_Vehiculo
  C:8341H         PUBLIC        _Valida_Vehiculo_Card_Mensual
  C:93A5H         PUBLIC        _Armar_Trama_Placa
  C:70DAH         PUBLIC        _rta_cmd_transporte
  C:A22AH         PUBLIC        Captura_Expulsa
  C:52FEH         PUBLIC        _Armar_Trama_Monitor
  C:580BH         PUBLIC        Secuencia_inicio_expedidor
  C:6E57H         PUBLIC        _Analiza_Uid_Card
  B:0080H.0       PUBLIC        rx_ip
  C:6103H         PUBLIC        _Bloque_Horario
  B:0090H.7       PUBLIC        lock
  C:7706H         PUBLIC        error_rx_pto
  C:47DEH         PUBLIC        _Responde_Lectura_Tarjeta_Sector1_Bloque1
  C:5949H         PUBLIC        _Responde_Lectura_Tarjeta_Sector1_Bloque2
  B:0090H.1       PUBLIC        DataIn
  C:89EFH         PUBLIC        _Send_Pto_Paralelo
  C:9DE6H         PUBLIC        Trama_Validacion_P_N
  B:0021H.6       PUBLIC        MenSual
  C:7004H         PUBLIC        _Armar_Trama_Pto_Paralelo_Expedidor_Mensual
  B:0080H.3       PUBLIC        Rele_Atasco
  C:5EE8H         PUBLIC        _Horarios
  C:7D88H         PUBLIC        _Hora_Maxima
  C:3103H         PUBLIC        _SecuenciaExpedidorMF
  C:92E6H         PUBLIC        _Pregunta_Lpr
BL51 BANKED LINKER/LOCATER V6.22.2.0                                                  07/21/2020  12:52:08  PAGE 96


  C:802DH         PUBLIC        _Wait_Placa
  C:8E79H         PUBLIC        Responde_Estado_Sensores_Transporte
  C:8F6FH         PUBLIC        Entrega_Card_Captura
  C:9403H         PUBLIC        _Respuesta_Segunda_clave
  X:0130H         SYMBOL        Estado
  C:9D48H         PUBLIC        _Responde_Write_Tarjeta_Sector1_Bloque0
  C:97D0H         PUBLIC        _Responde_Write_Tarjeta_Sector2_Bloque0
  C:8EF5H         PUBLIC        _Responde_Write_Tarjeta_Sector1_Bloque2
  C:9142H         PUBLIC        _En_Horario
  C:90D1H         PUBLIC        Responde_Tipo_Tarjeta
  C:9E4BH         PUBLIC        _Tarjeta_Rotacion
  -------         PROC          CAPTURA_EXPULSA
  -------         DO            
  D:0007H         SYMBOL        Estado_expedidor
  -------         ENDDO         
  C:A22AH         LINE#         538
  C:A22AH         LINE#         539
  C:A22AH         LINE#         543
  C:A22DH         LINE#         544
  C:A22DH         LINE#         545
  C:A22FH         LINE#         546
  C:A230H         LINE#         548
  C:A230H         LINE#         550
  C:A232H         LINE#         551
  C:A232H         LINE#         554
  C:A232H         LINE#         555
  -------         ENDPROC       CAPTURA_EXPULSA
  -------         PROC          TRAMA_VALIDACION_P_N
  -------         DO            
  D:0007H         SYMBOL        Trama_Validacion_P_N
  -------         ENDDO         
  C:9DE6H         LINE#         566
  C:9DE6H         LINE#         567
  C:9DE6H         LINE#         568
  C:9DE8H         LINE#         570
  C:9DF3H         LINE#         571
  C:9DF3H         LINE#         572
  C:9DF6H         LINE#         573
  C:9DF6H         LINE#         574
  C:9DF8H         LINE#         577
  C:9E00H         LINE#         578
  C:9E00H         LINE#         580
  C:9E02H         LINE#         582
  C:9E03H         LINE#         583
  C:9E07H         LINE#         584
  C:9E07H         LINE#         586
  C:9E09H         LINE#         588
  C:9E0AH         LINE#         590
  C:9E0AH         LINE#         591
  C:9E13H         LINE#         592
  C:9E15H         LINE#         594
  C:9E15H         LINE#         595
  C:9E16H         LINE#         597
  C:9E16H         LINE#         599
  C:9E18H         LINE#         601
  C:9E18H         LINE#         603
  C:9E18H         LINE#         605
BL51 BANKED LINKER/LOCATER V6.22.2.0                                                  07/21/2020  12:52:08  PAGE 97


  C:9E18H         LINE#         606
  -------         ENDPROC       TRAMA_VALIDACION_P_N
  -------         PROC          ERROR_RX_PTO
  -------         DO            
  X:00B8H         SYMBOL        cnt_espera_ask_on
  X:0008H         SYMBOL        error_rx_pto
  -------         ENDDO         
  C:7706H         LINE#         630
  C:7706H         LINE#         631
  C:7706H         LINE#         634
  C:770CH         LINE#         638
  C:7715H         LINE#         639
  C:771DH         LINE#         640
  C:7726H         LINE#         641
  C:772EH         LINE#         642
  C:7737H         LINE#         643
  C:773AH         LINE#         645
  C:773AH         LINE#         646
  C:7740H         LINE#         647
  C:774AH         LINE#         648
  C:774AH         LINE#         649
  C:7753H         LINE#         650
  C:7755H         LINE#         651
  C:775CH         LINE#         652
  C:7761H         LINE#         653
  C:7767H         LINE#         654
  C:776CH         LINE#         655
  C:776EH         LINE#         656
  C:7775H         LINE#         657
  C:777BH         LINE#         658
  C:777BH         LINE#         660
  C:777BH         LINE#         661
  C:7780H         LINE#         662
  C:7780H         LINE#         663
  C:7780H         LINE#         664
  C:7782H         LINE#         666
  C:7782H         LINE#         667
  C:7790H         LINE#         668
  C:77A3H         LINE#         669
  C:77A3H         LINE#         670
  C:77A4H         LINE#         672
  C:77AAH         LINE#         673
  C:77AEH         LINE#         674
  C:77B0H         LINE#         675
  C:77B0H         LINE#         676
  C:77B2H         LINE#         678
  C:77B2H         LINE#         679
  C:77B3H         LINE#         680
  C:77B8H         LINE#         681
  C:77BEH         LINE#         682
  C:77BEH         LINE#         683
  C:77BEH         LINE#         684
  C:77C3H         LINE#         685
  -------         ENDPROC       ERROR_RX_PTO
  -------         PROC          _RTA_CMD_TRANSPORTE
  X:0003H         SYMBOL        secuencia_Expedidor
  -------         DO            
BL51 BANKED LINKER/LOCATER V6.22.2.0                                                  07/21/2020  12:52:08  PAGE 98


  X:0006H         SYMBOL        temp
  X:0007H         SYMBOL        EstadoComSeqMF
  -------         ENDDO         
  C:70DAH         LINE#         701
  C:70E5H         LINE#         702
  C:70E5H         LINE#         707
  C:70F2H         LINE#         708
  C:70F2H         LINE#         709
  C:70FAH         LINE#         710
  C:70FAH         LINE#         711
  C:7108H         LINE#         712
  C:710BH         LINE#         713
  C:7111H         LINE#         714
  C:7111H         LINE#         715
  C:711AH         LINE#         716
  C:712EH         LINE#         717
  C:713FH         LINE#         718
  C:7141H         LINE#         720
  C:7141H         LINE#         723
  C:7159H         LINE#         724
  C:7159H         LINE#         725
  C:7164H         LINE#         726
  C:7166H         LINE#         728
  C:7166H         LINE#         729
  C:7174H         LINE#         730
  C:7174H         LINE#         731
  C:7174H         LINE#         732
  C:7176H         LINE#         734
  C:7176H         LINE#         736
  C:718AH         LINE#         737
  C:719FH         LINE#         738
  C:719FH         LINE#         739
  C:71A4H         LINE#         740
  -------         ENDPROC       _RTA_CMD_TRANSPORTE
  -------         PROC          ANALIZA_PRESENCIA_MENSUAL
  -------         DO            
  X:0003H         SYMBOL        Estado_expedidor
  -------         ENDDO         
  C:9FC5H         LINE#         744
  C:9FC5H         LINE#         745
  C:9FC5H         LINE#         747
  C:9FCBH         LINE#         748
  C:9FCBH         LINE#         749
  C:9FCDH         LINE#         750
  C:9FD3H         LINE#         751
  C:9FD5H         LINE#         753
  C:9FD5H         LINE#         755
  C:9FDAH         LINE#         756
  C:9FDFH         LINE#         757
  C:9FE5H         LINE#         759
  C:9FE5H         LINE#         760
  C:9FEAH         LINE#         761
  -------         ENDPROC       ANALIZA_PRESENCIA_MENSUAL
  -------         PROC          ANALIZA_PRESENCIA_ROTACION
  -------         DO            
  X:0003H         SYMBOL        Estado_expedidor
  -------         ENDDO         
BL51 BANKED LINKER/LOCATER V6.22.2.0                                                  07/21/2020  12:52:08  PAGE 99


  C:A011H         LINE#         762
  C:A011H         LINE#         763
  C:A011H         LINE#         765
  C:A017H         LINE#         766
  C:A017H         LINE#         768
  C:A01DH         LINE#         769
  C:A01FH         LINE#         771
  C:A01FH         LINE#         773
  C:A024H         LINE#         774
  C:A029H         LINE#         775
  C:A02EH         LINE#         777
  C:A02EH         LINE#         778
  C:A033H         LINE#         779
  -------         ENDPROC       ANALIZA_PRESENCIA_ROTACION
  -------         PROC          _ANALIZA_UID_CARD
  X:0003H         SYMBOL        Atributos_Expedidor
  -------         DO            
  X:0006H         SYMBOL        Estado_expedidor
  D:0007H         SYMBOL        temp
  X:0007H         SYMBOL        buffer_UID
  -------         ENDDO         
  C:6E57H         LINE#         783
  C:6E62H         LINE#         784
  C:6E62H         LINE#         788
  C:6E72H         LINE#         789
  C:6E72H         LINE#         791
  C:6E7EH         LINE#         792
  C:6E7EH         LINE#         793
  C:6E96H         LINE#         795
  C:6E99H         LINE#         797
  C:6EA2H         LINE#         798
  C:6EB3H         LINE#         801
  C:6EBCH         LINE#         802
  C:6EC4H         LINE#         803
  C:6ECCH         LINE#         804
  C:6ED4H         LINE#         805
  C:6EDCH         LINE#         806
  C:6EE5H         LINE#         808
  C:6EFCH         LINE#         809
  C:6F06H         LINE#         810
  C:6F10H         LINE#         811
  C:6F1AH         LINE#         812
  C:6F20H         LINE#         813
  C:6F22H         LINE#         815
  C:6F22H         LINE#         816
  C:6F28H         LINE#         817
  C:6F28H         LINE#         818
  C:6F2DH         LINE#         819
  -------         ENDPROC       _ANALIZA_UID_CARD
  -------         PROC          INGRESO_VEHICULO
  -------         DO            
  D:0007H         SYMBOL        CardAutomatic
  X:00BAH         SYMBOL        pulseboton
  -------         ENDDO         
  C:94BBH         LINE#         823
  C:94BBH         LINE#         824
  C:94BBH         LINE#         828
BL51 BANKED LINKER/LOCATER V6.22.2.0                                                  07/21/2020  12:52:08  PAGE 100


  C:94C1H         LINE#         829
  C:94C1H         LINE#         830
  C:94CAH         LINE#         832
  C:94CFH         LINE#         833
  C:94CFH         LINE#         834
  C:94D8H         LINE#         836
  C:94D8H         LINE#         837
  C:94DAH         LINE#         839
  C:94DAH         LINE#         840
  C:94E0H         LINE#         841
  C:94E5H         LINE#         842
  C:94E7H         LINE#         844
  C:94E7H         LINE#         845
  C:94EDH         LINE#         848
  C:94EDH         LINE#         849
  C:94F0H         LINE#         850
  C:94F3H         LINE#         851
  C:94F3H         LINE#         852
  C:94FCH         LINE#         853
  C:9501H         LINE#         854
  C:9507H         LINE#         855
  C:9509H         LINE#         864
  C:9509H         LINE#         866
  C:950EH         LINE#         867
  C:950EH         LINE#         868
  C:9513H         LINE#         869
  -------         ENDPROC       INGRESO_VEHICULO
  -------         PROC          RESPONDE_ESTADO_SENSORES_TRANSPORTE
  -------         DO            
  X:0003H         SYMBOL        Estado_expedidor
  -------         ENDDO         
  C:8E79H         LINE#         876
  C:8E79H         LINE#         877
  C:8E79H         LINE#         880
  C:8E82H         LINE#         882
  C:8E8AH         LINE#         883
  C:8E8AH         LINE#         885
  C:8E95H         LINE#         886
  C:8E95H         LINE#         887
  C:8E99H         LINE#         888
  C:8E99H         LINE#         889
  C:8EA2H         LINE#         890
  C:8EA7H         LINE#         892
  C:8EA7H         LINE#         893
  C:8EA9H         LINE#         895
  C:8EA9H         LINE#         897
  C:8EB1H         LINE#         899
  C:8EB1H         LINE#         900
  C:8EB3H         LINE#         902
  C:8EB3H         LINE#         904
  C:8EBCH         LINE#         906
  C:8EC1H         LINE#         909
  C:8EC1H         LINE#         910
  C:8EC1H         LINE#         911
  C:8EC3H         LINE#         912
  C:8ECAH         LINE#         913
  C:8ECAH         LINE#         915
BL51 BANKED LINKER/LOCATER V6.22.2.0                                                  07/21/2020  12:52:08  PAGE 101


  C:8ED0H         LINE#         917
  C:8ED0H         LINE#         918
  C:8ED2H         LINE#         919
  C:8ED9H         LINE#         921
  C:8ED9H         LINE#         922
  C:8EE2H         LINE#         923
  C:8EE8H         LINE#         924
  C:8EEAH         LINE#         926
  C:8EEAH         LINE#         927
  C:8EEFH         LINE#         928
  C:8EEFH         LINE#         929
  C:8EF4H         LINE#         930
  -------         ENDPROC       RESPONDE_ESTADO_SENSORES_TRANSPORTE
  -------         PROC          RESPONDE_TIPO_TARJETA
  -------         DO            
  X:0003H         SYMBOL        Estado_expedidor
  -------         ENDDO         
  C:90D1H         LINE#         946
  C:90D1H         LINE#         947
  C:90D1H         LINE#         950
  C:90DAH         LINE#         952
  C:90E2H         LINE#         953
  C:90E2H         LINE#         954
  C:90E7H         LINE#         955
  C:90E7H         LINE#         956
  C:90F0H         LINE#         957
  C:90F6H         LINE#         958
  C:90F6H         LINE#         959
  C:90F9H         LINE#         960
  C:90FBH         LINE#         962
  C:90FBH         LINE#         963
  C:90FEH         LINE#         964
  C:90FEH         LINE#         965
  C:9100H         LINE#         967
  C:9100H         LINE#         968
  C:9107H         LINE#         969
  C:9107H         LINE#         970
  C:910DH         LINE#         971
  C:910DH         LINE#         972
  C:910DH         LINE#         974
  C:910DH         LINE#         976
  C:910FH         LINE#         978
  C:910FH         LINE#         979
  C:910FH         LINE#         980
  C:910FH         LINE#         981
  C:910FH         LINE#         982
  C:910FH         LINE#         983
  C:9111H         LINE#         985
  C:9111H         LINE#         986
  C:9118H         LINE#         987
  C:9118H         LINE#         988
  C:9121H         LINE#         990
  C:9126H         LINE#         991
  C:912BH         LINE#         993
  C:9133H         LINE#         996
  C:9135H         LINE#         998
  C:9135H         LINE#         999
BL51 BANKED LINKER/LOCATER V6.22.2.0                                                  07/21/2020  12:52:08  PAGE 102


  C:9137H         LINE#         1000
  C:913CH         LINE#         1001
  C:913CH         LINE#         1002
  C:913CH         LINE#         1004
  C:9141H         LINE#         1005
  -------         ENDPROC       RESPONDE_TIPO_TARJETA
  -------         PROC          _RESPONDE_LECTURA_TARJETA_SECTOR1_BLOQUE1
  X:0003H         SYMBOL        Atributos_Expedidor
  -------         DO            
  D:0007H         SYMBOL        temp
  X:0006H         SYMBOL        Estado_expedidor
  X:0007H         SYMBOL        buffer_S1_B1
  X:0018H         SYMBOL        ID_CLIENTE
  D:0007H         SYMBOL        COD_PARK
  X:00BBH         SYMBOL        falla
  -------         ENDDO         
  C:47DEH         LINE#         1017
  C:47E9H         LINE#         1018
  C:47E9H         LINE#         1025
  C:47F2H         LINE#         1029
  C:4802H         LINE#         1030
  C:4802H         LINE#         1032
  C:480EH         LINE#         1033
  C:480EH         LINE#         1034
  C:4826H         LINE#         1036
  C:4829H         LINE#         1039
  C:4832H         LINE#         1040
  C:4843H         LINE#         1041
  C:4850H         LINE#         1042
  C:4859H         LINE#         1045
  C:4878H         LINE#         1046
  C:4878H         LINE#         1048
  C:4881H         LINE#         1049
  C:4889H         LINE#         1050
  C:4892H         LINE#         1052
  C:489BH         LINE#         1053
  C:48A3H         LINE#         1054
  C:48ACH         LINE#         1056
  C:48B5H         LINE#         1057
  C:48BDH         LINE#         1058
  C:48C6H         LINE#         1060
  C:48CFH         LINE#         1061
  C:48D7H         LINE#         1062
  C:48E0H         LINE#         1064
  C:48E9H         LINE#         1065
  C:48F1H         LINE#         1066
  C:48FAH         LINE#         1068
  C:4911H         LINE#         1070
  C:491BH         LINE#         1071
  C:4925H         LINE#         1072
  C:492FH         LINE#         1074
  C:4934H         LINE#         1075
  C:4947H         LINE#         1076
  C:494CH         LINE#         1077
  C:4952H         LINE#         1079
  C:4954H         LINE#         1081
  C:4954H         LINE#         1082
BL51 BANKED LINKER/LOCATER V6.22.2.0                                                  07/21/2020  12:52:08  PAGE 103


  C:4959H         LINE#         1083
  C:4962H         LINE#         1084
  C:4967H         LINE#         1085
  C:4969H         LINE#         1086
  C:4969H         LINE#         1087
  C:4969H         LINE#         1088
  C:496BH         LINE#         1090
  C:496BH         LINE#         1092
  C:4973H         LINE#         1093
  C:4973H         LINE#         1094
  C:4979H         LINE#         1095
  C:4979H         LINE#         1096
  C:4986H         LINE#         1098
  C:4986H         LINE#         1099
  C:498FH         LINE#         1100
  C:4995H         LINE#         1102
  C:4997H         LINE#         1104
  C:4997H         LINE#         1105
  C:499CH         LINE#         1106
  C:49A5H         LINE#         1107
  C:49AAH         LINE#         1108
  C:49AFH         LINE#         1109
  C:49B7H         LINE#         1110
  C:49B7H         LINE#         1111
  C:49B7H         LINE#         1113
  C:49BCH         LINE#         1114
  -------         ENDPROC       _RESPONDE_LECTURA_TARJETA_SECTOR1_BLOQUE1
  -------         PROC          _RESPONDE_LECTURA_TARJETA_SECTOR1_BLOQUE2
  X:0003H         SYMBOL        Atributos_Expedidor
  -------         DO            
  D:0007H         SYMBOL        temp
  X:0006H         SYMBOL        Estado_expedidor
  X:0007H         SYMBOL        buffer_S1_B2
  -------         ENDDO         
  C:5949H         LINE#         1119
  C:5954H         LINE#         1120
  C:5954H         LINE#         1126
  C:595DH         LINE#         1130
  C:596DH         LINE#         1131
  C:596DH         LINE#         1133
  C:5979H         LINE#         1134
  C:5979H         LINE#         1135
  C:5991H         LINE#         1136
  C:5994H         LINE#         1137
  C:599DH         LINE#         1138
  C:59AEH         LINE#         1142
  C:59B7H         LINE#         1143
  C:59C4H         LINE#         1144
  C:59E0H         LINE#         1145
  C:59E9H         LINE#         1147
  C:59F2H         LINE#         1149
  C:5A0EH         LINE#         1150
  C:5A18H         LINE#         1151
  C:5A21H         LINE#         1154
  C:5A2AH         LINE#         1155
  C:5A32H         LINE#         1156
  C:5A3BH         LINE#         1160
BL51 BANKED LINKER/LOCATER V6.22.2.0                                                  07/21/2020  12:52:08  PAGE 104


  C:5A52H         LINE#         1163
  C:5A5EH         LINE#         1164
  C:5A64H         LINE#         1167
  C:5A66H         LINE#         1169
  C:5A66H         LINE#         1170
  C:5A6EH         LINE#         1171
  C:5A6EH         LINE#         1172
  C:5A73H         LINE#         1173
  -------         ENDPROC       _RESPONDE_LECTURA_TARJETA_SECTOR1_BLOQUE2
  -------         PROC          _RESPONDE_WRITE_TARJETA_SECTOR1_BLOQUE2
  X:0003H         SYMBOL        Atributos_Expedidor
  X:0006H         SYMBOL        Buffer_Write_MF
  -------         DO            
  X:0009H         SYMBOL        Estado_expedidor
  -------         ENDDO         
  C:8EF5H         LINE#         1174
  C:8F00H         LINE#         1175
  C:8F00H         LINE#         1177
  C:8F09H         LINE#         1178
  C:8F12H         LINE#         1179
  C:8F28H         LINE#         1180
  C:8F2BH         LINE#         1181
  C:8F2BH         LINE#         1182
  C:8F3BH         LINE#         1183
  C:8F4DH         LINE#         1184
  C:8F5BH         LINE#         1185
  C:8F61H         LINE#         1186
  C:8F63H         LINE#         1188
  C:8F63H         LINE#         1189
  C:8F69H         LINE#         1190
  C:8F69H         LINE#         1191
  C:8F6EH         LINE#         1192
  -------         ENDPROC       _RESPONDE_WRITE_TARJETA_SECTOR1_BLOQUE2
  -------         PROC          _RESPONDE_WRITE_TARJETA_SECTOR1_BLOQUE0
  X:0003H         SYMBOL        Buffer_Write_MF
  C:9D48H         LINE#         1195
  C:9D53H         LINE#         1196
  C:9D53H         LINE#         1198
  C:9D5CH         LINE#         1199
  C:9D65H         LINE#         1200
  C:9D7BH         LINE#         1202
  C:9D7DH         LINE#         1203
  -------         ENDPROC       _RESPONDE_WRITE_TARJETA_SECTOR1_BLOQUE0
  -------         PROC          _PREGUNTA_LPR
  X:0003H         SYMBOL        Atributos_Expedidor
  -------         DO            
  X:0006H         SYMBOL        Estado_expedidor
  -------         ENDDO         
  C:92E6H         LINE#         1206
  C:92F1H         LINE#         1207
  C:92F1H         LINE#         1209
  C:92FFH         LINE#         1210
  C:92FFH         LINE#         1211
  C:9310H         LINE#         1212
  C:931CH         LINE#         1213
  C:931CH         LINE#         1214
  C:9320H         LINE#         1215
BL51 BANKED LINKER/LOCATER V6.22.2.0                                                  07/21/2020  12:52:08  PAGE 105


  C:9320H         LINE#         1216
  C:9320H         LINE#         1218
  C:932FH         LINE#         1219
  C:932FH         LINE#         1220
  C:9332H         LINE#         1221
  C:9337H         LINE#         1222
  C:933CH         LINE#         1223
  C:933EH         LINE#         1225
  C:933EH         LINE#         1226
  C:9341H         LINE#         1227
  C:9341H         LINE#         1228
  C:9346H         LINE#         1229
  -------         ENDPROC       _PREGUNTA_LPR
  -------         PROC          _RESPONDE_WRITE_TARJETA_SECTOR2_BLOQUE0
  X:0003H         SYMBOL        Buffer_Write_MF
  C:97D0H         LINE#         1232
  C:97DBH         LINE#         1233
  C:97DBH         LINE#         1235
  C:97E4H         LINE#         1236
  C:97EDH         LINE#         1237
  C:97F6H         LINE#         1238
  C:97FFH         LINE#         1239
  C:9814H         LINE#         1240
  C:9816H         LINE#         1241
  -------         ENDPROC       _RESPONDE_WRITE_TARJETA_SECTOR2_BLOQUE0
  -------         PROC          _RESPUESTA_SEGUNDA_CLAVE
  X:0003H         SYMBOL        Atributos_Expedidor
  X:0006H         SYMBOL        Buffer_Write_MF
  C:9403H         LINE#         1242
  C:940EH         LINE#         1243
  C:940EH         LINE#         1244
  C:9417H         LINE#         1245
  C:942DH         LINE#         1246
  C:943DH         LINE#         1247
  C:944FH         LINE#         1248
  C:945DH         LINE#         1249
  C:945FH         LINE#         1250
  -------         ENDPROC       _RESPUESTA_SEGUNDA_CLAVE
  -------         PROC          _ARMAR_TRAMA_TARJETA_SECTOR1_BLOQUE2
  X:0011H         SYMBOL        Atributos_Expedidor
  X:0014H         SYMBOL        Buffer_Write_MF
  C:558BH         LINE#         1262
  C:5596H         LINE#         1263
  C:5596H         LINE#         1267
  C:55A2H         LINE#         1271
  C:55B4H         LINE#         1272
  C:55BBH         LINE#         1273
  C:55C2H         LINE#         1275
  C:55D7H         LINE#         1276
  C:55D7H         LINE#         1277
  C:55EEH         LINE#         1278
  C:5607H         LINE#         1279
  C:5607H         LINE#         1280
  C:560AH         LINE#         1284
  C:560AH         LINE#         1286
  C:5639H         LINE#         1287
  C:5668H         LINE#         1289
BL51 BANKED LINKER/LOCATER V6.22.2.0                                                  07/21/2020  12:52:08  PAGE 106


  C:5680H         LINE#         1290
  C:5680H         LINE#         1291
  C:568DH         LINE#         1292
  C:568FH         LINE#         1294
  C:568FH         LINE#         1295
  C:569FH         LINE#         1296
  C:569FH         LINE#         1297
  C:569FH         LINE#         1299
  C:56B1H         LINE#         1300
  C:56B8H         LINE#         1301
  C:56BFH         LINE#         1302
  C:56C6H         LINE#         1303
  -------         ENDPROC       _ARMAR_TRAMA_TARJETA_SECTOR1_BLOQUE2
  -------         PROC          _ARMAR_TRAMA_TARJETA_SECTOR1_BLOQUE0
  X:000AH         SYMBOL        Buffer_Write_MF
  C:9F50H         LINE#         1305
  C:9F5BH         LINE#         1306
  C:9F5BH         LINE#         1308
  -------         ENDPROC       _ARMAR_TRAMA_TARJETA_SECTOR1_BLOQUE0
  -------         PROC          ARMAR_TRAMA_PTO_PARALELO_EXPEDIDOR
  -------         DO            
  X:00BCH         SYMBOL        buffer
  X:0006H         SYMBOL        j
  -------         ENDDO         
  C:4D15H         LINE#         1310
  C:4D15H         LINE#         1311
  C:4D15H         LINE#         1317
  C:4D1BH         LINE#         1318
  C:4D1FH         LINE#         1319
  C:4D22H         LINE#         1320
  C:4D2DH         LINE#         1321
  C:4D44H         LINE#         1322
  C:4D4BH         LINE#         1323
  C:4D5CH         LINE#         1325
  C:4D6CH         LINE#         1326
  C:4D7EH         LINE#         1327
  C:4D8CH         LINE#         1328
  C:4D9AH         LINE#         1329
  C:4DA8H         LINE#         1330
  C:4DB6H         LINE#         1331
  C:4DC3H         LINE#         1333
  C:4DD2H         LINE#         1334
  C:4DD2H         LINE#         1335
  C:4DD5H         LINE#         1336
  C:4DD5H         LINE#         1337
  C:4DEAH         LINE#         1338
  C:4DFBH         LINE#         1339
  C:4E0CH         LINE#         1340
  C:4E1DH         LINE#         1341
  C:4E2EH         LINE#         1342
  C:4E3FH         LINE#         1343
  C:4E47H         LINE#         1344
  C:4E49H         LINE#         1346
  C:4E49H         LINE#         1347
  C:4E5AH         LINE#         1348
  C:4E62H         LINE#         1349
  C:4E62H         LINE#         1350
BL51 BANKED LINKER/LOCATER V6.22.2.0                                                  07/21/2020  12:52:08  PAGE 107


  C:4E64H         LINE#         1352
  C:4E64H         LINE#         1353
  C:4E75H         LINE#         1354
  C:4E81H         LINE#         1355
  C:4E81H         LINE#         1356
  C:4E8FH         LINE#         1357
  C:4E9DH         LINE#         1358
  C:4EA9H         LINE#         1359
  C:4EAFH         LINE#         1360
  -------         ENDPROC       ARMAR_TRAMA_PTO_PARALELO_EXPEDIDOR
  -------         PROC          _ARMAR_TRAMA_PTO_PARALELO_EXPEDIDOR_MENSUAL
  X:0006H         SYMBOL        Atributos_Expedidor
  -------         DO            
  X:00D8H         SYMBOL        buffer
  -------         ENDDO         
  C:7004H         LINE#         1361
  C:700FH         LINE#         1362
  C:700FH         LINE#         1368
  C:7015H         LINE#         1369
  C:7019H         LINE#         1370
  C:702EH         LINE#         1371
  C:7038H         LINE#         1372
  C:7042H         LINE#         1373
  C:704CH         LINE#         1376
  C:7055H         LINE#         1377
  C:705CH         LINE#         1378
  C:7061H         LINE#         1379
  C:7066H         LINE#         1380
  C:706BH         LINE#         1381
  C:7070H         LINE#         1384
  C:707CH         LINE#         1385
  C:707CH         LINE#         1387
  C:7084H         LINE#         1388
  C:708CH         LINE#         1389
  C:7094H         LINE#         1390
  C:709CH         LINE#         1391
  C:70A4H         LINE#         1392
  C:70ACH         LINE#         1394
  C:70ACH         LINE#         1396
  C:70C2H         LINE#         1397
  C:70C2H         LINE#         1398
  C:70C5H         LINE#         1399
  C:70C7H         LINE#         1401
  C:70C7H         LINE#         1402
  C:70CAH         LINE#         1403
  C:70CAH         LINE#         1405
  C:70D0H         LINE#         1406
  C:70D3H         LINE#         1407
  C:70D9H         LINE#         1408
  -------         ENDPROC       _ARMAR_TRAMA_PTO_PARALELO_EXPEDIDOR_MENSUAL
  -------         PROC          _ARMAR_TRAMA_MONITOR
  X:0007H         SYMBOL        Atributos_Expedidor
  -------         DO            
  X:00F4H         SYMBOL        buffer
  X:000AH         SYMBOL        j
  -------         ENDDO         
  C:52FEH         LINE#         1409
BL51 BANKED LINKER/LOCATER V6.22.2.0                                                  07/21/2020  12:52:08  PAGE 108


  C:5309H         LINE#         1410
  C:5309H         LINE#         1415
  C:530EH         LINE#         1416
  C:5314H         LINE#         1417
  C:531CH         LINE#         1418
  C:5320H         LINE#         1419
  C:5329H         LINE#         1420
  C:5329H         LINE#         1421
  C:532CH         LINE#         1422
  C:532EH         LINE#         1424
  C:532EH         LINE#         1425
  C:5331H         LINE#         1426
  C:5331H         LINE#         1429
  C:5334H         LINE#         1430
  C:5334H         LINE#         1431
  C:5339H         LINE#         1432
  C:5350H         LINE#         1433
  C:5353H         LINE#         1435
  C:5353H         LINE#         1436
  C:536EH         LINE#         1437
  C:537CH         LINE#         1438
  C:538AH         LINE#         1439
  C:5396H         LINE#         1440
  C:53A4H         LINE#         1441
  C:53DDH         LINE#         1443
  C:53DDH         LINE#         1444
  C:53EBH         LINE#         1445
  C:53F9H         LINE#         1447
  C:5406H         LINE#         1448
  C:5414H         LINE#         1450
  C:5422H         LINE#         1451
  C:542FH         LINE#         1452
  C:543BH         LINE#         1453
  C:5440H         LINE#         1454
  C:5445H         LINE#         1455
  -------         ENDPROC       _ARMAR_TRAMA_MONITOR
  -------         PROC          _ARMAR_TRAMA_PLACA
  X:0009H         SYMBOL        Buffer_Write_MF
  -------         DO            
  D:0007H         SYMBOL        j
  -------         ENDDO         
  C:93A5H         LINE#         1456
  C:93B0H         LINE#         1457
  C:93B0H         LINE#         1460
  C:93BCH         LINE#         1461
  C:93BCH         LINE#         1462
  C:93DCH         LINE#         1463
  C:93DFH         LINE#         1464
  C:93EBH         LINE#         1465
  C:93EBH         LINE#         1466
  C:93FFH         LINE#         1467
  C:9402H         LINE#         1468
  -------         ENDPROC       _ARMAR_TRAMA_PLACA
  C:9BB1H         SYMBOL        L?0352
  C:9BBAH         SYMBOL        L?0353
  -------         PROC          L?0351
  -------         ENDPROC       L?0351
BL51 BANKED LINKER/LOCATER V6.22.2.0                                                  07/21/2020  12:52:08  PAGE 109


  C:9BB1H         SYMBOL        L?0352
  C:9BBAH         SYMBOL        L?0353
  -------         PROC          _LOAD_SECUENCIA_EXPEDIDOR
  D:0001H         SYMBOL        Secuencia_Expedidor
  D:0004H         SYMBOL        estadoactivo
  X:000DH         SYMBOL        estadoactual
  X:000FH         SYMBOL        estadofuturo
  C:9BCDH         LINE#         1469
  C:9BCDH         LINE#         1470
  C:9BCDH         LINE#         1471
  C:9BD4H         LINE#         1472
  C:9BDCH         LINE#         1473
  C:9BE7H         LINE#         1474
  C:9BEDH         LINE#         1475
  -------         ENDPROC       _LOAD_SECUENCIA_EXPEDIDOR
  -------         PROC          DISPARO_LOCK_ENTRADA_VEHICULO
  -------         DO            
  X:0003H         SYMBOL        Estado_expedidor
  -------         ENDDO         
  C:95C3H         LINE#         1476
  C:95C3H         LINE#         1477
  C:95C3H         LINE#         1479
  C:95CCH         LINE#         1481
  C:95D1H         LINE#         1483
  C:95D8H         LINE#         1484
  C:95D8H         LINE#         1485
  C:95E1H         LINE#         1486
  C:95E3H         LINE#         1487
  C:95E8H         LINE#         1488
  C:95EDH         LINE#         1489
  C:95F3H         LINE#         1492
  C:95F5H         LINE#         1493
  C:95FCH         LINE#         1494
  C:95FCH         LINE#         1495
  C:9605H         LINE#         1496
  C:9605H         LINE#         1497
  C:9608H         LINE#         1498
  C:960AH         LINE#         1500
  C:960AH         LINE#         1501
  C:960DH         LINE#         1502
  C:960DH         LINE#         1504
  C:960DH         LINE#         1505
  C:9612H         LINE#         1506
  -------         ENDPROC       DISPARO_LOCK_ENTRADA_VEHICULO
  -------         PROC          _SEND_PTO_PARALELO
  D:0001H         SYMBOL        Atributos_Expedidor
  -------         DO            
  X:0003H         SYMBOL        Trama_Expedidor
  -------         ENDDO         
  C:89EFH         LINE#         1507
  C:89EFH         LINE#         1508
  C:89EFH         LINE#         1510
  C:89F2H         LINE#         1511
  C:89F2H         LINE#         1512
  C:8A00H         LINE#         1513
  C:8A02H         LINE#         1515
  C:8A02H         LINE#         1516
BL51 BANKED LINKER/LOCATER V6.22.2.0                                                  07/21/2020  12:52:08  PAGE 110


  C:8A10H         LINE#         1517
  C:8A13H         LINE#         1518
  C:8A13H         LINE#         1519
  C:8A31H         LINE#         1520
  C:8A3AH         LINE#         1521
  C:8A5DH         LINE#         1522
  C:8A66H         LINE#         1525
  C:8A69H         LINE#         1526
  C:8A6FH         LINE#         1527
  C:8A74H         LINE#         1528
  C:8A76H         LINE#         1529
  -------         ENDPROC       _SEND_PTO_PARALELO
  -------         PROC          ENTREGA_CARD_CAPTURA
  -------         DO            
  X:0003H         SYMBOL        Estado_expedidor
  -------         ENDDO         
  C:8F6FH         LINE#         1533
  C:8F6FH         LINE#         1534
  C:8F6FH         LINE#         1538
  C:8F78H         LINE#         1539
  C:8F7BH         LINE#         1540
  C:8F7EH         LINE#         1541
  C:8F7EH         LINE#         1542
  C:8F88H         LINE#         1543
  C:8F88H         LINE#         1544
  C:8F8AH         LINE#         1545
  C:8F93H         LINE#         1546
  C:8F93H         LINE#         1547
  C:8F93H         LINE#         1549
  C:8F95H         LINE#         1551
  C:8F95H         LINE#         1552
  C:8F9BH         LINE#         1553
  C:8F9BH         LINE#         1555
  C:8FA1H         LINE#         1557
  C:8FB4H         LINE#         1558
  C:8FB4H         LINE#         1559
  C:8FC4H         LINE#         1560
  C:8FC4H         LINE#         1561
  C:8FC6H         LINE#         1562
  C:8FC6H         LINE#         1563
  C:8FC8H         LINE#         1564
  C:8FD3H         LINE#         1565
  C:8FD3H         LINE#         1566
  C:8FD9H         LINE#         1567
  C:8FD9H         LINE#         1568
  C:8FD9H         LINE#         1570
  C:8FDBH         LINE#         1572
  C:8FDBH         LINE#         1573
  C:8FDDH         LINE#         1574
  C:8FE2H         LINE#         1575
  C:8FE2H         LINE#         1576
  C:8FE2H         LINE#         1578
  C:8FE7H         LINE#         1579
  -------         ENDPROC       ENTREGA_CARD_CAPTURA
  -------         PROC          _WAIT_PLACA
  X:0003H         SYMBOL        secuencia_expedidor
  X:0006H         SYMBOL        estadoactivo
BL51 BANKED LINKER/LOCATER V6.22.2.0                                                  07/21/2020  12:52:08  PAGE 111


  -------         DO            
  X:0007H         SYMBOL        Estado_expedidor
  -------         ENDDO         
  C:802DH         LINE#         1580
  C:803BH         LINE#         1581
  C:803BH         LINE#         1585
  C:8051H         LINE#         1586
  C:8051H         LINE#         1587
  C:8054H         LINE#         1588
  C:8054H         LINE#         1590
  C:8057H         LINE#         1591
  C:8057H         LINE#         1592
  C:8059H         LINE#         1594
  C:805CH         LINE#         1595
  C:805CH         LINE#         1596
  C:805FH         LINE#         1597
  C:8073H         LINE#         1598
  C:8086H         LINE#         1599
  C:8088H         LINE#         1601
  C:8088H         LINE#         1602
  C:808EH         LINE#         1603
  C:80A1H         LINE#         1604
  C:80A1H         LINE#         1605
  C:80B1H         LINE#         1606
  C:80B1H         LINE#         1607
  C:80B7H         LINE#         1608
  C:80B9H         LINE#         1609
  C:80C4H         LINE#         1610
  C:80C4H         LINE#         1611
  C:80CAH         LINE#         1612
  C:80CAH         LINE#         1613
  C:80CAH         LINE#         1614
  C:80CAH         LINE#         1615
  C:80CFH         LINE#         1616
  -------         ENDPROC       _WAIT_PLACA
  -------         PROC          _VALIDA_VEHICULO_CARD_MENSUAL
  X:0011H         SYMBOL        Atributos_Expedidor
  -------         DO            
  X:0014H         SYMBOL        Estado_expedidor
  -------         ENDDO         
  C:8341H         LINE#         1617
  C:834CH         LINE#         1618
  C:834CH         LINE#         1621
  C:8355H         LINE#         1622
  C:836AH         LINE#         1623
  C:836AH         LINE#         1624
  C:836EH         LINE#         1625
  C:8370H         LINE#         1627
  C:8370H         LINE#         1628
  C:8377H         LINE#         1629
  C:8377H         LINE#         1631
  C:8380H         LINE#         1632
  C:838EH         LINE#         1633
  C:838EH         LINE#         1634
  C:83A7H         LINE#         1635
  C:83A7H         LINE#         1636
  C:83ADH         LINE#         1637
BL51 BANKED LINKER/LOCATER V6.22.2.0                                                  07/21/2020  12:52:08  PAGE 112


  C:83ADH         LINE#         1638
  C:83AFH         LINE#         1641
  C:83AFH         LINE#         1642
  C:83B4H         LINE#         1643
  C:83BDH         LINE#         1644
  C:83C2H         LINE#         1645
  C:83C2H         LINE#         1646
  C:83C4H         LINE#         1648
  C:83C4H         LINE#         1649
  C:83CDH         LINE#         1650
  C:83D3H         LINE#         1651
  C:83D3H         LINE#         1652
  C:83D8H         LINE#         1653
  -------         ENDPROC       _VALIDA_VEHICULO_CARD_MENSUAL
  -------         PROC          _TARJETA_MENSUAL
  X:000AH         SYMBOL        Atributos_Expedidor
  X:000DH         SYMBOL        Buffer_Write_MF
  -------         DO            
  X:0010H         SYMBOL        Estado_expedidor
  -------         ENDDO         
  C:73FCH         LINE#         1654
  C:7407H         LINE#         1655
  C:7407H         LINE#         1660
  C:7412H         LINE#         1661
  C:7412H         LINE#         1662
  C:7430H         LINE#         1663
  C:7430H         LINE#         1665
  C:7441H         LINE#         1666
  C:7441H         LINE#         1667
  C:7449H         LINE#         1668
  C:744BH         LINE#         1670
  C:744BH         LINE#         1671
  C:7454H         LINE#         1672
  C:7464H         LINE#         1673
  C:7477H         LINE#         1674
  C:7497H         LINE#         1675
  C:749DH         LINE#         1676
  C:749DH         LINE#         1677
  C:749FH         LINE#         1679
  C:749FH         LINE#         1680
  C:74A4H         LINE#         1683
  C:74A9H         LINE#         1684
  C:74B2H         LINE#         1685
  C:74B2H         LINE#         1686
  C:74B2H         LINE#         1687
  C:74B4H         LINE#         1689
  C:74B4H         LINE#         1691
  C:74BAH         LINE#         1692
  C:74BAH         LINE#         1693
  C:74BFH         LINE#         1694
  -------         ENDPROC       _TARJETA_MENSUAL
  -------         PROC          _TARJETA_ROTACION
  D:0001H         SYMBOL        Atributos_Expedidor
  X:000DH         SYMBOL        Buffer_Write_MF
  C:9E4BH         LINE#         1695
  C:9E4BH         LINE#         1696
  C:9E4BH         LINE#         1697
BL51 BANKED LINKER/LOCATER V6.22.2.0                                                  07/21/2020  12:52:08  PAGE 113


  C:9E50H         LINE#         1698
  C:9E59H         LINE#         1699
  C:9E79H         LINE#         1700
  C:9E7BH         LINE#         1703
  -------         ENDPROC       _TARJETA_ROTACION
  -------         PROC          _VALIDA_TIPO_TARJETA
  X:0003H         SYMBOL        Atributos_Expedidor
  X:0006H         SYMBOL        Buffer_Write_MF
  -------         DO            
  X:0009H         SYMBOL        Estado_expedidor
  -------         ENDDO         
  C:4B70H         LINE#         1704
  C:4B7BH         LINE#         1705
  C:4B7BH         LINE#         1707
  C:4B88H         LINE#         1708
  C:4B88H         LINE#         1709
  C:4B91H         LINE#         1710
  C:4B97H         LINE#         1711
  C:4B97H         LINE#         1716
  C:4BA5H         LINE#         1717
  C:4BA5H         LINE#         1720
  C:4BC2H         LINE#         1721
  C:4BC2H         LINE#         1722
  C:4BDFH         LINE#         1724
  C:4BE1H         LINE#         1726
  C:4BE1H         LINE#         1727
  C:4BEAH         LINE#         1728
  C:4BEFH         LINE#         1729
  C:4BF1H         LINE#         1730
  C:4BF1H         LINE#         1731
  C:4BF1H         LINE#         1732
  C:4BF3H         LINE#         1735
  C:4BF3H         LINE#         1736
  C:4BFCH         LINE#         1738
  C:4C1FH         LINE#         1739
  C:4C1FH         LINE#         1740
  C:4C22H         LINE#         1742
  C:4C22H         LINE#         1743
  C:4C27H         LINE#         1744
  C:4C2CH         LINE#         1745
  C:4C2FH         LINE#         1746
  C:4C2FH         LINE#         1747
  C:4C32H         LINE#         1748
  C:4C4AH         LINE#         1749
  C:4C4AH         LINE#         1751
  C:4C53H         LINE#         1752
  C:4C59H         LINE#         1753
  C:4C59H         LINE#         1754
  C:4C65H         LINE#         1755
  C:4C65H         LINE#         1756
  C:4C82H         LINE#         1758
  C:4C82H         LINE#         1759
  C:4CA2H         LINE#         1760
  C:4CA4H         LINE#         1762
  C:4CA4H         LINE#         1763
  C:4CADH         LINE#         1764
  C:4CB2H         LINE#         1765
BL51 BANKED LINKER/LOCATER V6.22.2.0                                                  07/21/2020  12:52:08  PAGE 114


  C:4CB7H         LINE#         1766
  C:4CBAH         LINE#         1767
  C:4CBAH         LINE#         1768
  C:4CBCH         LINE#         1770
  C:4CBCH         LINE#         1771
  C:4CC5H         LINE#         1772
  C:4CE8H         LINE#         1773
  C:4CE8H         LINE#         1774
  C:4CEAH         LINE#         1776
  C:4CEAH         LINE#         1777
  C:4CEFH         LINE#         1778
  C:4CF4H         LINE#         1779
  C:4CF7H         LINE#         1780
  C:4CF7H         LINE#         1781
  C:4CF9H         LINE#         1783
  C:4CF9H         LINE#         1784
  C:4D02H         LINE#         1785
  C:4D07H         LINE#         1787
  C:4D0FH         LINE#         1788
  C:4D0FH         LINE#         1790
  C:4D14H         LINE#         1791
  -------         ENDPROC       _VALIDA_TIPO_TARJETA
  -------         PROC          _HORARIOS
  X:0011H         SYMBOL        Atributos_Expedidor
  -------         DO            
  X:0014H         SYMBOL        Estado_Horario
  X:0015H         SYMBOL        Addr_horarios
  X:0020H         SYMBOL        dia_semana
  X:0021H         SYMBOL        EE_dia_semana
  X:0022H         SYMBOL        addr
  -------         ENDDO         
  C:5EE8H         LINE#         1885
  C:5EF3H         LINE#         1886
  C:5EF3H         LINE#         1892
  C:5EFEH         LINE#         1893
  C:5EFEH         LINE#         1895
  C:5F0AH         LINE#         1897
  C:5F30H         LINE#         1901
  C:5F43H         LINE#         1902
  C:5F43H         LINE#         1904
  C:5F4DH         LINE#         1905
  C:5F56H         LINE#         1906
  C:5F5EH         LINE#         1907
  C:5F67H         LINE#         1910
  C:5F8CH         LINE#         1911
  C:5F95H         LINE#         1912
  C:5F9DH         LINE#         1913
  C:5FA6H         LINE#         1915
  C:5FB0H         LINE#         1916
  C:5FB0H         LINE#         1918
  C:5FBEH         LINE#         1919
  C:5FC0H         LINE#         1921
  C:5FC0H         LINE#         1923
  C:5FC9H         LINE#         1924
  C:5FCEH         LINE#         1925
  C:5FCEH         LINE#         1926
  C:5FD0H         LINE#         1928
BL51 BANKED LINKER/LOCATER V6.22.2.0                                                  07/21/2020  12:52:08  PAGE 115


  C:5FD0H         LINE#         1930
  C:5FD5H         LINE#         1931
  C:5FDAH         LINE#         1932
  C:5FE0H         LINE#         1934
  C:5FE0H         LINE#         1936
  C:5FE2H         LINE#         1938
  C:5FE2H         LINE#         1939
  C:5FE8H         LINE#         1941
  C:5FF1H         LINE#         1942
  C:5FF1H         LINE#         1943
  C:5FF6H         LINE#         1944
  -------         ENDPROC       _HORARIOS
  -------         PROC          _HORA_MAXIMA
  X:0030H         SYMBOL        addr
  -------         DO            
  X:0032H         SYMBOL        Hora_High
  X:0033H         SYMBOL        Minuto_High
  X:0034H         SYMBOL        HoraIni
  X:0035H         SYMBOL        MinutoIni
  X:0036H         SYMBOL        Hora_Prog
  -------         ENDDO         
  C:7D88H         LINE#         1945
  C:7D90H         LINE#         1946
  C:7D90H         LINE#         1951
  C:7DA5H         LINE#         1952
  C:7DC5H         LINE#         1953
  C:7DE2H         LINE#         1954
  C:7E02H         LINE#         1955
  C:7E0AH         LINE#         1956
  C:7E12H         LINE#         1957
  C:7E1BH         LINE#         1959
  C:7E33H         LINE#         1960
  -------         ENDPROC       _HORA_MAXIMA
  -------         PROC          _EN_HORARIO
  X:002BH         SYMBOL        HoraNow
  D:0004H         SYMBOL        Hora_Prog
  X:002DH         SYMBOL        addr
  -------         DO            
  X:002FH         SYMBOL        Estado_Horario
  -------         ENDDO         
  C:9142H         LINE#         1961
  C:9150H         LINE#         1962
  C:9150H         LINE#         1965
  C:915DH         LINE#         1966
  C:915DH         LINE#         1969
  C:9166H         LINE#         1970
  C:917BH         LINE#         1973
  C:918AH         LINE#         1974
  C:918AH         LINE#         1976
  C:9191H         LINE#         1977
  C:9197H         LINE#         1978
  C:9199H         LINE#         1980
  C:9199H         LINE#         1983
  C:919DH         LINE#         1984
  C:919DH         LINE#         1985
  C:919DH         LINE#         1987
  C:919FH         LINE#         1989
BL51 BANKED LINKER/LOCATER V6.22.2.0                                                  07/21/2020  12:52:08  PAGE 116


  C:919FH         LINE#         1992
  C:91A8H         LINE#         1993
  C:91ADH         LINE#         1995
  C:91ADH         LINE#         1996
  C:91B2H         LINE#         1997
  -------         ENDPROC       _EN_HORARIO
  -------         PROC          _BLOQUE_HORARIO
  X:0024H         SYMBOL        addr
  -------         DO            
  X:0026H         SYMBOL        Estado_Horario
  X:0027H         SYMBOL        HoraNow
  X:0029H         SYMBOL        Hora_Prog
  -------         ENDDO         
  C:6103H         LINE#         1999
  C:610BH         LINE#         2000
  C:610BH         LINE#         2006
  C:6114H         LINE#         2007
  C:611CH         LINE#         2008
  C:6124H         LINE#         2009
  C:612DH         LINE#         2010
  C:615BH         LINE#         2015
  C:6164H         LINE#         2016
  C:6179H         LINE#         2017
  C:6191H         LINE#         2018
  C:6193H         LINE#         2019
  C:6193H         LINE#         2022
  C:61ABH         LINE#         2023
  C:61ABH         LINE#         2024
  C:61B4H         LINE#         2025
  C:61CFH         LINE#         2026
  C:61EDH         LINE#         2027
  C:61EFH         LINE#         2029
  C:61EFH         LINE#         2030
  C:61F4H         LINE#         2031
  C:61F9H         LINE#         2032
  C:61FEH         LINE#         2033
  C:61FEH         LINE#         2034
  C:61FEH         LINE#         2036
  C:6205H         LINE#         2037
  -------         ENDPROC       _BLOQUE_HORARIO
  -------         PROC          SECUENCIA_INICIO_EXPEDIDOR
  -------         DO            
  X:0002H         SYMBOL        temp
  -------         ENDDO         
  C:580BH         LINE#         2045
  C:580BH         LINE#         2046
  C:580BH         LINE#         2048
  C:582BH         LINE#         2049
  C:582BH         LINE#         2050
  C:582BH         LINE#         2053
  C:5830H         LINE#         2054
  C:5836H         LINE#         2057
  C:5838H         LINE#         2058
  C:5838H         LINE#         2069
  C:5838H         LINE#         2071
  C:5846H         LINE#         2072
  C:5846H         LINE#         2073
BL51 BANKED LINKER/LOCATER V6.22.2.0                                                  07/21/2020  12:52:08  PAGE 117


  C:5852H         LINE#         2074
  C:5852H         LINE#         2075
  C:5858H         LINE#         2076
  C:585BH         LINE#         2077
  C:5863H         LINE#         2078
  C:5863H         LINE#         2079
  C:586AH         LINE#         2080
  C:587EH         LINE#         2081
  C:587EH         LINE#         2082
  C:5880H         LINE#         2084
  C:5880H         LINE#         2085
  C:5887H         LINE#         2086
  C:588DH         LINE#         2087
  C:588DH         LINE#         2088
  C:5890H         LINE#         2090
  C:5890H         LINE#         2091
  C:5899H         LINE#         2092
  C:58ADH         LINE#         2093
  C:58B3H         LINE#         2094
  C:58B3H         LINE#         2095
  C:58B6H         LINE#         2096
  C:58B6H         LINE#         2102
  C:58B6H         LINE#         2104
  C:58B9H         LINE#         2105
  C:58BFH         LINE#         2109
  C:58C1H         LINE#         2110
  C:58C1H         LINE#         2120
  C:58C1H         LINE#         2122
  C:58CFH         LINE#         2123
  C:58CFH         LINE#         2124
  C:58DBH         LINE#         2125
  C:58DBH         LINE#         2126
  C:58E1H         LINE#         2127
  C:58E3H         LINE#         2128
  C:58EBH         LINE#         2129
  C:58EBH         LINE#         2130
  C:58F2H         LINE#         2131
  C:5906H         LINE#         2132
  C:5906H         LINE#         2133
  C:5908H         LINE#         2135
  C:5908H         LINE#         2136
  C:590FH         LINE#         2137
  C:5915H         LINE#         2138
  C:5915H         LINE#         2139
  C:5917H         LINE#         2141
  C:5917H         LINE#         2142
  C:5920H         LINE#         2143
  C:5934H         LINE#         2144
  C:5939H         LINE#         2145
  C:5939H         LINE#         2147
  C:593BH         LINE#         2148
  C:593BH         LINE#         2154
  C:593BH         LINE#         2156
  C:5941H         LINE#         2157
  C:5941H         LINE#         2160
  C:5941H         LINE#         2161
  C:5948H         LINE#         2162
BL51 BANKED LINKER/LOCATER V6.22.2.0                                                  07/21/2020  12:52:08  PAGE 118


  C:5948H         LINE#         2163
  C:5948H         LINE#         2164
  -------         ENDPROC       SECUENCIA_INICIO_EXPEDIDOR
  -------         PROC          _SECUENCIAEXPEDIDORMF
  X:0002H         SYMBOL        EstadoActivo
  -------         DO            
  X:010CH         SYMBOL        Buffer_Write_MF
  X:011DH         SYMBOL        Atributos_Expedidor
  X:012CH         SYMBOL        Secuencia_Expedidor
  -------         ENDDO         
  C:3103H         LINE#         2174
  C:3108H         LINE#         2175
  C:3108H         LINE#         2180
  C:315FH         LINE#         2181
  C:315FH         LINE#         2184
  C:315FH         LINE#         2186
  C:3175H         LINE#         2187
  C:3175H         LINE#         2188
  C:3177H         LINE#         2189
  C:3179H         LINE#         2190
  C:317EH         LINE#         2191
  C:3186H         LINE#         2192
  C:318BH         LINE#         2194
  C:318BH         LINE#         2196
  C:318EH         LINE#         2198
  C:318EH         LINE#         2200
  C:3197H         LINE#         2202
  C:319AH         LINE#         2209
  C:319AH         LINE#         2210
  C:31A0H         LINE#         2211
  C:31A6H         LINE#         2212
  C:31A6H         LINE#         2213
  C:31A9H         LINE#         2215
  C:31ACH         LINE#         2216
  C:31B4H         LINE#         2217
  C:31B4H         LINE#         2219
  C:31B7H         LINE#         2220
  C:31BAH         LINE#         2221
  C:31C2H         LINE#         2222
  C:31C2H         LINE#         2223
  C:31D0H         LINE#         2224
  C:31D0H         LINE#         2225
  C:31D9H         LINE#         2226
  C:31DCH         LINE#         2228
  C:31DCH         LINE#         2229
  C:31E5H         LINE#         2230
  C:31E5H         LINE#         2231
  C:31E8H         LINE#         2232
  C:31F0H         LINE#         2233
  C:31F0H         LINE#         2234
  C:31FEH         LINE#         2235
  C:31FEH         LINE#         2236
  C:3214H         LINE#         2237
  C:3217H         LINE#         2238
  C:3223H         LINE#         2239
  C:3223H         LINE#         2240
  C:322CH         LINE#         2241
BL51 BANKED LINKER/LOCATER V6.22.2.0                                                  07/21/2020  12:52:08  PAGE 119


  C:322FH         LINE#         2243
  C:322FH         LINE#         2244
  C:3238H         LINE#         2245
  C:3238H         LINE#         2246
  C:323BH         LINE#         2247
  C:3243H         LINE#         2248
  C:3243H         LINE#         2249
  C:3246H         LINE#         2250
  C:3249H         LINE#         2251
  C:3251H         LINE#         2252
  C:3251H         LINE#         2253
  C:3267H         LINE#         2254
  C:326AH         LINE#         2255
  C:3272H         LINE#         2256
  C:3272H         LINE#         2257
  C:3275H         LINE#         2258
  C:3278H         LINE#         2260
  C:3280H         LINE#         2261
  C:3280H         LINE#         2262
  C:3289H         LINE#         2263
  C:328CH         LINE#         2265
  C:328CH         LINE#         2266
  C:3295H         LINE#         2267
  C:3295H         LINE#         2268
  C:3298H         LINE#         2269
  C:3298H         LINE#         2270
  C:329DH         LINE#         2271
  C:32BDH         LINE#         2272
  C:32C0H         LINE#         2273
  C:32C0H         LINE#         2274
  C:32C5H         LINE#         2275
  C:32CDH         LINE#         2276
  C:32D3H         LINE#         2277
  C:32D6H         LINE#         2278
  C:32D6H         LINE#         2279
  C:32D9H         LINE#         2280
  C:32E1H         LINE#         2281
  C:32E7H         LINE#         2282
  C:32EAH         LINE#         2283
  C:32EAH         LINE#         2284
  C:32EDH         LINE#         2285
  C:3312H         LINE#         2286
  C:3318H         LINE#         2287
  C:331AH         LINE#         2288
  C:331DH         LINE#         2289
  C:331DH         LINE#         2290
  C:3328H         LINE#         2291
  C:3330H         LINE#         2292
  C:3336H         LINE#         2293
  C:3339H         LINE#         2294
  C:3339H         LINE#         2295
  C:334AH         LINE#         2296
  C:3352H         LINE#         2297
  C:3358H         LINE#         2298
  C:335BH         LINE#         2299
  C:335BH         LINE#         2300
  C:3360H         LINE#         2301
BL51 BANKED LINKER/LOCATER V6.22.2.0                                                  07/21/2020  12:52:08  PAGE 120


  C:337EH         LINE#         2302
  C:3381H         LINE#         2303
  C:3381H         LINE#         2304
  C:3386H         LINE#         2305
  C:33A6H         LINE#         2306
  C:33A9H         LINE#         2307
  C:33A9H         LINE#         2308
  C:33AEH         LINE#         2309
  C:33B0H         LINE#         2310
  C:33CEH         LINE#         2312
  C:33D1H         LINE#         2313
  C:33D1H         LINE#         2314
  C:33D6H         LINE#         2315
  C:33F6H         LINE#         2317
  C:33F9H         LINE#         2318
  C:33F9H         LINE#         2319
  C:33FEH         LINE#         2320
  C:3406H         LINE#         2321
  C:340CH         LINE#         2322
  C:340FH         LINE#         2323
  C:340FH         LINE#         2324
  C:3412H         LINE#         2325
  C:3432H         LINE#         2326
  C:3435H         LINE#         2327
  C:3435H         LINE#         2328
  C:3437H         LINE#         2329
  C:343AH         LINE#         2330
  C:343DH         LINE#         2331
  C:343DH         LINE#         2332
  C:3446H         LINE#         2334
  C:3449H         LINE#         2335
  C:3449H         LINE#         2336
  C:3457H         LINE#         2337
  C:345AH         LINE#         2338
  C:345AH         LINE#         2339
  C:345DH         LINE#         2340
  C:3465H         LINE#         2341
  C:346BH         LINE#         2342
  C:346EH         LINE#         2343
  C:346EH         LINE#         2344
  C:3477H         LINE#         2345
  C:347AH         LINE#         2346
  C:347AH         LINE#         2347
  C:3491H         LINE#         2348
  C:3493H         LINE#         2349
  C:3493H         LINE#         2350
  C:3498H         LINE#         2351
  C:34BBH         LINE#         2352
  C:34BEH         LINE#         2353
  C:34C0H         LINE#         2354
  C:34C0H         LINE#         2355
  C:34C3H         LINE#         2356
  C:34E3H         LINE#         2357
  C:34E5H         LINE#         2358
  C:34E5H         LINE#         2359
  C:34E8H         LINE#         2360
  C:350DH         LINE#         2361
BL51 BANKED LINKER/LOCATER V6.22.2.0                                                  07/21/2020  12:52:08  PAGE 121


  C:350FH         LINE#         2362
  C:350FH         LINE#         2363
  C:3514H         LINE#         2364
  C:3514H         LINE#         2366
  C:3514H         LINE#         2367
  C:3519H         LINE#         2368
  -------         ENDPROC       _SECUENCIAEXPEDIDORMF
  -------         ENDMOD        VERIFICADOR

  -------         MODULE        MONITOR
  C:0000H         SYMBOL        _ICE_DUMMY_
  D:0080H         PUBLIC        P0
  D:0090H         PUBLIC        P1
  X:01F2H         PUBLIC        placa
  C:9FEBH         PUBLIC        Rx_Monitor
  B:0080H.0       PUBLIC        rx_ip
  B:0090H.7       PUBLIC        lock
  C:7645H         PUBLIC        _recibe_cmd_Monitor
  C:A0D4H         PUBLIC        clear_placa
  C:80D0H         PUBLIC        _Valida_Trama_Monitor
  -------         PROC          _RECIBE_CMD_MONITOR
  X:0015H         SYMBOL        buffer_cmd
  -------         DO            
  X:0018H         SYMBOL        j
  X:0019H         SYMBOL        NumDatos
  X:001AH         SYMBOL        time_out
  X:001BH         SYMBOL        MaxChrRx
  X:001CH         SYMBOL        contador
  -------         ENDDO         
  C:7645H         LINE#         44
  C:7650H         LINE#         45
  C:7650H         LINE#         49
  C:7655H         LINE#         50
  C:765BH         LINE#         52
  C:7666H         LINE#         53
  C:7666H         LINE#         54
  C:7677H         LINE#         55
  C:7677H         LINE#         56
  C:767EH         LINE#         57
  C:7682H         LINE#         58
  C:768BH         LINE#         59
  C:768BH         LINE#         60
  C:7699H         LINE#         61
  C:76B0H         LINE#         62
  C:76B0H         LINE#         63
  C:76B6H         LINE#         64
  C:76BCH         LINE#         65
  C:76BCH         LINE#         66
  C:76BEH         LINE#         67
  C:76C6H         LINE#         68
  C:76CCH         LINE#         69
  C:76DEH         LINE#         70
  C:76E8H         LINE#         71
  C:76F1H         LINE#         73
  C:7700H         LINE#         76
  C:7700H         LINE#         77
  C:7705H         LINE#         78
BL51 BANKED LINKER/LOCATER V6.22.2.0                                                  07/21/2020  12:52:08  PAGE 122


  -------         ENDPROC       _RECIBE_CMD_MONITOR
  -------         PROC          _VALIDA_TRAMA_MONITOR
  X:0015H         SYMBOL        buffer
  D:0005H         SYMBOL        length_trama
  -------         DO            
  D:0007H         SYMBOL        j
  D:0006H         SYMBOL        p
  -------         ENDDO         
  C:80D0H         LINE#         83
  C:80DBH         LINE#         84
  C:80DBH         LINE#         85
  C:80DDH         LINE#         86
  C:80DFH         LINE#         87
  C:80DFH         LINE#         88
  C:80FDH         LINE#         89
  C:80FDH         LINE#         90
  C:80FFH         LINE#         91
  C:8104H         LINE#         92
  C:8105H         LINE#         93
  C:811AH         LINE#         94
  C:811AH         LINE#         97
  C:811AH         LINE#         98
  C:813AH         LINE#         99
  C:813BH         LINE#         100
  C:813CH         LINE#         101
  C:8148H         LINE#         102
  C:815CH         LINE#         103
  C:8168H         LINE#         104
  C:816AH         LINE#         105
  C:8170H         LINE#         108
  C:8170H         LINE#         109
  C:8170H         LINE#         110
  C:8170H         LINE#         112
  C:8170H         LINE#         113
  -------         ENDPROC       _VALIDA_TRAMA_MONITOR
  -------         PROC          CLEAR_PLACA
  -------         DO            
  D:0007H         SYMBOL        i
  -------         ENDDO         
  C:A0D4H         LINE#         114
  C:A0D4H         LINE#         115
  C:A0D4H         LINE#         117
  C:A0E0H         LINE#         118
  C:A0E0H         LINE#         119
  C:A0EDH         LINE#         120
  C:A0F0H         LINE#         121
  C:A0F2H         LINE#         122
  -------         ENDPROC       CLEAR_PLACA
  -------         PROC          RX_MONITOR
  -------         DO            
  X:0008H         SYMBOL        Length_trama
  X:0009H         SYMBOL        buffer1
  -------         ENDDO         
  C:9FEBH         LINE#         123
  C:9FEBH         LINE#         124
  C:9FEBH         LINE#         127
  C:9FFAH         LINE#         128
BL51 BANKED LINKER/LOCATER V6.22.2.0                                                  07/21/2020  12:52:08  PAGE 123


  C:A003H         LINE#         129
  -------         ENDPROC       RX_MONITOR
  -------         ENDMOD        MONITOR

  -------         MODULE        ?C?FPADD
  C:0E71H         PUBLIC        ?C?FPADD
  C:0E6DH         PUBLIC        ?C?FPSUB
  -------         ENDMOD        ?C?FPADD

  -------         MODULE        ?C?FPMUL
  C:0F62H         PUBLIC        ?C?FPMUL
  -------         ENDMOD        ?C?FPMUL

  -------         MODULE        ?C?FCAST
  C:1072H         PUBLIC        ?C?FCASTC
  C:106DH         PUBLIC        ?C?FCASTI
  C:1068H         PUBLIC        ?C?FCASTL
  -------         ENDMOD        ?C?FCAST

  -------         MODULE        ?C?CASTF
  C:10A6H         PUBLIC        ?C?CASTF
  -------         ENDMOD        ?C?CASTF

  -------         MODULE        PRINTF
  X:0076H         PUBLIC        ?_PRINTF?BYTE
  X:0076H         PUBLIC        ?_SPRINTF?BYTE
  C:2CEBH         PUBLIC        _PRINTF
  C:2CE5H         PUBLIC        _SPRINTF
  -------         ENDMOD        PRINTF

  -------         MODULE        POW
  X:001DH         PUBLIC        ?_pow?BYTE
  C:5198H         PUBLIC        _pow
  -------         ENDMOD        POW

  -------         MODULE        ?C?CHKFLOAT
  C:1127H         PUBLIC        ?C?CHKFLOAT
  -------         ENDMOD        ?C?CHKFLOAT

  -------         MODULE        ?C?FPCMP
  C:1143H         PUBLIC        ?C?FPCMP
  C:1141H         PUBLIC        ?C?FPCMP3
  -------         ENDMOD        ?C?FPCMP

  -------         MODULE        ?C?FPNEG
  C:11BAH         PUBLIC        ?C?FPNEG
  -------         ENDMOD        ?C?FPNEG

  -------         MODULE        ?C?FPROUND
  C:11CBH         PUBLIC        ?C?FPROUND
  -------         ENDMOD        ?C?FPROUND

  -------         MODULE        ?C?FPCONVERT
  C:1208H         PUBLIC        ?C?FPCONVERT
  -------         ENDMOD        ?C?FPCONVERT

  -------         MODULE        EXP
BL51 BANKED LINKER/LOCATER V6.22.2.0                                                  07/21/2020  12:52:08  PAGE 124


  C:8246H         PUBLIC        _EXP
  -------         ENDMOD        EXP

  -------         MODULE        LOG
  C:5AA8H         PUBLIC        _LOG
  C:5AA4H         PUBLIC        _LOG10
  -------         ENDMOD        LOG

  -------         MODULE        ?C?FPDIV
  C:1310H         PUBLIC        ?C?FPDIV
  -------         ENDMOD        ?C?FPDIV

  -------         MODULE        ?C?FTNPWR
  C:13DDH         PUBLIC        ?C?FTNPWR
  -------         ENDMOD        ?C?FTNPWR

  -------         MODULE        ?C?COPY
  C:153AH         PUBLIC        ?C?COPY
  -------         ENDMOD        ?C?COPY

  -------         MODULE        ?C?CLDPTR
  C:1560H         PUBLIC        ?C?CLDPTR
  -------         ENDMOD        ?C?CLDPTR

  -------         MODULE        ?C?CLDOPTR
  C:1579H         PUBLIC        ?C?CLDOPTR
  -------         ENDMOD        ?C?CLDOPTR

  -------         MODULE        ?C?CSTPTR
  C:15A6H         PUBLIC        ?C?CSTPTR
  -------         ENDMOD        ?C?CSTPTR

  -------         MODULE        ?C?CSTOPTR
  C:15B8H         PUBLIC        ?C?CSTOPTR
  -------         ENDMOD        ?C?CSTOPTR

  -------         MODULE        ?C?IMUL
  C:15DAH         PUBLIC        ?C?IMUL
  -------         ENDMOD        ?C?IMUL

  -------         MODULE        ?C?IILDX
  C:15ECH         PUBLIC        ?C?IILDX
  -------         ENDMOD        ?C?IILDX

  -------         MODULE        ?C?LNEG
  C:1602H         PUBLIC        ?C?LNEG
  -------         ENDMOD        ?C?LNEG

  -------         MODULE        ?C?SLCMP
  C:1610H         PUBLIC        ?C?SLCMP
  -------         ENDMOD        ?C?SLCMP

  -------         MODULE        ?C?ULCMP
  C:1626H         PUBLIC        ?C?ULCMP
  -------         ENDMOD        ?C?ULCMP

  -------         MODULE        ?C?ULSHR
BL51 BANKED LINKER/LOCATER V6.22.2.0                                                  07/21/2020  12:52:08  PAGE 125


  C:1637H         PUBLIC        ?C?ULSHR
  -------         ENDMOD        ?C?ULSHR

  -------         MODULE        ?C?LSHL
  C:164AH         PUBLIC        ?C?LSHL
  -------         ENDMOD        ?C?LSHL

  -------         MODULE        ?C?LLDCODE
  C:165DH         PUBLIC        ?C?LLDCODE
  -------         ENDMOD        ?C?LLDCODE

  -------         MODULE        ?C?LLDXDATA0
  C:166DH         PUBLIC        ?C?LLDXDATA0
  -------         ENDMOD        ?C?LLDXDATA0

  -------         MODULE        ?C?LLDCODE0
  C:1679H         PUBLIC        ?C?LLDCODE0
  -------         ENDMOD        ?C?LLDCODE0

  -------         MODULE        ?C?LSTXDATA
  C:1689H         PUBLIC        ?C?LSTXDATA
  -------         ENDMOD        ?C?LSTXDATA

  -------         MODULE        ?C?LSTKXDATA
  C:1695H         PUBLIC        ?C?LSTKXDATA
  -------         ENDMOD        ?C?LSTKXDATA

  -------         MODULE        ?C?PLDIXDATA
  C:16C6H         PUBLIC        ?C?PLDIXDATA
  -------         ENDMOD        ?C?PLDIXDATA

  -------         MODULE        ?C?PSTXDATA
  C:16DDH         PUBLIC        ?C?PSTXDATA
  -------         ENDMOD        ?C?PSTXDATA

  -------         MODULE        ?C?CCASE
  C:16E6H         PUBLIC        ?C?CCASE
  -------         ENDMOD        ?C?CCASE

  -------         MODULE        STRCAT
  X:0047H         PUBLIC        ?_strcat?BYTE
  C:91B3H         PUBLIC        _strcat
  -------         ENDMOD        STRCAT

  -------         MODULE        ?C?STRCMP
  C:188AH         PUBLIC        ?C?STRCMP
  -------         ENDMOD        ?C?STRCMP

  -------         MODULE        ?C?STRCPY
  C:1973H         PUBLIC        ?C?STRCPY
  -------         ENDMOD        ?C?STRCPY

  -------         MODULE        STRLEN
  C:000EH         PUBLIC        _STRLEN
  -------         ENDMOD        STRLEN

  -------         MODULE        STRTOK
BL51 BANKED LINKER/LOCATER V6.22.2.0                                                  07/21/2020  12:52:08  PAGE 126


  X:0065H         PUBLIC        ?_strtok?BYTE
  C:6BBAH         PUBLIC        _strtok
  -------         ENDMOD        STRTOK

  -------         MODULE        ATOL
  C:5FF7H         PUBLIC        _atol
  -------         ENDMOD        ATOL

  -------         MODULE        ATOI
  C:6D7CH         PUBLIC        _atoi
  -------         ENDMOD        ATOI

  -------         MODULE        ?C?ILDIX
  C:1990H         PUBLIC        ?C?ILDIX
  -------         ENDMOD        ?C?ILDIX

  -------         MODULE        ?C?LMUL
  C:19A6H         PUBLIC        ?C?LMUL
  -------         ENDMOD        ?C?LMUL

  -------         MODULE        ISDIGIT
  C:A1FCH         PUBLIC        _isdigit
  -------         ENDMOD        ISDIGIT

  -------         MODULE        ISSPACE
  C:A16EH         PUBLIC        _isspace
  -------         ENDMOD        ISSPACE

  -------         MODULE        STRSPN
  X:006BH         PUBLIC        ?_strspn?BYTE
  C:8A77H         PUBLIC        _strspn
  -------         ENDMOD        STRSPN

  -------         MODULE        STRPBRK
  X:006BH         PUBLIC        ?_strpbrk?BYTE
  C:8B7CH         PUBLIC        _strpbrk
  -------         ENDMOD        STRPBRK

Program Size: data=119.7 xdata=520 code=41607
LINK/LOCATE RUN COMPLETE.  0 WARNING(S),  0 ERROR(S)
