BL51 BANKED LINKER/LOCATER V6.22.2.0                                                    06/11/2021  12:08:32  PAGE 1


BL51 BANKED LINKER/LOCATER V6.22.2.0, INVOKED BY:
C:\KEIL_V5\C51\BIN\BL51.EXE .\Objects\main.obj, .\Objects\Accescan.obj, .\Objects\Clock.obj, .\Objects\delay.obj, .\Obje
>> cts\eeprom.obj, .\Objects\io_sensores.obj, .\Objects\pantallas.obj, .\Objects\prog.obj, .\Objects\pto_paralelo.obj, .
>> \Objects\tibbo.obj, .\Objects\uart.obj, .\Objects\lintech.obj, .\Objects\verificador.obj, .\Objects\Monitor.obj TO .\
>> Objects\expedidor_v_01_raspberry PRINT (.\Listings\expedidor_v_01_raspberry.m51) RAMSIZE (256)


MEMORY MODEL: LARGE WITH FLOATING POINT ARITHMETIC


INPUT MODULES INCLUDED:
  .\Objects\main.obj (MAIN)
  .\Objects\Accescan.obj (ACCESCAN)
  .\Objects\Clock.obj (CLOCK)
  .\Objects\delay.obj (DELAY)
  .\Objects\eeprom.obj (EEPROM)
  .\Objects\io_sensores.obj (IO_SENSORES)
  .\Objects\pantallas.obj (PANTALLAS)
  .\Objects\prog.obj (PROG)
  .\Objects\pto_paralelo.obj (PTO_PARALELO)
  .\Objects\tibbo.obj (TIBBO)
  .\Objects\uart.obj (UART)
  .\Objects\lintech.obj (LINTECH)
  .\Objects\verificador.obj (VERIFICADOR)
  .\Objects\Monitor.obj (MONITOR)
  C:\KEIL_V5\C51\LIB\C51FPL.LIB (?C?FPADD)
  C:\KEIL_V5\C51\LIB\C51FPL.LIB (?C?FPMUL)
  C:\KEIL_V5\C51\LIB\C51FPL.LIB (?C?FCAST)
  C:\KEIL_V5\C51\LIB\C51FPL.LIB (?C?CASTF)
  C:\KEIL_V5\C51\LIB\C51FPL.LIB (PRINTF)
  C:\KEIL_V5\C51\LIB\C51FPL.LIB (POW)
  C:\KEIL_V5\C51\LIB\C51FPL.LIB (?C?FPGETOPN)
  C:\KEIL_V5\C51\LIB\C51FPL.LIB (?C?CHKFLOAT)
  C:\KEIL_V5\C51\LIB\C51FPL.LIB (?C?FPCMP)
  C:\KEIL_V5\C51\LIB\C51FPL.LIB (?C?FPNEG)
  C:\KEIL_V5\C51\LIB\C51FPL.LIB (?C?FPROUND)
  C:\KEIL_V5\C51\LIB\C51FPL.LIB (?C?FPCONVERT)
  C:\KEIL_V5\C51\LIB\C51FPL.LIB (EXP)
  C:\KEIL_V5\C51\LIB\C51FPL.LIB (LOG)
  C:\KEIL_V5\C51\LIB\C51FPL.LIB (?C?FPDIV)
  C:\KEIL_V5\C51\LIB\C51FPL.LIB (?C?FTNPWR)
  C:\KEIL_V5\C51\LIB\C51FPL.LIB (?C?FPSERIES)
  C:\KEIL_V5\C51\LIB\C51L.LIB (?C_STARTUP)
  C:\KEIL_V5\C51\LIB\C51L.LIB (?C?COPY)
  C:\KEIL_V5\C51\LIB\C51L.LIB (?C?CLDPTR)
  C:\KEIL_V5\C51\LIB\C51L.LIB (?C?CLDOPTR)
  C:\KEIL_V5\C51\LIB\C51L.LIB (?C?CSTPTR)
  C:\KEIL_V5\C51\LIB\C51L.LIB (?C?CSTOPTR)
  C:\KEIL_V5\C51\LIB\C51L.LIB (?C?IMUL)
  C:\KEIL_V5\C51\LIB\C51L.LIB (?C?IILDX)
  C:\KEIL_V5\C51\LIB\C51L.LIB (?C?LNEG)
  C:\KEIL_V5\C51\LIB\C51L.LIB (?C?SLCMP)
  C:\KEIL_V5\C51\LIB\C51L.LIB (?C?ULCMP)
  C:\KEIL_V5\C51\LIB\C51L.LIB (?C?ULSHR)
  C:\KEIL_V5\C51\LIB\C51L.LIB (?C?LSHL)
  C:\KEIL_V5\C51\LIB\C51L.LIB (?C?LLDCODE)
  C:\KEIL_V5\C51\LIB\C51L.LIB (?C?LLDXDATA0)
  C:\KEIL_V5\C51\LIB\C51L.LIB (?C?LLDCODE0)
BL51 BANKED LINKER/LOCATER V6.22.2.0                                                  06/11/2021  12:08:32  PAGE 2


  C:\KEIL_V5\C51\LIB\C51L.LIB (?C?LSTXDATA)
  C:\KEIL_V5\C51\LIB\C51L.LIB (?C?LSTKXDATA)
  C:\KEIL_V5\C51\LIB\C51L.LIB (?C?PLDIXDATA)
  C:\KEIL_V5\C51\LIB\C51L.LIB (?C?PSTXDATA)
  C:\KEIL_V5\C51\LIB\C51L.LIB (?C?CCASE)
  C:\KEIL_V5\C51\LIB\C51L.LIB (STRCAT)
  C:\KEIL_V5\C51\LIB\C51L.LIB (?C?STRCMP)
  C:\KEIL_V5\C51\LIB\C51L.LIB (?C?STRCPY)
  C:\KEIL_V5\C51\LIB\C51L.LIB (STRLEN)
  C:\KEIL_V5\C51\LIB\C51L.LIB (STRTOK)
  C:\KEIL_V5\C51\LIB\C51L.LIB (ATOL)
  C:\KEIL_V5\C51\LIB\C51L.LIB (ATOI)
  C:\KEIL_V5\C51\LIB\C51L.LIB (?C_INIT)
  C:\KEIL_V5\C51\LIB\C51L.LIB (?C?ILDIX)
  C:\KEIL_V5\C51\LIB\C51L.LIB (?C?LMUL)
  C:\KEIL_V5\C51\LIB\C51L.LIB (ISDIGIT)
  C:\KEIL_V5\C51\LIB\C51L.LIB (ISSPACE)
  C:\KEIL_V5\C51\LIB\C51L.LIB (STRSPN)
  C:\KEIL_V5\C51\LIB\C51L.LIB (STRPBRK)


LINK MAP OF MODULE:  .\Objects\expedidor_v_01_raspberry (MAIN)


            TYPE    BASE      LENGTH    RELOCATION   SEGMENT NAME
            -----------------------------------------------------

            * * * * * * *   D A T A   M E M O R Y   * * * * * * *
            REG     0000H     0008H     ABSOLUTE     "REG BANK 0"
            DATA    0008H     0005H     UNIT         _DATA_GROUP_
            DATA    000DH     0004H     UNIT         ?DT?UART
            IDATA   0011H     0009H     UNIT         ?ID?MONITOR
                    001AH     0006H                  *** GAP ***
            BIT     0020H.0   0001H.1   UNIT         _BIT_GROUP_
            BIT     0021H.1   0000H.3   UNIT         ?BI?MAIN
            BIT     0021H.4   0000H.2   UNIT         ?BI?UART
            BIT     0021H.6   0000H.1   UNIT         ?BI?EEPROM
            BIT     0021H.7   0000H.1   UNIT         ?BI?IO_SENSORES
            BIT     0022H.0   0000H.1   UNIT         ?BI?VERIFICADOR
                    0022H.1   0000H.7                *** GAP ***
            IDATA   0023H     0046H     UNIT         ?ID?MAIN
            IDATA   0069H     0001H     UNIT         ?STACK

            * * * * * * *  X D A T A   M E M O R Y  * * * * * * *
            XDATA   0000H     00B7H     UNIT         _XDATA_GROUP_
            XDATA   00B7H     0091H     UNIT         ?XD?VERIFICADOR
            XDATA   0148H     006CH     UNIT         ?XD?MAIN
            XDATA   01B4H     0059H     UNIT         ?XD?PROG
            XDATA   020DH     0003H     UNIT         ?XD?EEPROM
            XDATA   0210H     0003H     UNIT         ?XD?UART
            XDATA   0213H     0003H     UNIT         ?XD?STRTOK
            XDATA   0216H     0002H     UNIT         ?XD?IO_SENSORES
            XDATA   0218H     0001H     UNIT         ?XD?ACCESCAN
            XDATA   0219H     0001H     UNIT         ?XD?CLOCK

            * * * * * * *   C O D E   M E M O R Y   * * * * * * *
            CODE    0000H     0003H     ABSOLUTE     
BL51 BANKED LINKER/LOCATER V6.22.2.0                                                  06/11/2021  12:08:32  PAGE 3


            CODE    0003H     0008H     UNIT         ?PR?P_CK?CLOCK
            CODE    000BH     0003H     ABSOLUTE     
            CODE    000EH     0015H     UNIT         ?PR?_STRLEN?STRLEN
            CODE    0023H     0003H     ABSOLUTE     
            CODE    0026H     1322H     UNIT         ?CO?PROG
            CODE    1348H     0B8BH     UNIT         ?C?LIB_CODE
            CODE    1ED3H     08BDH     UNIT         ?CO?VERIFICADOR
            CODE    2790H     0747H     UNIT         ?PR?_PANTALLALCD?PANTALLAS
            CODE    2ED7H     06EFH     UNIT         ?CO?PANTALLAS
            CODE    35C6H     052CH     UNIT         ?PR?_VALIDA_TRAMA_PTO?ACCESCAN
            CODE    3AF2H     04DAH     UNIT         ?PR?_SECUENCIAEXPEDIDORMF?VERIFICADOR
            CODE    3FCCH     0483H     UNIT         ?PR?PRINTF?PRINTF
            CODE    444FH     037FH     UNIT         ?PR?VER_PROG?PROG
            CODE    47CEH     02D0H     UNIT         ?PR?_TWO_BYTEHEX_DECIMAL?CLOCK
            CODE    4A9EH     02B7H     UNIT         ?PR?_PROG_HORARIO_DIAS?PROG
            CODE    4D55H     02A5H     UNIT         ?PR?_PANTALLALCD_LINEA_2?PANTALLAS
            CODE    4FFAH     02A3H     UNIT         ?PR?_ARMAR_TRAMA_MONITOR?VERIFICADOR
            CODE    529DH     0256H     UNIT         ?PR?_ARMAR_TRAMA_PTO_PARALELO_EXPEDIDOR?VERIFICADOR
            CODE    54F3H     022CH     UNIT         ?PR?MENU?PROG
            CODE    571FH     0208H     UNIT         ?PR?_HASH_ID?PROG
            CODE    5927H     01FAH     UNIT         ?PR?_PROG_HORARIO_DESDE_HASTA?PROG
            CODE    5B21H     01F5H     UNIT         ?PR?PROG_FECHA_VENCIMIENTO?PROG
            CODE    5D16H     01EBH     UNIT         ?PR?_ARMAR_TRAMA_TARJETA_SECTOR1_BLOQUE2?VERIFICADOR
            CODE    5F01H     01DFH     UNIT         ?PR?_RESPONDE_LECTURA_TARJETA_SECTOR1_BLOQUE1?VERIFICADOR
            CODE    60E0H     01D8H     UNIT         ?PR?_BLOCK_READ_CLOCK_ASCII_RASBERRY?CLOCK
            CODE    62B8H     01B3H     UNIT         ?PR?COM_ISR?UART
            CODE    646BH     01A4H     UNIT         ?PR?_VALIDA_TIPO_TARJETA?VERIFICADOR
            CODE    660FH     01A3H     UNIT         ?CO?LINTECH
            CODE    67B2H     016EH     UNIT         ?PR?_BLOCK_READ_CLOCK_ASCII?CLOCK
            CODE    6920H     0166H     UNIT         ?PR?_POW?POW
            CODE    6A86H     0157H     UNIT         ?PR?_RESPONDE_REELECTURA_TARJETA_SECTOR1_BLOQUE2?VERIFICADOR
            CODE    6BDDH     0145H     UNIT         ?PR?PROG_HORARIOS?PROG
            CODE    6D22H     013EH     UNIT         ?PR?PROG_SIN_COBRO?PROG
            CODE    6E60H     013EH     UNIT         ?PR?SECUENCIA_INICIO_EXPEDIDOR?VERIFICADOR
            CODE    6F9EH     013CH     UNIT         ?PR?LOAD_AND_SEND_ID_COD?PTO_PARALELO
            CODE    70DAH     0137H     UNIT         ?PR?VER_HORARIO?PROG
            CODE    7211H     012EH     UNIT         ?PR?_ARMAR_TRAMA_PTO_PARALELO_EXPEDIDOR_MENSUAL?VERIFICADOR
            CODE    733FH     012BH     UNIT         ?PR?_RESPONDE_LECTURA_TARJETA_SECTOR1_BLOQUE2?VERIFICADOR
            CODE    746AH     0129H     UNIT         ?PR?LOG?LOG
            CODE    7593H     0128H     UNIT         ?PR?_VER_HORARIO_DIAS?PROG
            CODE    76BBH     011AH     UNIT         ?PR?_PROG_HORARIOS_ON_OFF?PROG
            CODE    77D5H     0119H     UNIT         ?PR?_VER_HORARIO_DESDE_HASTA?PROG
            CODE    78EEH     0115H     UNIT         ?PR?_VALIDAR_CLK?CLOCK
            CODE    7A03H     010FH     UNIT         ?PR?_HORARIOS?VERIFICADOR
            CODE    7B12H     010CH     UNIT         ?PR?_ATOL?ATOL
            CODE    7C1EH     0100H     UNIT         ?PR?_WR_MF?LINTECH
            CODE    7D1EH     00FCH     UNIT         ?PR?PROG_DEBUG?PROG
            CODE    7E1AH     00FCH     UNIT         ?PR?PROG_USE_LPR?PROG
            CODE    7F16H     00FCH     UNIT         ?PR?TIPO_PANTALLA?PROG
            CODE    8012H     00FCH     UNIT         ?PR?PROG_ANTIPASSBACK?PROG
            CODE    810EH     00FCH     UNIT         ?PR?PROG_PLACA?PROG
            CODE    820AH     00FCH     UNIT         ?PR?PROG_VALIDAR_TIPO_VEHICULO_MENSUAL?PROG
            CODE    8306H     00FCH     UNIT         ?PR?PROG_APB_MENSUAL?PROG
            CODE    8402H     00FCH     UNIT         ?PR?_BLOQUE_HORARIO?VERIFICADOR
            CODE    84FEH     00F1H     UNIT         ?PR?_WRITE_EEPROM_TICKET?EEPROM
            CODE    85EFH     00F0H     UNIT         ?CO?IO_SENSORES
            CODE    86DFH     00EAH     UNIT         ?PR?_MOV_CARD?LINTECH
BL51 BANKED LINKER/LOCATER V6.22.2.0                                                  06/11/2021  12:08:32  PAGE 4


            CODE    87C9H     00E4H     UNIT         ?PR?_STRTOK?STRTOK
            CODE    88ADH     00DEH     UNIT         ?PR?PROG_ADDRESS_HIGH_BOARD?PROG
            CODE    898BH     00DBH     UNIT         ?PR?_ATOI?ATOI
            CODE    8A66H     00D7H     UNIT         ?PR?_ANALIZA_UID_CARD?VERIFICADOR
            CODE    8B3DH     00D6H     UNIT         ?PR?_CMD_LPR_SALIDA_WIEGAND?ACCESCAN
            CODE    8C13H     00D3H     UNIT         ?C_INITSEG
            CODE    8CE6H     00CCH     UNIT         ?PR?_GRABA_SERIE?EEPROM
            CODE    8DB2H     00CBH     UNIT         ?PR?_RTA_CMD_TRANSPORTE?VERIFICADOR
            CODE    8E7DH     00CAH     UNIT         ?PR?READ_EEPROM_TICKET?EEPROM
            CODE    8F47H     00C9H     UNIT         ?PR?_CHECK_FECHAOUT?CLOCK
            CODE    9010H     00C4H     UNIT         ?PR?_BLOCK_READ_CLOCK?CLOCK
            CODE    90D4H     00C4H     UNIT         ?PR?_TARJETA_MENSUAL?VERIFICADOR
            CODE    9198H     00C3H     UNIT         ?PR?_RD_MF?LINTECH
            CODE    925BH     00C2H     UNIT         ?PR?PROG_TARJETA_AUTOMATICA_O_BOTON?PROG
            CODE    931DH     00C1H     UNIT         ?PR?_RECIBE_CMD_MONITOR?MONITOR
            CODE    93DEH     00BEH     UNIT         ?PR?ERROR_RX_PTO?VERIFICADOR
            CODE    949CH     00BDH     UNIT         ?PR?PROG_COD_PARK?PROG
            CODE    9559H     00BDH     UNIT         ?PR?PROG_TIEMPO_GRACIA?PROG
            CODE    9616H     00BBH     UNIT         ?PR?_VALIDA_TRAMA_MONITOR?MONITOR
            CODE    96D1H     00B9H     UNIT         ?CO?TIBBO
            CODE    978AH     00B6H     UNIT         ?PR?PROG_ID_CLIENTE?PROG
            CODE    9840H     00B5H     UNIT         ?PR?_WAIT_PLACA?VERIFICADOR
            CODE    98F5H     00B4H     UNIT         ?PR?_SEND_PORT?PTO_PARALELO
            CODE    99A9H     00AFH     UNIT         ?PR?MSJ_LCD_INFORMATIVO?IO_SENSORES
            CODE    9A58H     00ACH     UNIT         ?PR?_HORA_MAXIMA?VERIFICADOR
            CODE    9B04H     00AAH     UNIT         ?PR?CLAVE_SEGURIDAD_S2?LINTECH
            CODE    9BAEH     00A9H     UNIT         ?PR?DWLOAD_EEPROM?LINTECH
            CODE    9C57H     00A6H     UNIT         ?PR?_BLOCK_READ_CLOCK_HEX?CLOCK
            CODE    9CFDH     00A5H     UNIT         ?PR?_SEND_PTO_PARALELO?VERIFICADOR
            CODE    9DA2H     00A4H     UNIT         ?PR?_ARMAR_TRAMA_TARJETA_SECTOR1_BLOQUE1_CAMCEL?VERIFICADOR
            CODE    9E46H     00A1H     UNIT         ?PR?_BLOCK_WRITE_CLOCK_ASCII?CLOCK
            CODE    9EE7H     009DH     UNIT         ?PR?_INICIALIZA?LINTECH
            CODE    9F84H     009CH     UNIT         ?PR?_RESPUESTA_PLACA_CANCEL?VERIFICADOR
            CODE    A020H     009AH     UNIT         ?PR?_RESPONDE_LECTURA_TARJETA_SECTOR1_BLOQUE0?VERIFICADOR
            CODE    A0BAH     009AH     UNIT         ?PR?EXP?EXP
            CODE    A154H     0099H     UNIT         ?PR?SHOW?PROG
            CODE    A1EDH     0099H     UNIT         ?PR?_RECIBE_PORT?PTO_PARALELO
            CODE    A286H     0098H     UNIT         ?PR?_VALIDA_VEHICULO_CARD_MENSUAL?VERIFICADOR
            CODE    A31EH     0091H     UNIT         ?PR?_HEX_ASCII?CLOCK
            CODE    A3AFH     0091H     UNIT         ?PR?_CARD_INSERCION?LINTECH
            CODE    A440H     0090H     UNIT         ?PR?_LEE_CLK?CLOCK
            CODE    A4D0H     0090H     UNIT         ?PR?_GETOPTION?PROG
            CODE    A560H     0090H     UNIT         ?PR?_DISPARO_LOCK_ENTRADA_VEHICULO?VERIFICADOR
            CODE    A5F0H     0090H     UNIT         ?PR?ENTREGA_CARD_CAPTURA?VERIFICADOR
            CODE    A680H     008DH     UNIT         ?PR?LOADVERIFY_EEPROM?LINTECH
            CODE    A70DH     008CH     UNIT         ?C_C51STARTUP
            CODE    A799H     0088H     UNIT         ?PR?_SEND_PORTERR?PTO_PARALELO
            CODE    A821H     0088H     UNIT         ?PR?RX_DATA?TIBBO
            CODE    A8A9H     0088H     UNIT         ?PR?UNIQUE_IDENTIFIER_UID?LINTECH
            CODE    A931H     0086H     UNIT         ?PR?_CHECK_STATUS?LINTECH
            CODE    A9B7H     0084H     UNIT         ?PR?_DEBUGBUFFERMF?TIBBO
            CODE    AA3BH     0084H     UNIT         ?PR?_STRSPN?STRSPN
            CODE    AABFH     0083H     UNIT         ?PR?_RASPBERRY_DATA?PANTALLAS
            CODE    AB42H     0081H     UNIT         ?PR?_STRPBRK?STRPBRK
            CODE    ABC3H     0080H     UNIT         ?PR?_INGRESADATO?PROG
            CODE    AC43H     0080H     UNIT         ?PR?AUT_CARD_CHECK_STATUS?LINTECH
            CODE    ACC3H     0080H     UNIT         ?PR?POWER_OFF?LINTECH
BL51 BANKED LINKER/LOCATER V6.22.2.0                                                  06/11/2021  12:08:32  PAGE 5


            CODE    AD43H     007FH     UNIT         ?PR?MAIN?MAIN
            CODE    ADC2H     007DH     UNIT         ?PR?RELOJ_PANTALLA_LCD?PANTALLAS
            CODE    AE3FH     007CH     UNIT         ?PR?RESPONDE_ESTADO_SENSORES_TRANSPORTE?VERIFICADOR
            CODE    AEBBH     0077H     UNIT         ?PR?RESPONDE_TIPO_TARJETA?VERIFICADOR
            CODE    AF32H     0074H     UNIT         ?PR?_HORA_ENTRADA_VEHICULO?CLOCK
            CODE    AFA6H     0071H     UNIT         ?PR?_EN_HORARIO?VERIFICADOR
            CODE    B017H     006FH     UNIT         ?PR?_ESCRIBIRMEMORIA?EEPROM
            CODE    B086H     006CH     UNIT         ?PR?_RESPONDE_WRITE_TARJETA_SECTOR1_BLOQUE2?VERIFICADOR
            CODE    B0F2H     006BH     UNIT         ?PR?INGRESO_VEHICULO?VERIFICADOR
            CODE    B15DH     006BH     UNIT         ?PR?_STRCAT?STRCAT
            CODE    B1C8H     0066H     UNIT         ?PR?_LEERMEMORIA?EEPROM
            CODE    B22EH     0062H     UNIT         ?PR?_LISTACOMANDOS?PROG
            CODE    B290H     005EH     UNIT         ?PR?_BYTEHEX_DECIMAL?CLOCK
            CODE    B2EEH     005DH     UNIT         ?PR?_RESPUESTA_SEGUNDA_CLAVE?VERIFICADOR
            CODE    B34BH     005CH     UNIT         ?PR?_ARMAR_TRAMA_PLACA?VERIFICADOR
            CODE    B3A7H     005BH     UNIT         ?PR?VALIDA_SENSOR1_AUTO?IO_SENSORES
            CODE    B402H     0056H     UNIT         ?PR?_WR_EEPROM?EEPROM
            CODE    B458H     0054H     UNIT         ?PR?_PREGUNTA_LPR?VERIFICADOR
            CODE    B4ACH     004DH     UNIT         ?PR?VARIABLE_INICIO?MAIN
            CODE    B4F9H     004DH     UNIT         ?PR?L_D_M?EEPROM
            CODE    B546H     004CH     UNIT         ?PR?LEE_NO_TICKET?EEPROM
            CODE    B592H     004CH     UNIT         ?PR?LOAD_AND_SEND_INFO_RELOJ?PTO_PARALELO
            CODE    B5DEH     004BH     UNIT         ?PR?_TX_AUX?TIBBO
            CODE    B629H     0049H     UNIT         ?PR?_DEBUG_TXT_TIBBO?TIBBO
            CODE    B672H     0048H     UNIT         ?PR?FIRST_CLAVE?PROG
            CODE    B6BAH     0047H     UNIT         ?PR?_DEBUG_CHR_TIBBO?TIBBO
            CODE    B701H     0047H     UNIT         ?PR?_RESPONDE_WRITE_TARJETA_SECTOR2_BLOQUE0?VERIFICADOR
            CODE    B748H     0046H     UNIT         ?PR?_ESCRIBIRCADENASOFT_BUFFER?MAIN
            CODE    B78EH     0046H     UNIT         ?PR?_LCD_TXT_NUM_CHAR?PANTALLAS
            CODE    B7D4H     0046H     UNIT         ?PR?_DEBUG_HEXDEC?TIBBO
            CODE    B81AH     0044H     UNIT         ?PR?_LCD_TXT?PANTALLAS
            CODE    B85EH     0043H     UNIT         ?PR?DIR_BOARD?IO_SENSORES
            CODE    B8A1H     0042H     UNIT         ?PR?_VALIDARCLAVE?PROG
            CODE    B8E3H     0041H     UNIT         ?PR?_MONITOR_CHR?ACCESCAN
            CODE    B924H     0041H     UNIT         ?PR?_TWO_ONE?CLOCK
            CODE    B965H     0040H     UNIT         ?PR?_GETCMD?PROG
            CODE    B9A5H     0040H     UNIT         ?PR?_DEBUG_PTO_PARALELO?TIBBO
            CODE    B9E5H     003FH     UNIT         ?PR?_EB_CLK?CLOCK
            CODE    BA24H     003EH     UNIT         ?PR?_PUTCHAR?MAIN
            CODE    BA62H     003EH     UNIT         ?PR?TRAMA_VALIDACION_P_N?VERIFICADOR
            CODE    BAA0H     003DH     UNIT         ?PR?_HEX_BCD?CLOCK
            CODE    BADDH     003DH     UNIT         ?PR?_RD_EEPROM?EEPROM
            CODE    BB1AH     003DH     UNIT         ?PR?_DEBUG_MONITOR?TIBBO
            CODE    BB57H     003DH     UNIT         ?PR?_LOAD_SECUENCIA_EXPEDIDOR?VERIFICADOR
            CODE    BB94H     003BH     UNIT         ?CO?ACCESCAN
            CODE    BBCFH     003BH     UNIT         ?CO?EEPROM
            CODE    BC0AH     003BH     UNIT         ?PR?_COM_PUTCHAR?UART
            CODE    BC45H     003AH     UNIT         ?PR?_DELAY_10MS?DELAY
            CODE    BC7FH     003AH     UNIT         ?PR?ANALIZA_CARD_MOUNT_RF?VERIFICADOR
            CODE    BCB9H     0038H     UNIT         ?PR?VALIDASENSORESPASO?IO_SENSORES
            CODE    BCF1H     0036H     UNIT         ?PR?FORMATO_EEPROM?EEPROM
            CODE    BD27H     0036H     UNIT         ?PR?_RESPONDE_WRITE_TARJETA_SECTOR1_BLOQUE1?VERIFICADOR
            CODE    BD5DH     0036H     UNIT         ?PR?_RESPONDE_WRITE_TARJETA_SECTOR1_BLOQUE0?VERIFICADOR
            CODE    BD93H     0034H     UNIT         ?PR?_CALCULO_BCC?ACCESCAN
            CODE    BDC7H     0034H     UNIT         ?PR?INCREMENTE_TICKET?EEPROM
            CODE    BDFBH     0034H     UNIT         ?PR?ADDR_HORARIOS?PROG
            CODE    BE2FH     0031H     UNIT         ?PR?_TARJETA_ROTACION?VERIFICADOR
BL51 BANKED LINKER/LOCATER V6.22.2.0                                                  06/11/2021  12:08:32  PAGE 6


            CODE    BE60H     0030H     UNIT         ?PR?PREGUNTA_PLACA?VERIFICADOR
            CODE    BE90H     002EH     UNIT         ?PR?TIMER0_INT?MAIN
            CODE    BEBEH     002AH     UNIT         ?PR?COM_INITIALIZE?UART
            CODE    BEE8H     0028H     UNIT         ?PR?_WR_CLK?CLOCK
            CODE    BF10H     0028H     UNIT         ?PR?COM_BAUDRATE?UART
            CODE    BF38H     0028H     UNIT         ?PR?_ARMAR_TRAMA_TARJETA_SECTOR1_BLOQUE0?VERIFICADOR
            CODE    BF60H     0027H     UNIT         ?PR?_TX_CHRLCD?PANTALLAS
            CODE    BF87H     0026H     UNIT         ?PR?COM_GETCHAR?UART
            CODE    BFADH     0026H     UNIT         ?PR?ANALIZA_PRESENCIA_MENSUAL?VERIFICADOR
            CODE    BFD3H     0026H     UNIT         ?PR?RX_MONITOR?MONITOR
            CODE    BFF9H     0023H     UNIT         ?PR?ANALIZA_PRESENCIA_ROTACION?VERIFICADOR
            CODE    C01CH     0022H     UNIT         ?PR?_E_D_M?EEPROM
            CODE    C03EH     0022H     UNIT         ?PR?VALIDASENSOR_CERO?IO_SENSORES
            CODE    C060H     0021H     UNIT         ?CO?PTO_PARALELO
            CODE    C081H     0020H     UNIT         ?PR?ACKD?EEPROM
            CODE    C0A1H     0020H     UNIT         ?PR?ACK_LECT?EEPROM
            CODE    C0C1H     001FH     UNIT         ?PR?VALIDASENSOR?IO_SENSORES
            CODE    C0E0H     001FH     UNIT         ?PR?TIME_BIT?TIBBO
            CODE    C0FFH     001EH     UNIT         ?PR?_BCD_HEX?CLOCK
            CODE    C11DH     001BH     UNIT         ?PR?_DELAY_1MS?DELAY
            CODE    C138H     0018H     UNIT         ?PR?CLEAR_PLACA?MONITOR
            CODE    C150H     0017H     UNIT         ?PR?DISPLAYCURSOR?PROG
            CODE    C167H     0017H     UNIT         ?PR?TIME_MBIT?TIBBO
            CODE    C17EH     0016H     UNIT         ?PR?DIR_BOARD_MONITOR?IO_SENSORES
            CODE    C194H     0014H     UNIT         ?CO?CLOCK
            CODE    C1A8H     0014H     UNIT         ?PR?_ISSPACE?ISSPACE
            CODE    C1BCH     0012H     UNIT         ?PR?_DELAY_20US?DELAY
            CODE    C1CEH     0012H     UNIT         ?PR?START?EEPROM
            CODE    C1E0H     0012H     UNIT         ?PR?BOTTON?IO_SENSORES
            CODE    C1F2H     0012H     UNIT         ?PR?PULSO_BUS?PTO_PARALELO
            CODE    C204H     0012H     UNIT         ?PR?COM_RBUFLEN?UART
            CODE    C216H     0012H     UNIT         ?PR?COM_TBUFLEN?UART
            CODE    C228H     0010H     UNIT         ?PR?INI_TIMER?MAIN
            CODE    C238H     0010H     UNIT         ?PR?INICIA_BOARD?MAIN
            CODE    C248H     000FH     UNIT         ?PR?_ISDIGIT?ISDIGIT
            CODE    C257H     000CH     UNIT         ?PR?_GETKEY?MAIN
            CODE    C263H     000AH     UNIT         ?PR?STOP?EEPROM
            CODE    C26DH     000AH     UNIT         ?PR?COND_INI_PTO?PTO_PARALELO
            CODE    C277H     0009H     UNIT         ?PR?DEBUG_DIVIDIR_TEXTO?TIBBO
            CODE    C280H     0009H     UNIT         ?PR?CAPTURA_EXPULSA?VERIFICADOR
            CODE    C289H     0007H     UNIT         ?PR?COND_INI_CLOCK?CLOCK
            CODE    C290H     0007H     UNIT         ?PR?SEL_FUNCION?IO_SENSORES
            CODE    C297H     0007H     UNIT         ?PR?SEL_AUTO?IO_SENSORES
            CODE    C29EH     0007H     UNIT         ?PR?SEL_PULSA?IO_SENSORES
            CODE    C2A5H     0007H     UNIT         ?PR?SEL_SENSOR2?IO_SENSORES
            CODE    C2ACH     0007H     UNIT         ?PR?SEL_SENSOR1?IO_SENSORES
            CODE    C2B3H     0007H     UNIT         ?PR?SEL_DIR1?IO_SENSORES
            CODE    C2BAH     0007H     UNIT         ?PR?SEL_DIR2?IO_SENSORES
            CODE    C2C1H     0006H     UNIT         ?PR?P_ME?EEPROM
            CODE    C2C7H     0005H     UNIT         ?PR?ON_TIMER0_INTERRUP?MAIN
            CODE    C2CCH     0005H     UNIT         ?PR?COND_INI_TIBBO?TIBBO
            CODE    C2D1H     0003H     UNIT         ?PR?OFF_TIMER0_INTERRUP?MAIN
            CODE    C2D4H     0001H     UNIT         ?PR?DELAY?DELAY



OVERLAY MAP OF MODULE:   .\Objects\expedidor_v_01_raspberry (MAIN)
BL51 BANKED LINKER/LOCATER V6.22.2.0                                                  06/11/2021  12:08:32  PAGE 7




SEGMENT                                             BIT_GROUP          DATA_GROUP          XDATA_GROUP
  +--> CALLED SEGMENT                            START    LENGTH     START    LENGTH     START    LENGTH
--------------------------------------------------------------------------------------------------------
?C_C51STARTUP                                    -----    -----      -----    -----      -----    -----
  +--> ?PR?MAIN?MAIN
  +--> ?C_INITSEG

?PR?MAIN?MAIN                                    -----    -----      -----    -----      0000H    0001H
  +--> ?PR?INI_TIMER?MAIN
  +--> ?PR?ON_TIMER0_INTERRUP?MAIN
  +--> ?PR?COM_INITIALIZE?UART
  +--> ?PR?COM_BAUDRATE?UART
  +--> ?PR?INICIA_BOARD?MAIN
  +--> ?PR?TIME_BIT?TIBBO
  +--> ?PR?_DELAY_20US?DELAY
  +--> ?PR?TIME_MBIT?TIBBO
  +--> ?PR?_TX_AUX?TIBBO
  +--> ?PR?SEL_FUNCION?IO_SENSORES
  +--> ?PR?MENU?PROG
  +--> ?PR?VARIABLE_INICIO?MAIN
  +--> ?PR?SECUENCIA_INICIO_EXPEDIDOR?VERIFI...
  +--> ?PR?RX_MONITOR?MONITOR
  +--> ?PR?_SECUENCIAEXPEDIDORMF?VERIFICADOR
  +--> ?PR?_RECIBE_PORT?PTO_PARALELO
  +--> ?PR?_DEBUG_PTO_PARALELO?TIBBO
  +--> ?PR?_VALIDA_TRAMA_PTO?ACCESCAN
  +--> ?PR?MSJ_LCD_INFORMATIVO?IO_SENSORES

?PR?COM_INITIALIZE?UART                          -----    -----      -----    -----      -----    -----
  +--> ?PR?COM_BAUDRATE?UART

?PR?INICIA_BOARD?MAIN                            -----    -----      -----    -----      -----    -----
  +--> ?PR?COND_INI_TIBBO?TIBBO
  +--> ?PR?COND_INI_CLOCK?CLOCK
  +--> ?PR?COND_INI_PTO?PTO_PARALELO

?PR?_TX_AUX?TIBBO                                -----    -----      -----    -----      -----    -----
  +--> ?PR?TIME_BIT?TIBBO

?PR?MENU?PROG                                    -----    -----      -----    -----      0001H    0045H
  +--> ?CO?PROG
  +--> ?PR?PRINTF?PRINTF
  +--> ?PR?_RD_EEPROM?EEPROM
  +--> ?PR?FIRST_CLAVE?PROG
  +--> ?PR?_WR_EEPROM?EEPROM
  +--> ?PR?_LEERMEMORIA?EEPROM
  +--> ?PR?_HASH_ID?PROG
  +--> ?PR?_INGRESADATO?PROG
  +--> ?PR?_GETCMD?PROG
  +--> ?PR?_ESCRIBIRMEMORIA?EEPROM
  +--> ?PR?_VALIDARCLAVE?PROG
  +--> ?PR?DISPLAYCURSOR?PROG
  +--> ?PR?_STRLEN?STRLEN
  +--> ?PR?_GETOPTION?PROG
  +--> ?PR?_STRCAT?STRCAT
BL51 BANKED LINKER/LOCATER V6.22.2.0                                                  06/11/2021  12:08:32  PAGE 8


  +--> ?PR?_LISTACOMANDOS?PROG
  +--> ?PR?PROG_ID_CLIENTE?PROG
  +--> ?PR?PROG_COD_PARK?PROG
  +--> ?PR?PROG_TIEMPO_GRACIA?PROG
  +--> ?PR?PROG_SIN_COBRO?PROG
  +--> ?PR?PROG_DEBUG?PROG
  +--> ?PR?PROG_USE_LPR?PROG
  +--> ?PR?TIPO_PANTALLA?PROG
  +--> ?PR?PROG_TARJETA_AUTOMATICA_O_BOTON?PROG
  +--> ?PR?PROG_ANTIPASSBACK?PROG
  +--> ?PR?PROG_PLACA?PROG
  +--> ?PR?PROG_ADDRESS_HIGH_BOARD?PROG
  +--> ?PR?PROG_HORARIOS?PROG
  +--> ?PR?PROG_VALIDAR_TIPO_VEHICULO_MENSUA...
  +--> ?PR?PROG_APB_MENSUAL?PROG
  +--> ?PR?VER_PROG?PROG
  +--> ?PR?SHOW?PROG
  +--> ?PR?PROG_FECHA_VENCIMIENTO?PROG

?PR?PRINTF?PRINTF                                0020H.0  0001H.1    0008H    0005H      0077H    0030H
  +--> ?PR?_PUTCHAR?MAIN

?PR?_PUTCHAR?MAIN                                -----    -----      -----    -----      00A7H    0003H
  +--> ?PR?_COM_PUTCHAR?UART

?PR?_COM_PUTCHAR?UART                            -----    -----      -----    -----      00AAH    0001H
  +--> ?PR?COM_TBUFLEN?UART

?PR?_RD_EEPROM?EEPROM                            -----    -----      -----    -----      -----    -----
  +--> ?PR?START?EEPROM
  +--> ?PR?ACK_LECT?EEPROM
  +--> ?PR?_E_D_M?EEPROM
  +--> ?PR?ACKD?EEPROM
  +--> ?PR?L_D_M?EEPROM
  +--> ?PR?STOP?EEPROM

?PR?ACK_LECT?EEPROM                              -----    -----      -----    -----      -----    -----
  +--> ?PR?_E_D_M?EEPROM

?PR?_E_D_M?EEPROM                                -----    -----      -----    -----      -----    -----
  +--> ?PR?P_ME?EEPROM

?PR?ACKD?EEPROM                                  -----    -----      -----    -----      -----    -----
  +--> ?PR?_E_D_M?EEPROM

?PR?FIRST_CLAVE?PROG                             -----    -----      -----    -----      0046H    000BH
  +--> ?PR?_BLOCK_READ_CLOCK_ASCII?CLOCK
  +--> ?PR?_HASH_ID?PROG
  +--> ?PR?_ESCRIBIRMEMORIA?EEPROM

?PR?_BLOCK_READ_CLOCK_ASCII?CLOCK                -----    -----      -----    -----      0051H    0003H
  +--> ?PR?_LEE_CLK?CLOCK

?PR?_LEE_CLK?CLOCK                               -----    -----      -----    -----      00B1H    0003H
  +--> ?PR?_DELAY_20US?DELAY
  +--> ?PR?_EB_CLK?CLOCK
  +--> ?PR?P_CK?CLOCK
BL51 BANKED LINKER/LOCATER V6.22.2.0                                                  06/11/2021  12:08:32  PAGE 9



?PR?_EB_CLK?CLOCK                                -----    -----      -----    -----      00B4H    0003H
  +--> ?PR?P_CK?CLOCK

?PR?P_CK?CLOCK                                   -----    -----      -----    -----      -----    -----
  +--> ?PR?DELAY?DELAY

?PR?_HASH_ID?PROG                                -----    -----      -----    -----      005DH    003FH
  +--> ?CO?PROG
  +--> ?PR?_LEERMEMORIA?EEPROM
  +--> ?PR?_CHECK_FECHAOUT?CLOCK
  +--> ?PR?_STRLEN?STRLEN

?PR?_LEERMEMORIA?EEPROM                          -----    -----      -----    -----      009CH    0005H
  +--> ?PR?_RD_EEPROM?EEPROM

?PR?_CHECK_FECHAOUT?CLOCK                        -----    -----      -----    -----      009CH    0012H
  +--> ?PR?_BLOCK_READ_CLOCK_HEX?CLOCK

?PR?_BLOCK_READ_CLOCK_HEX?CLOCK                  -----    -----      -----    -----      00AEH    0003H
  +--> ?PR?_LEE_CLK?CLOCK
  +--> ?PR?_BCD_HEX?CLOCK

?PR?_ESCRIBIRMEMORIA?EEPROM                      -----    -----      -----    -----      005DH    0005H
  +--> ?PR?_WR_EEPROM?EEPROM

?PR?_WR_EEPROM?EEPROM                            -----    -----      -----    -----      -----    -----
  +--> ?PR?START?EEPROM
  +--> ?PR?ACKD?EEPROM
  +--> ?PR?_E_D_M?EEPROM
  +--> ?PR?STOP?EEPROM
  +--> ?PR?_DELAY_1MS?DELAY
  +--> ?PR?_DELAY_20US?DELAY

?PR?_DELAY_1MS?DELAY                             -----    -----      -----    -----      -----    -----
  +--> ?PR?_DELAY_20US?DELAY

?PR?_INGRESADATO?PROG                            -----    -----      -----    -----      0071H    0004H
  +--> ?PR?_GETKEY?MAIN
  +--> ?CO?PROG
  +--> ?PR?PRINTF?PRINTF
  +--> ?PR?_PUTCHAR?MAIN

?PR?_GETKEY?MAIN                                 -----    -----      -----    -----      -----    -----
  +--> ?PR?COM_GETCHAR?UART

?PR?COM_GETCHAR?UART                             -----    -----      -----    -----      -----    -----
  +--> ?PR?COM_RBUFLEN?UART

?PR?_GETCMD?PROG                                 -----    -----      -----    -----      005DH    0007H
  +--> ?CO?PROG
  +--> ?PR?_STRTOK?STRTOK

?PR?_STRTOK?STRTOK                               -----    -----      -----    -----      0064H    0006H
  +--> ?PR?_STRSPN?STRSPN
  +--> ?PR?_STRPBRK?STRPBRK

BL51 BANKED LINKER/LOCATER V6.22.2.0                                                  06/11/2021  12:08:32  PAGE 10


?PR?_STRSPN?STRSPN                               -----    -----      -----    -----      006AH    0008H

?PR?_STRPBRK?STRPBRK                             -----    -----      -----    -----      006AH    0009H

?PR?_VALIDARCLAVE?PROG                           -----    -----      -----    -----      005DH    000EH

?PR?DISPLAYCURSOR?PROG                           -----    -----      -----    -----      -----    -----
  +--> ?CO?PROG
  +--> ?PR?PRINTF?PRINTF

?PR?_GETOPTION?PROG                              -----    -----      -----    -----      0046H    000BH
  +--> ?CO?PROG
  +--> ?PR?_STRTOK?STRTOK

?PR?_STRCAT?STRCAT                               -----    -----      -----    -----      0048H    0009H

?PR?_LISTACOMANDOS?PROG                          -----    -----      -----    -----      0046H    0007H

?PR?PROG_ID_CLIENTE?PROG                         -----    -----      -----    -----      0046H    000CH
  +--> ?PR?_RD_EEPROM?EEPROM
  +--> ?CO?PROG
  +--> ?PR?PRINTF?PRINTF
  +--> ?PR?_INGRESADATO?PROG
  +--> ?PR?_ATOI?ATOI
  +--> ?PR?_WR_EEPROM?EEPROM

?PR?_ATOI?ATOI                                   0020H.0  0000H.1    -----    -----      0071H    0005H
  +--> ?PR?_ISSPACE?ISSPACE
  +--> ?PR?_ISDIGIT?ISDIGIT

?PR?PROG_COD_PARK?PROG                           -----    -----      -----    -----      0046H    000CH
  +--> ?PR?_RD_EEPROM?EEPROM
  +--> ?CO?PROG
  +--> ?PR?PRINTF?PRINTF
  +--> ?PR?_INGRESADATO?PROG
  +--> ?PR?_ATOI?ATOI
  +--> ?PR?_WR_EEPROM?EEPROM

?PR?PROG_TIEMPO_GRACIA?PROG                      -----    -----      -----    -----      0046H    000CH
  +--> ?PR?_RD_EEPROM?EEPROM
  +--> ?CO?PROG
  +--> ?PR?PRINTF?PRINTF
  +--> ?PR?_INGRESADATO?PROG
  +--> ?PR?_ATOI?ATOI
  +--> ?PR?_WR_EEPROM?EEPROM

?PR?PROG_SIN_COBRO?PROG                          -----    -----      -----    -----      0046H    000CH
  +--> ?PR?_RD_EEPROM?EEPROM
  +--> ?CO?PROG
  +--> ?PR?PRINTF?PRINTF
  +--> ?PR?_INGRESADATO?PROG
  +--> ?PR?_ATOI?ATOI
  +--> ?PR?_WR_EEPROM?EEPROM

?PR?PROG_DEBUG?PROG                              -----    -----      -----    -----      0046H    000CH
  +--> ?PR?_RD_EEPROM?EEPROM
  +--> ?CO?PROG
BL51 BANKED LINKER/LOCATER V6.22.2.0                                                  06/11/2021  12:08:32  PAGE 11


  +--> ?PR?PRINTF?PRINTF
  +--> ?PR?_INGRESADATO?PROG
  +--> ?PR?_ATOI?ATOI
  +--> ?PR?_WR_EEPROM?EEPROM

?PR?PROG_USE_LPR?PROG                            -----    -----      -----    -----      0046H    000CH
  +--> ?PR?_RD_EEPROM?EEPROM
  +--> ?CO?PROG
  +--> ?PR?PRINTF?PRINTF
  +--> ?PR?_INGRESADATO?PROG
  +--> ?PR?_ATOI?ATOI
  +--> ?PR?_WR_EEPROM?EEPROM

?PR?TIPO_PANTALLA?PROG                           -----    -----      -----    -----      0046H    000CH
  +--> ?PR?_RD_EEPROM?EEPROM
  +--> ?CO?PROG
  +--> ?PR?PRINTF?PRINTF
  +--> ?PR?_INGRESADATO?PROG
  +--> ?PR?_ATOI?ATOI
  +--> ?PR?_WR_EEPROM?EEPROM

?PR?PROG_TARJETA_AUTOMATICA_O_BOTON?PROG         -----    -----      -----    -----      0046H    000CH
  +--> ?PR?_RD_EEPROM?EEPROM
  +--> ?CO?PROG
  +--> ?PR?PRINTF?PRINTF
  +--> ?PR?_INGRESADATO?PROG
  +--> ?PR?_ATOI?ATOI
  +--> ?PR?_WR_EEPROM?EEPROM

?PR?PROG_ANTIPASSBACK?PROG                       -----    -----      -----    -----      0046H    000CH
  +--> ?PR?_RD_EEPROM?EEPROM
  +--> ?CO?PROG
  +--> ?PR?PRINTF?PRINTF
  +--> ?PR?_INGRESADATO?PROG
  +--> ?PR?_ATOI?ATOI
  +--> ?PR?_WR_EEPROM?EEPROM

?PR?PROG_PLACA?PROG                              -----    -----      -----    -----      0046H    000CH
  +--> ?PR?_RD_EEPROM?EEPROM
  +--> ?CO?PROG
  +--> ?PR?PRINTF?PRINTF
  +--> ?PR?_INGRESADATO?PROG
  +--> ?PR?_ATOI?ATOI
  +--> ?PR?_WR_EEPROM?EEPROM

?PR?PROG_ADDRESS_HIGH_BOARD?PROG                 -----    -----      -----    -----      0046H    000CH
  +--> ?PR?_RD_EEPROM?EEPROM
  +--> ?CO?PROG
  +--> ?PR?PRINTF?PRINTF
  +--> ?PR?_INGRESADATO?PROG
  +--> ?PR?_ATOI?ATOI
  +--> ?PR?_WR_EEPROM?EEPROM

?PR?PROG_HORARIOS?PROG                           -----    -----      -----    -----      0046H    001BH
  +--> ?PR?ADDR_HORARIOS?PROG
  +--> ?CO?PROG
  +--> ?PR?PRINTF?PRINTF
BL51 BANKED LINKER/LOCATER V6.22.2.0                                                  06/11/2021  12:08:32  PAGE 12


  +--> ?PR?_INGRESADATO?PROG
  +--> ?PR?_ATOI?ATOI
  +--> ?PR?_PROG_HORARIOS_ON_OFF?PROG
  +--> ?PR?_WR_EEPROM?EEPROM
  +--> ?PR?_PROG_HORARIO_DIAS?PROG
  +--> ?PR?_PROG_HORARIO_DESDE_HASTA?PROG
  +--> ?PR?_RD_EEPROM?EEPROM

?PR?ADDR_HORARIOS?PROG                           -----    -----      -----    -----      0074H    000BH

?PR?_PROG_HORARIOS_ON_OFF?PROG                   -----    -----      -----    -----      0061H    0010H
  +--> ?PR?_RD_EEPROM?EEPROM
  +--> ?CO?PROG
  +--> ?PR?PRINTF?PRINTF
  +--> ?PR?_INGRESADATO?PROG
  +--> ?PR?_ATOI?ATOI
  +--> ?PR?_WR_EEPROM?EEPROM

?PR?_PROG_HORARIO_DIAS?PROG                      -----    -----      -----    -----      0061H    000FH
  +--> ?CO?PROG
  +--> ?PR?PRINTF?PRINTF
  +--> ?PR?_INGRESADATO?PROG
  +--> ?PR?_WR_EEPROM?EEPROM
  +--> ?PR?_RD_EEPROM?EEPROM

?PR?_PROG_HORARIO_DESDE_HASTA?PROG               -----    -----      -----    -----      0061H    000CH
  +--> ?CO?PROG
  +--> ?PR?PRINTF?PRINTF
  +--> ?PR?_INGRESADATO?PROG
  +--> ?PR?_WR_EEPROM?EEPROM
  +--> ?PR?_RD_EEPROM?EEPROM

?PR?PROG_VALIDAR_TIPO_VEHICULO_MENSUA...         -----    -----      -----    -----      0046H    000CH
  +--> ?PR?_RD_EEPROM?EEPROM
  +--> ?CO?PROG
  +--> ?PR?PRINTF?PRINTF
  +--> ?PR?_INGRESADATO?PROG
  +--> ?PR?_ATOI?ATOI
  +--> ?PR?_WR_EEPROM?EEPROM

?PR?PROG_APB_MENSUAL?PROG                        -----    -----      -----    -----      0046H    000CH
  +--> ?PR?_RD_EEPROM?EEPROM
  +--> ?CO?PROG
  +--> ?PR?PRINTF?PRINTF
  +--> ?PR?_INGRESADATO?PROG
  +--> ?PR?_ATOI?ATOI
  +--> ?PR?_WR_EEPROM?EEPROM

?PR?VER_PROG?PROG                                -----    -----      -----    -----      0046H    0013H
  +--> ?PR?_RD_EEPROM?EEPROM
  +--> ?CO?PROG
  +--> ?PR?PRINTF?PRINTF
  +--> ?PR?VER_HORARIO?PROG
  +--> ?PR?_LEERMEMORIA?EEPROM
  +--> ?PR?_HEX_ASCII?CLOCK
  +--> ?PR?LEE_NO_TICKET?EEPROM

BL51 BANKED LINKER/LOCATER V6.22.2.0                                                  06/11/2021  12:08:32  PAGE 13


?PR?VER_HORARIO?PROG                             -----    -----      -----    -----      0059H    001BH
  +--> ?PR?ADDR_HORARIOS?PROG
  +--> ?CO?PROG
  +--> ?PR?PRINTF?PRINTF
  +--> ?PR?_RD_EEPROM?EEPROM
  +--> ?PR?_VER_HORARIO_DIAS?PROG
  +--> ?PR?_VER_HORARIO_DESDE_HASTA?PROG

?PR?_VER_HORARIO_DIAS?PROG                       -----    -----      -----    -----      0074H    0003H
  +--> ?PR?_RD_EEPROM?EEPROM
  +--> ?CO?PROG
  +--> ?PR?PRINTF?PRINTF

?PR?_VER_HORARIO_DESDE_HASTA?PROG                -----    -----      -----    -----      0074H    0002H
  +--> ?CO?PROG
  +--> ?PR?PRINTF?PRINTF
  +--> ?PR?_RD_EEPROM?EEPROM

?PR?_HEX_ASCII?CLOCK                             -----    -----      -----    -----      005DH    0006H
  +--> ?PR?_HEX_BCD?CLOCK

?PR?LEE_NO_TICKET?EEPROM                         -----    -----      -----    -----      0059H    000BH
  +--> ?PR?READ_EEPROM_TICKET?EEPROM
  +--> ?CO?EEPROM
  +--> ?PR?PRINTF?PRINTF
  +--> ?PR?_STRLEN?STRLEN
  +--> ?PR?_DEBUG_TXT_TIBBO?TIBBO

?PR?READ_EEPROM_TICKET?EEPROM                    -----    -----      -----    -----      0064H    0007H
  +--> ?PR?_RD_EEPROM?EEPROM

?PR?_DEBUG_TXT_TIBBO?TIBBO                       -----    -----      -----    -----      0064H    0004H
  +--> ?PR?_DEBUG_CHR_TIBBO?TIBBO
  +--> ?CO?TIBBO
  +--> ?PR?_TX_AUX?TIBBO

?PR?_DEBUG_CHR_TIBBO?TIBBO                       -----    -----      -----    -----      -----    -----
  +--> ?PR?_TX_AUX?TIBBO

?PR?SHOW?PROG                                    -----    -----      -----    -----      -----    -----
  +--> ?CO?PROG
  +--> ?PR?PRINTF?PRINTF

?PR?PROG_FECHA_VENCIMIENTO?PROG                  -----    -----      -----    -----      0046H    0017H
  +--> ?PR?_LEERMEMORIA?EEPROM
  +--> ?PR?_HEX_ASCII?CLOCK
  +--> ?CO?PROG
  +--> ?PR?PRINTF?PRINTF
  +--> ?PR?_HASH_ID?PROG
  +--> ?PR?_INGRESADATO?PROG
  +--> ?PR?_GETCMD?PROG
  +--> ?PR?_ESCRIBIRMEMORIA?EEPROM
  +--> ?PR?_VALIDARCLAVE?PROG
  +--> ?PR?_ATOI?ATOI
  +--> ?PR?_WR_EEPROM?EEPROM

?PR?VARIABLE_INICIO?MAIN                         -----    -----      -----    -----      -----    -----
BL51 BANKED LINKER/LOCATER V6.22.2.0                                                  06/11/2021  12:08:32  PAGE 14


  +--> ?PR?_RD_EEPROM?EEPROM

?PR?SECUENCIA_INICIO_EXPEDIDOR?VERIFI...         -----    -----      -----    -----      0001H    0001H
  +--> ?PR?_INICIALIZA?LINTECH
  +--> ?PR?TRAMA_VALIDACION_P_N?VERIFICADOR
  +--> ?CO?VERIFICADOR
  +--> ?PR?_DEBUG_TXT_TIBBO?TIBBO
  +--> ?PR?_DEBUGBUFFERMF?TIBBO
  +--> ?PR?DWLOAD_EEPROM?LINTECH

?PR?_INICIALIZA?LINTECH                          -----    -----      -----    -----      0002H    000CH
  +--> ?CO?LINTECH
  +--> ?PR?_DEBUG_TXT_TIBBO?TIBBO
  +--> ?PR?_DEBUGBUFFERMF?TIBBO
  +--> ?PR?_ESCRIBIRCADENASOFT_BUFFER?MAIN

?PR?_DEBUGBUFFERMF?TIBBO                         -----    -----      -----    -----      0027H    0006H
  +--> ?CO?TIBBO
  +--> ?PR?_DEBUG_TXT_TIBBO?TIBBO
  +--> ?PR?_DEBUG_CHR_TIBBO?TIBBO
  +--> ?PR?_TX_AUX?TIBBO

?PR?_ESCRIBIRCADENASOFT_BUFFER?MAIN              -----    -----      -----    -----      0027H    0006H
  +--> ?PR?_PUTCHAR?MAIN

?PR?TRAMA_VALIDACION_P_N?VERIFICADOR             -----    -----      -----    -----      -----    -----
  +--> ?CO?VERIFICADOR
  +--> ?PR?_DEBUG_TXT_TIBBO?TIBBO

?PR?DWLOAD_EEPROM?LINTECH                        -----    -----      -----    -----      0002H    0016H
  +--> ?CO?LINTECH
  +--> ?PR?_DEBUG_TXT_TIBBO?TIBBO
  +--> ?PR?_DEBUGBUFFERMF?TIBBO
  +--> ?PR?_ESCRIBIRCADENASOFT_BUFFER?MAIN

?PR?RX_MONITOR?MONITOR                           -----    -----      -----    -----      0009H    000DH
  +--> ?PR?_RECIBE_CMD_MONITOR?MONITOR
  +--> ?PR?_DEBUG_MONITOR?TIBBO
  +--> ?PR?_VALIDA_TRAMA_MONITOR?MONITOR

?PR?_RECIBE_CMD_MONITOR?MONITOR                  -----    -----      -----    -----      0016H    0009H
  +--> ?PR?RX_DATA?TIBBO

?PR?RX_DATA?TIBBO                                -----    -----      -----    -----      -----    -----
  +--> ?PR?TIME_MBIT?TIBBO
  +--> ?PR?TIME_BIT?TIBBO

?PR?_DEBUG_MONITOR?TIBBO                         -----    -----      -----    -----      0016H    0004H
  +--> ?PR?DEBUG_DIVIDIR_TEXTO?TIBBO
  +--> ?CO?TIBBO
  +--> ?PR?_DEBUG_TXT_TIBBO?TIBBO

?PR?DEBUG_DIVIDIR_TEXTO?TIBBO                    -----    -----      -----    -----      -----    -----
  +--> ?CO?TIBBO
  +--> ?PR?_DEBUG_TXT_TIBBO?TIBBO

?PR?_VALIDA_TRAMA_MONITOR?MONITOR                -----    -----      -----    -----      0016H    0006H
BL51 BANKED LINKER/LOCATER V6.22.2.0                                                  06/11/2021  12:08:32  PAGE 15


  +--> ?PR?_DELAY_10MS?DELAY
  +--> ?PR?_TX_AUX?TIBBO

?PR?_DELAY_10MS?DELAY                            -----    -----      -----    -----      001CH    0004H
  +--> ?PR?_DELAY_1MS?DELAY

?PR?_SECUENCIAEXPEDIDORMF?VERIFICADOR            -----    -----      -----    -----      0001H    0001H
  +--> ?PR?_CHECK_STATUS?LINTECH
  +--> ?PR?_LOAD_SECUENCIA_EXPEDIDOR?VERIFIC...
  +--> ?PR?RX_MONITOR?MONITOR
  +--> ?PR?_RTA_CMD_TRANSPORTE?VERIFICADOR
  +--> ?PR?_MOV_CARD?LINTECH
  +--> ?PR?_CARD_INSERCION?LINTECH
  +--> ?PR?AUT_CARD_CHECK_STATUS?LINTECH
  +--> ?PR?LOADVERIFY_EEPROM?LINTECH
  +--> ?PR?_RD_MF?LINTECH
  +--> ?PR?_WR_MF?LINTECH
  +--> ?PR?ANALIZA_CARD_MOUNT_RF?VERIFICADOR
  +--> ?PR?DWLOAD_EEPROM?LINTECH
  +--> ?PR?ENTREGA_CARD_CAPTURA?VERIFICADOR
  +--> ?PR?_SEND_PTO_PARALELO?VERIFICADOR
  +--> ?PR?_WAIT_PLACA?VERIFICADOR
  +--> ?PR?UNIQUE_IDENTIFIER_UID?LINTECH
  +--> ?PR?_PREGUNTA_LPR?VERIFICADOR
  +--> ?PR?PREGUNTA_PLACA?VERIFICADOR
  +--> ?PR?_VALIDA_TIPO_TARJETA?VERIFICADOR
  +--> ?PR?POWER_OFF?LINTECH
  +--> ?PR?CLAVE_SEGURIDAD_S2?LINTECH
  +--> ?PR?_RESPONDE_REELECTURA_TARJETA_SECT...
  +--> ?PR?RESPONDE_ESTADO_SENSORES_TRANSPOR...
  +--> ?PR?RESPONDE_TIPO_TARJETA?VERIFICADOR
  +--> ?PR?_RESPONDE_LECTURA_TARJETA_SECTOR1...
  +--> ?PR?_RESPONDE_LECTURA_TARJETA_SECTOR1...
  +--> ?PR?_RESPONDE_LECTURA_TARJETA_SECTOR1...
  +--> ?PR?_RESPONDE_WRITE_TARJETA_SECTOR1_B...
  +--> ?PR?_RESPONDE_WRITE_TARJETA_SECTOR2_B...
  +--> ?PR?_RESPONDE_WRITE_TARJETA_SECTOR1_B...
  +--> ?PR?_RESPONDE_WRITE_TARJETA_SECTOR1_B...
  +--> ?PR?_DISPARO_LOCK_ENTRADA_VEHICULO?VE...
  +--> ?PR?_RESPUESTA_SEGUNDA_CLAVE?VERIFICADOR
  +--> ?PR?ANALIZA_PRESENCIA_MENSUAL?VERIFIC...
  +--> ?PR?_ANALIZA_UID_CARD?VERIFICADOR
  +--> ?PR?ANALIZA_PRESENCIA_ROTACION?VERIFI...
  +--> ?CO?VERIFICADOR
  +--> ?PR?_DEBUG_TXT_TIBBO?TIBBO

?PR?_CHECK_STATUS?LINTECH                        -----    -----      -----    -----      0002H    000BH
  +--> ?CO?LINTECH
  +--> ?PR?_DEBUG_TXT_TIBBO?TIBBO
  +--> ?PR?_DEBUGBUFFERMF?TIBBO
  +--> ?PR?_ESCRIBIRCADENASOFT_BUFFER?MAIN

?PR?_LOAD_SECUENCIA_EXPEDIDOR?VERIFIC...         -----    -----      -----    -----      0002H    0009H

?PR?_RTA_CMD_TRANSPORTE?VERIFICADOR              -----    -----      -----    -----      0002H    0005H
  +--> ?PR?TRAMA_VALIDACION_P_N?VERIFICADOR
  +--> ?CO?VERIFICADOR
BL51 BANKED LINKER/LOCATER V6.22.2.0                                                  06/11/2021  12:08:32  PAGE 16


  +--> ?PR?_DEBUG_TXT_TIBBO?TIBBO
  +--> ?PR?_DEBUGBUFFERMF?TIBBO
  +--> ?PR?ERROR_RX_PTO?VERIFICADOR

?PR?ERROR_RX_PTO?VERIFICADOR                     -----    -----      -----    -----      0007H    0001H
  +--> ?CO?VERIFICADOR
  +--> ?PR?_DEBUG_TXT_TIBBO?TIBBO
  +--> ?PR?_DEBUG_CHR_TIBBO?TIBBO
  +--> ?PR?_DELAY_10MS?DELAY

?PR?_MOV_CARD?LINTECH                            -----    -----      -----    -----      0002H    000CH
  +--> ?CO?LINTECH
  +--> ?PR?_DEBUG_TXT_TIBBO?TIBBO
  +--> ?PR?_DEBUGBUFFERMF?TIBBO
  +--> ?PR?_ESCRIBIRCADENASOFT_BUFFER?MAIN

?PR?_CARD_INSERCION?LINTECH                      -----    -----      -----    -----      0002H    000AH
  +--> ?CO?LINTECH
  +--> ?PR?_DEBUG_TXT_TIBBO?TIBBO
  +--> ?PR?_DEBUGBUFFERMF?TIBBO
  +--> ?PR?_ESCRIBIRCADENASOFT_BUFFER?MAIN

?PR?AUT_CARD_CHECK_STATUS?LINTECH                -----    -----      -----    -----      0002H    000BH
  +--> ?CO?LINTECH
  +--> ?PR?_DEBUG_TXT_TIBBO?TIBBO
  +--> ?PR?_DEBUGBUFFERMF?TIBBO
  +--> ?PR?_ESCRIBIRCADENASOFT_BUFFER?MAIN

?PR?LOADVERIFY_EEPROM?LINTECH                    -----    -----      -----    -----      0002H    0010H
  +--> ?CO?LINTECH
  +--> ?PR?_DEBUG_TXT_TIBBO?TIBBO
  +--> ?PR?_DEBUGBUFFERMF?TIBBO
  +--> ?PR?_ESCRIBIRCADENASOFT_BUFFER?MAIN

?PR?_RD_MF?LINTECH                               -----    -----      -----    -----      0002H    0012H
  +--> ?CO?LINTECH
  +--> ?PR?_DEBUG_TXT_TIBBO?TIBBO
  +--> ?PR?_DEBUG_CHR_TIBBO?TIBBO
  +--> ?PR?_DEBUGBUFFERMF?TIBBO
  +--> ?PR?_ESCRIBIRCADENASOFT_BUFFER?MAIN

?PR?_WR_MF?LINTECH                               -----    -----      -----    -----      0002H    0025H
  +--> ?CO?LINTECH
  +--> ?PR?_DEBUG_TXT_TIBBO?TIBBO
  +--> ?PR?_DEBUG_CHR_TIBBO?TIBBO
  +--> ?PR?_DEBUGBUFFERMF?TIBBO
  +--> ?PR?_ESCRIBIRCADENASOFT_BUFFER?MAIN

?PR?ANALIZA_CARD_MOUNT_RF?VERIFICADOR            -----    -----      -----    -----      0002H    0001H
  +--> ?CO?VERIFICADOR
  +--> ?PR?_DEBUG_TXT_TIBBO?TIBBO

?PR?ENTREGA_CARD_CAPTURA?VERIFICADOR             -----    -----      -----    -----      0002H    0001H
  +--> ?CO?VERIFICADOR
  +--> ?PR?_DEBUG_TXT_TIBBO?TIBBO
  +--> ?PR?SEL_SENSOR2?IO_SENSORES
  +--> ?PR?VALIDASENSOR?IO_SENSORES
BL51 BANKED LINKER/LOCATER V6.22.2.0                                                  06/11/2021  12:08:32  PAGE 17


  +--> ?PR?VALIDA_SENSOR1_AUTO?IO_SENSORES

?PR?VALIDA_SENSOR1_AUTO?IO_SENSORES              -----    -----      -----    -----      0016H    0001H
  +--> ?PR?SEL_SENSOR1?IO_SENSORES
  +--> ?PR?SEL_AUTO?IO_SENSORES
  +--> ?CO?IO_SENSORES
  +--> ?PR?_DEBUG_TXT_TIBBO?TIBBO
  +--> ?PR?BOTTON?IO_SENSORES

?PR?BOTTON?IO_SENSORES                           -----    -----      -----    -----      -----    -----
  +--> ?PR?SEL_PULSA?IO_SENSORES
  +--> ?CO?IO_SENSORES
  +--> ?PR?_DEBUG_TXT_TIBBO?TIBBO

?PR?_SEND_PTO_PARALELO?VERIFICADOR               -----    -----      -----    -----      0002H    0007H
  +--> ?PR?_ARMAR_TRAMA_PTO_PARALELO_EXPEDID...
  +--> ?PR?_ARMAR_TRAMA_PTO_PARALELO_EXPEDID...
  +--> ?PR?INCREMENTE_TICKET?EEPROM
  +--> ?PR?_SEND_PORT?PTO_PARALELO
  +--> ?CO?VERIFICADOR
  +--> ?PR?_DEBUG_TXT_TIBBO?TIBBO
  +--> ?PR?_DEBUGBUFFERMF?TIBBO
  +--> ?PR?CLEAR_PLACA?MONITOR

?PR?_ARMAR_TRAMA_PTO_PARALELO_EXPEDID...         -----    -----      -----    -----      0009H    0006H
  +--> ?PR?_BCD_HEX?CLOCK
  +--> ?PR?_RD_EEPROM?EEPROM

?PR?_ARMAR_TRAMA_PTO_PARALELO_EXPEDID...         -----    -----      -----    -----      0009H    0012H
  +--> ?PR?LEE_NO_TICKET?EEPROM
  +--> ?PR?_STRCAT?STRCAT
  +--> ?PR?_STRLEN?STRLEN
  +--> ?PR?_BCD_HEX?CLOCK
  +--> ?PR?_RD_EEPROM?EEPROM

?PR?INCREMENTE_TICKET?EEPROM                     -----    -----      -----    -----      0009H    000BH
  +--> ?PR?READ_EEPROM_TICKET?EEPROM
  +--> ?CO?EEPROM
  +--> ?PR?PRINTF?PRINTF
  +--> ?PR?_WRITE_EEPROM_TICKET?EEPROM

?PR?_WRITE_EEPROM_TICKET?EEPROM                  -----    -----      -----    -----      001AH    000BH
  +--> ?CO?EEPROM
  +--> ?PR?_DEBUG_TXT_TIBBO?TIBBO
  +--> ?PR?_ATOL?ATOL
  +--> ?PR?_DEBUG_CHR_TIBBO?TIBBO
  +--> ?PR?_WR_EEPROM?EEPROM

?PR?_ATOL?ATOL                                   0020H.0  0000H.1    -----    -----      0025H    0007H
  +--> ?PR?_ISSPACE?ISSPACE
  +--> ?PR?_ISDIGIT?ISDIGIT

?PR?_SEND_PORT?PTO_PARALELO                      -----    -----      -----    -----      0016H    000AH
  +--> ?PR?PULSO_BUS?PTO_PARALELO
  +--> ?PR?_DELAY_20US?DELAY

?PR?PULSO_BUS?PTO_PARALELO                       -----    -----      -----    -----      -----    -----
BL51 BANKED LINKER/LOCATER V6.22.2.0                                                  06/11/2021  12:08:32  PAGE 18


  +--> ?PR?_DELAY_20US?DELAY

?PR?_WAIT_PLACA?VERIFICADOR                      -----    -----      -----    -----      0002H    0007H
  +--> ?CO?VERIFICADOR
  +--> ?PR?_DEBUG_TXT_TIBBO?TIBBO
  +--> ?PR?RX_MONITOR?MONITOR
  +--> ?PR?_RESPUESTA_PLACA_CANCEL?VERIFICADOR

?PR?_RESPUESTA_PLACA_CANCEL?VERIFICADOR          -----    -----      -----    -----      0009H    000AH
  +--> ?CO?VERIFICADOR
  +--> ?PR?_DEBUG_TXT_TIBBO?TIBBO
  +--> ?PR?_ARMAR_TRAMA_TARJETA_SECTOR1_BLOQ...

?PR?_ARMAR_TRAMA_TARJETA_SECTOR1_BLOQ...         -----    -----      -----    -----      0013H    0004H
  +--> ?PR?CLEAR_PLACA?MONITOR
  +--> ?PR?_RD_EEPROM?EEPROM

?PR?UNIQUE_IDENTIFIER_UID?LINTECH                -----    -----      -----    -----      0002H    000BH
  +--> ?CO?LINTECH
  +--> ?PR?_DEBUG_TXT_TIBBO?TIBBO
  +--> ?PR?_DEBUGBUFFERMF?TIBBO
  +--> ?PR?_ESCRIBIRCADENASOFT_BUFFER?MAIN

?PR?_PREGUNTA_LPR?VERIFICADOR                    -----    -----      -----    -----      0002H    0003H
  +--> ?CO?VERIFICADOR
  +--> ?PR?_DEBUG_TXT_TIBBO?TIBBO
  +--> ?PR?_HORA_ENTRADA_VEHICULO?CLOCK
  +--> ?PR?_RD_EEPROM?EEPROM
  +--> ?PR?_ARMAR_TRAMA_MONITOR?VERIFICADOR

?PR?_HORA_ENTRADA_VEHICULO?CLOCK                 -----    -----      -----    -----      0005H    0003H
  +--> ?PR?_LEE_CLK?CLOCK

?PR?_ARMAR_TRAMA_MONITOR?VERIFICADOR             -----    -----      -----    -----      0005H    000FH
  +--> ?PR?DIR_BOARD_MONITOR?IO_SENSORES
  +--> ?PR?LEE_NO_TICKET?EEPROM
  +--> ?PR?_STRCAT?STRCAT
  +--> ?PR?_BYTEHEX_DECIMAL?CLOCK
  +--> ?PR?_STRLEN?STRLEN
  +--> ?PR?_TWO_BYTEHEX_DECIMAL?CLOCK

?PR?DIR_BOARD_MONITOR?IO_SENSORES                -----    -----      -----    -----      -----    -----
  +--> ?PR?_RD_EEPROM?EEPROM

?PR?_BYTEHEX_DECIMAL?CLOCK                       -----    -----      -----    -----      0015H    0001H

?PR?_TWO_BYTEHEX_DECIMAL?CLOCK                   -----    -----      -----    -----      0015H    000CH
  +--> ?PR?_POW?POW

?PR?_POW?POW                                     -----    -----      -----    -----      0021H    000AH
  +--> ?PR?LOG?LOG
  +--> ?PR?EXP?EXP

?PR?LOG?LOG                                      0020H.0  0000H.1    -----    -----      002BH    0004H

?PR?PREGUNTA_PLACA?VERIFICADOR                   -----    -----      -----    -----      0002H    0001H
  +--> ?CO?VERIFICADOR
BL51 BANKED LINKER/LOCATER V6.22.2.0                                                  06/11/2021  12:08:32  PAGE 19


  +--> ?PR?_DEBUG_TXT_TIBBO?TIBBO
  +--> ?PR?_RD_EEPROM?EEPROM

?PR?_VALIDA_TIPO_TARJETA?VERIFICADOR             -----    -----      -----    -----      0002H    0007H
  +--> ?CO?VERIFICADOR
  +--> ?PR?_DEBUG_TXT_TIBBO?TIBBO
  +--> ?PR?_RD_EEPROM?EEPROM
  +--> ?PR?_TARJETA_MENSUAL?VERIFICADOR
  +--> ?PR?_SEND_PORTERR?PTO_PARALELO
  +--> ?PR?_PANTALLALCD?PANTALLAS
  +--> ?PR?CAPTURA_EXPULSA?VERIFICADOR
  +--> ?PR?_TARJETA_ROTACION?VERIFICADOR

?PR?_TARJETA_MENSUAL?VERIFICADOR                 -----    -----      -----    -----      0009H    0007H
  +--> ?PR?_HORARIOS?VERIFICADOR
  +--> ?PR?_CHECK_FECHAOUT?CLOCK
  +--> ?PR?_VALIDA_VEHICULO_CARD_MENSUAL?VER...
  +--> ?PR?CAPTURA_EXPULSA?VERIFICADOR
  +--> ?CO?VERIFICADOR
  +--> ?PR?_DEBUG_TXT_TIBBO?TIBBO
  +--> ?PR?_ARMAR_TRAMA_TARJETA_SECTOR1_BLOQ...
  +--> ?PR?_SEND_PORTERR?PTO_PARALELO
  +--> ?PR?_PANTALLALCD?PANTALLAS

?PR?_HORARIOS?VERIFICADOR                        -----    -----      -----    -----      0010H    0013H
  +--> ?PR?ADDR_HORARIOS?PROG
  +--> ?PR?_RD_EEPROM?EEPROM
  +--> ?PR?_LEE_CLK?CLOCK
  +--> ?CO?VERIFICADOR
  +--> ?PR?_DEBUG_TXT_TIBBO?TIBBO
  +--> ?PR?_DEBUG_CHR_TIBBO?TIBBO
  +--> ?PR?_BLOQUE_HORARIO?VERIFICADOR
  +--> ?PR?_PANTALLALCD?PANTALLAS

?PR?_BLOQUE_HORARIO?VERIFICADOR                  -----    -----      -----    -----      0023H    0007H
  +--> ?CO?VERIFICADOR
  +--> ?PR?_DEBUG_TXT_TIBBO?TIBBO
  +--> ?PR?_LEE_CLK?CLOCK
  +--> ?PR?_DEBUG_CHR_TIBBO?TIBBO
  +--> ?PR?_HORA_MAXIMA?VERIFICADOR
  +--> ?PR?_EN_HORARIO?VERIFICADOR
  +--> ?PR?_RD_EEPROM?EEPROM
  +--> ?PR?_SEND_PORTERR?PTO_PARALELO
  +--> ?PR?_PANTALLALCD?PANTALLAS

?PR?_HORA_MAXIMA?VERIFICADOR                     -----    -----      -----    -----      002FH    0008H
  +--> ?PR?_RD_EEPROM?EEPROM
  +--> ?PR?_DEBUG_CHR_TIBBO?TIBBO
  +--> ?CO?VERIFICADOR
  +--> ?PR?_DEBUG_TXT_TIBBO?TIBBO

?PR?_EN_HORARIO?VERIFICADOR                      -----    -----      -----    -----      002AH    0005H
  +--> ?CO?VERIFICADOR
  +--> ?PR?_DEBUG_TXT_TIBBO?TIBBO
  +--> ?PR?_HORA_MAXIMA?VERIFICADOR

?PR?_SEND_PORTERR?PTO_PARALELO                   -----    -----      -----    -----      002AH    0006H
BL51 BANKED LINKER/LOCATER V6.22.2.0                                                  06/11/2021  12:08:32  PAGE 20


  +--> ?PR?PULSO_BUS?PTO_PARALELO
  +--> ?PR?_DELAY_20US?DELAY

?PR?_PANTALLALCD?PANTALLAS                       -----    -----      -----    -----      002AH    000AH
  +--> ?CO?PANTALLAS
  +--> ?PR?_LCD_TXT?PANTALLAS
  +--> ?PR?_STRLEN?STRLEN
  +--> ?PR?_TX_CHRLCD?PANTALLAS
  +--> ?PR?_RASPBERRY_DATA?PANTALLAS

?PR?_LCD_TXT?PANTALLAS                           -----    -----      -----    -----      0048H    0005H
  +--> ?PR?_TX_CHRLCD?PANTALLAS

?PR?_TX_CHRLCD?PANTALLAS                         -----    -----      -----    -----      004DH    0002H
  +--> ?PR?_PUTCHAR?MAIN

?PR?_RASPBERRY_DATA?PANTALLAS                    -----    -----      -----    -----      0048H    0006H
  +--> ?PR?_STRLEN?STRLEN
  +--> ?PR?_PUTCHAR?MAIN

?PR?_VALIDA_VEHICULO_CARD_MENSUAL?VER...         -----    -----      -----    -----      0010H    0004H
  +--> ?CO?VERIFICADOR
  +--> ?PR?_DEBUG_TXT_TIBBO?TIBBO
  +--> ?PR?_RD_EEPROM?EEPROM
  +--> ?PR?_SEND_PORTERR?PTO_PARALELO

?PR?_ARMAR_TRAMA_TARJETA_SECTOR1_BLOQ...         -----    -----      -----    -----      0010H    0006H
  +--> ?PR?_BCD_HEX?CLOCK
  +--> ?PR?DIR_BOARD?IO_SENSORES

?PR?DIR_BOARD?IO_SENSORES                        -----    -----      -----    -----      0037H    0001H
  +--> ?PR?SEL_DIR1?IO_SENSORES
  +--> ?PR?SEL_DIR2?IO_SENSORES
  +--> ?PR?_RD_EEPROM?EEPROM

?PR?_TARJETA_ROTACION?VERIFICADOR                -----    -----      -----    -----      0009H    0006H
  +--> ?PR?_ARMAR_TRAMA_TARJETA_SECTOR1_BLOQ...

?PR?POWER_OFF?LINTECH                            -----    -----      -----    -----      0002H    000BH
  +--> ?CO?LINTECH
  +--> ?PR?_DEBUG_TXT_TIBBO?TIBBO
  +--> ?PR?_DEBUGBUFFERMF?TIBBO
  +--> ?PR?_ESCRIBIRCADENASOFT_BUFFER?MAIN

?PR?CLAVE_SEGURIDAD_S2?LINTECH                   -----    -----      -----    -----      0002H    0016H
  +--> ?CO?LINTECH
  +--> ?PR?_DEBUG_TXT_TIBBO?TIBBO
  +--> ?PR?_DEBUGBUFFERMF?TIBBO
  +--> ?PR?_ESCRIBIRCADENASOFT_BUFFER?MAIN

?PR?_RESPONDE_REELECTURA_TARJETA_SECT...         -----    -----      -----    -----      0002H    000AH
  +--> ?CO?VERIFICADOR
  +--> ?PR?_DEBUG_TXT_TIBBO?TIBBO
  +--> ?PR?_DEBUGBUFFERMF?TIBBO
  +--> ?PR?_ARMAR_TRAMA_TARJETA_SECTOR1_BLOQ...

?PR?_ARMAR_TRAMA_TARJETA_SECTOR1_BLOQ...         -----    -----      -----    -----      000CH    0003H
BL51 BANKED LINKER/LOCATER V6.22.2.0                                                  06/11/2021  12:08:32  PAGE 21


  +--> ?PR?LEE_NO_TICKET?EEPROM

?PR?RESPONDE_ESTADO_SENSORES_TRANSPOR...         -----    -----      -----    -----      0002H    0001H
  +--> ?CO?VERIFICADOR
  +--> ?PR?_DEBUG_TXT_TIBBO?TIBBO
  +--> ?PR?_SEND_PORTERR?PTO_PARALELO
  +--> ?PR?INGRESO_VEHICULO?VERIFICADOR

?PR?INGRESO_VEHICULO?VERIFICADOR                 -----    -----      -----    -----      -----    -----
  +--> ?PR?VALIDASENSORESPASO?IO_SENSORES
  +--> ?PR?_RD_EEPROM?EEPROM
  +--> ?CO?VERIFICADOR
  +--> ?PR?_DEBUG_TXT_TIBBO?TIBBO
  +--> ?PR?_PANTALLALCD?PANTALLAS
  +--> ?PR?BOTTON?IO_SENSORES

?PR?VALIDASENSORESPASO?IO_SENSORES               -----    -----      -----    -----      0015H    0001H
  +--> ?PR?SEL_SENSOR2?IO_SENSORES
  +--> ?PR?VALIDASENSOR?IO_SENSORES
  +--> ?PR?VALIDA_SENSOR1_AUTO?IO_SENSORES
  +--> ?CO?IO_SENSORES
  +--> ?PR?_DEBUG_TXT_TIBBO?TIBBO

?PR?RESPONDE_TIPO_TARJETA?VERIFICADOR            -----    -----      -----    -----      0002H    0001H
  +--> ?CO?VERIFICADOR
  +--> ?PR?_DEBUG_TXT_TIBBO?TIBBO
  +--> ?PR?_SEND_PORTERR?PTO_PARALELO
  +--> ?PR?_PANTALLALCD?PANTALLAS
  +--> ?PR?CAPTURA_EXPULSA?VERIFICADOR

?PR?_RESPONDE_LECTURA_TARJETA_SECTOR1...         -----    -----      -----    -----      0002H    0016H
  +--> ?CO?VERIFICADOR
  +--> ?PR?_DEBUG_TXT_TIBBO?TIBBO
  +--> ?PR?_DEBUGBUFFERMF?TIBBO
  +--> ?PR?_RD_EEPROM?EEPROM
  +--> ?PR?_DEBUG_HEXDEC?TIBBO
  +--> ?PR?_DEBUG_CHR_TIBBO?TIBBO
  +--> ?PR?_SEND_PORTERR?PTO_PARALELO
  +--> ?PR?_PANTALLALCD?PANTALLAS
  +--> ?PR?CAPTURA_EXPULSA?VERIFICADOR

?PR?_DEBUG_HEXDEC?TIBBO                          -----    -----      -----    -----      0018H    0002H
  +--> ?PR?_TX_AUX?TIBBO

?PR?_RESPONDE_LECTURA_TARJETA_SECTOR1...         -----    -----      -----    -----      0002H    0004H
  +--> ?CO?VERIFICADOR
  +--> ?PR?_DEBUG_TXT_TIBBO?TIBBO
  +--> ?PR?CAPTURA_EXPULSA?VERIFICADOR

?PR?_RESPONDE_LECTURA_TARJETA_SECTOR1...         -----    -----      -----    -----      0002H    0015H
  +--> ?CO?VERIFICADOR
  +--> ?PR?_DEBUG_TXT_TIBBO?TIBBO
  +--> ?PR?_DEBUGBUFFERMF?TIBBO
  +--> ?PR?_DEBUG_CHR_TIBBO?TIBBO
  +--> ?PR?CAPTURA_EXPULSA?VERIFICADOR

?PR?_RESPONDE_WRITE_TARJETA_SECTOR1_B...         -----    -----      -----    -----      0002H    0007H
BL51 BANKED LINKER/LOCATER V6.22.2.0                                                  06/11/2021  12:08:32  PAGE 22


  +--> ?CO?VERIFICADOR
  +--> ?PR?_DEBUG_TXT_TIBBO?TIBBO
  +--> ?PR?_DEBUGBUFFERMF?TIBBO

?PR?_RESPONDE_WRITE_TARJETA_SECTOR2_B...         -----    -----      -----    -----      0002H    0003H
  +--> ?CO?VERIFICADOR
  +--> ?PR?_DEBUG_TXT_TIBBO?TIBBO
  +--> ?PR?_DEBUGBUFFERMF?TIBBO

?PR?_RESPONDE_WRITE_TARJETA_SECTOR1_B...         -----    -----      -----    -----      0002H    0003H
  +--> ?CO?VERIFICADOR
  +--> ?PR?_DEBUG_TXT_TIBBO?TIBBO
  +--> ?PR?_DEBUGBUFFERMF?TIBBO

?PR?_RESPONDE_WRITE_TARJETA_SECTOR1_B...         -----    -----      -----    -----      0002H    0003H
  +--> ?CO?VERIFICADOR
  +--> ?PR?_DEBUG_TXT_TIBBO?TIBBO
  +--> ?PR?_DEBUGBUFFERMF?TIBBO

?PR?_DISPARO_LOCK_ENTRADA_VEHICULO?VE...         -----    -----      -----    -----      0002H    0004H
  +--> ?CO?VERIFICADOR
  +--> ?PR?_DEBUG_TXT_TIBBO?TIBBO
  +--> ?PR?_SEND_PORTERR?PTO_PARALELO
  +--> ?PR?_PANTALLALCD_LINEA_2?PANTALLAS
  +--> ?PR?VALIDA_SENSOR1_AUTO?IO_SENSORES
  +--> ?PR?_PANTALLALCD?PANTALLAS

?PR?_PANTALLALCD_LINEA_2?PANTALLAS               -----    -----      -----    -----      0015H    0033H
  +--> ?CO?PANTALLAS
  +--> ?PR?_LCD_TXT?PANTALLAS
  +--> ?PR?_STRLEN?STRLEN
  +--> ?PR?_TX_CHRLCD?PANTALLAS
  +--> ?PR?_RASPBERRY_DATA?PANTALLAS
  +--> ?PR?LEE_NO_TICKET?EEPROM
  +--> ?PR?_STRCAT?STRCAT

?PR?_RESPUESTA_SEGUNDA_CLAVE?VERIFICADOR         -----    -----      -----    -----      0002H    0006H
  +--> ?CO?VERIFICADOR
  +--> ?PR?_DEBUG_TXT_TIBBO?TIBBO
  +--> ?PR?_DEBUGBUFFERMF?TIBBO
  +--> ?PR?_ARMAR_TRAMA_PLACA?VERIFICADOR

?PR?_ARMAR_TRAMA_PLACA?VERIFICADOR               -----    -----      -----    -----      0008H    0003H
  +--> ?PR?_STRLEN?STRLEN

?PR?ANALIZA_PRESENCIA_MENSUAL?VERIFIC...         -----    -----      -----    -----      0002H    0001H
  +--> ?PR?VALIDASENSORESPASO?IO_SENSORES
  +--> ?PR?_SEND_PORTERR?PTO_PARALELO
  +--> ?PR?_PANTALLALCD?PANTALLAS

?PR?_ANALIZA_UID_CARD?VERIFICADOR                -----    -----      -----    -----      0002H    0015H
  +--> ?CO?VERIFICADOR
  +--> ?PR?_DEBUG_TXT_TIBBO?TIBBO
  +--> ?PR?_DEBUGBUFFERMF?TIBBO
  +--> ?PR?_DEBUG_CHR_TIBBO?TIBBO

?PR?ANALIZA_PRESENCIA_ROTACION?VERIFI...         -----    -----      -----    -----      0002H    0001H
BL51 BANKED LINKER/LOCATER V6.22.2.0                                                  06/11/2021  12:08:32  PAGE 23


  +--> ?PR?VALIDASENSORESPASO?IO_SENSORES
  +--> ?PR?_SEND_PORTERR?PTO_PARALELO
  +--> ?PR?_PANTALLALCD?PANTALLAS

?PR?_RECIBE_PORT?PTO_PARALELO                    -----    -----      -----    -----      0001H    0008H
  +--> ?PR?OFF_TIMER0_INTERRUP?MAIN
  +--> ?PR?ON_TIMER0_INTERRUP?MAIN

?PR?_DEBUG_PTO_PARALELO?TIBBO                    -----    -----      -----    -----      0001H    0004H
  +--> ?CO?TIBBO
  +--> ?PR?_DEBUG_TXT_TIBBO?TIBBO
  +--> ?PR?_DEBUGBUFFERMF?TIBBO
  +--> ?PR?DEBUG_DIVIDIR_TEXTO?TIBBO

?PR?_VALIDA_TRAMA_PTO?ACCESCAN                   -----    -----      -----    -----      0001H    0014H
  +--> ?CO?ACCESCAN
  +--> ?PR?_DEBUG_TXT_TIBBO?TIBBO
  +--> ?PR?_DEBUG_CHR_TIBBO?TIBBO
  +--> ?PR?_CALCULO_BCC?ACCESCAN
  +--> ?PR?_VALIDAR_CLK?CLOCK
  +--> ?PR?_BLOCK_WRITE_CLOCK_ASCII?CLOCK
  +--> ?PR?RELOJ_PANTALLA_LCD?PANTALLAS
  +--> ?PR?_SEND_PORT?PTO_PARALELO
  +--> ?PR?_PANTALLALCD?PANTALLAS
  +--> ?PR?FORMATO_EEPROM?EEPROM
  +--> ?PR?_BYTEHEX_DECIMAL?CLOCK
  +--> ?PR?_TWO_BYTEHEX_DECIMAL?CLOCK
  +--> ?PR?VALIDASENSORESPASO?IO_SENSORES
  +--> ?PR?_CMD_LPR_SALIDA_WIEGAND?ACCESCAN
  +--> ?PR?_PANTALLALCD_LINEA_2?PANTALLAS
  +--> ?PR?_GRABA_SERIE?EEPROM

?PR?_CALCULO_BCC?ACCESCAN                        -----    -----      -----    -----      0015H    0004H

?PR?_BLOCK_WRITE_CLOCK_ASCII?CLOCK               -----    -----      -----    -----      0015H    0003H
  +--> ?CO?CLOCK
  +--> ?PR?_DEBUG_TXT_TIBBO?TIBBO
  +--> ?PR?_TWO_ONE?CLOCK
  +--> ?PR?_WR_CLK?CLOCK

?PR?_WR_CLK?CLOCK                                -----    -----      -----    -----      0018H    0002H
  +--> ?PR?_DELAY_20US?DELAY
  +--> ?PR?_EB_CLK?CLOCK

?PR?RELOJ_PANTALLA_LCD?PANTALLAS                 -----    -----      -----    -----      0015H    000DH
  +--> ?CO?PANTALLAS
  +--> ?PR?_BLOCK_READ_CLOCK?CLOCK
  +--> ?PR?_LCD_TXT_NUM_CHAR?PANTALLAS
  +--> ?PR?_BLOCK_READ_CLOCK_ASCII_RASBERRY?...
  +--> ?PR?_STRCAT?STRCAT
  +--> ?PR?_RASPBERRY_DATA?PANTALLAS

?PR?_BLOCK_READ_CLOCK?CLOCK                      -----    -----      -----    -----      0022H    0003H
  +--> ?PR?_LEE_CLK?CLOCK

?PR?_LCD_TXT_NUM_CHAR?PANTALLAS                  -----    -----      -----    -----      0022H    0006H
  +--> ?PR?_TX_CHRLCD?PANTALLAS
BL51 BANKED LINKER/LOCATER V6.22.2.0                                                  06/11/2021  12:08:32  PAGE 24



?PR?_BLOCK_READ_CLOCK_ASCII_RASBERRY?...         -----    -----      -----    -----      0022H    0003H
  +--> ?PR?_LEE_CLK?CLOCK

?PR?FORMATO_EEPROM?EEPROM                        -----    -----      -----    -----      0015H    0003H
  +--> ?PR?_WR_EEPROM?EEPROM

?PR?_CMD_LPR_SALIDA_WIEGAND?ACCESCAN             -----    -----      -----    -----      0015H    0022H
  +--> ?PR?DIR_BOARD?IO_SENSORES
  +--> ?PR?_BLOCK_READ_CLOCK_ASCII?CLOCK
  +--> ?PR?_MONITOR_CHR?ACCESCAN

?PR?_MONITOR_CHR?ACCESCAN                        -----    -----      -----    -----      0037H    0005H
  +--> ?PR?_TX_AUX?TIBBO

?PR?_GRABA_SERIE?EEPROM                          -----    -----      -----    -----      0015H    0005H
  +--> ?CO?EEPROM
  +--> ?PR?_DEBUG_TXT_TIBBO?TIBBO
  +--> ?PR?_WRITE_EEPROM_TICKET?EEPROM
  +--> ?PR?_WR_EEPROM?EEPROM

?PR?MSJ_LCD_INFORMATIVO?IO_SENSORES              -----    -----      -----    -----      0001H    0001H
  +--> ?PR?SEL_FUNCION?IO_SENSORES
  +--> ?PR?VALIDASENSOR_CERO?IO_SENSORES
  +--> ?CO?IO_SENSORES
  +--> ?PR?_DEBUG_TXT_TIBBO?TIBBO
  +--> ?PR?_DEBUG_CHR_TIBBO?TIBBO
  +--> ?PR?LOAD_AND_SEND_INFO_RELOJ?PTO_PARA...
  +--> ?PR?VALIDASENSOR?IO_SENSORES
  +--> ?PR?_DELAY_10MS?DELAY
  +--> ?PR?LOAD_AND_SEND_ID_COD?PTO_PARALELO

?PR?LOAD_AND_SEND_INFO_RELOJ?PTO_PARA...         -----    -----      -----    -----      0002H    000BH
  +--> ?PR?_BLOCK_READ_CLOCK?CLOCK
  +--> ?PR?_LEE_CLK?CLOCK
  +--> ?CO?PTO_PARALELO
  +--> ?PR?_DEBUG_TXT_TIBBO?TIBBO
  +--> ?PR?_DEBUGBUFFERMF?TIBBO
  +--> ?PR?DEBUG_DIVIDIR_TEXTO?TIBBO
  +--> ?PR?_SEND_PORT?PTO_PARALELO

?PR?LOAD_AND_SEND_ID_COD?PTO_PARALELO            -----    -----      -----    -----      0002H    0014H
  +--> ?PR?_RD_EEPROM?EEPROM
  +--> ?CO?PTO_PARALELO
  +--> ?PR?PRINTF?PRINTF
  +--> ?PR?_STRCAT?STRCAT
  +--> ?PR?_STRLEN?STRLEN
  +--> ?PR?_DEBUG_TXT_TIBBO?TIBBO
  +--> ?PR?_DEBUGBUFFERMF?TIBBO
  +--> ?PR?DEBUG_DIVIDIR_TEXTO?TIBBO
  +--> ?PR?_SEND_PORT?PTO_PARALELO



SYMBOL TABLE OF MODULE:  .\Objects\expedidor_v_01_raspberry (MAIN)

  VALUE           TYPE          NAME
BL51 BANKED LINKER/LOCATER V6.22.2.0                                                  06/11/2021  12:08:32  PAGE 25


  ----------------------------------

  -------         MODULE        MAIN
  C:0000H         SYMBOL        _ICE_DUMMY_
  D:0080H         PUBLIC        P0
  D:0090H         PUBLIC        P1
  C:BE90H         PUBLIC        timer0_int
  D:00B0H         PUBLIC        P3
  B:00A8H.7       PUBLIC        EA
  C:C2D1H         PUBLIC        off_Timer0_Interrup
  X:0171H         PUBLIC        ValTimeOutCom
  X:0172H         PUBLIC        Buffer_Rta_Lintech
  X:01A4H         PUBLIC        Timer_wait
  B:0021H.1       PUBLIC        pto_paraleo
  X:01A5H         PUBLIC        g_cContByteRx
  B:0080H.0       PUBLIC        rx_ip
  C:AD43H         PUBLIC        main
  X:01A6H         PUBLIC        Timer_tivo
  B:0080H.3       PUBLIC        Atascado_GP0_PIN_3
  C:B4ACH         PUBLIC        variable_inicio
  B:0090H.7       PUBLIC        lock
  I:0023H         PUBLIC        rbuf
  C:C2C7H         PUBLIC        on_Timer0_Interrup
  I:0055H         PUBLIC        tbuf
  B:0090H.1       PUBLIC        DataIn
  D:0089H         PUBLIC        TMOD
  X:01A8H         PUBLIC        USE_LPR
  X:01A9H         PUBLIC        Debug_Tibbo
  X:01AAH         PUBLIC        Raspberry
  X:01ABH         PUBLIC        SIN_COBRO
  X:01ADH         PUBLIC        Tipo_Vehiculo
  B:00B0H.3       PUBLIC        busy
  C:C228H         PUBLIC        ini_timer
  B:00A8H.1       PUBLIC        ET0
  B:0088H.5       PUBLIC        TF0
  D:008CH         PUBLIC        TH0
  X:01AEH         PUBLIC        ACK
  X:01AFH         PUBLIC        g_cEstadoComSoft
  D:008AH         PUBLIC        TL0
  B:0088H.4       PUBLIC        TR0
  C:C238H         PUBLIC        inicia_board
  X:01B0H         PUBLIC        T_GRACIA
  B:0080H.7       PUBLIC        sel_com
  X:01B2H         PUBLIC        STX_LINTECH
  C:C257H         PUBLIC        _getkey
  X:01B3H         PUBLIC        ETX
  C:B748H         PUBLIC        _EscribirCadenaSoft_buffer
  B:0021H.2       PUBLIC        buffer_ready
  C:BA24H         PUBLIC        _putchar
  B:0021H.3       PUBLIC        placa_ready
  -------         PROC          TIMER0_INT
  C:BE90H         LINE#         16
  C:BE96H         LINE#         19
  C:BE9CH         LINE#         20
  C:BEA1H         LINE#         21
  C:BEA1H         LINE#         22
  C:BEA7H         LINE#         23
BL51 BANKED LINKER/LOCATER V6.22.2.0                                                  06/11/2021  12:08:32  PAGE 26


  C:BEA7H         LINE#         25
  C:BEB5H         LINE#         26
  C:BEB7H         LINE#         28
  -------         ENDPROC       TIMER0_INT
  -------         PROC          INI_TIMER
  C:C228H         LINE#         31
  C:C228H         LINE#         32
  C:C228H         LINE#         34
  C:C230H         LINE#         36
  C:C233H         LINE#         37
  C:C235H         LINE#         38
  C:C237H         LINE#         40
  -------         ENDPROC       INI_TIMER
  -------         PROC          ON_TIMER0_INTERRUP
  C:C2C7H         LINE#         43
  C:C2C7H         LINE#         44
  C:C2C7H         LINE#         45
  C:C2C9H         LINE#         46
  C:C2CBH         LINE#         48
  -------         ENDPROC       ON_TIMER0_INTERRUP
  -------         PROC          OFF_TIMER0_INTERRUP
  C:C2D1H         LINE#         51
  C:C2D1H         LINE#         52
  C:C2D1H         LINE#         53
  C:C2D3H         LINE#         55
  -------         ENDPROC       OFF_TIMER0_INTERRUP
  -------         PROC          _GETKEY
  -------         DO            
  D:0006H         SYMBOL        k
  -------         ENDDO         
  C:C257H         LINE#         63
  C:C257H         LINE#         64
  C:C257H         LINE#         68
  C:C257H         LINE#         69
  C:C25AH         LINE#         70
  C:C25AH         LINE#         71
  C:C262H         LINE#         73
  C:C262H         LINE#         74
  -------         ENDPROC       _GETKEY
  -------         PROC          _PUTCHAR
  X:00A7H         SYMBOL        c
  -------         DO            
  X:00A8H         SYMBOL        i
  -------         ENDDO         
  C:BA24H         LINE#         78
  C:BA29H         LINE#         79
  C:BA29H         LINE#         82
  C:BA38H         LINE#         83
  C:BA38H         LINE#         84
  C:BA4EH         LINE#         85
  C:BA4EH         LINE#         87
  C:BA5CH         LINE#         88
  C:BA5CH         LINE#         90
  C:BA61H         LINE#         91
  -------         ENDPROC       _PUTCHAR
  -------         PROC          _ESCRIBIRCADENASOFT_BUFFER
  X:0027H         SYMBOL        buffer
BL51 BANKED LINKER/LOCATER V6.22.2.0                                                  06/11/2021  12:08:32  PAGE 27


  X:002AH         SYMBOL        tamano_cadena
  -------         DO            
  X:002BH         SYMBOL        i
  X:002CH         SYMBOL        d
  -------         ENDDO         
  C:B748H         LINE#         95
  C:B756H         LINE#         96
  C:B756H         LINE#         98
  C:B764H         LINE#         99
  C:B764H         LINE#         100
  C:B77BH         LINE#         101
  C:B785H         LINE#         102
  C:B78DH         LINE#         103
  -------         ENDPROC       _ESCRIBIRCADENASOFT_BUFFER
  -------         PROC          INICIA_BOARD
  C:C238H         LINE#         108
  C:C238H         LINE#         109
  C:C238H         LINE#         110
  C:C23BH         LINE#         111
  C:C23EH         LINE#         112
  C:C241H         LINE#         113
  C:C243H         LINE#         114
  C:C245H         LINE#         115
  C:C247H         LINE#         117
  -------         ENDPROC       INICIA_BOARD
  -------         PROC          VARIABLE_INICIO
  C:B4ACH         LINE#         122
  C:B4ACH         LINE#         123
  C:B4ACH         LINE#         126
  C:B4BDH         LINE#         127
  C:B4CEH         LINE#         128
  C:B4DCH         LINE#         129
  C:B4EAH         LINE#         130
  C:B4F8H         LINE#         133
  -------         ENDPROC       VARIABLE_INICIO
  -------         PROC          MAIN
  -------         DO            
  X:0148H         SYMBOL        buffer
  X:0170H         SYMBOL        Estado_Comunicacion_Secuencia_MF
  X:0000H         SYMBOL        Length_trama
  -------         ENDDO         
  C:AD43H         LINE#         141
  C:AD43H         LINE#         142
  C:AD43H         LINE#         149
  C:AD46H         LINE#         150
  C:AD49H         LINE#         151
  C:AD4CH         LINE#         152
  C:AD4FH         LINE#         153
  C:AD52H         LINE#         154
  C:AD54H         LINE#         156
  C:AD57H         LINE#         157
  C:AD5EH         LINE#         158
  C:AD61H         LINE#         160
  C:AD66H         LINE#         162
  C:AD69H         LINE#         164
  C:AD6CH         LINE#         165
  C:AD6CH         LINE#         166
BL51 BANKED LINKER/LOCATER V6.22.2.0                                                  06/11/2021  12:08:32  PAGE 28


  C:AD6FH         LINE#         167
  C:AD6FH         LINE#         170
  C:AD72H         LINE#         171
  C:AD78H         LINE#         172
  C:AD7EH         LINE#         174
  C:AD7EH         LINE#         175
  C:AD7EH         LINE#         178
  C:AD81H         LINE#         179
  C:AD81H         LINE#         180
  C:AD84H         LINE#         181
  C:AD84H         LINE#         185
  C:AD91H         LINE#         190
  C:AD97H         LINE#         191
  C:AD97H         LINE#         193
  C:ADA6H         LINE#         196
  C:ADAFH         LINE#         197
  C:ADBDH         LINE#         202
  C:ADBDH         LINE#         203
  C:ADC0H         LINE#         206
  -------         ENDPROC       MAIN
  -------         ENDMOD        MAIN

  -------         MODULE        ACCESCAN
  C:0000H         SYMBOL        _ICE_DUMMY_
  D:0080H         PUBLIC        P0
  D:0090H         PUBLIC        P1
  D:00B0H         PUBLIC        P3
  B:0080H.2       PUBLIC        led_err_imp
  C:B8E3H         PUBLIC        _Monitor_chr
  B:0080H.3       PUBLIC        Atascado_GP0_PIN_3
  B:0090H.7       PUBLIC        lock
  C:35C6H         PUBLIC        _Valida_Trama_Pto
  C:BD93H         PUBLIC        _Calculo_bcc
  C:8B3DH         PUBLIC        _Cmd_LPR_Salida_wiegand
  -------         PROC          _VALIDA_TRAMA_PTO
  X:0001H         SYMBOL        buffer
  X:0004H         SYMBOL        length_trama
  -------         DO            
  X:0218H         SYMBOL        cont
  X:0005H         SYMBOL        bcc
  X:0006H         SYMBOL        buff
  X:0011H         SYMBOL        buffer_port
  -------         ENDDO         
  C:35C6H         LINE#         113
  C:35D4H         LINE#         114
  C:35D4H         LINE#         117
  C:35D7H         LINE#         122
  C:361AH         LINE#         123
  C:361AH         LINE#         124
  C:3623H         LINE#         125
  C:3638H         LINE#         126
  C:3641H         LINE#         127
  C:3658H         LINE#         128
  C:3661H         LINE#         129
  C:3669H         LINE#         130
  C:3672H         LINE#         131
  C:368BH         LINE#         132
BL51 BANKED LINKER/LOCATER V6.22.2.0                                                  06/11/2021  12:08:32  PAGE 29


  C:368BH         LINE#         134
  C:369BH         LINE#         135
  C:369BH         LINE#         136
  C:36AEH         LINE#         138
  C:36B1H         LINE#         140
  C:36B1H         LINE#         143
  C:36B1H         LINE#         145
  C:36B1H         LINE#         147
  C:36B7H         LINE#         148
  C:36BBH         LINE#         149
  C:36BFH         LINE#         150
  C:36C2H         LINE#         151
  C:36CDH         LINE#         153
  C:36D6H         LINE#         154
  C:36DEH         LINE#         155
  C:36E6H         LINE#         156
  C:36EEH         LINE#         157
  C:36F7H         LINE#         158
  C:36F7H         LINE#         161
  C:36F7H         LINE#         164
  C:3709H         LINE#         165
  C:3709H         LINE#         166
  C:370BH         LINE#         167
  C:370EH         LINE#         169
  C:3720H         LINE#         170
  C:3720H         LINE#         171
  C:3722H         LINE#         172
  C:3725H         LINE#         174
  C:3737H         LINE#         175
  C:3737H         LINE#         176
  C:3739H         LINE#         177
  C:373CH         LINE#         179
  C:3756H         LINE#         180
  C:3756H         LINE#         181
  C:3758H         LINE#         182
  C:375BH         LINE#         184
  C:3775H         LINE#         185
  C:3775H         LINE#         186
  C:3777H         LINE#         187
  C:377AH         LINE#         189
  C:378CH         LINE#         190
  C:378CH         LINE#         191
  C:3792H         LINE#         192
  C:379FH         LINE#         193
  C:379FH         LINE#         194
  C:37A4H         LINE#         195
  C:37A6H         LINE#         196
  C:37ABH         LINE#         197
  C:37ADH         LINE#         198
  C:37AFH         LINE#         199
  C:37B3H         LINE#         200
  C:37B3H         LINE#         201
  C:37B4H         LINE#         203
  C:37CCH         LINE#         204
  C:37CCH         LINE#         206
  C:37D9H         LINE#         207
  C:37D9H         LINE#         208
BL51 BANKED LINKER/LOCATER V6.22.2.0                                                  06/11/2021  12:08:32  PAGE 30


  C:37DBH         LINE#         209
  C:37DDH         LINE#         210
  C:37DFH         LINE#         211
  C:37E1H         LINE#         212
  C:37E1H         LINE#         214
  C:3807H         LINE#         215
  C:3807H         LINE#         216
  C:380BH         LINE#         217
  C:3810H         LINE#         218
  C:3819H         LINE#         219
  C:381EH         LINE#         220
  C:381EH         LINE#         223
  C:381FH         LINE#         225
  C:3839H         LINE#         226
  C:3839H         LINE#         227
  C:383BH         LINE#         228
  C:383EH         LINE#         230
  C:386EH         LINE#         231
  C:386EH         LINE#         232
  C:3871H         LINE#         233
  C:3871H         LINE#         235
  C:388BH         LINE#         236
  C:388BH         LINE#         237
  C:388DH         LINE#         238
  C:3890H         LINE#         240
  C:38AAH         LINE#         241
  C:38AAH         LINE#         242
  C:38ACH         LINE#         243
  C:38AEH         LINE#         245
  C:38C8H         LINE#         246
  C:38C8H         LINE#         247
  C:38CAH         LINE#         248
  C:38CCH         LINE#         251
  C:38E6H         LINE#         252
  C:38E6H         LINE#         253
  C:38E8H         LINE#         254
  C:38EAH         LINE#         258
  C:3904H         LINE#         259
  C:3904H         LINE#         260
  C:3906H         LINE#         261
  C:3908H         LINE#         264
  C:3922H         LINE#         265
  C:3922H         LINE#         266
  C:3927H         LINE#         267
  C:3927H         LINE#         270
  C:3958H         LINE#         271
  C:3958H         LINE#         272
  C:3960H         LINE#         273
  C:3969H         LINE#         274
  C:396CH         LINE#         277
  C:399DH         LINE#         278
  C:399DH         LINE#         280
  C:39A5H         LINE#         281
  C:39AEH         LINE#         282
  C:39B1H         LINE#         285
  C:39F1H         LINE#         286
  C:39F1H         LINE#         288
BL51 BANKED LINKER/LOCATER V6.22.2.0                                                  06/11/2021  12:08:32  PAGE 31


  C:3A06H         LINE#         289
  C:3A0CH         LINE#         290
  C:3A36H         LINE#         293
  C:3A3EH         LINE#         294
  C:3A3EH         LINE#         297
  C:3A45H         LINE#         298
  C:3A45H         LINE#         299
  C:3A4AH         LINE#         300
  C:3A4AH         LINE#         301
  C:3A4CH         LINE#         303
  C:3A4CH         LINE#         304
  C:3A55H         LINE#         305
  C:3A5DH         LINE#         306
  C:3A5DH         LINE#         310
  C:3A5FH         LINE#         313
  C:3A5FH         LINE#         321
  C:3A67H         LINE#         325
  C:3A67H         LINE#         326
  C:3A69H         LINE#         328
  C:3AA1H         LINE#         329
  C:3AA1H         LINE#         330
  C:3AA9H         LINE#         331
  C:3AB5H         LINE#         332
  C:3AB5H         LINE#         334
  C:3AE2H         LINE#         335
  C:3AE2H         LINE#         336
  C:3AF1H         LINE#         338
  C:3AF1H         LINE#         340
  -------         ENDPROC       _VALIDA_TRAMA_PTO
  -------         PROC          _MONITOR_CHR
  X:0037H         SYMBOL        str
  X:003AH         SYMBOL        num_char
  -------         DO            
  X:003BH         SYMBOL        j
  -------         ENDDO         
  C:B8E3H         LINE#         495
  C:B8F1H         LINE#         496
  C:B8F1H         LINE#         498
  C:B8FFH         LINE#         499
  C:B8FFH         LINE#         500
  C:B911H         LINE#         501
  C:B91BH         LINE#         502
  C:B923H         LINE#         503
  -------         ENDPROC       _MONITOR_CHR
  -------         PROC          _CMD_LPR_SALIDA_WIEGAND
  X:0015H         SYMBOL        buffer
  -------         DO            
  X:0018H         SYMBOL        Buffer_Lpr
  X:0036H         SYMBOL        j
  -------         ENDDO         
  C:8B3DH         LINE#         508
  C:8B48H         LINE#         509
  C:8B48H         LINE#         511
  C:8B4EH         LINE#         512
  C:8B53H         LINE#         513
  C:8B5BH         LINE#         514
  C:8B5FH         LINE#         515
BL51 BANKED LINKER/LOCATER V6.22.2.0                                                  06/11/2021  12:08:32  PAGE 32


  C:8B68H         LINE#         516
  C:8B68H         LINE#         517
  C:8B79H         LINE#         518
  C:8B7BH         LINE#         520
  C:8B7BH         LINE#         521
  C:8B8CH         LINE#         522
  C:8B8CH         LINE#         526
  C:8BA3H         LINE#         527
  C:8BA3H         LINE#         528
  C:8BB2H         LINE#         529
  C:8BBCH         LINE#         531
  C:8BC4H         LINE#         532
  C:8BD8H         LINE#         534
  C:8BE8H         LINE#         535
  C:8BF9H         LINE#         536
  C:8C06H         LINE#         540
  -------         ENDPROC       _CMD_LPR_SALIDA_WIEGAND
  -------         PROC          _CALCULO_BCC
  X:0015H         SYMBOL        buffer
  X:0018H         SYMBOL        leng_trama
  -------         DO            
  D:0007H         SYMBOL        bcc
  D:0006H         SYMBOL        j
  -------         ENDDO         
  C:BD93H         LINE#         542
  C:BDA1H         LINE#         543
  C:BDA1H         LINE#         544
  C:BDA3H         LINE#         547
  C:BDAEH         LINE#         548
  C:BDAEH         LINE#         549
  C:BDC3H         LINE#         550
  C:BDC6H         LINE#         551
  C:BDC6H         LINE#         552
  -------         ENDPROC       _CALCULO_BCC
  -------         ENDMOD        ACCESCAN

  -------         MODULE        CLOCK
  C:0000H         SYMBOL        _ICE_DUMMY_
  C:B958H         PUBLIC        _two_one
  D:0090H         PUBLIC        P1
  C:78EEH         PUBLIC        _validar_clk
  C:BEE8H         PUBLIC        _wr_clk
  C:8F47H         PUBLIC        _check_fechaOut
  C:60E0H         PUBLIC        _Block_read_clock_ascii_rasberry
  B:00D0H.7       PUBLIC        CY
  C:0003H         PUBLIC        p_ck
  C:A31EH         PUBLIC        _hex_ascii
  C:AF32H         PUBLIC        _hora_entrada_vehiculo
  X:0219H         PUBLIC        data_clk
  C:C289H         PUBLIC        cond_ini_clock
  C:9010H         PUBLIC        _Block_read_Clock
  B:0090H.4       PUBLIC        sck
  C:9C57H         PUBLIC        _Block_read_Clock_Hex
  C:67B2H         PUBLIC        _Block_read_clock_ascii
  C:BABCH         PUBLIC        _hex_bcd
  C:C0FFH         PUBLIC        _bcd_hex
  C:B290H         PUBLIC        _ByteHex_Decimal
BL51 BANKED LINKER/LOCATER V6.22.2.0                                                  06/11/2021  12:08:32  PAGE 33


  C:A44AH         PUBLIC        _lee_clk
  B:0090H.5       PUBLIC        io
  C:9E46H         PUBLIC        _Block_write_clock_ascii
  B:0090H.6       PUBLIC        rst
  C:B9E5H         PUBLIC        _eb_clk
  C:47CEH         PUBLIC        _Two_ByteHex_Decimal
  -------         PROC          P_CK
  C:0003H         LINE#         69
  C:0003H         LINE#         70
  C:0003H         LINE#         71
  C:0005H         LINE#         72
  C:0008H         LINE#         73
  C:000AH         LINE#         74
  -------         ENDPROC       P_CK
  -------         PROC          _EB_CLK
  X:00B4H         SYMBOL        dir_clk
  -------         DO            
  X:00B5H         SYMBOL        nbits
  -------         ENDDO         
  C:B9E5H         LINE#         76
  C:B9EAH         LINE#         78
  C:B9EFH         LINE#         79
  C:B9EFH         LINE#         80
  C:B9F8H         LINE#         81
  C:B9FBH         LINE#         82
  C:B9FBH         LINE#         83
  C:B9FDH         LINE#         84
  C:B9FFH         LINE#         86
  C:B9FFH         LINE#         87
  C:BA01H         LINE#         88
  C:BA01H         LINE#         89
  C:BA04H         LINE#         90
  C:BA23H         LINE#         91
  -------         ENDPROC       _EB_CLK
  C:A440H         SYMBOL        L?0084
  -------         PROC          L?0083
  -------         ENDPROC       L?0083
  C:A440H         SYMBOL        L?0084
  -------         PROC          _LEE_CLK
  X:00B1H         SYMBOL        dir_clk
  -------         DO            
  X:00B2H         SYMBOL        nbits
  -------         ENDDO         
  C:A44AH         LINE#         93
  C:A44FH         LINE#         95
  C:A451H         LINE#         96
  C:A458H         LINE#         97
  C:A460H         LINE#         98
  C:A479H         LINE#         99
  C:A479H         LINE#         100
  C:A47CH         LINE#         101
  C:A47CH         LINE#         102
  C:A483H         LINE#         103
  C:A48DH         LINE#         104
  C:A492H         LINE#         105
  C:A492H         LINE#         106
  C:A492H         LINE#         107
BL51 BANKED LINKER/LOCATER V6.22.2.0                                                  06/11/2021  12:08:32  PAGE 34


  C:A495H         LINE#         108
  C:A495H         LINE#         109
  C:A49CH         LINE#         110
  C:A4ADH         LINE#         111
  C:A4ADH         LINE#         112
  C:A4B5H         LINE#         113
  C:A4B5H         LINE#         114
  C:A4B5H         LINE#         115
  C:A4B8H         LINE#         116
  C:A4C8H         LINE#         117
  C:A4CAH         LINE#         118
  C:A4CFH         LINE#         119
  -------         ENDPROC       _LEE_CLK
  -------         PROC          _WR_CLK
  X:0018H         SYMBOL        dir_clk
  X:0019H         SYMBOL        byte
  C:BEE8H         LINE#         121
  C:BEF0H         LINE#         122
  C:BEF2H         LINE#         123
  C:BEF9H         LINE#         124
  C:BF01H         LINE#         125
  C:BF0AH         LINE#         126
  C:BF0DH         LINE#         127
  C:BF0FH         LINE#         129
  -------         ENDPROC       _WR_CLK
  C:B924H         SYMBOL        L?0079
  C:B942H         SYMBOL        L?0080
  -------         PROC          L?0078
  -------         ENDPROC       L?0078
  C:B924H         SYMBOL        L?0079
  C:B942H         SYMBOL        L?0080
  -------         PROC          _TWO_ONE
  D:0007H         SYMBOL        byte_h
  D:0005H         SYMBOL        byte_l
  -------         DO            
  D:0007H         SYMBOL        byte_out
  -------         ENDDO         
  C:B958H         LINE#         131
  C:B958H         LINE#         132
  C:B958H         LINE#         134
  C:B95BH         LINE#         135
  C:B95FH         LINE#         136
  C:B962H         LINE#         137
  C:B964H         LINE#         138
  C:B964H         LINE#         139
  -------         ENDPROC       _TWO_ONE
  -------         PROC          _VALIDAR_CLK
  D:0001H         SYMBOL        datos_clock
  -------         DO            
  D:0007H         SYMBOL        validador
  -------         ENDDO         
  C:78EEH         LINE#         143
  C:78EEH         LINE#         144
  C:78EEH         LINE#         145
  C:78F0H         LINE#         148
  C:7905H         LINE#         149
  C:7905H         LINE#         151
BL51 BANKED LINKER/LOCATER V6.22.2.0                                                  06/11/2021  12:08:32  PAGE 35


  C:791DH         LINE#         152
  C:791DH         LINE#         154
  C:7935H         LINE#         155
  C:7935H         LINE#         156
  C:794DH         LINE#         157
  C:794DH         LINE#         158
  C:7965H         LINE#         159
  C:7965H         LINE#         160
  C:797AH         LINE#         161
  C:797AH         LINE#         162
  C:798CH         LINE#         163
  C:798CH         LINE#         164
  C:799EH         LINE#         165
  C:799EH         LINE#         166
  C:79B0H         LINE#         167
  C:79B0H         LINE#         168
  C:79C2H         LINE#         169
  C:79C2H         LINE#         170
  C:79D4H         LINE#         171
  C:79D4H         LINE#         172
  C:79E4H         LINE#         173
  C:79E4H         LINE#         174
  C:79E4H         LINE#         175
  C:79E4H         LINE#         176
  C:79E5H         LINE#         178
  C:79E5H         LINE#         179
  C:79E7H         LINE#         180
  C:79E7H         LINE#         181
  C:79E8H         LINE#         183
  C:79E8H         LINE#         184
  C:79EAH         LINE#         186
  C:79EAH         LINE#         187
  C:79EBH         LINE#         189
  C:79EBH         LINE#         190
  C:79EDH         LINE#         192
  C:79EDH         LINE#         194
  C:79EEH         LINE#         196
  C:79EEH         LINE#         197
  C:79F0H         LINE#         199
  C:79F0H         LINE#         200
  C:79F1H         LINE#         202
  C:79F1H         LINE#         203
  C:79F3H         LINE#         205
  C:79F3H         LINE#         206
  C:79F4H         LINE#         208
  C:79F4H         LINE#         209
  C:79F6H         LINE#         211
  C:79F6H         LINE#         212
  C:79F7H         LINE#         214
  C:79F7H         LINE#         215
  C:79F9H         LINE#         217
  C:79F9H         LINE#         218
  C:79F9H         LINE#         220
  C:79FAH         LINE#         222
  C:79FAH         LINE#         223
  C:79FCH         LINE#         225
  C:79FCH         LINE#         227
BL51 BANKED LINKER/LOCATER V6.22.2.0                                                  06/11/2021  12:08:32  PAGE 36


  C:79FDH         LINE#         230
  C:79FDH         LINE#         231
  C:79FFH         LINE#         233
  C:79FFH         LINE#         235
  C:7A00H         LINE#         238
  C:7A00H         LINE#         239
  C:7A02H         LINE#         241
  C:7A02H         LINE#         243
  C:7A02H         LINE#         245
  -------         ENDPROC       _VALIDAR_CLK
  -------         PROC          _BLOCK_WRITE_CLOCK_ASCII
  X:0015H         SYMBOL        datos_clock
  -------         DO            
  D:0007H         SYMBOL        temp
  -------         ENDDO         
  C:9E46H         LINE#         251
  C:9E51H         LINE#         253
  C:9E51H         LINE#         256
  C:9E5AH         LINE#         257
  C:9E63H         LINE#         259
  C:9E6DH         LINE#         260
  C:9E6DH         LINE#         261
  C:9E6DH         LINE#         262
  C:9E6DH         LINE#         264
  C:9E77H         LINE#         265
  C:9E81H         LINE#         266
  C:9E8BH         LINE#         267
  C:9E8BH         LINE#         268
  C:9E8BH         LINE#         269
  C:9E8BH         LINE#         271
  C:9E95H         LINE#         272
  C:9E95H         LINE#         273
  C:9E95H         LINE#         274
  C:9E95H         LINE#         276
  C:9E9FH         LINE#         277
  C:9E9FH         LINE#         278
  C:9E9FH         LINE#         279
  C:9E9FH         LINE#         281
  C:9EA9H         LINE#         282
  C:9EA9H         LINE#         283
  C:9EA9H         LINE#         284
  C:9EA9H         LINE#         286
  C:9EB3H         LINE#         287
  C:9EBDH         LINE#         288
  C:9EC7H         LINE#         289
  C:9ED1H         LINE#         291
  C:9EE1H         LINE#         292
  -------         ENDPROC       _BLOCK_WRITE_CLOCK_ASCII
  -------         PROC          _BCD_HEX
  D:0007H         SYMBOL        l_data
  -------         DO            
  D:0006H         SYMBOL        temp
  D:0005H         SYMBOL        j
  -------         ENDDO         
  C:C0FFH         LINE#         298
  C:C0FFH         LINE#         299
  C:C0FFH         LINE#         301
BL51 BANKED LINKER/LOCATER V6.22.2.0                                                  06/11/2021  12:08:32  PAGE 37


  C:C101H         LINE#         302
  C:C105H         LINE#         303
  C:C108H         LINE#         304
  C:C10AH         LINE#         305
  C:C10AH         LINE#         306
  C:C10EH         LINE#         307
  C:C115H         LINE#         308
  C:C115H         LINE#         309
  C:C119H         LINE#         310
  C:C11CH         LINE#         311
  C:C11CH         LINE#         312
  C:C11CH         LINE#         313
  -------         ENDPROC       _BCD_HEX
  C:BAADH         SYMBOL        L?0082
  -------         PROC          L?0081
  -------         ENDPROC       L?0081
  C:BAADH         SYMBOL        L?0082
  -------         PROC          _HEX_BCD
  D:0007H         SYMBOL        byte
  -------         DO            
  D:0006H         SYMBOL        nibble_h
  D:0005H         SYMBOL        nibble_l
  D:0004H         SYMBOL        k
  D:0007H         SYMBOL        byte_out
  -------         ENDDO         
  C:BABCH         LINE#         317
  C:BABCH         LINE#         318
  C:BABCH         LINE#         323
  C:BABEH         LINE#         324
  C:BABFH         LINE#         326
  C:BAC5H         LINE#         327
  C:BAC5H         LINE#         328
  C:BAC6H         LINE#         329
  C:BACBH         LINE#         330
  C:BACBH         LINE#         331
  C:BACCH         LINE#         332
  C:BACDH         LINE#         333
  C:BACDH         LINE#         334
  C:BAD0H         LINE#         335
  C:BAD4H         LINE#         336
  C:BAD7H         LINE#         337
  C:BADAH         LINE#         338
  C:BADCH         LINE#         339
  C:BADCH         LINE#         341
  -------         ENDPROC       _HEX_BCD
  -------         PROC          _HEX_ASCII
  X:005DH         SYMBOL        datos
  X:0060H         SYMBOL        fecha_asii
  -------         DO            
  D:0007H         SYMBOL        dato
  -------         ENDDO         
  C:A31EH         LINE#         342
  C:A329H         LINE#         343
  C:A329H         LINE#         347
  C:A32CH         LINE#         348
  C:A344H         LINE#         349
  C:A359H         LINE#         350
BL51 BANKED LINKER/LOCATER V6.22.2.0                                                  06/11/2021  12:08:32  PAGE 38


  C:A359H         LINE#         352
  C:A35CH         LINE#         353
  C:A377H         LINE#         354
  C:A37FH         LINE#         355
  C:A37FH         LINE#         357
  C:A382H         LINE#         358
  C:A39DH         LINE#         359
  C:A3A8H         LINE#         361
  -------         ENDPROC       _HEX_ASCII
  -------         PROC          _BYTEHEX_DECIMAL
  D:0001H         SYMBOL        buffer
  D:0005H         SYMBOL        valorhex
  -------         DO            
  X:0015H         SYMBOL        numero
  D:0007H         SYMBOL        centena
  D:0006H         SYMBOL        decena
  -------         ENDDO         
  C:B290H         LINE#         369
  C:B290H         LINE#         370
  C:B290H         LINE#         373
  C:B292H         LINE#         374
  C:B293H         LINE#         375
  C:B298H         LINE#         377
  C:B2A5H         LINE#         378
  C:B2A5H         LINE#         379
  C:B2A9H         LINE#         380
  C:B2AAH         LINE#         381
  C:B2ACH         LINE#         382
  C:B2B2H         LINE#         383
  C:B2B9H         LINE#         384
  C:B2C6H         LINE#         385
  C:B2C6H         LINE#         386
  C:B2CAH         LINE#         387
  C:B2CBH         LINE#         388
  C:B2CDH         LINE#         389
  C:B2D3H         LINE#         390
  C:B2DAH         LINE#         391
  C:B2E3H         LINE#         392
  C:B2EAH         LINE#         393
  -------         ENDPROC       _BYTEHEX_DECIMAL
  -------         PROC          _TWO_BYTEHEX_DECIMAL
  X:0015H         SYMBOL        buffer
  X:0018H         SYMBOL        id_h
  X:0019H         SYMBOL        id_l
  -------         DO            
  X:001AH         SYMBOL        valor
  D:0006H         SYMBOL        numero
  X:001CH         SYMBOL        temp
  X:001DH         SYMBOL        dmil
  X:001EH         SYMBOL        mil
  X:001FH         SYMBOL        centena
  X:0020H         SYMBOL        decena
  -------         ENDDO         
  C:47CEH         LINE#         400
  C:47DCH         LINE#         401
  C:47DCH         LINE#         405
  C:47E3H         LINE#         406
BL51 BANKED LINKER/LOCATER V6.22.2.0                                                  06/11/2021  12:08:32  PAGE 39


  C:47E7H         LINE#         407
  C:47E9H         LINE#         408
  C:47EBH         LINE#         409
  C:47EDH         LINE#         412
  C:47F2H         LINE#         413
  C:47F5H         LINE#         414
  C:47FBH         LINE#         416
  C:4856H         LINE#         417
  C:485EH         LINE#         418
  C:4861H         LINE#         419
  C:48BCH         LINE#         421
  C:48C4H         LINE#         422
  C:48C7H         LINE#         423
  C:48CDH         LINE#         424
  C:4928H         LINE#         425
  C:4930H         LINE#         426
  C:4933H         LINE#         427
  C:498EH         LINE#         428
  C:498EH         LINE#         430
  C:4997H         LINE#         431
  C:4997H         LINE#         432
  C:499FH         LINE#         433
  C:49A5H         LINE#         434
  C:49A7H         LINE#         435
  C:49BDH         LINE#         436
  C:49C7H         LINE#         437
  C:49D0H         LINE#         438
  C:49D0H         LINE#         439
  C:49D8H         LINE#         440
  C:49DEH         LINE#         441
  C:49E0H         LINE#         442
  C:49F6H         LINE#         443
  C:4A00H         LINE#         444
  C:4A09H         LINE#         445
  C:4A09H         LINE#         446
  C:4A11H         LINE#         447
  C:4A17H         LINE#         448
  C:4A19H         LINE#         449
  C:4A2FH         LINE#         450
  C:4A39H         LINE#         451
  C:4A42H         LINE#         452
  C:4A42H         LINE#         453
  C:4A4AH         LINE#         454
  C:4A50H         LINE#         455
  C:4A52H         LINE#         456
  C:4A68H         LINE#         457
  C:4A72H         LINE#         458
  C:4A85H         LINE#         459
  C:4A8FH         LINE#         460
  -------         ENDPROC       _TWO_BYTEHEX_DECIMAL
  -------         PROC          _BLOCK_READ_CLOCK_ASCII
  X:0051H         SYMBOL        datos_clock
  -------         DO            
  D:0007H         SYMBOL        dato
  -------         ENDDO         
  C:67B2H         LINE#         466
  C:67B5H         LINE#         467
BL51 BANKED LINKER/LOCATER V6.22.2.0                                                  06/11/2021  12:08:32  PAGE 40


  C:67B5H         LINE#         473
  C:67B8H         LINE#         474
  C:67D0H         LINE#         475
  C:67DAH         LINE#         476
  C:67EFH         LINE#         477
  C:67F9H         LINE#         480
  C:67FEH         LINE#         481
  C:6816H         LINE#         482
  C:6820H         LINE#         483
  C:6835H         LINE#         484
  C:683FH         LINE#         487
  C:6844H         LINE#         488
  C:685CH         LINE#         489
  C:6866H         LINE#         490
  C:687BH         LINE#         491
  C:6885H         LINE#         495
  C:688AH         LINE#         496
  C:68A2H         LINE#         497
  C:68ACH         LINE#         498
  C:68C1H         LINE#         499
  C:68CBH         LINE#         502
  C:68D0H         LINE#         503
  C:68E8H         LINE#         504
  C:68F2H         LINE#         505
  C:6907H         LINE#         506
  C:6911H         LINE#         507
  -------         ENDPROC       _BLOCK_READ_CLOCK_ASCII
  -------         PROC          _BLOCK_READ_CLOCK_ASCII_RASBERRY
  X:0022H         SYMBOL        datos_clock
  -------         DO            
  D:0007H         SYMBOL        dato
  -------         ENDDO         
  C:60E0H         LINE#         510
  C:60EBH         LINE#         511
  C:60EBH         LINE#         516
  C:60F0H         LINE#         517
  C:6108H         LINE#         518
  C:6112H         LINE#         519
  C:6127H         LINE#         520
  C:6131H         LINE#         523
  C:6136H         LINE#         524
  C:614EH         LINE#         525
  C:6158H         LINE#         526
  C:616DH         LINE#         527
  C:6177H         LINE#         531
  C:617CH         LINE#         532
  C:6194H         LINE#         533
  C:619EH         LINE#         534
  C:61B3H         LINE#         535
  C:61BDH         LINE#         540
  C:61C2H         LINE#         541
  C:61DAH         LINE#         542
  C:61E4H         LINE#         543
  C:61F9H         LINE#         544
  C:6203H         LINE#         547
  C:6208H         LINE#         548
  C:6220H         LINE#         549
BL51 BANKED LINKER/LOCATER V6.22.2.0                                                  06/11/2021  12:08:32  PAGE 41


  C:622AH         LINE#         550
  C:623FH         LINE#         551
  C:6249H         LINE#         552
  C:6259H         LINE#         553
  C:6263H         LINE#         556
  C:6268H         LINE#         557
  C:6280H         LINE#         558
  C:628AH         LINE#         559
  C:629FH         LINE#         561
  C:62A9H         LINE#         562
  -------         ENDPROC       _BLOCK_READ_CLOCK_ASCII_RASBERRY
  -------         PROC          _BLOCK_READ_CLOCK_HEX
  X:00AEH         SYMBOL        datos_clock
  C:9C57H         LINE#         566
  C:9C5AH         LINE#         567
  C:9C5AH         LINE#         570
  C:9C6FH         LINE#         571
  C:9C79H         LINE#         573
  C:9C90H         LINE#         574
  C:9C9AH         LINE#         576
  C:9CB1H         LINE#         577
  C:9CBBH         LINE#         579
  C:9CD2H         LINE#         580
  C:9CDCH         LINE#         582
  C:9CF3H         LINE#         583
  -------         ENDPROC       _BLOCK_READ_CLOCK_HEX
  -------         PROC          _HORA_ENTRADA_VEHICULO
  X:0005H         SYMBOL        Atributos_Expedidor
  C:AF32H         LINE#         586
  C:AF35H         LINE#         587
  C:AF35H         LINE#         589
  C:AF4AH         LINE#         590
  C:AF61H         LINE#         591
  C:AF78H         LINE#         592
  C:AF8FH         LINE#         593
  -------         ENDPROC       _HORA_ENTRADA_VEHICULO
  -------         PROC          _BLOCK_READ_CLOCK
  X:0022H         SYMBOL        datos_clock
  C:9010H         LINE#         599
  C:9013H         LINE#         600
  C:9013H         LINE#         602
  C:9025H         LINE#         603
  C:902FH         LINE#         605
  C:9043H         LINE#         606
  C:904DH         LINE#         608
  C:9061H         LINE#         609
  C:906BH         LINE#         611
  C:907FH         LINE#         612
  C:9089H         LINE#         614
  C:909DH         LINE#         615
  C:90A7H         LINE#         617
  C:90BBH         LINE#         618
  C:90C5H         LINE#         619
  -------         ENDPROC       _BLOCK_READ_CLOCK
  -------         PROC          COND_INI_CLOCK
  C:C289H         LINE#         622
  C:C289H         LINE#         623
BL51 BANKED LINKER/LOCATER V6.22.2.0                                                  06/11/2021  12:08:32  PAGE 42


  C:C289H         LINE#         624
  C:C28BH         LINE#         625
  C:C28DH         LINE#         626
  C:C28FH         LINE#         627
  -------         ENDPROC       COND_INI_CLOCK
  -------         PROC          _CHECK_FECHAOUT
  X:009CH         SYMBOL        buffer
  -------         DO            
  X:009FH         SYMBOL        fecha_inicio
  X:00A3H         SYMBOL        fecha_fin
  X:00A7H         SYMBOL        datos_clk
  X:00ADH         SYMBOL        temp
  -------         ENDDO         
  C:8F47H         LINE#         637
  C:8F52H         LINE#         638
  C:8F52H         LINE#         644
  C:8F5BH         LINE#         645
  C:8F8AH         LINE#         646
  C:8FDDH         LINE#         649
  C:8FFDH         LINE#         650
  C:8FFDH         LINE#         651
  C:9003H         LINE#         652
  C:9005H         LINE#         654
  C:9005H         LINE#         655
  C:900AH         LINE#         656
  C:900AH         LINE#         660
  C:900FH         LINE#         661
  -------         ENDPROC       _CHECK_FECHAOUT
  -------         ENDMOD        CLOCK

  -------         MODULE        DELAY
  C:0000H         SYMBOL        _ICE_DUMMY_
  C:BC45H         PUBLIC        _Delay_10ms
  C:C1BCH         PUBLIC        _Delay_20us
  C:C11DH         PUBLIC        _Delay_1ms
  C:C2D4H         PUBLIC        Delay
  -------         PROC          _DELAY_20US
  D:0006H         SYMBOL        cntd_us
  -------         DO            
  D:0004H         SYMBOL        i
  -------         ENDDO         
  C:C1BCH         LINE#         20
  C:C1BCH         LINE#         21
  C:C1BCH         LINE#         24
  C:C1C6H         LINE#         26
  C:C1CDH         LINE#         27
  -------         ENDPROC       _DELAY_20US
  -------         PROC          _DELAY_1MS
  D:0002H         SYMBOL        cntd_ms
  -------         DO            
  D:0082H         SYMBOL        i
  -------         ENDDO         
  C:C11DH         LINE#         38
  C:C121H         LINE#         39
  C:C121H         LINE#         41
  C:C137H         LINE#         42
  -------         ENDPROC       _DELAY_1MS
BL51 BANKED LINKER/LOCATER V6.22.2.0                                                  06/11/2021  12:08:32  PAGE 43


  -------         PROC          _DELAY_10MS
  X:001CH         SYMBOL        cntd_10ms
  -------         DO            
  X:001EH         SYMBOL        i
  -------         ENDDO         
  C:BC45H         LINE#         54
  C:BC4DH         LINE#         55
  C:BC4DH         LINE#         57
  C:BC7EH         LINE#         58
  -------         ENDPROC       _DELAY_10MS
  -------         PROC          DELAY
  C:C2D4H         LINE#         60
  C:C2D4H         LINE#         62
  -------         ENDPROC       DELAY
  -------         ENDMOD        DELAY

  -------         MODULE        EEPROM
  C:0000H         SYMBOL        _ICE_DUMMY_
  D:0090H         PUBLIC        P1
  C:84FEH         PUBLIC        _Write_EEprom_Ticket
  C:B017H         PUBLIC        _EscribirMemoria
  X:020DH         PUBLIC        l_chr
  C:C084H         PUBLIC        ackd
  B:0021H.6       PUBLIC        memory_flag
  B:00D0H.7       PUBLIC        CY
  C:C2C1H         PUBLIC        p_me
  C:C1D6H         PUBLIC        start
  B:0090H.2       PUBLIC        sda
  C:C0A4H         PUBLIC        ack_lect
  B:0090H.3       PUBLIC        scl
  C:BAE1H         PUBLIC        _rd_eeprom
  C:C263H         PUBLIC        stop
  C:BCF1H         PUBLIC        Formato_eeprom
  X:020EH         PUBLIC        l_data_eeprom
  C:B419H         PUBLIC        _wr_eeprom
  C:B1C8H         PUBLIC        _LeerMemoria
  C:BDC7H         PUBLIC        Incremente_Ticket
  X:020FH         PUBLIC        byte_rd
  C:8E7DH         PUBLIC        Read_EEprom_Ticket
  C:C01CH         PUBLIC        _e_d_m
  C:8CE6H         PUBLIC        _graba_serie
  C:B546H         PUBLIC        Lee_No_Ticket
  C:B4F9H         PUBLIC        l_d_m
  -------         PROC          L?0062
  -------         ENDPROC       L?0062
  -------         PROC          ACKD
  -------         DO            
  D:0006H         SYMBOL        i
  -------         ENDDO         
  C:C084H         LINE#         37
  C:C084H         LINE#         38
  C:C084H         LINE#         40
  C:C086H         LINE#         41
  C:C088H         LINE#         42
  C:C08AH         LINE#         43
  C:C08DH         LINE#         44
  C:C08DH         LINE#         45
BL51 BANKED LINKER/LOCATER V6.22.2.0                                                  06/11/2021  12:08:32  PAGE 44


  C:C090H         LINE#         46
  C:C090H         LINE#         47
  C:C092H         LINE#         48
  C:C094H         LINE#         50
  C:C095H         LINE#         51
  C:C095H         LINE#         52
  C:C0A0H         LINE#         54
  C:C0A0H         LINE#         55
  C:C0A0H         LINE#         57
  C:C0A0H         LINE#         58
  -------         ENDPROC       ACKD
  -------         PROC          L?0066
  -------         ENDPROC       L?0066
  -------         PROC          ACK_LECT
  -------         DO            
  D:0006H         SYMBOL        i
  -------         ENDDO         
  C:C0A4H         LINE#         61
  C:C0A4H         LINE#         62
  C:C0A4H         LINE#         64
  C:C0A6H         LINE#         65
  C:C0A8H         LINE#         66
  C:C0AAH         LINE#         67
  C:C0ADH         LINE#         68
  C:C0ADH         LINE#         69
  C:C0B0H         LINE#         70
  C:C0B0H         LINE#         71
  C:C0B2H         LINE#         72
  C:C0B4H         LINE#         73
  C:C0B5H         LINE#         74
  C:C0B5H         LINE#         75
  C:C0C0H         LINE#         76
  -------         ENDPROC       ACK_LECT
  -------         PROC          P_ME
  C:C2C1H         LINE#         78
  C:C2C1H         LINE#         79
  C:C2C1H         LINE#         80
  C:C2C3H         LINE#         81
  C:C2C4H         LINE#         82
  C:C2C6H         LINE#         83
  -------         ENDPROC       P_ME
  -------         PROC          _E_D_M
  D:0007H         SYMBOL        a_serial_eeprom
  -------         DO            
  D:0006H         SYMBOL        nbits
  -------         ENDDO         
  C:C01CH         LINE#         85
  C:C01CH         LINE#         86
  C:C01CH         LINE#         88
  C:C028H         LINE#         89
  C:C028H         LINE#         90
  C:C02CH         LINE#         91
  C:C02FH         LINE#         92
  C:C02FH         LINE#         93
  C:C031H         LINE#         94
  C:C033H         LINE#         96
  C:C033H         LINE#         97
BL51 BANKED LINKER/LOCATER V6.22.2.0                                                  06/11/2021  12:08:32  PAGE 45


  C:C035H         LINE#         98
  C:C035H         LINE#         99
  C:C037H         LINE#         100
  C:C03AH         LINE#         101
  C:C03DH         LINE#         103
  -------         ENDPROC       _E_D_M
  -------         PROC          L?0063
  -------         ENDPROC       L?0063
  -------         PROC          START
  C:C1D6H         LINE#         105
  C:C1D6H         LINE#         106
  C:C1D6H         LINE#         107
  C:C1D8H         LINE#         108
  C:C1DAH         LINE#         109
  C:C1DBH         LINE#         110
  C:C1DDH         LINE#         111
  C:C1DFH         LINE#         113
  -------         ENDPROC       START
  -------         PROC          STOP
  C:C263H         LINE#         115
  C:C263H         LINE#         116
  C:C263H         LINE#         117
  C:C265H         LINE#         118
  C:C267H         LINE#         119
  C:C268H         LINE#         120
  C:C26AH         LINE#         121
  C:C26CH         LINE#         123
  -------         ENDPROC       STOP
  -------         PROC          L_D_M
  -------         DO            
  D:0003H         SYMBOL        nbits
  -------         ENDDO         
  C:B4F9H         LINE#         125
  C:B4F9H         LINE#         126
  C:B4F9H         LINE#         128
  C:B506H         LINE#         129
  C:B506H         LINE#         130
  C:B508H         LINE#         131
  C:B50BH         LINE#         132
  C:B50BH         LINE#         133
  C:B512H         LINE#         134
  C:B51BH         LINE#         135
  C:B51BH         LINE#         136
  C:B51FH         LINE#         137
  C:B521H         LINE#         138
  C:B521H         LINE#         139
  C:B521H         LINE#         140
  C:B524H         LINE#         141
  C:B524H         LINE#         142
  C:B52BH         LINE#         143
  C:B535H         LINE#         144
  C:B535H         LINE#         145
  C:B539H         LINE#         146
  C:B53BH         LINE#         147
  C:B53BH         LINE#         148
  C:B53BH         LINE#         149
  C:B53EH         LINE#         150
BL51 BANKED LINKER/LOCATER V6.22.2.0                                                  06/11/2021  12:08:32  PAGE 46


  C:B540H         LINE#         151
  C:B545H         LINE#         152
  -------         ENDPROC       L_D_M
  -------         PROC          L?0061
  -------         ENDPROC       L?0061
  -------         PROC          _WR_EEPROM
  D:0002H         SYMBOL        control
  D:0004H         SYMBOL        Dir
  D:0003H         SYMBOL        data_eeprom
  -------         DO            
  D:0005H         SYMBOL        dir_h
  D:0001H         SYMBOL        dir_l
  -------         ENDDO         
  C:B419H         LINE#         158
  C:B41BH         LINE#         159
  C:B41BH         LINE#         161
  C:B41FH         LINE#         162
  C:B41FH         LINE#         163
  C:B41FH         LINE#         166
  C:B41FH         LINE#         167
  C:B41FH         LINE#         169
  C:B422H         LINE#         170
  C:B424H         LINE#         171
  C:B427H         LINE#         172
  C:B429H         LINE#         173
  C:B42CH         LINE#         174
  C:B431H         LINE#         175
  C:B434H         LINE#         176
  C:B439H         LINE#         177
  C:B43CH         LINE#         178
  C:B43FH         LINE#         179
  C:B446H         LINE#         181
  C:B448H         LINE#         182
  C:B44AH         LINE#         183
  C:B451H         LINE#         184
  -------         ENDPROC       _WR_EEPROM
  C:BADDH         SYMBOL        L?0065
  -------         PROC          L?0064
  -------         ENDPROC       L?0064
  C:BADDH         SYMBOL        L?0065
  -------         PROC          _RD_EEPROM
  D:0003H         SYMBOL        control
  D:0004H         SYMBOL        Dir
  -------         DO            
  D:0005H         SYMBOL        dir_h
  D:0002H         SYMBOL        dir_l
  -------         ENDDO         
  C:BAE1H         LINE#         222
  C:BAE3H         LINE#         223
  C:BAE3H         LINE#         226
  C:BAE7H         LINE#         227
  C:BAE7H         LINE#         228
  C:BAE7H         LINE#         230
  C:BAE7H         LINE#         231
  C:BAE7H         LINE#         233
  C:BAEAH         LINE#         234
  C:BAECH         LINE#         235
BL51 BANKED LINKER/LOCATER V6.22.2.0                                                  06/11/2021  12:08:32  PAGE 47


  C:BAEFH         LINE#         236
  C:BAF1H         LINE#         237
  C:BAF4H         LINE#         238
  C:BAF9H         LINE#         239
  C:BAFCH         LINE#         240
  C:BAFFH         LINE#         241
  C:BB05H         LINE#         242
  C:BB08H         LINE#         243
  C:BB0AH         LINE#         244
  C:BB0DH         LINE#         245
  C:BB10H         LINE#         246
  C:BB12H         LINE#         247
  C:BB14H         LINE#         248
  C:BB19H         LINE#         249
  -------         ENDPROC       _RD_EEPROM
  -------         PROC          _GRABA_SERIE
  X:0015H         SYMBOL        buffer
  -------         DO            
  X:0018H         SYMBOL        j
  X:0019H         SYMBOL        error
  -------         ENDDO         
  C:8CE6H         LINE#         256
  C:8CF1H         LINE#         257
  C:8CF1H         LINE#         260
  C:8CF6H         LINE#         265
  C:8D08H         LINE#         267
  C:8D1BH         LINE#         268
  C:8D1BH         LINE#         269
  C:8D44H         LINE#         270
  C:8D44H         LINE#         271
  C:8D4AH         LINE#         273
  C:8D53H         LINE#         274
  C:8D61H         LINE#         275
  C:8D6AH         LINE#         276
  C:8D6AH         LINE#         278
  C:8D72H         LINE#         282
  C:8D78H         LINE#         283
  C:8D78H         LINE#         284
  C:8D86H         LINE#         286
  C:8D86H         LINE#         288
  C:8D86H         LINE#         289
  C:8D90H         LINE#         290
  C:8D9BH         LINE#         291
  C:8DA6H         LINE#         292
  C:8DB1H         LINE#         294
  C:8DB1H         LINE#         295
  -------         ENDPROC       _GRABA_SERIE
  -------         PROC          _WRITE_EEPROM_TICKET
  X:001AH         SYMBOL        buffer
  -------         DO            
  X:001DH         SYMBOL        cod_3
  X:001EH         SYMBOL        cod_2
  X:001FH         SYMBOL        cod_1
  X:0020H         SYMBOL        cod_0
  X:0021H         SYMBOL        Noticket
  D:0004H         SYMBOL        Bnoticket
  -------         ENDDO         
BL51 BANKED LINKER/LOCATER V6.22.2.0                                                  06/11/2021  12:08:32  PAGE 48


  C:84FEH         LINE#         296
  C:8509H         LINE#         297
  C:8509H         LINE#         299
  C:8511H         LINE#         300
  C:851AH         LINE#         301
  C:8528H         LINE#         302
  C:8531H         LINE#         303
  C:8545H         LINE#         305
  C:854EH         LINE#         306
  C:8561H         LINE#         307
  C:8566H         LINE#         308
  C:8569H         LINE#         310
  C:857CH         LINE#         311
  C:8581H         LINE#         312
  C:8584H         LINE#         314
  C:8597H         LINE#         315
  C:859CH         LINE#         316
  C:859FH         LINE#         318
  C:85ABH         LINE#         319
  C:85AEH         LINE#         320
  C:85B7H         LINE#         322
  C:85C5H         LINE#         323
  C:85D3H         LINE#         324
  C:85E1H         LINE#         325
  -------         ENDPROC       _WRITE_EEPROM_TICKET
  -------         PROC          LEE_NO_TICKET
  -------         DO            
  D:0004H         SYMBOL        Noticket
  X:0059H         SYMBOL        Lee_No_Ticket
  D:0007H         SYMBOL        num_chr
  -------         ENDDO         
  C:B546H         LINE#         330
  C:B546H         LINE#         331
  C:B546H         LINE#         335
  C:B549H         LINE#         336
  C:B564H         LINE#         337
  C:B56DH         LINE#         338
  C:B579H         LINE#         339
  C:B582H         LINE#         340
  C:B58BH         LINE#         341
  C:B591H         LINE#         342
  -------         ENDPROC       LEE_NO_TICKET
  -------         PROC          READ_EEPROM_TICKET
  -------         DO            
  D:0001H         SYMBOL        cod3
  X:0064H         SYMBOL        cod2
  X:0065H         SYMBOL        cod1
  X:0066H         SYMBOL        cod0
  X:0067H         SYMBOL        Noticket
  -------         ENDDO         
  C:8E7DH         LINE#         346
  C:8E7DH         LINE#         347
  C:8E7DH         LINE#         349
  C:8E87H         LINE#         350
  C:8E8EH         LINE#         351
  C:8E98H         LINE#         352
  C:8EA6H         LINE#         353
BL51 BANKED LINKER/LOCATER V6.22.2.0                                                  06/11/2021  12:08:32  PAGE 49


  C:8EB0H         LINE#         355
  C:8ED0H         LINE#         356
  C:8EF5H         LINE#         357
  C:8F1AH         LINE#         358
  C:8F38H         LINE#         359
  C:8F46H         LINE#         360
  -------         ENDPROC       READ_EEPROM_TICKET
  -------         PROC          INCREMENTE_TICKET
  -------         DO            
  D:0004H         SYMBOL        Noticket
  X:0009H         SYMBOL        Lee_No_Ticket
  -------         ENDDO         
  C:BDC7H         LINE#         364
  C:BDC7H         LINE#         365
  C:BDC7H         LINE#         369
  C:BDCAH         LINE#         370
  C:BDD7H         LINE#         371
  C:BDF2H         LINE#         372
  -------         ENDPROC       INCREMENTE_TICKET
  -------         PROC          _LEERMEMORIA
  X:009CH         SYMBOL        addres
  X:009EH         SYMBOL        res
  -------         DO            
  D:0007H         SYMBOL        i
  -------         ENDDO         
  C:B1C8H         LINE#         378
  C:B1D9H         LINE#         379
  C:B1D9H         LINE#         381
  C:B1D9H         LINE#         382
  C:B1F5H         LINE#         383
  C:B204H         LINE#         384
  C:B212H         LINE#         385
  C:B21CH         LINE#         386
  C:B21FH         LINE#         387
  -------         ENDPROC       _LEERMEMORIA
  -------         PROC          _ESCRIBIRMEMORIA
  X:005DH         SYMBOL        addres
  X:005FH         SYMBOL        res
  C:B017H         LINE#         389
  C:B028H         LINE#         390
  C:B028H         LINE#         393
  C:B038H         LINE#         394
  C:B03FH         LINE#         395
  C:B042H         LINE#         397
  C:B050H         LINE#         398
  C:B05AH         LINE#         399
  C:B05CH         LINE#         400
  C:B05FH         LINE#         401
  C:B06DH         LINE#         402
  C:B077H         LINE#         403
  -------         ENDPROC       _ESCRIBIRMEMORIA
  -------         PROC          FORMATO_EEPROM
  -------         DO            
  X:0015H         SYMBOL        dato
  X:0016H         SYMBOL        i
  -------         ENDDO         
  C:BCF1H         LINE#         406
BL51 BANKED LINKER/LOCATER V6.22.2.0                                                  06/11/2021  12:08:32  PAGE 50


  C:BCF1H         LINE#         407
  C:BCF1H         LINE#         408
  C:BCF7H         LINE#         410
  C:BD0CH         LINE#         411
  C:BD0CH         LINE#         412
  C:BD16H         LINE#         413
  C:BD26H         LINE#         414
  -------         ENDPROC       FORMATO_EEPROM
  -------         ENDMOD        EEPROM

  -------         MODULE        IO_SENSORES
  C:0000H         SYMBOL        _ICE_DUMMY_
  D:0090H         PUBLIC        P1
  D:00B0H         PUBLIC        P3
  C:B85EH         PUBLIC        Dir_board
  B:0021H.7       PUBLIC        PULSADOR_BOTTON
  C:C29EH         PUBLIC        sel_Pulsa
  B:0090H.1       PUBLIC        DataIn
  C:C17EH         PUBLIC        Dir_Board_Monitor
  C:C297H         PUBLIC        sel_Auto
  C:BCB9H         PUBLIC        ValidaSensoresPaso
  B:00B0H.3       PUBLIC        busy
  C:C0C1H         PUBLIC        ValidaSensor
  C:C2ACH         PUBLIC        sel_Sensor1
  C:C2A5H         PUBLIC        sel_Sensor2
  C:C03EH         PUBLIC        ValidaSensor_cero
  C:B3A7H         PUBLIC        Valida_Sensor1_Auto
  B:00B0H.5       PUBLIC        sel_A
  B:00B0H.6       PUBLIC        sel_B
  B:00B0H.7       PUBLIC        sel_C
  C:99A9H         PUBLIC        msj_lcd_informativo
  C:C2B3H         PUBLIC        sel_Dir1
  C:C2BAH         PUBLIC        sel_Dir2
  C:C1E0H         PUBLIC        Botton
  C:C290H         PUBLIC        sel_Funcion
  -------         PROC          SEL_FUNCION
  C:C290H         LINE#         34
  C:C290H         LINE#         35
  C:C290H         LINE#         36
  C:C292H         LINE#         37
  C:C294H         LINE#         38
  C:C296H         LINE#         39
  -------         ENDPROC       SEL_FUNCION
  -------         PROC          SEL_AUTO
  C:C297H         LINE#         41
  C:C297H         LINE#         42
  C:C297H         LINE#         43
  C:C299H         LINE#         44
  C:C29BH         LINE#         45
  C:C29DH         LINE#         46
  -------         ENDPROC       SEL_AUTO
  -------         PROC          SEL_PULSA
  C:C29EH         LINE#         48
  C:C29EH         LINE#         49
  C:C29EH         LINE#         50
  C:C2A0H         LINE#         51
  C:C2A2H         LINE#         52
BL51 BANKED LINKER/LOCATER V6.22.2.0                                                  06/11/2021  12:08:32  PAGE 51


  C:C2A4H         LINE#         53
  -------         ENDPROC       SEL_PULSA
  -------         PROC          SEL_SENSOR2
  C:C2A5H         LINE#         56
  C:C2A5H         LINE#         57
  C:C2A5H         LINE#         58
  C:C2A7H         LINE#         59
  C:C2A9H         LINE#         60
  C:C2ABH         LINE#         61
  -------         ENDPROC       SEL_SENSOR2
  -------         PROC          SEL_SENSOR1
  C:C2ACH         LINE#         63
  C:C2ACH         LINE#         64
  C:C2ACH         LINE#         65
  C:C2AEH         LINE#         66
  C:C2B0H         LINE#         67
  C:C2B2H         LINE#         68
  -------         ENDPROC       SEL_SENSOR1
  -------         PROC          SEL_DIR1
  C:C2B3H         LINE#         70
  C:C2B3H         LINE#         71
  C:C2B3H         LINE#         72
  C:C2B5H         LINE#         73
  C:C2B7H         LINE#         74
  C:C2B9H         LINE#         75
  -------         ENDPROC       SEL_DIR1
  -------         PROC          SEL_DIR2
  C:C2BAH         LINE#         77
  C:C2BAH         LINE#         78
  C:C2BAH         LINE#         79
  C:C2BCH         LINE#         80
  C:C2BEH         LINE#         81
  C:C2C0H         LINE#         82
  -------         ENDPROC       SEL_DIR2
  -------         PROC          BOTTON
  C:C1E0H         LINE#         83
  C:C1E0H         LINE#         84
  C:C1E0H         LINE#         85
  C:C1E3H         LINE#         86
  C:C1E6H         LINE#         87
  C:C1E6H         LINE#         88
  C:C1EFH         LINE#         89
  C:C1F1H         LINE#         90
  C:C1F1H         LINE#         92
  -------         ENDPROC       BOTTON
  -------         PROC          VALIDASENSOR
  -------         DO            
  D:0007H         SYMBOL        Valido
  D:0004H         SYMBOL        Tmin
  -------         ENDDO         
  C:C0C1H         LINE#         94
  C:C0C1H         LINE#         95
  C:C0C1H         LINE#         97
  C:C0C3H         LINE#         98
  C:C0C7H         LINE#         99
  C:C0D2H         LINE#         100
  C:C0D2H         LINE#         101
BL51 BANKED LINKER/LOCATER V6.22.2.0                                                  06/11/2021  12:08:32  PAGE 52


  C:C0D7H         LINE#         102
  C:C0DBH         LINE#         103
  C:C0DBH         LINE#         104
  C:C0DDH         LINE#         105
  C:C0DDH         LINE#         106
  C:C0DFH         LINE#         107
  C:C0DFH         LINE#         108
  -------         ENDPROC       VALIDASENSOR
  -------         PROC          VALIDASENSOR_CERO
  -------         DO            
  D:0007H         SYMBOL        Valido
  D:0004H         SYMBOL        Tmin
  -------         ENDDO         
  C:C03EH         LINE#         109
  C:C03EH         LINE#         110
  C:C03EH         LINE#         112
  C:C040H         LINE#         113
  C:C044H         LINE#         114
  C:C053H         LINE#         115
  C:C053H         LINE#         116
  C:C058H         LINE#         117
  C:C05CH         LINE#         118
  C:C05CH         LINE#         119
  C:C05DH         LINE#         120
  C:C05DH         LINE#         121
  C:C05FH         LINE#         122
  C:C05FH         LINE#         123
  -------         ENDPROC       VALIDASENSOR_CERO
  -------         PROC          DIR_BOARD
  -------         DO            
  X:0037H         SYMBOL        Board
  D:0007H         SYMBOL        Board_High
  -------         ENDDO         
  C:B85EH         LINE#         127
  C:B85EH         LINE#         128
  C:B85EH         LINE#         129
  C:B864H         LINE#         131
  C:B867H         LINE#         132
  C:B86AH         LINE#         133
  C:B86AH         LINE#         134
  C:B86DH         LINE#         135
  C:B86DH         LINE#         136
  C:B870H         LINE#         137
  C:B873H         LINE#         138
  C:B873H         LINE#         139
  C:B87AH         LINE#         140
  C:B87AH         LINE#         141
  C:B882H         LINE#         142
  C:B882H         LINE#         143
  C:B88AH         LINE#         145
  C:B88DH         LINE#         146
  C:B88DH         LINE#         147
  C:B893H         LINE#         148
  C:B893H         LINE#         149
  C:B895H         LINE#         150
  C:B897H         LINE#         151
  C:B899H         LINE#         152
BL51 BANKED LINKER/LOCATER V6.22.2.0                                                  06/11/2021  12:08:32  PAGE 53


  C:B899H         LINE#         154
  C:B899H         LINE#         155
  C:B8A0H         LINE#         156
  -------         ENDPROC       DIR_BOARD
  -------         PROC          DIR_BOARD_MONITOR
  -------         DO            
  D:0007H         SYMBOL        Board_High
  -------         ENDDO         
  C:C17EH         LINE#         157
  C:C17EH         LINE#         158
  C:C17EH         LINE#         161
  C:C187H         LINE#         162
  C:C18AH         LINE#         163
  C:C18AH         LINE#         164
  C:C18DH         LINE#         165
  C:C18DH         LINE#         166
  C:C18FH         LINE#         167
  C:C18FH         LINE#         168
  C:C18FH         LINE#         169
  C:C193H         LINE#         170
  -------         ENDPROC       DIR_BOARD_MONITOR
  -------         PROC          VALIDA_SENSOR1_AUTO
  -------         DO            
  X:0016H         SYMBOL        sensor
  -------         ENDDO         
  C:B3A7H         LINE#         174
  C:B3A7H         LINE#         175
  C:B3A7H         LINE#         177
  C:B3AAH         LINE#         178
  C:B3ADH         LINE#         179
  C:B3B0H         LINE#         180
  C:B3B5H         LINE#         181
  C:B3B5H         LINE#         182
  C:B3BCH         LINE#         183
  C:B3C0H         LINE#         184
  C:B3C0H         LINE#         185
  C:B3C0H         LINE#         186
  C:B3C2H         LINE#         188
  C:B3C2H         LINE#         189
  C:B3C9H         LINE#         190
  C:B3CEH         LINE#         191
  C:B3CEH         LINE#         192
  C:B3CEH         LINE#         193
  C:B3CEH         LINE#         196
  C:B3D0H         LINE#         198
  C:B3D3H         LINE#         199
  C:B3D8H         LINE#         200
  C:B3D8H         LINE#         202
  C:B3DFH         LINE#         203
  C:B3E5H         LINE#         204
  C:B3EBH         LINE#         205
  C:B3EEH         LINE#         206
  C:B3F0H         LINE#         208
  C:B3F0H         LINE#         209
  C:B3F7H         LINE#         210
  C:B3FCH         LINE#         211
  C:B3FCH         LINE#         214
BL51 BANKED LINKER/LOCATER V6.22.2.0                                                  06/11/2021  12:08:32  PAGE 54


  C:B3FCH         LINE#         216
  C:B401H         LINE#         217
  -------         ENDPROC       VALIDA_SENSOR1_AUTO
  -------         PROC          VALIDASENSORESPASO
  -------         DO            
  X:0015H         SYMBOL        sensor
  -------         ENDDO         
  C:BCB9H         LINE#         222
  C:BCB9H         LINE#         223
  C:BCB9H         LINE#         225
  C:BCBCH         LINE#         226
  C:BCBFH         LINE#         227
  C:BCBFH         LINE#         228
  C:BCCDH         LINE#         229
  C:BCCDH         LINE#         230
  C:BCD5H         LINE#         232
  C:BCD7H         LINE#         234
  C:BCD7H         LINE#         235
  C:BCDDH         LINE#         236
  C:BCDFH         LINE#         237
  C:BCDFH         LINE#         238
  C:BCDFH         LINE#         239
  C:BCDFH         LINE#         240
  C:BCE8H         LINE#         241
  C:BCEBH         LINE#         242
  C:BCEBH         LINE#         243
  C:BCF0H         LINE#         244
  -------         ENDPROC       VALIDASENSORESPASO
  -------         PROC          MSJ_LCD_INFORMATIVO
  -------         DO            
  X:0216H         SYMBOL        contador
  X:0001H         SYMBOL        info
  X:0217H         SYMBOL        toggle
  -------         ENDDO         
  C:99A9H         LINE#         257
  C:99A9H         LINE#         258
  C:99A9H         LINE#         260
  C:99AEH         LINE#         262
  C:99B4H         LINE#         263
  C:99C1H         LINE#         264
  C:99C1H         LINE#         266
  C:99C3H         LINE#         267
  C:99C6H         LINE#         268
  C:99D2H         LINE#         269
  C:99D2H         LINE#         270
  C:99DCH         LINE#         271
  C:99DCH         LINE#         273
  C:99E5H         LINE#         274
  C:99EDH         LINE#         275
  C:99F5H         LINE#         276
  C:9A01H         LINE#         277
  C:9A01H         LINE#         279
  C:9A04H         LINE#         280
  C:9A04H         LINE#         281
  C:9A06H         LINE#         282
  C:9A09H         LINE#         283
  C:9A0FH         LINE#         284
BL51 BANKED LINKER/LOCATER V6.22.2.0                                                  06/11/2021  12:08:32  PAGE 55


  C:9A0FH         LINE#         285
  C:9A1DH         LINE#         286
  C:9A1DH         LINE#         287
  C:9A23H         LINE#         288
  C:9A23H         LINE#         289
  C:9A25H         LINE#         290
  C:9A33H         LINE#         291
  C:9A33H         LINE#         292
  C:9A3CH         LINE#         293
  C:9A3FH         LINE#         294
  C:9A3FH         LINE#         295
  C:9A44H         LINE#         296
  C:9A47H         LINE#         297
  C:9A4CH         LINE#         298
  C:9A4CH         LINE#         299
  C:9A4CH         LINE#         300
  C:9A4CH         LINE#         301
  C:9A4CH         LINE#         302
  C:9A4FH         LINE#         303
  C:9A52H         LINE#         304
  C:9A52H         LINE#         305
  C:9A57H         LINE#         306
  C:9A57H         LINE#         307
  C:9A57H         LINE#         308
  -------         ENDPROC       MSJ_LCD_INFORMATIVO
  -------         ENDMOD        IO_SENSORES

  -------         MODULE        PANTALLAS
  C:0000H         SYMBOL        _ICE_DUMMY_
  D:0080H         PUBLIC        P0
  C:ADC2H         PUBLIC        Reloj_Pantalla_Lcd
  C:2790H         PUBLIC        _PantallaLCD
  C:B822H         PUBLIC        _LCD_txt
  C:AAC8H         PUBLIC        _Raspberry_data
  C:BF69H         PUBLIC        _tx_chrlcd
  C:3585H         SYMBOL        _?ix1000
  C:358BH         SYMBOL        _?ix1001
  C:3591H         SYMBOL        _?ix1002
  C:35B9H         SYMBOL        _?ix1003
  C:B78EH         PUBLIC        _LCD_txt_num_char
  C:4D55H         PUBLIC        _PantallaLCD_LINEA_2
  B:0098H.4       PUBLIC        REN
  B:0080H.7       PUBLIC        sel_com
  -------         PROC          _PANTALLALCD
  X:002AH         SYMBOL        cod_msg
  -------         DO            
  X:002BH         SYMBOL        Ini_LCD_Line_one
  X:0031H         SYMBOL        num_chr
  X:0032H         SYMBOL        msjpantalla
  -------         ENDDO         
  C:2790H         LINE#         96
  C:2795H         LINE#         97
  C:2795H         LINE#         99
  C:27A8H         LINE#         104
  C:27AFH         LINE#         108
  C:27B1H         LINE#         110
  C:27BAH         LINE#         111
BL51 BANKED LINKER/LOCATER V6.22.2.0                                                  06/11/2021  12:08:32  PAGE 56


  C:27BAH         LINE#         112
  C:27C4H         LINE#         114
  C:2820H         LINE#         115
  C:2820H         LINE#         117
  C:2820H         LINE#         118
  C:282EH         LINE#         119
  C:2834H         LINE#         120
  C:2837H         LINE#         121
  C:283DH         LINE#         122
  C:2840H         LINE#         124
  C:2840H         LINE#         126
  C:284EH         LINE#         127
  C:2854H         LINE#         128
  C:2857H         LINE#         129
  C:285DH         LINE#         130
  C:2860H         LINE#         132
  C:2860H         LINE#         134
  C:286EH         LINE#         135
  C:2874H         LINE#         136
  C:2877H         LINE#         137
  C:287DH         LINE#         138
  C:2880H         LINE#         139
  C:2880H         LINE#         140
  C:288EH         LINE#         141
  C:2894H         LINE#         142
  C:2897H         LINE#         143
  C:289DH         LINE#         144
  C:28A0H         LINE#         145
  C:28A0H         LINE#         146
  C:28AEH         LINE#         147
  C:28B4H         LINE#         148
  C:28B7H         LINE#         149
  C:28BDH         LINE#         150
  C:28C0H         LINE#         151
  C:28C0H         LINE#         152
  C:28CEH         LINE#         153
  C:28D4H         LINE#         154
  C:28D7H         LINE#         155
  C:28DDH         LINE#         156
  C:28E0H         LINE#         157
  C:28E0H         LINE#         159
  C:28EEH         LINE#         160
  C:28F4H         LINE#         161
  C:28F7H         LINE#         162
  C:28FDH         LINE#         163
  C:2900H         LINE#         164
  C:2900H         LINE#         170
  C:2900H         LINE#         171
  C:290EH         LINE#         172
  C:2914H         LINE#         173
  C:2917H         LINE#         174
  C:291DH         LINE#         175
  C:2920H         LINE#         176
  C:2920H         LINE#         177
  C:292EH         LINE#         178
  C:2934H         LINE#         179
  C:2937H         LINE#         180
BL51 BANKED LINKER/LOCATER V6.22.2.0                                                  06/11/2021  12:08:32  PAGE 57


  C:293DH         LINE#         181
  C:2940H         LINE#         183
  C:2940H         LINE#         184
  C:294EH         LINE#         185
  C:2954H         LINE#         186
  C:2957H         LINE#         187
  C:295DH         LINE#         188
  C:2960H         LINE#         190
  C:2960H         LINE#         191
  C:296EH         LINE#         192
  C:2974H         LINE#         193
  C:2977H         LINE#         194
  C:297DH         LINE#         195
  C:2980H         LINE#         200
  C:2980H         LINE#         202
  C:298EH         LINE#         203
  C:2994H         LINE#         204
  C:2997H         LINE#         205
  C:299DH         LINE#         206
  C:29A0H         LINE#         208
  C:29A0H         LINE#         210
  C:29AEH         LINE#         211
  C:29B4H         LINE#         212
  C:29B7H         LINE#         213
  C:29BDH         LINE#         214
  C:29C0H         LINE#         216
  C:29C0H         LINE#         217
  C:29CEH         LINE#         218
  C:29D4H         LINE#         219
  C:29D7H         LINE#         220
  C:29DDH         LINE#         221
  C:29E0H         LINE#         223
  C:29E0H         LINE#         225
  C:29EEH         LINE#         226
  C:29F4H         LINE#         227
  C:29F7H         LINE#         228
  C:29FDH         LINE#         229
  C:2A00H         LINE#         231
  C:2A00H         LINE#         233
  C:2A0EH         LINE#         234
  C:2A14H         LINE#         235
  C:2A17H         LINE#         236
  C:2A1DH         LINE#         237
  C:2A20H         LINE#         239
  C:2A20H         LINE#         240
  C:2A2EH         LINE#         241
  C:2A34H         LINE#         242
  C:2A37H         LINE#         243
  C:2A3DH         LINE#         244
  C:2A40H         LINE#         246
  C:2A40H         LINE#         247
  C:2A4EH         LINE#         248
  C:2A54H         LINE#         249
  C:2A57H         LINE#         250
  C:2A5DH         LINE#         251
  C:2A60H         LINE#         253
  C:2A60H         LINE#         255
BL51 BANKED LINKER/LOCATER V6.22.2.0                                                  06/11/2021  12:08:32  PAGE 58


  C:2A6EH         LINE#         256
  C:2A74H         LINE#         257
  C:2A77H         LINE#         258
  C:2A7DH         LINE#         259
  C:2A80H         LINE#         261
  C:2A80H         LINE#         262
  C:2A8EH         LINE#         263
  C:2A94H         LINE#         264
  C:2A97H         LINE#         265
  C:2A9DH         LINE#         266
  C:2AA0H         LINE#         267
  C:2AA0H         LINE#         268
  C:2AAEH         LINE#         269
  C:2AB4H         LINE#         270
  C:2AB7H         LINE#         271
  C:2ABDH         LINE#         272
  C:2AC0H         LINE#         273
  C:2AC0H         LINE#         274
  C:2ACEH         LINE#         275
  C:2AD4H         LINE#         276
  C:2AD7H         LINE#         277
  C:2ADDH         LINE#         278
  C:2AE0H         LINE#         279
  C:2AE0H         LINE#         280
  C:2AEEH         LINE#         281
  C:2AF1H         LINE#         282
  C:2AF7H         LINE#         283
  C:2AF9H         LINE#         287
  C:2AF9H         LINE#         288
  C:2B07H         LINE#         289
  C:2B0DH         LINE#         290
  C:2B10H         LINE#         291
  C:2B16H         LINE#         292
  C:2B18H         LINE#         293
  C:2B18H         LINE#         294
  C:2B26H         LINE#         295
  C:2B2CH         LINE#         296
  C:2B2FH         LINE#         297
  C:2B35H         LINE#         298
  C:2B37H         LINE#         299
  C:2B37H         LINE#         300
  C:2B45H         LINE#         301
  C:2B4BH         LINE#         302
  C:2B4EH         LINE#         303
  C:2B59H         LINE#         304
  C:2B59H         LINE#         313
  C:2B59H         LINE#         315
  C:2B59H         LINE#         316
  C:2B59H         LINE#         317
  C:2B5BH         LINE#         319
  C:2B5CH         LINE#         321
  C:2B5CH         LINE#         322
  C:2B5EH         LINE#         323
  C:2BCCH         LINE#         324
  C:2BCCH         LINE#         327
  C:2BCCH         LINE#         328
  C:2BE0H         LINE#         329
BL51 BANKED LINKER/LOCATER V6.22.2.0                                                  06/11/2021  12:08:32  PAGE 59


  C:2BE0H         LINE#         331
  C:2BE3H         LINE#         332
  C:2BE3H         LINE#         335
  C:2BF7H         LINE#         336
  C:2BF7H         LINE#         337
  C:2BFAH         LINE#         339
  C:2BFAH         LINE#         340
  C:2C0EH         LINE#         341
  C:2C0EH         LINE#         343
  C:2C11H         LINE#         344
  C:2C11H         LINE#         345
  C:2C25H         LINE#         346
  C:2C25H         LINE#         348
  C:2C28H         LINE#         349
  C:2C28H         LINE#         350
  C:2C3CH         LINE#         351
  C:2C3CH         LINE#         353
  C:2C3FH         LINE#         354
  C:2C3FH         LINE#         355
  C:2C53H         LINE#         356
  C:2C53H         LINE#         358
  C:2C56H         LINE#         359
  C:2C56H         LINE#         360
  C:2C6AH         LINE#         361
  C:2C6AH         LINE#         363
  C:2C6DH         LINE#         364
  C:2C6DH         LINE#         365
  C:2C81H         LINE#         366
  C:2C81H         LINE#         368
  C:2C84H         LINE#         369
  C:2C84H         LINE#         370
  C:2C98H         LINE#         371
  C:2C98H         LINE#         373
  C:2C9BH         LINE#         374
  C:2C9BH         LINE#         375
  C:2CAFH         LINE#         376
  C:2CAFH         LINE#         378
  C:2CB2H         LINE#         380
  C:2CB2H         LINE#         381
  C:2CC6H         LINE#         382
  C:2CC6H         LINE#         384
  C:2CC9H         LINE#         386
  C:2CC9H         LINE#         387
  C:2CDDH         LINE#         388
  C:2CDDH         LINE#         390
  C:2CE0H         LINE#         392
  C:2CE0H         LINE#         393
  C:2CF4H         LINE#         394
  C:2CF4H         LINE#         396
  C:2CF7H         LINE#         400
  C:2CF7H         LINE#         401
  C:2D0BH         LINE#         402
  C:2D0BH         LINE#         404
  C:2D0EH         LINE#         406
  C:2D0EH         LINE#         407
  C:2D22H         LINE#         408
  C:2D22H         LINE#         410
BL51 BANKED LINKER/LOCATER V6.22.2.0                                                  06/11/2021  12:08:32  PAGE 60


  C:2D25H         LINE#         412
  C:2D25H         LINE#         413
  C:2D39H         LINE#         414
  C:2D39H         LINE#         417
  C:2D3CH         LINE#         418
  C:2D3CH         LINE#         419
  C:2D50H         LINE#         420
  C:2D50H         LINE#         422
  C:2D53H         LINE#         423
  C:2D53H         LINE#         424
  C:2D67H         LINE#         425
  C:2D67H         LINE#         427
  C:2D6AH         LINE#         428
  C:2D6AH         LINE#         429
  C:2D7EH         LINE#         430
  C:2D7EH         LINE#         432
  C:2D81H         LINE#         433
  C:2D81H         LINE#         434
  C:2D95H         LINE#         435
  C:2D95H         LINE#         437
  C:2D98H         LINE#         439
  C:2D98H         LINE#         440
  C:2DACH         LINE#         441
  C:2DACH         LINE#         443
  C:2DAFH         LINE#         445
  C:2DAFH         LINE#         446
  C:2DC3H         LINE#         447
  C:2DC3H         LINE#         449
  C:2DC6H         LINE#         450
  C:2DC6H         LINE#         451
  C:2DDAH         LINE#         452
  C:2DDAH         LINE#         454
  C:2DDDH         LINE#         455
  C:2DDDH         LINE#         456
  C:2DF1H         LINE#         457
  C:2DF1H         LINE#         459
  C:2DF4H         LINE#         460
  C:2DF4H         LINE#         461
  C:2E08H         LINE#         462
  C:2E08H         LINE#         464
  C:2E0BH         LINE#         466
  C:2E0BH         LINE#         467
  C:2E1FH         LINE#         468
  C:2E1FH         LINE#         470
  C:2E22H         LINE#         471
  C:2E22H         LINE#         472
  C:2E36H         LINE#         473
  C:2E36H         LINE#         475
  C:2E39H         LINE#         476
  C:2E39H         LINE#         477
  C:2E4DH         LINE#         478
  C:2E4DH         LINE#         480
  C:2E4FH         LINE#         482
  C:2E4FH         LINE#         483
  C:2E63H         LINE#         484
  C:2E63H         LINE#         486
  C:2E65H         LINE#         489
BL51 BANKED LINKER/LOCATER V6.22.2.0                                                  06/11/2021  12:08:32  PAGE 61


  C:2E65H         LINE#         490
  C:2E79H         LINE#         491
  C:2E79H         LINE#         493
  C:2E7BH         LINE#         494
  C:2E7BH         LINE#         495
  C:2E8FH         LINE#         496
  C:2E8FH         LINE#         498
  C:2E91H         LINE#         499
  C:2E91H         LINE#         500
  C:2EA5H         LINE#         501
  C:2EA5H         LINE#         502
  C:2EA7H         LINE#         504
  C:2EA7H         LINE#         505
  C:2EBEH         LINE#         506
  C:2ECDH         LINE#         507
  C:2ECDH         LINE#         512
  C:2ECDH         LINE#         513
  C:2ECDH         LINE#         514
  C:2ECDH         LINE#         516
  C:2ED4H         LINE#         517
  C:2ED6H         LINE#         518
  C:2ED6H         LINE#         522
  -------         ENDPROC       _PANTALLALCD
  -------         PROC          _PANTALLALCD_LINEA_2
  X:0015H         SYMBOL        cod_msg
  X:0016H         SYMBOL        buffer
  -------         DO            
  X:0019H         SYMBOL        Ini_LCD_Line_one
  X:001FH         SYMBOL        num_chr
  X:0020H         SYMBOL        msjpantalla
  -------         ENDDO         
  C:4D55H         LINE#         523
  C:4D63H         LINE#         524
  C:4D63H         LINE#         526
  C:4D76H         LINE#         528
  C:4D89H         LINE#         535
  C:4D8BH         LINE#         537
  C:4D94H         LINE#         538
  C:4D94H         LINE#         541
  C:4DA2H         LINE#         542
  C:4DA2H         LINE#         544
  C:4DA2H         LINE#         545
  C:4DA5H         LINE#         546
  C:4DB3H         LINE#         547
  C:4DC8H         LINE#         548
  C:4DCEH         LINE#         549
  C:4DD4H         LINE#         550
  C:4DDAH         LINE#         551
  C:4DDAH         LINE#         552
  C:4DDCH         LINE#         553
  C:4DDCH         LINE#         554
  C:4DDFH         LINE#         555
  C:4DEDH         LINE#         556
  C:4E02H         LINE#         557
  C:4E08H         LINE#         558
  C:4E0EH         LINE#         559
  C:4E19H         LINE#         560
BL51 BANKED LINKER/LOCATER V6.22.2.0                                                  06/11/2021  12:08:32  PAGE 62


  C:4E29H         LINE#         561
  C:4E29H         LINE#         565
  C:4E29H         LINE#         567
  C:4E29H         LINE#         569
  C:4E29H         LINE#         570
  C:4E2BH         LINE#         571
  C:4E2CH         LINE#         573
  C:4E2CH         LINE#         574
  C:4E2EH         LINE#         576
  C:4E56H         LINE#         577
  C:4E56H         LINE#         578
  C:4E56H         LINE#         581
  C:4E62H         LINE#         583
  C:4E62H         LINE#         585
  C:4E62H         LINE#         588
  C:4E62H         LINE#         591
  C:4E65H         LINE#         593
  C:4E65H         LINE#         594
  C:4E71H         LINE#         595
  C:4E71H         LINE#         596
  C:4E71H         LINE#         597
  C:4E71H         LINE#         598
  C:4E71H         LINE#         599
  C:4E71H         LINE#         601
  C:4E74H         LINE#         602
  C:4E74H         LINE#         604
  C:4E80H         LINE#         605
  C:4E83H         LINE#         606
  C:4E86H         LINE#         607
  C:4E86H         LINE#         609
  C:4E8FH         LINE#         611
  C:4E8FH         LINE#         612
  C:4E91H         LINE#         614
  C:4E91H         LINE#         616
  C:4EA2H         LINE#         618
  C:4EA5H         LINE#         620
  C:4EA5H         LINE#         621
  C:4EB0H         LINE#         622
  C:4EB0H         LINE#         623
  C:4EB7H         LINE#         625
  C:4ECDH         LINE#         627
  C:4EE4H         LINE#         628
  C:4EE7H         LINE#         630
  C:4EE7H         LINE#         631
  C:4EEEH         LINE#         633
  C:4EEEH         LINE#         634
  C:4EEEH         LINE#         637
  C:4EF1H         LINE#         638
  C:4EF1H         LINE#         639
  C:4F00H         LINE#         640
  C:4F1EH         LINE#         641
  C:4F35H         LINE#         643
  C:4F35H         LINE#         645
  C:4F38H         LINE#         646
  C:4F38H         LINE#         647
  C:4F47H         LINE#         648
  C:4F5AH         LINE#         649
BL51 BANKED LINKER/LOCATER V6.22.2.0                                                  06/11/2021  12:08:32  PAGE 63


  C:4F74H         LINE#         650
  C:4F92H         LINE#         651
  C:4FA9H         LINE#         652
  C:4FA9H         LINE#         654
  C:4FABH         LINE#         655
  C:4FABH         LINE#         656
  C:4FBAH         LINE#         657
  C:4FD8H         LINE#         658
  C:4FEFH         LINE#         659
  C:4FF2H         LINE#         660
  C:4FF2H         LINE#         661
  C:4FF2H         LINE#         663
  C:4FF2H         LINE#         664
  C:4FF2H         LINE#         666
  C:4FF7H         LINE#         667
  C:4FF9H         LINE#         668
  C:4FF9H         LINE#         669
  -------         ENDPROC       _PANTALLALCD_LINEA_2
  C:BF60H         SYMBOL        L?0176
  C:BF63H         SYMBOL        L?0177
  C:BF64H         SYMBOL        L?0178
  -------         PROC          L?0175
  -------         ENDPROC       L?0175
  C:BF60H         SYMBOL        L?0176
  C:BF63H         SYMBOL        L?0177
  C:BF64H         SYMBOL        L?0178
  -------         PROC          _TX_CHRLCD
  D:0007H         SYMBOL        data_com
  X:004DH         SYMBOL        enable_char_add
  -------         DO            
  X:004EH         SYMBOL        d
  -------         ENDDO         
  C:BF69H         LINE#         675
  C:BF6EH         LINE#         676
  C:BF6EH         LINE#         678
  C:BF76H         LINE#         679
  C:BF86H         LINE#         681
  -------         ENDPROC       _TX_CHRLCD
  -------         PROC          L?0181
  -------         ENDPROC       L?0181
  -------         PROC          _LCD_TXT
  X:0048H         SYMBOL        msg
  X:004BH         SYMBOL        enable_char_add
  -------         DO            
  X:004CH         SYMBOL        i
  -------         ENDDO         
  C:B822H         LINE#         688
  C:B830H         LINE#         689
  C:B830H         LINE#         692
  C:B84DH         LINE#         693
  C:B84DH         LINE#         694
  C:B855H         LINE#         695
  C:B85DH         LINE#         696
  -------         ENDPROC       _LCD_TXT
  -------         PROC          _LCD_TXT_NUM_CHAR
  X:0022H         SYMBOL        msg
  X:0025H         SYMBOL        length_char
BL51 BANKED LINKER/LOCATER V6.22.2.0                                                  06/11/2021  12:08:32  PAGE 64


  X:0026H         SYMBOL        enable_char_add
  -------         DO            
  X:0027H         SYMBOL        i
  -------         ENDDO         
  C:B78EH         LINE#         703
  C:B79CH         LINE#         704
  C:B79CH         LINE#         707
  C:B7AFH         LINE#         708
  C:B7AFH         LINE#         709
  C:B7CBH         LINE#         710
  C:B7D3H         LINE#         711
  -------         ENDPROC       _LCD_TXT_NUM_CHAR
  C:AAC2H         SYMBOL        L?0180
  -------         PROC          L?0179
  -------         ENDPROC       L?0179
  C:AAC2H         SYMBOL        L?0180
  -------         PROC          _RASPBERRY_DATA
  X:0048H         SYMBOL        msjpantalla
  -------         DO            
  X:004BH         SYMBOL        i
  X:004CH         SYMBOL        lenth_cadena
  X:004DH         SYMBOL        d
  -------         ENDDO         
  C:AAC8H         LINE#         713
  C:AAD3H         LINE#         714
  C:AAD3H         LINE#         721
  C:AADBH         LINE#         723
  C:AAEDH         LINE#         724
  C:AAEDH         LINE#         726
  C:AAFFH         LINE#         727
  C:AAFFH         LINE#         728
  C:AB04H         LINE#         729
  C:AB22H         LINE#         731
  C:AB2AH         LINE#         734
  C:AB3CH         LINE#         735
  C:AB3CH         LINE#         737
  C:AB41H         LINE#         739
  -------         ENDPROC       _RASPBERRY_DATA
  -------         PROC          RELOJ_PANTALLA_LCD
  -------         DO            
  X:0015H         SYMBOL        Ini_Clock_LCD
  -------         ENDDO         
  C:ADC2H         LINE#         747
  C:ADC2H         LINE#         748
  C:ADC2H         LINE#         750
  C:ADD5H         LINE#         752
  C:ADDBH         LINE#         753
  C:ADDBH         LINE#         754
  C:ADDDH         LINE#         755
  C:ADE6H         LINE#         759
  C:ADE8H         LINE#         760
  C:ADF8H         LINE#         762
  C:ADFAH         LINE#         763
  C:ADFCH         LINE#         765
  C:ADFDH         LINE#         767
  C:ADFDH         LINE#         768
  C:ADFFH         LINE#         769
BL51 BANKED LINKER/LOCATER V6.22.2.0                                                  06/11/2021  12:08:32  PAGE 65


  C:AE04H         LINE#         770
  C:AE13H         LINE#         772
  C:AE1CH         LINE#         773
  C:AE33H         LINE#         774
  C:AE3CH         LINE#         777
  C:AE3EH         LINE#         778
  C:AE3EH         LINE#         779
  -------         ENDPROC       RELOJ_PANTALLA_LCD
  -------         ENDMOD        PANTALLAS

  -------         MODULE        PROG
  C:0000H         SYMBOL        _ICE_DUMMY_
  C:5B21H         PUBLIC        Prog_fecha_vencimiento
  C:6D22H         PUBLIC        Prog_Sin_Cobro
  C:77D5H         PUBLIC        _Ver_Horario_Desde_Hasta
  C:7D1EH         PUBLIC        Prog_debug
  C:8012H         PUBLIC        Prog_AntiPassBack
  C:A4E3H         PUBLIC        _GetOption
  X:01B8H         PUBLIC        validacion
  C:820AH         PUBLIC        Prog_Validar_Tipo_Vehiculo_Mensual
  X:01C3H         PUBLIC        cursor
  C:76BBH         PUBLIC        _Prog_Horarios_on_off
  C:A154H         PUBLIC        Show
  C:444FH         PUBLIC        Ver_Prog
  C:BDFBH         PUBLIC        Addr_Horarios
  C:978AH         PUBLIC        prog_id_cliente
  C:B8A9H         PUBLIC        _ValidarClave
  C:54F3H         PUBLIC        menu
  C:7E1AH         PUBLIC        Prog_Use_Lpr
  C:B22EH         PUBLIC        _ListaComandos
  C:1311H         SYMBOL        _?ix1000
  C:131CH         SYMBOL        _?ix1001
  C:132CH         SYMBOL        _?ix1002
  C:133CH         SYMBOL        _?ix1003
  C:1340H         SYMBOL        _?ix1004
  C:6BDDH         PUBLIC        Prog_Horarios
  C:1344H         SYMBOL        _?ix1005
  C:8306H         PUBLIC        Prog_Apb_Mensual
  C:925BH         PUBLIC        Prog_tarjeta_automatica_o_boton
  C:571FH         PUBLIC        _hash_id
  C:4A9EH         PUBLIC        _Prog_Horario_dias
  C:9559H         PUBLIC        Prog_tiempo_gracia
  C:ABCBH         PUBLIC        _IngresaDato
  X:01D7H         PUBLIC        comandos
  C:B672H         PUBLIC        First_Clave
  C:C150H         PUBLIC        DisplayCursor
  C:810EH         PUBLIC        Prog_Placa
  C:949CH         PUBLIC        prog_cod_park
  C:70DAH         PUBLIC        Ver_Horario
  C:7593H         PUBLIC        _Ver_Horario_dias
  C:5927H         PUBLIC        _Prog_Horario_Desde_Hasta
  C:7F16H         PUBLIC        tipo_pantalla
  C:88ADH         PUBLIC        Prog_Address_High_Board
  C:B96BH         PUBLIC        _GetCMD
  -------         PROC          _HASH_ID
  X:005DH         SYMBOL        clave
  -------         DO            
BL51 BANKED LINKER/LOCATER V6.22.2.0                                                  06/11/2021  12:08:32  PAGE 66


  X:0060H         SYMBOL        len_clave
  X:0061H         SYMBOL        i
  X:01B4H         SYMBOL        temp
  X:01B6H         SYMBOL        temp1
  X:0062H         SYMBOL        aleatorio
  X:006DH         SYMBOL        suma
  X:007DH         SYMBOL        xxor
  X:008DH         SYMBOL        usuario1
  X:0098H         SYMBOL        vencimiento_password
  -------         ENDDO         
  C:571FH         LINE#         122
  C:572AH         LINE#         123
  C:572AH         LINE#         126
  C:573DH         LINE#         128
  C:5750H         LINE#         129
  C:5763H         LINE#         133
  C:5770H         LINE#         134
  C:578CH         LINE#         136
  C:578CH         LINE#         137
  C:5790H         LINE#         138
  C:5792H         LINE#         140
  C:5792H         LINE#         141
  C:5799H         LINE#         142
  C:5799H         LINE#         143
  C:57ACH         LINE#         144
  C:57C0H         LINE#         145
  C:57C0H         LINE#         146
  C:57ECH         LINE#         147
  C:57F7H         LINE#         148
  C:5804H         LINE#         149
  C:5822H         LINE#         150
  C:582DH         LINE#         151
  C:583AH         LINE#         152
  C:585EH         LINE#         153
  C:5866H         LINE#         154
  C:5866H         LINE#         155
  C:586BH         LINE#         156
  C:586BH         LINE#         157
  C:5884H         LINE#         158
  C:5884H         LINE#         159
  C:5890H         LINE#         161
  C:5890H         LINE#         162
  C:589FH         LINE#         163
  C:589FH         LINE#         164
  C:58ABH         LINE#         165
  C:58ABH         LINE#         166
  C:58C4H         LINE#         167
  C:58C4H         LINE#         168
  C:58CFH         LINE#         169
  C:58CFH         LINE#         170
  C:58E8H         LINE#         171
  C:58E8H         LINE#         172
  C:58F3H         LINE#         173
  C:58F3H         LINE#         174
  C:5908H         LINE#         176
  C:5911H         LINE#         177
  C:5920H         LINE#         179
BL51 BANKED LINKER/LOCATER V6.22.2.0                                                  06/11/2021  12:08:32  PAGE 67


  C:5926H         LINE#         180
  -------         ENDPROC       _HASH_ID
  -------         PROC          _LISTACOMANDOS
  X:0046H         SYMBOL        cmd
  -------         DO            
  X:0049H         SYMBOL        buf
  X:004CH         SYMBOL        i
  -------         ENDDO         
  C:B22EH         LINE#         187
  C:B239H         LINE#         188
  C:B239H         LINE#         192
  C:B24CH         LINE#         193
  C:B24CH         LINE#         194
  C:B264H         LINE#         195
  C:B27FH         LINE#         196
  C:B285H         LINE#         197
  C:B28DH         LINE#         199
  C:B28FH         LINE#         200
  -------         ENDPROC       _LISTACOMANDOS
  -------         PROC          L?0274
  -------         ENDPROC       L?0274
  -------         PROC          _VALIDARCLAVE
  X:005DH         SYMBOL        buffer
  -------         DO            
  X:0060H         SYMBOL        buf
  -------         ENDDO         
  C:B8A9H         LINE#         206
  C:B8B4H         LINE#         207
  C:B8B4H         LINE#         210
  C:B8C3H         LINE#         211
  C:B8DEH         LINE#         212
  C:B8E0H         LINE#         215
  C:B8E2H         LINE#         216
  -------         ENDPROC       _VALIDARCLAVE
  -------         PROC          L?0275
  -------         ENDPROC       L?0275
  -------         PROC          _GETCMD
  X:005DH         SYMBOL        in
  -------         DO            
  X:0060H         SYMBOL        tokens
  -------         ENDDO         
  C:B96BH         LINE#         223
  C:B976H         LINE#         224
  C:B976H         LINE#         225
  C:B989H         LINE#         226
  -------         ENDPROC       _GETCMD
  -------         PROC          L?0273
  -------         ENDPROC       L?0273
  -------         PROC          _GETOPTION
  X:0046H         SYMBOL        in
  -------         DO            
  X:0049H         SYMBOL        tokensSpace
  X:004DH         SYMBOL        tokensQuote
  -------         ENDDO         
  C:A4E3H         LINE#         232
  C:A4EEH         LINE#         233
  C:A4EEH         LINE#         234
BL51 BANKED LINKER/LOCATER V6.22.2.0                                                  06/11/2021  12:08:32  PAGE 68


  C:A501H         LINE#         235
  C:A514H         LINE#         238
  C:A526H         LINE#         239
  C:A532H         LINE#         242
  C:A539H         LINE#         243
  C:A546H         LINE#         245
  C:A55FH         LINE#         246
  -------         ENDPROC       _GETOPTION
  -------         PROC          DISPLAYCURSOR
  C:C150H         LINE#         251
  C:C150H         LINE#         252
  C:C150H         LINE#         253
  -------         ENDPROC       DISPLAYCURSOR
  C:ABC7H         SYMBOL        L?0272
  -------         PROC          L?0271
  -------         ENDPROC       L?0271
  C:ABC7H         SYMBOL        L?0272
  -------         PROC          _INGRESADATO
  X:0071H         SYMBOL        buffer
  X:0074H         SYMBOL        modo
  -------         DO            
  D:0006H         SYMBOL        i
  -------         ENDDO         
  C:ABCBH         LINE#         260
  C:ABD9H         LINE#         261
  C:ABD9H         LINE#         266
  C:ABD9H         LINE#         267
  C:ABEBH         LINE#         268
  C:ABF1H         LINE#         269
  C:ABF1H         LINE#         270
  C:AC0CH         LINE#         271
  C:AC0EH         LINE#         273
  C:AC0EH         LINE#         274
  C:AC13H         LINE#         275
  C:AC13H         LINE#         276
  C:AC24H         LINE#         277
  C:AC2EH         LINE#         278
  C:AC3DH         LINE#         280
  C:AC42H         LINE#         284
  -------         ENDPROC       _INGRESADATO
  -------         PROC          PROG_ID_CLIENTE
  -------         DO            
  X:0046H         SYMBOL        buffer
  X:0050H         SYMBOL        dataee
  -------         ENDDO         
  C:978AH         LINE#         301
  C:978AH         LINE#         302
  C:978AH         LINE#         306
  C:979CH         LINE#         307
  C:97B9H         LINE#         309
  C:97D0H         LINE#         311
  C:97D9H         LINE#         312
  C:97E0H         LINE#         313
  C:97F1H         LINE#         314
  C:97FAH         LINE#         316
  C:980CH         LINE#         317
  C:9829H         LINE#         318
BL51 BANKED LINKER/LOCATER V6.22.2.0                                                  06/11/2021  12:08:32  PAGE 69


  -------         ENDPROC       PROG_ID_CLIENTE
  -------         PROC          PROG_COD_PARK
  -------         DO            
  X:0046H         SYMBOL        buffer
  X:0050H         SYMBOL        dataee
  -------         ENDDO         
  C:949CH         LINE#         323
  C:949CH         LINE#         324
  C:949CH         LINE#         328
  C:94AFH         LINE#         329
  C:94CCH         LINE#         331
  C:94E3H         LINE#         333
  C:94ECH         LINE#         334
  C:94F7H         LINE#         335
  C:9508H         LINE#         336
  C:9512H         LINE#         338
  C:9525H         LINE#         339
  C:9542H         LINE#         340
  -------         ENDPROC       PROG_COD_PARK
  -------         PROC          PROG_TIEMPO_GRACIA
  -------         DO            
  X:0046H         SYMBOL        buffer
  X:0050H         SYMBOL        dataee
  -------         ENDDO         
  C:9559H         LINE#         345
  C:9559H         LINE#         346
  C:9559H         LINE#         350
  C:956CH         LINE#         351
  C:9589H         LINE#         353
  C:95A0H         LINE#         355
  C:95A9H         LINE#         356
  C:95B4H         LINE#         357
  C:95C5H         LINE#         358
  C:95CFH         LINE#         360
  C:95E2H         LINE#         361
  C:95FFH         LINE#         362
  -------         ENDPROC       PROG_TIEMPO_GRACIA
  -------         PROC          PROG_SIN_COBRO
  -------         DO            
  X:0046H         SYMBOL        buffer
  X:0050H         SYMBOL        dataee
  -------         ENDDO         
  C:6D22H         LINE#         368
  C:6D22H         LINE#         369
  C:6D22H         LINE#         375
  C:6D35H         LINE#         376
  C:6D52H         LINE#         377
  C:6D5CH         LINE#         378
  C:6D5CH         LINE#         379
  C:6D6FH         LINE#         380
  C:6D71H         LINE#         381
  C:6D7DH         LINE#         382
  C:6D7DH         LINE#         383
  C:6D90H         LINE#         384
  C:6D92H         LINE#         386
  C:6D92H         LINE#         387
  C:6DA9H         LINE#         388
BL51 BANKED LINKER/LOCATER V6.22.2.0                                                  06/11/2021  12:08:32  PAGE 70


  C:6DA9H         LINE#         390
  C:6DB2H         LINE#         391
  C:6DBDH         LINE#         392
  C:6DCEH         LINE#         393
  C:6DD8H         LINE#         395
  C:6DEBH         LINE#         396
  C:6E08H         LINE#         397
  C:6E12H         LINE#         398
  C:6E12H         LINE#         399
  C:6E25H         LINE#         400
  C:6E27H         LINE#         401
  C:6E33H         LINE#         402
  C:6E33H         LINE#         403
  C:6E46H         LINE#         404
  C:6E48H         LINE#         406
  C:6E48H         LINE#         407
  C:6E5FH         LINE#         408
  C:6E5FH         LINE#         410
  -------         ENDPROC       PROG_SIN_COBRO
  -------         PROC          PROG_DEBUG
  -------         DO            
  X:0046H         SYMBOL        buffer
  X:0050H         SYMBOL        dataee
  -------         ENDDO         
  C:7D1EH         LINE#         416
  C:7D1EH         LINE#         417
  C:7D1EH         LINE#         422
  C:7D31H         LINE#         423
  C:7D4EH         LINE#         424
  C:7D58H         LINE#         425
  C:7D58H         LINE#         426
  C:7D6BH         LINE#         427
  C:7D6DH         LINE#         429
  C:7D6DH         LINE#         430
  C:7D84H         LINE#         431
  C:7D84H         LINE#         433
  C:7D8DH         LINE#         434
  C:7D98H         LINE#         435
  C:7DA9H         LINE#         436
  C:7DB3H         LINE#         438
  C:7DC6H         LINE#         439
  C:7DE3H         LINE#         440
  C:7DEDH         LINE#         441
  C:7DEDH         LINE#         442
  C:7E00H         LINE#         443
  C:7E02H         LINE#         445
  C:7E02H         LINE#         446
  C:7E19H         LINE#         447
  C:7E19H         LINE#         448
  -------         ENDPROC       PROG_DEBUG
  -------         PROC          PROG_USE_LPR
  -------         DO            
  X:0046H         SYMBOL        buffer
  X:0050H         SYMBOL        dataee
  -------         ENDDO         
  C:7E1AH         LINE#         453
  C:7E1AH         LINE#         454
BL51 BANKED LINKER/LOCATER V6.22.2.0                                                  06/11/2021  12:08:32  PAGE 71


  C:7E1AH         LINE#         459
  C:7E2DH         LINE#         460
  C:7E4AH         LINE#         461
  C:7E54H         LINE#         462
  C:7E54H         LINE#         463
  C:7E67H         LINE#         464
  C:7E69H         LINE#         466
  C:7E69H         LINE#         467
  C:7E80H         LINE#         468
  C:7E80H         LINE#         470
  C:7E89H         LINE#         471
  C:7E94H         LINE#         472
  C:7EA5H         LINE#         473
  C:7EAFH         LINE#         475
  C:7EC2H         LINE#         476
  C:7EDFH         LINE#         477
  C:7EE9H         LINE#         478
  C:7EE9H         LINE#         479
  C:7EFCH         LINE#         480
  C:7EFEH         LINE#         482
  C:7EFEH         LINE#         483
  C:7F15H         LINE#         484
  C:7F15H         LINE#         485
  -------         ENDPROC       PROG_USE_LPR
  -------         PROC          TIPO_PANTALLA
  -------         DO            
  X:0046H         SYMBOL        buffer
  X:0050H         SYMBOL        dataee
  -------         ENDDO         
  C:7F16H         LINE#         492
  C:7F16H         LINE#         493
  C:7F16H         LINE#         498
  C:7F29H         LINE#         499
  C:7F46H         LINE#         500
  C:7F50H         LINE#         501
  C:7F50H         LINE#         502
  C:7F63H         LINE#         503
  C:7F65H         LINE#         505
  C:7F65H         LINE#         506
  C:7F7CH         LINE#         507
  C:7F7CH         LINE#         509
  C:7F85H         LINE#         510
  C:7F90H         LINE#         511
  C:7FA1H         LINE#         512
  C:7FABH         LINE#         514
  C:7FBEH         LINE#         515
  C:7FDBH         LINE#         516
  C:7FE5H         LINE#         517
  C:7FE5H         LINE#         518
  C:7FF8H         LINE#         519
  C:7FFAH         LINE#         521
  C:7FFAH         LINE#         522
  C:8011H         LINE#         523
  C:8011H         LINE#         525
  -------         ENDPROC       TIPO_PANTALLA
  -------         PROC          PROG_TARJETA_AUTOMATICA_O_BOTON
  -------         DO            
BL51 BANKED LINKER/LOCATER V6.22.2.0                                                  06/11/2021  12:08:32  PAGE 72


  X:0046H         SYMBOL        buffer
  X:0050H         SYMBOL        dataee
  -------         ENDDO         
  C:925BH         LINE#         526
  C:925BH         LINE#         527
  C:925BH         LINE#         532
  C:926EH         LINE#         533
  C:928BH         LINE#         534
  C:9297H         LINE#         535
  C:9297H         LINE#         536
  C:929BH         LINE#         537
  C:929DH         LINE#         539
  C:929DH         LINE#         540
  C:92A4H         LINE#         541
  C:92A4H         LINE#         543
  C:92ADH         LINE#         544
  C:92B8H         LINE#         545
  C:92C9H         LINE#         546
  C:92D3H         LINE#         548
  C:92E6H         LINE#         549
  C:9303H         LINE#         550
  C:930FH         LINE#         551
  C:930FH         LINE#         552
  C:9313H         LINE#         553
  C:9315H         LINE#         555
  C:9315H         LINE#         556
  C:931CH         LINE#         557
  C:931CH         LINE#         558
  -------         ENDPROC       PROG_TARJETA_AUTOMATICA_O_BOTON
  -------         PROC          PROG_ANTIPASSBACK
  -------         DO            
  X:0046H         SYMBOL        buffer
  X:0050H         SYMBOL        dataee
  -------         ENDDO         
  C:8012H         LINE#         559
  C:8012H         LINE#         560
  C:8012H         LINE#         565
  C:8025H         LINE#         566
  C:8042H         LINE#         567
  C:804CH         LINE#         568
  C:804CH         LINE#         569
  C:805FH         LINE#         570
  C:8061H         LINE#         572
  C:8061H         LINE#         573
  C:8078H         LINE#         574
  C:8078H         LINE#         576
  C:8081H         LINE#         577
  C:808CH         LINE#         578
  C:809DH         LINE#         579
  C:80A7H         LINE#         581
  C:80BAH         LINE#         582
  C:80D7H         LINE#         583
  C:80E1H         LINE#         584
  C:80E1H         LINE#         585
  C:80F4H         LINE#         586
  C:80F6H         LINE#         588
  C:80F6H         LINE#         589
BL51 BANKED LINKER/LOCATER V6.22.2.0                                                  06/11/2021  12:08:32  PAGE 73


  C:810DH         LINE#         590
  C:810DH         LINE#         591
  -------         ENDPROC       PROG_ANTIPASSBACK
  -------         PROC          PROG_PLACA
  -------         DO            
  X:0046H         SYMBOL        buffer
  X:0050H         SYMBOL        dataee
  -------         ENDDO         
  C:810EH         LINE#         592
  C:810EH         LINE#         593
  C:810EH         LINE#         598
  C:8121H         LINE#         599
  C:813EH         LINE#         600
  C:8148H         LINE#         601
  C:8148H         LINE#         602
  C:815BH         LINE#         603
  C:815DH         LINE#         605
  C:815DH         LINE#         606
  C:8174H         LINE#         607
  C:8174H         LINE#         609
  C:817DH         LINE#         610
  C:8188H         LINE#         611
  C:8199H         LINE#         612
  C:81A3H         LINE#         614
  C:81B6H         LINE#         615
  C:81D3H         LINE#         616
  C:81DDH         LINE#         617
  C:81DDH         LINE#         618
  C:81F0H         LINE#         619
  C:81F2H         LINE#         621
  C:81F2H         LINE#         622
  C:8209H         LINE#         623
  C:8209H         LINE#         624
  -------         ENDPROC       PROG_PLACA
  -------         PROC          PROG_ADDRESS_HIGH_BOARD
  -------         DO            
  X:0046H         SYMBOL        buffer
  X:0050H         SYMBOL        dataee
  -------         ENDDO         
  C:88ADH         LINE#         625
  C:88ADH         LINE#         626
  C:88ADH         LINE#         631
  C:88C0H         LINE#         632
  C:88DDH         LINE#         633
  C:88E7H         LINE#         634
  C:88E7H         LINE#         635
  C:88EBH         LINE#         636
  C:88EDH         LINE#         638
  C:88EDH         LINE#         639
  C:8904H         LINE#         640
  C:8904H         LINE#         642
  C:890DH         LINE#         643
  C:8918H         LINE#         644
  C:8929H         LINE#         645
  C:8933H         LINE#         647
  C:8946H         LINE#         648
  C:8963H         LINE#         649
BL51 BANKED LINKER/LOCATER V6.22.2.0                                                  06/11/2021  12:08:32  PAGE 74


  C:896DH         LINE#         650
  C:896DH         LINE#         651
  C:8971H         LINE#         652
  C:8973H         LINE#         654
  C:8973H         LINE#         655
  C:898AH         LINE#         656
  C:898AH         LINE#         657
  -------         ENDPROC       PROG_ADDRESS_HIGH_BOARD
  -------         PROC          ADDR_HORARIOS
  -------         DO            
  X:0074H         SYMBOL        ee_addr_horario
  -------         ENDDO         
  C:BDFBH         LINE#         659
  C:BDFBH         LINE#         660
  C:BDFBH         LINE#         663
  C:BE01H         LINE#         664
  C:BE05H         LINE#         665
  C:BE09H         LINE#         666
  C:BE0DH         LINE#         667
  C:BE11H         LINE#         668
  C:BE15H         LINE#         669
  C:BE19H         LINE#         670
  C:BE1DH         LINE#         671
  C:BE21H         LINE#         672
  C:BE25H         LINE#         673
  C:BE28H         LINE#         674
  C:BE2EH         LINE#         675
  -------         ENDPROC       ADDR_HORARIOS
  -------         PROC          _PROG_HORARIOS_ON_OFF
  X:0061H         SYMBOL        addr
  -------         DO            
  X:0063H         SYMBOL        buffer
  X:006DH         SYMBOL        dataee
  X:006FH         SYMBOL        habilitado
  -------         ENDDO         
  C:76BBH         LINE#         676
  C:76C5H         LINE#         677
  C:76C5H         LINE#         680
  C:76D4H         LINE#         681
  C:76F1H         LINE#         682
  C:76FBH         LINE#         683
  C:76FBH         LINE#         684
  C:770EH         LINE#         685
  C:7710H         LINE#         687
  C:7710H         LINE#         688
  C:7727H         LINE#         689
  C:7727H         LINE#         690
  C:7730H         LINE#         691
  C:773BH         LINE#         692
  C:774CH         LINE#         693
  C:775BH         LINE#         695
  C:7772H         LINE#         696
  C:778FH         LINE#         697
  C:779CH         LINE#         698
  C:779CH         LINE#         699
  C:779FH         LINE#         700
  C:77B2H         LINE#         701
BL51 BANKED LINKER/LOCATER V6.22.2.0                                                  06/11/2021  12:08:32  PAGE 75


  C:77B4H         LINE#         703
  C:77B4H         LINE#         704
  C:77B9H         LINE#         705
  C:77CEH         LINE#         706
  C:77CEH         LINE#         707
  C:77D4H         LINE#         708
  -------         ENDPROC       _PROG_HORARIOS_ON_OFF
  -------         PROC          _PROG_HORARIO_DESDE_HASTA
  X:0061H         SYMBOL        addr
  -------         DO            
  X:0063H         SYMBOL        buffer
  D:0007H         SYMBOL        dataee
  -------         ENDDO         
  C:5927H         LINE#         709
  C:592FH         LINE#         710
  C:592FH         LINE#         715
  C:5938H         LINE#         716
  C:593BH         LINE#         717
  C:5944H         LINE#         718
  C:595CH         LINE#         719
  C:596FH         LINE#         720
  C:597DH         LINE#         721
  C:5995H         LINE#         722
  C:59A8H         LINE#         723
  C:59B6H         LINE#         724
  C:59CEH         LINE#         725
  C:59E1H         LINE#         726
  C:59EFH         LINE#         727
  C:5A07H         LINE#         728
  C:5A1AH         LINE#         729
  C:5A28H         LINE#         733
  C:5A31H         LINE#         734
  C:5A34H         LINE#         736
  C:5A3DH         LINE#         738
  C:5A55H         LINE#         739
  C:5A68H         LINE#         740
  C:5A76H         LINE#         741
  C:5A8EH         LINE#         742
  C:5AA1H         LINE#         743
  C:5AAFH         LINE#         744
  C:5AC7H         LINE#         745
  C:5ADAH         LINE#         746
  C:5AE8H         LINE#         747
  C:5B00H         LINE#         748
  C:5B13H         LINE#         749
  -------         ENDPROC       _PROG_HORARIO_DESDE_HASTA
  -------         PROC          _VER_HORARIO_DESDE_HASTA
  X:0074H         SYMBOL        addr
  -------         DO            
  D:0007H         SYMBOL        dataee
  -------         ENDDO         
  C:77D5H         LINE#         751
  C:77DDH         LINE#         752
  C:77DDH         LINE#         754
  C:77E6H         LINE#         755
  C:77F9H         LINE#         756
  C:7807H         LINE#         757
BL51 BANKED LINKER/LOCATER V6.22.2.0                                                  06/11/2021  12:08:32  PAGE 76


  C:781AH         LINE#         758
  C:7828H         LINE#         759
  C:783BH         LINE#         760
  C:7849H         LINE#         761
  C:785CH         LINE#         762
  C:786AH         LINE#         764
  C:787DH         LINE#         765
  C:788BH         LINE#         767
  C:789EH         LINE#         768
  C:78ACH         LINE#         770
  C:78BFH         LINE#         771
  C:78CDH         LINE#         773
  C:78E0H         LINE#         774
  -------         ENDPROC       _VER_HORARIO_DESDE_HASTA
  -------         PROC          _PROG_HORARIO_DIAS
  X:0061H         SYMBOL        addr
  -------         DO            
  X:0063H         SYMBOL        buffer
  X:006DH         SYMBOL        dataee
  X:006EH         SYMBOL        j
  X:006FH         SYMBOL        temp
  -------         ENDDO         
  C:4A9EH         LINE#         776
  C:4AA6H         LINE#         777
  C:4AA6H         LINE#         781
  C:4AAFH         LINE#         782
  C:4AB8H         LINE#         783
  C:4AC1H         LINE#         784
  C:4ACCH         LINE#         787
  C:4AD5H         LINE#         789
  C:4AEBH         LINE#         790
  C:4AEBH         LINE#         792
  C:4AFEH         LINE#         793
  C:4AFEH         LINE#         794
  C:4B07H         LINE#         796
  C:4B1CH         LINE#         797
  C:4B34H         LINE#         798
  C:4B41H         LINE#         799
  C:4B41H         LINE#         801
  C:4B57H         LINE#         802
  C:4B57H         LINE#         803
  C:4B60H         LINE#         804
  C:4B75H         LINE#         805
  C:4B8DH         LINE#         806
  C:4B9AH         LINE#         807
  C:4B9AH         LINE#         809
  C:4BB0H         LINE#         810
  C:4BB0H         LINE#         811
  C:4BB9H         LINE#         812
  C:4BCEH         LINE#         813
  C:4BE6H         LINE#         814
  C:4BF3H         LINE#         815
  C:4BF3H         LINE#         817
  C:4C09H         LINE#         818
  C:4C09H         LINE#         819
  C:4C12H         LINE#         820
  C:4C27H         LINE#         821
BL51 BANKED LINKER/LOCATER V6.22.2.0                                                  06/11/2021  12:08:32  PAGE 77


  C:4C3FH         LINE#         822
  C:4C4CH         LINE#         823
  C:4C4CH         LINE#         825
  C:4C62H         LINE#         826
  C:4C62H         LINE#         827
  C:4C6BH         LINE#         828
  C:4C80H         LINE#         829
  C:4C98H         LINE#         830
  C:4CA5H         LINE#         831
  C:4CA5H         LINE#         833
  C:4CBBH         LINE#         834
  C:4CBBH         LINE#         835
  C:4CC4H         LINE#         836
  C:4CD9H         LINE#         837
  C:4CF1H         LINE#         838
  C:4CFEH         LINE#         839
  C:4CFEH         LINE#         841
  C:4D14H         LINE#         842
  C:4D14H         LINE#         843
  C:4D1DH         LINE#         844
  C:4D2CH         LINE#         845
  C:4D3EH         LINE#         846
  C:4D4BH         LINE#         847
  C:4D4BH         LINE#         848
  C:4D54H         LINE#         850
  -------         ENDPROC       _PROG_HORARIO_DIAS
  -------         PROC          _VER_HORARIO_DIAS
  X:0074H         SYMBOL        addr
  -------         DO            
  X:0076H         SYMBOL        dataee
  -------         ENDDO         
  C:7593H         LINE#         851
  C:759BH         LINE#         852
  C:759BH         LINE#         855
  C:75ABH         LINE#         856
  C:75B1H         LINE#         857
  C:75B1H         LINE#         858
  C:75B5H         LINE#         859
  C:75B7H         LINE#         861
  C:75B7H         LINE#         862
  C:75BEH         LINE#         863
  C:75BEH         LINE#         866
  C:75D6H         LINE#         867
  C:75DCH         LINE#         868
  C:75DCH         LINE#         869
  C:75E0H         LINE#         870
  C:75E2H         LINE#         872
  C:75E2H         LINE#         873
  C:75E9H         LINE#         874
  C:75E9H         LINE#         877
  C:7601H         LINE#         878
  C:7607H         LINE#         879
  C:7607H         LINE#         880
  C:760BH         LINE#         881
  C:760DH         LINE#         883
  C:760DH         LINE#         884
  C:7614H         LINE#         885
BL51 BANKED LINKER/LOCATER V6.22.2.0                                                  06/11/2021  12:08:32  PAGE 78


  C:7614H         LINE#         887
  C:762CH         LINE#         888
  C:7632H         LINE#         889
  C:7632H         LINE#         890
  C:7636H         LINE#         891
  C:7638H         LINE#         893
  C:7638H         LINE#         894
  C:763FH         LINE#         895
  C:763FH         LINE#         897
  C:7657H         LINE#         898
  C:765DH         LINE#         899
  C:765DH         LINE#         900
  C:7661H         LINE#         901
  C:7663H         LINE#         903
  C:7663H         LINE#         904
  C:766AH         LINE#         905
  C:766AH         LINE#         908
  C:7682H         LINE#         909
  C:7688H         LINE#         910
  C:7688H         LINE#         911
  C:768CH         LINE#         912
  C:768EH         LINE#         914
  C:768EH         LINE#         915
  C:7695H         LINE#         916
  C:7695H         LINE#         918
  C:76A7H         LINE#         919
  C:76ADH         LINE#         920
  C:76ADH         LINE#         921
  C:76B1H         LINE#         922
  C:76B3H         LINE#         924
  C:76B3H         LINE#         925
  C:76BAH         LINE#         926
  C:76BAH         LINE#         927
  -------         ENDPROC       _VER_HORARIO_DIAS
  -------         PROC          PROG_HORARIOS
  -------         DO            
  X:0046H         SYMBOL        buffer
  X:0050H         SYMBOL        ee_addr_horario
  X:005BH         SYMBOL        addr
  X:005DH         SYMBOL        temp
  X:005FH         SYMBOL        dataee
  X:0060H         SYMBOL        j
  -------         ENDDO         
  C:6BDDH         LINE#         928
  C:6BDDH         LINE#         929
  C:6BDDH         LINE#         938
  C:6BE9H         LINE#         942
  C:6BF2H         LINE#         943
  C:6BFDH         LINE#         945
  C:6C0CH         LINE#         949
  C:6C22H         LINE#         950
  C:6C28H         LINE#         954
  C:6C36H         LINE#         955
  C:6C3EH         LINE#         956
  C:6C3EH         LINE#         958
  C:6C4DH         LINE#         959
  C:6C61H         LINE#         960
BL51 BANKED LINKER/LOCATER V6.22.2.0                                                  06/11/2021  12:08:32  PAGE 79


  C:6C61H         LINE#         961
  C:6C75H         LINE#         962
  C:6C7DH         LINE#         964
  C:6C8DH         LINE#         967
  C:6C90H         LINE#         971
  C:6C9BH         LINE#         974
  C:6CA4H         LINE#         975
  C:6CAFH         LINE#         976
  C:6CBEH         LINE#         977
  C:6CD1H         LINE#         979
  C:6CE9H         LINE#         980
  C:6D03H         LINE#         981
  C:6D0BH         LINE#         982
  C:6D0BH         LINE#         984
  C:6D19H         LINE#         985
  C:6D21H         LINE#         986
  C:6D21H         LINE#         987
  C:6D21H         LINE#         989
  -------         ENDPROC       PROG_HORARIOS
  -------         PROC          PROG_VALIDAR_TIPO_VEHICULO_MENSUAL
  -------         DO            
  X:0046H         SYMBOL        buffer
  X:0050H         SYMBOL        dataee
  -------         ENDDO         
  C:820AH         LINE#         990
  C:820AH         LINE#         991
  C:820AH         LINE#         996
  C:821DH         LINE#         997
  C:823AH         LINE#         998
  C:8244H         LINE#         999
  C:8244H         LINE#         1000
  C:8257H         LINE#         1001
  C:8259H         LINE#         1003
  C:8259H         LINE#         1004
  C:8270H         LINE#         1005
  C:8270H         LINE#         1007
  C:8279H         LINE#         1008
  C:8284H         LINE#         1009
  C:8295H         LINE#         1010
  C:829FH         LINE#         1012
  C:82B2H         LINE#         1013
  C:82CFH         LINE#         1014
  C:82D9H         LINE#         1015
  C:82D9H         LINE#         1016
  C:82ECH         LINE#         1017
  C:82EEH         LINE#         1019
  C:82EEH         LINE#         1020
  C:8305H         LINE#         1021
  C:8305H         LINE#         1022
  -------         ENDPROC       PROG_VALIDAR_TIPO_VEHICULO_MENSUAL
  -------         PROC          PROG_APB_MENSUAL
  -------         DO            
  X:0046H         SYMBOL        buffer
  X:0050H         SYMBOL        dataee
  -------         ENDDO         
  C:8306H         LINE#         1023
  C:8306H         LINE#         1024
BL51 BANKED LINKER/LOCATER V6.22.2.0                                                  06/11/2021  12:08:32  PAGE 80


  C:8306H         LINE#         1029
  C:8319H         LINE#         1030
  C:8336H         LINE#         1031
  C:8340H         LINE#         1032
  C:8340H         LINE#         1033
  C:8353H         LINE#         1034
  C:8355H         LINE#         1036
  C:8355H         LINE#         1037
  C:836CH         LINE#         1038
  C:836CH         LINE#         1040
  C:8375H         LINE#         1041
  C:8380H         LINE#         1042
  C:8391H         LINE#         1043
  C:839BH         LINE#         1045
  C:83AEH         LINE#         1046
  C:83CBH         LINE#         1047
  C:83D5H         LINE#         1048
  C:83D5H         LINE#         1049
  C:83E8H         LINE#         1050
  C:83EAH         LINE#         1052
  C:83EAH         LINE#         1053
  C:8401H         LINE#         1054
  C:8401H         LINE#         1055
  -------         ENDPROC       PROG_APB_MENSUAL
  -------         PROC          PROG_FECHA_VENCIMIENTO
  -------         DO            
  X:0046H         SYMBOL        buffer
  X:0051H         SYMBOL        cmd
  X:0054H         SYMBOL        fecha
  X:005BH         SYMBOL        dataee
  -------         ENDDO         
  C:5B21H         LINE#         1057
  C:5B21H         LINE#         1058
  C:5B21H         LINE#         1065
  C:5B2EH         LINE#         1066
  C:5B45H         LINE#         1069
  C:5B5CH         LINE#         1071
  C:5B5CH         LINE#         1072
  C:5B65H         LINE#         1073
  C:5B72H         LINE#         1074
  C:5B89H         LINE#         1075
  C:5B9BH         LINE#         1076
  C:5BA4H         LINE#         1081
  C:5BAFH         LINE#         1082
  C:5BC3H         LINE#         1083
  C:5BD0H         LINE#         1085
  C:5BD9H         LINE#         1088
  C:5BE2H         LINE#         1089
  C:5BEDH         LINE#         1090
  C:5C04H         LINE#         1092
  C:5C0CH         LINE#         1093
  C:5C14H         LINE#         1094
  C:5C17H         LINE#         1096
  C:5C28H         LINE#         1097
  C:5C39H         LINE#         1099
  C:5C48H         LINE#         1100
  C:5C50H         LINE#         1101
BL51 BANKED LINKER/LOCATER V6.22.2.0                                                  06/11/2021  12:08:32  PAGE 81


  C:5C58H         LINE#         1102
  C:5C5BH         LINE#         1103
  C:5C6CH         LINE#         1104
  C:5C7DH         LINE#         1105
  C:5C8CH         LINE#         1106
  C:5C94H         LINE#         1107
  C:5C9CH         LINE#         1108
  C:5C9FH         LINE#         1109
  C:5CB0H         LINE#         1110
  C:5CC1H         LINE#         1111
  C:5CD0H         LINE#         1112
  C:5CDBH         LINE#         1114
  C:5CE8H         LINE#         1116
  C:5CFFH         LINE#         1117
  -------         ENDPROC       PROG_FECHA_VENCIMIENTO
  -------         PROC          VER_HORARIO
  -------         DO            
  X:0059H         SYMBOL        buffer
  X:0063H         SYMBOL        ee_addr_horario
  X:006EH         SYMBOL        conta
  X:006FH         SYMBOL        addr
  X:0071H         SYMBOL        temp
  X:0073H         SYMBOL        dataee
  -------         ENDDO         
  C:70DAH         LINE#         1120
  C:70DAH         LINE#         1121
  C:70DAH         LINE#         1130
  C:70E6H         LINE#         1131
  C:70FCH         LINE#         1132
  C:70FCH         LINE#         1134
  C:710CH         LINE#         1137
  C:7125H         LINE#         1138
  C:712BH         LINE#         1141
  C:7139H         LINE#         1142
  C:7148H         LINE#         1143
  C:7162H         LINE#         1144
  C:716DH         LINE#         1145
  C:716DH         LINE#         1146
  C:7176H         LINE#         1148
  C:717FH         LINE#         1149
  C:718FH         LINE#         1150
  C:7192H         LINE#         1152
  C:719DH         LINE#         1153
  C:71B5H         LINE#         1154
  C:71CFH         LINE#         1155
  C:71D9H         LINE#         1156
  C:71D9H         LINE#         1157
  C:71E0H         LINE#         1159
  C:71EEH         LINE#         1160
  C:71F6H         LINE#         1161
  C:71F8H         LINE#         1163
  C:71F8H         LINE#         1164
  C:71FCH         LINE#         1165
  C:71FCH         LINE#         1166
  C:71FEH         LINE#         1168
  C:71FEH         LINE#         1169
  C:7207H         LINE#         1170
BL51 BANKED LINKER/LOCATER V6.22.2.0                                                  06/11/2021  12:08:32  PAGE 82


  C:7207H         LINE#         1172
  C:7210H         LINE#         1175
  -------         ENDPROC       VER_HORARIO
  -------         PROC          VER_PROG
  -------         DO            
  X:0046H         SYMBOL        buffer
  X:0050H         SYMBOL        dataee
  X:0052H         SYMBOL        fecha
  -------         ENDDO         
  C:444FH         LINE#         1176
  C:444FH         LINE#         1177
  C:444FH         LINE#         1183
  C:4461H         LINE#         1184
  C:447EH         LINE#         1186
  C:4495H         LINE#         1188
  C:44A8H         LINE#         1189
  C:44C5H         LINE#         1191
  C:44DCH         LINE#         1193
  C:44EFH         LINE#         1194
  C:450CH         LINE#         1195
  C:451AH         LINE#         1196
  C:451AH         LINE#         1197
  C:451EH         LINE#         1198
  C:4520H         LINE#         1200
  C:4520H         LINE#         1201
  C:4527H         LINE#         1202
  C:4527H         LINE#         1204
  C:453AH         LINE#         1205
  C:4557H         LINE#         1206
  C:4563H         LINE#         1207
  C:4563H         LINE#         1208
  C:4567H         LINE#         1209
  C:4569H         LINE#         1211
  C:4569H         LINE#         1212
  C:4570H         LINE#         1213
  C:4570H         LINE#         1215
  C:4583H         LINE#         1216
  C:45A0H         LINE#         1217
  C:45ACH         LINE#         1218
  C:45ACH         LINE#         1219
  C:45B0H         LINE#         1220
  C:45B2H         LINE#         1222
  C:45B2H         LINE#         1223
  C:45B9H         LINE#         1224
  C:45B9H         LINE#         1226
  C:45CCH         LINE#         1227
  C:45E9H         LINE#         1228
  C:45F5H         LINE#         1229
  C:45F5H         LINE#         1230
  C:45F9H         LINE#         1231
  C:45FBH         LINE#         1233
  C:45FBH         LINE#         1234
  C:4602H         LINE#         1235
  C:4602H         LINE#         1237
  C:4615H         LINE#         1238
  C:4632H         LINE#         1239
  C:463EH         LINE#         1240
BL51 BANKED LINKER/LOCATER V6.22.2.0                                                  06/11/2021  12:08:32  PAGE 83


  C:463EH         LINE#         1241
  C:4642H         LINE#         1242
  C:4644H         LINE#         1244
  C:4644H         LINE#         1245
  C:464BH         LINE#         1246
  C:464BH         LINE#         1248
  C:465EH         LINE#         1249
  C:467BH         LINE#         1250
  C:4687H         LINE#         1251
  C:4687H         LINE#         1252
  C:468BH         LINE#         1253
  C:468DH         LINE#         1255
  C:468DH         LINE#         1256
  C:4694H         LINE#         1257
  C:4694H         LINE#         1260
  C:46A7H         LINE#         1261
  C:46C4H         LINE#         1263
  C:46DBH         LINE#         1265
  C:46DEH         LINE#         1269
  C:46F1H         LINE#         1270
  C:470EH         LINE#         1271
  C:471AH         LINE#         1272
  C:471AH         LINE#         1273
  C:471EH         LINE#         1274
  C:4720H         LINE#         1276
  C:4720H         LINE#         1277
  C:4727H         LINE#         1278
  C:4727H         LINE#         1280
  C:473AH         LINE#         1281
  C:4757H         LINE#         1282
  C:4763H         LINE#         1283
  C:4763H         LINE#         1284
  C:4767H         LINE#         1285
  C:4769H         LINE#         1287
  C:4769H         LINE#         1288
  C:4770H         LINE#         1289
  C:4770H         LINE#         1291
  C:477DH         LINE#         1293
  C:4794H         LINE#         1294
  C:47ABH         LINE#         1297
  C:47B7H         LINE#         1298
  -------         ENDPROC       VER_PROG
  -------         PROC          SHOW
  C:A154H         LINE#         1305
  C:A154H         LINE#         1306
  C:A154H         LINE#         1307
  C:A15DH         LINE#         1308
  C:A166H         LINE#         1309
  C:A16FH         LINE#         1310
  C:A178H         LINE#         1311
  C:A181H         LINE#         1312
  C:A18AH         LINE#         1313
  C:A193H         LINE#         1314
  C:A19CH         LINE#         1315
  C:A1A5H         LINE#         1316
  C:A1AEH         LINE#         1317
  C:A1B7H         LINE#         1318
BL51 BANKED LINKER/LOCATER V6.22.2.0                                                  06/11/2021  12:08:32  PAGE 84


  C:A1C0H         LINE#         1319
  C:A1C9H         LINE#         1320
  C:A1D2H         LINE#         1321
  C:A1DBH         LINE#         1322
  C:A1E4H         LINE#         1323
  -------         ENDPROC       SHOW
  -------         PROC          FIRST_CLAVE
  -------         DO            
  X:0046H         SYMBOL        clave
  -------         ENDDO         
  C:B672H         LINE#         1330
  C:B672H         LINE#         1331
  C:B672H         LINE#         1335
  C:B67BH         LINE#         1336
  C:B680H         LINE#         1337
  C:B692H         LINE#         1338
  C:B69FH         LINE#         1339
  C:B6A5H         LINE#         1340
  C:B6A8H         LINE#         1341
  C:B6ABH         LINE#         1342
  C:B6ADH         LINE#         1344
  -------         ENDPROC       FIRST_CLAVE
  -------         PROC          MENU
  -------         DO            
  X:0001H         SYMBOL        cmd
  X:0004H         SYMBOL        option1
  X:0007H         SYMBOL        option2
  X:000AH         SYMBOL        opt_buffer
  X:0032H         SYMBOL        buffer
  -------         ENDDO         
  C:54F3H         LINE#         1348
  C:54F3H         LINE#         1349
  C:54F3H         LINE#         1358
  C:54FCH         LINE#         1363
  C:5508H         LINE#         1364
  C:5508H         LINE#         1365
  C:550BH         LINE#         1366
  C:5515H         LINE#         1369
  C:5515H         LINE#         1371
  C:5515H         LINE#         1372
  C:551EH         LINE#         1373
  C:552BH         LINE#         1374
  C:5530H         LINE#         1375
  C:5546H         LINE#         1376
  C:5558H         LINE#         1377
  C:5561H         LINE#         1382
  C:556CH         LINE#         1383
  C:557AH         LINE#         1384
  C:5587H         LINE#         1386
  C:5590H         LINE#         1390
  C:5593H         LINE#         1391
  C:5593H         LINE#         1392
  C:5593H         LINE#         1393
  C:5596H         LINE#         1396
  C:55A1H         LINE#         1397
  C:55AFH         LINE#         1398
  C:55C3H         LINE#         1399
BL51 BANKED LINKER/LOCATER V6.22.2.0                                                  06/11/2021  12:08:32  PAGE 85


  C:55D7H         LINE#         1404
  C:55EDH         LINE#         1405
  C:55EDH         LINE#         1407
  C:55FCH         LINE#         1408
  C:55FEH         LINE#         1409
  C:560EH         LINE#         1410
  C:560EH         LINE#         1412
  C:561DH         LINE#         1413
  C:563BH         LINE#         1414
  C:563BH         LINE#         1420
  C:564EH         LINE#         1421
  C:564EH         LINE#         1422
  C:5697H         LINE#         1423
  C:5697H         LINE#         1424
  C:5697H         LINE#         1425
  C:569AH         LINE#         1427
  C:569DH         LINE#         1429
  C:569DH         LINE#         1430
  C:56A0H         LINE#         1431
  C:56A3H         LINE#         1432
  C:56A3H         LINE#         1433
  C:56A6H         LINE#         1434
  C:56A9H         LINE#         1435
  C:56A9H         LINE#         1436
  C:56ACH         LINE#         1437
  C:56AFH         LINE#         1438
  C:56AFH         LINE#         1439
  C:56B2H         LINE#         1440
  C:56B5H         LINE#         1441
  C:56B5H         LINE#         1442
  C:56B8H         LINE#         1443
  C:56BBH         LINE#         1444
  C:56BBH         LINE#         1445
  C:56BEH         LINE#         1446
  C:56C1H         LINE#         1447
  C:56C1H         LINE#         1448
  C:56C4H         LINE#         1449
  C:56C7H         LINE#         1450
  C:56C7H         LINE#         1451
  C:56CAH         LINE#         1452
  C:56CDH         LINE#         1453
  C:56CDH         LINE#         1454
  C:56D0H         LINE#         1455
  C:56D3H         LINE#         1456
  C:56D3H         LINE#         1457
  C:56D6H         LINE#         1458
  C:56D9H         LINE#         1459
  C:56D9H         LINE#         1460
  C:56DCH         LINE#         1461
  C:56DFH         LINE#         1462
  C:56DFH         LINE#         1463
  C:56E2H         LINE#         1464
  C:56E5H         LINE#         1465
  C:56E5H         LINE#         1466
  C:56E8H         LINE#         1467
  C:56EBH         LINE#         1468
  C:56EBH         LINE#         1469
BL51 BANKED LINKER/LOCATER V6.22.2.0                                                  06/11/2021  12:08:32  PAGE 86


  C:56EEH         LINE#         1470
  C:56F1H         LINE#         1471
  C:56F1H         LINE#         1472
  C:56F4H         LINE#         1473
  C:56F7H         LINE#         1474
  C:56F7H         LINE#         1476
  C:56F7H         LINE#         1477
  C:56F7H         LINE#         1478
  C:56FAH         LINE#         1479
  C:56FDH         LINE#         1482
  C:56FDH         LINE#         1483
  C:571BH         LINE#         1484
  C:571EH         LINE#         1485
  C:571EH         LINE#         1486
  C:571EH         LINE#         1487
  C:571EH         LINE#         1488
  -------         ENDPROC       MENU
  -------         ENDMOD        PROG

  -------         MODULE        PTO_PARALELO
  C:0000H         SYMBOL        _ICE_DUMMY_
  D:0080H         PUBLIC        P0
  D:00A0H         PUBLIC        P2
  D:00B0H         PUBLIC        P3
  B:0080H.2       PUBLIC        led_err_imp
  C:6F9EH         PUBLIC        load_and_send_id_cod
  C:A1EDH         PUBLIC        _recibe_port
  B:00B0H.2       PUBLIC        ready
  B:0080H.6       PUBLIC        rx_in_data
  C:C1F2H         PUBLIC        Pulso_Bus
  C:A799H         PUBLIC        _send_portERR
  B:00B0H.3       PUBLIC        busy
  C:B592H         PUBLIC        load_and_send_info_reloj
  C:98F5H         PUBLIC        _send_port
  B:00B0H.4       PUBLIC        port_clk
  C:C26DH         PUBLIC        cond_ini_pto
  -------         PROC          _RECIBE_PORT
  X:0001H         SYMBOL        buffer_port
  -------         DO            
  D:0006H         SYMBOL        count
  X:0004H         SYMBOL        time_out
  X:0005H         SYMBOL        num_data
  X:0006H         SYMBOL        T_ANCHO
  X:0008H         SYMBOL        data_temp
  -------         ENDDO         
  C:A1EDH         LINE#         60
  C:A1F8H         LINE#         61
  C:A1F8H         LINE#         65
  C:A201H         LINE#         66
  C:A204H         LINE#         69
  C:A207H         LINE#         70
  C:A207H         LINE#         72
  C:A20AH         LINE#         73
  C:A20FH         LINE#         74
  C:A211H         LINE#         75
  C:A215H         LINE#         76
  C:A217H         LINE#         79
BL51 BANKED LINKER/LOCATER V6.22.2.0                                                  06/11/2021  12:08:32  PAGE 87


  C:A21CH         LINE#         80
  C:A225H         LINE#         81
  C:A225H         LINE#         82
  C:A228H         LINE#         83
  C:A228H         LINE#         85
  C:A22DH         LINE#         86
  C:A231H         LINE#         87
  C:A231H         LINE#         88
  C:A233H         LINE#         89
  C:A235H         LINE#         90
  C:A235H         LINE#         91
  C:A235H         LINE#         93
  C:A235H         LINE#         94
  C:A242H         LINE#         95
  C:A242H         LINE#         97
  C:A245H         LINE#         98
  C:A245H         LINE#         100
  C:A24BH         LINE#         102
  C:A24DH         LINE#         103
  C:A261H         LINE#         104
  C:A26BH         LINE#         105
  C:A271H         LINE#         106
  C:A277H         LINE#         107
  C:A279H         LINE#         108
  C:A279H         LINE#         109
  C:A279H         LINE#         110
  C:A279H         LINE#         113
  C:A27BH         LINE#         114
  C:A27DH         LINE#         115
  C:A27DH         LINE#         116
  C:A280H         LINE#         118
  C:A285H         LINE#         119
  -------         ENDPROC       _RECIBE_PORT
  -------         PROC          _SEND_PORT
  X:0016H         SYMBOL        buffer_port
  X:0019H         SYMBOL        length_char
  -------         DO            
  X:001AH         SYMBOL        cont
  X:001EH         SYMBOL        timeOut
  X:001FH         SYMBOL        length
  -------         ENDDO         
  C:98F5H         LINE#         126
  C:9903H         LINE#         127
  C:9903H         LINE#         132
  C:9907H         LINE#         134
  C:9909H         LINE#         135
  C:990BH         LINE#         136
  C:990DH         LINE#         137
  C:9912H         LINE#         138
  C:9914H         LINE#         139
  C:991EH         LINE#         141
  C:9927H         LINE#         142
  C:9927H         LINE#         143
  C:9929H         LINE#         144
  C:992BH         LINE#         145
  C:994FH         LINE#         146
  C:9963H         LINE#         147
BL51 BANKED LINKER/LOCATER V6.22.2.0                                                  06/11/2021  12:08:32  PAGE 88


  C:9963H         LINE#         148
  C:9966H         LINE#         149
  C:9968H         LINE#         150
  C:9968H         LINE#         151
  C:996AH         LINE#         152
  C:9973H         LINE#         153
  C:9973H         LINE#         157
  C:9973H         LINE#         159
  C:9983H         LINE#         160
  C:9986H         LINE#         161
  C:9990H         LINE#         163
  C:9996H         LINE#         164
  C:9999H         LINE#         166
  C:9999H         LINE#         168
  C:999CH         LINE#         169
  C:999EH         LINE#         170
  C:99A0H         LINE#         171
  C:99A2H         LINE#         172
  -------         ENDPROC       _SEND_PORT
  -------         PROC          PULSO_BUS
  C:C1F2H         LINE#         180
  C:C1F2H         LINE#         181
  C:C1F2H         LINE#         182
  C:C1F4H         LINE#         183
  C:C1FBH         LINE#         184
  C:C1FDH         LINE#         185
  -------         ENDPROC       PULSO_BUS
  -------         PROC          _SEND_PORTERR
  X:002AH         SYMBOL        cod_err
  -------         DO            
  X:002BH         SYMBOL        timeOut
  X:002CH         SYMBOL        cont
  -------         ENDDO         
  C:A799H         LINE#         190
  C:A79FH         LINE#         191
  C:A79FH         LINE#         195
  C:A7A1H         LINE#         196
  C:A7A3H         LINE#         197
  C:A7A6H         LINE#         198
  C:A7AEH         LINE#         200
  C:A7B0H         LINE#         201
  C:A7B2H         LINE#         202
  C:A7BBH         LINE#         203
  C:A7BBH         LINE#         204
  C:A7DDH         LINE#         205
  C:A7F1H         LINE#         206
  C:A7F1H         LINE#         207
  C:A7F6H         LINE#         208
  C:A7F6H         LINE#         209
  C:A7F8H         LINE#         210
  C:A801H         LINE#         211
  C:A801H         LINE#         212
  C:A807H         LINE#         213
  C:A80AH         LINE#         214
  C:A80AH         LINE#         215
  C:A80CH         LINE#         216
  C:A80EH         LINE#         217
BL51 BANKED LINKER/LOCATER V6.22.2.0                                                  06/11/2021  12:08:32  PAGE 89


  C:A810H         LINE#         219
  C:A813H         LINE#         221
  C:A81AH         LINE#         222
  -------         ENDPROC       _SEND_PORTERR
  -------         PROC          COND_INI_PTO
  C:C26DH         LINE#         228
  C:C26DH         LINE#         229
  C:C26DH         LINE#         231
  C:C26FH         LINE#         232
  C:C271H         LINE#         233
  C:C273H         LINE#         234
  C:C276H         LINE#         235
  -------         ENDPROC       COND_INI_PTO
  -------         PROC          LOAD_AND_SEND_INFO_RELOJ
  -------         DO            
  X:0002H         SYMBOL        buffer_info
  -------         ENDDO         
  C:B592H         LINE#         240
  C:B592H         LINE#         241
  C:B592H         LINE#         244
  C:B598H         LINE#         246
  C:B59CH         LINE#         252
  C:B5A5H         LINE#         255
  C:B5AFH         LINE#         256
  C:B5B3H         LINE#         257
  C:B5B6H         LINE#         258
  C:B5BFH         LINE#         259
  C:B5D0H         LINE#         260
  C:B5D3H         LINE#         261
  -------         ENDPROC       LOAD_AND_SEND_INFO_RELOJ
  -------         PROC          LOAD_AND_SEND_ID_COD
  -------         DO            
  X:0002H         SYMBOL        buffer_info
  X:000DH         SYMBOL        buf
  X:0011H         SYMBOL        i
  X:0012H         SYMBOL        ID_CLIENTE
  X:0014H         SYMBOL        COD_PARK
  -------         ENDDO         
  C:6F9EH         LINE#         268
  C:6F9EH         LINE#         269
  C:6F9EH         LINE#         277
  C:6FAEH         LINE#         279
  C:6FBFH         LINE#         281
  C:6FC5H         LINE#         282
  C:6FC9H         LINE#         283
  C:6FCCH         LINE#         285
  C:6FF2H         LINE#         286
  C:7009H         LINE#         289
  C:7020H         LINE#         292
  C:7046H         LINE#         293
  C:705DH         LINE#         295
  C:7074H         LINE#         296
  C:7082H         LINE#         297
  C:7093H         LINE#         298
  C:70A6H         LINE#         299
  C:70ACH         LINE#         300
  C:70B5H         LINE#         301
BL51 BANKED LINKER/LOCATER V6.22.2.0                                                  06/11/2021  12:08:32  PAGE 90


  C:70C9H         LINE#         302
  C:70CCH         LINE#         303
  -------         ENDPROC       LOAD_AND_SEND_ID_COD
  -------         ENDMOD        PTO_PARALELO

  -------         MODULE        TIBBO
  C:0000H         SYMBOL        _ICE_DUMMY_
  C:B7D4H         PUBLIC        _Debug_HexDec
  C:B634H         PUBLIC        _Debug_txt_Tibbo
  D:0080H         PUBLIC        P0
  D:0090H         PUBLIC        P1
  B:0090H.0       PUBLIC        txd2
  B:00A8H.7       PUBLIC        EA
  C:B5E1H         PUBLIC        _tx_aux
  B:0080H.0       PUBLIC        rx_ip
  C:C277H         PUBLIC        Debug_Dividir_texto
  C:C2CCH         PUBLIC        cond_ini_tibbo
  C:C167H         PUBLIC        time_mbit
  C:A821H         PUBLIC        rx_Data
  C:C0E6H         PUBLIC        time_bit
  C:B9A5H         PUBLIC        _Debug_pto_paralelo
  C:BB1AH         PUBLIC        _Debug_monitor
  C:A9B7H         PUBLIC        _DebugBufferMF
  C:B6BAH         PUBLIC        _Debug_chr_Tibbo
  C:C0E0H         SYMBOL        L?0067
  -------         PROC          L?0066
  -------         ENDPROC       L?0066
  C:C0E0H         SYMBOL        L?0067
  -------         PROC          TIME_BIT
  -------         DO            
  D:0007H         SYMBOL        j
  -------         ENDDO         
  C:C0E6H         LINE#         20
  C:C0E6H         LINE#         21
  C:C0E6H         LINE#         24
  C:C0F2H         LINE#         25
  C:C0F2H         LINE#         26
  C:C0F3H         LINE#         27
  C:C0F4H         LINE#         28
  C:C0F5H         LINE#         29
  C:C0F6H         LINE#         30
  C:C0F7H         LINE#         31
  C:C0F8H         LINE#         32
  C:C0F9H         LINE#         33
  C:C0FAH         LINE#         34
  C:C0FBH         LINE#         39
  C:C0FEH         LINE#         40
  -------         ENDPROC       TIME_BIT
  -------         PROC          TIME_MBIT
  -------         DO            
  D:0007H         SYMBOL        j
  -------         ENDDO         
  C:C167H         LINE#         43
  C:C167H         LINE#         44
  C:C167H         LINE#         46
  C:C173H         LINE#         47
  C:C173H         LINE#         48
BL51 BANKED LINKER/LOCATER V6.22.2.0                                                  06/11/2021  12:08:32  PAGE 91


  C:C174H         LINE#         49
  C:C175H         LINE#         50
  C:C176H         LINE#         51
  C:C177H         LINE#         52
  C:C178H         LINE#         53
  C:C179H         LINE#         54
  C:C17AH         LINE#         55
  C:C17DH         LINE#         57
  -------         ENDPROC       TIME_MBIT
  -------         PROC          L?0070
  -------         ENDPROC       L?0070
  -------         PROC          _TX_AUX
  D:0006H         SYMBOL        caracter
  -------         DO            
  D:0004H         SYMBOL        j
  D:0005H         SYMBOL        temporal
  D:0006H         SYMBOL        bitTX
  -------         ENDDO         
  C:B5E1H         LINE#         62
  C:B5E3H         LINE#         63
  C:B5E3H         LINE#         66
  C:B5E5H         LINE#         67
  C:B5E7H         LINE#         68
  C:B5EAH         LINE#         69
  C:B5EBH         LINE#         70
  C:B5ECH         LINE#         71
  C:B5EEH         LINE#         72
  C:B5F2H         LINE#         73
  C:B5F4H         LINE#         74
  C:B5F4H         LINE#         75
  C:B5F6H         LINE#         76
  C:B5F8H         LINE#         78
  C:B5F8H         LINE#         79
  C:B5FAH         LINE#         80
  C:B5FAH         LINE#         81
  C:B5FDH         LINE#         82
  C:B609H         LINE#         83
  C:B609H         LINE#         84
  C:B60DH         LINE#         85
  C:B610H         LINE#         86
  C:B612H         LINE#         87
  C:B612H         LINE#         88
  C:B614H         LINE#         89
  C:B616H         LINE#         91
  C:B616H         LINE#         92
  C:B618H         LINE#         93
  C:B618H         LINE#         94
  C:B61BH         LINE#         95
  C:B61EH         LINE#         96
  C:B620H         LINE#         97
  C:B623H         LINE#         98
  C:B626H         LINE#         100
  C:B628H         LINE#         101
  -------         ENDPROC       _TX_AUX
  -------         PROC          _DEBUG_HEXDEC
  D:0007H         SYMBOL        xfc
  -------         DO            
BL51 BANKED LINKER/LOCATER V6.22.2.0                                                  06/11/2021  12:08:32  PAGE 92


  X:0018H         SYMBOL        valor
  D:0006H         SYMBOL        centena
  D:0003H         SYMBOL        decena
  D:0002H         SYMBOL        unidad
  -------         ENDDO         
  C:B7D4H         LINE#         104
  C:B7D4H         LINE#         105
  C:B7D4H         LINE#         108
  C:B7DBH         LINE#         110
  C:B7DCH         LINE#         111
  C:B7DDH         LINE#         112
  C:B7DEH         LINE#         113
  C:B7E6H         LINE#         114
  C:B7E6H         LINE#         115
  C:B7F0H         LINE#         116
  C:B7F0H         LINE#         117
  C:B7F4H         LINE#         118
  C:B7F5H         LINE#         119
  C:B7F7H         LINE#         120
  C:B801H         LINE#         121
  C:B801H         LINE#         122
  C:B805H         LINE#         123
  C:B806H         LINE#         124
  C:B808H         LINE#         125
  C:B80AH         LINE#         126
  C:B80EH         LINE#         127
  C:B812H         LINE#         128
  C:B819H         LINE#         130
  C:B819H         LINE#         131
  -------         ENDPROC       _DEBUG_HEXDEC
  -------         PROC          _DEBUG_CHR_TIBBO
  D:0003H         SYMBOL        Dat
  -------         DO            
  D:0007H         SYMBOL        temp
  -------         ENDDO         
  C:B6BAH         LINE#         136
  C:B6BCH         LINE#         137
  C:B6BCH         LINE#         139
  C:B6C4H         LINE#         140
  C:B6C4H         LINE#         141
  C:B6CBH         LINE#         142
  C:B6DEH         LINE#         144
  C:B6E1H         LINE#         146
  C:B6E5H         LINE#         147
  C:B6F8H         LINE#         148
  C:B6FBH         LINE#         149
  C:B700H         LINE#         151
  C:B700H         LINE#         152
  -------         ENDPROC       _DEBUG_CHR_TIBBO
  -------         PROC          _DEBUGBUFFERMF
  X:0027H         SYMBOL        str
  X:002AH         SYMBOL        num_char
  X:002BH         SYMBOL        io
  -------         DO            
  X:002CH         SYMBOL        j
  -------         ENDDO         
  C:A9B7H         LINE#         160
BL51 BANKED LINKER/LOCATER V6.22.2.0                                                  06/11/2021  12:08:32  PAGE 93


  C:A9C5H         LINE#         161
  C:A9C5H         LINE#         165
  C:A9CDH         LINE#         166
  C:A9CDH         LINE#         167
  C:A9DCH         LINE#         168
  C:A9DCH         LINE#         169
  C:A9E2H         LINE#         170
  C:A9E4H         LINE#         171
  C:A9F1H         LINE#         172
  C:A9F1H         LINE#         173
  C:A9FAH         LINE#         174
  C:A9FAH         LINE#         176
  C:AA0CH         LINE#         177
  C:AA0CH         LINE#         178
  C:AA1EH         LINE#         179
  C:AA28H         LINE#         180
  C:AA30H         LINE#         181
  C:AA35H         LINE#         182
  C:AA3AH         LINE#         183
  C:AA3AH         LINE#         185
  -------         ENDPROC       _DEBUGBUFFERMF
  C:B62EH         SYMBOL        L?0069
  -------         PROC          L?0068
  -------         ENDPROC       L?0068
  C:B62EH         SYMBOL        L?0069
  -------         PROC          _DEBUG_TXT_TIBBO
  X:0064H         SYMBOL        str
  -------         DO            
  X:0067H         SYMBOL        i
  -------         ENDDO         
  C:B634H         LINE#         190
  C:B63FH         LINE#         191
  C:B63FH         LINE#         193
  C:B642H         LINE#         195
  C:B64AH         LINE#         196
  C:B64AH         LINE#         197
  C:B666H         LINE#         198
  C:B666H         LINE#         199
  C:B669H         LINE#         200
  C:B671H         LINE#         202
  C:B671H         LINE#         203
  -------         ENDPROC       _DEBUG_TXT_TIBBO
  -------         PROC          DEBUG_DIVIDIR_TEXTO
  C:C277H         LINE#         205
  C:C277H         LINE#         206
  C:C277H         LINE#         207
  -------         ENDPROC       DEBUG_DIVIDIR_TEXTO
  -------         PROC          RX_DATA
  -------         DO            
  D:0006H         SYMBOL        temporal
  -------         ENDDO         
  C:A821H         LINE#         213
  C:A821H         LINE#         214
  C:A821H         LINE#         217
  C:A823H         LINE#         218
  C:A826H         LINE#         220
  C:A829H         LINE#         222
BL51 BANKED LINKER/LOCATER V6.22.2.0                                                  06/11/2021  12:08:32  PAGE 94


  C:A835H         LINE#         223
  C:A835H         LINE#         225
  C:A838H         LINE#         227
  C:A844H         LINE#         228
  C:A844H         LINE#         230
  C:A847H         LINE#         232
  C:A853H         LINE#         233
  C:A853H         LINE#         235
  C:A856H         LINE#         237
  C:A862H         LINE#         238
  C:A862H         LINE#         240
  C:A865H         LINE#         242
  C:A871H         LINE#         243
  C:A871H         LINE#         245
  C:A874H         LINE#         247
  C:A880H         LINE#         248
  C:A880H         LINE#         250
  C:A883H         LINE#         252
  C:A88FH         LINE#         253
  C:A88FH         LINE#         255
  C:A892H         LINE#         256
  C:A8A0H         LINE#         258
  C:A8A3H         LINE#         259
  C:A8A6H         LINE#         260
  C:A8A6H         LINE#         261
  C:A8A6H         LINE#         264
  C:A8A8H         LINE#         266
  -------         ENDPROC       RX_DATA
  -------         PROC          COND_INI_TIBBO
  C:C2CCH         LINE#         284
  C:C2CCH         LINE#         285
  C:C2CCH         LINE#         287
  C:C2CEH         LINE#         288
  C:C2D0H         LINE#         289
  -------         ENDPROC       COND_INI_TIBBO
  -------         PROC          _DEBUG_PTO_PARALELO
  X:0001H         SYMBOL        buffer
  X:0004H         SYMBOL        Length_trama
  C:B9A5H         LINE#         290
  C:B9B3H         LINE#         291
  C:B9B3H         LINE#         293
  C:B9BCH         LINE#         294
  C:B9D3H         LINE#         295
  C:B9DCH         LINE#         296
  C:B9DFH         LINE#         297
  C:B9E2H         LINE#         298
  -------         ENDPROC       _DEBUG_PTO_PARALELO
  -------         PROC          _DEBUG_MONITOR
  X:0016H         SYMBOL        buffer
  X:0019H         SYMBOL        Length_trama
  C:BB1AH         LINE#         301
  C:BB28H         LINE#         302
  C:BB28H         LINE#         303
  C:BB2BH         LINE#         304
  C:BB34H         LINE#         305
  C:BB42H         LINE#         306
  C:BB45H         LINE#         307
BL51 BANKED LINKER/LOCATER V6.22.2.0                                                  06/11/2021  12:08:32  PAGE 95


  C:BB4EH         LINE#         308
  C:BB51H         LINE#         309
  C:BB54H         LINE#         310
  -------         ENDPROC       _DEBUG_MONITOR
  -------         ENDMOD        TIBBO

  -------         MODULE        UART
  C:0000H         SYMBOL        _ICE_DUMMY_
  C:BF87H         PUBLIC        com_getchar
  C:C204H         PUBLIC        com_rbuflen
  C:C216H         PUBLIC        com_tbuflen
  B:00A8H.4       PUBLIC        ES
  B:0098H.0       PUBLIC        RI
  C:BC0AH         PUBLIC        _com_putchar
  B:0098H.1       PUBLIC        TI
  B:0021H.4       PUBLIC        aSk
  B:00B8H.4       PUBLIC        PS
  D:000DH         SYMBOL        r_in
  D:000EH         SYMBOL        r_out
  D:000FH         SYMBOL        t_in
  D:0010H         SYMBOL        t_out
  D:0099H         PUBLIC        SBUF
  D:0087H         PUBLIC        PCON
  D:0089H         PUBLIC        TMOD
  B:0021H.5       SYMBOL        ti_restart
  B:00A8H.3       PUBLIC        ET1
  D:008DH         PUBLIC        TH1
  B:0098H.7       PUBLIC        SM0
  B:0098H.6       PUBLIC        SM1
  D:008BH         PUBLIC        TL1
  B:0098H.5       PUBLIC        SM2
  B:0088H.6       PUBLIC        TR1
  C:BEBEH         PUBLIC        com_initialize
  X:0212H         PUBLIC        cnt__ask_off
  B:0098H.4       PUBLIC        REN
  C:BF10H         PUBLIC        com_baudrate
  C:62B8H         SYMBOL        com_isr
  -------         PROC          COM_ISR
  -------         DO            
  X:0210H         SYMBOL        cDatoRx
  D:0006H         SYMBOL        k
  D:0007H         SYMBOL        bcc
  X:0211H         SYMBOL        num_datos
  -------         ENDDO         
  C:62B8H         LINE#         95
  C:62CDH         LINE#         103
  C:62D3H         LINE#         104
  C:62D3H         LINE#         106
  C:62D5H         LINE#         107
  C:62DBH         LINE#         108
  C:62EBH         LINE#         109
  C:62EBH         LINE#         110
  C:62F6H         LINE#         111
  C:62F8H         LINE#         113
  C:62F8H         LINE#         114
  C:6308H         LINE#         115
  C:6308H         LINE#         116
BL51 BANKED LINKER/LOCATER V6.22.2.0                                                  06/11/2021  12:08:32  PAGE 96


  C:630DH         LINE#         117
  C:630DH         LINE#         118
  C:6324H         LINE#         119
  C:6324H         LINE#         123
  C:6324H         LINE#         126
  C:6333H         LINE#         127
  C:6333H         LINE#         128
  C:6335H         LINE#         129
  C:633DH         LINE#         130
  C:6342H         LINE#         132
  C:6342H         LINE#         133
  C:6345H         LINE#         137
  C:6345H         LINE#         138
  C:6345H         LINE#         139
  C:635DH         LINE#         140
  C:636CH         LINE#         141
  C:636CH         LINE#         142
  C:636CH         LINE#         143
  C:636EH         LINE#         145
  C:636EH         LINE#         146
  C:6370H         LINE#         147
  C:6370H         LINE#         148
  C:6370H         LINE#         149
  C:6373H         LINE#         153
  C:6373H         LINE#         155
  C:637CH         LINE#         156
  C:637CH         LINE#         158
  C:6382H         LINE#         159
  C:6395H         LINE#         160
  C:6395H         LINE#         161
  C:6398H         LINE#         163
  C:6398H         LINE#         164
  C:63ADH         LINE#         165
  C:63B3H         LINE#         166
  C:63B3H         LINE#         168
  C:63B6H         LINE#         172
  C:63B6H         LINE#         174
  C:63CEH         LINE#         175
  C:63D4H         LINE#         176
  C:63D7H         LINE#         177
  C:63D7H         LINE#         178
  C:63EFH         LINE#         179
  C:63EFH         LINE#         180
  C:63F0H         LINE#         181
  C:63FDH         LINE#         182
  C:63FDH         LINE#         183
  C:640AH         LINE#         184
  C:640DH         LINE#         185
  C:641BH         LINE#         186
  C:641BH         LINE#         187
  C:641DH         LINE#         188
  C:6422H         LINE#         189
  C:6424H         LINE#         190
  C:6428H         LINE#         192
  C:642AH         LINE#         194
  C:642AH         LINE#         195
  C:642AH         LINE#         196
BL51 BANKED LINKER/LOCATER V6.22.2.0                                                  06/11/2021  12:08:32  PAGE 97


  C:642AH         LINE#         197
  C:642CH         LINE#         199
  C:642CH         LINE#         200
  C:642CH         LINE#         201
  C:642CH         LINE#         203
  C:642EH         LINE#         205
  C:642EH         LINE#         206
  C:6434H         LINE#         207
  C:6434H         LINE#         209
  C:6436H         LINE#         214
  C:6436H         LINE#         215
  C:643BH         LINE#         216
  C:643BH         LINE#         217
  C:643BH         LINE#         218
  C:643BH         LINE#         223
  C:643EH         LINE#         224
  C:643EH         LINE#         225
  C:6440H         LINE#         227
  C:6446H         LINE#         228
  C:6446H         LINE#         229
  C:6450H         LINE#         231
  C:6452H         LINE#         232
  C:6454H         LINE#         233
  C:6456H         LINE#         235
  C:6456H         LINE#         236
  C:6458H         LINE#         237
  C:6458H         LINE#         238
  C:6458H         LINE#         240
  -------         ENDPROC       COM_ISR
  -------         PROC          COM_INITIALIZE
  C:BEBEH         LINE#         256
  C:BEC5H         LINE#         257
  C:BEC5H         LINE#         261
  C:BEC8H         LINE#         266
  C:BECBH         LINE#         267
  C:BECDH         LINE#         269
  C:BECFH         LINE#         270
  C:BED1H         LINE#         275
  C:BED5H         LINE#         276
  C:BED7H         LINE#         277
  C:BED9H         LINE#         279
  C:BEDBH         LINE#         280
  C:BEDDH         LINE#         281
  C:BEDFH         LINE#         283
  C:BEE1H         LINE#         284
  C:BEE3H         LINE#         285
  -------         ENDPROC       COM_INITIALIZE
  -------         PROC          COM_BAUDRATE
  C:BF10H         LINE#         291
  C:BF17H         LINE#         293
  C:BF17H         LINE#         297
  C:BF19H         LINE#         298
  C:BF1CH         LINE#         299
  C:BF1EH         LINE#         304
  C:BF20H         LINE#         305
  C:BF22H         LINE#         307
  C:BF25H         LINE#         309
BL51 BANKED LINKER/LOCATER V6.22.2.0                                                  06/11/2021  12:08:32  PAGE 98


  C:BF28H         LINE#         310
  C:BF2BH         LINE#         312
  C:BF2EH         LINE#         313
  C:BF31H         LINE#         314
  C:BF33H         LINE#         315
  -------         ENDPROC       COM_BAUDRATE
  -------         PROC          _COM_PUTCHAR
  X:00AAH         SYMBOL        c
  C:BC0AH         LINE#         321
  C:BC16H         LINE#         322
  C:BC16H         LINE#         326
  C:BC23H         LINE#         327
  C:BC27H         LINE#         333
  C:BC35H         LINE#         335
  C:BC37H         LINE#         337
  C:BC3AH         LINE#         338
  C:BC3AH         LINE#         339
  C:BC3CH         LINE#         340
  C:BC3EH         LINE#         341
  C:BC3EH         LINE#         343
  C:BC40H         LINE#         344
  -------         ENDPROC       _COM_PUTCHAR
  -------         PROC          COM_GETCHAR
  C:BF87H         LINE#         350
  C:BF8EH         LINE#         351
  C:BF8EH         LINE#         352
  C:BF94H         LINE#         353
  C:BF9AH         LINE#         355
  C:BFA8H         LINE#         356
  -------         ENDPROC       COM_GETCHAR
  -------         PROC          COM_RBUFLEN
  C:C204H         LINE#         362
  C:C20BH         LINE#         363
  C:C20BH         LINE#         364
  C:C211H         LINE#         365
  -------         ENDPROC       COM_RBUFLEN
  -------         PROC          COM_TBUFLEN
  C:C216H         LINE#         371
  C:C21DH         LINE#         372
  C:C21DH         LINE#         373
  C:C223H         LINE#         374
  -------         ENDPROC       COM_TBUFLEN
  -------         ENDMOD        UART

  -------         MODULE        LINTECH
  C:0000H         SYMBOL        _ICE_DUMMY_
  C:9EE7H         PUBLIC        _Inicializa
  C:9198H         PUBLIC        _RD_MF
  C:9BAEH         PUBLIC        Dwload_EEprom
  C:A3AFH         PUBLIC        _Card_Insercion
  C:86DFH         PUBLIC        _Mov_Card
  C:7C1EH         PUBLIC        _WR_MF
  C:A680H         PUBLIC        LoadVerify_EEprom
  C:A8A9H         PUBLIC        Unique_Identifier_UID
  C:ACC3H         PUBLIC        Power_off
  C:A931H         PUBLIC        _Check_Status
  C:9B04H         PUBLIC        Clave_Seguridad_S2
BL51 BANKED LINKER/LOCATER V6.22.2.0                                                  06/11/2021  12:08:32  PAGE 99


  C:AC43H         PUBLIC        Aut_Card_check_Status
  -------         PROC          _INICIALIZA
  X:0002H         SYMBOL        TipoMovimiento
  -------         DO            
  D:0003H         SYMBOL        j
  X:0003H         SYMBOL        bcc
  X:0004H         SYMBOL        g_scArrTxComSoft
  -------         ENDDO         
  C:9EE7H         LINE#         68
  C:9EECH         LINE#         69
  C:9EECH         LINE#         72
  C:9EEFH         LINE#         73
  C:9F05H         LINE#         74
  C:9F05H         LINE#         76
  C:9F0EH         LINE#         78
  C:9F14H         LINE#         79
  C:9F17H         LINE#         80
  C:9F19H         LINE#         81
  C:9F1DH         LINE#         82
  C:9F21H         LINE#         83
  C:9F25H         LINE#         84
  C:9F2DH         LINE#         85
  C:9F31H         LINE#         86
  C:9F3DH         LINE#         87
  C:9F3DH         LINE#         88
  C:9F51H         LINE#         89
  C:9F54H         LINE#         90
  C:9F5CH         LINE#         91
  C:9F5EH         LINE#         92
  C:9F63H         LINE#         93
  C:9F72H         LINE#         94
  C:9F7DH         LINE#         95
  C:9F83H         LINE#         96
  C:9F83H         LINE#         97
  -------         ENDPROC       _INICIALIZA
  -------         PROC          _CHECK_STATUS
  X:0002H         SYMBOL        Detalle
  -------         DO            
  D:0006H         SYMBOL        j
  D:0007H         SYMBOL        bcc
  X:0003H         SYMBOL        g_scArrTxComSoft
  -------         ENDDO         
  C:A931H         LINE#         109
  C:A936H         LINE#         110
  C:A936H         LINE#         114
  C:A93CH         LINE#         115
  C:A93CH         LINE#         116
  C:A940H         LINE#         117
  C:A942H         LINE#         119
  C:A942H         LINE#         120
  C:A949H         LINE#         121
  C:A949H         LINE#         122
  C:A94BH         LINE#         124
  C:A951H         LINE#         125
  C:A954H         LINE#         126
  C:A956H         LINE#         127
  C:A95AH         LINE#         128
BL51 BANKED LINKER/LOCATER V6.22.2.0                                                  06/11/2021  12:08:32  PAGE 100


  C:A95EH         LINE#         129
  C:A962H         LINE#         130
  C:A96AH         LINE#         131
  C:A96EH         LINE#         132
  C:A97AH         LINE#         133
  C:A97AH         LINE#         134
  C:A987H         LINE#         135
  C:A98AH         LINE#         136
  C:A98FH         LINE#         137
  C:A991H         LINE#         138
  C:A996H         LINE#         139
  C:A9A5H         LINE#         140
  C:A9B0H         LINE#         141
  C:A9B6H         LINE#         142
  -------         ENDPROC       _CHECK_STATUS
  -------         PROC          _CARD_INSERCION
  D:0007H         SYMBOL        Tipo
  -------         DO            
  D:0006H         SYMBOL        j
  D:0007H         SYMBOL        bcc
  X:0002H         SYMBOL        g_scArrTxComSoft
  -------         ENDDO         
  C:A3AFH         LINE#         152
  C:A3AFH         LINE#         153
  C:A3AFH         LINE#         156
  C:A3BCH         LINE#         157
  C:A3BCH         LINE#         158
  C:A3C3H         LINE#         159
  C:A3C9H         LINE#         160
  C:A3CBH         LINE#         162
  C:A3CBH         LINE#         164
  C:A3D2H         LINE#         165
  C:A3D8H         LINE#         167
  C:A3D8H         LINE#         169
  C:A3DAH         LINE#         171
  C:A3E0H         LINE#         172
  C:A3E3H         LINE#         173
  C:A3E5H         LINE#         174
  C:A3E9H         LINE#         175
  C:A3EDH         LINE#         176
  C:A3F1H         LINE#         178
  C:A3F7H         LINE#         179
  C:A403H         LINE#         180
  C:A403H         LINE#         181
  C:A410H         LINE#         182
  C:A413H         LINE#         184
  C:A418H         LINE#         186
  C:A41AH         LINE#         187
  C:A41FH         LINE#         188
  C:A42EH         LINE#         189
  C:A439H         LINE#         190
  C:A43FH         LINE#         191
  -------         ENDPROC       _CARD_INSERCION
  -------         PROC          _MOV_CARD
  X:0002H         SYMBOL        Posicion
  -------         DO            
  D:0003H         SYMBOL        j
BL51 BANKED LINKER/LOCATER V6.22.2.0                                                  06/11/2021  12:08:32  PAGE 101


  X:0003H         SYMBOL        bcc
  X:0004H         SYMBOL        g_scArrTxComSoft
  -------         ENDDO         
  C:86DFH         LINE#         202
  C:86E4H         LINE#         203
  C:86E4H         LINE#         206
  C:86E7H         LINE#         208
  C:8707H         LINE#         209
  C:8707H         LINE#         210
  C:870EH         LINE#         211
  C:870EH         LINE#         212
  C:8714H         LINE#         213
  C:8716H         LINE#         214
  C:871DH         LINE#         215
  C:871DH         LINE#         216
  C:8723H         LINE#         217
  C:8725H         LINE#         218
  C:872CH         LINE#         219
  C:872CH         LINE#         220
  C:8732H         LINE#         221
  C:8734H         LINE#         222
  C:873BH         LINE#         223
  C:873BH         LINE#         224
  C:8741H         LINE#         225
  C:8743H         LINE#         226
  C:874AH         LINE#         227
  C:874AH         LINE#         228
  C:8753H         LINE#         229
  C:8753H         LINE#         231
  C:8759H         LINE#         232
  C:875CH         LINE#         233
  C:875EH         LINE#         234
  C:8762H         LINE#         235
  C:8766H         LINE#         236
  C:876AH         LINE#         237
  C:8772H         LINE#         238
  C:8776H         LINE#         239
  C:8782H         LINE#         240
  C:8782H         LINE#         241
  C:8796H         LINE#         242
  C:8799H         LINE#         243
  C:87A1H         LINE#         244
  C:87A3H         LINE#         245
  C:87A8H         LINE#         246
  C:87B7H         LINE#         247
  C:87C2H         LINE#         248
  C:87C8H         LINE#         249
  C:87C8H         LINE#         251
  -------         ENDPROC       _MOV_CARD
  -------         PROC          AUT_CARD_CHECK_STATUS
  -------         DO            
  D:0003H         SYMBOL        j
  X:0002H         SYMBOL        bcc
  X:0003H         SYMBOL        g_scArrTxComSoft
  -------         ENDDO         
  C:AC43H         LINE#         257
  C:AC43H         LINE#         258
BL51 BANKED LINKER/LOCATER V6.22.2.0                                                  06/11/2021  12:08:32  PAGE 102


  C:AC43H         LINE#         261
  C:AC48H         LINE#         263
  C:AC51H         LINE#         265
  C:AC57H         LINE#         266
  C:AC5AH         LINE#         267
  C:AC5CH         LINE#         268
  C:AC60H         LINE#         269
  C:AC64H         LINE#         270
  C:AC68H         LINE#         271
  C:AC6CH         LINE#         272
  C:AC70H         LINE#         273
  C:AC7CH         LINE#         274
  C:AC7CH         LINE#         275
  C:AC90H         LINE#         276
  C:AC93H         LINE#         277
  C:AC9BH         LINE#         278
  C:AC9DH         LINE#         279
  C:ACA2H         LINE#         280
  C:ACB1H         LINE#         281
  C:ACBCH         LINE#         282
  C:ACC2H         LINE#         283
  -------         ENDPROC       AUT_CARD_CHECK_STATUS
  -------         PROC          CLAVE_SEGURIDAD_S2
  -------         DO            
  D:0003H         SYMBOL        j
  X:0002H         SYMBOL        bcc
  X:0003H         SYMBOL        g_scArrTxComSoft
  -------         ENDDO         
  C:9B04H         LINE#         286
  C:9B04H         LINE#         287
  C:9B04H         LINE#         290
  C:9B09H         LINE#         291
  C:9B12H         LINE#         294
  C:9B18H         LINE#         295
  C:9B1BH         LINE#         296
  C:9B1DH         LINE#         297
  C:9B21H         LINE#         298
  C:9B25H         LINE#         299
  C:9B29H         LINE#         300
  C:9B2DH         LINE#         301
  C:9B30H         LINE#         302
  C:9B34H         LINE#         303
  C:9B37H         LINE#         304
  C:9B3BH         LINE#         306
  C:9B3FH         LINE#         308
  C:9B43H         LINE#         309
  C:9B47H         LINE#         310
  C:9B4BH         LINE#         311
  C:9B4FH         LINE#         312
  C:9B53H         LINE#         313
  C:9B57H         LINE#         316
  C:9B5BH         LINE#         318
  C:9B67H         LINE#         319
  C:9B67H         LINE#         320
  C:9B7BH         LINE#         321
  C:9B7EH         LINE#         322
  C:9B86H         LINE#         323
BL51 BANKED LINKER/LOCATER V6.22.2.0                                                  06/11/2021  12:08:32  PAGE 103


  C:9B88H         LINE#         324
  C:9B8DH         LINE#         325
  C:9B9CH         LINE#         326
  C:9BA7H         LINE#         327
  C:9BADH         LINE#         330
  -------         ENDPROC       CLAVE_SEGURIDAD_S2
  -------         PROC          DWLOAD_EEPROM
  -------         DO            
  D:0003H         SYMBOL        j
  X:0002H         SYMBOL        bcc
  X:0003H         SYMBOL        g_scArrTxComSoft
  -------         ENDDO         
  C:9BAEH         LINE#         335
  C:9BAEH         LINE#         336
  C:9BAEH         LINE#         339
  C:9BB3H         LINE#         340
  C:9BBCH         LINE#         342
  C:9BC2H         LINE#         343
  C:9BC5H         LINE#         344
  C:9BC7H         LINE#         345
  C:9BCBH         LINE#         346
  C:9BCFH         LINE#         347
  C:9BD3H         LINE#         348
  C:9BD7H         LINE#         349
  C:9BDAH         LINE#         350
  C:9BDEH         LINE#         351
  C:9BE1H         LINE#         352
  C:9BE4H         LINE#         353
  C:9BE8H         LINE#         354
  C:9BECH         LINE#         355
  C:9BF0H         LINE#         356
  C:9BF4H         LINE#         357
  C:9BF8H         LINE#         358
  C:9BFCH         LINE#         359
  C:9C00H         LINE#         360
  C:9C04H         LINE#         362
  C:9C10H         LINE#         363
  C:9C10H         LINE#         364
  C:9C24H         LINE#         365
  C:9C27H         LINE#         366
  C:9C2FH         LINE#         367
  C:9C31H         LINE#         368
  C:9C36H         LINE#         369
  C:9C45H         LINE#         370
  C:9C50H         LINE#         371
  C:9C56H         LINE#         372
  -------         ENDPROC       DWLOAD_EEPROM
  -------         PROC          LOADVERIFY_EEPROM
  -------         DO            
  D:0003H         SYMBOL        j
  X:0002H         SYMBOL        bcc
  X:0003H         SYMBOL        g_scArrTxComSoft
  -------         ENDDO         
  C:A680H         LINE#         378
  C:A680H         LINE#         379
  C:A680H         LINE#         382
  C:A685H         LINE#         383
BL51 BANKED LINKER/LOCATER V6.22.2.0                                                  06/11/2021  12:08:32  PAGE 104


  C:A68EH         LINE#         386
  C:A694H         LINE#         387
  C:A697H         LINE#         388
  C:A699H         LINE#         389
  C:A69DH         LINE#         390
  C:A6A1H         LINE#         391
  C:A6A5H         LINE#         392
  C:A6A9H         LINE#         393
  C:A6ACH         LINE#         394
  C:A6B0H         LINE#         395
  C:A6B3H         LINE#         396
  C:A6B6H         LINE#         397
  C:A6BAH         LINE#         402
  C:A6C6H         LINE#         403
  C:A6C6H         LINE#         404
  C:A6DAH         LINE#         405
  C:A6DDH         LINE#         406
  C:A6E5H         LINE#         407
  C:A6E7H         LINE#         408
  C:A6ECH         LINE#         409
  C:A6FBH         LINE#         410
  C:A706H         LINE#         411
  C:A70CH         LINE#         413
  -------         ENDPROC       LOADVERIFY_EEPROM
  -------         PROC          _RD_MF
  X:0002H         SYMBOL        Sector
  X:0003H         SYMBOL        Bloque
  -------         DO            
  D:0003H         SYMBOL        j
  X:0004H         SYMBOL        bcc
  X:0005H         SYMBOL        g_scArrTxComSoft
  -------         ENDDO         
  C:9198H         LINE#         419
  C:91A0H         LINE#         420
  C:91A0H         LINE#         424
  C:91A3H         LINE#         426
  C:91ACH         LINE#         427
  C:91B4H         LINE#         429
  C:91BDH         LINE#         430
  C:91C5H         LINE#         431
  C:91CEH         LINE#         434
  C:91D4H         LINE#         435
  C:91D7H         LINE#         436
  C:91D9H         LINE#         437
  C:91DDH         LINE#         438
  C:91E1H         LINE#         439
  C:91E5H         LINE#         440
  C:91E9H         LINE#         441
  C:91ECH         LINE#         442
  C:91F0H         LINE#         443
  C:91F8H         LINE#         444
  C:9200H         LINE#         445
  C:9204H         LINE#         446
  C:9208H         LINE#         448
  C:9214H         LINE#         449
  C:9214H         LINE#         450
  C:9228H         LINE#         451
BL51 BANKED LINKER/LOCATER V6.22.2.0                                                  06/11/2021  12:08:32  PAGE 105


  C:922BH         LINE#         452
  C:9233H         LINE#         455
  C:9235H         LINE#         456
  C:923AH         LINE#         457
  C:9249H         LINE#         458
  C:9254H         LINE#         459
  C:925AH         LINE#         461
  -------         ENDPROC       _RD_MF
  -------         PROC          _WR_MF
  X:0002H         SYMBOL        Sector
  X:0003H         SYMBOL        Bloque
  X:0004H         SYMBOL        buffer
  -------         DO            
  D:0005H         SYMBOL        j
  X:0007H         SYMBOL        bcc
  X:0008H         SYMBOL        g_scArrTxComSoft
  -------         ENDDO         
  C:7C1EH         LINE#         468
  C:7C2FH         LINE#         470
  C:7C2FH         LINE#         473
  C:7C32H         LINE#         475
  C:7C3BH         LINE#         476
  C:7C43H         LINE#         478
  C:7C4CH         LINE#         479
  C:7C54H         LINE#         480
  C:7C5DH         LINE#         482
  C:7C63H         LINE#         483
  C:7C66H         LINE#         484
  C:7C68H         LINE#         485
  C:7C6CH         LINE#         487
  C:7C70H         LINE#         488
  C:7C74H         LINE#         489
  C:7C78H         LINE#         490
  C:7C7BH         LINE#         491
  C:7C7FH         LINE#         492
  C:7C87H         LINE#         493
  C:7C8FH         LINE#         494
  C:7C93H         LINE#         496
  C:7C9FH         LINE#         497
  C:7C9FH         LINE#         498
  C:7CBFH         LINE#         499
  C:7CC2H         LINE#         501
  C:7CC8H         LINE#         503
  C:7CD4H         LINE#         504
  C:7CD4H         LINE#         505
  C:7CEBH         LINE#         506
  C:7CEEH         LINE#         507
  C:7CF6H         LINE#         510
  C:7CF8H         LINE#         511
  C:7CFDH         LINE#         512
  C:7D0CH         LINE#         513
  C:7D17H         LINE#         514
  C:7D1DH         LINE#         516
  -------         ENDPROC       _WR_MF
  -------         PROC          UNIQUE_IDENTIFIER_UID
  -------         DO            
  D:0003H         SYMBOL        j
BL51 BANKED LINKER/LOCATER V6.22.2.0                                                  06/11/2021  12:08:32  PAGE 106


  X:0002H         SYMBOL        bcc
  X:0003H         SYMBOL        g_scArrTxComSoft
  -------         ENDDO         
  C:A8A9H         LINE#         521
  C:A8A9H         LINE#         522
  C:A8A9H         LINE#         525
  C:A8AEH         LINE#         527
  C:A8B7H         LINE#         529
  C:A8BDH         LINE#         530
  C:A8C0H         LINE#         531
  C:A8C2H         LINE#         532
  C:A8C6H         LINE#         533
  C:A8CAH         LINE#         534
  C:A8CEH         LINE#         535
  C:A8D2H         LINE#         536
  C:A8D6H         LINE#         537
  C:A8DAH         LINE#         538
  C:A8DEH         LINE#         539
  C:A8EAH         LINE#         540
  C:A8EAH         LINE#         541
  C:A8FEH         LINE#         542
  C:A901H         LINE#         543
  C:A909H         LINE#         544
  C:A90BH         LINE#         545
  C:A910H         LINE#         546
  C:A91FH         LINE#         547
  C:A92AH         LINE#         548
  C:A930H         LINE#         549
  -------         ENDPROC       UNIQUE_IDENTIFIER_UID
  -------         PROC          POWER_OFF
  -------         DO            
  D:0003H         SYMBOL        j
  X:0002H         SYMBOL        bcc
  X:0003H         SYMBOL        g_scArrTxComSoft
  -------         ENDDO         
  C:ACC3H         LINE#         550
  C:ACC3H         LINE#         551
  C:ACC3H         LINE#         554
  C:ACC8H         LINE#         556
  C:ACD1H         LINE#         558
  C:ACD7H         LINE#         559
  C:ACDAH         LINE#         560
  C:ACDCH         LINE#         561
  C:ACE0H         LINE#         562
  C:ACE4H         LINE#         563
  C:ACE8H         LINE#         564
  C:ACECH         LINE#         565
  C:ACF0H         LINE#         566
  C:ACFCH         LINE#         567
  C:ACFCH         LINE#         568
  C:AD10H         LINE#         569
  C:AD13H         LINE#         570
  C:AD1BH         LINE#         571
  C:AD1DH         LINE#         572
  C:AD22H         LINE#         573
  C:AD31H         LINE#         574
  C:AD3CH         LINE#         575
BL51 BANKED LINKER/LOCATER V6.22.2.0                                                  06/11/2021  12:08:32  PAGE 107


  C:AD42H         LINE#         578
  -------         ENDPROC       POWER_OFF
  -------         ENDMOD        LINTECH

  -------         MODULE        VERIFICADOR
  C:0000H         SYMBOL        _ICE_DUMMY_
  D:0080H         PUBLIC        P0
  C:BFADH         PUBLIC        Analiza_Presencia_Mensual
  C:B0F2H         PUBLIC        Ingreso_Vehiculo
  D:0090H         PUBLIC        P1
  C:BF38H         PUBLIC        _Armar_Trama_Tarjeta_Sector1_Bloque0
  D:00B0H         PUBLIC        P3
  C:646BH         PUBLIC        _Valida_Tipo_Tarjeta
  C:BB73H         PUBLIC        _Load_Secuencia_Expedidor
  C:5D16H         PUBLIC        _Armar_Trama_Tarjeta_Sector1_Bloque2
  C:529DH         PUBLIC        _Armar_Trama_Pto_Paralelo_Expedidor
  C:90D4H         PUBLIC        _Tarjeta_Mensual
  C:BFF9H         PUBLIC        Analiza_Presencia_rotacion
  C:A560H         PUBLIC        _Disparo_Lock_Entrada_Vehiculo
  C:BE60H         PUBLIC        Pregunta_Placa
  C:A286H         PUBLIC        _Valida_Vehiculo_Card_Mensual
  C:BC7FH         PUBLIC        Analiza_card_mount_rf
  C:B34BH         PUBLIC        _Armar_Trama_Placa
  C:8DB2H         PUBLIC        _rta_cmd_transporte
  C:C280H         PUBLIC        Captura_Expulsa
  C:4FFAH         PUBLIC        _Armar_Trama_Monitor
  C:6E60H         PUBLIC        Secuencia_inicio_expedidor
  C:8A66H         PUBLIC        _Analiza_Uid_Card
  B:0080H.0       PUBLIC        rx_ip
  C:8402H         PUBLIC        _Bloque_Horario
  B:0080H.3       PUBLIC        Atascado_GP0_PIN_3
  B:0090H.7       PUBLIC        lock
  C:9DA2H         PUBLIC        _Armar_Trama_Tarjeta_Sector1_Bloque1_Camcel
  C:A020H         PUBLIC        _Responde_Lectura_Tarjeta_Sector1_Bloque0
  C:93DEH         PUBLIC        error_rx_pto
  C:5F01H         PUBLIC        _Responde_Lectura_Tarjeta_Sector1_Bloque1
  C:733FH         PUBLIC        _Responde_Lectura_Tarjeta_Sector1_Bloque2
  C:9F84H         PUBLIC        _Respuesta_Placa_Cancel
  B:0090H.1       PUBLIC        DataIn
  C:9CFDH         PUBLIC        _Send_Pto_Paralelo
  C:BA62H         PUBLIC        Trama_Validacion_P_N
  B:0022H.0       PUBLIC        MenSual
  C:7211H         PUBLIC        _Armar_Trama_Pto_Paralelo_Expedidor_Mensual
  C:7A03H         PUBLIC        _Horarios
  C:9A58H         PUBLIC        _Hora_Maxima
  C:6A86H         PUBLIC        _Responde_ReeLectura_Tarjeta_Sector1_Bloque2
  C:3AF2H         PUBLIC        _SecuenciaExpedidorMF
  C:B458H         PUBLIC        _Pregunta_Lpr
  C:9840H         PUBLIC        _Wait_Placa
  C:AE3FH         PUBLIC        Responde_Estado_Sensores_Transporte
  C:A5F0H         PUBLIC        Entrega_Card_Captura
  C:B2EEH         PUBLIC        _Respuesta_Segunda_clave
  X:0147H         SYMBOL        Estado
  C:BD5DH         PUBLIC        _Responde_Write_Tarjeta_Sector1_Bloque0
  C:BD27H         PUBLIC        _Responde_Write_Tarjeta_Sector1_Bloque1
  C:B701H         PUBLIC        _Responde_Write_Tarjeta_Sector2_Bloque0
  C:B086H         PUBLIC        _Responde_Write_Tarjeta_Sector1_Bloque2
BL51 BANKED LINKER/LOCATER V6.22.2.0                                                  06/11/2021  12:08:32  PAGE 108


  C:AFA6H         PUBLIC        _En_Horario
  C:AEBBH         PUBLIC        Responde_Tipo_Tarjeta
  C:BE2FH         PUBLIC        _Tarjeta_Rotacion
  -------         PROC          CAPTURA_EXPULSA
  -------         DO            
  D:0007H         SYMBOL        Estado_expedidor
  -------         ENDDO         
  C:C280H         LINE#         541
  C:C280H         LINE#         542
  C:C280H         LINE#         546
  C:C283H         LINE#         547
  C:C283H         LINE#         548
  C:C285H         LINE#         549
  C:C286H         LINE#         551
  C:C286H         LINE#         553
  C:C288H         LINE#         554
  C:C288H         LINE#         557
  C:C288H         LINE#         558
  -------         ENDPROC       CAPTURA_EXPULSA
  -------         PROC          TRAMA_VALIDACION_P_N
  -------         DO            
  D:0007H         SYMBOL        Trama_Validacion_P_N
  -------         ENDDO         
  C:BA62H         LINE#         569
  C:BA62H         LINE#         570
  C:BA62H         LINE#         571
  C:BA64H         LINE#         573
  C:BA7AH         LINE#         574
  C:BA7AH         LINE#         575
  C:BA7DH         LINE#         576
  C:BA7DH         LINE#         577
  C:BA7FH         LINE#         580
  C:BA87H         LINE#         581
  C:BA87H         LINE#         583
  C:BA89H         LINE#         585
  C:BA8AH         LINE#         586
  C:BA8EH         LINE#         587
  C:BA8EH         LINE#         589
  C:BA90H         LINE#         591
  C:BA91H         LINE#         593
  C:BA91H         LINE#         594
  C:BA9AH         LINE#         595
  C:BA9CH         LINE#         597
  C:BA9CH         LINE#         598
  C:BA9DH         LINE#         600
  C:BA9DH         LINE#         602
  C:BA9FH         LINE#         604
  C:BA9FH         LINE#         606
  C:BA9FH         LINE#         608
  C:BA9FH         LINE#         609
  -------         ENDPROC       TRAMA_VALIDACION_P_N
  -------         PROC          ERROR_RX_PTO
  -------         DO            
  X:00B7H         SYMBOL        cnt_espera_ask_on
  X:0007H         SYMBOL        error_rx_pto
  -------         ENDDO         
  C:93DEH         LINE#         633
BL51 BANKED LINKER/LOCATER V6.22.2.0                                                  06/11/2021  12:08:32  PAGE 109


  C:93DEH         LINE#         634
  C:93DEH         LINE#         637
  C:93E4H         LINE#         641
  C:93EDH         LINE#         642
  C:93F5H         LINE#         643
  C:93FEH         LINE#         644
  C:9406H         LINE#         645
  C:940FH         LINE#         646
  C:9412H         LINE#         648
  C:9412H         LINE#         649
  C:9418H         LINE#         650
  C:9422H         LINE#         651
  C:9422H         LINE#         652
  C:942BH         LINE#         653
  C:942DH         LINE#         654
  C:9434H         LINE#         655
  C:9439H         LINE#         656
  C:943FH         LINE#         657
  C:9444H         LINE#         658
  C:9446H         LINE#         659
  C:944DH         LINE#         660
  C:9453H         LINE#         661
  C:9453H         LINE#         663
  C:9453H         LINE#         664
  C:9458H         LINE#         665
  C:9458H         LINE#         666
  C:9458H         LINE#         667
  C:945AH         LINE#         669
  C:945AH         LINE#         670
  C:9468H         LINE#         671
  C:947BH         LINE#         672
  C:947BH         LINE#         673
  C:947CH         LINE#         675
  C:9482H         LINE#         676
  C:9486H         LINE#         677
  C:9488H         LINE#         678
  C:9488H         LINE#         679
  C:948AH         LINE#         681
  C:948AH         LINE#         682
  C:948BH         LINE#         683
  C:9490H         LINE#         684
  C:9496H         LINE#         685
  C:9496H         LINE#         686
  C:9496H         LINE#         687
  C:949BH         LINE#         688
  -------         ENDPROC       ERROR_RX_PTO
  -------         PROC          _RTA_CMD_TRANSPORTE
  X:0002H         SYMBOL        secuencia_Expedidor
  -------         DO            
  X:0005H         SYMBOL        temp
  X:0006H         SYMBOL        EstadoComSeqMF
  -------         ENDDO         
  C:8DB2H         LINE#         704
  C:8DBDH         LINE#         705
  C:8DBDH         LINE#         711
  C:8DCAH         LINE#         712
  C:8DCAH         LINE#         713
BL51 BANKED LINKER/LOCATER V6.22.2.0                                                  06/11/2021  12:08:32  PAGE 110


  C:8DD2H         LINE#         714
  C:8DD2H         LINE#         715
  C:8DE0H         LINE#         716
  C:8DE3H         LINE#         717
  C:8DE9H         LINE#         718
  C:8DE9H         LINE#         719
  C:8DF2H         LINE#         720
  C:8E06H         LINE#         721
  C:8E17H         LINE#         723
  C:8E19H         LINE#         725
  C:8E19H         LINE#         728
  C:8E31H         LINE#         729
  C:8E31H         LINE#         730
  C:8E3CH         LINE#         731
  C:8E3EH         LINE#         733
  C:8E3EH         LINE#         734
  C:8E4CH         LINE#         735
  C:8E4CH         LINE#         736
  C:8E4CH         LINE#         737
  C:8E4EH         LINE#         739
  C:8E4EH         LINE#         741
  C:8E62H         LINE#         742
  C:8E77H         LINE#         743
  C:8E77H         LINE#         744
  C:8E7CH         LINE#         745
  -------         ENDPROC       _RTA_CMD_TRANSPORTE
  -------         PROC          ANALIZA_PRESENCIA_MENSUAL
  -------         DO            
  X:0002H         SYMBOL        Estado_expedidor
  -------         ENDDO         
  C:BFADH         LINE#         749
  C:BFADH         LINE#         750
  C:BFADH         LINE#         754
  C:BFB3H         LINE#         755
  C:BFB3H         LINE#         756
  C:BFB5H         LINE#         757
  C:BFBBH         LINE#         758
  C:BFBDH         LINE#         760
  C:BFBDH         LINE#         762
  C:BFC2H         LINE#         763
  C:BFC7H         LINE#         764
  C:BFCDH         LINE#         765
  C:BFCDH         LINE#         766
  C:BFD2H         LINE#         767
  -------         ENDPROC       ANALIZA_PRESENCIA_MENSUAL
  -------         PROC          ANALIZA_CARD_MOUNT_RF
  -------         DO            
  X:0002H         SYMBOL        Estado_expedidor
  -------         ENDDO         
  C:BC7FH         LINE#         771
  C:BC7FH         LINE#         772
  C:BC7FH         LINE#         774
  C:BC85H         LINE#         775
  C:BC8CH         LINE#         776
  C:BC8CH         LINE#         778
  C:BC95H         LINE#         780
  C:BC9BH         LINE#         781
BL51 BANKED LINKER/LOCATER V6.22.2.0                                                  06/11/2021  12:08:32  PAGE 111


  C:BC9DH         LINE#         782
  C:BCA4H         LINE#         784
  C:BCA4H         LINE#         785
  C:BCADH         LINE#         786
  C:BCB3H         LINE#         787
  C:BCB3H         LINE#         790
  C:BCB8H         LINE#         791
  -------         ENDPROC       ANALIZA_CARD_MOUNT_RF
  -------         PROC          ANALIZA_PRESENCIA_ROTACION
  -------         DO            
  X:0002H         SYMBOL        Estado_expedidor
  -------         ENDDO         
  C:BFF9H         LINE#         795
  C:BFF9H         LINE#         796
  C:BFF9H         LINE#         798
  C:BFFFH         LINE#         799
  C:BFFFH         LINE#         801
  C:C005H         LINE#         802
  C:C007H         LINE#         804
  C:C007H         LINE#         806
  C:C00CH         LINE#         807
  C:C011H         LINE#         808
  C:C016H         LINE#         810
  C:C016H         LINE#         811
  C:C01BH         LINE#         812
  -------         ENDPROC       ANALIZA_PRESENCIA_ROTACION
  -------         PROC          _ANALIZA_UID_CARD
  X:0002H         SYMBOL        Atributos_Expedidor
  -------         DO            
  X:0005H         SYMBOL        Estado_expedidor
  D:0007H         SYMBOL        temp
  X:0006H         SYMBOL        buffer_UID
  -------         ENDDO         
  C:8A66H         LINE#         816
  C:8A71H         LINE#         817
  C:8A71H         LINE#         821
  C:8A81H         LINE#         822
  C:8A81H         LINE#         824
  C:8A8DH         LINE#         825
  C:8A8DH         LINE#         826
  C:8AA5H         LINE#         828
  C:8AA8H         LINE#         830
  C:8AB1H         LINE#         831
  C:8AC2H         LINE#         834
  C:8ACBH         LINE#         835
  C:8AD3H         LINE#         836
  C:8ADBH         LINE#         837
  C:8AE3H         LINE#         838
  C:8AEBH         LINE#         839
  C:8AF4H         LINE#         841
  C:8B0BH         LINE#         842
  C:8B15H         LINE#         843
  C:8B1FH         LINE#         844
  C:8B29H         LINE#         845
  C:8B2FH         LINE#         846
  C:8B31H         LINE#         848
  C:8B31H         LINE#         849
BL51 BANKED LINKER/LOCATER V6.22.2.0                                                  06/11/2021  12:08:32  PAGE 112


  C:8B37H         LINE#         850
  C:8B37H         LINE#         851
  C:8B3CH         LINE#         852
  -------         ENDPROC       _ANALIZA_UID_CARD
  -------         PROC          INGRESO_VEHICULO
  -------         DO            
  D:0007H         SYMBOL        CardAutomatic
  X:00B9H         SYMBOL        pulseboton
  -------         ENDDO         
  C:B0F2H         LINE#         856
  C:B0F2H         LINE#         857
  C:B0F2H         LINE#         862
  C:B0F8H         LINE#         863
  C:B0F8H         LINE#         864
  C:B101H         LINE#         866
  C:B106H         LINE#         867
  C:B106H         LINE#         868
  C:B10FH         LINE#         870
  C:B10FH         LINE#         871
  C:B111H         LINE#         873
  C:B111H         LINE#         875
  C:B11EH         LINE#         876
  C:B123H         LINE#         877
  C:B128H         LINE#         878
  C:B12AH         LINE#         880
  C:B12AH         LINE#         881
  C:B130H         LINE#         884
  C:B130H         LINE#         885
  C:B133H         LINE#         886
  C:B136H         LINE#         887
  C:B136H         LINE#         888
  C:B138H         LINE#         889
  C:B13DH         LINE#         890
  C:B143H         LINE#         891
  C:B145H         LINE#         893
  C:B145H         LINE#         894
  C:B14AH         LINE#         895
  C:B150H         LINE#         896
  C:B150H         LINE#         899
  C:B150H         LINE#         900
  C:B152H         LINE#         902
  C:B152H         LINE#         904
  C:B157H         LINE#         905
  C:B157H         LINE#         906
  C:B15CH         LINE#         907
  -------         ENDPROC       INGRESO_VEHICULO
  -------         PROC          RESPONDE_ESTADO_SENSORES_TRANSPORTE
  -------         DO            
  X:0002H         SYMBOL        Estado_expedidor
  -------         ENDDO         
  C:AE3FH         LINE#         914
  C:AE3FH         LINE#         915
  C:AE3FH         LINE#         918
  C:AE48H         LINE#         920
  C:AE50H         LINE#         921
  C:AE50H         LINE#         923
  C:AE5BH         LINE#         924
BL51 BANKED LINKER/LOCATER V6.22.2.0                                                  06/11/2021  12:08:32  PAGE 113


  C:AE5BH         LINE#         925
  C:AE5FH         LINE#         926
  C:AE5FH         LINE#         927
  C:AE68H         LINE#         928
  C:AE6DH         LINE#         930
  C:AE6DH         LINE#         931
  C:AE6FH         LINE#         933
  C:AE6FH         LINE#         935
  C:AE77H         LINE#         937
  C:AE77H         LINE#         938
  C:AE79H         LINE#         940
  C:AE79H         LINE#         942
  C:AE82H         LINE#         944
  C:AE87H         LINE#         947
  C:AE87H         LINE#         948
  C:AE87H         LINE#         949
  C:AE89H         LINE#         950
  C:AE90H         LINE#         951
  C:AE90H         LINE#         953
  C:AE96H         LINE#         955
  C:AE96H         LINE#         956
  C:AE98H         LINE#         957
  C:AE9FH         LINE#         959
  C:AE9FH         LINE#         960
  C:AEA8H         LINE#         961
  C:AEAEH         LINE#         962
  C:AEB0H         LINE#         964
  C:AEB0H         LINE#         965
  C:AEB5H         LINE#         966
  C:AEB5H         LINE#         967
  C:AEBAH         LINE#         968
  -------         ENDPROC       RESPONDE_ESTADO_SENSORES_TRANSPORTE
  -------         PROC          RESPONDE_TIPO_TARJETA
  -------         DO            
  X:0002H         SYMBOL        Estado_expedidor
  -------         ENDDO         
  C:AEBBH         LINE#         984
  C:AEBBH         LINE#         985
  C:AEBBH         LINE#         988
  C:AEC4H         LINE#         990
  C:AECCH         LINE#         991
  C:AECCH         LINE#         992
  C:AED7H         LINE#         993
  C:AED7H         LINE#         994
  C:AEE0H         LINE#         995
  C:AEE6H         LINE#         996
  C:AEE6H         LINE#         997
  C:AEE9H         LINE#         998
  C:AEEBH         LINE#         1000
  C:AEEBH         LINE#         1001
  C:AEEEH         LINE#         1002
  C:AEEEH         LINE#         1003
  C:AEF0H         LINE#         1005
  C:AEF0H         LINE#         1006
  C:AEF7H         LINE#         1007
  C:AEF7H         LINE#         1009
  C:AEFDH         LINE#         1011
BL51 BANKED LINKER/LOCATER V6.22.2.0                                                  06/11/2021  12:08:32  PAGE 114


  C:AEFDH         LINE#         1012
  C:AEFDH         LINE#         1014
  C:AEFDH         LINE#         1016
  C:AEFFH         LINE#         1018
  C:AEFFH         LINE#         1019
  C:AEFFH         LINE#         1020
  C:AEFFH         LINE#         1021
  C:AEFFH         LINE#         1022
  C:AEFFH         LINE#         1023
  C:AF01H         LINE#         1025
  C:AF01H         LINE#         1026
  C:AF08H         LINE#         1027
  C:AF08H         LINE#         1030
  C:AF11H         LINE#         1032
  C:AF16H         LINE#         1033
  C:AF1BH         LINE#         1035
  C:AF23H         LINE#         1038
  C:AF25H         LINE#         1040
  C:AF25H         LINE#         1041
  C:AF27H         LINE#         1042
  C:AF2CH         LINE#         1043
  C:AF2CH         LINE#         1044
  C:AF2CH         LINE#         1046
  C:AF31H         LINE#         1047
  -------         ENDPROC       RESPONDE_TIPO_TARJETA
  -------         PROC          _RESPONDE_LECTURA_TARJETA_SECTOR1_BLOQUE1
  X:0002H         SYMBOL        Atributos_Expedidor
  -------         DO            
  D:0007H         SYMBOL        temp
  X:0005H         SYMBOL        Estado_expedidor
  X:0006H         SYMBOL        buffer_S1_B1
  X:0017H         SYMBOL        ID_CLIENTE
  D:0007H         SYMBOL        COD_PARK
  X:00BAH         SYMBOL        falla
  -------         ENDDO         
  C:5F01H         LINE#         1059
  C:5F0CH         LINE#         1060
  C:5F0CH         LINE#         1067
  C:5F15H         LINE#         1071
  C:5F25H         LINE#         1072
  C:5F25H         LINE#         1074
  C:5F31H         LINE#         1075
  C:5F31H         LINE#         1076
  C:5F49H         LINE#         1078
  C:5F4CH         LINE#         1081
  C:5F55H         LINE#         1082
  C:5F66H         LINE#         1083
  C:5F73H         LINE#         1084
  C:5F7CH         LINE#         1087
  C:5F9BH         LINE#         1088
  C:5F9BH         LINE#         1090
  C:5FA4H         LINE#         1091
  C:5FACH         LINE#         1092
  C:5FB5H         LINE#         1094
  C:5FBEH         LINE#         1095
  C:5FC6H         LINE#         1096
  C:5FCFH         LINE#         1098
BL51 BANKED LINKER/LOCATER V6.22.2.0                                                  06/11/2021  12:08:32  PAGE 115


  C:5FD8H         LINE#         1099
  C:5FE0H         LINE#         1100
  C:5FE9H         LINE#         1102
  C:5FF2H         LINE#         1103
  C:5FFAH         LINE#         1104
  C:6003H         LINE#         1106
  C:600CH         LINE#         1107
  C:6014H         LINE#         1108
  C:601DH         LINE#         1110
  C:6034H         LINE#         1112
  C:603EH         LINE#         1113
  C:6048H         LINE#         1114
  C:6052H         LINE#         1116
  C:6057H         LINE#         1117
  C:606AH         LINE#         1118
  C:606FH         LINE#         1119
  C:6075H         LINE#         1121
  C:6077H         LINE#         1123
  C:6077H         LINE#         1124
  C:607CH         LINE#         1125
  C:6085H         LINE#         1126
  C:608AH         LINE#         1127
  C:608CH         LINE#         1128
  C:608CH         LINE#         1129
  C:608CH         LINE#         1130
  C:608EH         LINE#         1132
  C:608EH         LINE#         1134
  C:6096H         LINE#         1135
  C:6096H         LINE#         1136
  C:609CH         LINE#         1137
  C:609CH         LINE#         1138
  C:60A9H         LINE#         1140
  C:60A9H         LINE#         1141
  C:60B2H         LINE#         1142
  C:60B8H         LINE#         1144
  C:60BAH         LINE#         1146
  C:60BAH         LINE#         1147
  C:60BFH         LINE#         1148
  C:60C8H         LINE#         1149
  C:60CDH         LINE#         1150
  C:60D2H         LINE#         1151
  C:60DAH         LINE#         1152
  C:60DAH         LINE#         1153
  C:60DAH         LINE#         1155
  C:60DFH         LINE#         1156
  -------         ENDPROC       _RESPONDE_LECTURA_TARJETA_SECTOR1_BLOQUE1
  -------         PROC          _RESPONDE_LECTURA_TARJETA_SECTOR1_BLOQUE2
  X:0002H         SYMBOL        Atributos_Expedidor
  -------         DO            
  D:0007H         SYMBOL        temp
  X:0005H         SYMBOL        Estado_expedidor
  X:0006H         SYMBOL        buffer_S1_B2
  -------         ENDDO         
  C:733FH         LINE#         1161
  C:734AH         LINE#         1162
  C:734AH         LINE#         1168
  C:7353H         LINE#         1172
BL51 BANKED LINKER/LOCATER V6.22.2.0                                                  06/11/2021  12:08:32  PAGE 116


  C:7363H         LINE#         1173
  C:7363H         LINE#         1175
  C:736FH         LINE#         1176
  C:736FH         LINE#         1177
  C:7387H         LINE#         1178
  C:738AH         LINE#         1179
  C:7393H         LINE#         1180
  C:73A4H         LINE#         1184
  C:73ADH         LINE#         1185
  C:73BAH         LINE#         1186
  C:73D6H         LINE#         1187
  C:73DFH         LINE#         1189
  C:73E8H         LINE#         1191
  C:7404H         LINE#         1192
  C:740EH         LINE#         1193
  C:7417H         LINE#         1196
  C:7420H         LINE#         1197
  C:7428H         LINE#         1198
  C:7431H         LINE#         1202
  C:7448H         LINE#         1205
  C:7454H         LINE#         1206
  C:745AH         LINE#         1209
  C:745CH         LINE#         1211
  C:745CH         LINE#         1212
  C:7464H         LINE#         1213
  C:7464H         LINE#         1214
  C:7469H         LINE#         1215
  -------         ENDPROC       _RESPONDE_LECTURA_TARJETA_SECTOR1_BLOQUE2
  -------         PROC          _RESPONDE_LECTURA_TARJETA_SECTOR1_BLOQUE0
  X:0002H         SYMBOL        Nombre_Mensual
  -------         DO            
  D:0007H         SYMBOL        temp
  X:0005H         SYMBOL        Estado_expedidor
  -------         ENDDO         
  C:A020H         LINE#         1217
  C:A02BH         LINE#         1218
  C:A02BH         LINE#         1224
  C:A034H         LINE#         1228
  C:A041H         LINE#         1229
  C:A041H         LINE#         1231
  C:A04DH         LINE#         1232
  C:A04DH         LINE#         1233
  C:A06DH         LINE#         1234
  C:A070H         LINE#         1235
  C:A084H         LINE#         1236
  C:A08DH         LINE#         1237
  C:A09BH         LINE#         1238
  C:A0A4H         LINE#         1239
  C:A0AAH         LINE#         1242
  C:A0ACH         LINE#         1244
  C:A0ACH         LINE#         1245
  C:A0B4H         LINE#         1246
  C:A0B4H         LINE#         1247
  C:A0B9H         LINE#         1248
  -------         ENDPROC       _RESPONDE_LECTURA_TARJETA_SECTOR1_BLOQUE0
  -------         PROC          _RESPONDE_REELECTURA_TARJETA_SECTOR1_BLOQUE2
  X:0002H         SYMBOL        lectura_anterior
BL51 BANKED LINKER/LOCATER V6.22.2.0                                                  06/11/2021  12:08:32  PAGE 117


  X:0005H         SYMBOL        Atributos_Expedidor
  -------         DO            
  D:0007H         SYMBOL        temp
  X:0008H         SYMBOL        Estado_expedidor
  X:0009H         SYMBOL        reelectura
  X:00BBH         SYMBOL        error_lectura
  -------         ENDDO         
  C:6A86H         LINE#         1249
  C:6A91H         LINE#         1250
  C:6A91H         LINE#         1256
  C:6A9AH         LINE#         1259
  C:6AAAH         LINE#         1260
  C:6AAAH         LINE#         1262
  C:6AB6H         LINE#         1263
  C:6AB6H         LINE#         1264
  C:6AD6H         LINE#         1265
  C:6AD9H         LINE#         1266
  C:6AEDH         LINE#         1267
  C:6AF6H         LINE#         1268
  C:6B0CH         LINE#         1269
  C:6B15H         LINE#         1271
  C:6B39H         LINE#         1272
  C:6B39H         LINE#         1273
  C:6B3DH         LINE#         1274
  C:6B46H         LINE#         1275
  C:6B4FH         LINE#         1276
  C:6B5FH         LINE#         1277
  C:6B71H         LINE#         1278
  C:6B7FH         LINE#         1279
  C:6B7FH         LINE#         1280
  C:6B81H         LINE#         1282
  C:6B81H         LINE#         1283
  C:6B87H         LINE#         1284
  C:6B97H         LINE#         1285
  C:6B97H         LINE#         1286
  C:6B9AH         LINE#         1287
  C:6BA0H         LINE#         1289
  C:6BA2H         LINE#         1291
  C:6BA2H         LINE#         1292
  C:6BA5H         LINE#         1293
  C:6BAEH         LINE#         1294
  C:6BBEH         LINE#         1295
  C:6BD1H         LINE#         1296
  C:6BD7H         LINE#         1298
  C:6BD7H         LINE#         1299
  C:6BD7H         LINE#         1301
  C:6BD7H         LINE#         1302
  C:6BDCH         LINE#         1303
  -------         ENDPROC       _RESPONDE_REELECTURA_TARJETA_SECTOR1_BLOQUE2
  -------         PROC          _RESPONDE_WRITE_TARJETA_SECTOR1_BLOQUE1
  X:0002H         SYMBOL        Buffer_Write_MF
  -------         DO            
  D:0007H         SYMBOL        Estado_expedidor
  -------         ENDDO         
  C:BD27H         LINE#         1304
  C:BD32H         LINE#         1305
  C:BD32H         LINE#         1307
BL51 BANKED LINKER/LOCATER V6.22.2.0                                                  06/11/2021  12:08:32  PAGE 118


  C:BD3BH         LINE#         1308
  C:BD44H         LINE#         1309
  C:BD5AH         LINE#         1310
  C:BD5CH         LINE#         1311
  C:BD5CH         LINE#         1312
  -------         ENDPROC       _RESPONDE_WRITE_TARJETA_SECTOR1_BLOQUE1
  -------         PROC          _RESPONDE_WRITE_TARJETA_SECTOR1_BLOQUE2
  X:0002H         SYMBOL        Atributos_Expedidor
  X:0005H         SYMBOL        Buffer_Write_MF
  -------         DO            
  X:0008H         SYMBOL        Estado_expedidor
  -------         ENDDO         
  C:B086H         LINE#         1313
  C:B091H         LINE#         1314
  C:B091H         LINE#         1316
  C:B09AH         LINE#         1317
  C:B0A3H         LINE#         1318
  C:B0B9H         LINE#         1319
  C:B0BCH         LINE#         1320
  C:B0BCH         LINE#         1321
  C:B0C2H         LINE#         1327
  C:B0C4H         LINE#         1329
  C:B0C4H         LINE#         1330
  C:B0D4H         LINE#         1331
  C:B0E6H         LINE#         1332
  C:B0ECH         LINE#         1334
  C:B0ECH         LINE#         1335
  C:B0F1H         LINE#         1336
  -------         ENDPROC       _RESPONDE_WRITE_TARJETA_SECTOR1_BLOQUE2
  -------         PROC          _RESPONDE_WRITE_TARJETA_SECTOR1_BLOQUE0
  X:0002H         SYMBOL        Buffer_Write_MF
  C:BD5DH         LINE#         1339
  C:BD68H         LINE#         1340
  C:BD68H         LINE#         1342
  C:BD71H         LINE#         1343
  C:BD7AH         LINE#         1344
  C:BD90H         LINE#         1346
  C:BD92H         LINE#         1347
  -------         ENDPROC       _RESPONDE_WRITE_TARJETA_SECTOR1_BLOQUE0
  -------         PROC          _RESPONDE_WRITE_TARJETA_SECTOR2_BLOQUE0
  X:0002H         SYMBOL        Buffer_Write_MF
  C:B701H         LINE#         1350
  C:B70CH         LINE#         1351
  C:B70CH         LINE#         1353
  C:B715H         LINE#         1354
  C:B71EH         LINE#         1355
  C:B727H         LINE#         1356
  C:B730H         LINE#         1357
  C:B745H         LINE#         1358
  C:B747H         LINE#         1359
  -------         ENDPROC       _RESPONDE_WRITE_TARJETA_SECTOR2_BLOQUE0
  -------         PROC          _PREGUNTA_LPR
  X:0002H         SYMBOL        Atributos_Expedidor
  -------         DO            
  D:0007H         SYMBOL        Estado_expedidor
  -------         ENDDO         
  C:B458H         LINE#         1363
BL51 BANKED LINKER/LOCATER V6.22.2.0                                                  06/11/2021  12:08:32  PAGE 119


  C:B463H         LINE#         1364
  C:B463H         LINE#         1366
  C:B46CH         LINE#         1367
  C:B47AH         LINE#         1368
  C:B488H         LINE#         1369
  C:B488H         LINE#         1371
  C:B499H         LINE#         1372
  C:B4A5H         LINE#         1373
  C:B4A5H         LINE#         1374
  C:B4A9H         LINE#         1375
  C:B4A9H         LINE#         1376
  C:B4A9H         LINE#         1379
  C:B4ABH         LINE#         1381
  C:B4ABH         LINE#         1382
  -------         ENDPROC       _PREGUNTA_LPR
  -------         PROC          PREGUNTA_PLACA
  -------         DO            
  X:0002H         SYMBOL        Estado_expedidor
  -------         ENDDO         
  C:BE60H         LINE#         1384
  C:BE60H         LINE#         1385
  C:BE60H         LINE#         1387
  C:BE69H         LINE#         1388
  C:BE78H         LINE#         1389
  C:BE78H         LINE#         1391
  C:BE7BH         LINE#         1392
  C:BE80H         LINE#         1393
  C:BE85H         LINE#         1394
  C:BE87H         LINE#         1396
  C:BE87H         LINE#         1397
  C:BE8AH         LINE#         1398
  C:BE8AH         LINE#         1399
  C:BE8FH         LINE#         1400
  -------         ENDPROC       PREGUNTA_PLACA
  -------         PROC          _RESPUESTA_SEGUNDA_CLAVE
  X:0002H         SYMBOL        Atributos_Expedidor
  X:0005H         SYMBOL        Buffer_Write_MF
  C:B2EEH         LINE#         1401
  C:B2F9H         LINE#         1402
  C:B2F9H         LINE#         1404
  C:B302H         LINE#         1405
  C:B318H         LINE#         1408
  C:B328H         LINE#         1409
  C:B33AH         LINE#         1410
  C:B348H         LINE#         1412
  C:B34AH         LINE#         1413
  -------         ENDPROC       _RESPUESTA_SEGUNDA_CLAVE
  -------         PROC          _RESPUESTA_PLACA_CANCEL
  X:0009H         SYMBOL        Atributos_Expedidor
  X:000CH         SYMBOL        Buffer_Write_MF
  -------         DO            
  X:000FH         SYMBOL        Estado_expedidor
  X:0010H         SYMBOL        Cancel
  -------         ENDDO         
  C:9F84H         LINE#         1414
  C:9F8FH         LINE#         1415
  C:9F8FH         LINE#         1417
BL51 BANKED LINKER/LOCATER V6.22.2.0                                                  06/11/2021  12:08:32  PAGE 120


  C:9F9DH         LINE#         1418
  C:9FA6H         LINE#         1419
  C:9FAFH         LINE#         1420
  C:9FB8H         LINE#         1422
  C:9FD3H         LINE#         1423
  C:9FD3H         LINE#         1424
  C:9FE3H         LINE#         1425
  C:9FF6H         LINE#         1426
  C:A004H         LINE#         1427
  C:A00AH         LINE#         1428
  C:A00CH         LINE#         1430
  C:A00CH         LINE#         1431
  C:A012H         LINE#         1432
  C:A012H         LINE#         1433
  C:A015H         LINE#         1434
  C:A017H         LINE#         1436
  C:A017H         LINE#         1438
  C:A01AH         LINE#         1439
  C:A01AH         LINE#         1440
  C:A01AH         LINE#         1441
  C:A01FH         LINE#         1442
  -------         ENDPROC       _RESPUESTA_PLACA_CANCEL
  -------         PROC          _ARMAR_TRAMA_TARJETA_SECTOR1_BLOQUE1_CAMCEL
  X:0013H         SYMBOL        Buffer_Write_MF
  -------         DO            
  X:0016H         SYMBOL        ID_CLIENTE
  D:0007H         SYMBOL        COD_PARK
  -------         ENDDO         
  C:9DA2H         LINE#         1445
  C:9DADH         LINE#         1446
  C:9DADH         LINE#         1450
  C:9DB0H         LINE#         1451
  C:9DBDH         LINE#         1452
  C:9DC6H         LINE#         1454
  C:9DD6H         LINE#         1455
  C:9DE8H         LINE#         1456
  C:9DEFH         LINE#         1457
  C:9DF9H         LINE#         1458
  C:9E00H         LINE#         1459
  C:9E07H         LINE#         1460
  C:9E0EH         LINE#         1461
  C:9E15H         LINE#         1462
  C:9E1CH         LINE#         1463
  C:9E23H         LINE#         1464
  C:9E2AH         LINE#         1465
  C:9E31H         LINE#         1466
  C:9E38H         LINE#         1467
  C:9E3FH         LINE#         1468
  -------         ENDPROC       _ARMAR_TRAMA_TARJETA_SECTOR1_BLOQUE1_CAMCEL
  -------         PROC          _ARMAR_TRAMA_TARJETA_SECTOR1_BLOQUE2
  X:0010H         SYMBOL        Atributos_Expedidor
  X:0013H         SYMBOL        Buffer_Write_MF
  C:5D16H         LINE#         1474
  C:5D21H         LINE#         1475
  C:5D21H         LINE#         1480
  C:5D45H         LINE#         1481
  C:5D6CH         LINE#         1482
BL51 BANKED LINKER/LOCATER V6.22.2.0                                                  06/11/2021  12:08:32  PAGE 121


  C:5D93H         LINE#         1483
  C:5DBAH         LINE#         1484
  C:5DE1H         LINE#         1487
  C:5DE8H         LINE#         1488
  C:5DEFH         LINE#         1489
  C:5DF6H         LINE#         1491
  C:5E0BH         LINE#         1492
  C:5E0BH         LINE#         1493
  C:5E22H         LINE#         1494
  C:5E3BH         LINE#         1495
  C:5E3BH         LINE#         1496
  C:5E3EH         LINE#         1500
  C:5E3EH         LINE#         1502
  C:5E6DH         LINE#         1503
  C:5E9CH         LINE#         1505
  C:5EB4H         LINE#         1506
  C:5EB4H         LINE#         1507
  C:5EC1H         LINE#         1508
  C:5EC3H         LINE#         1510
  C:5EC3H         LINE#         1511
  C:5ED3H         LINE#         1512
  C:5ED3H         LINE#         1513
  C:5ED3H         LINE#         1515
  C:5EE5H         LINE#         1516
  C:5EECH         LINE#         1517
  C:5EF3H         LINE#         1518
  C:5EFAH         LINE#         1519
  -------         ENDPROC       _ARMAR_TRAMA_TARJETA_SECTOR1_BLOQUE2
  -------         PROC          _ARMAR_TRAMA_TARJETA_SECTOR1_BLOQUE0
  X:000CH         SYMBOL        Buffer_Write_MF
  C:BF38H         LINE#         1521
  C:BF43H         LINE#         1522
  C:BF43H         LINE#         1524
  -------         ENDPROC       _ARMAR_TRAMA_TARJETA_SECTOR1_BLOQUE0
  -------         PROC          _ARMAR_TRAMA_PTO_PARALELO_EXPEDIDOR
  X:0009H         SYMBOL        Atributos_Expedidor
  X:000CH         SYMBOL        longitud_trama_pto_paralelo
  -------         DO            
  X:00BCH         SYMBOL        buffer
  X:000FH         SYMBOL        ticket
  X:001AH         SYMBOL        j
  -------         ENDDO         
  C:529DH         LINE#         1526
  C:52A8H         LINE#         1527
  C:52A8H         LINE#         1534
  C:52AEH         LINE#         1535
  C:52B2H         LINE#         1536
  C:52B5H         LINE#         1537
  C:52C1H         LINE#         1538
  C:52D8H         LINE#         1539
  C:52E6H         LINE#         1541
  C:52F7H         LINE#         1543
  C:5323H         LINE#         1544
  C:534FH         LINE#         1545
  C:537BH         LINE#         1546
  C:53A7H         LINE#         1547
  C:53D3H         LINE#         1548
BL51 BANKED LINKER/LOCATER V6.22.2.0                                                  06/11/2021  12:08:32  PAGE 122


  C:53E7H         LINE#         1558
  C:53F6H         LINE#         1559
  C:53F6H         LINE#         1560
  C:53FCH         LINE#         1561
  C:53FCH         LINE#         1562
  C:5413H         LINE#         1563
  C:5429H         LINE#         1564
  C:543FH         LINE#         1565
  C:5455H         LINE#         1566
  C:546BH         LINE#         1567
  C:5480H         LINE#         1568
  C:5480H         LINE#         1569
  C:5482H         LINE#         1571
  C:5482H         LINE#         1572
  C:5495H         LINE#         1573
  C:5495H         LINE#         1574
  C:5495H         LINE#         1575
  C:5497H         LINE#         1577
  C:5497H         LINE#         1578
  C:54ABH         LINE#         1579
  C:54BEH         LINE#         1580
  C:54BEH         LINE#         1581
  C:54CCH         LINE#         1582
  C:54DAH         LINE#         1583
  C:54ECH         LINE#         1585
  C:54F2H         LINE#         1586
  -------         ENDPROC       _ARMAR_TRAMA_PTO_PARALELO_EXPEDIDOR
  -------         PROC          _ARMAR_TRAMA_PTO_PARALELO_EXPEDIDOR_MENSUAL
  X:0009H         SYMBOL        Atributos_Expedidor
  X:000CH         SYMBOL        longitud_trama_pto_paralelo
  -------         DO            
  X:00D8H         SYMBOL        buffer
  -------         ENDDO         
  C:7211H         LINE#         1587
  C:721CH         LINE#         1588
  C:721CH         LINE#         1594
  C:7222H         LINE#         1595
  C:7226H         LINE#         1596
  C:723BH         LINE#         1597
  C:7245H         LINE#         1598
  C:724FH         LINE#         1599
  C:7259H         LINE#         1603
  C:726AH         LINE#         1604
  C:7286H         LINE#         1605
  C:72A2H         LINE#         1606
  C:72BEH         LINE#         1607
  C:72DAH         LINE#         1617
  C:72E6H         LINE#         1618
  C:72E6H         LINE#         1620
  C:72EDH         LINE#         1621
  C:72F1H         LINE#         1622
  C:72F5H         LINE#         1623
  C:72F9H         LINE#         1624
  C:72FDH         LINE#         1625
  C:7301H         LINE#         1627
  C:7301H         LINE#         1629
  C:7317H         LINE#         1630
BL51 BANKED LINKER/LOCATER V6.22.2.0                                                  06/11/2021  12:08:32  PAGE 123


  C:7317H         LINE#         1631
  C:731AH         LINE#         1632
  C:731CH         LINE#         1634
  C:731CH         LINE#         1635
  C:731FH         LINE#         1636
  C:731FH         LINE#         1638
  C:7325H         LINE#         1639
  C:7328H         LINE#         1640
  C:7338H         LINE#         1641
  C:733EH         LINE#         1642
  -------         ENDPROC       _ARMAR_TRAMA_PTO_PARALELO_EXPEDIDOR_MENSUAL
  -------         PROC          _ARMAR_TRAMA_MONITOR
  X:0005H         SYMBOL        Atributos_Expedidor
  -------         DO            
  X:00F4H         SYMBOL        buffer
  X:0008H         SYMBOL        ticket
  X:0013H         SYMBOL        j
  -------         ENDDO         
  C:4FFAH         LINE#         1643
  C:5005H         LINE#         1644
  C:5005H         LINE#         1650
  C:500AH         LINE#         1651
  C:5010H         LINE#         1652
  C:5018H         LINE#         1653
  C:501CH         LINE#         1654
  C:5025H         LINE#         1655
  C:5025H         LINE#         1656
  C:5028H         LINE#         1657
  C:502AH         LINE#         1659
  C:502AH         LINE#         1660
  C:502DH         LINE#         1661
  C:502DH         LINE#         1664
  C:5030H         LINE#         1665
  C:5030H         LINE#         1666
  C:5035H         LINE#         1667
  C:5041H         LINE#         1668
  C:5058H         LINE#         1669
  C:505BH         LINE#         1671
  C:505BH         LINE#         1672
  C:5076H         LINE#         1673
  C:5084H         LINE#         1674
  C:5092H         LINE#         1675
  C:509EH         LINE#         1676
  C:50ACH         LINE#         1677
  C:50E5H         LINE#         1679
  C:50E5H         LINE#         1680
  C:50F3H         LINE#         1681
  C:5104H         LINE#         1684
  C:5130H         LINE#         1685
  C:514EH         LINE#         1688
  C:516FH         LINE#         1689
  C:518DH         LINE#         1692
  C:51AEH         LINE#         1693
  C:51CCH         LINE#         1696
  C:51EDH         LINE#         1697
  C:520BH         LINE#         1700
  C:522CH         LINE#         1701
BL51 BANKED LINKER/LOCATER V6.22.2.0                                                  06/11/2021  12:08:32  PAGE 124


  C:524AH         LINE#         1702
  C:525DH         LINE#         1705
  C:526BH         LINE#         1707
  C:5279H         LINE#         1708
  C:5286H         LINE#         1709
  C:5292H         LINE#         1710
  C:5297H         LINE#         1711
  C:529CH         LINE#         1712
  -------         ENDPROC       _ARMAR_TRAMA_MONITOR
  -------         PROC          _ARMAR_TRAMA_PLACA
  X:0008H         SYMBOL        Buffer_Write_MF
  -------         DO            
  D:0006H         SYMBOL        j
  D:0007H         SYMBOL        len_placa
  -------         ENDDO         
  C:B34BH         LINE#         1713
  C:B356H         LINE#         1714
  C:B356H         LINE#         1717
  C:B35FH         LINE#         1718
  C:B366H         LINE#         1719
  C:B366H         LINE#         1720
  C:B380H         LINE#         1721
  C:B383H         LINE#         1722
  C:B38FH         LINE#         1723
  C:B38FH         LINE#         1724
  C:B3A3H         LINE#         1725
  C:B3A6H         LINE#         1726
  -------         ENDPROC       _ARMAR_TRAMA_PLACA
  C:BB57H         SYMBOL        L?0402
  -------         PROC          L?0401
  -------         ENDPROC       L?0401
  C:BB57H         SYMBOL        L?0402
  -------         PROC          _LOAD_SECUENCIA_EXPEDIDOR
  D:0001H         SYMBOL        Secuencia_Expedidor
  D:0004H         SYMBOL        estadoactivo
  X:0007H         SYMBOL        estadoactual
  X:0009H         SYMBOL        estadofuturo
  C:BB73H         LINE#         1727
  C:BB73H         LINE#         1728
  C:BB73H         LINE#         1729
  C:BB7AH         LINE#         1730
  C:BB82H         LINE#         1731
  C:BB8DH         LINE#         1732
  C:BB93H         LINE#         1733
  -------         ENDPROC       _LOAD_SECUENCIA_EXPEDIDOR
  -------         PROC          _DISPARO_LOCK_ENTRADA_VEHICULO
  X:0002H         SYMBOL        Nombre_Mensual
  -------         DO            
  X:0005H         SYMBOL        Estado_expedidor
  X:010CH         SYMBOL        take_card
  -------         ENDDO         
  C:A560H         LINE#         1734
  C:A56BH         LINE#         1735
  C:A56BH         LINE#         1740
  C:A574H         LINE#         1744
  C:A57BH         LINE#         1745
  C:A57BH         LINE#         1747
BL51 BANKED LINKER/LOCATER V6.22.2.0                                                  06/11/2021  12:08:32  PAGE 125


  C:A584H         LINE#         1749
  C:A58AH         LINE#         1750
  C:A58CH         LINE#         1751
  C:A591H         LINE#         1752
  C:A5A1H         LINE#         1753
  C:A5A7H         LINE#         1756
  C:A5A9H         LINE#         1757
  C:A5B1H         LINE#         1758
  C:A5B1H         LINE#         1759
  C:A5B7H         LINE#         1760
  C:A5B7H         LINE#         1761
  C:A5C4H         LINE#         1762
  C:A5C9H         LINE#         1763
  C:A5CEH         LINE#         1764
  C:A5D0H         LINE#         1766
  C:A5D0H         LINE#         1767
  C:A5D6H         LINE#         1769
  C:A5D6H         LINE#         1771
  C:A5DCH         LINE#         1772
  C:A5E2H         LINE#         1774
  C:A5E4H         LINE#         1776
  C:A5E4H         LINE#         1777
  C:A5EAH         LINE#         1778
  C:A5EAH         LINE#         1780
  C:A5EAH         LINE#         1785
  C:A5EFH         LINE#         1786
  -------         ENDPROC       _DISPARO_LOCK_ENTRADA_VEHICULO
  -------         PROC          _SEND_PTO_PARALELO
  X:0002H         SYMBOL        Atributos_Expedidor
  -------         DO            
  X:0005H         SYMBOL        Trama_Expedidor
  X:0008H         SYMBOL        leng_trama_pto
  -------         ENDDO         
  C:9CFDH         LINE#         1787
  C:9D08H         LINE#         1788
  C:9D08H         LINE#         1791
  C:9D0BH         LINE#         1792
  C:9D0BH         LINE#         1793
  C:9D32H         LINE#         1794
  C:9D34H         LINE#         1796
  C:9D34H         LINE#         1797
  C:9D5BH         LINE#         1798
  C:9D5EH         LINE#         1799
  C:9D5EH         LINE#         1801
  C:9D6FH         LINE#         1802
  C:9D78H         LINE#         1803
  C:9D8FH         LINE#         1807
  C:9D92H         LINE#         1808
  C:9D98H         LINE#         1809
  C:9D9DH         LINE#         1810
  C:9D9FH         LINE#         1811
  C:9DA1H         LINE#         1812
  -------         ENDPROC       _SEND_PTO_PARALELO
  -------         PROC          ENTREGA_CARD_CAPTURA
  -------         DO            
  X:0002H         SYMBOL        Estado_expedidor
  -------         ENDDO         
BL51 BANKED LINKER/LOCATER V6.22.2.0                                                  06/11/2021  12:08:32  PAGE 126


  C:A5F0H         LINE#         1816
  C:A5F0H         LINE#         1817
  C:A5F0H         LINE#         1821
  C:A5F9H         LINE#         1822
  C:A5FCH         LINE#         1823
  C:A5FFH         LINE#         1824
  C:A5FFH         LINE#         1825
  C:A609H         LINE#         1826
  C:A609H         LINE#         1827
  C:A60BH         LINE#         1828
  C:A60DH         LINE#         1829
  C:A616H         LINE#         1830
  C:A616H         LINE#         1831
  C:A616H         LINE#         1833
  C:A618H         LINE#         1835
  C:A618H         LINE#         1836
  C:A61EH         LINE#         1837
  C:A61EH         LINE#         1839
  C:A624H         LINE#         1841
  C:A637H         LINE#         1842
  C:A637H         LINE#         1843
  C:A644H         LINE#         1844
  C:A644H         LINE#         1845
  C:A646H         LINE#         1846
  C:A64FH         LINE#         1848
  C:A651H         LINE#         1849
  C:A651H         LINE#         1850
  C:A653H         LINE#         1851
  C:A660H         LINE#         1852
  C:A660H         LINE#         1853
  C:A666H         LINE#         1854
  C:A666H         LINE#         1855
  C:A666H         LINE#         1857
  C:A668H         LINE#         1859
  C:A668H         LINE#         1860
  C:A66AH         LINE#         1861
  C:A673H         LINE#         1862
  C:A675H         LINE#         1863
  C:A67AH         LINE#         1864
  C:A67AH         LINE#         1865
  C:A67AH         LINE#         1867
  C:A67FH         LINE#         1868
  -------         ENDPROC       ENTREGA_CARD_CAPTURA
  -------         PROC          _WAIT_PLACA
  X:0002H         SYMBOL        Atributos_Expedidor
  X:0005H         SYMBOL        Buffer_Write_MF
  -------         DO            
  X:0008H         SYMBOL        Estado_expedidor
  -------         ENDDO         
  C:9840H         LINE#         1869
  C:984BH         LINE#         1870
  C:984BH         LINE#         1873
  C:9854H         LINE#         1875
  C:986AH         LINE#         1876
  C:986AH         LINE#         1877
  C:986DH         LINE#         1878
  C:986DH         LINE#         1880
BL51 BANKED LINKER/LOCATER V6.22.2.0                                                  06/11/2021  12:08:32  PAGE 127


  C:9870H         LINE#         1881
  C:9870H         LINE#         1882
  C:9872H         LINE#         1884
  C:9875H         LINE#         1885
  C:9875H         LINE#         1886
  C:989DH         LINE#         1887
  C:989FH         LINE#         1890
  C:989FH         LINE#         1891
  C:98A5H         LINE#         1892
  C:98B8H         LINE#         1893
  C:98B8H         LINE#         1894
  C:98C5H         LINE#         1895
  C:98C5H         LINE#         1896
  C:98D4H         LINE#         1897
  C:98DAH         LINE#         1898
  C:98DCH         LINE#         1899
  C:98E9H         LINE#         1900
  C:98E9H         LINE#         1901
  C:98EFH         LINE#         1902
  C:98EFH         LINE#         1903
  C:98EFH         LINE#         1904
  C:98EFH         LINE#         1905
  C:98F4H         LINE#         1906
  -------         ENDPROC       _WAIT_PLACA
  -------         PROC          _VALIDA_VEHICULO_CARD_MENSUAL
  X:0010H         SYMBOL        Atributos_Expedidor
  -------         DO            
  X:0013H         SYMBOL        Estado_expedidor
  -------         ENDDO         
  C:A286H         LINE#         1907
  C:A291H         LINE#         1908
  C:A291H         LINE#         1911
  C:A29AH         LINE#         1912
  C:A2AFH         LINE#         1913
  C:A2AFH         LINE#         1914
  C:A2B3H         LINE#         1915
  C:A2B5H         LINE#         1917
  C:A2B5H         LINE#         1918
  C:A2BCH         LINE#         1919
  C:A2BCH         LINE#         1921
  C:A2C5H         LINE#         1922
  C:A2D3H         LINE#         1923
  C:A2D3H         LINE#         1924
  C:A2ECH         LINE#         1925
  C:A2ECH         LINE#         1926
  C:A2F2H         LINE#         1927
  C:A2F2H         LINE#         1928
  C:A2F4H         LINE#         1931
  C:A2F4H         LINE#         1932
  C:A2F9H         LINE#         1933
  C:A302H         LINE#         1934
  C:A307H         LINE#         1935
  C:A307H         LINE#         1936
  C:A309H         LINE#         1938
  C:A309H         LINE#         1939
  C:A312H         LINE#         1940
  C:A318H         LINE#         1941
BL51 BANKED LINKER/LOCATER V6.22.2.0                                                  06/11/2021  12:08:32  PAGE 128


  C:A318H         LINE#         1942
  C:A31DH         LINE#         1943
  -------         ENDPROC       _VALIDA_VEHICULO_CARD_MENSUAL
  -------         PROC          _TARJETA_MENSUAL
  X:0009H         SYMBOL        Atributos_Expedidor
  X:000CH         SYMBOL        Buffer_Write_MF
  -------         DO            
  X:000FH         SYMBOL        Estado_expedidor
  -------         ENDDO         
  C:90D4H         LINE#         1944
  C:90DFH         LINE#         1945
  C:90DFH         LINE#         1950
  C:90EAH         LINE#         1951
  C:90EAH         LINE#         1952
  C:9108H         LINE#         1953
  C:9108H         LINE#         1955
  C:9119H         LINE#         1956
  C:9119H         LINE#         1957
  C:9121H         LINE#         1958
  C:9123H         LINE#         1960
  C:9123H         LINE#         1961
  C:912CH         LINE#         1962
  C:913CH         LINE#         1963
  C:914FH         LINE#         1964
  C:916FH         LINE#         1965
  C:9175H         LINE#         1966
  C:9175H         LINE#         1967
  C:9177H         LINE#         1969
  C:9177H         LINE#         1970
  C:917CH         LINE#         1972
  C:9181H         LINE#         1973
  C:918AH         LINE#         1974
  C:918AH         LINE#         1975
  C:918AH         LINE#         1976
  C:918CH         LINE#         1978
  C:918CH         LINE#         1980
  C:9192H         LINE#         1981
  C:9192H         LINE#         1982
  C:9197H         LINE#         1983
  -------         ENDPROC       _TARJETA_MENSUAL
  -------         PROC          _TARJETA_ROTACION
  D:0001H         SYMBOL        Atributos_Expedidor
  X:000CH         SYMBOL        Buffer_Write_MF
  C:BE2FH         LINE#         1984
  C:BE2FH         LINE#         1985
  C:BE2FH         LINE#         1986
  C:BE34H         LINE#         1987
  C:BE3DH         LINE#         1988
  C:BE5DH         LINE#         1989
  C:BE5FH         LINE#         1992
  -------         ENDPROC       _TARJETA_ROTACION
  -------         PROC          _VALIDA_TIPO_TARJETA
  X:0002H         SYMBOL        Atributos_Expedidor
  X:0005H         SYMBOL        Buffer_Write_MF
  -------         DO            
  X:0008H         SYMBOL        Estado_expedidor
  -------         ENDDO         
BL51 BANKED LINKER/LOCATER V6.22.2.0                                                  06/11/2021  12:08:32  PAGE 129


  C:646BH         LINE#         1993
  C:6476H         LINE#         1994
  C:6476H         LINE#         1996
  C:6483H         LINE#         1997
  C:6483H         LINE#         1998
  C:648CH         LINE#         1999
  C:6492H         LINE#         2000
  C:6492H         LINE#         2004
  C:64A0H         LINE#         2005
  C:64A0H         LINE#         2008
  C:64BDH         LINE#         2009
  C:64BDH         LINE#         2010
  C:64DAH         LINE#         2012
  C:64DCH         LINE#         2014
  C:64DCH         LINE#         2015
  C:64E5H         LINE#         2016
  C:64E7H         LINE#         2017
  C:64E7H         LINE#         2018
  C:64E7H         LINE#         2019
  C:64EAH         LINE#         2022
  C:64EAH         LINE#         2023
  C:64F3H         LINE#         2025
  C:6516H         LINE#         2026
  C:6516H         LINE#         2027
  C:6519H         LINE#         2029
  C:6519H         LINE#         2030
  C:651EH         LINE#         2031
  C:6523H         LINE#         2032
  C:6526H         LINE#         2033
  C:6526H         LINE#         2034
  C:6529H         LINE#         2035
  C:6541H         LINE#         2036
  C:6541H         LINE#         2038
  C:654AH         LINE#         2039
  C:6550H         LINE#         2040
  C:6550H         LINE#         2041
  C:655CH         LINE#         2042
  C:655CH         LINE#         2043
  C:6579H         LINE#         2045
  C:6579H         LINE#         2046
  C:6599H         LINE#         2047
  C:659BH         LINE#         2049
  C:659BH         LINE#         2050
  C:65A4H         LINE#         2051
  C:65A9H         LINE#         2052
  C:65AEH         LINE#         2053
  C:65B1H         LINE#         2054
  C:65B1H         LINE#         2055
  C:65B3H         LINE#         2057
  C:65B3H         LINE#         2058
  C:65BCH         LINE#         2059
  C:65DFH         LINE#         2060
  C:65DFH         LINE#         2061
  C:65E1H         LINE#         2063
  C:65E1H         LINE#         2065
  C:65E6H         LINE#         2066
  C:65EBH         LINE#         2067
BL51 BANKED LINKER/LOCATER V6.22.2.0                                                  06/11/2021  12:08:32  PAGE 130


  C:65F1H         LINE#         2068
  C:65F1H         LINE#         2069
  C:65F3H         LINE#         2071
  C:65F3H         LINE#         2072
  C:65FCH         LINE#         2073
  C:6601H         LINE#         2075
  C:6609H         LINE#         2076
  C:6609H         LINE#         2078
  C:660EH         LINE#         2079
  -------         ENDPROC       _VALIDA_TIPO_TARJETA
  -------         PROC          _HORARIOS
  X:0010H         SYMBOL        Atributos_Expedidor
  -------         DO            
  X:0013H         SYMBOL        Estado_Horario
  X:0014H         SYMBOL        Addr_horarios
  X:001FH         SYMBOL        dia_semana
  X:0020H         SYMBOL        EE_dia_semana
  X:0021H         SYMBOL        addr
  -------         ENDDO         
  C:7A03H         LINE#         2173
  C:7A0EH         LINE#         2174
  C:7A0EH         LINE#         2180
  C:7A19H         LINE#         2181
  C:7A19H         LINE#         2183
  C:7A25H         LINE#         2185
  C:7A4BH         LINE#         2189
  C:7A5EH         LINE#         2190
  C:7A5EH         LINE#         2192
  C:7A68H         LINE#         2193
  C:7A71H         LINE#         2194
  C:7A79H         LINE#         2195
  C:7A82H         LINE#         2198
  C:7AA7H         LINE#         2199
  C:7AB0H         LINE#         2200
  C:7AB8H         LINE#         2201
  C:7AC1H         LINE#         2203
  C:7ACBH         LINE#         2204
  C:7ACBH         LINE#         2206
  C:7AD9H         LINE#         2207
  C:7ADBH         LINE#         2209
  C:7ADBH         LINE#         2211
  C:7AE4H         LINE#         2212
  C:7AE9H         LINE#         2213
  C:7AE9H         LINE#         2214
  C:7AEBH         LINE#         2216
  C:7AEBH         LINE#         2218
  C:7AF0H         LINE#         2219
  C:7AF5H         LINE#         2220
  C:7AFBH         LINE#         2222
  C:7AFBH         LINE#         2224
  C:7AFDH         LINE#         2226
  C:7AFDH         LINE#         2227
  C:7B03H         LINE#         2229
  C:7B0CH         LINE#         2230
  C:7B0CH         LINE#         2231
  C:7B11H         LINE#         2232
  -------         ENDPROC       _HORARIOS
BL51 BANKED LINKER/LOCATER V6.22.2.0                                                  06/11/2021  12:08:32  PAGE 131


  -------         PROC          _HORA_MAXIMA
  X:002FH         SYMBOL        addr
  -------         DO            
  X:0031H         SYMBOL        Hora_High
  X:0032H         SYMBOL        Minuto_High
  X:0033H         SYMBOL        HoraIni
  X:0034H         SYMBOL        MinutoIni
  X:0035H         SYMBOL        Hora_Prog
  -------         ENDDO         
  C:9A58H         LINE#         2233
  C:9A60H         LINE#         2234
  C:9A60H         LINE#         2239
  C:9A75H         LINE#         2240
  C:9A95H         LINE#         2241
  C:9AB2H         LINE#         2242
  C:9AD2H         LINE#         2243
  C:9ADAH         LINE#         2244
  C:9AE2H         LINE#         2245
  C:9AEBH         LINE#         2247
  C:9B03H         LINE#         2248
  -------         ENDPROC       _HORA_MAXIMA
  -------         PROC          _EN_HORARIO
  X:002AH         SYMBOL        HoraNow
  D:0004H         SYMBOL        Hora_Prog
  X:002CH         SYMBOL        addr
  -------         DO            
  X:002EH         SYMBOL        Estado_Horario
  -------         ENDDO         
  C:AFA6H         LINE#         2249
  C:AFB4H         LINE#         2250
  C:AFB4H         LINE#         2253
  C:AFC1H         LINE#         2254
  C:AFC1H         LINE#         2257
  C:AFCAH         LINE#         2258
  C:AFDFH         LINE#         2261
  C:AFEEH         LINE#         2262
  C:AFEEH         LINE#         2264
  C:AFF5H         LINE#         2265
  C:AFFBH         LINE#         2266
  C:AFFDH         LINE#         2268
  C:AFFDH         LINE#         2271
  C:B001H         LINE#         2272
  C:B001H         LINE#         2273
  C:B001H         LINE#         2275
  C:B003H         LINE#         2277
  C:B003H         LINE#         2280
  C:B00CH         LINE#         2281
  C:B011H         LINE#         2283
  C:B011H         LINE#         2284
  C:B016H         LINE#         2285
  -------         ENDPROC       _EN_HORARIO
  -------         PROC          _BLOQUE_HORARIO
  X:0023H         SYMBOL        addr
  -------         DO            
  X:0025H         SYMBOL        Estado_Horario
  X:0026H         SYMBOL        HoraNow
  X:0028H         SYMBOL        Hora_Prog
BL51 BANKED LINKER/LOCATER V6.22.2.0                                                  06/11/2021  12:08:32  PAGE 132


  -------         ENDDO         
  C:8402H         LINE#         2287
  C:840AH         LINE#         2288
  C:840AH         LINE#         2294
  C:8413H         LINE#         2295
  C:841BH         LINE#         2296
  C:8423H         LINE#         2297
  C:842CH         LINE#         2298
  C:8453H         LINE#         2303
  C:845CH         LINE#         2304
  C:8471H         LINE#         2305
  C:8489H         LINE#         2306
  C:848BH         LINE#         2307
  C:848BH         LINE#         2310
  C:84A3H         LINE#         2311
  C:84A3H         LINE#         2312
  C:84ACH         LINE#         2313
  C:84C7H         LINE#         2314
  C:84E5H         LINE#         2315
  C:84E7H         LINE#         2317
  C:84E7H         LINE#         2318
  C:84ECH         LINE#         2319
  C:84F1H         LINE#         2320
  C:84F6H         LINE#         2321
  C:84F6H         LINE#         2322
  C:84F6H         LINE#         2324
  C:84FDH         LINE#         2325
  -------         ENDPROC       _BLOQUE_HORARIO
  -------         PROC          SECUENCIA_INICIO_EXPEDIDOR
  -------         DO            
  X:0001H         SYMBOL        temp
  -------         ENDDO         
  C:6E60H         LINE#         2334
  C:6E60H         LINE#         2335
  C:6E60H         LINE#         2337
  C:6E80H         LINE#         2338
  C:6E80H         LINE#         2339
  C:6E80H         LINE#         2342
  C:6E85H         LINE#         2343
  C:6E8BH         LINE#         2346
  C:6E8DH         LINE#         2347
  C:6E8DH         LINE#         2358
  C:6E8DH         LINE#         2360
  C:6E9BH         LINE#         2361
  C:6E9BH         LINE#         2362
  C:6EA7H         LINE#         2363
  C:6EA7H         LINE#         2364
  C:6EADH         LINE#         2365
  C:6EB0H         LINE#         2366
  C:6EB8H         LINE#         2367
  C:6EB8H         LINE#         2368
  C:6EBFH         LINE#         2369
  C:6ED3H         LINE#         2370
  C:6ED3H         LINE#         2371
  C:6ED5H         LINE#         2373
  C:6ED5H         LINE#         2374
  C:6EDCH         LINE#         2375
BL51 BANKED LINKER/LOCATER V6.22.2.0                                                  06/11/2021  12:08:32  PAGE 133


  C:6EE2H         LINE#         2376
  C:6EE2H         LINE#         2377
  C:6EE5H         LINE#         2379
  C:6EE5H         LINE#         2380
  C:6EEEH         LINE#         2381
  C:6F02H         LINE#         2382
  C:6F08H         LINE#         2383
  C:6F08H         LINE#         2384
  C:6F0BH         LINE#         2385
  C:6F0BH         LINE#         2391
  C:6F0BH         LINE#         2393
  C:6F0EH         LINE#         2394
  C:6F14H         LINE#         2398
  C:6F16H         LINE#         2399
  C:6F16H         LINE#         2409
  C:6F16H         LINE#         2411
  C:6F24H         LINE#         2412
  C:6F24H         LINE#         2413
  C:6F30H         LINE#         2414
  C:6F30H         LINE#         2415
  C:6F36H         LINE#         2416
  C:6F38H         LINE#         2417
  C:6F40H         LINE#         2418
  C:6F40H         LINE#         2419
  C:6F47H         LINE#         2420
  C:6F5BH         LINE#         2421
  C:6F5BH         LINE#         2422
  C:6F5DH         LINE#         2424
  C:6F5DH         LINE#         2425
  C:6F64H         LINE#         2426
  C:6F6AH         LINE#         2427
  C:6F6AH         LINE#         2428
  C:6F6CH         LINE#         2430
  C:6F6CH         LINE#         2431
  C:6F75H         LINE#         2432
  C:6F89H         LINE#         2433
  C:6F8EH         LINE#         2434
  C:6F8EH         LINE#         2436
  C:6F90H         LINE#         2437
  C:6F90H         LINE#         2443
  C:6F90H         LINE#         2445
  C:6F96H         LINE#         2446
  C:6F96H         LINE#         2449
  C:6F96H         LINE#         2450
  C:6F9DH         LINE#         2451
  C:6F9DH         LINE#         2452
  C:6F9DH         LINE#         2453
  -------         ENDPROC       SECUENCIA_INICIO_EXPEDIDOR
  -------         PROC          _SECUENCIAEXPEDIDORMF
  X:0001H         SYMBOL        EstadoActivo
  -------         DO            
  X:010DH         SYMBOL        Buffer_Write_MF
  X:011EH         SYMBOL        Atributos_Expedidor
  X:0132H         SYMBOL        Secuencia_Expedidor
  X:0136H         SYMBOL        Nombre_Mensual
  -------         ENDDO         
  C:3AF2H         LINE#         2463
BL51 BANKED LINKER/LOCATER V6.22.2.0                                                  06/11/2021  12:08:32  PAGE 134


  C:3AF7H         LINE#         2464
  C:3AF7H         LINE#         2470
  C:3B5AH         LINE#         2471
  C:3B5AH         LINE#         2474
  C:3B5AH         LINE#         2476
  C:3B6AH         LINE#         2477
  C:3B6AH         LINE#         2480
  C:3B6CH         LINE#         2481
  C:3B6EH         LINE#         2482
  C:3B73H         LINE#         2483
  C:3B7BH         LINE#         2484
  C:3B80H         LINE#         2485
  C:3B83H         LINE#         2486
  C:3B83H         LINE#         2487
  C:3B89H         LINE#         2488
  C:3B89H         LINE#         2489
  C:3B8CH         LINE#         2490
  C:3B8CH         LINE#         2491
  C:3B8CH         LINE#         2493
  C:3B8FH         LINE#         2494
  C:3B8FH         LINE#         2496
  C:3B98H         LINE#         2497
  C:3B9BH         LINE#         2498
  C:3B9BH         LINE#         2499
  C:3BA0H         LINE#         2500
  C:3BC0H         LINE#         2501
  C:3BC3H         LINE#         2502
  C:3BC3H         LINE#         2503
  C:3BC8H         LINE#         2504
  C:3BD0H         LINE#         2505
  C:3BD6H         LINE#         2506
  C:3BD9H         LINE#         2507
  C:3BD9H         LINE#         2508
  C:3BDCH         LINE#         2509
  C:3BE4H         LINE#         2510
  C:3BEAH         LINE#         2511
  C:3BEDH         LINE#         2512
  C:3BEDH         LINE#         2513
  C:3BF0H         LINE#         2514
  C:3C15H         LINE#         2515
  C:3C1BH         LINE#         2516
  C:3C1DH         LINE#         2517
  C:3C20H         LINE#         2518
  C:3C20H         LINE#         2519
  C:3C2BH         LINE#         2520
  C:3C33H         LINE#         2521
  C:3C39H         LINE#         2522
  C:3C3CH         LINE#         2523
  C:3C3CH         LINE#         2524
  C:3C4DH         LINE#         2525
  C:3C55H         LINE#         2526
  C:3C5BH         LINE#         2527
  C:3C5EH         LINE#         2528
  C:3C5EH         LINE#         2529
  C:3C63H         LINE#         2530
  C:3C81H         LINE#         2531
  C:3C84H         LINE#         2532
BL51 BANKED LINKER/LOCATER V6.22.2.0                                                  06/11/2021  12:08:32  PAGE 135


  C:3C84H         LINE#         2533
  C:3C89H         LINE#         2534
  C:3CA9H         LINE#         2535
  C:3CACH         LINE#         2536
  C:3CACH         LINE#         2537
  C:3CB1H         LINE#         2538
  C:3CB3H         LINE#         2539
  C:3CD1H         LINE#         2540
  C:3CD4H         LINE#         2541
  C:3CD4H         LINE#         2542
  C:3CD9H         LINE#         2543
  C:3CF9H         LINE#         2544
  C:3CFCH         LINE#         2545
  C:3CFCH         LINE#         2546
  C:3D0FH         LINE#         2547
  C:3D0FH         LINE#         2548
  C:3D14H         LINE#         2549
  C:3D1CH         LINE#         2550
  C:3D22H         LINE#         2551
  C:3D22H         LINE#         2552
  C:3D25H         LINE#         2553
  C:3D25H         LINE#         2554
  C:3D38H         LINE#         2555
  C:3D38H         LINE#         2556
  C:3D3DH         LINE#         2557
  C:3D40H         LINE#         2558
  C:3D40H         LINE#         2559
  C:3D43H         LINE#         2560
  C:3D43H         LINE#         2561
  C:3D46H         LINE#         2562
  C:3D66H         LINE#         2563
  C:3D69H         LINE#         2564
  C:3D69H         LINE#         2565
  C:3D6BH         LINE#         2566
  C:3D6EH         LINE#         2567
  C:3D71H         LINE#         2568
  C:3D71H         LINE#         2569
  C:3D7AH         LINE#         2570
  C:3D7DH         LINE#         2571
  C:3D7DH         LINE#         2572
  C:3D94H         LINE#         2573
  C:3D97H         LINE#         2574
  C:3D97H         LINE#         2575
  C:3D9AH         LINE#         2576
  C:3DA2H         LINE#         2577
  C:3DA8H         LINE#         2578
  C:3DABH         LINE#         2579
  C:3DABH         LINE#         2580
  C:3DB4H         LINE#         2581
  C:3DB7H         LINE#         2582
  C:3DB7H         LINE#         2583
  C:3DB9H         LINE#         2584
  C:3DBCH         LINE#         2585
  C:3DBFH         LINE#         2586
  C:3DBFH         LINE#         2587
  C:3DD6H         LINE#         2588
  C:3DD9H         LINE#         2589
BL51 BANKED LINKER/LOCATER V6.22.2.0                                                  06/11/2021  12:08:32  PAGE 136


  C:3DD9H         LINE#         2590
  C:3DDEH         LINE#         2591
  C:3DE6H         LINE#         2592
  C:3DECH         LINE#         2593
  C:3DEFH         LINE#         2594
  C:3DEFH         LINE#         2595
  C:3DF2H         LINE#         2596
  C:3E12H         LINE#         2597
  C:3E15H         LINE#         2598
  C:3E15H         LINE#         2599
  C:3E18H         LINE#         2600
  C:3E38H         LINE#         2601
  C:3E3BH         LINE#         2602
  C:3E3BH         LINE#         2603
  C:3E3EH         LINE#         2604
  C:3E46H         LINE#         2605
  C:3E49H         LINE#         2606
  C:3E4BH         LINE#         2607
  C:3E4BH         LINE#         2609
  C:3E56H         LINE#         2610
  C:3E5EH         LINE#         2611
  C:3E72H         LINE#         2612
  C:3E75H         LINE#         2616
  C:3E75H         LINE#         2617
  C:3E7BH         LINE#         2618
  C:3E81H         LINE#         2619
  C:3E81H         LINE#         2620
  C:3E89H         LINE#         2621
  C:3E8FH         LINE#         2623
  C:3E92H         LINE#         2624
  C:3E9AH         LINE#         2625
  C:3E9AH         LINE#         2627
  C:3E9DH         LINE#         2628
  C:3EA0H         LINE#         2629
  C:3EA8H         LINE#         2630
  C:3EA8H         LINE#         2631
  C:3EB6H         LINE#         2632
  C:3EB6H         LINE#         2633
  C:3EBFH         LINE#         2634
  C:3EC2H         LINE#         2635
  C:3ECEH         LINE#         2636
  C:3ECEH         LINE#         2637
  C:3ED7H         LINE#         2638
  C:3EDAH         LINE#         2640
  C:3EDAH         LINE#         2641
  C:3EE3H         LINE#         2642
  C:3EE3H         LINE#         2643
  C:3EE6H         LINE#         2644
  C:3EEEH         LINE#         2645
  C:3EEEH         LINE#         2646
  C:3EFCH         LINE#         2647
  C:3EFCH         LINE#         2648
  C:3F12H         LINE#         2649
  C:3F15H         LINE#         2650
  C:3F21H         LINE#         2651
  C:3F21H         LINE#         2652
  C:3F2AH         LINE#         2653
BL51 BANKED LINKER/LOCATER V6.22.2.0                                                  06/11/2021  12:08:32  PAGE 137


  C:3F2DH         LINE#         2654
  C:3F3BH         LINE#         2655
  C:3F3BH         LINE#         2656
  C:3F44H         LINE#         2657
  C:3F46H         LINE#         2659
  C:3F46H         LINE#         2660
  C:3F4FH         LINE#         2661
  C:3F4FH         LINE#         2662
  C:3F51H         LINE#         2663
  C:3F59H         LINE#         2664
  C:3F59H         LINE#         2665
  C:3F62H         LINE#         2666
  C:3F64H         LINE#         2667
  C:3F6CH         LINE#         2668
  C:3F6CH         LINE#         2669
  C:3F82H         LINE#         2670
  C:3F84H         LINE#         2671
  C:3F8CH         LINE#         2672
  C:3F8CH         LINE#         2673
  C:3F8FH         LINE#         2674
  C:3F91H         LINE#         2676
  C:3F99H         LINE#         2677
  C:3F99H         LINE#         2678
  C:3FA2H         LINE#         2679
  C:3FA4H         LINE#         2682
  C:3FACH         LINE#         2683
  C:3FACH         LINE#         2684
  C:3FB4H         LINE#         2685
  C:3FB6H         LINE#         2687
  C:3FB6H         LINE#         2688
  C:3FBFH         LINE#         2689
  C:3FBFH         LINE#         2690
  C:3FC1H         LINE#         2691
  C:3FC1H         LINE#         2692
  C:3FC6H         LINE#         2693
  C:3FC6H         LINE#         2695
  C:3FC6H         LINE#         2696
  C:3FCBH         LINE#         2697
  -------         ENDPROC       _SECUENCIAEXPEDIDORMF
  -------         ENDMOD        VERIFICADOR

  -------         MODULE        MONITOR
  C:0000H         SYMBOL        _ICE_DUMMY_
  D:0080H         PUBLIC        P0
  D:0090H         PUBLIC        P1
  I:0011H         PUBLIC        placa
  C:BFD3H         PUBLIC        Rx_Monitor
  B:0080H.0       PUBLIC        rx_ip
  B:0090H.7       PUBLIC        lock
  C:931DH         PUBLIC        _recibe_cmd_Monitor
  C:C138H         PUBLIC        clear_placa
  C:9616H         PUBLIC        _Valida_Trama_Monitor
  -------         PROC          _RECIBE_CMD_MONITOR
  X:0016H         SYMBOL        buffer_cmd
  -------         DO            
  X:0019H         SYMBOL        j
  X:001AH         SYMBOL        NumDatos
BL51 BANKED LINKER/LOCATER V6.22.2.0                                                  06/11/2021  12:08:32  PAGE 138


  X:001BH         SYMBOL        time_out
  X:001CH         SYMBOL        MaxChrRx
  X:001DH         SYMBOL        contador
  -------         ENDDO         
  C:931DH         LINE#         50
  C:9328H         LINE#         51
  C:9328H         LINE#         55
  C:932DH         LINE#         56
  C:9333H         LINE#         58
  C:933EH         LINE#         59
  C:933EH         LINE#         60
  C:934FH         LINE#         61
  C:934FH         LINE#         62
  C:9356H         LINE#         63
  C:935AH         LINE#         64
  C:9363H         LINE#         65
  C:9363H         LINE#         66
  C:9371H         LINE#         67
  C:9388H         LINE#         68
  C:9388H         LINE#         69
  C:938EH         LINE#         70
  C:9394H         LINE#         71
  C:9394H         LINE#         72
  C:9396H         LINE#         73
  C:939EH         LINE#         74
  C:93A4H         LINE#         75
  C:93B6H         LINE#         76
  C:93C0H         LINE#         77
  C:93C9H         LINE#         79
  C:93D8H         LINE#         82
  C:93D8H         LINE#         83
  C:93DDH         LINE#         84
  -------         ENDPROC       _RECIBE_CMD_MONITOR
  -------         PROC          _VALIDA_TRAMA_MONITOR
  X:0016H         SYMBOL        buffer
  D:0005H         SYMBOL        length_trama
  -------         DO            
  X:0019H         SYMBOL        j
  X:001AH         SYMBOL        p
  X:001BH         SYMBOL        cont
  -------         ENDDO         
  C:9616H         LINE#         89
  C:9621H         LINE#         90
  C:9621H         LINE#         91
  C:9624H         LINE#         92
  C:9628H         LINE#         93
  C:962BH         LINE#         94
  C:962DH         LINE#         97
  C:9641H         LINE#         98
  C:9641H         LINE#         100
  C:9643H         LINE#         102
  C:964AH         LINE#         103
  C:964FH         LINE#         106
  C:964FH         LINE#         108
  C:966AH         LINE#         109
  C:966AH         LINE#         112
  C:966AH         LINE#         113
BL51 BANKED LINKER/LOCATER V6.22.2.0                                                  06/11/2021  12:08:32  PAGE 139


  C:968BH         LINE#         114
  C:968FH         LINE#         115
  C:9695H         LINE#         116
  C:96A7H         LINE#         117
  C:96BFH         LINE#         118
  C:96C8H         LINE#         119
  C:96CAH         LINE#         120
  C:96D0H         LINE#         123
  C:96D0H         LINE#         126
  -------         ENDPROC       _VALIDA_TRAMA_MONITOR
  -------         PROC          CLEAR_PLACA
  -------         DO            
  D:0007H         SYMBOL        i
  -------         ENDDO         
  C:C138H         LINE#         127
  C:C138H         LINE#         128
  C:C138H         LINE#         130
  C:C144H         LINE#         131
  C:C144H         LINE#         132
  C:C14AH         LINE#         133
  C:C14DH         LINE#         134
  C:C14FH         LINE#         135
  -------         ENDPROC       CLEAR_PLACA
  -------         PROC          RX_MONITOR
  -------         DO            
  X:0009H         SYMBOL        Length_trama
  X:000AH         SYMBOL        buffer1
  -------         ENDDO         
  C:BFD3H         LINE#         136
  C:BFD3H         LINE#         137
  C:BFD3H         LINE#         140
  C:BFE2H         LINE#         141
  C:BFEBH         LINE#         142
  -------         ENDPROC       RX_MONITOR
  -------         ENDMOD        MONITOR

  -------         MODULE        ?C?FPADD
  C:134FH         PUBLIC        ?C?FPADD
  C:134BH         PUBLIC        ?C?FPSUB
  -------         ENDMOD        ?C?FPADD

  -------         MODULE        ?C?FPMUL
  C:1440H         PUBLIC        ?C?FPMUL
  -------         ENDMOD        ?C?FPMUL

  -------         MODULE        ?C?FCAST
  C:1550H         PUBLIC        ?C?FCASTC
  C:154BH         PUBLIC        ?C?FCASTI
  C:1546H         PUBLIC        ?C?FCASTL
  -------         ENDMOD        ?C?FCAST

  -------         MODULE        ?C?CASTF
  C:1584H         PUBLIC        ?C?CASTF
  -------         ENDMOD        ?C?CASTF

  -------         MODULE        PRINTF
  X:0077H         PUBLIC        ?_PRINTF?BYTE
BL51 BANKED LINKER/LOCATER V6.22.2.0                                                  06/11/2021  12:08:32  PAGE 140


  X:0077H         PUBLIC        ?_SPRINTF?BYTE
  C:4037H         PUBLIC        _PRINTF
  C:4031H         PUBLIC        _SPRINTF
  -------         ENDMOD        PRINTF

  -------         MODULE        POW
  X:0021H         PUBLIC        ?_pow?BYTE
  C:6920H         PUBLIC        _pow
  -------         ENDMOD        POW

  -------         MODULE        ?C?CHKFLOAT
  C:1605H         PUBLIC        ?C?CHKFLOAT
  -------         ENDMOD        ?C?CHKFLOAT

  -------         MODULE        ?C?FPCMP
  C:1621H         PUBLIC        ?C?FPCMP
  C:161FH         PUBLIC        ?C?FPCMP3
  -------         ENDMOD        ?C?FPCMP

  -------         MODULE        ?C?FPNEG
  C:1698H         PUBLIC        ?C?FPNEG
  -------         ENDMOD        ?C?FPNEG

  -------         MODULE        ?C?FPROUND
  C:16A9H         PUBLIC        ?C?FPROUND
  -------         ENDMOD        ?C?FPROUND

  -------         MODULE        ?C?FPCONVERT
  C:16E6H         PUBLIC        ?C?FPCONVERT
  -------         ENDMOD        ?C?FPCONVERT

  -------         MODULE        EXP
  C:A0F2H         PUBLIC        _EXP
  -------         ENDMOD        EXP

  -------         MODULE        LOG
  C:749EH         PUBLIC        _LOG
  C:749AH         PUBLIC        _LOG10
  -------         ENDMOD        LOG

  -------         MODULE        ?C?FPDIV
  C:17EEH         PUBLIC        ?C?FPDIV
  -------         ENDMOD        ?C?FPDIV

  -------         MODULE        ?C?FTNPWR
  C:18BBH         PUBLIC        ?C?FTNPWR
  -------         ENDMOD        ?C?FTNPWR

  -------         MODULE        ?C?COPY
  C:1A18H         PUBLIC        ?C?COPY
  -------         ENDMOD        ?C?COPY

  -------         MODULE        ?C?CLDPTR
  C:1A3EH         PUBLIC        ?C?CLDPTR
  -------         ENDMOD        ?C?CLDPTR

  -------         MODULE        ?C?CLDOPTR
BL51 BANKED LINKER/LOCATER V6.22.2.0                                                  06/11/2021  12:08:32  PAGE 141


  C:1A57H         PUBLIC        ?C?CLDOPTR
  -------         ENDMOD        ?C?CLDOPTR

  -------         MODULE        ?C?CSTPTR
  C:1A84H         PUBLIC        ?C?CSTPTR
  -------         ENDMOD        ?C?CSTPTR

  -------         MODULE        ?C?CSTOPTR
  C:1A96H         PUBLIC        ?C?CSTOPTR
  -------         ENDMOD        ?C?CSTOPTR

  -------         MODULE        ?C?IMUL
  C:1AB8H         PUBLIC        ?C?IMUL
  -------         ENDMOD        ?C?IMUL

  -------         MODULE        ?C?IILDX
  C:1ACAH         PUBLIC        ?C?IILDX
  -------         ENDMOD        ?C?IILDX

  -------         MODULE        ?C?LNEG
  C:1AE0H         PUBLIC        ?C?LNEG
  -------         ENDMOD        ?C?LNEG

  -------         MODULE        ?C?SLCMP
  C:1AEEH         PUBLIC        ?C?SLCMP
  -------         ENDMOD        ?C?SLCMP

  -------         MODULE        ?C?ULCMP
  C:1B04H         PUBLIC        ?C?ULCMP
  -------         ENDMOD        ?C?ULCMP

  -------         MODULE        ?C?ULSHR
  C:1B15H         PUBLIC        ?C?ULSHR
  -------         ENDMOD        ?C?ULSHR

  -------         MODULE        ?C?LSHL
  C:1B28H         PUBLIC        ?C?LSHL
  -------         ENDMOD        ?C?LSHL

  -------         MODULE        ?C?LLDCODE
  C:1B3BH         PUBLIC        ?C?LLDCODE
  -------         ENDMOD        ?C?LLDCODE

  -------         MODULE        ?C?LLDXDATA0
  C:1B4BH         PUBLIC        ?C?LLDXDATA0
  -------         ENDMOD        ?C?LLDXDATA0

  -------         MODULE        ?C?LLDCODE0
  C:1B57H         PUBLIC        ?C?LLDCODE0
  -------         ENDMOD        ?C?LLDCODE0

  -------         MODULE        ?C?LSTXDATA
  C:1B67H         PUBLIC        ?C?LSTXDATA
  -------         ENDMOD        ?C?LSTXDATA

  -------         MODULE        ?C?LSTKXDATA
  C:1B73H         PUBLIC        ?C?LSTKXDATA
BL51 BANKED LINKER/LOCATER V6.22.2.0                                                  06/11/2021  12:08:32  PAGE 142


  -------         ENDMOD        ?C?LSTKXDATA

  -------         MODULE        ?C?PLDIXDATA
  C:1BA4H         PUBLIC        ?C?PLDIXDATA
  -------         ENDMOD        ?C?PLDIXDATA

  -------         MODULE        ?C?PSTXDATA
  C:1BBBH         PUBLIC        ?C?PSTXDATA
  -------         ENDMOD        ?C?PSTXDATA

  -------         MODULE        ?C?CCASE
  C:1BC4H         PUBLIC        ?C?CCASE
  -------         ENDMOD        ?C?CCASE

  -------         MODULE        STRCAT
  X:0048H         PUBLIC        ?_strcat?BYTE
  C:B15DH         PUBLIC        _strcat
  -------         ENDMOD        STRCAT

  -------         MODULE        ?C?STRCMP
  C:1D68H         PUBLIC        ?C?STRCMP
  -------         ENDMOD        ?C?STRCMP

  -------         MODULE        ?C?STRCPY
  C:1E51H         PUBLIC        ?C?STRCPY
  -------         ENDMOD        ?C?STRCPY

  -------         MODULE        STRLEN
  C:000EH         PUBLIC        _STRLEN
  -------         ENDMOD        STRLEN

  -------         MODULE        STRTOK
  X:0064H         PUBLIC        ?_strtok?BYTE
  C:87C9H         PUBLIC        _strtok
  -------         ENDMOD        STRTOK

  -------         MODULE        ATOL
  C:7B12H         PUBLIC        _atol
  -------         ENDMOD        ATOL

  -------         MODULE        ATOI
  C:898BH         PUBLIC        _atoi
  -------         ENDMOD        ATOI

  -------         MODULE        ?C?ILDIX
  C:1E6EH         PUBLIC        ?C?ILDIX
  -------         ENDMOD        ?C?ILDIX

  -------         MODULE        ?C?LMUL
  C:1E84H         PUBLIC        ?C?LMUL
  -------         ENDMOD        ?C?LMUL

  -------         MODULE        ISDIGIT
  C:C248H         PUBLIC        _isdigit
  -------         ENDMOD        ISDIGIT

  -------         MODULE        ISSPACE
BL51 BANKED LINKER/LOCATER V6.22.2.0                                                  06/11/2021  12:08:32  PAGE 143


  C:C1A8H         PUBLIC        _isspace
  -------         ENDMOD        ISSPACE

  -------         MODULE        STRSPN
  X:006AH         PUBLIC        ?_strspn?BYTE
  C:AA3BH         PUBLIC        _strspn
  -------         ENDMOD        STRSPN

  -------         MODULE        STRPBRK
  X:006AH         PUBLIC        ?_strpbrk?BYTE
  C:AB42H         PUBLIC        _strpbrk
  -------         ENDMOD        STRPBRK

Program Size: data=99.1 xdata=538 code=49877
LINK/LOCATE RUN COMPLETE.  0 WARNING(S),  0 ERROR(S)
