BL51 BANKED LINKER/LOCATER V6.22.2.0                                                    05/21/2020  14:05:12  PAGE 1


BL51 BANKED LINKER/LOCATER V6.22.2.0, INVOKED BY:
C:\KEIL_V5\C51\BIN\BL51.EXE .\Objects\main.obj, .\Objects\Accescan.obj, .\Objects\Clock.obj, .\Objects\delay.obj, .\Obje
>> cts\eeprom.obj, .\Objects\io_sensores.obj, .\Objects\pantallas.obj, .\Objects\prog.obj, .\Objects\pto_paralelo.obj, .
>> \Objects\tibbo.obj, .\Objects\uart.obj, .\Objects\lintech.obj, .\Objects\verificador.obj TO .\Objects\expedidor_v_01_
>> raspberry PRINT (.\Listings\expedidor_v_01_raspberry.m51) RAMSIZE (256)


MEMORY MODEL: LARGE WITH FLOATING POINT ARITHMETIC


INPUT MODULES INCLUDED:
  .\Objects\main.obj (MAIN)
  .\Objects\Accescan.obj (ACCESCAN)
  .\Objects\Clock.obj (CLOCK)
  .\Objects\delay.obj (DELAY)
  .\Objects\eeprom.obj (EEPROM)
  .\Objects\io_sensores.obj (IO_SENSORES)
  .\Objects\pantallas.obj (PANTALLAS)
  .\Objects\prog.obj (PROG)
  .\Objects\pto_paralelo.obj (PTO_PARALELO)
  .\Objects\tibbo.obj (TIBBO)
  .\Objects\uart.obj (UART)
  .\Objects\lintech.obj (LINTECH)
  .\Objects\verificador.obj (VERIFICADOR)
  C:\KEIL_V5\C51\LIB\C51FPL.LIB (?C?FPADD)
  C:\KEIL_V5\C51\LIB\C51FPL.LIB (?C?FPMUL)
  C:\KEIL_V5\C51\LIB\C51FPL.LIB (?C?FCAST)
  C:\KEIL_V5\C51\LIB\C51FPL.LIB (?C?CASTF)
  C:\KEIL_V5\C51\LIB\C51FPL.LIB (PRINTF)
  C:\KEIL_V5\C51\LIB\C51FPL.LIB (POW)
  C:\KEIL_V5\C51\LIB\C51FPL.LIB (?C?FPGETOPN)
  C:\KEIL_V5\C51\LIB\C51FPL.LIB (?C?CHKFLOAT)
  C:\KEIL_V5\C51\LIB\C51FPL.LIB (?C?FPCMP)
  C:\KEIL_V5\C51\LIB\C51FPL.LIB (?C?FPNEG)
  C:\KEIL_V5\C51\LIB\C51FPL.LIB (?C?FPROUND)
  C:\KEIL_V5\C51\LIB\C51FPL.LIB (?C?FPCONVERT)
  C:\KEIL_V5\C51\LIB\C51FPL.LIB (EXP)
  C:\KEIL_V5\C51\LIB\C51FPL.LIB (LOG)
  C:\KEIL_V5\C51\LIB\C51FPL.LIB (?C?FPDIV)
  C:\KEIL_V5\C51\LIB\C51FPL.LIB (?C?FTNPWR)
  C:\KEIL_V5\C51\LIB\C51FPL.LIB (?C?FPSERIES)
  C:\KEIL_V5\C51\LIB\C51L.LIB (?C_STARTUP)
  C:\KEIL_V5\C51\LIB\C51L.LIB (?C?COPY)
  C:\KEIL_V5\C51\LIB\C51L.LIB (?C?CLDPTR)
  C:\KEIL_V5\C51\LIB\C51L.LIB (?C?CLDOPTR)
  C:\KEIL_V5\C51\LIB\C51L.LIB (?C?CSTPTR)
  C:\KEIL_V5\C51\LIB\C51L.LIB (?C?CSTOPTR)
  C:\KEIL_V5\C51\LIB\C51L.LIB (?C?UIDIV)
  C:\KEIL_V5\C51\LIB\C51L.LIB (?C?IILDX)
  C:\KEIL_V5\C51\LIB\C51L.LIB (?C?LNEG)
  C:\KEIL_V5\C51\LIB\C51L.LIB (?C?ULSHR)
  C:\KEIL_V5\C51\LIB\C51L.LIB (?C?LSHL)
  C:\KEIL_V5\C51\LIB\C51L.LIB (?C?LLDCODE)
  C:\KEIL_V5\C51\LIB\C51L.LIB (?C?LLDXDATA0)
  C:\KEIL_V5\C51\LIB\C51L.LIB (?C?LLDCODE0)
  C:\KEIL_V5\C51\LIB\C51L.LIB (?C?LSTXDATA)
  C:\KEIL_V5\C51\LIB\C51L.LIB (?C?LSTKXDATA)
  C:\KEIL_V5\C51\LIB\C51L.LIB (?C?PLDIXDATA)
BL51 BANKED LINKER/LOCATER V6.22.2.0                                                  05/21/2020  14:05:12  PAGE 2


  C:\KEIL_V5\C51\LIB\C51L.LIB (?C?PSTXDATA)
  C:\KEIL_V5\C51\LIB\C51L.LIB (?C?CCASE)
  C:\KEIL_V5\C51\LIB\C51L.LIB (STRCAT)
  C:\KEIL_V5\C51\LIB\C51L.LIB (?C?STRCMP)
  C:\KEIL_V5\C51\LIB\C51L.LIB (?C?STRCPY)
  C:\KEIL_V5\C51\LIB\C51L.LIB (STRLEN)
  C:\KEIL_V5\C51\LIB\C51L.LIB (STRTOK)
  C:\KEIL_V5\C51\LIB\C51L.LIB (ATOL)
  C:\KEIL_V5\C51\LIB\C51L.LIB (ATOI)
  C:\KEIL_V5\C51\LIB\C51L.LIB (?C_INIT)
  C:\KEIL_V5\C51\LIB\C51L.LIB (?C?IMUL)
  C:\KEIL_V5\C51\LIB\C51L.LIB (?C?ILDIX)
  C:\KEIL_V5\C51\LIB\C51L.LIB (?C?LMUL)
  C:\KEIL_V5\C51\LIB\C51L.LIB (ISDIGIT)
  C:\KEIL_V5\C51\LIB\C51L.LIB (ISSPACE)
  C:\KEIL_V5\C51\LIB\C51L.LIB (STRSPN)
  C:\KEIL_V5\C51\LIB\C51L.LIB (STRPBRK)


LINK MAP OF MODULE:  .\Objects\expedidor_v_01_raspberry (MAIN)


            TYPE    BASE      LENGTH    RELOCATION   SEGMENT NAME
            -----------------------------------------------------

            * * * * * * *   D A T A   M E M O R Y   * * * * * * *
            REG     0000H     0008H     ABSOLUTE     "REG BANK 0"
            DATA    0008H     0005H     UNIT         _DATA_GROUP_
            DATA    000DH     0004H     UNIT         ?DT?UART
                    0011H     000FH                  *** GAP ***
            BIT     0020H.0   0001H.1   UNIT         _BIT_GROUP_
            BIT     0021H.1   0000H.2   UNIT         ?BI?_ANALIZA_TIEMPO?CLOCK
            BIT     0021H.3   0000H.2   UNIT         ?BI?UART
            BIT     0021H.5   0000H.1   UNIT         ?BI?MAIN
            BIT     0021H.6   0000H.1   UNIT         ?BI?EEPROM
                    0021H.7   0000H.1                *** GAP ***
            IDATA   0022H     0064H     UNIT         ?ID?MAIN
            IDATA   0086H     0001H     UNIT         ?STACK

            * * * * * * *  X D A T A   M E M O R Y  * * * * * * *
            XDATA   0000H     00C2H     UNIT         _XDATA_GROUP_
            XDATA   00C2H     0072H     UNIT         ?XD?MAIN
            XDATA   0134H     0045H     UNIT         ?XD?PROG
            XDATA   0179H     0034H     UNIT         ?XD?VERIFICADOR
            XDATA   01ADH     0026H     UNIT         ?XD?_TRAMA_PTO_PARALELO_NEW?PTO_PARALELO
            XDATA   01D3H     0025H     UNIT         ?XD?_CMD_LPR_SALIDA?ACCESCAN
            XDATA   01F8H     001FH     UNIT         ?XD?CMD_LPR_INT?ACCESCAN
            XDATA   0217H     001EH     UNIT         ?XD?PTO_PARALELO
            XDATA   0235H     000FH     UNIT         ?XD?_ANALIZA_TIEMPO?CLOCK
            XDATA   0244H     000AH     UNIT         ?XD?_CHECK_FECHAOUT?CLOCK
            XDATA   024EH     0008H     UNIT         ?XD?_TRAMA_PTO_PARALELO_P?PTO_PARALELO
            XDATA   0256H     0003H     UNIT         ?XD?EEPROM
            XDATA   0259H     0003H     UNIT         ?XD?_DEBUG_FECHA_ACTUAL?TIBBO
            XDATA   025CH     0003H     UNIT         ?XD?UART
            XDATA   025FH     0003H     UNIT         ?XD?STRTOK
            XDATA   0262H     0001H     UNIT         ?XD?CLOCK
            XDATA   0263H     0001H     UNIT         ?XD?IO_SENSORES
BL51 BANKED LINKER/LOCATER V6.22.2.0                                                  05/21/2020  14:05:12  PAGE 3


            XDATA   0264H     0001H     UNIT         ?XD?PANTALLAS

            * * * * * * *   C O D E   M E M O R Y   * * * * * * *
            CODE    0000H     0003H     ABSOLUTE     
            CODE    0003H     0008H     UNIT         ?PR?P_CK?CLOCK
            CODE    000BH     0003H     ABSOLUTE     
            CODE    000EH     0015H     UNIT         ?PR?_STRLEN?STRLEN
            CODE    0023H     0003H     ABSOLUTE     
            CODE    0026H     0BB9H     UNIT         ?C?LIB_CODE
            CODE    0BDFH     088FH     UNIT         ?CO?PROG
            CODE    146EH     0537H     UNIT         ?PR?_ANALIZA_TIEMPO?CLOCK
            CODE    19A5H     0483H     UNIT         ?PR?PRINTF?PRINTF
            CODE    1E28H     03D6H     UNIT         ?CO?PANTALLAS
            CODE    21FEH     0369H     UNIT         ?CO?VERIFICADOR
            CODE    2567H     02D0H     UNIT         ?PR?_TWO_BYTEHEX_DECIMAL?CLOCK
            CODE    2837H     02C5H     UNIT         ?PR?_TRAMA_PTO_PARALELO_NEW?PTO_PARALELO
            CODE    2AFCH     02BAH     UNIT         ?PR?_PANTALLALCD?PANTALLAS
            CODE    2DB6H     029EH     UNIT         ?PR?_VALIDA_TRAMA_PTO?ACCESCAN
            CODE    3054H     0292H     UNIT         ?PR?_CMD_LPR_SALIDA?ACCESCAN
            CODE    32E6H     0253H     UNIT         ?PR?_SECUENCIAEXPEDIDORMF?VERIFICADOR
            CODE    3539H     01D8H     UNIT         ?PR?_BLOCK_READ_CLOCK_ASCII?CLOCK
            CODE    3711H     01C2H     UNIT         ?PR?MENU?PROG
            CODE    38D3H     01C1H     UNIT         ?PR?_HASH_ID?PROG
            CODE    3A94H     01B3H     UNIT         ?PR?COM_ISR?UART
            CODE    3C47H     01A6H     UNIT         ?PR?_GRABA_SERIE?EEPROM
            CODE    3DEDH     0187H     UNIT         ?PR?_RESPONDE_LECTURA_TARJETA_SECTOR1_BLOQUE1?VERIFICADOR
            CODE    3F74H     0179H     UNIT         ?PR?_CHECK_FECHAOUT?CLOCK
            CODE    40EDH     0166H     UNIT         ?PR?_POW?POW
            CODE    4253H     014EH     UNIT         ?CO?LINTECH
            CODE    43A1H     013EH     UNIT         ?PR?PROG_SIN_COBRO?PROG
            CODE    44DFH     013EH     UNIT         ?PR?SECUENCIA_INICIO_EXPEDIDOR?VERIFICADOR
            CODE    461DH     0129H     UNIT         ?PR?LOG?LOG
            CODE    4746H     0118H     UNIT         ?PR?_RESPONDE_LECTURA_TARJETA_SECTOR1_BLOQUE2?VERIFICADOR
            CODE    485EH     0115H     UNIT         ?PR?_VALIDAR_CLK?CLOCK
            CODE    4973H     0110H     UNIT         ?PR?LOAD_AND_SEND_ID_COD?PTO_PARALELO
            CODE    4A83H     010CH     UNIT         ?PR?_ATOL?ATOL
            CODE    4B8FH     0100H     UNIT         ?PR?_WR_MF?LINTECH
            CODE    4C8FH     00FFH     UNIT         ?PR?_TRAMA_PTO_PARALELO_P?PTO_PARALELO
            CODE    4D8EH     00FCH     UNIT         ?PR?PROG_DEBUG?PROG
            CODE    4E8AH     00FCH     UNIT         ?PR?PROG_USE_LPR?PROG
            CODE    4F86H     00FCH     UNIT         ?PR?PROG_COMPARACION_ACTIVA?PROG
            CODE    5082H     00FCH     UNIT         ?PR?TIPO_PANTALLA?PROG
            CODE    517EH     00FCH     UNIT         ?PR?PROG_ANTIPASSBACK?PROG
            CODE    527AH     00EAH     UNIT         ?PR?_MOV_CARD?LINTECH
            CODE    5364H     00E4H     UNIT         ?PR?_STRTOK?STRTOK
            CODE    5448H     00E3H     UNIT         ?PR?_ARMAR_TRAMA_TARJETA_SECTOR1_BLOQUE2?VERIFICADOR
            CODE    552BH     00DBH     UNIT         ?PR?_ATOI?ATOI
            CODE    5606H     00D7H     UNIT         ?CO?TIBBO
            CODE    56DDH     00D6H     UNIT         ?PR?_CMD_LPR_SALIDA_WIEGAND?ACCESCAN
            CODE    57B3H     00CAH     UNIT         ?PR?READ_EEPROM_TICKET?EEPROM
            CODE    587DH     00C4H     UNIT         ?PR?_BLOCK_READ_CLOCK?CLOCK
            CODE    5941H     00C3H     UNIT         ?PR?_RD_MF?LINTECH
            CODE    5A04H     00C2H     UNIT         ?PR?PROG_TARJETA_AUTOMATICA_O_BOTON?PROG
            CODE    5AC6H     00BDH     UNIT         ?PR?PROG_COD_PARK?PROG
            CODE    5B83H     00BDH     UNIT         ?PR?PROG_TIEMPO_GRACIA?PROG
            CODE    5C40H     00BCH     UNIT         ?PR?MAIN?MAIN
            CODE    5CFCH     00B6H     UNIT         ?PR?PROG_ID_CLIENTE?PROG
BL51 BANKED LINKER/LOCATER V6.22.2.0                                                  05/21/2020  14:05:12  PAGE 4


            CODE    5DB2H     00B5H     UNIT         ?PR?ERROR_RX_PTO?VERIFICADOR
            CODE    5E67H     00B4H     UNIT         ?PR?_SEND_PORT?PTO_PARALELO
            CODE    5F1BH     00ADH     UNIT         ?CO?IO_SENSORES
            CODE    5FC8H     00A9H     UNIT         ?PR?DWLOAD_EEPROM?LINTECH
            CODE    6071H     00A6H     UNIT         ?PR?_BLOCK_READ_CLOCK_HEX?CLOCK
            CODE    6117H     00A6H     UNIT         ?PR?_DEBUG_FECHA_ACTUAL?TIBBO
            CODE    61BDH     009DH     UNIT         ?PR?_INICIALIZA?LINTECH
            CODE    625AH     009CH     UNIT         ?C_INITSEG
            CODE    62F6H     009AH     UNIT         ?PR?EXP?EXP
            CODE    6390H     0099H     UNIT         ?PR?_RECIBE_PORT?PTO_PARALELO
            CODE    6429H     0095H     UNIT         ?PR?_RECIBE_CMD_MONITOR?ACCESCAN
            CODE    64BEH     0091H     UNIT         ?PR?_CARD_INSERCION?LINTECH
            CODE    654FH     0091H     UNIT         ?PR?LOADVERIFY_EEPROM?LINTECH
            CODE    65E0H     0090H     UNIT         ?PR?_LEE_CLK?CLOCK
            CODE    6670H     0090H     UNIT         ?PR?_GETOPTION?PROG
            CODE    6700H     0090H     UNIT         ?PR?_RTA_CMD_TRANSPORTE?VERIFICADOR
            CODE    6790H     008FH     UNIT         ?PR?_BLOCK_WRITE_CLOCK_ASCII?CLOCK
            CODE    681FH     008CH     UNIT         ?C_C51STARTUP
            CODE    68ABH     0089H     UNIT         ?PR?ARMAR_TRAMA_PTO_PARALELO_EXPEDIDOR?VERIFICADOR
            CODE    6934H     0088H     UNIT         ?PR?_SEND_PORTERR?PTO_PARALELO
            CODE    69BCH     0088H     UNIT         ?PR?RX_DATA?TIBBO
            CODE    6A44H     0085H     UNIT         ?PR?_RESPONDE_WRITE_TARJETA_SECTOR1_BLOQUE0?VERIFICADOR
            CODE    6AC9H     0084H     UNIT         ?PR?_STRSPN?STRSPN
            CODE    6B4DH     0083H     UNIT         ?PR?_PANTALLALCD_LINEA_2?PANTALLAS
            CODE    6BD0H     0081H     UNIT         ?PR?_STRPBRK?STRPBRK
            CODE    6C51H     0080H     UNIT         ?PR?MSJ_LCD_INFORMATIVO?IO_SENSORES
            CODE    6CD1H     0080H     UNIT         ?PR?_INGRESADATO?PROG
            CODE    6D51H     0080H     UNIT         ?PR?AUT_CARD_CHECK_STATUS?LINTECH
            CODE    6DD1H     007CH     UNIT         ?PR?_CHECK_STATUS?LINTECH
            CODE    6E4DH     0074H     UNIT         ?PR?VARIABLE_INICIO?MAIN
            CODE    6EC1H     0073H     UNIT         ?PR?_DEBUGBUFFERMF?TIBBO
            CODE    6F34H     0073H     UNIT         ?PR?RESPONDE_ESTADO_SENSORES_TRANSPORTE?VERIFICADOR
            CODE    6FA7H     0072H     UNIT         ?PR?_RASPBERRY_DATA?PANTALLAS
            CODE    7019H     006FH     UNIT         ?PR?VALIDASENSORESPASO?IO_SENSORES
            CODE    7088H     006CH     UNIT         ?PR?SHOW?PROG
            CODE    70F4H     006BH     UNIT         ?PR?_STRCAT?STRCAT
            CODE    715FH     0066H     UNIT         ?PR?_RESPONDE_WRITE_TARJETA_SECTOR1_BLOQUE2?VERIFICADOR
            CODE    71C5H     0062H     UNIT         ?PR?_LISTACOMANDOS?PROG
            CODE    7227H     0057H     UNIT         ?PR?RELOJ_PANTALLA_LCD?PANTALLAS
            CODE    727EH     0053H     UNIT         ?PR?_BYTEHEX_DECIMAL?CLOCK
            CODE    72D1H     004DH     UNIT         ?PR?L_D_M?EEPROM
            CODE    731EH     004DH     UNIT         ?PR?RESPONDE_TIPO_TARJETA?VERIFICADOR
            CODE    736BH     004BH     UNIT         ?PR?_TX_AUX?TIBBO
            CODE    73B6H     0049H     UNIT         ?PR?_DEBUG_TXT_TIBBO?TIBBO
            CODE    73FFH     0047H     UNIT         ?PR?_DEBUG_CHR_TIBBO?TIBBO
            CODE    7446H     0046H     UNIT         ?PR?_ESCRIBIRCADENASOFT_BUFFER?MAIN
            CODE    748CH     0046H     UNIT         ?PR?_WR_EEPROM?EEPROM
            CODE    74D2H     0046H     UNIT         ?PR?_LCD_TXT_NUM_CHAR?PANTALLAS
            CODE    7518H     0046H     UNIT         ?PR?_DEBUG_HEXDEC?TIBBO
            CODE    755EH     0046H     UNIT         ?PR?INGRESO_VEHICULO?VERIFICADOR
            CODE    75A4H     0045H     UNIT         ?PR?_VALIDARCLAVE?PROG
            CODE    75E9H     0041H     UNIT         ?PR?_MONITOR_CHR?ACCESCAN
            CODE    762AH     0041H     UNIT         ?PR?_TWO_ONE?CLOCK
            CODE    766BH     0040H     UNIT         ?PR?_GETCMD?PROG
            CODE    76ABH     003FH     UNIT         ?PR?_EB_CLK?CLOCK
            CODE    76EAH     003EH     UNIT         ?PR?_PUTCHAR?MAIN
            CODE    7728H     003DH     UNIT         ?PR?_RD_EEPROM?EEPROM
BL51 BANKED LINKER/LOCATER V6.22.2.0                                                  05/21/2020  14:05:12  PAGE 5


            CODE    7765H     003CH     UNIT         ?PR?_LCD_TXT?PANTALLAS
            CODE    77A1H     003BH     UNIT         ?CO?EEPROM
            CODE    77DCH     003BH     UNIT         ?PR?_DEBUG_PTO_PARALELO?TIBBO
            CODE    7817H     003BH     UNIT         ?PR?_COM_PUTCHAR?UART
            CODE    7852H     003AH     UNIT         ?PR?_DELAY_10MS?DELAY
            CODE    788CH     0037H     UNIT         ?PR?LEE_NO_TICKET?EEPROM
            CODE    78C3H     0036H     UNIT         ?PR?CMD_LPR_INT?ACCESCAN
            CODE    78F9H     0034H     UNIT         ?PR?INCREMENTE_TICKET?EEPROM
            CODE    792DH     0033H     UNIT         ?PR?TRAMA_VALIDACION_P_N?VERIFICADOR
            CODE    7960H     0032H     UNIT         ?PR?_DEBUG_MONITOR?TIBBO
            CODE    7992H     002CH     UNIT         ?PR?LOAD_AND_SEND_INFO_RELOJ?PTO_PARALELO
            CODE    79BEH     002AH     UNIT         ?PR?COM_INITIALIZE?UART
            CODE    79E8H     0029H     UNIT         ?PR?TIMER0_INT?MAIN
            CODE    7A11H     0028H     UNIT         ?PR?_WR_CLK?CLOCK
            CODE    7A39H     0028H     UNIT         ?PR?COM_BAUDRATE?UART
            CODE    7A61H     0028H     UNIT         ?PR?_ARMAR_TRAMA_TARJETA_SECTOR1_BLOQUE0?VERIFICADOR
            CODE    7A89H     0027H     UNIT         ?PR?_TX_CHRLCD?PANTALLAS
            CODE    7AB0H     0026H     UNIT         ?PR?COM_GETCHAR?UART
            CODE    7AD6H     0022H     UNIT         ?PR?_E_D_M?EEPROM
            CODE    7AF8H     0021H     UNIT         ?PR?_HEX_BCD?CLOCK
            CODE    7B19H     0020H     UNIT         ?CO?MAIN
            CODE    7B39H     0020H     UNIT         ?PR?ACKD?EEPROM
            CODE    7B59H     0020H     UNIT         ?PR?ACK_LECT?EEPROM
            CODE    7B79H     001FH     UNIT         ?PR?VALIDASENSOR?IO_SENSORES
            CODE    7B98H     001FH     UNIT         ?PR?TIME_BIT?TIBBO
            CODE    7BB7H     001EH     UNIT         ?PR?_BCD_HEX?CLOCK
            CODE    7BD5H     001BH     UNIT         ?PR?_DELAY_1MS?DELAY
            CODE    7BF0H     0017H     UNIT         ?PR?DISPLAYCURSOR?PROG
            CODE    7C07H     0017H     UNIT         ?PR?TIME_MBIT?TIBBO
            CODE    7C1EH     0014H     UNIT         ?PR?DEBUG_DIVIDIR_TEXTO?TIBBO
            CODE    7C32H     0014H     UNIT         ?PR?_ISSPACE?ISSPACE
            CODE    7C46H     0012H     UNIT         ?PR?_DELAY_20US?DELAY
            CODE    7C58H     0012H     UNIT         ?PR?START?EEPROM
            CODE    7C6AH     0012H     UNIT         ?PR?DIR_BOARD?IO_SENSORES
            CODE    7C7CH     0012H     UNIT         ?PR?PULSO_BUS?PTO_PARALELO
            CODE    7C8EH     0012H     UNIT         ?PR?COM_RBUFLEN?UART
            CODE    7CA0H     0012H     UNIT         ?PR?COM_TBUFLEN?UART
            CODE    7CB2H     0010H     UNIT         ?PR?INI_TIMER?MAIN
            CODE    7CC2H     0010H     UNIT         ?PR?INICIA_BOARD?MAIN
            CODE    7CD2H     000FH     UNIT         ?PR?_ISDIGIT?ISDIGIT
            CODE    7CE1H     000CH     UNIT         ?PR?_GETKEY?MAIN
            CODE    7CEDH     000AH     UNIT         ?PR?COND_INI_PTO?PTO_PARALELO
            CODE    7CF7H     0009H     UNIT         ?PR?STOP?EEPROM
            CODE    7D00H     0007H     UNIT         ?PR?COND_INI_CLOCK?CLOCK
            CODE    7D07H     0007H     UNIT         ?PR?SEL_FUNCION?IO_SENSORES
            CODE    7D0EH     0007H     UNIT         ?PR?SEL_AUTO?IO_SENSORES
            CODE    7D15H     0007H     UNIT         ?PR?SEL_PULSA?IO_SENSORES
            CODE    7D1CH     0007H     UNIT         ?PR?SEL_SENSOR2?IO_SENSORES
            CODE    7D23H     0007H     UNIT         ?PR?SEL_SENSOR1?IO_SENSORES
            CODE    7D2AH     0007H     UNIT         ?PR?SEL_DIR1?IO_SENSORES
            CODE    7D31H     0007H     UNIT         ?PR?SEL_DIR2?IO_SENSORES
            CODE    7D38H     0006H     UNIT         ?PR?P_ME?EEPROM
            CODE    7D3EH     0005H     UNIT         ?PR?ON_TIMER0_INTERRUP?MAIN
            CODE    7D43H     0005H     UNIT         ?CO?ACCESCAN
            CODE    7D48H     0005H     UNIT         ?PR?COND_INI_TIBBO?TIBBO
            CODE    7D4DH     0003H     UNIT         ?PR?OFF_TIMER0_INTERRUP?MAIN
            CODE    7D50H     0003H     UNIT         ?CO?PTO_PARALELO
BL51 BANKED LINKER/LOCATER V6.22.2.0                                                  05/21/2020  14:05:12  PAGE 6


            CODE    7D53H     0001H     UNIT         ?PR?DELAY?DELAY



OVERLAY MAP OF MODULE:   .\Objects\expedidor_v_01_raspberry (MAIN)


SEGMENT                                             BIT_GROUP          DATA_GROUP          XDATA_GROUP
  +--> CALLED SEGMENT                            START    LENGTH     START    LENGTH     START    LENGTH
--------------------------------------------------------------------------------------------------------
?C_C51STARTUP                                    -----    -----      -----    -----      -----    -----
  +--> ?PR?MAIN?MAIN
  +--> ?C_INITSEG

?PR?MAIN?MAIN                                    -----    -----      -----    -----      0000H    0022H
  +--> ?CO?MAIN
  +--> ?PR?INI_TIMER?MAIN
  +--> ?PR?ON_TIMER0_INTERRUP?MAIN
  +--> ?PR?COM_INITIALIZE?UART
  +--> ?PR?COM_BAUDRATE?UART
  +--> ?PR?INICIA_BOARD?MAIN
  +--> ?PR?TIME_BIT?TIBBO
  +--> ?PR?_DELAY_20US?DELAY
  +--> ?PR?TIME_MBIT?TIBBO
  +--> ?PR?_TX_AUX?TIBBO
  +--> ?PR?SEL_FUNCION?IO_SENSORES
  +--> ?PR?MENU?PROG
  +--> ?PR?VARIABLE_INICIO?MAIN
  +--> ?PR?SECUENCIA_INICIO_EXPEDIDOR?VERIFI...
  +--> ?PR?_RECIBE_CMD_MONITOR?ACCESCAN
  +--> ?PR?_DEBUG_MONITOR?TIBBO
  +--> ?PR?_SECUENCIAEXPEDIDORMF?VERIFICADOR
  +--> ?PR?_RECIBE_PORT?PTO_PARALELO
  +--> ?PR?_DEBUG_PTO_PARALELO?TIBBO
  +--> ?PR?_VALIDA_TRAMA_PTO?ACCESCAN
  +--> ?PR?MSJ_LCD_INFORMATIVO?IO_SENSORES

?PR?COM_INITIALIZE?UART                          -----    -----      -----    -----      -----    -----
  +--> ?PR?COM_BAUDRATE?UART

?PR?INICIA_BOARD?MAIN                            -----    -----      -----    -----      -----    -----
  +--> ?PR?COND_INI_TIBBO?TIBBO
  +--> ?PR?COND_INI_CLOCK?CLOCK
  +--> ?PR?COND_INI_PTO?PTO_PARALELO

?PR?_TX_AUX?TIBBO                                -----    -----      -----    -----      -----    -----
  +--> ?PR?TIME_BIT?TIBBO

?PR?MENU?PROG                                    -----    -----      -----    -----      0022H    005CH
  +--> ?CO?PROG
  +--> ?PR?PRINTF?PRINTF
  +--> ?PR?_INGRESADATO?PROG
  +--> ?PR?_GETCMD?PROG
  +--> ?PR?_HASH_ID?PROG
  +--> ?PR?_VALIDARCLAVE?PROG
  +--> ?PR?DISPLAYCURSOR?PROG
  +--> ?PR?_STRLEN?STRLEN
BL51 BANKED LINKER/LOCATER V6.22.2.0                                                  05/21/2020  14:05:12  PAGE 7


  +--> ?PR?_GETOPTION?PROG
  +--> ?PR?_STRCAT?STRCAT
  +--> ?PR?_LISTACOMANDOS?PROG
  +--> ?PR?PROG_ID_CLIENTE?PROG
  +--> ?PR?PROG_COD_PARK?PROG
  +--> ?PR?PROG_TIEMPO_GRACIA?PROG
  +--> ?PR?PROG_SIN_COBRO?PROG
  +--> ?PR?PROG_DEBUG?PROG
  +--> ?PR?PROG_USE_LPR?PROG
  +--> ?PR?PROG_COMPARACION_ACTIVA?PROG
  +--> ?PR?TIPO_PANTALLA?PROG
  +--> ?PR?PROG_TARJETA_AUTOMATICA_O_BOTON?PROG
  +--> ?PR?PROG_ANTIPASSBACK?PROG
  +--> ?PR?SHOW?PROG

?PR?PRINTF?PRINTF                                0020H.0  0001H.1    0008H    0005H      008EH    0030H
  +--> ?PR?_PUTCHAR?MAIN

?PR?_PUTCHAR?MAIN                                -----    -----      -----    -----      00BEH    0003H
  +--> ?PR?_COM_PUTCHAR?UART

?PR?_COM_PUTCHAR?UART                            -----    -----      -----    -----      00C1H    0001H
  +--> ?PR?COM_TBUFLEN?UART

?PR?_INGRESADATO?PROG                            -----    -----      -----    -----      008AH    0004H
  +--> ?PR?_GETKEY?MAIN
  +--> ?CO?PROG
  +--> ?PR?PRINTF?PRINTF
  +--> ?PR?_PUTCHAR?MAIN

?PR?_GETKEY?MAIN                                 -----    -----      -----    -----      -----    -----
  +--> ?PR?COM_GETCHAR?UART

?PR?COM_GETCHAR?UART                             -----    -----      -----    -----      -----    -----
  +--> ?PR?COM_RBUFLEN?UART

?PR?_GETCMD?PROG                                 -----    -----      -----    -----      007EH    0007H
  +--> ?CO?PROG
  +--> ?PR?_STRTOK?STRTOK

?PR?_STRTOK?STRTOK                               -----    -----      -----    -----      0089H    0006H
  +--> ?PR?_STRSPN?STRSPN
  +--> ?PR?_STRPBRK?STRPBRK

?PR?_STRSPN?STRSPN                               -----    -----      -----    -----      008FH    0008H

?PR?_STRPBRK?STRPBRK                             -----    -----      -----    -----      008FH    0009H

?PR?_HASH_ID?PROG                                -----    -----      -----    -----      007EH    0036H
  +--> ?CO?PROG
  +--> ?PR?_STRLEN?STRLEN

?PR?_VALIDARCLAVE?PROG                           -----    -----      -----    -----      007EH    000AH

?PR?DISPLAYCURSOR?PROG                           -----    -----      -----    -----      -----    -----
  +--> ?CO?PROG
  +--> ?PR?PRINTF?PRINTF
BL51 BANKED LINKER/LOCATER V6.22.2.0                                                  05/21/2020  14:05:12  PAGE 8



?PR?_GETOPTION?PROG                              -----    -----      -----    -----      007EH    000BH
  +--> ?CO?PROG
  +--> ?PR?_STRTOK?STRTOK

?PR?_STRCAT?STRCAT                               -----    -----      -----    -----      007EH    0009H

?PR?_LISTACOMANDOS?PROG                          -----    -----      -----    -----      007EH    0007H

?PR?PROG_ID_CLIENTE?PROG                         -----    -----      -----    -----      007EH    000CH
  +--> ?PR?_RD_EEPROM?EEPROM
  +--> ?CO?PROG
  +--> ?PR?PRINTF?PRINTF
  +--> ?PR?_INGRESADATO?PROG
  +--> ?PR?_ATOI?ATOI
  +--> ?PR?_WR_EEPROM?EEPROM

?PR?_RD_EEPROM?EEPROM                            -----    -----      -----    -----      -----    -----
  +--> ?PR?START?EEPROM
  +--> ?PR?ACK_LECT?EEPROM
  +--> ?PR?_E_D_M?EEPROM
  +--> ?PR?ACKD?EEPROM
  +--> ?PR?L_D_M?EEPROM
  +--> ?PR?STOP?EEPROM

?PR?ACK_LECT?EEPROM                              -----    -----      -----    -----      -----    -----
  +--> ?PR?_E_D_M?EEPROM

?PR?_E_D_M?EEPROM                                -----    -----      -----    -----      -----    -----
  +--> ?PR?P_ME?EEPROM

?PR?ACKD?EEPROM                                  -----    -----      -----    -----      -----    -----
  +--> ?PR?_E_D_M?EEPROM

?PR?_ATOI?ATOI                                   0020H.0  0000H.1    -----    -----      008AH    0005H
  +--> ?PR?_ISSPACE?ISSPACE
  +--> ?PR?_ISDIGIT?ISDIGIT

?PR?_WR_EEPROM?EEPROM                            -----    -----      -----    -----      -----    -----
  +--> ?PR?START?EEPROM
  +--> ?PR?ACKD?EEPROM
  +--> ?PR?_E_D_M?EEPROM
  +--> ?PR?STOP?EEPROM
  +--> ?PR?_DELAY_1MS?DELAY
  +--> ?PR?_DELAY_20US?DELAY

?PR?_DELAY_1MS?DELAY                             -----    -----      -----    -----      -----    -----
  +--> ?PR?_DELAY_20US?DELAY

?PR?PROG_COD_PARK?PROG                           -----    -----      -----    -----      007EH    000CH
  +--> ?PR?_RD_EEPROM?EEPROM
  +--> ?CO?PROG
  +--> ?PR?PRINTF?PRINTF
  +--> ?PR?_INGRESADATO?PROG
  +--> ?PR?_ATOI?ATOI
  +--> ?PR?_WR_EEPROM?EEPROM

BL51 BANKED LINKER/LOCATER V6.22.2.0                                                  05/21/2020  14:05:12  PAGE 9


?PR?PROG_TIEMPO_GRACIA?PROG                      -----    -----      -----    -----      007EH    000CH
  +--> ?PR?_RD_EEPROM?EEPROM
  +--> ?CO?PROG
  +--> ?PR?PRINTF?PRINTF
  +--> ?PR?_INGRESADATO?PROG
  +--> ?PR?_ATOI?ATOI
  +--> ?PR?_WR_EEPROM?EEPROM

?PR?PROG_SIN_COBRO?PROG                          -----    -----      -----    -----      007EH    000CH
  +--> ?PR?_RD_EEPROM?EEPROM
  +--> ?CO?PROG
  +--> ?PR?PRINTF?PRINTF
  +--> ?PR?_INGRESADATO?PROG
  +--> ?PR?_ATOI?ATOI
  +--> ?PR?_WR_EEPROM?EEPROM

?PR?PROG_DEBUG?PROG                              -----    -----      -----    -----      007EH    000CH
  +--> ?PR?_RD_EEPROM?EEPROM
  +--> ?CO?PROG
  +--> ?PR?PRINTF?PRINTF
  +--> ?PR?_INGRESADATO?PROG
  +--> ?PR?_ATOI?ATOI
  +--> ?PR?_WR_EEPROM?EEPROM

?PR?PROG_USE_LPR?PROG                            -----    -----      -----    -----      007EH    000CH
  +--> ?PR?_RD_EEPROM?EEPROM
  +--> ?CO?PROG
  +--> ?PR?PRINTF?PRINTF
  +--> ?PR?_INGRESADATO?PROG
  +--> ?PR?_ATOI?ATOI
  +--> ?PR?_WR_EEPROM?EEPROM

?PR?PROG_COMPARACION_ACTIVA?PROG                 -----    -----      -----    -----      007EH    000CH
  +--> ?PR?_RD_EEPROM?EEPROM
  +--> ?CO?PROG
  +--> ?PR?PRINTF?PRINTF
  +--> ?PR?_INGRESADATO?PROG
  +--> ?PR?_ATOI?ATOI
  +--> ?PR?_WR_EEPROM?EEPROM

?PR?TIPO_PANTALLA?PROG                           -----    -----      -----    -----      007EH    000CH
  +--> ?PR?_RD_EEPROM?EEPROM
  +--> ?CO?PROG
  +--> ?PR?PRINTF?PRINTF
  +--> ?PR?_INGRESADATO?PROG
  +--> ?PR?_ATOI?ATOI
  +--> ?PR?_WR_EEPROM?EEPROM

?PR?PROG_TARJETA_AUTOMATICA_O_BOTON?PROG         -----    -----      -----    -----      007EH    000CH
  +--> ?PR?_RD_EEPROM?EEPROM
  +--> ?CO?PROG
  +--> ?PR?PRINTF?PRINTF
  +--> ?PR?_INGRESADATO?PROG
  +--> ?PR?_ATOI?ATOI
  +--> ?PR?_WR_EEPROM?EEPROM

?PR?PROG_ANTIPASSBACK?PROG                       -----    -----      -----    -----      007EH    000CH
BL51 BANKED LINKER/LOCATER V6.22.2.0                                                  05/21/2020  14:05:12  PAGE 10


  +--> ?PR?_RD_EEPROM?EEPROM
  +--> ?CO?PROG
  +--> ?PR?PRINTF?PRINTF
  +--> ?PR?_INGRESADATO?PROG
  +--> ?PR?_ATOI?ATOI
  +--> ?PR?_WR_EEPROM?EEPROM

?PR?SHOW?PROG                                    -----    -----      -----    -----      -----    -----
  +--> ?CO?PROG
  +--> ?PR?PRINTF?PRINTF

?PR?VARIABLE_INICIO?MAIN                         -----    -----      -----    -----      -----    -----
  +--> ?PR?_RD_EEPROM?EEPROM

?PR?SECUENCIA_INICIO_EXPEDIDOR?VERIFI...         -----    -----      -----    -----      0022H    0001H
  +--> ?PR?_INICIALIZA?LINTECH
  +--> ?PR?TRAMA_VALIDACION_P_N?VERIFICADOR
  +--> ?CO?VERIFICADOR
  +--> ?PR?_DEBUG_TXT_TIBBO?TIBBO
  +--> ?PR?_DEBUGBUFFERMF?TIBBO
  +--> ?PR?DWLOAD_EEPROM?LINTECH

?PR?_INICIALIZA?LINTECH                          -----    -----      -----    -----      0023H    000CH
  +--> ?CO?LINTECH
  +--> ?PR?_DEBUG_TXT_TIBBO?TIBBO
  +--> ?PR?_DEBUGBUFFERMF?TIBBO
  +--> ?PR?_ESCRIBIRCADENASOFT_BUFFER?MAIN

?PR?_DEBUG_TXT_TIBBO?TIBBO                       -----    -----      -----    -----      004EH    0004H
  +--> ?PR?_DEBUG_CHR_TIBBO?TIBBO
  +--> ?CO?TIBBO
  +--> ?PR?_TX_AUX?TIBBO

?PR?_DEBUG_CHR_TIBBO?TIBBO                       -----    -----      -----    -----      -----    -----
  +--> ?PR?_TX_AUX?TIBBO

?PR?_DEBUGBUFFERMF?TIBBO                         -----    -----      -----    -----      0048H    0006H
  +--> ?CO?TIBBO
  +--> ?PR?_DEBUG_TXT_TIBBO?TIBBO
  +--> ?PR?_DEBUG_CHR_TIBBO?TIBBO
  +--> ?PR?_TX_AUX?TIBBO

?PR?_ESCRIBIRCADENASOFT_BUFFER?MAIN              -----    -----      -----    -----      0048H    0006H
  +--> ?PR?_PUTCHAR?MAIN

?PR?TRAMA_VALIDACION_P_N?VERIFICADOR             -----    -----      -----    -----      -----    -----
  +--> ?CO?VERIFICADOR
  +--> ?PR?_DEBUG_TXT_TIBBO?TIBBO

?PR?DWLOAD_EEPROM?LINTECH                        -----    -----      -----    -----      0023H    0016H
  +--> ?CO?LINTECH
  +--> ?PR?_DEBUG_TXT_TIBBO?TIBBO
  +--> ?PR?_DEBUGBUFFERMF?TIBBO
  +--> ?PR?_ESCRIBIRCADENASOFT_BUFFER?MAIN

?PR?_RECIBE_CMD_MONITOR?ACCESCAN                 -----    -----      -----    -----      0022H    0006H
  +--> ?PR?RX_DATA?TIBBO
BL51 BANKED LINKER/LOCATER V6.22.2.0                                                  05/21/2020  14:05:12  PAGE 11



?PR?RX_DATA?TIBBO                                -----    -----      -----    -----      -----    -----
  +--> ?PR?TIME_MBIT?TIBBO
  +--> ?PR?TIME_BIT?TIBBO

?PR?_DEBUG_MONITOR?TIBBO                         -----    -----      -----    -----      0022H    0004H
  +--> ?PR?DEBUG_DIVIDIR_TEXTO?TIBBO
  +--> ?CO?TIBBO
  +--> ?PR?_DEBUG_TXT_TIBBO?TIBBO

?PR?DEBUG_DIVIDIR_TEXTO?TIBBO                    -----    -----      -----    -----      -----    -----
  +--> ?CO?TIBBO
  +--> ?PR?_DEBUG_TXT_TIBBO?TIBBO

?PR?_SECUENCIAEXPEDIDORMF?VERIFICADOR            -----    -----      -----    -----      0022H    0001H
  +--> ?PR?_CHECK_STATUS?LINTECH
  +--> ?PR?_RTA_CMD_TRANSPORTE?VERIFICADOR
  +--> ?PR?RESPONDE_ESTADO_SENSORES_TRANSPOR...
  +--> ?PR?RESPONDE_TIPO_TARJETA?VERIFICADOR
  +--> ?PR?_RESPONDE_LECTURA_TARJETA_SECTOR1...
  +--> ?PR?_RESPONDE_LECTURA_TARJETA_SECTOR1...
  +--> ?PR?_RESPONDE_WRITE_TARJETA_SECTOR1_B...
  +--> ?PR?_RESPONDE_WRITE_TARJETA_SECTOR1_B...
  +--> ?CO?VERIFICADOR
  +--> ?PR?_DEBUG_TXT_TIBBO?TIBBO
  +--> ?PR?_MOV_CARD?LINTECH
  +--> ?PR?_CARD_INSERCION?LINTECH
  +--> ?PR?AUT_CARD_CHECK_STATUS?LINTECH
  +--> ?PR?LOADVERIFY_EEPROM?LINTECH
  +--> ?PR?_RD_MF?LINTECH
  +--> ?PR?_WR_MF?LINTECH
  +--> ?PR?DWLOAD_EEPROM?LINTECH

?PR?_CHECK_STATUS?LINTECH                        -----    -----      -----    -----      0023H    000BH
  +--> ?CO?LINTECH
  +--> ?PR?_DEBUG_TXT_TIBBO?TIBBO
  +--> ?PR?_DEBUGBUFFERMF?TIBBO
  +--> ?PR?_ESCRIBIRCADENASOFT_BUFFER?MAIN

?PR?_RTA_CMD_TRANSPORTE?VERIFICADOR              -----    -----      -----    -----      0023H    0006H
  +--> ?PR?TRAMA_VALIDACION_P_N?VERIFICADOR
  +--> ?CO?VERIFICADOR
  +--> ?PR?_DEBUG_TXT_TIBBO?TIBBO
  +--> ?PR?_DEBUGBUFFERMF?TIBBO
  +--> ?PR?ERROR_RX_PTO?VERIFICADOR

?PR?ERROR_RX_PTO?VERIFICADOR                     -----    -----      -----    -----      0029H    0001H
  +--> ?CO?VERIFICADOR
  +--> ?PR?_DEBUG_TXT_TIBBO?TIBBO
  +--> ?PR?_DEBUG_CHR_TIBBO?TIBBO
  +--> ?PR?_DELAY_10MS?DELAY

?PR?_DELAY_10MS?DELAY                            -----    -----      -----    -----      002AH    0004H
  +--> ?PR?_DELAY_1MS?DELAY

?PR?RESPONDE_ESTADO_SENSORES_TRANSPOR...         -----    -----      -----    -----      0023H    0001H
  +--> ?CO?VERIFICADOR
BL51 BANKED LINKER/LOCATER V6.22.2.0                                                  05/21/2020  14:05:12  PAGE 12


  +--> ?PR?_DEBUG_TXT_TIBBO?TIBBO
  +--> ?PR?_SEND_PORTERR?PTO_PARALELO
  +--> ?PR?_PANTALLALCD?PANTALLAS
  +--> ?PR?INGRESO_VEHICULO?VERIFICADOR

?PR?_SEND_PORTERR?PTO_PARALELO                   -----    -----      -----    -----      0038H    0006H
  +--> ?PR?PULSO_BUS?PTO_PARALELO
  +--> ?PR?_DELAY_20US?DELAY

?PR?PULSO_BUS?PTO_PARALELO                       -----    -----      -----    -----      -----    -----
  +--> ?PR?_DELAY_20US?DELAY

?PR?_PANTALLALCD?PANTALLAS                       -----    -----      -----    -----      0038H    0008H
  +--> ?CO?PANTALLAS
  +--> ?PR?_LCD_TXT?PANTALLAS
  +--> ?PR?_STRLEN?STRLEN
  +--> ?PR?_TX_CHRLCD?PANTALLAS
  +--> ?PR?_RASPBERRY_DATA?PANTALLAS

?PR?_LCD_TXT?PANTALLAS                           -----    -----      -----    -----      0040H    0005H
  +--> ?PR?_TX_CHRLCD?PANTALLAS

?PR?_TX_CHRLCD?PANTALLAS                         -----    -----      -----    -----      0045H    0002H
  +--> ?PR?_PUTCHAR?MAIN

?PR?_RASPBERRY_DATA?PANTALLAS                    -----    -----      -----    -----      0040H    0005H
  +--> ?PR?_STRLEN?STRLEN
  +--> ?PR?_DEBUG_CHR_TIBBO?TIBBO
  +--> ?PR?DEBUG_DIVIDIR_TEXTO?TIBBO
  +--> ?PR?_DEBUG_TXT_TIBBO?TIBBO
  +--> ?PR?_PUTCHAR?MAIN

?PR?INGRESO_VEHICULO?VERIFICADOR                 -----    -----      -----    -----      -----    -----
  +--> ?PR?VALIDASENSORESPASO?IO_SENSORES
  +--> ?PR?_RD_EEPROM?EEPROM
  +--> ?CO?VERIFICADOR
  +--> ?PR?SEL_PULSA?IO_SENSORES
  +--> ?PR?_DEBUG_TXT_TIBBO?TIBBO

?PR?VALIDASENSORESPASO?IO_SENSORES               -----    -----      -----    -----      -----    -----
  +--> ?PR?SEL_SENSOR2?IO_SENSORES
  +--> ?PR?VALIDASENSOR?IO_SENSORES
  +--> ?PR?SEL_SENSOR1?IO_SENSORES
  +--> ?PR?SEL_AUTO?IO_SENSORES
  +--> ?CO?IO_SENSORES
  +--> ?PR?_DEBUG_TXT_TIBBO?TIBBO

?PR?RESPONDE_TIPO_TARJETA?VERIFICADOR            -----    -----      -----    -----      0023H    0001H
  +--> ?CO?VERIFICADOR
  +--> ?PR?_DEBUG_TXT_TIBBO?TIBBO
  +--> ?PR?_SEND_PORTERR?PTO_PARALELO
  +--> ?PR?_PANTALLALCD?PANTALLAS

?PR?_RESPONDE_LECTURA_TARJETA_SECTOR1...         -----    -----      -----    -----      0023H    0015H
  +--> ?CO?VERIFICADOR
  +--> ?PR?_DEBUG_TXT_TIBBO?TIBBO
  +--> ?PR?_DEBUGBUFFERMF?TIBBO
BL51 BANKED LINKER/LOCATER V6.22.2.0                                                  05/21/2020  14:05:12  PAGE 13


  +--> ?PR?_DEBUG_HEXDEC?TIBBO
  +--> ?PR?_DEBUG_CHR_TIBBO?TIBBO
  +--> ?PR?_SEND_PORTERR?PTO_PARALELO
  +--> ?PR?_PANTALLALCD?PANTALLAS

?PR?_DEBUG_HEXDEC?TIBBO                          -----    -----      -----    -----      0038H    0002H
  +--> ?PR?_TX_AUX?TIBBO

?PR?_RESPONDE_LECTURA_TARJETA_SECTOR1...         -----    -----      -----    -----      0023H    0018H
  +--> ?CO?VERIFICADOR
  +--> ?PR?_DEBUG_TXT_TIBBO?TIBBO
  +--> ?PR?_DEBUGBUFFERMF?TIBBO
  +--> ?PR?_DEBUG_CHR_TIBBO?TIBBO
  +--> ?PR?_RD_EEPROM?EEPROM
  +--> ?PR?_ARMAR_TRAMA_TARJETA_SECTOR1_BLOQ...

?PR?_ARMAR_TRAMA_TARJETA_SECTOR1_BLOQ...         -----    -----      -----    -----      003BH    0006H
  +--> ?PR?_BLOCK_READ_CLOCK_HEX?CLOCK
  +--> ?PR?DIR_BOARD?IO_SENSORES

?PR?_BLOCK_READ_CLOCK_HEX?CLOCK                  -----    -----      -----    -----      0041H    0003H
  +--> ?PR?_LEE_CLK?CLOCK
  +--> ?PR?_BCD_HEX?CLOCK

?PR?_LEE_CLK?CLOCK                               -----    -----      -----    -----      0056H    0003H
  +--> ?PR?_DELAY_20US?DELAY
  +--> ?PR?_EB_CLK?CLOCK
  +--> ?PR?P_CK?CLOCK

?PR?_EB_CLK?CLOCK                                -----    -----      -----    -----      0059H    0003H
  +--> ?PR?P_CK?CLOCK

?PR?P_CK?CLOCK                                   -----    -----      -----    -----      -----    -----
  +--> ?PR?DELAY?DELAY

?PR?DIR_BOARD?IO_SENSORES                        -----    -----      -----    -----      -----    -----
  +--> ?PR?SEL_DIR1?IO_SENSORES
  +--> ?PR?SEL_DIR2?IO_SENSORES

?PR?_RESPONDE_WRITE_TARJETA_SECTOR1_B...         -----    -----      -----    -----      0023H    0006H
  +--> ?CO?VERIFICADOR
  +--> ?PR?_DEBUG_TXT_TIBBO?TIBBO
  +--> ?PR?_DEBUGBUFFERMF?TIBBO
  +--> ?PR?_ARMAR_TRAMA_TARJETA_SECTOR1_BLOQ...

?PR?_ARMAR_TRAMA_TARJETA_SECTOR1_BLOQ...         -----    -----      -----    -----      0029H    0003H
  +--> ?PR?LEE_NO_TICKET?EEPROM

?PR?LEE_NO_TICKET?EEPROM                         -----    -----      -----    -----      002CH    000BH
  +--> ?PR?READ_EEPROM_TICKET?EEPROM
  +--> ?CO?EEPROM
  +--> ?PR?PRINTF?PRINTF
  +--> ?PR?_DEBUG_TXT_TIBBO?TIBBO

?PR?READ_EEPROM_TICKET?EEPROM                    -----    -----      -----    -----      0037H    0007H
  +--> ?PR?_RD_EEPROM?EEPROM

BL51 BANKED LINKER/LOCATER V6.22.2.0                                                  05/21/2020  14:05:12  PAGE 14


?PR?_RESPONDE_WRITE_TARJETA_SECTOR1_B...         -----    -----      -----    -----      0023H    0006H
  +--> ?CO?VERIFICADOR
  +--> ?PR?_DEBUG_TXT_TIBBO?TIBBO
  +--> ?PR?_DEBUGBUFFERMF?TIBBO
  +--> ?PR?ARMAR_TRAMA_PTO_PARALELO_EXPEDIDO...
  +--> ?PR?_STRLEN?STRLEN
  +--> ?PR?_SEND_PORT?PTO_PARALELO
  +--> ?PR?INCREMENTE_TICKET?EEPROM

?PR?ARMAR_TRAMA_PTO_PARALELO_EXPEDIDO...         -----    -----      -----    -----      -----    -----
  +--> ?PR?LEE_NO_TICKET?EEPROM
  +--> ?PR?_STRCAT?STRCAT
  +--> ?PR?_BLOCK_READ_CLOCK_HEX?CLOCK
  +--> ?PR?_RD_EEPROM?EEPROM

?PR?_SEND_PORT?PTO_PARALELO                      -----    -----      -----    -----      0034H    000AH
  +--> ?PR?PULSO_BUS?PTO_PARALELO
  +--> ?PR?_DELAY_20US?DELAY

?PR?INCREMENTE_TICKET?EEPROM                     -----    -----      -----    -----      0029H    000BH
  +--> ?PR?READ_EEPROM_TICKET?EEPROM
  +--> ?CO?EEPROM
  +--> ?PR?PRINTF?PRINTF
  +--> ?PR?_GRABA_SERIE?EEPROM

?PR?_GRABA_SERIE?EEPROM                          -----    -----      -----    -----      0034H    0011H
  +--> ?CO?EEPROM
  +--> ?PR?_DEBUG_TXT_TIBBO?TIBBO
  +--> ?PR?_ATOL?ATOL
  +--> ?PR?_DEBUG_CHR_TIBBO?TIBBO
  +--> ?PR?_WR_EEPROM?EEPROM

?PR?_ATOL?ATOL                                   0020H.0  0000H.1    -----    -----      0045H    0007H
  +--> ?PR?_ISSPACE?ISSPACE
  +--> ?PR?_ISDIGIT?ISDIGIT

?PR?_MOV_CARD?LINTECH                            -----    -----      -----    -----      0023H    000CH
  +--> ?CO?LINTECH
  +--> ?PR?_DEBUG_TXT_TIBBO?TIBBO
  +--> ?PR?_DEBUGBUFFERMF?TIBBO
  +--> ?PR?_ESCRIBIRCADENASOFT_BUFFER?MAIN

?PR?_CARD_INSERCION?LINTECH                      -----    -----      -----    -----      0023H    000AH
  +--> ?CO?LINTECH
  +--> ?PR?_DEBUG_TXT_TIBBO?TIBBO
  +--> ?PR?_DEBUGBUFFERMF?TIBBO
  +--> ?PR?_ESCRIBIRCADENASOFT_BUFFER?MAIN

?PR?AUT_CARD_CHECK_STATUS?LINTECH                -----    -----      -----    -----      0023H    000BH
  +--> ?CO?LINTECH
  +--> ?PR?_DEBUG_TXT_TIBBO?TIBBO
  +--> ?PR?_DEBUGBUFFERMF?TIBBO
  +--> ?PR?_ESCRIBIRCADENASOFT_BUFFER?MAIN

?PR?LOADVERIFY_EEPROM?LINTECH                    -----    -----      -----    -----      0023H    0010H
  +--> ?CO?LINTECH
  +--> ?PR?_DEBUG_TXT_TIBBO?TIBBO
BL51 BANKED LINKER/LOCATER V6.22.2.0                                                  05/21/2020  14:05:12  PAGE 15


  +--> ?PR?_DEBUGBUFFERMF?TIBBO
  +--> ?PR?_ESCRIBIRCADENASOFT_BUFFER?MAIN

?PR?_RD_MF?LINTECH                               -----    -----      -----    -----      0023H    0012H
  +--> ?CO?LINTECH
  +--> ?PR?_DEBUG_TXT_TIBBO?TIBBO
  +--> ?PR?_DEBUG_CHR_TIBBO?TIBBO
  +--> ?PR?_DEBUGBUFFERMF?TIBBO
  +--> ?PR?_ESCRIBIRCADENASOFT_BUFFER?MAIN

?PR?_WR_MF?LINTECH                               -----    -----      -----    -----      0023H    0025H
  +--> ?CO?LINTECH
  +--> ?PR?_DEBUG_TXT_TIBBO?TIBBO
  +--> ?PR?_DEBUG_CHR_TIBBO?TIBBO
  +--> ?PR?_DEBUGBUFFERMF?TIBBO
  +--> ?PR?_ESCRIBIRCADENASOFT_BUFFER?MAIN

?PR?_RECIBE_PORT?PTO_PARALELO                    -----    -----      -----    -----      0022H    0008H
  +--> ?PR?OFF_TIMER0_INTERRUP?MAIN
  +--> ?PR?ON_TIMER0_INTERRUP?MAIN

?PR?_DEBUG_PTO_PARALELO?TIBBO                    -----    -----      -----    -----      0022H    0004H
  +--> ?PR?DEBUG_DIVIDIR_TEXTO?TIBBO
  +--> ?CO?TIBBO
  +--> ?PR?_DEBUG_TXT_TIBBO?TIBBO
  +--> ?PR?_DEBUGBUFFERMF?TIBBO

?PR?_VALIDA_TRAMA_PTO?ACCESCAN                   -----    -----      -----    -----      0022H    000FH
  +--> ?PR?_VALIDAR_CLK?CLOCK
  +--> ?PR?_BLOCK_WRITE_CLOCK_ASCII?CLOCK
  +--> ?PR?RELOJ_PANTALLA_LCD?PANTALLAS
  +--> ?PR?_PANTALLALCD?PANTALLAS
  +--> ?CO?ACCESCAN
  +--> ?PR?_DEBUG_TXT_TIBBO?TIBBO
  +--> ?PR?_BYTEHEX_DECIMAL?CLOCK
  +--> ?PR?_TWO_BYTEHEX_DECIMAL?CLOCK
  +--> ?PR?_PANTALLALCD_LINEA_2?PANTALLAS
  +--> ?PR?VALIDASENSORESPASO?IO_SENSORES
  +--> ?PR?_CMD_LPR_SALIDA_WIEGAND?ACCESCAN
  +--> ?PR?_GRABA_SERIE?EEPROM

?PR?_BLOCK_WRITE_CLOCK_ASCII?CLOCK               -----    -----      -----    -----      0031H    0003H
  +--> ?PR?_TWO_ONE?CLOCK
  +--> ?PR?_WR_CLK?CLOCK

?PR?_WR_CLK?CLOCK                                -----    -----      -----    -----      0034H    0002H
  +--> ?PR?_DELAY_20US?DELAY
  +--> ?PR?_EB_CLK?CLOCK

?PR?RELOJ_PANTALLA_LCD?PANTALLAS                 -----    -----      -----    -----      0031H    000DH
  +--> ?CO?PANTALLAS
  +--> ?PR?_BLOCK_READ_CLOCK?CLOCK
  +--> ?PR?_LCD_TXT_NUM_CHAR?PANTALLAS
  +--> ?PR?_RASPBERRY_DATA?PANTALLAS

?PR?_BLOCK_READ_CLOCK?CLOCK                      -----    -----      -----    -----      003EH    0003H
  +--> ?PR?_LEE_CLK?CLOCK
BL51 BANKED LINKER/LOCATER V6.22.2.0                                                  05/21/2020  14:05:12  PAGE 16



?PR?_LCD_TXT_NUM_CHAR?PANTALLAS                  -----    -----      -----    -----      003EH    0006H
  +--> ?PR?_TX_CHRLCD?PANTALLAS

?PR?_BYTEHEX_DECIMAL?CLOCK                       -----    -----      -----    -----      0031H    0001H

?PR?_TWO_BYTEHEX_DECIMAL?CLOCK                   -----    -----      -----    -----      0031H    000CH
  +--> ?PR?_POW?POW

?PR?_POW?POW                                     -----    -----      -----    -----      003DH    000AH
  +--> ?PR?LOG?LOG
  +--> ?PR?EXP?EXP

?PR?LOG?LOG                                      0020H.0  0000H.1    -----    -----      0047H    0004H

?PR?_PANTALLALCD_LINEA_2?PANTALLAS               -----    -----      -----    -----      0031H    000BH
  +--> ?CO?PANTALLAS
  +--> ?PR?_LCD_TXT?PANTALLAS
  +--> ?PR?_STRLEN?STRLEN
  +--> ?PR?_TX_CHRLCD?PANTALLAS

?PR?_CMD_LPR_SALIDA_WIEGAND?ACCESCAN             -----    -----      -----    -----      0031H    0022H
  +--> ?PR?DIR_BOARD?IO_SENSORES
  +--> ?PR?_BLOCK_READ_CLOCK_ASCII?CLOCK
  +--> ?PR?_MONITOR_CHR?ACCESCAN

?PR?_BLOCK_READ_CLOCK_ASCII?CLOCK                -----    -----      -----    -----      0053H    0003H
  +--> ?PR?_LEE_CLK?CLOCK

?PR?_MONITOR_CHR?ACCESCAN                        -----    -----      -----    -----      0053H    0005H
  +--> ?PR?_TX_AUX?TIBBO

?PR?MSJ_LCD_INFORMATIVO?IO_SENSORES              -----    -----      -----    -----      0022H    0001H
  +--> ?PR?SEL_FUNCION?IO_SENSORES
  +--> ?PR?LOAD_AND_SEND_INFO_RELOJ?PTO_PARA...
  +--> ?PR?LOAD_AND_SEND_ID_COD?PTO_PARALELO
  +--> ?PR?_RD_EEPROM?EEPROM
  +--> ?PR?_SEND_PORTERR?PTO_PARALELO

?PR?LOAD_AND_SEND_INFO_RELOJ?PTO_PARA...         -----    -----      -----    -----      0023H    000BH
  +--> ?PR?_BLOCK_READ_CLOCK?CLOCK
  +--> ?PR?_LEE_CLK?CLOCK
  +--> ?PR?_SEND_PORT?PTO_PARALELO

?PR?LOAD_AND_SEND_ID_COD?PTO_PARALELO            -----    -----      -----    -----      0023H    0011H
  +--> ?CO?PTO_PARALELO
  +--> ?PR?PRINTF?PRINTF
  +--> ?PR?_SEND_PORT?PTO_PARALELO



SYMBOL TABLE OF MODULE:  .\Objects\expedidor_v_01_raspberry (MAIN)

  VALUE           TYPE          NAME
  ----------------------------------

  -------         MODULE        MAIN
BL51 BANKED LINKER/LOCATER V6.22.2.0                                                  05/21/2020  14:05:12  PAGE 17


  C:0000H         SYMBOL        _ICE_DUMMY_
  D:0080H         PUBLIC        P0
  D:0090H         PUBLIC        P1
  C:79E8H         PUBLIC        timer0_int
  D:00B0H         PUBLIC        P3
  B:00A8H.7       PUBLIC        EA
  X:00EAH         PUBLIC        Tarjeta_on
  C:7D4DH         PUBLIC        off_Timer0_Interrup
  X:00EBH         PUBLIC        ValTimeOutCom
  X:00ECH         PUBLIC        Buffer_Rta_Lintech
  X:011EH         PUBLIC        Timer_wait
  X:011FH         PUBLIC        g_cContByteRx
  B:0080H.0       PUBLIC        rx_ip
  B:0080H.3       PUBLIC        Atascado
  C:5C40H         PUBLIC        main
  X:0120H         PUBLIC        Timer_tivo
  C:6E4DH         PUBLIC        variable_inicio
  B:0090H.7       PUBLIC        lock
  I:0022H         PUBLIC        rbuf
  C:7D3EH         PUBLIC        on_Timer0_Interrup
  I:0054H         PUBLIC        tbuf
  B:0090H.1       PUBLIC        DataIn
  D:0089H         PUBLIC        TMOD
  X:0122H         PUBLIC        USE_LPR
  X:0123H         PUBLIC        Debug_Tibbo
  X:0124H         PUBLIC        Raspberry
  X:0125H         PUBLIC        SIN_COBRO
  C:7B19H         SYMBOL        _?ix1000
  X:0127H         PUBLIC        Tipo_Vehiculo
  C:7B29H         SYMBOL        _?ix1001
  B:00B0H.3       PUBLIC        busy
  C:7CB2H         PUBLIC        ini_timer
  B:00A8H.1       PUBLIC        ET0
  B:0088H.5       PUBLIC        TF0
  X:0128H         PUBLIC        COMPARACION_ACTIVA
  D:008CH         PUBLIC        TH0
  X:0129H         PUBLIC        ACK
  X:012AH         PUBLIC        g_cEstadoComSoft
  D:008AH         PUBLIC        TL0
  B:0088H.4       PUBLIC        TR0
  C:7CC2H         PUBLIC        inicia_board
  X:012BH         PUBLIC        T_GRACIA
  X:012DH         PUBLIC        COD_PARK
  B:0080H.7       PUBLIC        sel_com
  X:012FH         PUBLIC        STX_LINTECH
  C:7CE1H         PUBLIC        _getkey
  X:0130H         PUBLIC        g_cEstadoComSeqMF
  X:0131H         PUBLIC        ETX
  X:0132H         PUBLIC        ID_CLIENTE
  C:7446H         PUBLIC        _EscribirCadenaSoft_buffer
  B:0021H.5       PUBLIC        buffer_ready
  C:76EAH         PUBLIC        _putchar
  -------         PROC          TIMER0_INT
  C:79E8H         LINE#         12
  C:79EEH         LINE#         15
  C:79F4H         LINE#         16
  C:79FAH         LINE#         17
BL51 BANKED LINKER/LOCATER V6.22.2.0                                                  05/21/2020  14:05:12  PAGE 18


  C:7A08H         LINE#         18
  C:7A0AH         LINE#         20
  -------         ENDPROC       TIMER0_INT
  -------         PROC          INI_TIMER
  C:7CB2H         LINE#         23
  C:7CB2H         LINE#         24
  C:7CB2H         LINE#         26
  C:7CBAH         LINE#         28
  C:7CBDH         LINE#         29
  C:7CBFH         LINE#         30
  C:7CC1H         LINE#         32
  -------         ENDPROC       INI_TIMER
  -------         PROC          ON_TIMER0_INTERRUP
  C:7D3EH         LINE#         35
  C:7D3EH         LINE#         36
  C:7D3EH         LINE#         37
  C:7D40H         LINE#         38
  C:7D42H         LINE#         40
  -------         ENDPROC       ON_TIMER0_INTERRUP
  -------         PROC          OFF_TIMER0_INTERRUP
  C:7D4DH         LINE#         43
  C:7D4DH         LINE#         44
  C:7D4DH         LINE#         45
  C:7D4FH         LINE#         47
  -------         ENDPROC       OFF_TIMER0_INTERRUP
  -------         PROC          _GETKEY
  -------         DO            
  D:0006H         SYMBOL        k
  -------         ENDDO         
  C:7CE1H         LINE#         55
  C:7CE1H         LINE#         56
  C:7CE1H         LINE#         60
  C:7CE1H         LINE#         61
  C:7CE4H         LINE#         62
  C:7CE4H         LINE#         63
  C:7CECH         LINE#         65
  C:7CECH         LINE#         66
  -------         ENDPROC       _GETKEY
  -------         PROC          _PUTCHAR
  X:00BEH         SYMBOL        c
  -------         DO            
  X:00BFH         SYMBOL        i
  -------         ENDDO         
  C:76EAH         LINE#         70
  C:76EFH         LINE#         71
  C:76EFH         LINE#         74
  C:76FEH         LINE#         75
  C:76FEH         LINE#         76
  C:7714H         LINE#         77
  C:7714H         LINE#         79
  C:7722H         LINE#         80
  C:7722H         LINE#         82
  C:7727H         LINE#         83
  -------         ENDPROC       _PUTCHAR
  -------         PROC          _ESCRIBIRCADENASOFT_BUFFER
  X:0048H         SYMBOL        buffer
  X:004BH         SYMBOL        tamano_cadena
BL51 BANKED LINKER/LOCATER V6.22.2.0                                                  05/21/2020  14:05:12  PAGE 19


  -------         DO            
  X:004CH         SYMBOL        i
  X:004DH         SYMBOL        d
  -------         ENDDO         
  C:7446H         LINE#         87
  C:7454H         LINE#         88
  C:7454H         LINE#         90
  C:7462H         LINE#         91
  C:7462H         LINE#         92
  C:7479H         LINE#         93
  C:7483H         LINE#         94
  C:748BH         LINE#         95
  -------         ENDPROC       _ESCRIBIRCADENASOFT_BUFFER
  -------         PROC          INICIA_BOARD
  C:7CC2H         LINE#         132
  C:7CC2H         LINE#         133
  C:7CC2H         LINE#         134
  C:7CC5H         LINE#         135
  C:7CC8H         LINE#         136
  C:7CCBH         LINE#         137
  C:7CCDH         LINE#         138
  C:7CCFH         LINE#         139
  C:7CD1H         LINE#         141
  -------         ENDPROC       INICIA_BOARD
  -------         PROC          VARIABLE_INICIO
  C:6E4DH         LINE#         146
  C:6E4DH         LINE#         147
  C:6E4DH         LINE#         149
  C:6E5DH         LINE#         150
  C:6E6EH         LINE#         151
  C:6E7FH         LINE#         152
  C:6E90H         LINE#         153
  C:6E96H         LINE#         154
  C:6EA4H         LINE#         155
  C:6EB2H         LINE#         156
  C:6EC0H         LINE#         158
  -------         ENDPROC       VARIABLE_INICIO
  -------         PROC          MAIN
  -------         DO            
  X:00C2H         SYMBOL        buffer
  X:0000H         SYMBOL        S1_B2
  X:0010H         SYMBOL        S1_B0
  X:0020H         SYMBOL        Estado_Comunicacion_Secuencia_MF
  X:0021H         SYMBOL        Length_trama
  -------         ENDDO         
  C:5C40H         LINE#         166
  C:5C40H         LINE#         167
  C:5C40H         LINE#         171
  C:5C53H         LINE#         172
  C:5C66H         LINE#         173
  C:5C6BH         LINE#         177
  C:5C6EH         LINE#         178
  C:5C71H         LINE#         179
  C:5C74H         LINE#         180
  C:5C77H         LINE#         181
  C:5C7AH         LINE#         182
  C:5C7CH         LINE#         184
BL51 BANKED LINKER/LOCATER V6.22.2.0                                                  05/21/2020  14:05:12  PAGE 20


  C:5C7FH         LINE#         185
  C:5C86H         LINE#         186
  C:5C89H         LINE#         187
  C:5C8EH         LINE#         189
  C:5C91H         LINE#         191
  C:5C94H         LINE#         192
  C:5C94H         LINE#         193
  C:5C97H         LINE#         194
  C:5C97H         LINE#         195
  C:5C9AH         LINE#         196
  C:5CA0H         LINE#         197
  C:5CA6H         LINE#         199
  C:5CA6H         LINE#         200
  C:5CA6H         LINE#         208
  C:5CA9H         LINE#         209
  C:5CA9H         LINE#         211
  C:5CB8H         LINE#         212
  C:5CC1H         LINE#         213
  C:5CC1H         LINE#         217
  C:5CCEH         LINE#         222
  C:5CD1H         LINE#         223
  C:5CD1H         LINE#         225
  C:5CE0H         LINE#         227
  C:5CE9H         LINE#         229
  C:5CF7H         LINE#         231
  C:5CF7H         LINE#         232
  C:5CFAH         LINE#         236
  -------         ENDPROC       MAIN
  -------         ENDMOD        MAIN

  -------         MODULE        ACCESCAN
  C:0000H         SYMBOL        _ICE_DUMMY_
  D:0080H         PUBLIC        P0
  D:0090H         PUBLIC        P1
  B:0080H.2       PUBLIC        led_err_imp
  C:75E9H         PUBLIC        _Monitor_chr
  C:3054H         PUBLIC        _Cmd_LPR_Salida
  B:0080H.3       PUBLIC        Atascado
  B:0080H.0       PUBLIC        rx_ip
  B:0090H.7       PUBLIC        lock
  C:78C3H         PUBLIC        Cmd_Lpr_Int
  C:2DB6H         PUBLIC        _Valida_Trama_Pto
  C:6429H         PUBLIC        _recibe_cmd_Monitor
  C:56DDH         PUBLIC        _Cmd_LPR_Salida_wiegand
  -------         PROC          _VALIDA_TRAMA_PTO
  X:0022H         SYMBOL        buffer
  X:0025H         SYMBOL        length_trama
  -------         DO            
  X:0026H         SYMBOL        buff
  -------         ENDDO         
  C:2DB6H         LINE#         65
  C:2DC4H         LINE#         66
  C:2DC4H         LINE#         69
  C:2DFAH         LINE#         70
  C:2DFAH         LINE#         71
  C:2E0FH         LINE#         72
  C:2E0FH         LINE#         73
BL51 BANKED LINKER/LOCATER V6.22.2.0                                                  05/21/2020  14:05:12  PAGE 21


  C:2E22H         LINE#         75
  C:2E25H         LINE#         77
  C:2E25H         LINE#         78
  C:2E25H         LINE#         80
  C:2E37H         LINE#         81
  C:2E37H         LINE#         82
  C:2E47H         LINE#         83
  C:2E47H         LINE#         84
  C:2E4CH         LINE#         85
  C:2E4EH         LINE#         86
  C:2E53H         LINE#         87
  C:2E55H         LINE#         88
  C:2E57H         LINE#         89
  C:2E57H         LINE#         90
  C:2E58H         LINE#         92
  C:2E6AH         LINE#         93
  C:2E6AH         LINE#         95
  C:2E77H         LINE#         96
  C:2E77H         LINE#         97
  C:2E79H         LINE#         98
  C:2E7BH         LINE#         99
  C:2E7DH         LINE#         100
  C:2E7FH         LINE#         101
  C:2E7FH         LINE#         103
  C:2EA5H         LINE#         104
  C:2EA5H         LINE#         105
  C:2EA9H         LINE#         106
  C:2EAEH         LINE#         107
  C:2EB7H         LINE#         108
  C:2EBCH         LINE#         109
  C:2EBCH         LINE#         112
  C:2EBDH         LINE#         115
  C:2EF4H         LINE#         116
  C:2EF4H         LINE#         117
  C:2EF6H         LINE#         118
  C:2EF8H         LINE#         119
  C:2F12H         LINE#         120
  C:2F12H         LINE#         121
  C:2F17H         LINE#         122
  C:2F17H         LINE#         124
  C:2F5AH         LINE#         125
  C:2F5AH         LINE#         126
  C:2F62H         LINE#         127
  C:2F62H         LINE#         129
  C:2F77H         LINE#         130
  C:2F7DH         LINE#         131
  C:2FA7H         LINE#         133
  C:2FB2H         LINE#         137
  C:2FB8H         LINE#         139
  C:2FC1H         LINE#         140
  C:2FC1H         LINE#         143
  C:2FC1H         LINE#         145
  C:2FDCH         LINE#         146
  C:2FE2H         LINE#         147
  C:300CH         LINE#         148
  C:3017H         LINE#         152
  C:3017H         LINE#         153
BL51 BANKED LINKER/LOCATER V6.22.2.0                                                  05/21/2020  14:05:12  PAGE 22


  C:3017H         LINE#         155
  C:3044H         LINE#         156
  C:3044H         LINE#         157
  C:3053H         LINE#         159
  C:3053H         LINE#         160
  -------         ENDPROC       _VALIDA_TRAMA_PTO
  -------         PROC          _RECIBE_CMD_MONITOR
  X:0022H         SYMBOL        buffer_cmd
  -------         DO            
  X:0025H         SYMBOL        j
  X:0026H         SYMBOL        NumDatos
  D:0005H         SYMBOL        time_out
  X:0027H         SYMBOL        MaxChrRx
  D:0006H         SYMBOL        contador
  -------         ENDDO         
  C:6429H         LINE#         166
  C:6434H         LINE#         167
  C:6434H         LINE#         171
  C:6439H         LINE#         172
  C:643DH         LINE#         174
  C:6445H         LINE#         175
  C:6445H         LINE#         176
  C:6456H         LINE#         177
  C:6456H         LINE#         178
  C:6459H         LINE#         179
  C:645AH         LINE#         180
  C:6460H         LINE#         181
  C:6460H         LINE#         182
  C:6465H         LINE#         183
  C:646EH         LINE#         184
  C:646EH         LINE#         185
  C:6470H         LINE#         186
  C:6478H         LINE#         187
  C:6478H         LINE#         188
  C:647AH         LINE#         189
  C:647FH         LINE#         190
  C:6485H         LINE#         191
  C:6497H         LINE#         192
  C:64A1H         LINE#         193
  C:64A9H         LINE#         195
  C:64B8H         LINE#         198
  C:64B8H         LINE#         199
  C:64BDH         LINE#         200
  -------         ENDPROC       _RECIBE_CMD_MONITOR
  -------         PROC          _MONITOR_CHR
  X:0053H         SYMBOL        str
  X:0056H         SYMBOL        num_char
  -------         DO            
  X:0057H         SYMBOL        j
  -------         ENDDO         
  C:75E9H         LINE#         230
  C:75F7H         LINE#         231
  C:75F7H         LINE#         233
  C:7605H         LINE#         234
  C:7605H         LINE#         235
  C:7617H         LINE#         236
  C:7621H         LINE#         237
BL51 BANKED LINKER/LOCATER V6.22.2.0                                                  05/21/2020  14:05:12  PAGE 23


  C:7629H         LINE#         238
  -------         ENDPROC       _MONITOR_CHR
  -------         PROC          _CMD_LPR_SALIDA_WIEGAND
  X:0031H         SYMBOL        buffer
  -------         DO            
  X:0034H         SYMBOL        Buffer_Lpr
  X:0052H         SYMBOL        j
  -------         ENDDO         
  C:56DDH         LINE#         243
  C:56E8H         LINE#         244
  C:56E8H         LINE#         246
  C:56EEH         LINE#         247
  C:56F3H         LINE#         248
  C:56FBH         LINE#         249
  C:56FFH         LINE#         250
  C:5708H         LINE#         251
  C:5708H         LINE#         252
  C:5719H         LINE#         253
  C:571BH         LINE#         255
  C:571BH         LINE#         256
  C:572CH         LINE#         257
  C:572CH         LINE#         261
  C:5743H         LINE#         262
  C:5743H         LINE#         263
  C:5752H         LINE#         264
  C:575CH         LINE#         266
  C:5764H         LINE#         267
  C:5778H         LINE#         269
  C:5788H         LINE#         270
  C:5799H         LINE#         271
  C:57A6H         LINE#         275
  -------         ENDPROC       _CMD_LPR_SALIDA_WIEGAND
  -------         PROC          _CMD_LPR_SALIDA
  X:01D3H         SYMBOL        buffer_S1_B0
  X:01D6H         SYMBOL        buffer_S1_B2
  -------         DO            
  X:01D9H         SYMBOL        Buffer_Lpr
  D:0004H         SYMBOL        temp
  X:01F7H         SYMBOL        j
  -------         ENDDO         
  C:3054H         LINE#         280
  C:305FH         LINE#         281
  C:305FH         LINE#         286
  C:3065H         LINE#         287
  C:306AH         LINE#         288
  C:3072H         LINE#         289
  C:3076H         LINE#         291
  C:308CH         LINE#         292
  C:308CH         LINE#         293
  C:309DH         LINE#         294
  C:309FH         LINE#         296
  C:309FH         LINE#         297
  C:30B0H         LINE#         298
  C:30B0H         LINE#         302
  C:30B0H         LINE#         303
  C:30D2H         LINE#         304
  C:30DCH         LINE#         305
BL51 BANKED LINKER/LOCATER V6.22.2.0                                                  05/21/2020  14:05:12  PAGE 24


  C:30ECH         LINE#         311
  C:3100H         LINE#         313
  C:3116H         LINE#         314
  C:313BH         LINE#         315
  C:3154H         LINE#         317
  C:316DH         LINE#         318
  C:3192H         LINE#         319
  C:31ABH         LINE#         321
  C:31C4H         LINE#         322
  C:31E9H         LINE#         323
  C:3202H         LINE#         325
  C:321BH         LINE#         326
  C:3240H         LINE#         327
  C:3259H         LINE#         329
  C:3272H         LINE#         330
  C:3297H         LINE#         331
  C:32B0H         LINE#         335
  C:32C4H         LINE#         338
  C:32D8H         LINE#         340
  -------         ENDPROC       _CMD_LPR_SALIDA
  -------         PROC          CMD_LPR_INT
  -------         DO            
  X:01F8H         SYMBOL        Buffer_Lpr
  X:0216H         SYMBOL        j
  D:0001H         SYMBOL        ticket
  -------         ENDDO         
  C:78C3H         LINE#         342
  C:78C3H         LINE#         343
  C:78C3H         LINE#         345
  C:78C9H         LINE#         347
  C:78CEH         LINE#         348
  C:78D6H         LINE#         349
  C:78DAH         LINE#         350
  C:78E3H         LINE#         351
  C:78E3H         LINE#         352
  C:78E5H         LINE#         353
  C:78E5H         LINE#         354
  C:78E7H         LINE#         356
  C:78E7H         LINE#         357
  C:78EAH         LINE#         358
  C:78EDH         LINE#         359
  C:78EDH         LINE#         361
  C:78F0H         LINE#         362
  -------         ENDPROC       CMD_LPR_INT
  -------         ENDMOD        ACCESCAN

  -------         MODULE        CLOCK
  C:0000H         SYMBOL        _ICE_DUMMY_
  C:765EH         PUBLIC        _two_one
  D:0090H         PUBLIC        P1
  C:485EH         PUBLIC        _validar_clk
  C:7A11H         PUBLIC        _wr_clk
  C:3F74H         PUBLIC        _check_fechaOut
  B:00D0H.7       PUBLIC        CY
  C:0003H         PUBLIC        p_ck
  X:0262H         PUBLIC        data_clk
  C:7D00H         PUBLIC        cond_ini_clock
BL51 BANKED LINKER/LOCATER V6.22.2.0                                                  05/21/2020  14:05:12  PAGE 25


  C:587DH         PUBLIC        _Block_read_Clock
  B:0090H.4       PUBLIC        sck
  C:6071H         PUBLIC        _Block_read_Clock_Hex
  C:3539H         PUBLIC        _Block_read_clock_ascii
  C:7AF8H         PUBLIC        _hex_bcd
  C:7BB7H         PUBLIC        _bcd_hex
  C:727EH         PUBLIC        _ByteHex_Decimal
  C:65EAH         PUBLIC        _lee_clk
  C:146EH         PUBLIC        _analiza_tiempo
  B:0090H.5       PUBLIC        io
  C:6790H         PUBLIC        _Block_write_clock_ascii
  B:0090H.6       PUBLIC        rst
  C:76ABH         PUBLIC        _eb_clk
  C:2567H         PUBLIC        _Two_ByteHex_Decimal
  -------         PROC          P_CK
  C:0003H         LINE#         37
  C:0003H         LINE#         38
  C:0003H         LINE#         39
  C:0005H         LINE#         40
  C:0008H         LINE#         41
  C:000AH         LINE#         42
  -------         ENDPROC       P_CK
  -------         PROC          _EB_CLK
  X:0059H         SYMBOL        dir_clk
  -------         DO            
  X:005AH         SYMBOL        nbits
  -------         ENDDO         
  C:76ABH         LINE#         44
  C:76B0H         LINE#         46
  C:76B5H         LINE#         47
  C:76B5H         LINE#         48
  C:76BEH         LINE#         49
  C:76C1H         LINE#         50
  C:76C1H         LINE#         51
  C:76C3H         LINE#         52
  C:76C5H         LINE#         54
  C:76C5H         LINE#         55
  C:76C7H         LINE#         56
  C:76C7H         LINE#         57
  C:76CAH         LINE#         58
  C:76E9H         LINE#         59
  -------         ENDPROC       _EB_CLK
  C:65E0H         SYMBOL        L?0173
  -------         PROC          L?0172
  -------         ENDPROC       L?0172
  C:65E0H         SYMBOL        L?0173
  -------         PROC          _LEE_CLK
  X:0056H         SYMBOL        dir_clk
  -------         DO            
  X:0057H         SYMBOL        nbits
  -------         ENDDO         
  C:65EAH         LINE#         61
  C:65EFH         LINE#         63
  C:65F1H         LINE#         64
  C:65F8H         LINE#         65
  C:6600H         LINE#         66
  C:6619H         LINE#         67
BL51 BANKED LINKER/LOCATER V6.22.2.0                                                  05/21/2020  14:05:12  PAGE 26


  C:6619H         LINE#         68
  C:661CH         LINE#         69
  C:661CH         LINE#         70
  C:6623H         LINE#         71
  C:662DH         LINE#         72
  C:6632H         LINE#         73
  C:6632H         LINE#         74
  C:6632H         LINE#         75
  C:6635H         LINE#         76
  C:6635H         LINE#         77
  C:663CH         LINE#         78
  C:664DH         LINE#         79
  C:664DH         LINE#         80
  C:6655H         LINE#         81
  C:6655H         LINE#         82
  C:6655H         LINE#         83
  C:6658H         LINE#         84
  C:6668H         LINE#         85
  C:666AH         LINE#         86
  C:666FH         LINE#         87
  -------         ENDPROC       _LEE_CLK
  -------         PROC          _WR_CLK
  X:0034H         SYMBOL        dir_clk
  X:0035H         SYMBOL        byte
  C:7A11H         LINE#         89
  C:7A19H         LINE#         90
  C:7A1BH         LINE#         91
  C:7A22H         LINE#         92
  C:7A2AH         LINE#         93
  C:7A33H         LINE#         94
  C:7A36H         LINE#         95
  C:7A38H         LINE#         97
  -------         ENDPROC       _WR_CLK
  C:762AH         SYMBOL        L?0170
  C:7648H         SYMBOL        L?0171
  -------         PROC          L?0169
  -------         ENDPROC       L?0169
  C:762AH         SYMBOL        L?0170
  C:7648H         SYMBOL        L?0171
  -------         PROC          _TWO_ONE
  D:0007H         SYMBOL        byte_h
  D:0005H         SYMBOL        byte_l
  -------         DO            
  D:0007H         SYMBOL        byte_out
  -------         ENDDO         
  C:765EH         LINE#         99
  C:765EH         LINE#         100
  C:765EH         LINE#         102
  C:7661H         LINE#         103
  C:7665H         LINE#         104
  C:7668H         LINE#         105
  C:766AH         LINE#         106
  C:766AH         LINE#         107
  -------         ENDPROC       _TWO_ONE
  -------         PROC          _VALIDAR_CLK
  D:0001H         SYMBOL        datos_clock
  -------         DO            
BL51 BANKED LINKER/LOCATER V6.22.2.0                                                  05/21/2020  14:05:12  PAGE 27


  D:0007H         SYMBOL        validador
  -------         ENDDO         
  C:485EH         LINE#         111
  C:485EH         LINE#         112
  C:485EH         LINE#         113
  C:4860H         LINE#         116
  C:4875H         LINE#         117
  C:4875H         LINE#         119
  C:488DH         LINE#         120
  C:488DH         LINE#         122
  C:48A5H         LINE#         123
  C:48A5H         LINE#         124
  C:48BDH         LINE#         125
  C:48BDH         LINE#         126
  C:48D5H         LINE#         127
  C:48D5H         LINE#         128
  C:48EAH         LINE#         129
  C:48EAH         LINE#         130
  C:48FCH         LINE#         131
  C:48FCH         LINE#         132
  C:490EH         LINE#         133
  C:490EH         LINE#         134
  C:4920H         LINE#         135
  C:4920H         LINE#         136
  C:4932H         LINE#         137
  C:4932H         LINE#         138
  C:4944H         LINE#         139
  C:4944H         LINE#         140
  C:4954H         LINE#         141
  C:4954H         LINE#         142
  C:4954H         LINE#         143
  C:4954H         LINE#         144
  C:4955H         LINE#         146
  C:4955H         LINE#         147
  C:4957H         LINE#         148
  C:4957H         LINE#         149
  C:4958H         LINE#         151
  C:4958H         LINE#         152
  C:495AH         LINE#         154
  C:495AH         LINE#         155
  C:495BH         LINE#         157
  C:495BH         LINE#         158
  C:495DH         LINE#         160
  C:495DH         LINE#         162
  C:495EH         LINE#         164
  C:495EH         LINE#         165
  C:4960H         LINE#         167
  C:4960H         LINE#         168
  C:4961H         LINE#         170
  C:4961H         LINE#         171
  C:4963H         LINE#         173
  C:4963H         LINE#         174
  C:4964H         LINE#         176
  C:4964H         LINE#         177
  C:4966H         LINE#         179
  C:4966H         LINE#         180
  C:4967H         LINE#         182
BL51 BANKED LINKER/LOCATER V6.22.2.0                                                  05/21/2020  14:05:12  PAGE 28


  C:4967H         LINE#         183
  C:4969H         LINE#         185
  C:4969H         LINE#         186
  C:4969H         LINE#         188
  C:496AH         LINE#         190
  C:496AH         LINE#         191
  C:496CH         LINE#         193
  C:496CH         LINE#         195
  C:496DH         LINE#         198
  C:496DH         LINE#         199
  C:496FH         LINE#         201
  C:496FH         LINE#         203
  C:4970H         LINE#         206
  C:4970H         LINE#         207
  C:4972H         LINE#         209
  C:4972H         LINE#         211
  C:4972H         LINE#         213
  -------         ENDPROC       _VALIDAR_CLK
  -------         PROC          _BLOCK_WRITE_CLOCK_ASCII
  X:0031H         SYMBOL        datos_clock
  C:6790H         LINE#         219
  C:679BH         LINE#         221
  C:679BH         LINE#         225
  C:67A5H         LINE#         226
  C:67A5H         LINE#         227
  C:67A5H         LINE#         228
  C:67A5H         LINE#         230
  C:67AFH         LINE#         231
  C:67B9H         LINE#         232
  C:67C3H         LINE#         233
  C:67C3H         LINE#         234
  C:67C3H         LINE#         235
  C:67C3H         LINE#         237
  C:67CDH         LINE#         238
  C:67CDH         LINE#         239
  C:67CDH         LINE#         240
  C:67CDH         LINE#         242
  C:67D7H         LINE#         243
  C:67D7H         LINE#         244
  C:67D7H         LINE#         245
  C:67D7H         LINE#         247
  C:67E1H         LINE#         248
  C:67E1H         LINE#         249
  C:67E1H         LINE#         250
  C:67E1H         LINE#         252
  C:67EBH         LINE#         253
  C:67F5H         LINE#         254
  C:67FFH         LINE#         255
  C:6809H         LINE#         257
  -------         ENDPROC       _BLOCK_WRITE_CLOCK_ASCII
  -------         PROC          _BCD_HEX
  D:0007H         SYMBOL        l_data
  -------         DO            
  D:0006H         SYMBOL        temp
  D:0005H         SYMBOL        j
  -------         ENDDO         
  C:7BB7H         LINE#         263
BL51 BANKED LINKER/LOCATER V6.22.2.0                                                  05/21/2020  14:05:12  PAGE 29


  C:7BB7H         LINE#         264
  C:7BB7H         LINE#         266
  C:7BB9H         LINE#         267
  C:7BBDH         LINE#         268
  C:7BC0H         LINE#         269
  C:7BC2H         LINE#         270
  C:7BC2H         LINE#         271
  C:7BC6H         LINE#         272
  C:7BCDH         LINE#         273
  C:7BCDH         LINE#         274
  C:7BD1H         LINE#         275
  C:7BD4H         LINE#         276
  C:7BD4H         LINE#         277
  C:7BD4H         LINE#         278
  -------         ENDPROC       _BCD_HEX
  -------         PROC          _HEX_BCD
  D:0007H         SYMBOL        byte
  -------         DO            
  D:0006H         SYMBOL        nibble_h
  D:0005H         SYMBOL        nibble_l
  D:0004H         SYMBOL        k
  D:0007H         SYMBOL        byte_out
  -------         ENDDO         
  C:7AF8H         LINE#         282
  C:7AF8H         LINE#         283
  C:7AF8H         LINE#         288
  C:7AFAH         LINE#         289
  C:7AFBH         LINE#         291
  C:7B01H         LINE#         292
  C:7B01H         LINE#         293
  C:7B02H         LINE#         294
  C:7B07H         LINE#         295
  C:7B07H         LINE#         296
  C:7B08H         LINE#         297
  C:7B09H         LINE#         298
  C:7B09H         LINE#         299
  C:7B0CH         LINE#         300
  C:7B10H         LINE#         301
  C:7B13H         LINE#         302
  C:7B16H         LINE#         303
  C:7B18H         LINE#         304
  C:7B18H         LINE#         306
  -------         ENDPROC       _HEX_BCD
  -------         PROC          _BYTEHEX_DECIMAL
  D:0001H         SYMBOL        buffer
  D:0005H         SYMBOL        valorhex
  -------         DO            
  X:0031H         SYMBOL        numero
  D:0007H         SYMBOL        centena
  D:0006H         SYMBOL        decena
  -------         ENDDO         
  C:727EH         LINE#         312
  C:727EH         LINE#         313
  C:727EH         LINE#         316
  C:7280H         LINE#         317
  C:7281H         LINE#         318
  C:7286H         LINE#         320
BL51 BANKED LINKER/LOCATER V6.22.2.0                                                  05/21/2020  14:05:12  PAGE 30


  C:7293H         LINE#         321
  C:7293H         LINE#         322
  C:7297H         LINE#         323
  C:7298H         LINE#         324
  C:729AH         LINE#         325
  C:72A0H         LINE#         326
  C:72A7H         LINE#         327
  C:72B4H         LINE#         328
  C:72B4H         LINE#         329
  C:72B8H         LINE#         330
  C:72B9H         LINE#         331
  C:72BBH         LINE#         332
  C:72C1H         LINE#         333
  C:72C8H         LINE#         334
  -------         ENDPROC       _BYTEHEX_DECIMAL
  -------         PROC          _TWO_BYTEHEX_DECIMAL
  X:0031H         SYMBOL        buffer
  X:0034H         SYMBOL        id_h
  X:0035H         SYMBOL        id_l
  -------         DO            
  X:0036H         SYMBOL        valor
  D:0006H         SYMBOL        numero
  X:0038H         SYMBOL        temp
  X:0039H         SYMBOL        dmil
  X:003AH         SYMBOL        mil
  X:003BH         SYMBOL        centena
  X:003CH         SYMBOL        decena
  -------         ENDDO         
  C:2567H         LINE#         342
  C:2575H         LINE#         343
  C:2575H         LINE#         347
  C:257CH         LINE#         348
  C:2580H         LINE#         349
  C:2582H         LINE#         350
  C:2584H         LINE#         351
  C:2586H         LINE#         354
  C:258BH         LINE#         355
  C:258EH         LINE#         356
  C:2594H         LINE#         358
  C:25EFH         LINE#         359
  C:25F7H         LINE#         360
  C:25FAH         LINE#         361
  C:2655H         LINE#         363
  C:265DH         LINE#         364
  C:2660H         LINE#         365
  C:2666H         LINE#         366
  C:26C1H         LINE#         367
  C:26C9H         LINE#         368
  C:26CCH         LINE#         369
  C:2727H         LINE#         370
  C:2727H         LINE#         372
  C:2730H         LINE#         373
  C:2730H         LINE#         374
  C:2738H         LINE#         375
  C:273EH         LINE#         376
  C:2740H         LINE#         377
  C:2756H         LINE#         378
BL51 BANKED LINKER/LOCATER V6.22.2.0                                                  05/21/2020  14:05:12  PAGE 31


  C:2760H         LINE#         379
  C:2769H         LINE#         380
  C:2769H         LINE#         381
  C:2771H         LINE#         382
  C:2777H         LINE#         383
  C:2779H         LINE#         384
  C:278FH         LINE#         385
  C:2799H         LINE#         386
  C:27A2H         LINE#         387
  C:27A2H         LINE#         388
  C:27AAH         LINE#         389
  C:27B0H         LINE#         390
  C:27B2H         LINE#         391
  C:27C8H         LINE#         392
  C:27D2H         LINE#         393
  C:27DBH         LINE#         394
  C:27DBH         LINE#         395
  C:27E3H         LINE#         396
  C:27E9H         LINE#         397
  C:27EBH         LINE#         398
  C:2801H         LINE#         399
  C:280BH         LINE#         400
  C:281EH         LINE#         401
  C:2828H         LINE#         402
  -------         ENDPROC       _TWO_BYTEHEX_DECIMAL
  -------         PROC          _BLOCK_READ_CLOCK_ASCII
  X:0053H         SYMBOL        datos_clock
  -------         DO            
  D:0007H         SYMBOL        dato
  -------         ENDDO         
  C:3539H         LINE#         408
  C:353CH         LINE#         409
  C:353CH         LINE#         415
  C:353FH         LINE#         416
  C:3557H         LINE#         417
  C:3561H         LINE#         418
  C:3576H         LINE#         419
  C:3580H         LINE#         422
  C:3585H         LINE#         423
  C:359DH         LINE#         424
  C:35A7H         LINE#         425
  C:35BCH         LINE#         426
  C:35C6H         LINE#         429
  C:35CBH         LINE#         430
  C:35E3H         LINE#         431
  C:35EDH         LINE#         432
  C:3602H         LINE#         433
  C:360CH         LINE#         437
  C:3611H         LINE#         438
  C:3629H         LINE#         439
  C:3633H         LINE#         440
  C:3648H         LINE#         441
  C:3652H         LINE#         444
  C:3657H         LINE#         445
  C:366FH         LINE#         446
  C:3679H         LINE#         447
  C:368EH         LINE#         448
BL51 BANKED LINKER/LOCATER V6.22.2.0                                                  05/21/2020  14:05:12  PAGE 32


  C:3698H         LINE#         451
  C:369DH         LINE#         452
  C:36B5H         LINE#         453
  C:36BFH         LINE#         454
  C:36D4H         LINE#         455
  C:36DEH         LINE#         458
  C:36E3H         LINE#         459
  C:36F8H         LINE#         460
  C:3702H         LINE#         461
  -------         ENDPROC       _BLOCK_READ_CLOCK_ASCII
  -------         PROC          _BLOCK_READ_CLOCK_HEX
  X:0041H         SYMBOL        datos_clock
  C:6071H         LINE#         464
  C:6074H         LINE#         465
  C:6074H         LINE#         468
  C:6089H         LINE#         469
  C:6093H         LINE#         471
  C:60AAH         LINE#         472
  C:60B4H         LINE#         474
  C:60CBH         LINE#         475
  C:60D5H         LINE#         477
  C:60ECH         LINE#         478
  C:60F6H         LINE#         480
  C:610DH         LINE#         481
  -------         ENDPROC       _BLOCK_READ_CLOCK_HEX
  -------         PROC          _BLOCK_READ_CLOCK
  X:003EH         SYMBOL        datos_clock
  C:587DH         LINE#         508
  C:5880H         LINE#         509
  C:5880H         LINE#         511
  C:5892H         LINE#         512
  C:589CH         LINE#         514
  C:58B0H         LINE#         515
  C:58BAH         LINE#         517
  C:58CEH         LINE#         518
  C:58D8H         LINE#         520
  C:58ECH         LINE#         521
  C:58F6H         LINE#         523
  C:590AH         LINE#         524
  C:5914H         LINE#         526
  C:5928H         LINE#         527
  C:5932H         LINE#         528
  -------         ENDPROC       _BLOCK_READ_CLOCK
  -------         PROC          COND_INI_CLOCK
  C:7D00H         LINE#         531
  C:7D00H         LINE#         532
  C:7D00H         LINE#         533
  C:7D02H         LINE#         534
  C:7D04H         LINE#         535
  C:7D06H         LINE#         536
  -------         ENDPROC       COND_INI_CLOCK
  -------         PROC          _CHECK_FECHAOUT
  X:0244H         SYMBOL        buffer
  -------         DO            
  X:0247H         SYMBOL        temp
  X:0248H         SYMBOL        datos_clk
  -------         ENDDO         
BL51 BANKED LINKER/LOCATER V6.22.2.0                                                  05/21/2020  14:05:12  PAGE 33


  C:3F74H         LINE#         546
  C:3F7FH         LINE#         547
  C:3F7FH         LINE#         548
  C:3F83H         LINE#         554
  C:3FCCH         LINE#         555
  C:3FCCH         LINE#         557
  C:3FD1H         LINE#         559
  C:3FD4H         LINE#         561
  C:3FD4H         LINE#         563
  C:3FDDH         LINE#         565
  C:3FE5H         LINE#         566
  C:3FE5H         LINE#         567
  C:3FEEH         LINE#         569
  C:3FEEH         LINE#         572
  C:4011H         LINE#         573
  C:4011H         LINE#         574
  C:4011H         LINE#         575
  C:4014H         LINE#         576
  C:401EH         LINE#         577
  C:401EH         LINE#         578
  C:4044H         LINE#         579
  C:4044H         LINE#         580
  C:4044H         LINE#         581
  C:4047H         LINE#         582
  C:4051H         LINE#         583
  C:4051H         LINE#         584
  C:4077H         LINE#         585
  C:4077H         LINE#         586
  C:4077H         LINE#         587
  C:4079H         LINE#         588
  C:4080H         LINE#         589
  C:4080H         LINE#         590
  C:40A6H         LINE#         591
  C:40A6H         LINE#         592
  C:40A6H         LINE#         593
  C:40A8H         LINE#         594
  C:40AFH         LINE#         595
  C:40AFH         LINE#         596
  C:40D4H         LINE#         597
  C:40D4H         LINE#         598
  C:40D9H         LINE#         599
  C:40DBH         LINE#         607
  C:40DBH         LINE#         608
  C:40DBH         LINE#         609
  C:40DBH         LINE#         610
  C:40DDH         LINE#         612
  C:40DDH         LINE#         613
  C:40DDH         LINE#         614
  C:40DDH         LINE#         615
  C:40DFH         LINE#         617
  C:40DFH         LINE#         618
  C:40DFH         LINE#         619
  C:40DFH         LINE#         620
  C:40E1H         LINE#         622
  C:40E1H         LINE#         623
  C:40E7H         LINE#         625
  C:40E7H         LINE#         627
BL51 BANKED LINKER/LOCATER V6.22.2.0                                                  05/21/2020  14:05:12  PAGE 34


  C:40E7H         LINE#         628
  C:40ECH         LINE#         629
  -------         ENDPROC       _CHECK_FECHAOUT
  -------         PROC          _ANALIZA_TIEMPO
  X:0235H         SYMBOL        buffer
  X:0238H         SYMBOL        Val_DctoMinutos
  -------         DO            
  X:023AH         SYMBOL        ano_inT
  B:0021H.1       SYMBOL        bisiesto
  X:023CH         SYMBOL        ano_out
  X:023DH         SYMBOL        mes_out
  X:023EH         SYMBOL        dia_out
  X:023FH         SYMBOL        hora_out
  X:0240H         SYMBOL        min_out
  X:0241H         SYMBOL        Horas_Dcto
  X:0242H         SYMBOL        Minutos_Dcto
  X:0243H         SYMBOL        Xtemp
  B:0021H.2       SYMBOL        Tiempo_Dcto
  -------         ENDDO         
  C:146EH         LINE#         632
  C:1481H         LINE#         633
  C:1481H         LINE#         637
  C:1483H         LINE#         642
  C:1485H         LINE#         644
  C:14E0H         LINE#         645
  C:14E0H         LINE#         650
  C:14F2H         LINE#         651
  C:14F2H         LINE#         652
  C:1502H         LINE#         653
  C:150CH         LINE#         655
  C:150EH         LINE#         657
  C:150EH         LINE#         658
  C:1514H         LINE#         659
  C:1519H         LINE#         660
  C:1519H         LINE#         664
  C:1523H         LINE#         665
  C:1523H         LINE#         666
  C:153BH         LINE#         667
  C:1547H         LINE#         668
  C:1547H         LINE#         670
  C:1551H         LINE#         671
  C:155FH         LINE#         673
  C:156CH         LINE#         674
  C:1578H         LINE#         675
  C:1578H         LINE#         676
  C:1582H         LINE#         677
  C:1590H         LINE#         679
  C:159DH         LINE#         680
  C:15D2H         LINE#         681
  C:15D2H         LINE#         682
  C:15DFH         LINE#         683
  C:15DFH         LINE#         684
  C:15E3H         LINE#         685
  C:15F9H         LINE#         686
  C:1602H         LINE#         687
  C:1602H         LINE#         688
  C:160AH         LINE#         689
BL51 BANKED LINKER/LOCATER V6.22.2.0                                                  05/21/2020  14:05:12  PAGE 35


  C:160EH         LINE#         690
  C:1611H         LINE#         697
  C:1611H         LINE#         698
  C:1626H         LINE#         699
  C:1626H         LINE#         700
  C:1626H         LINE#         701
  C:1629H         LINE#         702
  C:1657H         LINE#         703
  C:1657H         LINE#         704
  C:1664H         LINE#         705
  C:1664H         LINE#         706
  C:1668H         LINE#         707
  C:166FH         LINE#         708
  C:166FH         LINE#         709
  C:1671H         LINE#         711
  C:1671H         LINE#         712
  C:167BH         LINE#         713
  C:167BH         LINE#         714
  C:167BH         LINE#         716
  C:167EH         LINE#         717
  C:169DH         LINE#         718
  C:169DH         LINE#         720
  C:16B4H         LINE#         721
  C:16B6H         LINE#         761
  C:16DFH         LINE#         762
  C:16DFH         LINE#         763
  C:16E1H         LINE#         764
  C:16E1H         LINE#         766
  C:16E4H         LINE#         767
  C:16E4H         LINE#         768
  C:16FDH         LINE#         769
  C:16FDH         LINE#         770
  C:1704H         LINE#         771
  C:170BH         LINE#         772
  C:1712H         LINE#         774
  C:1714H         LINE#         776
  C:1714H         LINE#         777
  C:171BH         LINE#         778
  C:1720H         LINE#         779
  C:172AH         LINE#         780
  C:172AH         LINE#         781
  C:172DH         LINE#         783
  C:172DH         LINE#         784
  C:173BH         LINE#         785
  C:173BH         LINE#         786
  C:173FH         LINE#         787
  C:1751H         LINE#         788
  C:1751H         LINE#         789
  C:1753H         LINE#         791
  C:1753H         LINE#         792
  C:1758H         LINE#         793
  C:176DH         LINE#         794
  C:176DH         LINE#         795
  C:176DH         LINE#         796
  C:176DH         LINE#         798
  C:1770H         LINE#         800
  C:1770H         LINE#         801
BL51 BANKED LINKER/LOCATER V6.22.2.0                                                  05/21/2020  14:05:12  PAGE 36


  C:1775H         LINE#         802
  C:178AH         LINE#         803
  C:178AH         LINE#         804
  C:178AH         LINE#         805
  C:178DH         LINE#         807
  C:178DH         LINE#         808
  C:17A2H         LINE#         809
  C:17ACH         LINE#         810
  C:17ACH         LINE#         811
  C:17ACH         LINE#         812
  C:17AEH         LINE#         814
  C:17AEH         LINE#         815
  C:17C3H         LINE#         816
  C:17CDH         LINE#         817
  C:17D7H         LINE#         818
  C:17D7H         LINE#         819
  C:17D7H         LINE#         820
  C:17D9H         LINE#         822
  C:17D9H         LINE#         823
  C:17EEH         LINE#         824
  C:17F8H         LINE#         825
  C:1802H         LINE#         826
  C:180CH         LINE#         827
  C:1813H         LINE#         828
  C:1813H         LINE#         832
  C:181DH         LINE#         833
  C:181DH         LINE#         834
  C:1823H         LINE#         835
  C:1831H         LINE#         836
  C:1831H         LINE#         837
  C:183AH         LINE#         838
  C:1848H         LINE#         840
  C:184EH         LINE#         841
  C:1875H         LINE#         842
  C:1875H         LINE#         843
  C:1885H         LINE#         844
  C:1885H         LINE#         845
  C:1889H         LINE#         846
  C:188FH         LINE#         847
  C:189DH         LINE#         848
  C:189DH         LINE#         849
  C:189FH         LINE#         850
  C:18A3H         LINE#         851
  C:18A6H         LINE#         853
  C:18A6H         LINE#         854
  C:18A7H         LINE#         855
  C:18A7H         LINE#         856
  C:18A7H         LINE#         857
  C:18AAH         LINE#         858
  C:18C2H         LINE#         859
  C:18C2H         LINE#         860
  C:18CFH         LINE#         861
  C:18CFH         LINE#         862
  C:18D3H         LINE#         863
  C:18D8H         LINE#         864
  C:18D8H         LINE#         865
  C:18DBH         LINE#         867
BL51 BANKED LINKER/LOCATER V6.22.2.0                                                  05/21/2020  14:05:12  PAGE 37


  C:18DBH         LINE#         868
  C:18DFH         LINE#         869
  C:18DFH         LINE#         870
  C:18DFH         LINE#         871
  C:18E1H         LINE#         872
  C:18EAH         LINE#         873
  C:18EAH         LINE#         875
  C:18FFH         LINE#         876
  C:1901H         LINE#         909
  C:1920H         LINE#         910
  C:1920H         LINE#         911
  C:1922H         LINE#         912
  C:1922H         LINE#         915
  C:1925H         LINE#         916
  C:1925H         LINE#         917
  C:1933H         LINE#         918
  C:1933H         LINE#         919
  C:1937H         LINE#         920
  C:193CH         LINE#         921
  C:193CH         LINE#         922
  C:193EH         LINE#         924
  C:193EH         LINE#         925
  C:1943H         LINE#         926
  C:1947H         LINE#         927
  C:1947H         LINE#         928
  C:1947H         LINE#         929
  C:1949H         LINE#         931
  C:1949H         LINE#         932
  C:1956H         LINE#         933
  C:1956H         LINE#         934
  C:195AH         LINE#         935
  C:1960H         LINE#         936
  C:1965H         LINE#         937
  C:1965H         LINE#         938
  C:1965H         LINE#         940
  C:1965H         LINE#         942
  C:1965H         LINE#         943
  C:1965H         LINE#         946
  C:197CH         LINE#         947
  C:1986H         LINE#         948
  C:1990H         LINE#         949
  C:199AH         LINE#         950
  C:19A4H         LINE#         952
  C:19A4H         LINE#         955
  -------         ENDPROC       _ANALIZA_TIEMPO
  -------         ENDMOD        CLOCK

  -------         MODULE        DELAY
  C:0000H         SYMBOL        _ICE_DUMMY_
  C:7852H         PUBLIC        _Delay_10ms
  C:7C46H         PUBLIC        _Delay_20us
  C:7BD5H         PUBLIC        _Delay_1ms
  C:7D53H         PUBLIC        Delay
  -------         PROC          _DELAY_20US
  D:0006H         SYMBOL        cntd_us
  -------         DO            
  D:0004H         SYMBOL        i
BL51 BANKED LINKER/LOCATER V6.22.2.0                                                  05/21/2020  14:05:12  PAGE 38


  -------         ENDDO         
  C:7C46H         LINE#         20
  C:7C46H         LINE#         21
  C:7C46H         LINE#         24
  C:7C50H         LINE#         26
  C:7C57H         LINE#         27
  -------         ENDPROC       _DELAY_20US
  -------         PROC          _DELAY_1MS
  D:0002H         SYMBOL        cntd_ms
  -------         DO            
  D:0082H         SYMBOL        i
  -------         ENDDO         
  C:7BD5H         LINE#         38
  C:7BD9H         LINE#         39
  C:7BD9H         LINE#         41
  C:7BEFH         LINE#         42
  -------         ENDPROC       _DELAY_1MS
  -------         PROC          _DELAY_10MS
  X:002AH         SYMBOL        cntd_10ms
  -------         DO            
  X:002CH         SYMBOL        i
  -------         ENDDO         
  C:7852H         LINE#         54
  C:785AH         LINE#         55
  C:785AH         LINE#         57
  C:788BH         LINE#         58
  -------         ENDPROC       _DELAY_10MS
  -------         PROC          DELAY
  C:7D53H         LINE#         60
  C:7D53H         LINE#         62
  -------         ENDPROC       DELAY
  -------         ENDMOD        DELAY

  -------         MODULE        EEPROM
  C:0000H         SYMBOL        _ICE_DUMMY_
  D:0090H         PUBLIC        P1
  X:0256H         PUBLIC        l_chr
  C:7B3CH         PUBLIC        ackd
  B:0021H.6       PUBLIC        memory_flag
  B:00D0H.7       PUBLIC        CY
  C:7D38H         PUBLIC        p_me
  C:7C60H         PUBLIC        start
  B:0090H.2       PUBLIC        sda
  C:7B5CH         PUBLIC        ack_lect
  B:0090H.3       PUBLIC        scl
  C:772CH         PUBLIC        _rd_eeprom
  C:7CF7H         PUBLIC        stop
  X:0257H         PUBLIC        l_data_eeprom
  C:7493H         PUBLIC        _wr_eeprom
  C:78F9H         PUBLIC        Incremente_Ticket
  X:0258H         PUBLIC        byte_rd
  C:57B3H         PUBLIC        Read_EEprom_Ticket
  C:7AD6H         PUBLIC        _e_d_m
  C:3C47H         PUBLIC        _graba_serie
  C:788CH         PUBLIC        Lee_No_Ticket
  C:72D1H         PUBLIC        l_d_m
  -------         PROC          L?0048
BL51 BANKED LINKER/LOCATER V6.22.2.0                                                  05/21/2020  14:05:12  PAGE 39


  -------         ENDPROC       L?0048
  -------         PROC          ACKD
  -------         DO            
  D:0006H         SYMBOL        i
  -------         ENDDO         
  C:7B3CH         LINE#         35
  C:7B3CH         LINE#         36
  C:7B3CH         LINE#         38
  C:7B3EH         LINE#         39
  C:7B40H         LINE#         40
  C:7B42H         LINE#         41
  C:7B45H         LINE#         42
  C:7B45H         LINE#         43
  C:7B48H         LINE#         44
  C:7B48H         LINE#         45
  C:7B4AH         LINE#         46
  C:7B4CH         LINE#         48
  C:7B4DH         LINE#         49
  C:7B4DH         LINE#         50
  C:7B58H         LINE#         52
  C:7B58H         LINE#         53
  C:7B58H         LINE#         55
  C:7B58H         LINE#         56
  -------         ENDPROC       ACKD
  -------         PROC          L?0052
  -------         ENDPROC       L?0052
  -------         PROC          ACK_LECT
  -------         DO            
  D:0006H         SYMBOL        i
  -------         ENDDO         
  C:7B5CH         LINE#         59
  C:7B5CH         LINE#         60
  C:7B5CH         LINE#         62
  C:7B5EH         LINE#         63
  C:7B60H         LINE#         64
  C:7B62H         LINE#         65
  C:7B65H         LINE#         66
  C:7B65H         LINE#         67
  C:7B68H         LINE#         68
  C:7B68H         LINE#         69
  C:7B6AH         LINE#         70
  C:7B6CH         LINE#         71
  C:7B6DH         LINE#         72
  C:7B6DH         LINE#         73
  C:7B78H         LINE#         74
  -------         ENDPROC       ACK_LECT
  -------         PROC          P_ME
  C:7D38H         LINE#         76
  C:7D38H         LINE#         77
  C:7D38H         LINE#         78
  C:7D3AH         LINE#         79
  C:7D3BH         LINE#         80
  C:7D3DH         LINE#         81
  -------         ENDPROC       P_ME
  -------         PROC          _E_D_M
  D:0007H         SYMBOL        a_serial_eeprom
  -------         DO            
BL51 BANKED LINKER/LOCATER V6.22.2.0                                                  05/21/2020  14:05:12  PAGE 40


  D:0006H         SYMBOL        nbits
  -------         ENDDO         
  C:7AD6H         LINE#         83
  C:7AD6H         LINE#         84
  C:7AD6H         LINE#         86
  C:7AE2H         LINE#         87
  C:7AE2H         LINE#         88
  C:7AE6H         LINE#         89
  C:7AE9H         LINE#         90
  C:7AE9H         LINE#         91
  C:7AEBH         LINE#         92
  C:7AEDH         LINE#         94
  C:7AEDH         LINE#         95
  C:7AEFH         LINE#         96
  C:7AEFH         LINE#         97
  C:7AF1H         LINE#         98
  C:7AF4H         LINE#         99
  C:7AF7H         LINE#         101
  -------         ENDPROC       _E_D_M
  -------         PROC          L?0049
  -------         ENDPROC       L?0049
  -------         PROC          START
  C:7C60H         LINE#         103
  C:7C60H         LINE#         104
  C:7C60H         LINE#         105
  C:7C62H         LINE#         106
  C:7C64H         LINE#         107
  C:7C65H         LINE#         108
  C:7C67H         LINE#         109
  C:7C69H         LINE#         111
  -------         ENDPROC       START
  -------         PROC          STOP
  C:7CF7H         LINE#         113
  C:7CF7H         LINE#         114
  C:7CF7H         LINE#         115
  C:7CF9H         LINE#         116
  C:7CFBH         LINE#         117
  C:7CFDH         LINE#         118
  C:7CFFH         LINE#         120
  -------         ENDPROC       STOP
  -------         PROC          L_D_M
  -------         DO            
  D:0003H         SYMBOL        nbits
  -------         ENDDO         
  C:72D1H         LINE#         122
  C:72D1H         LINE#         123
  C:72D1H         LINE#         125
  C:72DEH         LINE#         126
  C:72DEH         LINE#         127
  C:72E0H         LINE#         128
  C:72E3H         LINE#         129
  C:72E3H         LINE#         130
  C:72EAH         LINE#         131
  C:72F3H         LINE#         132
  C:72F3H         LINE#         133
  C:72F7H         LINE#         134
  C:72F9H         LINE#         135
BL51 BANKED LINKER/LOCATER V6.22.2.0                                                  05/21/2020  14:05:12  PAGE 41


  C:72F9H         LINE#         136
  C:72F9H         LINE#         137
  C:72FCH         LINE#         138
  C:72FCH         LINE#         139
  C:7303H         LINE#         140
  C:730DH         LINE#         141
  C:730DH         LINE#         142
  C:7311H         LINE#         143
  C:7313H         LINE#         144
  C:7313H         LINE#         145
  C:7313H         LINE#         146
  C:7316H         LINE#         147
  C:7318H         LINE#         148
  C:731DH         LINE#         149
  -------         ENDPROC       L_D_M
  C:748EH         SYMBOL        L?0046
  C:748FH         SYMBOL        L?0047
  -------         PROC          L?0045
  -------         ENDPROC       L?0045
  C:748EH         SYMBOL        L?0046
  C:748FH         SYMBOL        L?0047
  -------         PROC          _WR_EEPROM
  D:0002H         SYMBOL        control
  D:0004H         SYMBOL        Dir
  D:0003H         SYMBOL        data_eeprom
  -------         DO            
  D:0005H         SYMBOL        dir_h
  D:0001H         SYMBOL        dir_l
  -------         ENDDO         
  C:7493H         LINE#         155
  C:7495H         LINE#         156
  C:7495H         LINE#         158
  C:7499H         LINE#         159
  C:7499H         LINE#         160
  C:7499H         LINE#         163
  C:7499H         LINE#         164
  C:7499H         LINE#         166
  C:749CH         LINE#         167
  C:749EH         LINE#         168
  C:74A1H         LINE#         169
  C:74A3H         LINE#         170
  C:74A6H         LINE#         171
  C:74ABH         LINE#         172
  C:74AEH         LINE#         173
  C:74B3H         LINE#         174
  C:74B6H         LINE#         175
  C:74B9H         LINE#         176
  C:74C0H         LINE#         178
  C:74C2H         LINE#         179
  C:74C4H         LINE#         180
  C:74CBH         LINE#         181
  -------         ENDPROC       _WR_EEPROM
  C:7728H         SYMBOL        L?0051
  -------         PROC          L?0050
  -------         ENDPROC       L?0050
  C:7728H         SYMBOL        L?0051
  -------         PROC          _RD_EEPROM
BL51 BANKED LINKER/LOCATER V6.22.2.0                                                  05/21/2020  14:05:12  PAGE 42


  D:0003H         SYMBOL        control
  D:0004H         SYMBOL        Dir
  -------         DO            
  D:0005H         SYMBOL        dir_h
  D:0002H         SYMBOL        dir_l
  -------         ENDDO         
  C:772CH         LINE#         219
  C:772EH         LINE#         220
  C:772EH         LINE#         223
  C:7732H         LINE#         224
  C:7732H         LINE#         225
  C:7732H         LINE#         227
  C:7732H         LINE#         228
  C:7732H         LINE#         230
  C:7735H         LINE#         231
  C:7737H         LINE#         232
  C:773AH         LINE#         233
  C:773CH         LINE#         234
  C:773FH         LINE#         235
  C:7744H         LINE#         236
  C:7747H         LINE#         237
  C:774AH         LINE#         238
  C:7750H         LINE#         239
  C:7753H         LINE#         240
  C:7755H         LINE#         241
  C:7758H         LINE#         242
  C:775BH         LINE#         243
  C:775DH         LINE#         244
  C:775FH         LINE#         245
  C:7764H         LINE#         246
  -------         ENDPROC       _RD_EEPROM
  -------         PROC          _GRABA_SERIE
  X:0034H         SYMBOL        buffer
  -------         DO            
  X:0037H         SYMBOL        j
  X:0038H         SYMBOL        cod_3
  X:0039H         SYMBOL        cod_2
  X:003AH         SYMBOL        cod_1
  X:003BH         SYMBOL        cod_0
  X:003CH         SYMBOL        error
  X:003DH         SYMBOL        Noticket
  X:0041H         SYMBOL        Bnoticket
  -------         ENDDO         
  C:3C47H         LINE#         253
  C:3C52H         LINE#         254
  C:3C52H         LINE#         257
  C:3C57H         LINE#         258
  C:3C61H         LINE#         261
  C:3C73H         LINE#         263
  C:3C86H         LINE#         264
  C:3C86H         LINE#         265
  C:3CAFH         LINE#         266
  C:3CAFH         LINE#         267
  C:3CB5H         LINE#         269
  C:3CBEH         LINE#         270
  C:3CCCH         LINE#         271
  C:3CD5H         LINE#         272
BL51 BANKED LINKER/LOCATER V6.22.2.0                                                  05/21/2020  14:05:12  PAGE 43


  C:3CD5H         LINE#         274
  C:3CDDH         LINE#         278
  C:3CE6H         LINE#         279
  C:3CE6H         LINE#         280
  C:3CEFH         LINE#         281
  C:3CFDH         LINE#         282
  C:3D06H         LINE#         283
  C:3D1AH         LINE#         285
  C:3D23H         LINE#         286
  C:3D3AH         LINE#         287
  C:3D46H         LINE#         288
  C:3D49H         LINE#         290
  C:3D60H         LINE#         291
  C:3D6CH         LINE#         292
  C:3D6FH         LINE#         294
  C:3D86H         LINE#         295
  C:3D92H         LINE#         296
  C:3D95H         LINE#         298
  C:3DA1H         LINE#         299
  C:3DA4H         LINE#         300
  C:3DADH         LINE#         302
  C:3DB6H         LINE#         303
  C:3DC4H         LINE#         304
  C:3DCBH         LINE#         305
  C:3DCFH         LINE#         306
  C:3DD1H         LINE#         308
  C:3DD1H         LINE#         309
  C:3DD7H         LINE#         310
  C:3DE1H         LINE#         311
  C:3DE5H         LINE#         312
  C:3DECH         LINE#         314
  C:3DECH         LINE#         315
  -------         ENDPROC       _GRABA_SERIE
  -------         PROC          LEE_NO_TICKET
  -------         DO            
  D:0004H         SYMBOL        Noticket
  X:002CH         SYMBOL        Lee_No_Ticket
  -------         ENDDO         
  C:788CH         LINE#         319
  C:788CH         LINE#         320
  C:788CH         LINE#         323
  C:788FH         LINE#         324
  C:78AAH         LINE#         325
  C:78B3H         LINE#         326
  C:78BCH         LINE#         327
  C:78C2H         LINE#         328
  -------         ENDPROC       LEE_NO_TICKET
  -------         PROC          READ_EEPROM_TICKET
  -------         DO            
  D:0001H         SYMBOL        cod3
  X:0037H         SYMBOL        cod2
  X:0038H         SYMBOL        cod1
  X:0039H         SYMBOL        cod0
  X:003AH         SYMBOL        Noticket
  -------         ENDDO         
  C:57B3H         LINE#         332
  C:57B3H         LINE#         333
BL51 BANKED LINKER/LOCATER V6.22.2.0                                                  05/21/2020  14:05:12  PAGE 44


  C:57B3H         LINE#         335
  C:57BDH         LINE#         336
  C:57C4H         LINE#         337
  C:57D2H         LINE#         338
  C:57DCH         LINE#         339
  C:57E6H         LINE#         341
  C:5806H         LINE#         342
  C:582BH         LINE#         343
  C:5850H         LINE#         344
  C:586EH         LINE#         345
  C:587CH         LINE#         346
  -------         ENDPROC       READ_EEPROM_TICKET
  -------         PROC          INCREMENTE_TICKET
  -------         DO            
  D:0004H         SYMBOL        Noticket
  X:0029H         SYMBOL        Lee_No_Ticket
  -------         ENDDO         
  C:78F9H         LINE#         350
  C:78F9H         LINE#         351
  C:78F9H         LINE#         355
  C:78FCH         LINE#         356
  C:7909H         LINE#         357
  C:7924H         LINE#         358
  -------         ENDPROC       INCREMENTE_TICKET
  -------         ENDMOD        EEPROM

  -------         MODULE        IO_SENSORES
  C:0000H         SYMBOL        _ICE_DUMMY_
  D:0090H         PUBLIC        P1
  D:00B0H         PUBLIC        P3
  C:7C6AH         PUBLIC        Dir_board
  C:7D15H         PUBLIC        sel_Pulsa
  B:0090H.1       PUBLIC        DataIn
  C:7D0EH         PUBLIC        sel_Auto
  C:7019H         PUBLIC        ValidaSensoresPaso
  B:00B0H.3       PUBLIC        busy
  C:7B79H         PUBLIC        ValidaSensor
  C:7D23H         PUBLIC        sel_Sensor1
  C:7D1CH         PUBLIC        sel_Sensor2
  B:00B0H.5       PUBLIC        sel_A
  B:00B0H.6       PUBLIC        sel_B
  B:00B0H.7       PUBLIC        sel_C
  C:6C51H         PUBLIC        msj_lcd_informativo
  C:7D2AH         PUBLIC        sel_Dir1
  C:7D31H         PUBLIC        sel_Dir2
  C:7D07H         PUBLIC        sel_Funcion
  -------         PROC          SEL_FUNCION
  C:7D07H         LINE#         29
  C:7D07H         LINE#         30
  C:7D07H         LINE#         31
  C:7D09H         LINE#         32
  C:7D0BH         LINE#         33
  C:7D0DH         LINE#         34
  -------         ENDPROC       SEL_FUNCION
  -------         PROC          SEL_AUTO
  C:7D0EH         LINE#         36
  C:7D0EH         LINE#         37
BL51 BANKED LINKER/LOCATER V6.22.2.0                                                  05/21/2020  14:05:12  PAGE 45


  C:7D0EH         LINE#         38
  C:7D10H         LINE#         39
  C:7D12H         LINE#         40
  C:7D14H         LINE#         41
  -------         ENDPROC       SEL_AUTO
  -------         PROC          SEL_PULSA
  C:7D15H         LINE#         43
  C:7D15H         LINE#         44
  C:7D15H         LINE#         45
  C:7D17H         LINE#         46
  C:7D19H         LINE#         47
  C:7D1BH         LINE#         48
  -------         ENDPROC       SEL_PULSA
  -------         PROC          SEL_SENSOR2
  C:7D1CH         LINE#         51
  C:7D1CH         LINE#         52
  C:7D1CH         LINE#         53
  C:7D1EH         LINE#         54
  C:7D20H         LINE#         55
  C:7D22H         LINE#         56
  -------         ENDPROC       SEL_SENSOR2
  -------         PROC          SEL_SENSOR1
  C:7D23H         LINE#         58
  C:7D23H         LINE#         59
  C:7D23H         LINE#         60
  C:7D25H         LINE#         61
  C:7D27H         LINE#         62
  C:7D29H         LINE#         63
  -------         ENDPROC       SEL_SENSOR1
  -------         PROC          SEL_DIR1
  C:7D2AH         LINE#         65
  C:7D2AH         LINE#         66
  C:7D2AH         LINE#         67
  C:7D2CH         LINE#         68
  C:7D2EH         LINE#         69
  C:7D30H         LINE#         70
  -------         ENDPROC       SEL_DIR1
  -------         PROC          SEL_DIR2
  C:7D31H         LINE#         72
  C:7D31H         LINE#         73
  C:7D31H         LINE#         74
  C:7D33H         LINE#         75
  C:7D35H         LINE#         76
  C:7D37H         LINE#         77
  -------         ENDPROC       SEL_DIR2
  -------         PROC          VALIDASENSOR
  -------         DO            
  D:0007H         SYMBOL        Valido
  D:0004H         SYMBOL        Tmin
  -------         ENDDO         
  C:7B79H         LINE#         79
  C:7B79H         LINE#         80
  C:7B79H         LINE#         82
  C:7B7BH         LINE#         83
  C:7B7FH         LINE#         84
  C:7B8AH         LINE#         85
  C:7B8AH         LINE#         86
BL51 BANKED LINKER/LOCATER V6.22.2.0                                                  05/21/2020  14:05:12  PAGE 46


  C:7B8FH         LINE#         87
  C:7B93H         LINE#         88
  C:7B93H         LINE#         89
  C:7B95H         LINE#         90
  C:7B95H         LINE#         91
  C:7B97H         LINE#         92
  C:7B97H         LINE#         93
  -------         ENDPROC       VALIDASENSOR
  -------         PROC          DIR_BOARD
  -------         DO            
  D:0007H         SYMBOL        Board
  -------         ENDDO         
  C:7C6AH         LINE#         97
  C:7C6AH         LINE#         98
  C:7C6AH         LINE#         99
  C:7C6CH         LINE#         101
  C:7C6FH         LINE#         102
  C:7C72H         LINE#         103
  C:7C72H         LINE#         104
  C:7C73H         LINE#         105
  C:7C73H         LINE#         106
  C:7C76H         LINE#         107
  C:7C79H         LINE#         108
  C:7C79H         LINE#         109
  C:7C7BH         LINE#         110
  C:7C7BH         LINE#         111
  C:7C7BH         LINE#         112
  -------         ENDPROC       DIR_BOARD
  -------         PROC          VALIDASENSORESPASO
  C:7019H         LINE#         117
  C:7019H         LINE#         118
  C:7019H         LINE#         120
  C:701CH         LINE#         121
  C:701FH         LINE#         122
  C:701FH         LINE#         123
  C:702DH         LINE#         124
  C:702DH         LINE#         125
  C:7030H         LINE#         126
  C:7033H         LINE#         127
  C:7036H         LINE#         128
  C:703BH         LINE#         129
  C:703BH         LINE#         130
  C:7042H         LINE#         131
  C:7046H         LINE#         132
  C:7048H         LINE#         134
  C:7048H         LINE#         136
  C:7048H         LINE#         137
  C:704FH         LINE#         138
  C:7054H         LINE#         139
  C:7056H         LINE#         140
  C:7056H         LINE#         143
  C:7056H         LINE#         145
  C:7059H         LINE#         146
  C:705EH         LINE#         147
  C:705EH         LINE#         149
  C:7065H         LINE#         150
  C:706BH         LINE#         151
BL51 BANKED LINKER/LOCATER V6.22.2.0                                                  05/21/2020  14:05:12  PAGE 47


  C:706EH         LINE#         152
  C:706EH         LINE#         154
  C:706EH         LINE#         155
  C:7072H         LINE#         156
  C:7074H         LINE#         157
  C:7074H         LINE#         160
  C:7074H         LINE#         161
  C:7074H         LINE#         163
  C:7074H         LINE#         164
  C:707AH         LINE#         165
  C:707CH         LINE#         166
  C:707CH         LINE#         167
  C:707CH         LINE#         168
  C:707CH         LINE#         169
  C:7085H         LINE#         170
  C:7087H         LINE#         171
  C:7087H         LINE#         173
  -------         ENDPROC       VALIDASENSORESPASO
  -------         PROC          MSJ_LCD_INFORMATIVO
  -------         DO            
  X:0022H         SYMBOL        info
  X:0263H         SYMBOL        toggle
  -------         ENDDO         
  C:6C51H         LINE#         182
  C:6C51H         LINE#         183
  C:6C51H         LINE#         184
  C:6C56H         LINE#         186
  C:6C59H         LINE#         187
  C:6C5CH         LINE#         188
  C:6C5CH         LINE#         189
  C:6C68H         LINE#         190
  C:6C68H         LINE#         191
  C:6C6BH         LINE#         192
  C:6C6BH         LINE#         193
  C:6C6DH         LINE#         194
  C:6C70H         LINE#         195
  C:6C76H         LINE#         196
  C:6C76H         LINE#         197
  C:6C78H         LINE#         198
  C:6C86H         LINE#         199
  C:6C86H         LINE#         200
  C:6C89H         LINE#         201
  C:6C89H         LINE#         202
  C:6C8BH         LINE#         203
  C:6C8EH         LINE#         204
  C:6C94H         LINE#         205
  C:6C94H         LINE#         206
  C:6C96H         LINE#         207
  C:6CA4H         LINE#         208
  C:6CA4H         LINE#         209
  C:6CA7H         LINE#         210
  C:6CA7H         LINE#         211
  C:6CA9H         LINE#         212
  C:6CB7H         LINE#         213
  C:6CB7H         LINE#         214
  C:6CB9H         LINE#         215
  C:6CC0H         LINE#         217
BL51 BANKED LINKER/LOCATER V6.22.2.0                                                  05/21/2020  14:05:12  PAGE 48


  C:6CC5H         LINE#         218
  C:6CC5H         LINE#         220
  C:6CC5H         LINE#         222
  C:6CC5H         LINE#         224
  C:6CC8H         LINE#         225
  C:6CCBH         LINE#         226
  C:6CCBH         LINE#         227
  C:6CD0H         LINE#         228
  C:6CD0H         LINE#         230
  -------         ENDPROC       MSJ_LCD_INFORMATIVO
  -------         ENDMOD        IO_SENSORES

  -------         MODULE        PANTALLAS
  C:0000H         SYMBOL        _ICE_DUMMY_
  D:0080H         PUBLIC        P0
  C:7227H         PUBLIC        Reloj_Pantalla_Lcd
  C:2AFCH         PUBLIC        _PantallaLCD
  C:7765H         PUBLIC        _LCD_txt
  C:6FA7H         PUBLIC        _Raspberry_data
  C:7A92H         PUBLIC        _tx_chrlcd
  C:21E5H         SYMBOL        _?ix1000
  C:21F2H         SYMBOL        _?ix1001
  C:21F8H         SYMBOL        _?ix1002
  C:74D2H         PUBLIC        _LCD_txt_num_char
  C:6B4DH         PUBLIC        _PantallaLCD_LINEA_2
  B:0098H.4       PUBLIC        REN
  B:0080H.7       PUBLIC        sel_com
  C:7A89H         SYMBOL        L?0093
  C:7A8CH         SYMBOL        L?0094
  -------         PROC          L?0092
  -------         ENDPROC       L?0092
  C:7A89H         SYMBOL        L?0093
  C:7A8CH         SYMBOL        L?0094
  -------         PROC          _TX_CHRLCD
  D:0007H         SYMBOL        data_com
  X:0045H         SYMBOL        enable_char_add
  -------         DO            
  X:0046H         SYMBOL        d
  -------         ENDDO         
  C:7A92H         LINE#         49
  C:7A97H         LINE#         50
  C:7A97H         LINE#         52
  C:7A9FH         LINE#         53
  C:7AAFH         LINE#         55
  -------         ENDPROC       _TX_CHRLCD
  -------         PROC          _LCD_TXT
  X:0040H         SYMBOL        msg
  X:0043H         SYMBOL        enable_char_add
  -------         DO            
  X:0044H         SYMBOL        i
  -------         ENDDO         
  C:7765H         LINE#         62
  C:7773H         LINE#         63
  C:7773H         LINE#         66
  C:7790H         LINE#         67
  C:7790H         LINE#         68
  C:7798H         LINE#         69
BL51 BANKED LINKER/LOCATER V6.22.2.0                                                  05/21/2020  14:05:12  PAGE 49


  C:77A0H         LINE#         70
  -------         ENDPROC       _LCD_TXT
  -------         PROC          _LCD_TXT_NUM_CHAR
  X:003EH         SYMBOL        msg
  X:0041H         SYMBOL        length_char
  X:0042H         SYMBOL        enable_char_add
  -------         DO            
  X:0043H         SYMBOL        i
  -------         ENDDO         
  C:74D2H         LINE#         77
  C:74E0H         LINE#         78
  C:74E0H         LINE#         81
  C:74F3H         LINE#         82
  C:74F3H         LINE#         83
  C:750FH         LINE#         84
  C:7517H         LINE#         85
  -------         ENDPROC       _LCD_TXT_NUM_CHAR
  -------         PROC          _RASPBERRY_DATA
  X:0040H         SYMBOL        msg
  -------         DO            
  X:0264H         SYMBOL        i
  X:0043H         SYMBOL        lenth_cadena
  X:0044H         SYMBOL        d
  -------         ENDDO         
  C:6FA7H         LINE#         90
  C:6FB2H         LINE#         91
  C:6FB2H         LINE#         96
  C:6FBAH         LINE#         97
  C:6FBDH         LINE#         98
  C:6FC0H         LINE#         99
  C:6FCEH         LINE#         100
  C:6FD1H         LINE#         101
  C:6FEFH         LINE#         102
  C:6FEFH         LINE#         103
  C:7006H         LINE#         104
  C:7010H         LINE#         108
  C:7018H         LINE#         112
  -------         ENDPROC       _RASPBERRY_DATA
  -------         PROC          RELOJ_PANTALLA_LCD
  -------         DO            
  X:0031H         SYMBOL        Ini_Clock_LCD
  -------         ENDDO         
  C:7227H         LINE#         121
  C:7227H         LINE#         122
  C:7227H         LINE#         124
  C:723AH         LINE#         125
  C:7240H         LINE#         126
  C:7240H         LINE#         127
  C:7242H         LINE#         128
  C:724BH         LINE#         132
  C:724DH         LINE#         133
  C:725DH         LINE#         135
  C:725FH         LINE#         136
  C:7261H         LINE#         138
  C:7262H         LINE#         140
  C:7262H         LINE#         141
  C:7264H         LINE#         142
BL51 BANKED LINKER/LOCATER V6.22.2.0                                                  05/21/2020  14:05:12  PAGE 50


  C:7269H         LINE#         143
  C:7272H         LINE#         144
  C:727BH         LINE#         145
  C:727DH         LINE#         146
  C:727DH         LINE#         147
  -------         ENDPROC       RELOJ_PANTALLA_LCD
  -------         PROC          _PANTALLALCD
  X:0038H         SYMBOL        cod_msg
  -------         DO            
  X:0039H         SYMBOL        Ini_LCD_Line_one
  X:003FH         SYMBOL        num_chr
  -------         ENDDO         
  C:2AFCH         LINE#         151
  C:2B01H         LINE#         152
  C:2B01H         LINE#         154
  C:2B14H         LINE#         161
  C:2B16H         LINE#         163
  C:2B1FH         LINE#         164
  C:2B1FH         LINE#         165
  C:2B29H         LINE#         167
  C:2B52H         LINE#         168
  C:2B52H         LINE#         170
  C:2B52H         LINE#         172
  C:2B60H         LINE#         173
  C:2B66H         LINE#         174
  C:2B69H         LINE#         175
  C:2B6FH         LINE#         177
  C:2B72H         LINE#         179
  C:2B72H         LINE#         181
  C:2B80H         LINE#         182
  C:2B86H         LINE#         183
  C:2B89H         LINE#         184
  C:2B8FH         LINE#         186
  C:2B92H         LINE#         188
  C:2B92H         LINE#         190
  C:2BA0H         LINE#         191
  C:2BA6H         LINE#         192
  C:2BA9H         LINE#         193
  C:2BAFH         LINE#         195
  C:2BB2H         LINE#         197
  C:2BB2H         LINE#         199
  C:2BC0H         LINE#         200
  C:2BC6H         LINE#         201
  C:2BC9H         LINE#         202
  C:2BCFH         LINE#         204
  C:2BD2H         LINE#         206
  C:2BD2H         LINE#         208
  C:2BE0H         LINE#         209
  C:2BE6H         LINE#         210
  C:2BE9H         LINE#         211
  C:2BEFH         LINE#         213
  C:2BF2H         LINE#         215
  C:2BF2H         LINE#         217
  C:2C00H         LINE#         218
  C:2C06H         LINE#         219
  C:2C09H         LINE#         220
  C:2C0FH         LINE#         222
BL51 BANKED LINKER/LOCATER V6.22.2.0                                                  05/21/2020  14:05:12  PAGE 51


  C:2C12H         LINE#         224
  C:2C12H         LINE#         226
  C:2C20H         LINE#         227
  C:2C26H         LINE#         228
  C:2C29H         LINE#         229
  C:2C2FH         LINE#         231
  C:2C31H         LINE#         233
  C:2C31H         LINE#         235
  C:2C3FH         LINE#         236
  C:2C45H         LINE#         237
  C:2C48H         LINE#         238
  C:2C4EH         LINE#         240
  C:2C50H         LINE#         242
  C:2C50H         LINE#         244
  C:2C5EH         LINE#         245
  C:2C64H         LINE#         246
  C:2C67H         LINE#         247
  C:2C6DH         LINE#         249
  C:2C6FH         LINE#         251
  C:2C6FH         LINE#         253
  C:2C7DH         LINE#         254
  C:2C83H         LINE#         255
  C:2C86H         LINE#         256
  C:2C91H         LINE#         258
  C:2C91H         LINE#         260
  C:2C91H         LINE#         261
  C:2C93H         LINE#         263
  C:2C94H         LINE#         265
  C:2C94H         LINE#         266
  C:2C96H         LINE#         267
  C:2CE9H         LINE#         268
  C:2CE9H         LINE#         270
  C:2CE9H         LINE#         273
  C:2CEFH         LINE#         274
  C:2CF2H         LINE#         275
  C:2CF2H         LINE#         277
  C:2CF8H         LINE#         278
  C:2CFBH         LINE#         279
  C:2CFBH         LINE#         281
  C:2D01H         LINE#         282
  C:2D04H         LINE#         283
  C:2D04H         LINE#         285
  C:2D0AH         LINE#         287
  C:2D0DH         LINE#         288
  C:2D0DH         LINE#         290
  C:2D13H         LINE#         291
  C:2D16H         LINE#         292
  C:2D16H         LINE#         294
  C:2D1CH         LINE#         295
  C:2D1FH         LINE#         296
  C:2D1FH         LINE#         300
  C:2D1FH         LINE#         302
  C:2D25H         LINE#         303
  C:2D28H         LINE#         305
  C:2D28H         LINE#         307
  C:2D2EH         LINE#         308
  C:2D31H         LINE#         309
BL51 BANKED LINKER/LOCATER V6.22.2.0                                                  05/21/2020  14:05:12  PAGE 52


  C:2D31H         LINE#         311
  C:2D37H         LINE#         312
  C:2D39H         LINE#         313
  C:2D39H         LINE#         315
  C:2D3FH         LINE#         316
  C:2D41H         LINE#         317
  C:2D41H         LINE#         319
  C:2D47H         LINE#         320
  C:2D49H         LINE#         321
  C:2D49H         LINE#         323
  C:2D4FH         LINE#         324
  C:2D51H         LINE#         325
  C:2D51H         LINE#         327
  C:2D5AH         LINE#         328
  C:2D60H         LINE#         330
  C:2D62H         LINE#         331
  C:2D62H         LINE#         333
  C:2D68H         LINE#         334
  C:2D6AH         LINE#         335
  C:2D6AH         LINE#         337
  C:2D70H         LINE#         338
  C:2D72H         LINE#         339
  C:2D72H         LINE#         342
  C:2D78H         LINE#         343
  C:2D7AH         LINE#         344
  C:2D7AH         LINE#         346
  C:2D80H         LINE#         347
  C:2D82H         LINE#         349
  C:2D82H         LINE#         350
  C:2D88H         LINE#         351
  C:2D8AH         LINE#         352
  C:2D8AH         LINE#         353
  C:2D90H         LINE#         354
  C:2D92H         LINE#         355
  C:2D92H         LINE#         356
  C:2D98H         LINE#         357
  C:2D9AH         LINE#         358
  C:2D9AH         LINE#         359
  C:2DA0H         LINE#         360
  C:2DA2H         LINE#         361
  C:2DA2H         LINE#         362
  C:2DA8H         LINE#         363
  C:2DAAH         LINE#         364
  C:2DAAH         LINE#         365
  C:2DB3H         LINE#         366
  C:2DB3H         LINE#         367
  C:2DB3H         LINE#         368
  C:2DB5H         LINE#         369
  C:2DB5H         LINE#         373
  -------         ENDPROC       _PANTALLALCD
  -------         PROC          _PANTALLALCD_LINEA_2
  X:0031H         SYMBOL        cod_msg
  X:0032H         SYMBOL        buffer
  -------         DO            
  X:0035H         SYMBOL        Ini_LCD_Line_one
  X:003BH         SYMBOL        num_chr
  -------         ENDDO         
BL51 BANKED LINKER/LOCATER V6.22.2.0                                                  05/21/2020  14:05:12  PAGE 53


  C:6B4DH         LINE#         374
  C:6B5BH         LINE#         375
  C:6B5BH         LINE#         377
  C:6B6EH         LINE#         382
  C:6B70H         LINE#         388
  C:6B78H         LINE#         389
  C:6B78H         LINE#         391
  C:6B78H         LINE#         392
  C:6B83H         LINE#         393
  C:6B91H         LINE#         394
  C:6BA6H         LINE#         395
  C:6BACH         LINE#         396
  C:6BB2H         LINE#         397
  C:6BBDH         LINE#         398
  C:6BCDH         LINE#         403
  C:6BCDH         LINE#         406
  C:6BCDH         LINE#         407
  C:6BCFH         LINE#         408
  -------         ENDPROC       _PANTALLALCD_LINEA_2
  -------         ENDMOD        PANTALLAS

  -------         MODULE        PROG
  C:0000H         SYMBOL        _ICE_DUMMY_
  C:43A1H         PUBLIC        Prog_Sin_Cobro
  C:4D8EH         PUBLIC        Prog_debug
  C:517EH         PUBLIC        Prog_AntiPassBack
  C:6683H         PUBLIC        _GetOption
  X:0138H         PUBLIC        validacion
  X:0141H         PUBLIC        cursor
  C:7088H         PUBLIC        Show
  C:4F86H         PUBLIC        Prog_Comparacion_Activa
  C:5CFCH         PUBLIC        prog_id_cliente
  C:75AFH         PUBLIC        _ValidarClave
  C:3711H         PUBLIC        menu
  C:4E8AH         PUBLIC        Prog_Use_Lpr
  C:71C5H         PUBLIC        _ListaComandos
  C:1437H         SYMBOL        _?ix1000
  C:1442H         SYMBOL        _?ix1001
  C:1452H         SYMBOL        _?ix1002
  C:1462H         SYMBOL        _?ix1003
  C:1466H         SYMBOL        _?ix1004
  C:146AH         SYMBOL        _?ix1005
  C:5A04H         PUBLIC        Prog_tarjeta_automatica_o_boton
  C:38D3H         PUBLIC        _hash_id
  C:5B83H         PUBLIC        Prog_tiempo_gracia
  C:6CD9H         PUBLIC        _IngresaDato
  X:0155H         PUBLIC        comandos
  C:7BF0H         PUBLIC        DisplayCursor
  C:5AC6H         PUBLIC        prog_cod_park
  C:5082H         PUBLIC        tipo_pantalla
  C:7671H         PUBLIC        _GetCMD
  -------         PROC          _HASH_ID
  X:007EH         SYMBOL        clave
  -------         DO            
  X:0081H         SYMBOL        len_clave
  X:0082H         SYMBOL        i
  X:0134H         SYMBOL        temp
BL51 BANKED LINKER/LOCATER V6.22.2.0                                                  05/21/2020  14:05:12  PAGE 54


  X:0136H         SYMBOL        temp1
  X:0083H         SYMBOL        aleatorio
  X:008EH         SYMBOL        suma
  X:009EH         SYMBOL        xxor
  X:00AEH         SYMBOL        usuario1
  -------         ENDDO         
  C:38D3H         LINE#         65
  C:38DEH         LINE#         66
  C:38DEH         LINE#         69
  C:38F1H         LINE#         70
  C:3904H         LINE#         71
  C:3917H         LINE#         74
  C:392AH         LINE#         75
  C:393CH         LINE#         76
  C:393CH         LINE#         77
  C:3968H         LINE#         78
  C:3973H         LINE#         79
  C:3980H         LINE#         80
  C:399EH         LINE#         81
  C:39A9H         LINE#         82
  C:39B6H         LINE#         83
  C:39DAH         LINE#         84
  C:39E2H         LINE#         85
  C:39E2H         LINE#         86
  C:39E7H         LINE#         87
  C:39E7H         LINE#         88
  C:3A00H         LINE#         89
  C:3A00H         LINE#         90
  C:3A0CH         LINE#         92
  C:3A0CH         LINE#         93
  C:3A1BH         LINE#         94
  C:3A1BH         LINE#         95
  C:3A27H         LINE#         96
  C:3A27H         LINE#         97
  C:3A40H         LINE#         98
  C:3A40H         LINE#         99
  C:3A4BH         LINE#         100
  C:3A4BH         LINE#         101
  C:3A64H         LINE#         102
  C:3A64H         LINE#         103
  C:3A6FH         LINE#         104
  C:3A6FH         LINE#         105
  C:3A84H         LINE#         107
  C:3A8DH         LINE#         108
  C:3A93H         LINE#         109
  -------         ENDPROC       _HASH_ID
  -------         PROC          _LISTACOMANDOS
  X:007EH         SYMBOL        cmd
  -------         DO            
  X:0081H         SYMBOL        buf
  X:0084H         SYMBOL        i
  -------         ENDDO         
  C:71C5H         LINE#         116
  C:71D0H         LINE#         117
  C:71D0H         LINE#         121
  C:71E3H         LINE#         122
  C:71E3H         LINE#         123
BL51 BANKED LINKER/LOCATER V6.22.2.0                                                  05/21/2020  14:05:12  PAGE 55


  C:71FBH         LINE#         124
  C:7216H         LINE#         125
  C:721CH         LINE#         126
  C:7224H         LINE#         128
  C:7226H         LINE#         129
  -------         ENDPROC       _LISTACOMANDOS
  -------         PROC          L?0144
  -------         ENDPROC       L?0144
  -------         PROC          _VALIDARCLAVE
  X:007EH         SYMBOL        buffer
  -------         DO            
  X:0081H         SYMBOL        buf
  -------         ENDDO         
  C:75AFH         LINE#         135
  C:75BAH         LINE#         136
  C:75BAH         LINE#         139
  C:75C9H         LINE#         140
  C:75E4H         LINE#         141
  C:75E6H         LINE#         144
  C:75E8H         LINE#         145
  -------         ENDPROC       _VALIDARCLAVE
  C:766BH         SYMBOL        L?0143
  -------         PROC          L?0142
  -------         ENDPROC       L?0142
  C:766BH         SYMBOL        L?0143
  -------         PROC          _GETCMD
  X:007EH         SYMBOL        in
  -------         DO            
  X:0081H         SYMBOL        tokens
  -------         ENDDO         
  C:7671H         LINE#         152
  C:767CH         LINE#         153
  C:767CH         LINE#         154
  C:768FH         LINE#         155
  -------         ENDPROC       _GETCMD
  -------         PROC          L?0141
  -------         ENDPROC       L?0141
  -------         PROC          _GETOPTION
  X:007EH         SYMBOL        in
  -------         DO            
  X:0081H         SYMBOL        tokensSpace
  X:0085H         SYMBOL        tokensQuote
  -------         ENDDO         
  C:6683H         LINE#         161
  C:668EH         LINE#         162
  C:668EH         LINE#         163
  C:66A1H         LINE#         164
  C:66B4H         LINE#         167
  C:66C6H         LINE#         168
  C:66D2H         LINE#         171
  C:66D9H         LINE#         172
  C:66E6H         LINE#         174
  C:66FFH         LINE#         175
  -------         ENDPROC       _GETOPTION
  -------         PROC          DISPLAYCURSOR
  C:7BF0H         LINE#         180
  C:7BF0H         LINE#         181
BL51 BANKED LINKER/LOCATER V6.22.2.0                                                  05/21/2020  14:05:12  PAGE 56


  C:7BF0H         LINE#         182
  -------         ENDPROC       DISPLAYCURSOR
  C:6CD5H         SYMBOL        L?0140
  -------         PROC          L?0139
  -------         ENDPROC       L?0139
  C:6CD5H         SYMBOL        L?0140
  -------         PROC          _INGRESADATO
  X:008AH         SYMBOL        buffer
  X:008DH         SYMBOL        modo
  -------         DO            
  D:0006H         SYMBOL        i
  -------         ENDDO         
  C:6CD9H         LINE#         189
  C:6CE7H         LINE#         190
  C:6CE7H         LINE#         195
  C:6CE7H         LINE#         196
  C:6CF9H         LINE#         197
  C:6CFFH         LINE#         198
  C:6CFFH         LINE#         199
  C:6D1AH         LINE#         200
  C:6D1CH         LINE#         202
  C:6D1CH         LINE#         203
  C:6D21H         LINE#         204
  C:6D21H         LINE#         205
  C:6D32H         LINE#         206
  C:6D3CH         LINE#         207
  C:6D4BH         LINE#         209
  C:6D50H         LINE#         213
  -------         ENDPROC       _INGRESADATO
  -------         PROC          PROG_ID_CLIENTE
  -------         DO            
  X:007EH         SYMBOL        buffer
  X:0088H         SYMBOL        dataee
  -------         ENDDO         
  C:5CFCH         LINE#         230
  C:5CFCH         LINE#         231
  C:5CFCH         LINE#         235
  C:5D0EH         LINE#         236
  C:5D2BH         LINE#         238
  C:5D42H         LINE#         240
  C:5D4BH         LINE#         241
  C:5D52H         LINE#         242
  C:5D63H         LINE#         243
  C:5D6CH         LINE#         245
  C:5D7EH         LINE#         246
  C:5D9BH         LINE#         247
  -------         ENDPROC       PROG_ID_CLIENTE
  -------         PROC          PROG_COD_PARK
  -------         DO            
  X:007EH         SYMBOL        buffer
  X:0088H         SYMBOL        dataee
  -------         ENDDO         
  C:5AC6H         LINE#         252
  C:5AC6H         LINE#         253
  C:5AC6H         LINE#         257
  C:5AD9H         LINE#         258
  C:5AF6H         LINE#         260
BL51 BANKED LINKER/LOCATER V6.22.2.0                                                  05/21/2020  14:05:12  PAGE 57


  C:5B0DH         LINE#         262
  C:5B16H         LINE#         263
  C:5B21H         LINE#         264
  C:5B32H         LINE#         265
  C:5B3CH         LINE#         267
  C:5B4FH         LINE#         268
  C:5B6CH         LINE#         269
  -------         ENDPROC       PROG_COD_PARK
  -------         PROC          PROG_TIEMPO_GRACIA
  -------         DO            
  X:007EH         SYMBOL        buffer
  X:0088H         SYMBOL        dataee
  -------         ENDDO         
  C:5B83H         LINE#         274
  C:5B83H         LINE#         275
  C:5B83H         LINE#         279
  C:5B96H         LINE#         280
  C:5BB3H         LINE#         282
  C:5BCAH         LINE#         284
  C:5BD3H         LINE#         285
  C:5BDEH         LINE#         286
  C:5BEFH         LINE#         287
  C:5BF9H         LINE#         289
  C:5C0CH         LINE#         290
  C:5C29H         LINE#         291
  -------         ENDPROC       PROG_TIEMPO_GRACIA
  -------         PROC          PROG_SIN_COBRO
  -------         DO            
  X:007EH         SYMBOL        buffer
  X:0088H         SYMBOL        dataee
  -------         ENDDO         
  C:43A1H         LINE#         297
  C:43A1H         LINE#         298
  C:43A1H         LINE#         304
  C:43B4H         LINE#         305
  C:43D1H         LINE#         306
  C:43DBH         LINE#         307
  C:43DBH         LINE#         308
  C:43EEH         LINE#         309
  C:43F0H         LINE#         310
  C:43FCH         LINE#         311
  C:43FCH         LINE#         312
  C:440FH         LINE#         313
  C:4411H         LINE#         315
  C:4411H         LINE#         316
  C:4428H         LINE#         317
  C:4428H         LINE#         319
  C:4431H         LINE#         320
  C:443CH         LINE#         321
  C:444DH         LINE#         322
  C:4457H         LINE#         324
  C:446AH         LINE#         325
  C:4487H         LINE#         326
  C:4491H         LINE#         327
  C:4491H         LINE#         328
  C:44A4H         LINE#         329
  C:44A6H         LINE#         330
BL51 BANKED LINKER/LOCATER V6.22.2.0                                                  05/21/2020  14:05:12  PAGE 58


  C:44B2H         LINE#         331
  C:44B2H         LINE#         332
  C:44C5H         LINE#         333
  C:44C7H         LINE#         335
  C:44C7H         LINE#         336
  C:44DEH         LINE#         337
  C:44DEH         LINE#         339
  -------         ENDPROC       PROG_SIN_COBRO
  -------         PROC          PROG_DEBUG
  -------         DO            
  X:007EH         SYMBOL        buffer
  X:0088H         SYMBOL        dataee
  -------         ENDDO         
  C:4D8EH         LINE#         345
  C:4D8EH         LINE#         346
  C:4D8EH         LINE#         351
  C:4DA1H         LINE#         352
  C:4DBEH         LINE#         353
  C:4DC8H         LINE#         354
  C:4DC8H         LINE#         355
  C:4DDBH         LINE#         356
  C:4DDDH         LINE#         358
  C:4DDDH         LINE#         359
  C:4DF4H         LINE#         360
  C:4DF4H         LINE#         362
  C:4DFDH         LINE#         363
  C:4E08H         LINE#         364
  C:4E19H         LINE#         365
  C:4E23H         LINE#         367
  C:4E36H         LINE#         368
  C:4E53H         LINE#         369
  C:4E5DH         LINE#         370
  C:4E5DH         LINE#         371
  C:4E70H         LINE#         372
  C:4E72H         LINE#         374
  C:4E72H         LINE#         375
  C:4E89H         LINE#         376
  C:4E89H         LINE#         377
  -------         ENDPROC       PROG_DEBUG
  -------         PROC          PROG_USE_LPR
  -------         DO            
  X:007EH         SYMBOL        buffer
  X:0088H         SYMBOL        dataee
  -------         ENDDO         
  C:4E8AH         LINE#         382
  C:4E8AH         LINE#         383
  C:4E8AH         LINE#         388
  C:4E9DH         LINE#         389
  C:4EBAH         LINE#         390
  C:4EC4H         LINE#         391
  C:4EC4H         LINE#         392
  C:4ED7H         LINE#         393
  C:4ED9H         LINE#         395
  C:4ED9H         LINE#         396
  C:4EF0H         LINE#         397
  C:4EF0H         LINE#         399
  C:4EF9H         LINE#         400
BL51 BANKED LINKER/LOCATER V6.22.2.0                                                  05/21/2020  14:05:12  PAGE 59


  C:4F04H         LINE#         401
  C:4F15H         LINE#         402
  C:4F1FH         LINE#         404
  C:4F32H         LINE#         405
  C:4F4FH         LINE#         406
  C:4F59H         LINE#         407
  C:4F59H         LINE#         408
  C:4F6CH         LINE#         409
  C:4F6EH         LINE#         411
  C:4F6EH         LINE#         412
  C:4F85H         LINE#         413
  C:4F85H         LINE#         414
  -------         ENDPROC       PROG_USE_LPR
  -------         PROC          PROG_COMPARACION_ACTIVA
  -------         DO            
  X:007EH         SYMBOL        buffer
  X:0088H         SYMBOL        dataee
  -------         ENDDO         
  C:4F86H         LINE#         418
  C:4F86H         LINE#         419
  C:4F86H         LINE#         424
  C:4F99H         LINE#         425
  C:4FB6H         LINE#         426
  C:4FC0H         LINE#         427
  C:4FC0H         LINE#         428
  C:4FD3H         LINE#         429
  C:4FD5H         LINE#         431
  C:4FD5H         LINE#         432
  C:4FECH         LINE#         433
  C:4FECH         LINE#         435
  C:4FF5H         LINE#         436
  C:5000H         LINE#         437
  C:5011H         LINE#         438
  C:501BH         LINE#         440
  C:502EH         LINE#         441
  C:504BH         LINE#         442
  C:5055H         LINE#         443
  C:5055H         LINE#         444
  C:5068H         LINE#         445
  C:506AH         LINE#         447
  C:506AH         LINE#         448
  C:5081H         LINE#         449
  C:5081H         LINE#         450
  -------         ENDPROC       PROG_COMPARACION_ACTIVA
  -------         PROC          TIPO_PANTALLA
  -------         DO            
  X:007EH         SYMBOL        buffer
  X:0088H         SYMBOL        dataee
  -------         ENDDO         
  C:5082H         LINE#         456
  C:5082H         LINE#         457
  C:5082H         LINE#         462
  C:5095H         LINE#         463
  C:50B2H         LINE#         464
  C:50BCH         LINE#         465
  C:50BCH         LINE#         466
  C:50CFH         LINE#         467
BL51 BANKED LINKER/LOCATER V6.22.2.0                                                  05/21/2020  14:05:12  PAGE 60


  C:50D1H         LINE#         469
  C:50D1H         LINE#         470
  C:50E8H         LINE#         471
  C:50E8H         LINE#         473
  C:50F1H         LINE#         474
  C:50FCH         LINE#         475
  C:510DH         LINE#         476
  C:5117H         LINE#         478
  C:512AH         LINE#         479
  C:5147H         LINE#         480
  C:5151H         LINE#         481
  C:5151H         LINE#         482
  C:5164H         LINE#         483
  C:5166H         LINE#         485
  C:5166H         LINE#         486
  C:517DH         LINE#         487
  C:517DH         LINE#         489
  -------         ENDPROC       TIPO_PANTALLA
  -------         PROC          PROG_TARJETA_AUTOMATICA_O_BOTON
  -------         DO            
  X:007EH         SYMBOL        buffer
  X:0088H         SYMBOL        dataee
  -------         ENDDO         
  C:5A04H         LINE#         490
  C:5A04H         LINE#         491
  C:5A04H         LINE#         496
  C:5A17H         LINE#         497
  C:5A34H         LINE#         498
  C:5A40H         LINE#         499
  C:5A40H         LINE#         500
  C:5A44H         LINE#         501
  C:5A46H         LINE#         503
  C:5A46H         LINE#         504
  C:5A4DH         LINE#         505
  C:5A4DH         LINE#         507
  C:5A56H         LINE#         508
  C:5A61H         LINE#         509
  C:5A72H         LINE#         510
  C:5A7CH         LINE#         512
  C:5A8FH         LINE#         513
  C:5AACH         LINE#         514
  C:5AB8H         LINE#         515
  C:5AB8H         LINE#         516
  C:5ABCH         LINE#         517
  C:5ABEH         LINE#         519
  C:5ABEH         LINE#         520
  C:5AC5H         LINE#         521
  C:5AC5H         LINE#         522
  -------         ENDPROC       PROG_TARJETA_AUTOMATICA_O_BOTON
  -------         PROC          PROG_ANTIPASSBACK
  -------         DO            
  X:007EH         SYMBOL        buffer
  X:0088H         SYMBOL        dataee
  -------         ENDDO         
  C:517EH         LINE#         523
  C:517EH         LINE#         524
  C:517EH         LINE#         529
BL51 BANKED LINKER/LOCATER V6.22.2.0                                                  05/21/2020  14:05:12  PAGE 61


  C:5191H         LINE#         530
  C:51AEH         LINE#         531
  C:51B8H         LINE#         532
  C:51B8H         LINE#         533
  C:51CBH         LINE#         534
  C:51CDH         LINE#         536
  C:51CDH         LINE#         537
  C:51E4H         LINE#         538
  C:51E4H         LINE#         540
  C:51EDH         LINE#         541
  C:51F8H         LINE#         542
  C:5209H         LINE#         543
  C:5213H         LINE#         545
  C:5226H         LINE#         546
  C:5243H         LINE#         547
  C:524DH         LINE#         548
  C:524DH         LINE#         549
  C:5260H         LINE#         550
  C:5262H         LINE#         552
  C:5262H         LINE#         553
  C:5279H         LINE#         554
  C:5279H         LINE#         555
  -------         ENDPROC       PROG_ANTIPASSBACK
  -------         PROC          SHOW
  C:7088H         LINE#         560
  C:7088H         LINE#         561
  C:7088H         LINE#         562
  C:7091H         LINE#         563
  C:709AH         LINE#         564
  C:70A3H         LINE#         565
  C:70ACH         LINE#         566
  C:70B5H         LINE#         567
  C:70BEH         LINE#         568
  C:70C7H         LINE#         569
  C:70D0H         LINE#         570
  C:70D9H         LINE#         571
  C:70E2H         LINE#         572
  C:70EBH         LINE#         573
  -------         ENDPROC       SHOW
  -------         PROC          MENU
  -------         DO            
  X:0022H         SYMBOL        cmd
  X:0025H         SYMBOL        option1
  X:0028H         SYMBOL        option2
  X:002BH         SYMBOL        usuario
  X:002EH         SYMBOL        opt_buffer
  X:0056H         SYMBOL        buffer
  -------         ENDDO         
  C:3711H         LINE#         581
  C:3711H         LINE#         582
  C:3711H         LINE#         591
  C:371AH         LINE#         596
  C:371AH         LINE#         597
  C:3723H         LINE#         600
  C:3726H         LINE#         601
  C:3734H         LINE#         602
  C:3748H         LINE#         603
BL51 BANKED LINKER/LOCATER V6.22.2.0                                                  05/21/2020  14:05:12  PAGE 62


  C:374EH         LINE#         606
  C:374EH         LINE#         607
  C:3757H         LINE#         609
  C:3762H         LINE#         610
  C:3770H         LINE#         611
  C:377FH         LINE#         614
  C:3785H         LINE#         617
  C:3788H         LINE#         618
  C:3788H         LINE#         619
  C:3788H         LINE#         620
  C:378BH         LINE#         623
  C:378EH         LINE#         624
  C:379CH         LINE#         625
  C:37B0H         LINE#         626
  C:37C4H         LINE#         631
  C:37DAH         LINE#         632
  C:37DAH         LINE#         634
  C:37E9H         LINE#         635
  C:37EBH         LINE#         636
  C:37FBH         LINE#         637
  C:37FBH         LINE#         639
  C:380AH         LINE#         640
  C:3828H         LINE#         641
  C:3828H         LINE#         647
  C:383BH         LINE#         648
  C:383BH         LINE#         649
  C:386FH         LINE#         650
  C:386FH         LINE#         651
  C:386FH         LINE#         652
  C:3872H         LINE#         654
  C:3875H         LINE#         656
  C:3875H         LINE#         657
  C:3878H         LINE#         658
  C:387BH         LINE#         660
  C:387BH         LINE#         662
  C:387EH         LINE#         664
  C:3881H         LINE#         666
  C:3881H         LINE#         667
  C:3884H         LINE#         669
  C:3887H         LINE#         671
  C:3887H         LINE#         672
  C:388AH         LINE#         673
  C:388DH         LINE#         674
  C:388DH         LINE#         675
  C:3890H         LINE#         676
  C:3893H         LINE#         677
  C:3893H         LINE#         678
  C:3896H         LINE#         680
  C:3899H         LINE#         681
  C:3899H         LINE#         682
  C:389CH         LINE#         683
  C:389FH         LINE#         684
  C:389FH         LINE#         685
  C:38A2H         LINE#         686
  C:38A5H         LINE#         687
  C:38A5H         LINE#         689
  C:38A8H         LINE#         690
BL51 BANKED LINKER/LOCATER V6.22.2.0                                                  05/21/2020  14:05:12  PAGE 63


  C:38ABH         LINE#         691
  C:38ABH         LINE#         693
  C:38AEH         LINE#         694
  C:38B1H         LINE#         695
  C:38B1H         LINE#         698
  C:38B1H         LINE#         702
  C:38B1H         LINE#         703
  C:38CFH         LINE#         704
  C:38D2H         LINE#         705
  C:38D2H         LINE#         706
  C:38D2H         LINE#         707
  C:38D2H         LINE#         708
  -------         ENDPROC       MENU
  -------         ENDMOD        PROG

  -------         MODULE        PTO_PARALELO
  C:0000H         SYMBOL        _ICE_DUMMY_
  D:0080H         PUBLIC        P0
  D:00A0H         PUBLIC        P2
  D:00B0H         PUBLIC        P3
  B:0080H.2       PUBLIC        led_err_imp
  C:4973H         PUBLIC        load_and_send_id_cod
  C:6390H         PUBLIC        _recibe_port
  B:00B0H.2       PUBLIC        ready
  B:0080H.6       PUBLIC        rx_in_data
  C:7C7CH         PUBLIC        Pulso_Bus
  C:6934H         PUBLIC        _send_portERR
  B:00B0H.3       PUBLIC        busy
  C:7992H         PUBLIC        load_and_send_info_reloj
  C:5E67H         PUBLIC        _send_port
  B:00B0H.4       PUBLIC        port_clk
  C:2837H         PUBLIC        _Trama_pto_Paralelo_new
  C:4C8FH         PUBLIC        _Trama_pto_Paralelo_P
  C:7CEDH         PUBLIC        cond_ini_pto
  -------         PROC          _RECIBE_PORT
  X:0022H         SYMBOL        buffer_port
  -------         DO            
  D:0006H         SYMBOL        count
  X:0025H         SYMBOL        time_out
  X:0026H         SYMBOL        num_data
  X:0027H         SYMBOL        T_ANCHO
  X:0029H         SYMBOL        data_temp
  -------         ENDDO         
  C:6390H         LINE#         45
  C:639BH         LINE#         46
  C:639BH         LINE#         50
  C:63A4H         LINE#         51
  C:63A7H         LINE#         54
  C:63AAH         LINE#         55
  C:63AAH         LINE#         57
  C:63ADH         LINE#         58
  C:63B2H         LINE#         59
  C:63B4H         LINE#         60
  C:63B8H         LINE#         61
  C:63BAH         LINE#         64
  C:63BFH         LINE#         65
  C:63C8H         LINE#         66
BL51 BANKED LINKER/LOCATER V6.22.2.0                                                  05/21/2020  14:05:12  PAGE 64


  C:63C8H         LINE#         67
  C:63CBH         LINE#         68
  C:63CBH         LINE#         70
  C:63D0H         LINE#         71
  C:63D4H         LINE#         72
  C:63D4H         LINE#         73
  C:63D6H         LINE#         74
  C:63D8H         LINE#         75
  C:63D8H         LINE#         76
  C:63D8H         LINE#         78
  C:63D8H         LINE#         79
  C:63E5H         LINE#         80
  C:63E5H         LINE#         82
  C:63E8H         LINE#         83
  C:63E8H         LINE#         85
  C:63EEH         LINE#         87
  C:63F0H         LINE#         88
  C:6404H         LINE#         89
  C:640EH         LINE#         90
  C:6414H         LINE#         91
  C:641AH         LINE#         92
  C:641CH         LINE#         93
  C:641CH         LINE#         94
  C:641CH         LINE#         95
  C:641CH         LINE#         98
  C:641EH         LINE#         99
  C:6420H         LINE#         100
  C:6420H         LINE#         101
  C:6423H         LINE#         103
  C:6428H         LINE#         104
  -------         ENDPROC       _RECIBE_PORT
  -------         PROC          _SEND_PORT
  X:0034H         SYMBOL        buffer_port
  X:0037H         SYMBOL        length_char
  -------         DO            
  X:0038H         SYMBOL        cont
  X:003CH         SYMBOL        timeOut
  X:003DH         SYMBOL        length
  -------         ENDDO         
  C:5E67H         LINE#         111
  C:5E75H         LINE#         112
  C:5E75H         LINE#         117
  C:5E79H         LINE#         119
  C:5E7BH         LINE#         120
  C:5E7DH         LINE#         121
  C:5E7FH         LINE#         122
  C:5E84H         LINE#         123
  C:5E86H         LINE#         124
  C:5E90H         LINE#         126
  C:5E99H         LINE#         127
  C:5E99H         LINE#         128
  C:5E9BH         LINE#         129
  C:5E9DH         LINE#         130
  C:5EC1H         LINE#         131
  C:5ED5H         LINE#         132
  C:5ED5H         LINE#         133
  C:5ED8H         LINE#         134
BL51 BANKED LINKER/LOCATER V6.22.2.0                                                  05/21/2020  14:05:12  PAGE 65


  C:5EDAH         LINE#         135
  C:5EDAH         LINE#         136
  C:5EDCH         LINE#         137
  C:5EE5H         LINE#         138
  C:5EE5H         LINE#         142
  C:5EE5H         LINE#         144
  C:5EF5H         LINE#         145
  C:5EF8H         LINE#         146
  C:5F02H         LINE#         148
  C:5F08H         LINE#         149
  C:5F0BH         LINE#         151
  C:5F0BH         LINE#         152
  C:5F0EH         LINE#         153
  C:5F10H         LINE#         154
  C:5F12H         LINE#         155
  C:5F14H         LINE#         156
  -------         ENDPROC       _SEND_PORT
  -------         PROC          _TRAMA_PTO_PARALELO_P
  D:0001H         SYMBOL        buffer_S1_B0
  X:0251H         SYMBOL        buffer_S1_B2
  X:0254H         SYMBOL        cmd
  -------         DO            
  X:0217H         SYMBOL        Buffer_port
  X:0255H         SYMBOL        j
  -------         ENDDO         
  C:4C8FH         LINE#         224
  C:4C8FH         LINE#         225
  C:4C8FH         LINE#         228
  C:4C95H         LINE#         229
  C:4C9AH         LINE#         230
  C:4CA2H         LINE#         231
  C:4CA6H         LINE#         233
  C:4CA6H         LINE#         234
  C:4CBDH         LINE#         235
  C:4CC4H         LINE#         236
  C:4CC9H         LINE#         237
  C:4CD3H         LINE#         238
  C:4CE6H         LINE#         240
  C:4CE6H         LINE#         241
  C:4CFAH         LINE#         242
  C:4D16H         LINE#         243
  C:4D16H         LINE#         256
  C:4D2AH         LINE#         259
  C:4D40H         LINE#         260
  C:4D40H         LINE#         261
  C:4D51H         LINE#         262
  C:4D53H         LINE#         264
  C:4D53H         LINE#         265
  C:4D64H         LINE#         266
  C:4D64H         LINE#         269
  C:4D66H         LINE#         271
  C:4D74H         LINE#         272
  C:4D77H         LINE#         274
  C:4D8BH         LINE#         275
  -------         ENDPROC       _TRAMA_PTO_PARALELO_P
  -------         PROC          _TRAMA_PTO_PARALELO_NEW
  D:0001H         SYMBOL        buffer_S1_B0
BL51 BANKED LINKER/LOCATER V6.22.2.0                                                  05/21/2020  14:05:12  PAGE 66


  X:01B0H         SYMBOL        buffer_S1_B2
  X:01B3H         SYMBOL        cmd
  -------         DO            
  X:01B4H         SYMBOL        Buffer_port
  X:01D2H         SYMBOL        j
  -------         ENDDO         
  C:2837H         LINE#         349
  C:2837H         LINE#         350
  C:2837H         LINE#         352
  C:283DH         LINE#         354
  C:2841H         LINE#         355
  C:2849H         LINE#         358
  C:2849H         LINE#         359
  C:2860H         LINE#         360
  C:2867H         LINE#         361
  C:286CH         LINE#         363
  C:2882H         LINE#         365
  C:2882H         LINE#         366
  C:2893H         LINE#         367
  C:28AFH         LINE#         368
  C:28B1H         LINE#         370
  C:28B1H         LINE#         371
  C:28C2H         LINE#         372
  C:28D6H         LINE#         373
  C:28D6H         LINE#         375
  C:28F0H         LINE#         376
  C:28F0H         LINE#         377
  C:28F3H         LINE#         378
  C:28F5H         LINE#         380
  C:28F5H         LINE#         381
  C:28F8H         LINE#         382
  C:28F8H         LINE#         384
  C:290CH         LINE#         385
  C:2925H         LINE#         386
  C:2941H         LINE#         387
  C:295DH         LINE#         388
  C:2979H         LINE#         389
  C:2995H         LINE#         390
  C:29A9H         LINE#         392
  C:29B9H         LINE#         394
  C:29DDH         LINE#         395
  C:2A01H         LINE#         396
  C:2A25H         LINE#         397
  C:2A49H         LINE#         398
  C:2A6DH         LINE#         402
  C:2A81H         LINE#         405
  C:2A97H         LINE#         406
  C:2A97H         LINE#         407
  C:2AA8H         LINE#         408
  C:2AAAH         LINE#         410
  C:2AAAH         LINE#         411
  C:2ABBH         LINE#         412
  C:2ABBH         LINE#         413
  C:2ACFH         LINE#         416
  C:2AD1H         LINE#         417
  C:2AD4H         LINE#         418
  C:2AE2H         LINE#         420
BL51 BANKED LINKER/LOCATER V6.22.2.0                                                  05/21/2020  14:05:12  PAGE 67


  C:2AE5H         LINE#         422
  C:2AF9H         LINE#         423
  -------         ENDPROC       _TRAMA_PTO_PARALELO_NEW
  -------         PROC          PULSO_BUS
  C:7C7CH         LINE#         431
  C:7C7CH         LINE#         432
  C:7C7CH         LINE#         433
  C:7C7EH         LINE#         434
  C:7C85H         LINE#         435
  C:7C87H         LINE#         436
  -------         ENDPROC       PULSO_BUS
  -------         PROC          _SEND_PORTERR
  X:0038H         SYMBOL        cod_err
  -------         DO            
  X:0039H         SYMBOL        timeOut
  X:003AH         SYMBOL        cont
  -------         ENDDO         
  C:6934H         LINE#         441
  C:693AH         LINE#         442
  C:693AH         LINE#         446
  C:693CH         LINE#         447
  C:693EH         LINE#         448
  C:6941H         LINE#         449
  C:6949H         LINE#         451
  C:694BH         LINE#         452
  C:694DH         LINE#         453
  C:6956H         LINE#         454
  C:6956H         LINE#         455
  C:6978H         LINE#         456
  C:698CH         LINE#         457
  C:698CH         LINE#         458
  C:6991H         LINE#         459
  C:6991H         LINE#         460
  C:6993H         LINE#         461
  C:699CH         LINE#         462
  C:699CH         LINE#         463
  C:69A2H         LINE#         464
  C:69A5H         LINE#         465
  C:69A5H         LINE#         466
  C:69A7H         LINE#         467
  C:69A9H         LINE#         468
  C:69ABH         LINE#         470
  C:69AEH         LINE#         472
  C:69B5H         LINE#         473
  -------         ENDPROC       _SEND_PORTERR
  -------         PROC          COND_INI_PTO
  C:7CEDH         LINE#         479
  C:7CEDH         LINE#         480
  C:7CEDH         LINE#         482
  C:7CEFH         LINE#         483
  C:7CF1H         LINE#         484
  C:7CF3H         LINE#         485
  C:7CF6H         LINE#         486
  -------         ENDPROC       COND_INI_PTO
  -------         PROC          LOAD_AND_SEND_INFO_RELOJ
  -------         DO            
  X:0023H         SYMBOL        buffer_info
BL51 BANKED LINKER/LOCATER V6.22.2.0                                                  05/21/2020  14:05:12  PAGE 68


  -------         ENDDO         
  C:7992H         LINE#         491
  C:7992H         LINE#         492
  C:7992H         LINE#         495
  C:7998H         LINE#         497
  C:799CH         LINE#         499
  C:79A5H         LINE#         500
  C:79AFH         LINE#         501
  C:79B3H         LINE#         505
  -------         ENDPROC       LOAD_AND_SEND_INFO_RELOJ
  -------         PROC          LOAD_AND_SEND_ID_COD
  -------         DO            
  X:0023H         SYMBOL        buffer_info
  X:002EH         SYMBOL        buf
  X:0032H         SYMBOL        i
  X:0033H         SYMBOL        k
  -------         ENDDO         
  C:4973H         LINE#         512
  C:4973H         LINE#         513
  C:4973H         LINE#         517
  C:4978H         LINE#         519
  C:497EH         LINE#         520
  C:4982H         LINE#         521
  C:49A8H         LINE#         522
  C:49AEH         LINE#         523
  C:49AEH         LINE#         524
  C:49BFH         LINE#         525
  C:49BFH         LINE#         526
  C:49CEH         LINE#         527
  C:49D4H         LINE#         528
  C:49D6H         LINE#         529
  C:49EEH         LINE#         531
  C:49F6H         LINE#         534
  C:4A1CH         LINE#         536
  C:4A21H         LINE#         537
  C:4A21H         LINE#         538
  C:4A32H         LINE#         539
  C:4A32H         LINE#         540
  C:4A41H         LINE#         541
  C:4A47H         LINE#         542
  C:4A61H         LINE#         543
  C:4A69H         LINE#         546
  C:4A7AH         LINE#         547
  -------         ENDPROC       LOAD_AND_SEND_ID_COD
  -------         ENDMOD        PTO_PARALELO

  -------         MODULE        TIBBO
  C:0000H         SYMBOL        _ICE_DUMMY_
  C:7518H         PUBLIC        _Debug_HexDec
  C:73C1H         PUBLIC        _Debug_txt_Tibbo
  D:0080H         PUBLIC        P0
  D:0090H         PUBLIC        P1
  C:6117H         PUBLIC        _Debug_Fecha_actual
  B:0090H.0       PUBLIC        txd2
  B:00A8H.7       PUBLIC        EA
  C:736EH         PUBLIC        _tx_aux
  B:0080H.0       PUBLIC        rx_ip
BL51 BANKED LINKER/LOCATER V6.22.2.0                                                  05/21/2020  14:05:12  PAGE 69


  C:7C29H         PUBLIC        Debug_Dividir_texto
  C:7D48H         PUBLIC        cond_ini_tibbo
  C:7C07H         PUBLIC        time_mbit
  C:69BCH         PUBLIC        rx_Data
  C:7B9EH         PUBLIC        time_bit
  C:77DCH         PUBLIC        _Debug_pto_paralelo
  C:7960H         PUBLIC        _Debug_monitor
  C:6EC1H         PUBLIC        _DebugBufferMF
  C:73FFH         PUBLIC        _Debug_chr_Tibbo
  C:7B98H         SYMBOL        L?0067
  -------         PROC          L?0066
  -------         ENDPROC       L?0066
  C:7B98H         SYMBOL        L?0067
  -------         PROC          TIME_BIT
  -------         DO            
  D:0007H         SYMBOL        j
  -------         ENDDO         
  C:7B9EH         LINE#         18
  C:7B9EH         LINE#         19
  C:7B9EH         LINE#         22
  C:7BAAH         LINE#         23
  C:7BAAH         LINE#         24
  C:7BABH         LINE#         25
  C:7BACH         LINE#         26
  C:7BADH         LINE#         27
  C:7BAEH         LINE#         28
  C:7BAFH         LINE#         29
  C:7BB0H         LINE#         30
  C:7BB1H         LINE#         31
  C:7BB2H         LINE#         32
  C:7BB3H         LINE#         37
  C:7BB6H         LINE#         38
  -------         ENDPROC       TIME_BIT
  -------         PROC          TIME_MBIT
  -------         DO            
  D:0007H         SYMBOL        j
  -------         ENDDO         
  C:7C07H         LINE#         41
  C:7C07H         LINE#         42
  C:7C07H         LINE#         44
  C:7C13H         LINE#         45
  C:7C13H         LINE#         46
  C:7C14H         LINE#         47
  C:7C15H         LINE#         48
  C:7C16H         LINE#         49
  C:7C17H         LINE#         50
  C:7C18H         LINE#         51
  C:7C19H         LINE#         52
  C:7C1AH         LINE#         53
  C:7C1DH         LINE#         55
  -------         ENDPROC       TIME_MBIT
  -------         PROC          L?0071
  -------         ENDPROC       L?0071
  -------         PROC          _TX_AUX
  D:0006H         SYMBOL        caracter
  -------         DO            
  D:0004H         SYMBOL        j
BL51 BANKED LINKER/LOCATER V6.22.2.0                                                  05/21/2020  14:05:12  PAGE 70


  D:0005H         SYMBOL        temporal
  D:0006H         SYMBOL        bitTX
  -------         ENDDO         
  C:736EH         LINE#         60
  C:7370H         LINE#         61
  C:7370H         LINE#         64
  C:7372H         LINE#         65
  C:7374H         LINE#         66
  C:7377H         LINE#         67
  C:7378H         LINE#         68
  C:7379H         LINE#         69
  C:737BH         LINE#         70
  C:737FH         LINE#         71
  C:7381H         LINE#         72
  C:7381H         LINE#         73
  C:7383H         LINE#         74
  C:7385H         LINE#         76
  C:7385H         LINE#         77
  C:7387H         LINE#         78
  C:7387H         LINE#         79
  C:738AH         LINE#         80
  C:7396H         LINE#         81
  C:7396H         LINE#         82
  C:739AH         LINE#         83
  C:739DH         LINE#         84
  C:739FH         LINE#         85
  C:739FH         LINE#         86
  C:73A1H         LINE#         87
  C:73A3H         LINE#         89
  C:73A3H         LINE#         90
  C:73A5H         LINE#         91
  C:73A5H         LINE#         92
  C:73A8H         LINE#         93
  C:73ABH         LINE#         94
  C:73ADH         LINE#         95
  C:73B0H         LINE#         96
  C:73B3H         LINE#         98
  C:73B5H         LINE#         99
  -------         ENDPROC       _TX_AUX
  -------         PROC          _DEBUG_HEXDEC
  D:0007H         SYMBOL        xfc
  -------         DO            
  X:0038H         SYMBOL        valor
  D:0006H         SYMBOL        centena
  D:0003H         SYMBOL        decena
  D:0002H         SYMBOL        unidad
  -------         ENDDO         
  C:7518H         LINE#         102
  C:7518H         LINE#         103
  C:7518H         LINE#         106
  C:751FH         LINE#         108
  C:7520H         LINE#         109
  C:7521H         LINE#         110
  C:7522H         LINE#         111
  C:752AH         LINE#         112
  C:752AH         LINE#         113
  C:7534H         LINE#         114
BL51 BANKED LINKER/LOCATER V6.22.2.0                                                  05/21/2020  14:05:12  PAGE 71


  C:7534H         LINE#         115
  C:7538H         LINE#         116
  C:7539H         LINE#         117
  C:753BH         LINE#         118
  C:7545H         LINE#         119
  C:7545H         LINE#         120
  C:7549H         LINE#         121
  C:754AH         LINE#         122
  C:754CH         LINE#         123
  C:754EH         LINE#         124
  C:7552H         LINE#         125
  C:7556H         LINE#         126
  C:755DH         LINE#         128
  C:755DH         LINE#         129
  -------         ENDPROC       _DEBUG_HEXDEC
  -------         PROC          _DEBUG_CHR_TIBBO
  D:0003H         SYMBOL        Dat
  -------         DO            
  D:0007H         SYMBOL        temp
  -------         ENDDO         
  C:73FFH         LINE#         134
  C:7401H         LINE#         135
  C:7401H         LINE#         137
  C:7409H         LINE#         138
  C:7409H         LINE#         139
  C:7410H         LINE#         140
  C:7423H         LINE#         142
  C:7426H         LINE#         144
  C:742AH         LINE#         145
  C:743DH         LINE#         146
  C:7440H         LINE#         147
  C:7445H         LINE#         149
  C:7445H         LINE#         150
  -------         ENDPROC       _DEBUG_CHR_TIBBO
  -------         PROC          _DEBUGBUFFERMF
  X:0048H         SYMBOL        str
  X:004BH         SYMBOL        num_char
  X:004CH         SYMBOL        io
  -------         DO            
  X:004DH         SYMBOL        j
  -------         ENDDO         
  C:6EC1H         LINE#         157
  C:6ECFH         LINE#         158
  C:6ECFH         LINE#         162
  C:6ED7H         LINE#         163
  C:6ED7H         LINE#         164
  C:6EE6H         LINE#         165
  C:6EE6H         LINE#         166
  C:6EEAH         LINE#         167
  C:6EF3H         LINE#         168
  C:6F05H         LINE#         169
  C:6F05H         LINE#         170
  C:6F17H         LINE#         171
  C:6F21H         LINE#         172
  C:6F29H         LINE#         173
  C:6F2EH         LINE#         174
  C:6F33H         LINE#         175
BL51 BANKED LINKER/LOCATER V6.22.2.0                                                  05/21/2020  14:05:12  PAGE 72


  C:6F33H         LINE#         177
  -------         ENDPROC       _DEBUGBUFFERMF
  C:73BBH         SYMBOL        L?0069
  -------         PROC          L?0068
  -------         ENDPROC       L?0068
  C:73BBH         SYMBOL        L?0069
  -------         PROC          _DEBUG_TXT_TIBBO
  X:004EH         SYMBOL        str
  -------         DO            
  X:0051H         SYMBOL        i
  -------         ENDDO         
  C:73C1H         LINE#         182
  C:73CCH         LINE#         183
  C:73CCH         LINE#         185
  C:73CFH         LINE#         187
  C:73D7H         LINE#         188
  C:73D7H         LINE#         189
  C:73F3H         LINE#         190
  C:73F3H         LINE#         191
  C:73F6H         LINE#         192
  C:73FEH         LINE#         194
  C:73FEH         LINE#         195
  -------         ENDPROC       _DEBUG_TXT_TIBBO
  -------         PROC          L?0070
  -------         ENDPROC       L?0070
  -------         PROC          DEBUG_DIVIDIR_TEXTO
  C:7C29H         LINE#         197
  C:7C29H         LINE#         198
  C:7C29H         LINE#         199
  -------         ENDPROC       DEBUG_DIVIDIR_TEXTO
  -------         PROC          RX_DATA
  -------         DO            
  D:0006H         SYMBOL        temporal
  -------         ENDDO         
  C:69BCH         LINE#         205
  C:69BCH         LINE#         206
  C:69BCH         LINE#         209
  C:69BEH         LINE#         210
  C:69C1H         LINE#         212
  C:69C4H         LINE#         214
  C:69D0H         LINE#         215
  C:69D0H         LINE#         217
  C:69D3H         LINE#         219
  C:69DFH         LINE#         220
  C:69DFH         LINE#         222
  C:69E2H         LINE#         224
  C:69EEH         LINE#         225
  C:69EEH         LINE#         227
  C:69F1H         LINE#         229
  C:69FDH         LINE#         230
  C:69FDH         LINE#         232
  C:6A00H         LINE#         234
  C:6A0CH         LINE#         235
  C:6A0CH         LINE#         237
  C:6A0FH         LINE#         239
  C:6A1BH         LINE#         240
  C:6A1BH         LINE#         242
BL51 BANKED LINKER/LOCATER V6.22.2.0                                                  05/21/2020  14:05:12  PAGE 73


  C:6A1EH         LINE#         244
  C:6A2AH         LINE#         245
  C:6A2AH         LINE#         247
  C:6A2DH         LINE#         248
  C:6A3BH         LINE#         250
  C:6A3EH         LINE#         251
  C:6A41H         LINE#         252
  C:6A41H         LINE#         253
  C:6A41H         LINE#         255
  C:6A43H         LINE#         257
  -------         ENDPROC       RX_DATA
  -------         PROC          _DEBUG_FECHA_ACTUAL
  X:0259H         SYMBOL        buffer
  C:6117H         LINE#         258
  C:6122H         LINE#         259
  C:6122H         LINE#         260
  C:612BH         LINE#         261
  C:6140H         LINE#         262
  C:6145H         LINE#         263
  C:615DH         LINE#         264
  C:6162H         LINE#         265
  C:617AH         LINE#         266
  C:617FH         LINE#         267
  C:6197H         LINE#         268
  C:619CH         LINE#         269
  C:61B4H         LINE#         270
  -------         ENDPROC       _DEBUG_FECHA_ACTUAL
  -------         PROC          COND_INI_TIBBO
  C:7D48H         LINE#         275
  C:7D48H         LINE#         276
  C:7D48H         LINE#         278
  C:7D4AH         LINE#         279
  C:7D4CH         LINE#         280
  -------         ENDPROC       COND_INI_TIBBO
  -------         PROC          _DEBUG_PTO_PARALELO
  X:0022H         SYMBOL        buffer
  X:0025H         SYMBOL        Length_trama
  C:77DCH         LINE#         281
  C:77DFH         LINE#         282
  C:77DFH         LINE#         283
  C:77E2H         LINE#         284
  C:77EBH         LINE#         285
  C:7802H         LINE#         286
  C:7805H         LINE#         287
  C:780EH         LINE#         288
  C:7811H         LINE#         289
  C:7814H         LINE#         290
  -------         ENDPROC       _DEBUG_PTO_PARALELO
  -------         PROC          _DEBUG_MONITOR
  X:0022H         SYMBOL        buffer
  X:0025H         SYMBOL        Length_trama
  C:7960H         LINE#         293
  C:7963H         LINE#         294
  C:7963H         LINE#         295
  C:7966H         LINE#         296
  C:796FH         LINE#         297
  C:797DH         LINE#         298
BL51 BANKED LINKER/LOCATER V6.22.2.0                                                  05/21/2020  14:05:12  PAGE 74


  C:7980H         LINE#         299
  C:7989H         LINE#         300
  C:798CH         LINE#         301
  C:798FH         LINE#         302
  -------         ENDPROC       _DEBUG_MONITOR
  -------         ENDMOD        TIBBO

  -------         MODULE        UART
  C:0000H         SYMBOL        _ICE_DUMMY_
  C:7AB0H         PUBLIC        com_getchar
  C:7C8EH         PUBLIC        com_rbuflen
  C:7CA0H         PUBLIC        com_tbuflen
  B:00A8H.4       PUBLIC        ES
  B:0098H.0       PUBLIC        RI
  C:7817H         PUBLIC        _com_putchar
  B:0098H.1       PUBLIC        TI
  B:0021H.3       PUBLIC        aSk
  B:00B8H.4       PUBLIC        PS
  D:000DH         SYMBOL        r_in
  D:000EH         SYMBOL        r_out
  D:000FH         SYMBOL        t_in
  D:0010H         SYMBOL        t_out
  D:0099H         PUBLIC        SBUF
  D:0087H         PUBLIC        PCON
  D:0089H         PUBLIC        TMOD
  B:0021H.4       SYMBOL        ti_restart
  B:00A8H.3       PUBLIC        ET1
  D:008DH         PUBLIC        TH1
  B:0098H.7       PUBLIC        SM0
  B:0098H.6       PUBLIC        SM1
  D:008BH         PUBLIC        TL1
  B:0098H.5       PUBLIC        SM2
  B:0088H.6       PUBLIC        TR1
  C:79BEH         PUBLIC        com_initialize
  X:025EH         PUBLIC        cnt__ask_off
  B:0098H.4       PUBLIC        REN
  C:7A39H         PUBLIC        com_baudrate
  C:3A94H         SYMBOL        com_isr
  -------         PROC          COM_ISR
  -------         DO            
  X:025CH         SYMBOL        cDatoRx
  D:0006H         SYMBOL        k
  D:0007H         SYMBOL        bcc
  X:025DH         SYMBOL        num_datos
  -------         ENDDO         
  C:3A94H         LINE#         96
  C:3AA9H         LINE#         104
  C:3AAFH         LINE#         105
  C:3AAFH         LINE#         107
  C:3AB1H         LINE#         108
  C:3AB7H         LINE#         109
  C:3AC7H         LINE#         110
  C:3AC7H         LINE#         111
  C:3AD2H         LINE#         112
  C:3AD4H         LINE#         114
  C:3AD4H         LINE#         115
  C:3AE4H         LINE#         116
BL51 BANKED LINKER/LOCATER V6.22.2.0                                                  05/21/2020  14:05:12  PAGE 75


  C:3AE4H         LINE#         117
  C:3AE9H         LINE#         118
  C:3AE9H         LINE#         119
  C:3B00H         LINE#         120
  C:3B00H         LINE#         124
  C:3B00H         LINE#         127
  C:3B0FH         LINE#         128
  C:3B0FH         LINE#         129
  C:3B11H         LINE#         130
  C:3B19H         LINE#         131
  C:3B1EH         LINE#         133
  C:3B1EH         LINE#         134
  C:3B21H         LINE#         138
  C:3B21H         LINE#         139
  C:3B21H         LINE#         140
  C:3B39H         LINE#         141
  C:3B48H         LINE#         142
  C:3B48H         LINE#         143
  C:3B48H         LINE#         144
  C:3B4AH         LINE#         146
  C:3B4AH         LINE#         147
  C:3B4CH         LINE#         148
  C:3B4CH         LINE#         149
  C:3B4CH         LINE#         150
  C:3B4FH         LINE#         154
  C:3B4FH         LINE#         156
  C:3B58H         LINE#         157
  C:3B58H         LINE#         159
  C:3B5EH         LINE#         160
  C:3B71H         LINE#         161
  C:3B71H         LINE#         162
  C:3B74H         LINE#         164
  C:3B74H         LINE#         165
  C:3B89H         LINE#         166
  C:3B8FH         LINE#         167
  C:3B8FH         LINE#         169
  C:3B92H         LINE#         173
  C:3B92H         LINE#         175
  C:3BAAH         LINE#         176
  C:3BB0H         LINE#         177
  C:3BB3H         LINE#         178
  C:3BB3H         LINE#         179
  C:3BCBH         LINE#         180
  C:3BCBH         LINE#         181
  C:3BCCH         LINE#         182
  C:3BD9H         LINE#         183
  C:3BD9H         LINE#         184
  C:3BE6H         LINE#         185
  C:3BE9H         LINE#         186
  C:3BF7H         LINE#         187
  C:3BF7H         LINE#         188
  C:3BF9H         LINE#         189
  C:3BFEH         LINE#         190
  C:3C00H         LINE#         191
  C:3C04H         LINE#         193
  C:3C06H         LINE#         195
  C:3C06H         LINE#         196
BL51 BANKED LINKER/LOCATER V6.22.2.0                                                  05/21/2020  14:05:12  PAGE 76


  C:3C06H         LINE#         197
  C:3C06H         LINE#         198
  C:3C08H         LINE#         200
  C:3C08H         LINE#         201
  C:3C08H         LINE#         202
  C:3C08H         LINE#         204
  C:3C0AH         LINE#         206
  C:3C0AH         LINE#         207
  C:3C10H         LINE#         208
  C:3C10H         LINE#         210
  C:3C12H         LINE#         215
  C:3C12H         LINE#         216
  C:3C17H         LINE#         217
  C:3C17H         LINE#         218
  C:3C17H         LINE#         219
  C:3C17H         LINE#         224
  C:3C1AH         LINE#         225
  C:3C1AH         LINE#         226
  C:3C1CH         LINE#         228
  C:3C22H         LINE#         229
  C:3C22H         LINE#         230
  C:3C2CH         LINE#         231
  C:3C2EH         LINE#         232
  C:3C30H         LINE#         233
  C:3C32H         LINE#         235
  C:3C32H         LINE#         236
  C:3C34H         LINE#         237
  C:3C34H         LINE#         238
  C:3C34H         LINE#         240
  -------         ENDPROC       COM_ISR
  -------         PROC          COM_INITIALIZE
  C:79BEH         LINE#         256
  C:79C5H         LINE#         257
  C:79C5H         LINE#         261
  C:79C8H         LINE#         266
  C:79CBH         LINE#         267
  C:79CDH         LINE#         269
  C:79CFH         LINE#         270
  C:79D1H         LINE#         275
  C:79D5H         LINE#         276
  C:79D7H         LINE#         277
  C:79D9H         LINE#         279
  C:79DBH         LINE#         280
  C:79DDH         LINE#         281
  C:79DFH         LINE#         283
  C:79E1H         LINE#         284
  C:79E3H         LINE#         285
  -------         ENDPROC       COM_INITIALIZE
  -------         PROC          COM_BAUDRATE
  C:7A39H         LINE#         291
  C:7A40H         LINE#         293
  C:7A40H         LINE#         297
  C:7A42H         LINE#         298
  C:7A45H         LINE#         299
  C:7A47H         LINE#         304
  C:7A49H         LINE#         305
  C:7A4BH         LINE#         307
BL51 BANKED LINKER/LOCATER V6.22.2.0                                                  05/21/2020  14:05:12  PAGE 77


  C:7A4EH         LINE#         309
  C:7A51H         LINE#         310
  C:7A54H         LINE#         312
  C:7A57H         LINE#         313
  C:7A5AH         LINE#         314
  C:7A5CH         LINE#         315
  -------         ENDPROC       COM_BAUDRATE
  -------         PROC          _COM_PUTCHAR
  X:00C1H         SYMBOL        c
  C:7817H         LINE#         321
  C:7823H         LINE#         323
  C:7823H         LINE#         327
  C:7830H         LINE#         328
  C:7834H         LINE#         334
  C:7842H         LINE#         335
  C:7844H         LINE#         337
  C:7847H         LINE#         338
  C:7847H         LINE#         339
  C:7849H         LINE#         340
  C:784BH         LINE#         341
  C:784BH         LINE#         343
  C:784DH         LINE#         344
  -------         ENDPROC       _COM_PUTCHAR
  -------         PROC          COM_GETCHAR
  C:7AB0H         LINE#         350
  C:7AB7H         LINE#         351
  C:7AB7H         LINE#         352
  C:7ABDH         LINE#         353
  C:7AC3H         LINE#         355
  C:7AD1H         LINE#         356
  -------         ENDPROC       COM_GETCHAR
  -------         PROC          COM_RBUFLEN
  C:7C8EH         LINE#         362
  C:7C95H         LINE#         363
  C:7C95H         LINE#         364
  C:7C9BH         LINE#         365
  -------         ENDPROC       COM_RBUFLEN
  -------         PROC          COM_TBUFLEN
  C:7CA0H         LINE#         371
  C:7CA7H         LINE#         372
  C:7CA7H         LINE#         373
  C:7CADH         LINE#         374
  -------         ENDPROC       COM_TBUFLEN
  -------         ENDMOD        UART

  -------         MODULE        LINTECH
  C:0000H         SYMBOL        _ICE_DUMMY_
  C:61BDH         PUBLIC        _Inicializa
  C:5941H         PUBLIC        _RD_MF
  C:5FC8H         PUBLIC        Dwload_EEprom
  C:64BEH         PUBLIC        _Card_Insercion
  C:527AH         PUBLIC        _Mov_Card
  C:4B8FH         PUBLIC        _WR_MF
  C:654FH         PUBLIC        LoadVerify_EEprom
  C:6DD1H         PUBLIC        _Check_Status
  C:6D51H         PUBLIC        Aut_Card_check_Status
  -------         PROC          _INICIALIZA
BL51 BANKED LINKER/LOCATER V6.22.2.0                                                  05/21/2020  14:05:12  PAGE 78


  X:0023H         SYMBOL        TipoMovimiento
  -------         DO            
  D:0003H         SYMBOL        j
  X:0024H         SYMBOL        bcc
  X:0025H         SYMBOL        g_scArrTxComSoft
  -------         ENDDO         
  C:61BDH         LINE#         66
  C:61C2H         LINE#         67
  C:61C2H         LINE#         70
  C:61C5H         LINE#         71
  C:61DBH         LINE#         72
  C:61DBH         LINE#         74
  C:61E4H         LINE#         76
  C:61EAH         LINE#         77
  C:61EDH         LINE#         78
  C:61EFH         LINE#         79
  C:61F3H         LINE#         80
  C:61F7H         LINE#         81
  C:61FBH         LINE#         82
  C:6203H         LINE#         83
  C:6207H         LINE#         84
  C:6213H         LINE#         85
  C:6213H         LINE#         86
  C:6227H         LINE#         87
  C:622AH         LINE#         88
  C:6232H         LINE#         89
  C:6234H         LINE#         90
  C:6239H         LINE#         91
  C:6248H         LINE#         92
  C:6253H         LINE#         93
  C:6259H         LINE#         94
  C:6259H         LINE#         95
  -------         ENDPROC       _INICIALIZA
  -------         PROC          _CHECK_STATUS
  X:0023H         SYMBOL        Detalle
  -------         DO            
  D:0006H         SYMBOL        j
  D:0007H         SYMBOL        bcc
  X:0024H         SYMBOL        g_scArrTxComSoft
  -------         ENDDO         
  C:6DD1H         LINE#         107
  C:6DD6H         LINE#         108
  C:6DD6H         LINE#         111
  C:6DDFH         LINE#         113
  C:6DE1H         LINE#         115
  C:6DE7H         LINE#         116
  C:6DEAH         LINE#         117
  C:6DECH         LINE#         118
  C:6DF0H         LINE#         119
  C:6DF4H         LINE#         120
  C:6DF8H         LINE#         121
  C:6E00H         LINE#         122
  C:6E04H         LINE#         123
  C:6E10H         LINE#         124
  C:6E10H         LINE#         125
  C:6E1DH         LINE#         126
  C:6E20H         LINE#         127
BL51 BANKED LINKER/LOCATER V6.22.2.0                                                  05/21/2020  14:05:12  PAGE 79


  C:6E25H         LINE#         128
  C:6E27H         LINE#         129
  C:6E2CH         LINE#         130
  C:6E3BH         LINE#         131
  C:6E46H         LINE#         132
  C:6E4CH         LINE#         133
  -------         ENDPROC       _CHECK_STATUS
  -------         PROC          _CARD_INSERCION
  D:0007H         SYMBOL        Tipo
  -------         DO            
  D:0006H         SYMBOL        j
  D:0007H         SYMBOL        bcc
  X:0023H         SYMBOL        g_scArrTxComSoft
  -------         ENDDO         
  C:64BEH         LINE#         143
  C:64BEH         LINE#         144
  C:64BEH         LINE#         147
  C:64CBH         LINE#         148
  C:64CBH         LINE#         149
  C:64D2H         LINE#         150
  C:64D8H         LINE#         151
  C:64DAH         LINE#         153
  C:64DAH         LINE#         155
  C:64E1H         LINE#         156
  C:64E7H         LINE#         158
  C:64E7H         LINE#         160
  C:64E9H         LINE#         162
  C:64EFH         LINE#         163
  C:64F2H         LINE#         164
  C:64F4H         LINE#         165
  C:64F8H         LINE#         166
  C:64FCH         LINE#         167
  C:6500H         LINE#         169
  C:6506H         LINE#         170
  C:6512H         LINE#         171
  C:6512H         LINE#         172
  C:651FH         LINE#         173
  C:6522H         LINE#         175
  C:6527H         LINE#         177
  C:6529H         LINE#         178
  C:652EH         LINE#         179
  C:653DH         LINE#         180
  C:6548H         LINE#         181
  C:654EH         LINE#         182
  -------         ENDPROC       _CARD_INSERCION
  -------         PROC          _MOV_CARD
  X:0023H         SYMBOL        Posicion
  -------         DO            
  D:0003H         SYMBOL        j
  X:0024H         SYMBOL        bcc
  X:0025H         SYMBOL        g_scArrTxComSoft
  -------         ENDDO         
  C:527AH         LINE#         193
  C:527FH         LINE#         194
  C:527FH         LINE#         197
  C:5282H         LINE#         199
  C:52A2H         LINE#         200
BL51 BANKED LINKER/LOCATER V6.22.2.0                                                  05/21/2020  14:05:12  PAGE 80


  C:52A2H         LINE#         201
  C:52A9H         LINE#         202
  C:52A9H         LINE#         203
  C:52AFH         LINE#         204
  C:52B1H         LINE#         205
  C:52B8H         LINE#         206
  C:52B8H         LINE#         207
  C:52BEH         LINE#         208
  C:52C0H         LINE#         209
  C:52C7H         LINE#         210
  C:52C7H         LINE#         211
  C:52CDH         LINE#         212
  C:52CFH         LINE#         213
  C:52D6H         LINE#         214
  C:52D6H         LINE#         215
  C:52DCH         LINE#         216
  C:52DEH         LINE#         217
  C:52E5H         LINE#         218
  C:52E5H         LINE#         219
  C:52EEH         LINE#         220
  C:52EEH         LINE#         222
  C:52F4H         LINE#         223
  C:52F7H         LINE#         224
  C:52F9H         LINE#         225
  C:52FDH         LINE#         226
  C:5301H         LINE#         227
  C:5305H         LINE#         228
  C:530DH         LINE#         229
  C:5311H         LINE#         230
  C:531DH         LINE#         231
  C:531DH         LINE#         232
  C:5331H         LINE#         233
  C:5334H         LINE#         234
  C:533CH         LINE#         235
  C:533EH         LINE#         236
  C:5343H         LINE#         237
  C:5352H         LINE#         238
  C:535DH         LINE#         239
  C:5363H         LINE#         240
  C:5363H         LINE#         242
  -------         ENDPROC       _MOV_CARD
  -------         PROC          AUT_CARD_CHECK_STATUS
  -------         DO            
  D:0003H         SYMBOL        j
  X:0023H         SYMBOL        bcc
  X:0024H         SYMBOL        g_scArrTxComSoft
  -------         ENDDO         
  C:6D51H         LINE#         248
  C:6D51H         LINE#         249
  C:6D51H         LINE#         252
  C:6D56H         LINE#         254
  C:6D5FH         LINE#         256
  C:6D65H         LINE#         257
  C:6D68H         LINE#         258
  C:6D6AH         LINE#         259
  C:6D6EH         LINE#         260
  C:6D72H         LINE#         261
BL51 BANKED LINKER/LOCATER V6.22.2.0                                                  05/21/2020  14:05:12  PAGE 81


  C:6D76H         LINE#         262
  C:6D7AH         LINE#         263
  C:6D7EH         LINE#         264
  C:6D8AH         LINE#         265
  C:6D8AH         LINE#         266
  C:6D9EH         LINE#         267
  C:6DA1H         LINE#         268
  C:6DA9H         LINE#         269
  C:6DABH         LINE#         270
  C:6DB0H         LINE#         271
  C:6DBFH         LINE#         272
  C:6DCAH         LINE#         273
  C:6DD0H         LINE#         274
  -------         ENDPROC       AUT_CARD_CHECK_STATUS
  -------         PROC          DWLOAD_EEPROM
  -------         DO            
  D:0003H         SYMBOL        j
  X:0023H         SYMBOL        bcc
  X:0024H         SYMBOL        g_scArrTxComSoft
  -------         ENDDO         
  C:5FC8H         LINE#         280
  C:5FC8H         LINE#         281
  C:5FC8H         LINE#         284
  C:5FCDH         LINE#         285
  C:5FD6H         LINE#         287
  C:5FDCH         LINE#         288
  C:5FDFH         LINE#         289
  C:5FE1H         LINE#         290
  C:5FE5H         LINE#         291
  C:5FE9H         LINE#         292
  C:5FEDH         LINE#         293
  C:5FF1H         LINE#         294
  C:5FF4H         LINE#         295
  C:5FF8H         LINE#         296
  C:5FFBH         LINE#         297
  C:5FFEH         LINE#         298
  C:6002H         LINE#         299
  C:6006H         LINE#         300
  C:600AH         LINE#         301
  C:600EH         LINE#         302
  C:6012H         LINE#         303
  C:6016H         LINE#         304
  C:601AH         LINE#         305
  C:601EH         LINE#         307
  C:602AH         LINE#         308
  C:602AH         LINE#         309
  C:603EH         LINE#         310
  C:6041H         LINE#         311
  C:6049H         LINE#         312
  C:604BH         LINE#         313
  C:6050H         LINE#         314
  C:605FH         LINE#         315
  C:606AH         LINE#         316
  C:6070H         LINE#         317
  -------         ENDPROC       DWLOAD_EEPROM
  -------         PROC          LOADVERIFY_EEPROM
  -------         DO            
BL51 BANKED LINKER/LOCATER V6.22.2.0                                                  05/21/2020  14:05:12  PAGE 82


  D:0003H         SYMBOL        j
  X:0023H         SYMBOL        bcc
  X:0024H         SYMBOL        g_scArrTxComSoft
  -------         ENDDO         
  C:654FH         LINE#         323
  C:654FH         LINE#         324
  C:654FH         LINE#         327
  C:6554H         LINE#         328
  C:655DH         LINE#         331
  C:6563H         LINE#         332
  C:6566H         LINE#         333
  C:6568H         LINE#         334
  C:656CH         LINE#         335
  C:6570H         LINE#         336
  C:6574H         LINE#         337
  C:6578H         LINE#         338
  C:657BH         LINE#         339
  C:657FH         LINE#         340
  C:6582H         LINE#         341
  C:6585H         LINE#         342
  C:6589H         LINE#         343
  C:658DH         LINE#         347
  C:6599H         LINE#         348
  C:6599H         LINE#         349
  C:65ADH         LINE#         350
  C:65B0H         LINE#         351
  C:65B8H         LINE#         352
  C:65BAH         LINE#         353
  C:65BFH         LINE#         354
  C:65CEH         LINE#         355
  C:65D9H         LINE#         356
  C:65DFH         LINE#         358
  -------         ENDPROC       LOADVERIFY_EEPROM
  -------         PROC          _RD_MF
  X:0023H         SYMBOL        Sector
  X:0024H         SYMBOL        Bloque
  -------         DO            
  D:0003H         SYMBOL        j
  X:0025H         SYMBOL        bcc
  X:0026H         SYMBOL        g_scArrTxComSoft
  -------         ENDDO         
  C:5941H         LINE#         364
  C:5949H         LINE#         365
  C:5949H         LINE#         369
  C:594CH         LINE#         371
  C:5955H         LINE#         372
  C:595DH         LINE#         374
  C:5966H         LINE#         375
  C:596EH         LINE#         376
  C:5977H         LINE#         379
  C:597DH         LINE#         380
  C:5980H         LINE#         381
  C:5982H         LINE#         382
  C:5986H         LINE#         383
  C:598AH         LINE#         384
  C:598EH         LINE#         385
  C:5992H         LINE#         386
BL51 BANKED LINKER/LOCATER V6.22.2.0                                                  05/21/2020  14:05:12  PAGE 83


  C:5995H         LINE#         387
  C:5999H         LINE#         388
  C:59A1H         LINE#         389
  C:59A9H         LINE#         390
  C:59ADH         LINE#         391
  C:59B1H         LINE#         393
  C:59BDH         LINE#         394
  C:59BDH         LINE#         395
  C:59D1H         LINE#         396
  C:59D4H         LINE#         397
  C:59DCH         LINE#         400
  C:59DEH         LINE#         401
  C:59E3H         LINE#         402
  C:59F2H         LINE#         403
  C:59FDH         LINE#         404
  C:5A03H         LINE#         406
  -------         ENDPROC       _RD_MF
  -------         PROC          _WR_MF
  X:0023H         SYMBOL        Sector
  X:0024H         SYMBOL        Bloque
  X:0025H         SYMBOL        buffer
  -------         DO            
  D:0005H         SYMBOL        j
  X:0028H         SYMBOL        bcc
  X:0029H         SYMBOL        g_scArrTxComSoft
  -------         ENDDO         
  C:4B8FH         LINE#         413
  C:4BA0H         LINE#         415
  C:4BA0H         LINE#         418
  C:4BA3H         LINE#         420
  C:4BACH         LINE#         421
  C:4BB4H         LINE#         423
  C:4BBDH         LINE#         424
  C:4BC5H         LINE#         425
  C:4BCEH         LINE#         427
  C:4BD4H         LINE#         428
  C:4BD7H         LINE#         429
  C:4BD9H         LINE#         430
  C:4BDDH         LINE#         432
  C:4BE1H         LINE#         433
  C:4BE5H         LINE#         434
  C:4BE9H         LINE#         435
  C:4BECH         LINE#         436
  C:4BF0H         LINE#         437
  C:4BF8H         LINE#         438
  C:4C00H         LINE#         439
  C:4C04H         LINE#         441
  C:4C10H         LINE#         442
  C:4C10H         LINE#         443
  C:4C30H         LINE#         444
  C:4C33H         LINE#         446
  C:4C39H         LINE#         448
  C:4C45H         LINE#         449
  C:4C45H         LINE#         450
  C:4C5CH         LINE#         451
  C:4C5FH         LINE#         452
  C:4C67H         LINE#         455
BL51 BANKED LINKER/LOCATER V6.22.2.0                                                  05/21/2020  14:05:12  PAGE 84


  C:4C69H         LINE#         456
  C:4C6EH         LINE#         457
  C:4C7DH         LINE#         458
  C:4C88H         LINE#         459
  C:4C8EH         LINE#         461
  -------         ENDPROC       _WR_MF
  -------         ENDMOD        LINTECH

  -------         MODULE        VERIFICADOR
  C:0000H         SYMBOL        _ICE_DUMMY_
  D:0080H         PUBLIC        P0
  C:755EH         PUBLIC        Ingreso_Vehiculo
  D:0090H         PUBLIC        P1
  C:7A61H         PUBLIC        _Armar_Trama_Tarjeta_Sector1_Bloque0
  D:00B0H         PUBLIC        P3
  C:5448H         PUBLIC        _Armar_Trama_Tarjeta_Sector1_Bloque2
  C:68ABH         PUBLIC        Armar_Trama_Pto_Paralelo_Expedidor
  C:6700H         PUBLIC        _rta_cmd_transporte
  C:44DFH         PUBLIC        Secuencia_inicio_expedidor
  C:5DB2H         PUBLIC        error_rx_pto
  C:3DEDH         PUBLIC        _Responde_Lectura_Tarjeta_Sector1_Bloque1
  C:4746H         PUBLIC        _Responde_Lectura_Tarjeta_Sector1_Bloque2
  B:0090H.1       PUBLIC        DataIn
  C:792DH         PUBLIC        Trama_Validacion_P_N
  B:0080H.3       PUBLIC        Rele_Atasco
  C:32E6H         PUBLIC        _SecuenciaExpedidorMF
  C:6F34H         PUBLIC        Responde_Estado_Sensores_Transporte
  X:01ACH         SYMBOL        Estado
  C:6A44H         PUBLIC        _Responde_Write_Tarjeta_Sector1_Bloque0
  C:715FH         PUBLIC        _Responde_Write_Tarjeta_Sector1_Bloque2
  C:731EH         PUBLIC        Responde_Tipo_Tarjeta
  -------         PROC          TRAMA_VALIDACION_P_N
  -------         DO            
  D:0007H         SYMBOL        Trama_Validacion_P_N
  -------         ENDDO         
  C:792DH         LINE#         404
  C:792DH         LINE#         405
  C:792DH         LINE#         406
  C:792FH         LINE#         408
  C:793AH         LINE#         409
  C:793AH         LINE#         410
  C:793DH         LINE#         411
  C:793DH         LINE#         412
  C:793FH         LINE#         415
  C:7947H         LINE#         416
  C:7947H         LINE#         418
  C:7949H         LINE#         420
  C:794AH         LINE#         421
  C:794EH         LINE#         422
  C:794EH         LINE#         424
  C:7950H         LINE#         426
  C:7951H         LINE#         428
  C:7951H         LINE#         429
  C:795AH         LINE#         430
  C:795CH         LINE#         432
  C:795CH         LINE#         433
  C:795DH         LINE#         435
BL51 BANKED LINKER/LOCATER V6.22.2.0                                                  05/21/2020  14:05:12  PAGE 85


  C:795DH         LINE#         437
  C:795FH         LINE#         439
  C:795FH         LINE#         441
  C:795FH         LINE#         443
  C:795FH         LINE#         444
  -------         ENDPROC       TRAMA_VALIDACION_P_N
  -------         PROC          ERROR_RX_PTO
  -------         DO            
  X:0179H         SYMBOL        cnt_espera_ask_on
  X:0029H         SYMBOL        error_rx_pto
  -------         ENDDO         
  C:5DB2H         LINE#         468
  C:5DB2H         LINE#         469
  C:5DB2H         LINE#         472
  C:5DB8H         LINE#         476
  C:5DC1H         LINE#         477
  C:5DC9H         LINE#         478
  C:5DD2H         LINE#         479
  C:5DDAH         LINE#         480
  C:5DE3H         LINE#         481
  C:5DE6H         LINE#         483
  C:5DE6H         LINE#         484
  C:5DECH         LINE#         485
  C:5DF6H         LINE#         486
  C:5DF6H         LINE#         487
  C:5DF8H         LINE#         488
  C:5DFFH         LINE#         489
  C:5E04H         LINE#         490
  C:5E0AH         LINE#         491
  C:5E0FH         LINE#         492
  C:5E11H         LINE#         493
  C:5E18H         LINE#         494
  C:5E1EH         LINE#         495
  C:5E1EH         LINE#         497
  C:5E1EH         LINE#         498
  C:5E23H         LINE#         499
  C:5E23H         LINE#         500
  C:5E23H         LINE#         501
  C:5E25H         LINE#         503
  C:5E25H         LINE#         504
  C:5E33H         LINE#         505
  C:5E46H         LINE#         506
  C:5E46H         LINE#         507
  C:5E47H         LINE#         509
  C:5E4DH         LINE#         510
  C:5E51H         LINE#         511
  C:5E53H         LINE#         512
  C:5E53H         LINE#         513
  C:5E55H         LINE#         515
  C:5E55H         LINE#         516
  C:5E56H         LINE#         517
  C:5E5BH         LINE#         518
  C:5E61H         LINE#         519
  C:5E61H         LINE#         520
  C:5E61H         LINE#         521
  C:5E66H         LINE#         522
  -------         ENDPROC       ERROR_RX_PTO
BL51 BANKED LINKER/LOCATER V6.22.2.0                                                  05/21/2020  14:05:12  PAGE 86


  -------         PROC          _RTA_CMD_TRANSPORTE
  X:0023H         SYMBOL        Estado_futuro
  X:0024H         SYMBOL        Estado_Error
  X:0025H         SYMBOL        Estado_Actual
  -------         DO            
  X:0027H         SYMBOL        temp
  X:0028H         SYMBOL        EstadoComSeqMF
  -------         ENDDO         
  C:6700H         LINE#         538
  C:670EH         LINE#         539
  C:670EH         LINE#         544
  C:6718H         LINE#         545
  C:6718H         LINE#         546
  C:6720H         LINE#         547
  C:6720H         LINE#         548
  C:6724H         LINE#         549
  C:6726H         LINE#         550
  C:672CH         LINE#         551
  C:672CH         LINE#         552
  C:6735H         LINE#         553
  C:6749H         LINE#         554
  C:674CH         LINE#         555
  C:674EH         LINE#         557
  C:674EH         LINE#         560
  C:6763H         LINE#         561
  C:6763H         LINE#         562
  C:6767H         LINE#         563
  C:6769H         LINE#         565
  C:6769H         LINE#         566
  C:676CH         LINE#         567
  C:676CH         LINE#         568
  C:676CH         LINE#         569
  C:676EH         LINE#         571
  C:676EH         LINE#         573
  C:6782H         LINE#         574
  C:678AH         LINE#         575
  C:678AH         LINE#         576
  C:678FH         LINE#         577
  -------         ENDPROC       _RTA_CMD_TRANSPORTE
  -------         PROC          INGRESO_VEHICULO
  -------         DO            
  D:0007H         SYMBOL        CardAutomatic
  -------         ENDDO         
  C:755EH         LINE#         579
  C:755EH         LINE#         580
  C:755EH         LINE#         582
  C:7564H         LINE#         583
  C:7564H         LINE#         584
  C:756DH         LINE#         586
  C:7572H         LINE#         587
  C:7572H         LINE#         588
  C:7578H         LINE#         590
  C:7578H         LINE#         591
  C:757AH         LINE#         593
  C:757AH         LINE#         594
  C:757DH         LINE#         595
  C:7580H         LINE#         596
BL51 BANKED LINKER/LOCATER V6.22.2.0                                                  05/21/2020  14:05:12  PAGE 87


  C:7580H         LINE#         597
  C:7589H         LINE#         599
  C:758FH         LINE#         600
  C:7591H         LINE#         602
  C:7591H         LINE#         603
  C:7597H         LINE#         604
  C:7597H         LINE#         606
  C:7597H         LINE#         607
  C:7599H         LINE#         609
  C:7599H         LINE#         611
  C:759EH         LINE#         612
  C:759EH         LINE#         613
  C:75A3H         LINE#         614
  -------         ENDPROC       INGRESO_VEHICULO
  -------         PROC          RESPONDE_ESTADO_SENSORES_TRANSPORTE
  -------         DO            
  X:0023H         SYMBOL        Estado_expedidor
  -------         ENDDO         
  C:6F34H         LINE#         616
  C:6F34H         LINE#         617
  C:6F34H         LINE#         619
  C:6F3DH         LINE#         622
  C:6F45H         LINE#         623
  C:6F45H         LINE#         625
  C:6F51H         LINE#         626
  C:6F51H         LINE#         627
  C:6F55H         LINE#         628
  C:6F55H         LINE#         629
  C:6F5EH         LINE#         630
  C:6F63H         LINE#         631
  C:6F68H         LINE#         632
  C:6F68H         LINE#         633
  C:6F6AH         LINE#         635
  C:6F6AH         LINE#         637
  C:6F72H         LINE#         639
  C:6F72H         LINE#         640
  C:6F74H         LINE#         642
  C:6F74H         LINE#         644
  C:6F7DH         LINE#         646
  C:6F82H         LINE#         647
  C:6F82H         LINE#         648
  C:6F82H         LINE#         649
  C:6F84H         LINE#         650
  C:6F8BH         LINE#         651
  C:6F8BH         LINE#         653
  C:6F94H         LINE#         655
  C:6F9AH         LINE#         656
  C:6F9CH         LINE#         658
  C:6F9CH         LINE#         659
  C:6FA1H         LINE#         660
  C:6FA1H         LINE#         661
  C:6FA6H         LINE#         662
  -------         ENDPROC       RESPONDE_ESTADO_SENSORES_TRANSPORTE
  -------         PROC          RESPONDE_TIPO_TARJETA
  -------         DO            
  X:0023H         SYMBOL        Estado_expedidor
  -------         ENDDO         
BL51 BANKED LINKER/LOCATER V6.22.2.0                                                  05/21/2020  14:05:12  PAGE 88


  C:731EH         LINE#         678
  C:731EH         LINE#         679
  C:731EH         LINE#         681
  C:7327H         LINE#         683
  C:732FH         LINE#         684
  C:732FH         LINE#         685
  C:7336H         LINE#         686
  C:7336H         LINE#         687
  C:733DH         LINE#         688
  C:7343H         LINE#         690
  C:7345H         LINE#         692
  C:7345H         LINE#         693
  C:7345H         LINE#         694
  C:7345H         LINE#         695
  C:7345H         LINE#         696
  C:7345H         LINE#         697
  C:7345H         LINE#         700
  C:7345H         LINE#         701
  C:7347H         LINE#         703
  C:7347H         LINE#         704
  C:7350H         LINE#         705
  C:7355H         LINE#         706
  C:735AH         LINE#         707
  C:735FH         LINE#         708
  C:7365H         LINE#         710
  C:7365H         LINE#         712
  C:736AH         LINE#         713
  -------         ENDPROC       RESPONDE_TIPO_TARJETA
  -------         PROC          _RESPONDE_LECTURA_TARJETA_SECTOR1_BLOQUE1
  X:0023H         SYMBOL        Atributos_Expedidor
  -------         DO            
  D:0007H         SYMBOL        temp
  X:0026H         SYMBOL        Estado_expedidor
  X:0027H         SYMBOL        buffer_S1_B1
  -------         ENDDO         
  C:3DEDH         LINE#         715
  C:3DF8H         LINE#         716
  C:3DF8H         LINE#         721
  C:3E01H         LINE#         725
  C:3E11H         LINE#         726
  C:3E11H         LINE#         728
  C:3E1DH         LINE#         729
  C:3E1DH         LINE#         730
  C:3E35H         LINE#         732
  C:3E38H         LINE#         734
  C:3E41H         LINE#         735
  C:3E52H         LINE#         737
  C:3E8CH         LINE#         738
  C:3E8CH         LINE#         740
  C:3E95H         LINE#         741
  C:3E9DH         LINE#         742
  C:3EA6H         LINE#         744
  C:3EAFH         LINE#         745
  C:3EB7H         LINE#         746
  C:3EC0H         LINE#         748
  C:3EC9H         LINE#         749
  C:3ED1H         LINE#         750
BL51 BANKED LINKER/LOCATER V6.22.2.0                                                  05/21/2020  14:05:12  PAGE 89


  C:3EDAH         LINE#         752
  C:3EF1H         LINE#         754
  C:3EF8H         LINE#         755
  C:3EF8H         LINE#         756
  C:3EFFH         LINE#         757
  C:3F0FH         LINE#         758
  C:3F22H         LINE#         760
  C:3F28H         LINE#         762
  C:3F2AH         LINE#         764
  C:3F2AH         LINE#         765
  C:3F31H         LINE#         766
  C:3F36H         LINE#         767
  C:3F38H         LINE#         768
  C:3F38H         LINE#         769
  C:3F38H         LINE#         770
  C:3F3AH         LINE#         772
  C:3F3AH         LINE#         773
  C:3F43H         LINE#         774
  C:3F48H         LINE#         775
  C:3F4DH         LINE#         776
  C:3F53H         LINE#         777
  C:3F53H         LINE#         778
  C:3F55H         LINE#         780
  C:3F55H         LINE#         781
  C:3F5EH         LINE#         782
  C:3F63H         LINE#         783
  C:3F68H         LINE#         784
  C:3F6EH         LINE#         785
  C:3F6EH         LINE#         787
  C:3F73H         LINE#         788
  -------         ENDPROC       _RESPONDE_LECTURA_TARJETA_SECTOR1_BLOQUE1
  -------         PROC          _RESPONDE_LECTURA_TARJETA_SECTOR1_BLOQUE2
  X:0023H         SYMBOL        Atributos_Expedidor
  X:0026H         SYMBOL        Buffer_Write_MF
  -------         DO            
  D:0007H         SYMBOL        temp
  X:0029H         SYMBOL        Estado_expedidor
  X:002AH         SYMBOL        buffer_S1_B2
  -------         ENDDO         
  C:4746H         LINE#         789
  C:4751H         LINE#         790
  C:4751H         LINE#         794
  C:475AH         LINE#         796
  C:4760H         LINE#         798
  C:4770H         LINE#         799
  C:4770H         LINE#         801
  C:477CH         LINE#         802
  C:477CH         LINE#         803
  C:4794H         LINE#         804
  C:4797H         LINE#         805
  C:47A0H         LINE#         806
  C:47B1H         LINE#         808
  C:47BAH         LINE#         809
  C:47C2H         LINE#         810
  C:47CBH         LINE#         813
  C:47E2H         LINE#         816
  C:47F6H         LINE#         817
BL51 BANKED LINKER/LOCATER V6.22.2.0                                                  05/21/2020  14:05:12  PAGE 90


  C:47F6H         LINE#         818
  C:4806H         LINE#         819
  C:4819H         LINE#         820
  C:4839H         LINE#         821
  C:483FH         LINE#         823
  C:4841H         LINE#         824
  C:484BH         LINE#         825
  C:484BH         LINE#         826
  C:484FH         LINE#         828
  C:4851H         LINE#         830
  C:4851H         LINE#         831
  C:4858H         LINE#         832
  C:4858H         LINE#         834
  C:4858H         LINE#         835
  C:485DH         LINE#         836
  -------         ENDPROC       _RESPONDE_LECTURA_TARJETA_SECTOR1_BLOQUE2
  -------         PROC          _RESPONDE_WRITE_TARJETA_SECTOR1_BLOQUE2
  X:0023H         SYMBOL        Atributos_Expedidor
  X:0026H         SYMBOL        Buffer_Write_MF
  C:715FH         LINE#         837
  C:716AH         LINE#         838
  C:716AH         LINE#         840
  C:7173H         LINE#         841
  C:717CH         LINE#         842
  C:7192H         LINE#         844
  C:71A2H         LINE#         845
  C:71B4H         LINE#         846
  C:71C2H         LINE#         847
  C:71C4H         LINE#         848
  -------         ENDPROC       _RESPONDE_WRITE_TARJETA_SECTOR1_BLOQUE2
  -------         PROC          _RESPONDE_WRITE_TARJETA_SECTOR1_BLOQUE0
  X:0023H         SYMBOL        Buffer_Write_MF
  -------         DO            
  X:0026H         SYMBOL        Trama_Expedidor
  -------         ENDDO         
  C:6A44H         LINE#         849
  C:6A4FH         LINE#         850
  C:6A4FH         LINE#         853
  C:6A58H         LINE#         854
  C:6A61H         LINE#         855
  C:6A76H         LINE#         856
  C:6A84H         LINE#         858
  C:6A97H         LINE#         859
  C:6A9AH         LINE#         860
  C:6AA3H         LINE#         861
  C:6AC6H         LINE#         862
  C:6AC8H         LINE#         863
  -------         ENDPROC       _RESPONDE_WRITE_TARJETA_SECTOR1_BLOQUE0
  -------         PROC          _ARMAR_TRAMA_TARJETA_SECTOR1_BLOQUE2
  X:003BH         SYMBOL        Atributos_Expedidor
  X:003EH         SYMBOL        Buffer_Write_MF
  C:5448H         LINE#         864
  C:5453H         LINE#         865
  C:5453H         LINE#         868
  C:545FH         LINE#         870
  C:5471H         LINE#         871
  C:5478H         LINE#         872
BL51 BANKED LINKER/LOCATER V6.22.2.0                                                  05/21/2020  14:05:12  PAGE 91


  C:547FH         LINE#         873
  C:5494H         LINE#         874
  C:5494H         LINE#         875
  C:54ABH         LINE#         876
  C:54C4H         LINE#         877
  C:54C4H         LINE#         878
  C:54C6H         LINE#         881
  C:54C6H         LINE#         882
  C:54DEH         LINE#         883
  C:54DEH         LINE#         884
  C:54EBH         LINE#         885
  C:54EDH         LINE#         887
  C:54EDH         LINE#         888
  C:54FDH         LINE#         889
  C:54FDH         LINE#         890
  C:54FDH         LINE#         892
  C:550FH         LINE#         893
  C:5516H         LINE#         894
  C:551DH         LINE#         895
  C:5524H         LINE#         896
  -------         ENDPROC       _ARMAR_TRAMA_TARJETA_SECTOR1_BLOQUE2
  -------         PROC          _ARMAR_TRAMA_TARJETA_SECTOR1_BLOQUE0
  X:0029H         SYMBOL        Buffer_Write_MF
  C:7A61H         LINE#         898
  C:7A6CH         LINE#         899
  C:7A6CH         LINE#         901
  -------         ENDPROC       _ARMAR_TRAMA_TARJETA_SECTOR1_BLOQUE0
  -------         PROC          ARMAR_TRAMA_PTO_PARALELO_EXPEDIDOR
  -------         DO            
  X:017BH         SYMBOL        buffer
  -------         ENDDO         
  C:68ABH         LINE#         903
  C:68ABH         LINE#         904
  C:68ABH         LINE#         910
  C:68B1H         LINE#         911
  C:68B5H         LINE#         912
  C:68B8H         LINE#         913
  C:68CFH         LINE#         914
  C:68D5H         LINE#         915
  C:68DEH         LINE#         916
  C:68E8H         LINE#         917
  C:68F2H         LINE#         918
  C:68FCH         LINE#         919
  C:6906H         LINE#         920
  C:6910H         LINE#         921
  C:6914H         LINE#         923
  C:691EH         LINE#         924
  C:691EH         LINE#         926
  C:691EH         LINE#         928
  C:691EH         LINE#         930
  C:691EH         LINE#         931
  C:6924H         LINE#         932
  C:6924H         LINE#         933
  C:692AH         LINE#         934
  C:692DH         LINE#         935
  C:6933H         LINE#         936
  -------         ENDPROC       ARMAR_TRAMA_PTO_PARALELO_EXPEDIDOR
BL51 BANKED LINKER/LOCATER V6.22.2.0                                                  05/21/2020  14:05:12  PAGE 92


  -------         PROC          SECUENCIA_INICIO_EXPEDIDOR
  -------         DO            
  X:0022H         SYMBOL        temp
  -------         ENDDO         
  C:44DFH         LINE#         944
  C:44DFH         LINE#         945
  C:44DFH         LINE#         947
  C:44FFH         LINE#         948
  C:44FFH         LINE#         949
  C:44FFH         LINE#         952
  C:4504H         LINE#         953
  C:450AH         LINE#         956
  C:450CH         LINE#         957
  C:450CH         LINE#         968
  C:450CH         LINE#         970
  C:451AH         LINE#         971
  C:451AH         LINE#         972
  C:4526H         LINE#         973
  C:4526H         LINE#         974
  C:452CH         LINE#         975
  C:452FH         LINE#         976
  C:4537H         LINE#         977
  C:4537H         LINE#         978
  C:453EH         LINE#         979
  C:4552H         LINE#         980
  C:4552H         LINE#         981
  C:4554H         LINE#         983
  C:4554H         LINE#         984
  C:455BH         LINE#         985
  C:4561H         LINE#         986
  C:4561H         LINE#         987
  C:4564H         LINE#         989
  C:4564H         LINE#         990
  C:456DH         LINE#         991
  C:4581H         LINE#         992
  C:4587H         LINE#         993
  C:4587H         LINE#         994
  C:458AH         LINE#         995
  C:458AH         LINE#         1001
  C:458AH         LINE#         1003
  C:458DH         LINE#         1004
  C:4593H         LINE#         1008
  C:4595H         LINE#         1009
  C:4595H         LINE#         1019
  C:4595H         LINE#         1021
  C:45A3H         LINE#         1022
  C:45A3H         LINE#         1023
  C:45AFH         LINE#         1024
  C:45AFH         LINE#         1025
  C:45B5H         LINE#         1026
  C:45B7H         LINE#         1027
  C:45BFH         LINE#         1028
  C:45BFH         LINE#         1029
  C:45C6H         LINE#         1030
  C:45DAH         LINE#         1031
  C:45DAH         LINE#         1032
  C:45DCH         LINE#         1034
BL51 BANKED LINKER/LOCATER V6.22.2.0                                                  05/21/2020  14:05:12  PAGE 93


  C:45DCH         LINE#         1035
  C:45E3H         LINE#         1036
  C:45E9H         LINE#         1037
  C:45E9H         LINE#         1038
  C:45EBH         LINE#         1040
  C:45EBH         LINE#         1041
  C:45F4H         LINE#         1042
  C:4608H         LINE#         1043
  C:460DH         LINE#         1044
  C:460DH         LINE#         1046
  C:460FH         LINE#         1047
  C:460FH         LINE#         1053
  C:460FH         LINE#         1055
  C:4615H         LINE#         1056
  C:4615H         LINE#         1059
  C:4615H         LINE#         1060
  C:461CH         LINE#         1061
  C:461CH         LINE#         1062
  C:461CH         LINE#         1063
  -------         ENDPROC       SECUENCIA_INICIO_EXPEDIDOR
  -------         PROC          _SECUENCIAEXPEDIDORMF
  X:0022H         SYMBOL        EstadoActivo
  -------         DO            
  X:0193H         SYMBOL        Buffer_Write_MF
  X:01A4H         SYMBOL        Atributos_Expedidor
  X:01A8H         SYMBOL        EstadoActual
  X:01A9H         SYMBOL        EstadoPasado
  X:01AAH         SYMBOL        EstadoFuturo
  X:01ABH         SYMBOL        TareadelCmd
  -------         ENDDO         
  C:32E6H         LINE#         1073
  C:32EBH         LINE#         1074
  C:32EBH         LINE#         1084
  C:3321H         LINE#         1085
  C:3321H         LINE#         1088
  C:3321H         LINE#         1090
  C:332CH         LINE#         1091
  C:332CH         LINE#         1092
  C:332EH         LINE#         1093
  C:3333H         LINE#         1095
  C:333BH         LINE#         1097
  C:3345H         LINE#         1100
  C:334AH         LINE#         1102
  C:334DH         LINE#         1103
  C:334DH         LINE#         1105
  C:3350H         LINE#         1107
  C:3350H         LINE#         1108
  C:3364H         LINE#         1110
  C:3367H         LINE#         1133
  C:3367H         LINE#         1135
  C:336DH         LINE#         1136
  C:336DH         LINE#         1137
  C:3370H         LINE#         1139
  C:3372H         LINE#         1140
  C:337AH         LINE#         1141
  C:337AH         LINE#         1143
  C:337DH         LINE#         1144
BL51 BANKED LINKER/LOCATER V6.22.2.0                                                  05/21/2020  14:05:12  PAGE 94


  C:337FH         LINE#         1145
  C:3387H         LINE#         1146
  C:3387H         LINE#         1147
  C:3395H         LINE#         1148
  C:3395H         LINE#         1149
  C:339EH         LINE#         1150
  C:33A0H         LINE#         1152
  C:33A0H         LINE#         1153
  C:33B7H         LINE#         1154
  C:33B7H         LINE#         1155
  C:33B9H         LINE#         1156
  C:33C1H         LINE#         1157
  C:33C1H         LINE#         1158
  C:33CFH         LINE#         1159
  C:33CFH         LINE#         1160
  C:33E5H         LINE#         1161
  C:33E7H         LINE#         1163
  C:33E7H         LINE#         1164
  C:33F5H         LINE#         1165
  C:33F5H         LINE#         1166
  C:33F8H         LINE#         1167
  C:3403H         LINE#         1168
  C:3403H         LINE#         1169
  C:3403H         LINE#         1171
  C:3403H         LINE#         1172
  C:340CH         LINE#         1173
  C:340CH         LINE#         1174
  C:340FH         LINE#         1175
  C:340FH         LINE#         1176
  C:3414H         LINE#         1177
  C:341CH         LINE#         1178
  C:3426H         LINE#         1179
  C:342CH         LINE#         1182
  C:342FH         LINE#         1183
  C:342FH         LINE#         1184
  C:3434H         LINE#         1185
  C:343CH         LINE#         1186
  C:3446H         LINE#         1187
  C:344CH         LINE#         1188
  C:3450H         LINE#         1189
  C:3453H         LINE#         1190
  C:3453H         LINE#         1191
  C:3456H         LINE#         1192
  C:345EH         LINE#         1193
  C:3468H         LINE#         1194
  C:346DH         LINE#         1195
  C:346FH         LINE#         1196
  C:3472H         LINE#         1198
  C:3472H         LINE#         1199
  C:3475H         LINE#         1200
  C:347DH         LINE#         1201
  C:3487H         LINE#         1202
  C:348CH         LINE#         1203
  C:348DH         LINE#         1205
  C:348DH         LINE#         1206
  C:3490H         LINE#         1207
  C:3490H         LINE#         1208
BL51 BANKED LINKER/LOCATER V6.22.2.0                                                  05/21/2020  14:05:12  PAGE 95


  C:349BH         LINE#         1209
  C:349BH         LINE#         1210
  C:349BH         LINE#         1211
  C:349BH         LINE#         1212
  C:349BH         LINE#         1213
  C:349DH         LINE#         1214
  C:349DH         LINE#         1215
  C:34AEH         LINE#         1216
  C:34B6H         LINE#         1217
  C:34C0H         LINE#         1218
  C:34C5H         LINE#         1219
  C:34C9H         LINE#         1220
  C:34CBH         LINE#         1221
  C:34CBH         LINE#         1222
  C:34D0H         LINE#         1223
  C:34D8H         LINE#         1224
  C:34E2H         LINE#         1225
  C:34E7H         LINE#         1226
  C:34E9H         LINE#         1227
  C:34E9H         LINE#         1228
  C:34EEH         LINE#         1229
  C:34F0H         LINE#         1230
  C:34F0H         LINE#         1231
  C:34F5H         LINE#         1232
  C:34FDH         LINE#         1233
  C:3507H         LINE#         1234
  C:350CH         LINE#         1235
  C:350FH         LINE#         1236
  C:3511H         LINE#         1237
  C:3511H         LINE#         1238
  C:3514H         LINE#         1239
  C:351CH         LINE#         1240
  C:3526H         LINE#         1241
  C:352CH         LINE#         1242
  C:352EH         LINE#         1334
  C:352EH         LINE#         1335
  C:3533H         LINE#         1336
  C:3533H         LINE#         1338
  C:3533H         LINE#         1339
  C:3538H         LINE#         1340
  -------         ENDPROC       _SECUENCIAEXPEDIDORMF
  -------         ENDMOD        VERIFICADOR

  -------         MODULE        ?C?FPADD
  C:002DH         PUBLIC        ?C?FPADD
  C:0029H         PUBLIC        ?C?FPSUB
  -------         ENDMOD        ?C?FPADD

  -------         MODULE        ?C?FPMUL
  C:011EH         PUBLIC        ?C?FPMUL
  -------         ENDMOD        ?C?FPMUL

  -------         MODULE        ?C?FCAST
  C:022EH         PUBLIC        ?C?FCASTC
  C:0229H         PUBLIC        ?C?FCASTI
  C:0224H         PUBLIC        ?C?FCASTL
  -------         ENDMOD        ?C?FCAST
BL51 BANKED LINKER/LOCATER V6.22.2.0                                                  05/21/2020  14:05:12  PAGE 96



  -------         MODULE        ?C?CASTF
  C:0262H         PUBLIC        ?C?CASTF
  -------         ENDMOD        ?C?CASTF

  -------         MODULE        PRINTF
  X:008EH         PUBLIC        ?_PRINTF?BYTE
  X:008EH         PUBLIC        ?_SPRINTF?BYTE
  C:1A10H         PUBLIC        _PRINTF
  C:1A0AH         PUBLIC        _SPRINTF
  -------         ENDMOD        PRINTF

  -------         MODULE        POW
  X:003DH         PUBLIC        ?_pow?BYTE
  C:40EDH         PUBLIC        _pow
  -------         ENDMOD        POW

  -------         MODULE        ?C?CHKFLOAT
  C:02E3H         PUBLIC        ?C?CHKFLOAT
  -------         ENDMOD        ?C?CHKFLOAT

  -------         MODULE        ?C?FPCMP
  C:02FFH         PUBLIC        ?C?FPCMP
  C:02FDH         PUBLIC        ?C?FPCMP3
  -------         ENDMOD        ?C?FPCMP

  -------         MODULE        ?C?FPNEG
  C:0376H         PUBLIC        ?C?FPNEG
  -------         ENDMOD        ?C?FPNEG

  -------         MODULE        ?C?FPROUND
  C:0387H         PUBLIC        ?C?FPROUND
  -------         ENDMOD        ?C?FPROUND

  -------         MODULE        ?C?FPCONVERT
  C:03C4H         PUBLIC        ?C?FPCONVERT
  -------         ENDMOD        ?C?FPCONVERT

  -------         MODULE        EXP
  C:632EH         PUBLIC        _EXP
  -------         ENDMOD        EXP

  -------         MODULE        LOG
  C:4651H         PUBLIC        _LOG
  C:464DH         PUBLIC        _LOG10
  -------         ENDMOD        LOG

  -------         MODULE        ?C?FPDIV
  C:04CCH         PUBLIC        ?C?FPDIV
  -------         ENDMOD        ?C?FPDIV

  -------         MODULE        ?C?FTNPWR
  C:0599H         PUBLIC        ?C?FTNPWR
  -------         ENDMOD        ?C?FTNPWR

  -------         MODULE        ?C?COPY
  C:06F6H         PUBLIC        ?C?COPY
BL51 BANKED LINKER/LOCATER V6.22.2.0                                                  05/21/2020  14:05:12  PAGE 97


  -------         ENDMOD        ?C?COPY

  -------         MODULE        ?C?CLDPTR
  C:071CH         PUBLIC        ?C?CLDPTR
  -------         ENDMOD        ?C?CLDPTR

  -------         MODULE        ?C?CLDOPTR
  C:0735H         PUBLIC        ?C?CLDOPTR
  -------         ENDMOD        ?C?CLDOPTR

  -------         MODULE        ?C?CSTPTR
  C:0762H         PUBLIC        ?C?CSTPTR
  -------         ENDMOD        ?C?CSTPTR

  -------         MODULE        ?C?CSTOPTR
  C:0774H         PUBLIC        ?C?CSTOPTR
  -------         ENDMOD        ?C?CSTOPTR

  -------         MODULE        ?C?UIDIV
  C:0796H         PUBLIC        ?C?UIDIV
  -------         ENDMOD        ?C?UIDIV

  -------         MODULE        ?C?IILDX
  C:07EBH         PUBLIC        ?C?IILDX
  -------         ENDMOD        ?C?IILDX

  -------         MODULE        ?C?LNEG
  C:0801H         PUBLIC        ?C?LNEG
  -------         ENDMOD        ?C?LNEG

  -------         MODULE        ?C?ULSHR
  C:080FH         PUBLIC        ?C?ULSHR
  -------         ENDMOD        ?C?ULSHR

  -------         MODULE        ?C?LSHL
  C:0822H         PUBLIC        ?C?LSHL
  -------         ENDMOD        ?C?LSHL

  -------         MODULE        ?C?LLDCODE
  C:0835H         PUBLIC        ?C?LLDCODE
  -------         ENDMOD        ?C?LLDCODE

  -------         MODULE        ?C?LLDXDATA0
  C:0845H         PUBLIC        ?C?LLDXDATA0
  -------         ENDMOD        ?C?LLDXDATA0

  -------         MODULE        ?C?LLDCODE0
  C:0851H         PUBLIC        ?C?LLDCODE0
  -------         ENDMOD        ?C?LLDCODE0

  -------         MODULE        ?C?LSTXDATA
  C:0861H         PUBLIC        ?C?LSTXDATA
  -------         ENDMOD        ?C?LSTXDATA

  -------         MODULE        ?C?LSTKXDATA
  C:086DH         PUBLIC        ?C?LSTKXDATA
  -------         ENDMOD        ?C?LSTKXDATA
BL51 BANKED LINKER/LOCATER V6.22.2.0                                                  05/21/2020  14:05:12  PAGE 98



  -------         MODULE        ?C?PLDIXDATA
  C:089EH         PUBLIC        ?C?PLDIXDATA
  -------         ENDMOD        ?C?PLDIXDATA

  -------         MODULE        ?C?PSTXDATA
  C:08B5H         PUBLIC        ?C?PSTXDATA
  -------         ENDMOD        ?C?PSTXDATA

  -------         MODULE        ?C?CCASE
  C:08BEH         PUBLIC        ?C?CCASE
  -------         ENDMOD        ?C?CCASE

  -------         MODULE        STRCAT
  X:007EH         PUBLIC        ?_strcat?BYTE
  C:70F4H         PUBLIC        _strcat
  -------         ENDMOD        STRCAT

  -------         MODULE        ?C?STRCMP
  C:0A62H         PUBLIC        ?C?STRCMP
  -------         ENDMOD        ?C?STRCMP

  -------         MODULE        ?C?STRCPY
  C:0B4BH         PUBLIC        ?C?STRCPY
  -------         ENDMOD        ?C?STRCPY

  -------         MODULE        STRLEN
  C:000EH         PUBLIC        _STRLEN
  -------         ENDMOD        STRLEN

  -------         MODULE        STRTOK
  X:0089H         PUBLIC        ?_strtok?BYTE
  C:5364H         PUBLIC        _strtok
  -------         ENDMOD        STRTOK

  -------         MODULE        ATOL
  C:4A83H         PUBLIC        _atol
  -------         ENDMOD        ATOL

  -------         MODULE        ATOI
  C:552BH         PUBLIC        _atoi
  -------         ENDMOD        ATOI

  -------         MODULE        ?C?IMUL
  C:0B68H         PUBLIC        ?C?IMUL
  -------         ENDMOD        ?C?IMUL

  -------         MODULE        ?C?ILDIX
  C:0B7AH         PUBLIC        ?C?ILDIX
  -------         ENDMOD        ?C?ILDIX

  -------         MODULE        ?C?LMUL
  C:0B90H         PUBLIC        ?C?LMUL
  -------         ENDMOD        ?C?LMUL

  -------         MODULE        ISDIGIT
  C:7CD2H         PUBLIC        _isdigit
BL51 BANKED LINKER/LOCATER V6.22.2.0                                                  05/21/2020  14:05:12  PAGE 99


  -------         ENDMOD        ISDIGIT

  -------         MODULE        ISSPACE
  C:7C32H         PUBLIC        _isspace
  -------         ENDMOD        ISSPACE

  -------         MODULE        STRSPN
  X:008FH         PUBLIC        ?_strspn?BYTE
  C:6AC9H         PUBLIC        _strspn
  -------         ENDMOD        STRSPN

  -------         MODULE        STRPBRK
  X:008FH         PUBLIC        ?_strpbrk?BYTE
  C:6BD0H         PUBLIC        _strpbrk
  -------         ENDMOD        STRPBRK

*** WARNING L16: UNCALLED SEGMENT, IGNORED FOR OVERLAY PROCESS
    SEGMENT: ?PR?_CMD_LPR_SALIDA?ACCESCAN

*** WARNING L16: UNCALLED SEGMENT, IGNORED FOR OVERLAY PROCESS
    SEGMENT: ?PR?CMD_LPR_INT?ACCESCAN

*** WARNING L16: UNCALLED SEGMENT, IGNORED FOR OVERLAY PROCESS
    SEGMENT: ?PR?_CHECK_FECHAOUT?CLOCK

*** WARNING L16: UNCALLED SEGMENT, IGNORED FOR OVERLAY PROCESS
    SEGMENT: ?PR?_ANALIZA_TIEMPO?CLOCK

*** WARNING L16: UNCALLED SEGMENT, IGNORED FOR OVERLAY PROCESS
    SEGMENT: ?PR?_TRAMA_PTO_PARALELO_P?PTO_PARALELO

*** WARNING L16: UNCALLED SEGMENT, IGNORED FOR OVERLAY PROCESS
    SEGMENT: ?PR?_TRAMA_PTO_PARALELO_NEW?PTO_PARALELO

Program Size: data=119.7 xdata=613 code=32084
LINK/LOCATE RUN COMPLETE.  6 WARNING(S),  0 ERROR(S)
