BL51 BANKED LINKER/LOCATER V6.22.2.0                                                    11/05/2020  12:20:06  PAGE 1


BL51 BANKED LINKER/LOCATER V6.22.2.0, INVOKED BY:
C:\KEIL_V5\C51\BIN\BL51.EXE .\Objects\main.obj, .\Objects\Accescan.obj, .\Objects\Clock.obj, .\Objects\delay.obj, .\Obje
>> cts\eeprom.obj, .\Objects\io_sensores.obj, .\Objects\pantallas.obj, .\Objects\prog.obj, .\Objects\pto_paralelo.obj, .
>> \Objects\tibbo.obj, .\Objects\uart.obj, .\Objects\lintech.obj, .\Objects\verificador.obj, .\Objects\Monitor.obj TO .\
>> Objects\expedidor_v_01_raspberry PRINT (.\Listings\expedidor_v_01_raspberry.m51) RAMSIZE (256)


MEMORY MODEL: LARGE WITH FLOATING POINT ARITHMETIC


INPUT MODULES INCLUDED:
  .\Objects\main.obj (MAIN)
  .\Objects\Accescan.obj (ACCESCAN)
  .\Objects\Clock.obj (CLOCK)
  .\Objects\delay.obj (DELAY)
  .\Objects\eeprom.obj (EEPROM)
  .\Objects\io_sensores.obj (IO_SENSORES)
  .\Objects\pantallas.obj (PANTALLAS)
  .\Objects\prog.obj (PROG)
  .\Objects\pto_paralelo.obj (PTO_PARALELO)
  .\Objects\tibbo.obj (TIBBO)
  .\Objects\uart.obj (UART)
  .\Objects\lintech.obj (LINTECH)
  .\Objects\verificador.obj (VERIFICADOR)
  .\Objects\Monitor.obj (MONITOR)
  C:\KEIL_V5\C51\LIB\C51FPL.LIB (?C?FPADD)
  C:\KEIL_V5\C51\LIB\C51FPL.LIB (?C?FPMUL)
  C:\KEIL_V5\C51\LIB\C51FPL.LIB (?C?FCAST)
  C:\KEIL_V5\C51\LIB\C51FPL.LIB (?C?CASTF)
  C:\KEIL_V5\C51\LIB\C51FPL.LIB (PRINTF)
  C:\KEIL_V5\C51\LIB\C51FPL.LIB (POW)
  C:\KEIL_V5\C51\LIB\C51FPL.LIB (?C?FPGETOPN)
  C:\KEIL_V5\C51\LIB\C51FPL.LIB (?C?CHKFLOAT)
  C:\KEIL_V5\C51\LIB\C51FPL.LIB (?C?FPCMP)
  C:\KEIL_V5\C51\LIB\C51FPL.LIB (?C?FPNEG)
  C:\KEIL_V5\C51\LIB\C51FPL.LIB (?C?FPROUND)
  C:\KEIL_V5\C51\LIB\C51FPL.LIB (?C?FPCONVERT)
  C:\KEIL_V5\C51\LIB\C51FPL.LIB (EXP)
  C:\KEIL_V5\C51\LIB\C51FPL.LIB (LOG)
  C:\KEIL_V5\C51\LIB\C51FPL.LIB (?C?FPDIV)
  C:\KEIL_V5\C51\LIB\C51FPL.LIB (?C?FTNPWR)
  C:\KEIL_V5\C51\LIB\C51FPL.LIB (?C?FPSERIES)
  C:\KEIL_V5\C51\LIB\C51L.LIB (?C_STARTUP)
  C:\KEIL_V5\C51\LIB\C51L.LIB (?C?COPY)
  C:\KEIL_V5\C51\LIB\C51L.LIB (?C?CLDPTR)
  C:\KEIL_V5\C51\LIB\C51L.LIB (?C?CLDOPTR)
  C:\KEIL_V5\C51\LIB\C51L.LIB (?C?CSTPTR)
  C:\KEIL_V5\C51\LIB\C51L.LIB (?C?CSTOPTR)
  C:\KEIL_V5\C51\LIB\C51L.LIB (?C?IMUL)
  C:\KEIL_V5\C51\LIB\C51L.LIB (?C?IILDX)
  C:\KEIL_V5\C51\LIB\C51L.LIB (?C?LNEG)
  C:\KEIL_V5\C51\LIB\C51L.LIB (?C?SLCMP)
  C:\KEIL_V5\C51\LIB\C51L.LIB (?C?ULCMP)
  C:\KEIL_V5\C51\LIB\C51L.LIB (?C?ULSHR)
  C:\KEIL_V5\C51\LIB\C51L.LIB (?C?LSHL)
  C:\KEIL_V5\C51\LIB\C51L.LIB (?C?LLDCODE)
  C:\KEIL_V5\C51\LIB\C51L.LIB (?C?LLDXDATA0)
  C:\KEIL_V5\C51\LIB\C51L.LIB (?C?LLDCODE0)
BL51 BANKED LINKER/LOCATER V6.22.2.0                                                  11/05/2020  12:20:06  PAGE 2


  C:\KEIL_V5\C51\LIB\C51L.LIB (?C?LSTXDATA)
  C:\KEIL_V5\C51\LIB\C51L.LIB (?C?LSTKXDATA)
  C:\KEIL_V5\C51\LIB\C51L.LIB (?C?PLDIXDATA)
  C:\KEIL_V5\C51\LIB\C51L.LIB (?C?PSTXDATA)
  C:\KEIL_V5\C51\LIB\C51L.LIB (?C?CCASE)
  C:\KEIL_V5\C51\LIB\C51L.LIB (STRCAT)
  C:\KEIL_V5\C51\LIB\C51L.LIB (?C?STRCMP)
  C:\KEIL_V5\C51\LIB\C51L.LIB (?C?STRCPY)
  C:\KEIL_V5\C51\LIB\C51L.LIB (STRLEN)
  C:\KEIL_V5\C51\LIB\C51L.LIB (STRTOK)
  C:\KEIL_V5\C51\LIB\C51L.LIB (ATOL)
  C:\KEIL_V5\C51\LIB\C51L.LIB (ATOI)
  C:\KEIL_V5\C51\LIB\C51L.LIB (MALLOC)
  C:\KEIL_V5\C51\LIB\C51L.LIB (INIT_MEM)
  C:\KEIL_V5\C51\LIB\C51L.LIB (FREE)
  C:\KEIL_V5\C51\LIB\C51L.LIB (?C_INIT)
  C:\KEIL_V5\C51\LIB\C51L.LIB (?C?ILDIX)
  C:\KEIL_V5\C51\LIB\C51L.LIB (?C?LMUL)
  C:\KEIL_V5\C51\LIB\C51L.LIB (ISDIGIT)
  C:\KEIL_V5\C51\LIB\C51L.LIB (ISSPACE)
  C:\KEIL_V5\C51\LIB\C51L.LIB (STRSPN)
  C:\KEIL_V5\C51\LIB\C51L.LIB (STRPBRK)


LINK MAP OF MODULE:  .\Objects\expedidor_v_01_raspberry (MAIN)


            TYPE    BASE      LENGTH    RELOCATION   SEGMENT NAME
            -----------------------------------------------------

            * * * * * * *   D A T A   M E M O R Y   * * * * * * *
            REG     0000H     0008H     ABSOLUTE     "REG BANK 0"
            DATA    0008H     0005H     UNIT         _DATA_GROUP_
            DATA    000DH     0004H     UNIT         ?DT?UART
            IDATA   0011H     0009H     UNIT         ?ID?MONITOR
                    001AH     0006H                  *** GAP ***
            BIT     0020H.0   0001H.1   UNIT         _BIT_GROUP_
            BIT     0021H.1   0000H.2   UNIT         ?BI?MAIN
            BIT     0021H.3   0000H.2   UNIT         ?BI?UART
            BIT     0021H.5   0000H.1   UNIT         ?BI?EEPROM
            BIT     0021H.6   0000H.1   UNIT         ?BI?VERIFICADOR
                    0021H.7   0000H.1                *** GAP ***
            IDATA   0022H     0046H     UNIT         ?ID?MAIN
            IDATA   0068H     0001H     UNIT         ?STACK

            * * * * * * *  X D A T A   M E M O R Y  * * * * * * *
            XDATA   0000H     00B7H     UNIT         _XDATA_GROUP_
            XDATA   00B7H     008AH     UNIT         ?XD?VERIFICADOR
            XDATA   0141H     006CH     UNIT         ?XD?MAIN
            XDATA   01ADH     0059H     UNIT         ?XD?PROG
            XDATA   0206H     0050H     UNIT         ?XD?PANTALLAS
            XDATA   0256H     0008H     UNIT         ?XD?INIT_MEM
            XDATA   025EH     0003H     UNIT         ?XD?EEPROM
            XDATA   0261H     0003H     UNIT         ?XD?UART
            XDATA   0264H     0003H     UNIT         ?XD?STRTOK
            XDATA   0267H     0001H     UNIT         ?XD?ACCESCAN
            XDATA   0268H     0001H     UNIT         ?XD?CLOCK
BL51 BANKED LINKER/LOCATER V6.22.2.0                                                  11/05/2020  12:20:06  PAGE 3


            XDATA   0269H     0001H     UNIT         ?XD?IO_SENSORES

            * * * * * * *   C O D E   M E M O R Y   * * * * * * *
            CODE    0000H     0003H     ABSOLUTE     
            CODE    0003H     0008H     UNIT         ?PR?P_CK?CLOCK
            CODE    000BH     0003H     ABSOLUTE     
            CODE    000EH     0015H     UNIT         ?PR?_STRLEN?STRLEN
            CODE    0023H     0003H     ABSOLUTE     
            CODE    0026H     1308H     UNIT         ?CO?PROG
            CODE    132EH     0B8BH     UNIT         ?C?LIB_CODE
            CODE    1EB9H     0795H     UNIT         ?CO?VERIFICADOR
            CODE    264EH     06F4H     UNIT         ?PR?_PANTALLALCD?PANTALLAS
            CODE    2D42H     0656H     UNIT         ?CO?PANTALLAS
            CODE    3398H     0483H     UNIT         ?PR?PRINTF?PRINTF
            CODE    381BH     046CH     UNIT         ?PR?_SECUENCIAEXPEDIDORMF?VERIFICADOR
            CODE    3C87H     035CH     UNIT         ?PR?VER_PROG?PROG
            CODE    3FE3H     033EH     UNIT         ?PR?_VALIDA_TRAMA_PTO?ACCESCAN
            CODE    4321H     02D0H     UNIT         ?PR?_TWO_BYTEHEX_DECIMAL?CLOCK
            CODE    45F1H     02B7H     UNIT         ?PR?_PROG_HORARIO_DIAS?PROG
            CODE    48A8H     02B2H     UNIT         ?PR?_PANTALLALCD_LINEA_2?PANTALLAS
            CODE    4B5AH     022CH     UNIT         ?PR?MENU?PROG
            CODE    4D86H     0208H     UNIT         ?PR?_HASH_ID?PROG
            CODE    4F8EH     01FAH     UNIT         ?PR?_PROG_HORARIO_DESDE_HASTA?PROG
            CODE    5188H     01F5H     UNIT         ?PR?PROG_FECHA_VENCIMIENTO?PROG
            CODE    537DH     01DFH     UNIT         ?PR?_RESPONDE_LECTURA_TARJETA_SECTOR1_BLOQUE1?VERIFICADOR
            CODE    555CH     01B3H     UNIT         ?PR?COM_ISR?UART
            CODE    570FH     01A9H     UNIT         ?PR?_ARMAR_TRAMA_PTO_PARALELO_EXPEDIDOR?VERIFICADOR
            CODE    58B8H     01A4H     UNIT         ?PR?_VALIDA_TIPO_TARJETA?VERIFICADOR
            CODE    5A5CH     017AH     UNIT         ?CO?LINTECH
            CODE    5BD6H     016EH     UNIT         ?PR?_BLOCK_READ_CLOCK_ASCII?CLOCK
            CODE    5D44H     0166H     UNIT         ?PR?_POW?POW
            CODE    5EAAH     0154H     UNIT         ?PR?_ARMAR_TRAMA_MONITOR?VERIFICADOR
            CODE    5FFEH     0145H     UNIT         ?PR?PROG_HORARIOS?PROG
            CODE    6143H     0142H     UNIT         ?PR?_ARMAR_TRAMA_TARJETA_SECTOR1_BLOQUE2?VERIFICADOR
            CODE    6285H     013FH     UNIT         ?PR?_FREE?FREE
            CODE    63C4H     013EH     UNIT         ?PR?PROG_SIN_COBRO?PROG
            CODE    6502H     013EH     UNIT         ?PR?SECUENCIA_INICIO_EXPEDIDOR?VERIFICADOR
            CODE    6640H     0137H     UNIT         ?PR?VER_HORARIO?PROG
            CODE    6777H     012BH     UNIT         ?PR?_RESPONDE_LECTURA_TARJETA_SECTOR1_BLOQUE2?VERIFICADOR
            CODE    68A2H     0129H     UNIT         ?PR?LOG?LOG
            CODE    69CBH     0128H     UNIT         ?PR?_VER_HORARIO_DIAS?PROG
            CODE    6AF3H     011CH     UNIT         ?PR?LOAD_AND_SEND_ID_COD?PTO_PARALELO
            CODE    6C0FH     011AH     UNIT         ?PR?_PROG_HORARIOS_ON_OFF?PROG
            CODE    6D29H     0119H     UNIT         ?PR?_VER_HORARIO_DESDE_HASTA?PROG
            CODE    6E42H     0115H     UNIT         ?PR?_VALIDAR_CLK?CLOCK
            CODE    6F57H     010FH     UNIT         ?PR?_HORARIOS?VERIFICADOR
            CODE    7066H     010CH     UNIT         ?PR?_ATOL?ATOL
            CODE    7172H     0103H     UNIT         ?PR?_BLOQUE_HORARIO?VERIFICADOR
            CODE    7275H     0100H     UNIT         ?PR?_WR_MF?LINTECH
            CODE    7375H     00FCH     UNIT         ?PR?PROG_DEBUG?PROG
            CODE    7471H     00FCH     UNIT         ?PR?PROG_USE_LPR?PROG
            CODE    756DH     00FCH     UNIT         ?PR?TIPO_PANTALLA?PROG
            CODE    7669H     00FCH     UNIT         ?PR?PROG_ANTIPASSBACK?PROG
            CODE    7765H     00FCH     UNIT         ?PR?PROG_PLACA?PROG
            CODE    7861H     00FCH     UNIT         ?PR?PROG_VALIDAR_TIPO_VEHICULO_MENSUAL?PROG
            CODE    795DH     00FCH     UNIT         ?PR?PROG_APB_MENSUAL?PROG
            CODE    7A59H     00F1H     UNIT         ?PR?_WRITE_EEPROM_TICKET?EEPROM
BL51 BANKED LINKER/LOCATER V6.22.2.0                                                  11/05/2020  12:20:06  PAGE 4


            CODE    7B4AH     00EAH     UNIT         ?PR?_MOV_CARD?LINTECH
            CODE    7C34H     00E4H     UNIT         ?PR?_STRTOK?STRTOK
            CODE    7D18H     00DEH     UNIT         ?PR?PROG_ADDRESS_HIGH_BOARD?PROG
            CODE    7DF6H     00DBH     UNIT         ?PR?_ATOI?ATOI
            CODE    7ED1H     00D7H     UNIT         ?PR?_ANALIZA_UID_CARD?VERIFICADOR
            CODE    7FA8H     00D6H     UNIT         ?PR?_CMD_LPR_SALIDA_WIEGAND?ACCESCAN
            CODE    807EH     00D1H     UNIT         ?PR?_ARMAR_TRAMA_PTO_PARALELO_EXPEDIDOR_MENSUAL?VERIFICADOR
            CODE    814FH     00D1H     UNIT         ?PR?_MALLOC?MALLOC
            CODE    8220H     00CEH     UNIT         ?C_INITSEG
            CODE    82EEH     00CCH     UNIT         ?PR?_GRABA_SERIE?EEPROM
            CODE    83BAH     00CBH     UNIT         ?PR?_RTA_CMD_TRANSPORTE?VERIFICADOR
            CODE    8485H     00CAH     UNIT         ?PR?READ_EEPROM_TICKET?EEPROM
            CODE    854FH     00C9H     UNIT         ?PR?_CHECK_FECHAOUT?CLOCK
            CODE    8618H     00C4H     UNIT         ?PR?_BLOCK_READ_CLOCK?CLOCK
            CODE    86DCH     00C4H     UNIT         ?PR?_TARJETA_MENSUAL?VERIFICADOR
            CODE    87A0H     00C3H     UNIT         ?PR?_RD_MF?LINTECH
            CODE    8863H     00C2H     UNIT         ?PR?PROG_TARJETA_AUTOMATICA_O_BOTON?PROG
            CODE    8925H     00C1H     UNIT         ?PR?_RECIBE_CMD_MONITOR?MONITOR
            CODE    89E6H     00BEH     UNIT         ?PR?ERROR_RX_PTO?VERIFICADOR
            CODE    8AA4H     00BDH     UNIT         ?PR?PROG_COD_PARK?PROG
            CODE    8B61H     00BDH     UNIT         ?PR?PROG_TIEMPO_GRACIA?PROG
            CODE    8C1EH     00BAH     UNIT         ?CO?TIBBO
            CODE    8CD8H     00B6H     UNIT         ?PR?PROG_ID_CLIENTE?PROG
            CODE    8D8EH     00B5H     UNIT         ?PR?_WAIT_PLACA?VERIFICADOR
            CODE    8E43H     00B4H     UNIT         ?PR?_SEND_PORT?PTO_PARALELO
            CODE    8EF7H     00ADH     UNIT         ?CO?IO_SENSORES
            CODE    8FA4H     00ACH     UNIT         ?PR?_HORA_MAXIMA?VERIFICADOR
            CODE    9050H     00AAH     UNIT         ?PR?CLAVE_SEGURIDAD_S2?LINTECH
            CODE    90FAH     00A9H     UNIT         ?PR?DWLOAD_EEPROM?LINTECH
            CODE    91A3H     00A6H     UNIT         ?PR?_BLOCK_READ_CLOCK_HEX?CLOCK
            CODE    9249H     00A4H     UNIT         ?PR?_ARMAR_TRAMA_TARJETA_SECTOR1_BLOQUE1_CAMCEL?VERIFICADOR
            CODE    92EDH     009DH     UNIT         ?PR?_INICIALIZA?LINTECH
            CODE    938AH     009CH     UNIT         ?PR?_RESPUESTA_PLACA_CANCEL?VERIFICADOR
            CODE    9426H     009BH     UNIT         ?PR?_VALIDA_TRAMA_MONITOR?MONITOR
            CODE    94C1H     009AH     UNIT         ?PR?_RESPONDE_LECTURA_TARJETA_SECTOR1_BLOQUE0?VERIFICADOR
            CODE    955BH     009AH     UNIT         ?PR?EXP?EXP
            CODE    95F5H     0099H     UNIT         ?PR?SHOW?PROG
            CODE    968EH     0099H     UNIT         ?PR?_RECIBE_PORT?PTO_PARALELO
            CODE    9727H     0098H     UNIT         ?PR?_VALIDA_VEHICULO_CARD_MENSUAL?VERIFICADOR
            CODE    97BFH     0091H     UNIT         ?PR?_HEX_ASCII?CLOCK
            CODE    9850H     0091H     UNIT         ?PR?_CARD_INSERCION?LINTECH
            CODE    98E1H     0090H     UNIT         ?PR?_LEE_CLK?CLOCK
            CODE    9971H     0090H     UNIT         ?PR?_GETOPTION?PROG
            CODE    9A01H     008FH     UNIT         ?PR?_BLOCK_WRITE_CLOCK_ASCII?CLOCK
            CODE    9A90H     008FH     UNIT         ?PR?_RESPONDE_WRITE_TARJETA_SECTOR1_BLOQUE2?VERIFICADOR
            CODE    9B1FH     008DH     UNIT         ?PR?LOADVERIFY_EEPROM?LINTECH
            CODE    9BACH     008CH     UNIT         ?C_C51STARTUP
            CODE    9C38H     0089H     UNIT         ?PR?_RASPBERRY_DATA?PANTALLAS
            CODE    9CC1H     0088H     UNIT         ?PR?_SEND_PORTERR?PTO_PARALELO
            CODE    9D49H     0088H     UNIT         ?PR?RX_DATA?TIBBO
            CODE    9DD1H     0088H     UNIT         ?PR?UNIQUE_IDENTIFIER_UID?LINTECH
            CODE    9E59H     0084H     UNIT         ?PR?_STRSPN?STRSPN
            CODE    9EDDH     0082H     UNIT         ?PR?_SEND_PTO_PARALELO?VERIFICADOR
            CODE    9F5FH     0081H     UNIT         ?PR?_STRPBRK?STRPBRK
            CODE    9FE0H     0080H     UNIT         ?PR?MSJ_LCD_INFORMATIVO?IO_SENSORES
            CODE    A060H     0080H     UNIT         ?PR?_INGRESADATO?PROG
            CODE    A0E0H     0080H     UNIT         ?PR?AUT_CARD_CHECK_STATUS?LINTECH
BL51 BANKED LINKER/LOCATER V6.22.2.0                                                  11/05/2020  12:20:06  PAGE 5


            CODE    A160H     0080H     UNIT         ?PR?POWER_OFF?LINTECH
            CODE    A1E0H     007CH     UNIT         ?PR?MAIN?MAIN
            CODE    A25CH     007CH     UNIT         ?PR?_CHECK_STATUS?LINTECH
            CODE    A2D8H     007CH     UNIT         ?PR?RESPONDE_ESTADO_SENSORES_TRANSPORTE?VERIFICADOR
            CODE    A354H     0079H     UNIT         ?PR?ENTREGA_CARD_CAPTURA?VERIFICADOR
            CODE    A3CDH     0077H     UNIT         ?PR?RESPONDE_TIPO_TARJETA?VERIFICADOR
            CODE    A444H     0073H     UNIT         ?PR?_DEBUGBUFFERMF?TIBBO
            CODE    A4B7H     0071H     UNIT         ?PR?_EN_HORARIO?VERIFICADOR
            CODE    A528H     006FH     UNIT         ?PR?_ESCRIBIRMEMORIA?EEPROM
            CODE    A597H     006BH     UNIT         ?PR?_STRCAT?STRCAT
            CODE    A602H     0066H     UNIT         ?PR?_LEERMEMORIA?EEPROM
            CODE    A668H     0066H     UNIT         ?PR?_DISPARO_LOCK_ENTRADA_VEHICULO?VERIFICADOR
            CODE    A6CEH     0062H     UNIT         ?PR?_LISTACOMANDOS?PROG
            CODE    A730H     0061H     UNIT         ?PR?_PREGUNTA_LPR?VERIFICADOR
            CODE    A791H     005EH     UNIT         ?PR?_BYTEHEX_DECIMAL?CLOCK
            CODE    A7EFH     005DH     UNIT         ?PR?_RESPUESTA_SEGUNDA_CLAVE?VERIFICADOR
            CODE    A84CH     0059H     UNIT         ?PR?INGRESO_VEHICULO?VERIFICADOR
            CODE    A8A5H     0058H     UNIT         ?PR?VALIDA_SENSOR1_AUTO?IO_SENSORES
            CODE    A8FDH     0058H     UNIT         ?PR?_ARMAR_TRAMA_PLACA?VERIFICADOR
            CODE    A955H     0056H     UNIT         ?PR?_WR_EEPROM?EEPROM
            CODE    A9ABH     004EH     UNIT         ?PR?RELOJ_PANTALLA_LCD?PANTALLAS
            CODE    A9F9H     004DH     UNIT         ?PR?VARIABLE_INICIO?MAIN
            CODE    AA46H     004DH     UNIT         ?PR?L_D_M?EEPROM
            CODE    AA93H     004CH     UNIT         ?PR?LEE_NO_TICKET?EEPROM
            CODE    AADFH     004BH     UNIT         ?PR?_TX_AUX?TIBBO
            CODE    AB2AH     0049H     UNIT         ?PR?_DEBUG_TXT_TIBBO?TIBBO
            CODE    AB73H     0048H     UNIT         ?PR?FIRST_CLAVE?PROG
            CODE    ABBBH     0047H     UNIT         ?PR?_DEBUG_CHR_TIBBO?TIBBO
            CODE    AC02H     0047H     UNIT         ?PR?_RESPONDE_WRITE_TARJETA_SECTOR2_BLOQUE0?VERIFICADOR
            CODE    AC49H     0046H     UNIT         ?PR?_ESCRIBIRCADENASOFT_BUFFER?MAIN
            CODE    AC8FH     0046H     UNIT         ?PR?_LCD_TXT_NUM_CHAR?PANTALLAS
            CODE    ACD5H     0046H     UNIT         ?PR?_DEBUG_HEXDEC?TIBBO
            CODE    AD1BH     0044H     UNIT         ?PR?_LCD_TXT?PANTALLAS
            CODE    AD5FH     0043H     UNIT         ?PR?DIR_BOARD?IO_SENSORES
            CODE    ADA2H     0042H     UNIT         ?PR?_VALIDARCLAVE?PROG
            CODE    ADE4H     0041H     UNIT         ?PR?_MONITOR_CHR?ACCESCAN
            CODE    AE25H     0041H     UNIT         ?PR?_TWO_ONE?CLOCK
            CODE    AE66H     0040H     UNIT         ?PR?_GETCMD?PROG
            CODE    AEA6H     003FH     UNIT         ?PR?_EB_CLK?CLOCK
            CODE    AEE5H     003EH     UNIT         ?PR?_PUTCHAR?MAIN
            CODE    AF23H     003DH     UNIT         ?PR?_HEX_BCD?CLOCK
            CODE    AF60H     003DH     UNIT         ?PR?_RD_EEPROM?EEPROM
            CODE    AF9DH     003DH     UNIT         ?PR?_LOAD_SECUENCIA_EXPEDIDOR?VERIFICADOR
            CODE    AFDAH     003CH     UNIT         ?PR?_INIT_MEMPOOL?INIT_MEM
            CODE    B016H     003BH     UNIT         ?CO?EEPROM
            CODE    B051H     003BH     UNIT         ?PR?_DEBUG_PTO_PARALELO?TIBBO
            CODE    B08CH     003BH     UNIT         ?PR?_COM_PUTCHAR?UART
            CODE    B0C7H     003AH     UNIT         ?PR?_DELAY_10MS?DELAY
            CODE    B101H     0038H     UNIT         ?PR?VALIDASENSORESPASO?IO_SENSORES
            CODE    B139H     0036H     UNIT         ?PR?_RESPONDE_WRITE_TARJETA_SECTOR1_BLOQUE1?VERIFICADOR
            CODE    B16FH     0036H     UNIT         ?PR?_RESPONDE_WRITE_TARJETA_SECTOR1_BLOQUE0?VERIFICADOR
            CODE    B1A5H     0034H     UNIT         ?PR?INCREMENTE_TICKET?EEPROM
            CODE    B1D9H     0034H     UNIT         ?PR?ADDR_HORARIOS?PROG
            CODE    B20DH     0033H     UNIT         ?PR?TRAMA_VALIDACION_P_N?VERIFICADOR
            CODE    B240H     0032H     UNIT         ?PR?_DEBUG_MONITOR?TIBBO
            CODE    B272H     0031H     UNIT         ?PR?_TARJETA_ROTACION?VERIFICADOR
            CODE    B2A3H     002EH     UNIT         ?PR?TIMER0_INT?MAIN
BL51 BANKED LINKER/LOCATER V6.22.2.0                                                  11/05/2020  12:20:06  PAGE 6


            CODE    B2D1H     002CH     UNIT         ?PR?LOAD_AND_SEND_INFO_RELOJ?PTO_PARALELO
            CODE    B2FDH     002AH     UNIT         ?PR?COM_INITIALIZE?UART
            CODE    B327H     0028H     UNIT         ?PR?_WR_CLK?CLOCK
            CODE    B34FH     0028H     UNIT         ?PR?COM_BAUDRATE?UART
            CODE    B377H     0028H     UNIT         ?PR?_ARMAR_TRAMA_TARJETA_SECTOR1_BLOQUE0?VERIFICADOR
            CODE    B39FH     0027H     UNIT         ?PR?_TX_CHRLCD?PANTALLAS
            CODE    B3C6H     0026H     UNIT         ?PR?COM_GETCHAR?UART
            CODE    B3ECH     0026H     UNIT         ?PR?ANALIZA_PRESENCIA_MENSUAL?VERIFICADOR
            CODE    B412H     0026H     UNIT         ?PR?RX_MONITOR?MONITOR
            CODE    B438H     0023H     UNIT         ?PR?ANALIZA_PRESENCIA_ROTACION?VERIFICADOR
            CODE    B45BH     0022H     UNIT         ?PR?_E_D_M?EEPROM
            CODE    B47DH     0020H     UNIT         ?PR?ACKD?EEPROM
            CODE    B49DH     0020H     UNIT         ?PR?ACK_LECT?EEPROM
            CODE    B4BDH     001FH     UNIT         ?PR?VALIDASENSOR?IO_SENSORES
            CODE    B4DCH     001FH     UNIT         ?PR?TIME_BIT?TIBBO
            CODE    B4FBH     001EH     UNIT         ?PR?_BCD_HEX?CLOCK
            CODE    B519H     001BH     UNIT         ?PR?_DELAY_1MS?DELAY
            CODE    B534H     0018H     UNIT         ?PR?CLEAR_PLACA?MONITOR
            CODE    B54CH     0017H     UNIT         ?PR?DISPLAYCURSOR?PROG
            CODE    B563H     0017H     UNIT         ?PR?TIME_MBIT?TIBBO
            CODE    B57AH     0016H     UNIT         ?PR?DIR_BOARD_MONITOR?IO_SENSORES
            CODE    B590H     0014H     UNIT         ?PR?DEBUG_DIVIDIR_TEXTO?TIBBO
            CODE    B5A4H     0014H     UNIT         ?PR?_ISSPACE?ISSPACE
            CODE    B5B8H     0012H     UNIT         ?PR?_DELAY_20US?DELAY
            CODE    B5CAH     0012H     UNIT         ?PR?START?EEPROM
            CODE    B5DCH     0012H     UNIT         ?PR?PULSO_BUS?PTO_PARALELO
            CODE    B5EEH     0012H     UNIT         ?PR?COM_RBUFLEN?UART
            CODE    B600H     0012H     UNIT         ?PR?COM_TBUFLEN?UART
            CODE    B612H     0010H     UNIT         ?PR?INI_TIMER?MAIN
            CODE    B622H     0010H     UNIT         ?PR?INICIA_BOARD?MAIN
            CODE    B632H     000FH     UNIT         ?PR?_ISDIGIT?ISDIGIT
            CODE    B641H     000CH     UNIT         ?PR?_GETKEY?MAIN
            CODE    B64DH     000AH     UNIT         ?PR?COND_INI_PTO?PTO_PARALELO
            CODE    B657H     0009H     UNIT         ?PR?STOP?EEPROM
            CODE    B660H     0009H     UNIT         ?PR?CAPTURA_EXPULSA?VERIFICADOR
            CODE    B669H     0007H     UNIT         ?PR?COND_INI_CLOCK?CLOCK
            CODE    B670H     0007H     UNIT         ?PR?SEL_FUNCION?IO_SENSORES
            CODE    B677H     0007H     UNIT         ?PR?SEL_AUTO?IO_SENSORES
            CODE    B67EH     0007H     UNIT         ?PR?SEL_PULSA?IO_SENSORES
            CODE    B685H     0007H     UNIT         ?PR?SEL_SENSOR2?IO_SENSORES
            CODE    B68CH     0007H     UNIT         ?PR?SEL_SENSOR1?IO_SENSORES
            CODE    B693H     0007H     UNIT         ?PR?SEL_DIR1?IO_SENSORES
            CODE    B69AH     0007H     UNIT         ?PR?SEL_DIR2?IO_SENSORES
            CODE    B6A1H     0006H     UNIT         ?PR?P_ME?EEPROM
            CODE    B6A7H     0005H     UNIT         ?PR?ON_TIMER0_INTERRUP?MAIN
            CODE    B6ACH     0005H     UNIT         ?CO?ACCESCAN
            CODE    B6B1H     0005H     UNIT         ?PR?COND_INI_TIBBO?TIBBO
            CODE    B6B6H     0003H     UNIT         ?PR?OFF_TIMER0_INTERRUP?MAIN
            CODE    B6B9H     0003H     UNIT         ?CO?PTO_PARALELO
            CODE    B6BCH     0001H     UNIT         ?PR?DELAY?DELAY



OVERLAY MAP OF MODULE:   .\Objects\expedidor_v_01_raspberry (MAIN)


SEGMENT                                             BIT_GROUP          DATA_GROUP          XDATA_GROUP
BL51 BANKED LINKER/LOCATER V6.22.2.0                                                  11/05/2020  12:20:06  PAGE 7


  +--> CALLED SEGMENT                            START    LENGTH     START    LENGTH     START    LENGTH
--------------------------------------------------------------------------------------------------------
?C_C51STARTUP                                    -----    -----      -----    -----      -----    -----
  +--> ?PR?MAIN?MAIN
  +--> ?C_INITSEG

?PR?MAIN?MAIN                                    -----    -----      -----    -----      0000H    0001H
  +--> ?PR?INI_TIMER?MAIN
  +--> ?PR?ON_TIMER0_INTERRUP?MAIN
  +--> ?PR?COM_INITIALIZE?UART
  +--> ?PR?COM_BAUDRATE?UART
  +--> ?PR?INICIA_BOARD?MAIN
  +--> ?PR?TIME_BIT?TIBBO
  +--> ?PR?_DELAY_20US?DELAY
  +--> ?PR?TIME_MBIT?TIBBO
  +--> ?PR?_TX_AUX?TIBBO
  +--> ?PR?SEL_FUNCION?IO_SENSORES
  +--> ?PR?MENU?PROG
  +--> ?PR?VARIABLE_INICIO?MAIN
  +--> ?PR?SECUENCIA_INICIO_EXPEDIDOR?VERIFI...
  +--> ?PR?RX_MONITOR?MONITOR
  +--> ?PR?_SECUENCIAEXPEDIDORMF?VERIFICADOR
  +--> ?PR?_RECIBE_PORT?PTO_PARALELO
  +--> ?PR?_DEBUG_PTO_PARALELO?TIBBO
  +--> ?PR?_VALIDA_TRAMA_PTO?ACCESCAN
  +--> ?PR?MSJ_LCD_INFORMATIVO?IO_SENSORES

?PR?COM_INITIALIZE?UART                          -----    -----      -----    -----      -----    -----
  +--> ?PR?COM_BAUDRATE?UART

?PR?INICIA_BOARD?MAIN                            -----    -----      -----    -----      -----    -----
  +--> ?PR?COND_INI_TIBBO?TIBBO
  +--> ?PR?COND_INI_CLOCK?CLOCK
  +--> ?PR?COND_INI_PTO?PTO_PARALELO

?PR?_TX_AUX?TIBBO                                -----    -----      -----    -----      -----    -----
  +--> ?PR?TIME_BIT?TIBBO

?PR?MENU?PROG                                    -----    -----      -----    -----      0001H    0045H
  +--> ?CO?PROG
  +--> ?PR?PRINTF?PRINTF
  +--> ?PR?_RD_EEPROM?EEPROM
  +--> ?PR?FIRST_CLAVE?PROG
  +--> ?PR?_WR_EEPROM?EEPROM
  +--> ?PR?_LEERMEMORIA?EEPROM
  +--> ?PR?_HASH_ID?PROG
  +--> ?PR?_INGRESADATO?PROG
  +--> ?PR?_GETCMD?PROG
  +--> ?PR?_ESCRIBIRMEMORIA?EEPROM
  +--> ?PR?_VALIDARCLAVE?PROG
  +--> ?PR?DISPLAYCURSOR?PROG
  +--> ?PR?_STRLEN?STRLEN
  +--> ?PR?_GETOPTION?PROG
  +--> ?PR?_STRCAT?STRCAT
  +--> ?PR?_LISTACOMANDOS?PROG
  +--> ?PR?PROG_ID_CLIENTE?PROG
  +--> ?PR?PROG_COD_PARK?PROG
BL51 BANKED LINKER/LOCATER V6.22.2.0                                                  11/05/2020  12:20:06  PAGE 8


  +--> ?PR?PROG_TIEMPO_GRACIA?PROG
  +--> ?PR?PROG_SIN_COBRO?PROG
  +--> ?PR?PROG_DEBUG?PROG
  +--> ?PR?PROG_USE_LPR?PROG
  +--> ?PR?TIPO_PANTALLA?PROG
  +--> ?PR?PROG_TARJETA_AUTOMATICA_O_BOTON?PROG
  +--> ?PR?PROG_ANTIPASSBACK?PROG
  +--> ?PR?PROG_PLACA?PROG
  +--> ?PR?PROG_ADDRESS_HIGH_BOARD?PROG
  +--> ?PR?PROG_HORARIOS?PROG
  +--> ?PR?PROG_VALIDAR_TIPO_VEHICULO_MENSUA...
  +--> ?PR?PROG_APB_MENSUAL?PROG
  +--> ?PR?VER_PROG?PROG
  +--> ?PR?SHOW?PROG
  +--> ?PR?PROG_FECHA_VENCIMIENTO?PROG

?PR?PRINTF?PRINTF                                0020H.0  0001H.1    0008H    0005H      0077H    0030H
  +--> ?PR?_PUTCHAR?MAIN

?PR?_PUTCHAR?MAIN                                -----    -----      -----    -----      00A7H    0003H
  +--> ?PR?_COM_PUTCHAR?UART

?PR?_COM_PUTCHAR?UART                            -----    -----      -----    -----      00AAH    0001H
  +--> ?PR?COM_TBUFLEN?UART

?PR?_RD_EEPROM?EEPROM                            -----    -----      -----    -----      -----    -----
  +--> ?PR?START?EEPROM
  +--> ?PR?ACK_LECT?EEPROM
  +--> ?PR?_E_D_M?EEPROM
  +--> ?PR?ACKD?EEPROM
  +--> ?PR?L_D_M?EEPROM
  +--> ?PR?STOP?EEPROM

?PR?ACK_LECT?EEPROM                              -----    -----      -----    -----      -----    -----
  +--> ?PR?_E_D_M?EEPROM

?PR?_E_D_M?EEPROM                                -----    -----      -----    -----      -----    -----
  +--> ?PR?P_ME?EEPROM

?PR?ACKD?EEPROM                                  -----    -----      -----    -----      -----    -----
  +--> ?PR?_E_D_M?EEPROM

?PR?FIRST_CLAVE?PROG                             -----    -----      -----    -----      0046H    000BH
  +--> ?PR?_BLOCK_READ_CLOCK_ASCII?CLOCK
  +--> ?PR?_HASH_ID?PROG
  +--> ?PR?_ESCRIBIRMEMORIA?EEPROM

?PR?_BLOCK_READ_CLOCK_ASCII?CLOCK                -----    -----      -----    -----      0051H    0003H
  +--> ?PR?_LEE_CLK?CLOCK

?PR?_LEE_CLK?CLOCK                               -----    -----      -----    -----      00B1H    0003H
  +--> ?PR?_DELAY_20US?DELAY
  +--> ?PR?_EB_CLK?CLOCK
  +--> ?PR?P_CK?CLOCK

?PR?_EB_CLK?CLOCK                                -----    -----      -----    -----      00B4H    0003H
  +--> ?PR?P_CK?CLOCK
BL51 BANKED LINKER/LOCATER V6.22.2.0                                                  11/05/2020  12:20:06  PAGE 9



?PR?P_CK?CLOCK                                   -----    -----      -----    -----      -----    -----
  +--> ?PR?DELAY?DELAY

?PR?_HASH_ID?PROG                                -----    -----      -----    -----      005DH    003FH
  +--> ?CO?PROG
  +--> ?PR?_LEERMEMORIA?EEPROM
  +--> ?PR?_CHECK_FECHAOUT?CLOCK
  +--> ?PR?_STRLEN?STRLEN

?PR?_LEERMEMORIA?EEPROM                          -----    -----      -----    -----      009CH    0005H
  +--> ?PR?_RD_EEPROM?EEPROM

?PR?_CHECK_FECHAOUT?CLOCK                        -----    -----      -----    -----      009CH    0012H
  +--> ?PR?_BLOCK_READ_CLOCK_HEX?CLOCK

?PR?_BLOCK_READ_CLOCK_HEX?CLOCK                  -----    -----      -----    -----      00AEH    0003H
  +--> ?PR?_LEE_CLK?CLOCK
  +--> ?PR?_BCD_HEX?CLOCK

?PR?_ESCRIBIRMEMORIA?EEPROM                      -----    -----      -----    -----      005DH    0005H
  +--> ?PR?_WR_EEPROM?EEPROM

?PR?_WR_EEPROM?EEPROM                            -----    -----      -----    -----      -----    -----
  +--> ?PR?START?EEPROM
  +--> ?PR?ACKD?EEPROM
  +--> ?PR?_E_D_M?EEPROM
  +--> ?PR?STOP?EEPROM
  +--> ?PR?_DELAY_1MS?DELAY
  +--> ?PR?_DELAY_20US?DELAY

?PR?_DELAY_1MS?DELAY                             -----    -----      -----    -----      -----    -----
  +--> ?PR?_DELAY_20US?DELAY

?PR?_INGRESADATO?PROG                            -----    -----      -----    -----      0071H    0004H
  +--> ?PR?_GETKEY?MAIN
  +--> ?CO?PROG
  +--> ?PR?PRINTF?PRINTF
  +--> ?PR?_PUTCHAR?MAIN

?PR?_GETKEY?MAIN                                 -----    -----      -----    -----      -----    -----
  +--> ?PR?COM_GETCHAR?UART

?PR?COM_GETCHAR?UART                             -----    -----      -----    -----      -----    -----
  +--> ?PR?COM_RBUFLEN?UART

?PR?_GETCMD?PROG                                 -----    -----      -----    -----      005DH    0007H
  +--> ?CO?PROG
  +--> ?PR?_STRTOK?STRTOK

?PR?_STRTOK?STRTOK                               -----    -----      -----    -----      0064H    0006H
  +--> ?PR?_STRSPN?STRSPN
  +--> ?PR?_STRPBRK?STRPBRK

?PR?_STRSPN?STRSPN                               -----    -----      -----    -----      006AH    0008H

?PR?_STRPBRK?STRPBRK                             -----    -----      -----    -----      006AH    0009H
BL51 BANKED LINKER/LOCATER V6.22.2.0                                                  11/05/2020  12:20:06  PAGE 10



?PR?_VALIDARCLAVE?PROG                           -----    -----      -----    -----      005DH    000EH

?PR?DISPLAYCURSOR?PROG                           -----    -----      -----    -----      -----    -----
  +--> ?CO?PROG
  +--> ?PR?PRINTF?PRINTF

?PR?_GETOPTION?PROG                              -----    -----      -----    -----      0046H    000BH
  +--> ?CO?PROG
  +--> ?PR?_STRTOK?STRTOK

?PR?_STRCAT?STRCAT                               -----    -----      -----    -----      0046H    0009H

?PR?_LISTACOMANDOS?PROG                          -----    -----      -----    -----      0046H    0007H

?PR?PROG_ID_CLIENTE?PROG                         -----    -----      -----    -----      0046H    000CH
  +--> ?PR?_RD_EEPROM?EEPROM
  +--> ?CO?PROG
  +--> ?PR?PRINTF?PRINTF
  +--> ?PR?_INGRESADATO?PROG
  +--> ?PR?_ATOI?ATOI
  +--> ?PR?_WR_EEPROM?EEPROM

?PR?_ATOI?ATOI                                   0020H.0  0000H.1    -----    -----      0071H    0005H
  +--> ?PR?_ISSPACE?ISSPACE
  +--> ?PR?_ISDIGIT?ISDIGIT

?PR?PROG_COD_PARK?PROG                           -----    -----      -----    -----      0046H    000CH
  +--> ?PR?_RD_EEPROM?EEPROM
  +--> ?CO?PROG
  +--> ?PR?PRINTF?PRINTF
  +--> ?PR?_INGRESADATO?PROG
  +--> ?PR?_ATOI?ATOI
  +--> ?PR?_WR_EEPROM?EEPROM

?PR?PROG_TIEMPO_GRACIA?PROG                      -----    -----      -----    -----      0046H    000CH
  +--> ?PR?_RD_EEPROM?EEPROM
  +--> ?CO?PROG
  +--> ?PR?PRINTF?PRINTF
  +--> ?PR?_INGRESADATO?PROG
  +--> ?PR?_ATOI?ATOI
  +--> ?PR?_WR_EEPROM?EEPROM

?PR?PROG_SIN_COBRO?PROG                          -----    -----      -----    -----      0046H    000CH
  +--> ?PR?_RD_EEPROM?EEPROM
  +--> ?CO?PROG
  +--> ?PR?PRINTF?PRINTF
  +--> ?PR?_INGRESADATO?PROG
  +--> ?PR?_ATOI?ATOI
  +--> ?PR?_WR_EEPROM?EEPROM

?PR?PROG_DEBUG?PROG                              -----    -----      -----    -----      0046H    000CH
  +--> ?PR?_RD_EEPROM?EEPROM
  +--> ?CO?PROG
  +--> ?PR?PRINTF?PRINTF
  +--> ?PR?_INGRESADATO?PROG
  +--> ?PR?_ATOI?ATOI
BL51 BANKED LINKER/LOCATER V6.22.2.0                                                  11/05/2020  12:20:06  PAGE 11


  +--> ?PR?_WR_EEPROM?EEPROM

?PR?PROG_USE_LPR?PROG                            -----    -----      -----    -----      0046H    000CH
  +--> ?PR?_RD_EEPROM?EEPROM
  +--> ?CO?PROG
  +--> ?PR?PRINTF?PRINTF
  +--> ?PR?_INGRESADATO?PROG
  +--> ?PR?_ATOI?ATOI
  +--> ?PR?_WR_EEPROM?EEPROM

?PR?TIPO_PANTALLA?PROG                           -----    -----      -----    -----      0046H    000CH
  +--> ?PR?_RD_EEPROM?EEPROM
  +--> ?CO?PROG
  +--> ?PR?PRINTF?PRINTF
  +--> ?PR?_INGRESADATO?PROG
  +--> ?PR?_ATOI?ATOI
  +--> ?PR?_WR_EEPROM?EEPROM

?PR?PROG_TARJETA_AUTOMATICA_O_BOTON?PROG         -----    -----      -----    -----      0046H    000CH
  +--> ?PR?_RD_EEPROM?EEPROM
  +--> ?CO?PROG
  +--> ?PR?PRINTF?PRINTF
  +--> ?PR?_INGRESADATO?PROG
  +--> ?PR?_ATOI?ATOI
  +--> ?PR?_WR_EEPROM?EEPROM

?PR?PROG_ANTIPASSBACK?PROG                       -----    -----      -----    -----      0046H    000CH
  +--> ?PR?_RD_EEPROM?EEPROM
  +--> ?CO?PROG
  +--> ?PR?PRINTF?PRINTF
  +--> ?PR?_INGRESADATO?PROG
  +--> ?PR?_ATOI?ATOI
  +--> ?PR?_WR_EEPROM?EEPROM

?PR?PROG_PLACA?PROG                              -----    -----      -----    -----      0046H    000CH
  +--> ?PR?_RD_EEPROM?EEPROM
  +--> ?CO?PROG
  +--> ?PR?PRINTF?PRINTF
  +--> ?PR?_INGRESADATO?PROG
  +--> ?PR?_ATOI?ATOI
  +--> ?PR?_WR_EEPROM?EEPROM

?PR?PROG_ADDRESS_HIGH_BOARD?PROG                 -----    -----      -----    -----      0046H    000CH
  +--> ?PR?_RD_EEPROM?EEPROM
  +--> ?CO?PROG
  +--> ?PR?PRINTF?PRINTF
  +--> ?PR?_INGRESADATO?PROG
  +--> ?PR?_ATOI?ATOI
  +--> ?PR?_WR_EEPROM?EEPROM

?PR?PROG_HORARIOS?PROG                           -----    -----      -----    -----      0046H    001BH
  +--> ?PR?ADDR_HORARIOS?PROG
  +--> ?CO?PROG
  +--> ?PR?PRINTF?PRINTF
  +--> ?PR?_INGRESADATO?PROG
  +--> ?PR?_ATOI?ATOI
  +--> ?PR?_PROG_HORARIOS_ON_OFF?PROG
BL51 BANKED LINKER/LOCATER V6.22.2.0                                                  11/05/2020  12:20:06  PAGE 12


  +--> ?PR?_WR_EEPROM?EEPROM
  +--> ?PR?_PROG_HORARIO_DIAS?PROG
  +--> ?PR?_PROG_HORARIO_DESDE_HASTA?PROG
  +--> ?PR?_RD_EEPROM?EEPROM

?PR?ADDR_HORARIOS?PROG                           -----    -----      -----    -----      0074H    000BH

?PR?_PROG_HORARIOS_ON_OFF?PROG                   -----    -----      -----    -----      0061H    0010H
  +--> ?PR?_RD_EEPROM?EEPROM
  +--> ?CO?PROG
  +--> ?PR?PRINTF?PRINTF
  +--> ?PR?_INGRESADATO?PROG
  +--> ?PR?_ATOI?ATOI
  +--> ?PR?_WR_EEPROM?EEPROM

?PR?_PROG_HORARIO_DIAS?PROG                      -----    -----      -----    -----      0061H    000FH
  +--> ?CO?PROG
  +--> ?PR?PRINTF?PRINTF
  +--> ?PR?_INGRESADATO?PROG
  +--> ?PR?_WR_EEPROM?EEPROM
  +--> ?PR?_RD_EEPROM?EEPROM

?PR?_PROG_HORARIO_DESDE_HASTA?PROG               -----    -----      -----    -----      0061H    000CH
  +--> ?CO?PROG
  +--> ?PR?PRINTF?PRINTF
  +--> ?PR?_INGRESADATO?PROG
  +--> ?PR?_WR_EEPROM?EEPROM
  +--> ?PR?_RD_EEPROM?EEPROM

?PR?PROG_VALIDAR_TIPO_VEHICULO_MENSUA...         -----    -----      -----    -----      0046H    000CH
  +--> ?PR?_RD_EEPROM?EEPROM
  +--> ?CO?PROG
  +--> ?PR?PRINTF?PRINTF
  +--> ?PR?_INGRESADATO?PROG
  +--> ?PR?_ATOI?ATOI
  +--> ?PR?_WR_EEPROM?EEPROM

?PR?PROG_APB_MENSUAL?PROG                        -----    -----      -----    -----      0046H    000CH
  +--> ?PR?_RD_EEPROM?EEPROM
  +--> ?CO?PROG
  +--> ?PR?PRINTF?PRINTF
  +--> ?PR?_INGRESADATO?PROG
  +--> ?PR?_ATOI?ATOI
  +--> ?PR?_WR_EEPROM?EEPROM

?PR?VER_PROG?PROG                                -----    -----      -----    -----      0046H    0013H
  +--> ?PR?_RD_EEPROM?EEPROM
  +--> ?CO?PROG
  +--> ?PR?PRINTF?PRINTF
  +--> ?PR?VER_HORARIO?PROG
  +--> ?PR?_LEERMEMORIA?EEPROM
  +--> ?PR?_HEX_ASCII?CLOCK

?PR?VER_HORARIO?PROG                             -----    -----      -----    -----      0059H    001BH
  +--> ?PR?ADDR_HORARIOS?PROG
  +--> ?CO?PROG
  +--> ?PR?PRINTF?PRINTF
BL51 BANKED LINKER/LOCATER V6.22.2.0                                                  11/05/2020  12:20:06  PAGE 13


  +--> ?PR?_RD_EEPROM?EEPROM
  +--> ?PR?_VER_HORARIO_DIAS?PROG
  +--> ?PR?_VER_HORARIO_DESDE_HASTA?PROG

?PR?_VER_HORARIO_DIAS?PROG                       -----    -----      -----    -----      0074H    0003H
  +--> ?PR?_RD_EEPROM?EEPROM
  +--> ?CO?PROG
  +--> ?PR?PRINTF?PRINTF

?PR?_VER_HORARIO_DESDE_HASTA?PROG                -----    -----      -----    -----      0074H    0002H
  +--> ?CO?PROG
  +--> ?PR?PRINTF?PRINTF
  +--> ?PR?_RD_EEPROM?EEPROM

?PR?_HEX_ASCII?CLOCK                             -----    -----      -----    -----      005DH    0006H
  +--> ?PR?_HEX_BCD?CLOCK

?PR?SHOW?PROG                                    -----    -----      -----    -----      -----    -----
  +--> ?CO?PROG
  +--> ?PR?PRINTF?PRINTF

?PR?PROG_FECHA_VENCIMIENTO?PROG                  -----    -----      -----    -----      0046H    0017H
  +--> ?PR?_LEERMEMORIA?EEPROM
  +--> ?PR?_HEX_ASCII?CLOCK
  +--> ?CO?PROG
  +--> ?PR?PRINTF?PRINTF
  +--> ?PR?_HASH_ID?PROG
  +--> ?PR?_INGRESADATO?PROG
  +--> ?PR?_GETCMD?PROG
  +--> ?PR?_ESCRIBIRMEMORIA?EEPROM
  +--> ?PR?_VALIDARCLAVE?PROG
  +--> ?PR?_ATOI?ATOI
  +--> ?PR?_WR_EEPROM?EEPROM

?PR?VARIABLE_INICIO?MAIN                         -----    -----      -----    -----      -----    -----
  +--> ?PR?_RD_EEPROM?EEPROM

?PR?SECUENCIA_INICIO_EXPEDIDOR?VERIFI...         -----    -----      -----    -----      0001H    0001H
  +--> ?PR?_INICIALIZA?LINTECH
  +--> ?PR?TRAMA_VALIDACION_P_N?VERIFICADOR
  +--> ?CO?VERIFICADOR
  +--> ?PR?_DEBUG_TXT_TIBBO?TIBBO
  +--> ?PR?_DEBUGBUFFERMF?TIBBO
  +--> ?PR?DWLOAD_EEPROM?LINTECH

?PR?_INICIALIZA?LINTECH                          -----    -----      -----    -----      0002H    000CH
  +--> ?CO?LINTECH
  +--> ?PR?_DEBUG_TXT_TIBBO?TIBBO
  +--> ?PR?_DEBUGBUFFERMF?TIBBO
  +--> ?PR?_ESCRIBIRCADENASOFT_BUFFER?MAIN

?PR?_DEBUG_TXT_TIBBO?TIBBO                       -----    -----      -----    -----      0037H    0004H
  +--> ?PR?_DEBUG_CHR_TIBBO?TIBBO
  +--> ?CO?TIBBO
  +--> ?PR?_TX_AUX?TIBBO

?PR?_DEBUG_CHR_TIBBO?TIBBO                       -----    -----      -----    -----      -----    -----
BL51 BANKED LINKER/LOCATER V6.22.2.0                                                  11/05/2020  12:20:06  PAGE 14


  +--> ?PR?_TX_AUX?TIBBO

?PR?_DEBUGBUFFERMF?TIBBO                         -----    -----      -----    -----      0027H    0006H
  +--> ?CO?TIBBO
  +--> ?PR?_DEBUG_TXT_TIBBO?TIBBO
  +--> ?PR?_DEBUG_CHR_TIBBO?TIBBO
  +--> ?PR?_TX_AUX?TIBBO

?PR?_ESCRIBIRCADENASOFT_BUFFER?MAIN              -----    -----      -----    -----      0027H    0006H
  +--> ?PR?_PUTCHAR?MAIN

?PR?TRAMA_VALIDACION_P_N?VERIFICADOR             -----    -----      -----    -----      -----    -----
  +--> ?CO?VERIFICADOR
  +--> ?PR?_DEBUG_TXT_TIBBO?TIBBO

?PR?DWLOAD_EEPROM?LINTECH                        -----    -----      -----    -----      0002H    0016H
  +--> ?CO?LINTECH
  +--> ?PR?_DEBUG_TXT_TIBBO?TIBBO
  +--> ?PR?_DEBUGBUFFERMF?TIBBO
  +--> ?PR?_ESCRIBIRCADENASOFT_BUFFER?MAIN

?PR?RX_MONITOR?MONITOR                           -----    -----      -----    -----      0009H    000DH
  +--> ?PR?_RECIBE_CMD_MONITOR?MONITOR
  +--> ?PR?_DEBUG_MONITOR?TIBBO
  +--> ?PR?_VALIDA_TRAMA_MONITOR?MONITOR

?PR?_RECIBE_CMD_MONITOR?MONITOR                  -----    -----      -----    -----      0016H    0009H
  +--> ?PR?RX_DATA?TIBBO

?PR?RX_DATA?TIBBO                                -----    -----      -----    -----      -----    -----
  +--> ?PR?TIME_MBIT?TIBBO
  +--> ?PR?TIME_BIT?TIBBO

?PR?_DEBUG_MONITOR?TIBBO                         -----    -----      -----    -----      0016H    0004H
  +--> ?PR?DEBUG_DIVIDIR_TEXTO?TIBBO
  +--> ?CO?TIBBO
  +--> ?PR?_DEBUG_TXT_TIBBO?TIBBO

?PR?DEBUG_DIVIDIR_TEXTO?TIBBO                    -----    -----      -----    -----      -----    -----
  +--> ?CO?TIBBO
  +--> ?PR?_DEBUG_TXT_TIBBO?TIBBO

?PR?_VALIDA_TRAMA_MONITOR?MONITOR                -----    -----      -----    -----      0016H    0003H

?PR?_SECUENCIAEXPEDIDORMF?VERIFICADOR            -----    -----      -----    -----      0001H    0001H
  +--> ?PR?_CHECK_STATUS?LINTECH
  +--> ?PR?_LOAD_SECUENCIA_EXPEDIDOR?VERIFIC...
  +--> ?PR?_RTA_CMD_TRANSPORTE?VERIFICADOR
  +--> ?PR?_MOV_CARD?LINTECH
  +--> ?PR?_CARD_INSERCION?LINTECH
  +--> ?PR?AUT_CARD_CHECK_STATUS?LINTECH
  +--> ?PR?LOADVERIFY_EEPROM?LINTECH
  +--> ?PR?_RD_MF?LINTECH
  +--> ?PR?_WR_MF?LINTECH
  +--> ?PR?DWLOAD_EEPROM?LINTECH
  +--> ?PR?ENTREGA_CARD_CAPTURA?VERIFICADOR
  +--> ?PR?_SEND_PTO_PARALELO?VERIFICADOR
BL51 BANKED LINKER/LOCATER V6.22.2.0                                                  11/05/2020  12:20:06  PAGE 15


  +--> ?PR?_WAIT_PLACA?VERIFICADOR
  +--> ?PR?UNIQUE_IDENTIFIER_UID?LINTECH
  +--> ?PR?_PREGUNTA_LPR?VERIFICADOR
  +--> ?PR?_VALIDA_TIPO_TARJETA?VERIFICADOR
  +--> ?PR?POWER_OFF?LINTECH
  +--> ?PR?CLAVE_SEGURIDAD_S2?LINTECH
  +--> ?PR?RESPONDE_ESTADO_SENSORES_TRANSPOR...
  +--> ?PR?RESPONDE_TIPO_TARJETA?VERIFICADOR
  +--> ?PR?_RESPONDE_LECTURA_TARJETA_SECTOR1...
  +--> ?PR?_RESPONDE_LECTURA_TARJETA_SECTOR1...
  +--> ?PR?_RESPONDE_LECTURA_TARJETA_SECTOR1...
  +--> ?PR?_RESPONDE_WRITE_TARJETA_SECTOR1_B...
  +--> ?PR?_RESPONDE_WRITE_TARJETA_SECTOR2_B...
  +--> ?PR?_RESPONDE_WRITE_TARJETA_SECTOR1_B...
  +--> ?PR?_RESPONDE_WRITE_TARJETA_SECTOR1_B...
  +--> ?PR?_DISPARO_LOCK_ENTRADA_VEHICULO?VE...
  +--> ?PR?_RESPUESTA_SEGUNDA_CLAVE?VERIFICADOR
  +--> ?PR?ANALIZA_PRESENCIA_MENSUAL?VERIFIC...
  +--> ?PR?_ANALIZA_UID_CARD?VERIFICADOR
  +--> ?PR?ANALIZA_PRESENCIA_ROTACION?VERIFI...
  +--> ?CO?VERIFICADOR
  +--> ?PR?_DEBUG_TXT_TIBBO?TIBBO

?PR?_CHECK_STATUS?LINTECH                        -----    -----      -----    -----      0002H    000BH
  +--> ?CO?LINTECH
  +--> ?PR?_DEBUG_TXT_TIBBO?TIBBO
  +--> ?PR?_DEBUGBUFFERMF?TIBBO
  +--> ?PR?_ESCRIBIRCADENASOFT_BUFFER?MAIN

?PR?_LOAD_SECUENCIA_EXPEDIDOR?VERIFIC...         -----    -----      -----    -----      0002H    0009H

?PR?_RTA_CMD_TRANSPORTE?VERIFICADOR              -----    -----      -----    -----      0002H    0005H
  +--> ?PR?TRAMA_VALIDACION_P_N?VERIFICADOR
  +--> ?CO?VERIFICADOR
  +--> ?PR?_DEBUG_TXT_TIBBO?TIBBO
  +--> ?PR?_DEBUGBUFFERMF?TIBBO
  +--> ?PR?ERROR_RX_PTO?VERIFICADOR

?PR?ERROR_RX_PTO?VERIFICADOR                     -----    -----      -----    -----      0007H    0001H
  +--> ?CO?VERIFICADOR
  +--> ?PR?_DEBUG_TXT_TIBBO?TIBBO
  +--> ?PR?_DEBUG_CHR_TIBBO?TIBBO
  +--> ?PR?_DELAY_10MS?DELAY

?PR?_DELAY_10MS?DELAY                            -----    -----      -----    -----      0008H    0004H
  +--> ?PR?_DELAY_1MS?DELAY

?PR?_MOV_CARD?LINTECH                            -----    -----      -----    -----      0002H    000CH
  +--> ?CO?LINTECH
  +--> ?PR?_DEBUG_TXT_TIBBO?TIBBO
  +--> ?PR?_DEBUGBUFFERMF?TIBBO
  +--> ?PR?_ESCRIBIRCADENASOFT_BUFFER?MAIN

?PR?_CARD_INSERCION?LINTECH                      -----    -----      -----    -----      0002H    000AH
  +--> ?CO?LINTECH
  +--> ?PR?_DEBUG_TXT_TIBBO?TIBBO
  +--> ?PR?_DEBUGBUFFERMF?TIBBO
BL51 BANKED LINKER/LOCATER V6.22.2.0                                                  11/05/2020  12:20:06  PAGE 16


  +--> ?PR?_ESCRIBIRCADENASOFT_BUFFER?MAIN

?PR?AUT_CARD_CHECK_STATUS?LINTECH                -----    -----      -----    -----      0002H    000BH
  +--> ?CO?LINTECH
  +--> ?PR?_DEBUG_TXT_TIBBO?TIBBO
  +--> ?PR?_DEBUGBUFFERMF?TIBBO
  +--> ?PR?_ESCRIBIRCADENASOFT_BUFFER?MAIN

?PR?LOADVERIFY_EEPROM?LINTECH                    -----    -----      -----    -----      0002H    0010H
  +--> ?CO?LINTECH
  +--> ?PR?_DEBUG_TXT_TIBBO?TIBBO
  +--> ?PR?_DEBUGBUFFERMF?TIBBO
  +--> ?PR?_ESCRIBIRCADENASOFT_BUFFER?MAIN

?PR?_RD_MF?LINTECH                               -----    -----      -----    -----      0002H    0012H
  +--> ?CO?LINTECH
  +--> ?PR?_DEBUG_TXT_TIBBO?TIBBO
  +--> ?PR?_DEBUG_CHR_TIBBO?TIBBO
  +--> ?PR?_DEBUGBUFFERMF?TIBBO
  +--> ?PR?_ESCRIBIRCADENASOFT_BUFFER?MAIN

?PR?_WR_MF?LINTECH                               -----    -----      -----    -----      0002H    0025H
  +--> ?CO?LINTECH
  +--> ?PR?_DEBUG_TXT_TIBBO?TIBBO
  +--> ?PR?_DEBUG_CHR_TIBBO?TIBBO
  +--> ?PR?_DEBUGBUFFERMF?TIBBO
  +--> ?PR?_ESCRIBIRCADENASOFT_BUFFER?MAIN

?PR?ENTREGA_CARD_CAPTURA?VERIFICADOR             -----    -----      -----    -----      0002H    0001H
  +--> ?CO?VERIFICADOR
  +--> ?PR?_DEBUG_TXT_TIBBO?TIBBO
  +--> ?PR?SEL_SENSOR2?IO_SENSORES
  +--> ?PR?VALIDASENSOR?IO_SENSORES
  +--> ?PR?VALIDA_SENSOR1_AUTO?IO_SENSORES

?PR?VALIDA_SENSOR1_AUTO?IO_SENSORES              -----    -----      -----    -----      0011H    0001H
  +--> ?PR?SEL_SENSOR1?IO_SENSORES
  +--> ?PR?SEL_AUTO?IO_SENSORES
  +--> ?CO?IO_SENSORES
  +--> ?PR?_DEBUG_TXT_TIBBO?TIBBO

?PR?_SEND_PTO_PARALELO?VERIFICADOR               -----    -----      -----    -----      0002H    0004H
  +--> ?PR?_ARMAR_TRAMA_PTO_PARALELO_EXPEDID...
  +--> ?PR?_ARMAR_TRAMA_PTO_PARALELO_EXPEDID...
  +--> ?PR?INCREMENTE_TICKET?EEPROM
  +--> ?PR?_SEND_PORT?PTO_PARALELO
  +--> ?CO?VERIFICADOR
  +--> ?PR?_DEBUG_TXT_TIBBO?TIBBO
  +--> ?PR?_DEBUGBUFFERMF?TIBBO
  +--> ?PR?CLEAR_PLACA?MONITOR

?PR?_ARMAR_TRAMA_PTO_PARALELO_EXPEDID...         -----    -----      -----    -----      0006H    0006H
  +--> ?PR?_BLOCK_READ_CLOCK_HEX?CLOCK
  +--> ?PR?_RD_EEPROM?EEPROM

?PR?_ARMAR_TRAMA_PTO_PARALELO_EXPEDID...         -----    -----      -----    -----      0006H    000FH
  +--> ?PR?LEE_NO_TICKET?EEPROM
BL51 BANKED LINKER/LOCATER V6.22.2.0                                                  11/05/2020  12:20:06  PAGE 17


  +--> ?PR?_STRCAT?STRCAT
  +--> ?PR?_STRLEN?STRLEN
  +--> ?PR?_BLOCK_READ_CLOCK_HEX?CLOCK
  +--> ?PR?_RD_EEPROM?EEPROM

?PR?LEE_NO_TICKET?EEPROM                         -----    -----      -----    -----      001DH    000BH
  +--> ?PR?READ_EEPROM_TICKET?EEPROM
  +--> ?CO?EEPROM
  +--> ?PR?PRINTF?PRINTF
  +--> ?PR?_STRLEN?STRLEN
  +--> ?PR?_DEBUG_TXT_TIBBO?TIBBO

?PR?READ_EEPROM_TICKET?EEPROM                    -----    -----      -----    -----      0028H    0007H
  +--> ?PR?_RD_EEPROM?EEPROM

?PR?INCREMENTE_TICKET?EEPROM                     -----    -----      -----    -----      0006H    000BH
  +--> ?PR?READ_EEPROM_TICKET?EEPROM
  +--> ?CO?EEPROM
  +--> ?PR?PRINTF?PRINTF
  +--> ?PR?_WRITE_EEPROM_TICKET?EEPROM

?PR?_WRITE_EEPROM_TICKET?EEPROM                  -----    -----      -----    -----      0015H    000BH
  +--> ?CO?EEPROM
  +--> ?PR?_DEBUG_TXT_TIBBO?TIBBO
  +--> ?PR?_ATOL?ATOL
  +--> ?PR?_DEBUG_CHR_TIBBO?TIBBO
  +--> ?PR?_WR_EEPROM?EEPROM

?PR?_ATOL?ATOL                                   0020H.0  0000H.1    -----    -----      0020H    0007H
  +--> ?PR?_ISSPACE?ISSPACE
  +--> ?PR?_ISDIGIT?ISDIGIT

?PR?_SEND_PORT?PTO_PARALELO                      -----    -----      -----    -----      0015H    000AH
  +--> ?PR?PULSO_BUS?PTO_PARALELO
  +--> ?PR?_DELAY_20US?DELAY

?PR?PULSO_BUS?PTO_PARALELO                       -----    -----      -----    -----      -----    -----
  +--> ?PR?_DELAY_20US?DELAY

?PR?_WAIT_PLACA?VERIFICADOR                      -----    -----      -----    -----      0002H    0007H
  +--> ?CO?VERIFICADOR
  +--> ?PR?_DEBUG_TXT_TIBBO?TIBBO
  +--> ?PR?RX_MONITOR?MONITOR
  +--> ?PR?_RESPUESTA_PLACA_CANCEL?VERIFICADOR

?PR?_RESPUESTA_PLACA_CANCEL?VERIFICADOR          -----    -----      -----    -----      0009H    000AH
  +--> ?CO?VERIFICADOR
  +--> ?PR?_DEBUG_TXT_TIBBO?TIBBO
  +--> ?PR?_ARMAR_TRAMA_TARJETA_SECTOR1_BLOQ...

?PR?_ARMAR_TRAMA_TARJETA_SECTOR1_BLOQ...         -----    -----      -----    -----      0013H    0004H
  +--> ?PR?CLEAR_PLACA?MONITOR
  +--> ?PR?_RD_EEPROM?EEPROM

?PR?UNIQUE_IDENTIFIER_UID?LINTECH                -----    -----      -----    -----      0002H    000BH
  +--> ?CO?LINTECH
  +--> ?PR?_DEBUG_TXT_TIBBO?TIBBO
BL51 BANKED LINKER/LOCATER V6.22.2.0                                                  11/05/2020  12:20:06  PAGE 18


  +--> ?PR?_DEBUGBUFFERMF?TIBBO
  +--> ?PR?_ESCRIBIRCADENASOFT_BUFFER?MAIN

?PR?_PREGUNTA_LPR?VERIFICADOR                    -----    -----      -----    -----      0002H    0004H
  +--> ?PR?_RD_EEPROM?EEPROM
  +--> ?PR?_ARMAR_TRAMA_MONITOR?VERIFICADOR
  +--> ?PR?_DEBUG_TXT_TIBBO?TIBBO

?PR?_ARMAR_TRAMA_MONITOR?VERIFICADOR             -----    -----      -----    -----      0006H    000FH
  +--> ?PR?DIR_BOARD_MONITOR?IO_SENSORES
  +--> ?PR?LEE_NO_TICKET?EEPROM
  +--> ?PR?_STRCAT?STRCAT
  +--> ?PR?_BYTEHEX_DECIMAL?CLOCK
  +--> ?PR?_STRLEN?STRLEN
  +--> ?PR?_TWO_BYTEHEX_DECIMAL?CLOCK
  +--> ?PR?_BLOCK_READ_CLOCK_ASCII?CLOCK

?PR?DIR_BOARD_MONITOR?IO_SENSORES                -----    -----      -----    -----      -----    -----
  +--> ?PR?_RD_EEPROM?EEPROM

?PR?_BYTEHEX_DECIMAL?CLOCK                       -----    -----      -----    -----      0015H    0001H

?PR?_TWO_BYTEHEX_DECIMAL?CLOCK                   -----    -----      -----    -----      0015H    000CH
  +--> ?PR?_POW?POW

?PR?_POW?POW                                     -----    -----      -----    -----      0021H    000AH
  +--> ?PR?LOG?LOG
  +--> ?PR?EXP?EXP

?PR?LOG?LOG                                      0020H.0  0000H.1    -----    -----      002BH    0004H

?PR?_VALIDA_TIPO_TARJETA?VERIFICADOR             -----    -----      -----    -----      0002H    0007H
  +--> ?CO?VERIFICADOR
  +--> ?PR?_DEBUG_TXT_TIBBO?TIBBO
  +--> ?PR?_RD_EEPROM?EEPROM
  +--> ?PR?_TARJETA_MENSUAL?VERIFICADOR
  +--> ?PR?_SEND_PORTERR?PTO_PARALELO
  +--> ?PR?_PANTALLALCD?PANTALLAS
  +--> ?PR?CAPTURA_EXPULSA?VERIFICADOR
  +--> ?PR?_TARJETA_ROTACION?VERIFICADOR

?PR?_TARJETA_MENSUAL?VERIFICADOR                 -----    -----      -----    -----      0009H    0007H
  +--> ?PR?_HORARIOS?VERIFICADOR
  +--> ?PR?_CHECK_FECHAOUT?CLOCK
  +--> ?PR?_VALIDA_VEHICULO_CARD_MENSUAL?VER...
  +--> ?PR?CAPTURA_EXPULSA?VERIFICADOR
  +--> ?CO?VERIFICADOR
  +--> ?PR?_DEBUG_TXT_TIBBO?TIBBO
  +--> ?PR?_ARMAR_TRAMA_TARJETA_SECTOR1_BLOQ...
  +--> ?PR?_SEND_PORTERR?PTO_PARALELO
  +--> ?PR?_PANTALLALCD?PANTALLAS

?PR?_HORARIOS?VERIFICADOR                        -----    -----      -----    -----      0010H    0013H
  +--> ?PR?ADDR_HORARIOS?PROG
  +--> ?PR?_RD_EEPROM?EEPROM
  +--> ?PR?_LEE_CLK?CLOCK
  +--> ?CO?VERIFICADOR
BL51 BANKED LINKER/LOCATER V6.22.2.0                                                  11/05/2020  12:20:06  PAGE 19


  +--> ?PR?_DEBUG_TXT_TIBBO?TIBBO
  +--> ?PR?_DEBUG_CHR_TIBBO?TIBBO
  +--> ?PR?_BLOQUE_HORARIO?VERIFICADOR
  +--> ?PR?_PANTALLALCD?PANTALLAS

?PR?_BLOQUE_HORARIO?VERIFICADOR                  -----    -----      -----    -----      0023H    0007H
  +--> ?CO?VERIFICADOR
  +--> ?PR?_DEBUG_TXT_TIBBO?TIBBO
  +--> ?PR?_LEE_CLK?CLOCK
  +--> ?PR?_DEBUG_CHR_TIBBO?TIBBO
  +--> ?PR?_HORA_MAXIMA?VERIFICADOR
  +--> ?PR?_EN_HORARIO?VERIFICADOR
  +--> ?PR?_RD_EEPROM?EEPROM
  +--> ?PR?_SEND_PORTERR?PTO_PARALELO
  +--> ?PR?_PANTALLALCD?PANTALLAS

?PR?_HORA_MAXIMA?VERIFICADOR                     -----    -----      -----    -----      002FH    0008H
  +--> ?PR?_RD_EEPROM?EEPROM
  +--> ?PR?_DEBUG_CHR_TIBBO?TIBBO
  +--> ?CO?VERIFICADOR
  +--> ?PR?_DEBUG_TXT_TIBBO?TIBBO

?PR?_EN_HORARIO?VERIFICADOR                      -----    -----      -----    -----      002AH    0005H
  +--> ?CO?VERIFICADOR
  +--> ?PR?_DEBUG_TXT_TIBBO?TIBBO
  +--> ?PR?_HORA_MAXIMA?VERIFICADOR

?PR?_SEND_PORTERR?PTO_PARALELO                   -----    -----      -----    -----      002AH    0006H
  +--> ?PR?PULSO_BUS?PTO_PARALELO
  +--> ?PR?_DELAY_20US?DELAY

?PR?_PANTALLALCD?PANTALLAS                       -----    -----      -----    -----      002AH    000AH
  +--> ?CO?PANTALLAS
  +--> ?PR?_INIT_MEMPOOL?INIT_MEM
  +--> ?PR?_MALLOC?MALLOC
  +--> ?PR?_LCD_TXT?PANTALLAS
  +--> ?PR?_STRLEN?STRLEN
  +--> ?PR?_TX_CHRLCD?PANTALLAS
  +--> ?PR?_RASPBERRY_DATA?PANTALLAS
  +--> ?PR?_FREE?FREE

?PR?_MALLOC?MALLOC                               -----    -----      -----    -----      0034H    0006H

?PR?_LCD_TXT?PANTALLAS                           -----    -----      -----    -----      0034H    0005H
  +--> ?PR?_TX_CHRLCD?PANTALLAS

?PR?_TX_CHRLCD?PANTALLAS                         -----    -----      -----    -----      0039H    0002H
  +--> ?PR?_PUTCHAR?MAIN

?PR?_RASPBERRY_DATA?PANTALLAS                    -----    -----      -----    -----      0034H    0006H
  +--> ?PR?_STRLEN?STRLEN
  +--> ?PR?_PUTCHAR?MAIN

?PR?_FREE?FREE                                   -----    -----      -----    -----      0034H    0006H

?PR?_VALIDA_VEHICULO_CARD_MENSUAL?VER...         -----    -----      -----    -----      0010H    0004H
  +--> ?CO?VERIFICADOR
BL51 BANKED LINKER/LOCATER V6.22.2.0                                                  11/05/2020  12:20:06  PAGE 20


  +--> ?PR?_DEBUG_TXT_TIBBO?TIBBO
  +--> ?PR?_RD_EEPROM?EEPROM
  +--> ?PR?_SEND_PORTERR?PTO_PARALELO

?PR?_ARMAR_TRAMA_TARJETA_SECTOR1_BLOQ...         -----    -----      -----    -----      0010H    0006H
  +--> ?PR?_BLOCK_READ_CLOCK_HEX?CLOCK
  +--> ?PR?DIR_BOARD?IO_SENSORES

?PR?DIR_BOARD?IO_SENSORES                        -----    -----      -----    -----      0032H    0001H
  +--> ?PR?SEL_DIR1?IO_SENSORES
  +--> ?PR?SEL_DIR2?IO_SENSORES
  +--> ?PR?_RD_EEPROM?EEPROM

?PR?_TARJETA_ROTACION?VERIFICADOR                -----    -----      -----    -----      0009H    0006H
  +--> ?PR?_ARMAR_TRAMA_TARJETA_SECTOR1_BLOQ...

?PR?POWER_OFF?LINTECH                            -----    -----      -----    -----      0002H    000BH
  +--> ?CO?LINTECH
  +--> ?PR?_DEBUG_TXT_TIBBO?TIBBO
  +--> ?PR?_DEBUGBUFFERMF?TIBBO
  +--> ?PR?_ESCRIBIRCADENASOFT_BUFFER?MAIN

?PR?CLAVE_SEGURIDAD_S2?LINTECH                   -----    -----      -----    -----      0002H    0016H
  +--> ?CO?LINTECH
  +--> ?PR?_DEBUG_TXT_TIBBO?TIBBO
  +--> ?PR?_DEBUGBUFFERMF?TIBBO
  +--> ?PR?_ESCRIBIRCADENASOFT_BUFFER?MAIN

?PR?RESPONDE_ESTADO_SENSORES_TRANSPOR...         -----    -----      -----    -----      0002H    0001H
  +--> ?CO?VERIFICADOR
  +--> ?PR?_DEBUG_TXT_TIBBO?TIBBO
  +--> ?PR?_SEND_PORTERR?PTO_PARALELO
  +--> ?PR?INGRESO_VEHICULO?VERIFICADOR

?PR?INGRESO_VEHICULO?VERIFICADOR                 -----    -----      -----    -----      -----    -----
  +--> ?PR?VALIDASENSORESPASO?IO_SENSORES
  +--> ?PR?_RD_EEPROM?EEPROM
  +--> ?CO?VERIFICADOR
  +--> ?PR?_DEBUG_TXT_TIBBO?TIBBO
  +--> ?PR?_PANTALLALCD?PANTALLAS
  +--> ?PR?SEL_PULSA?IO_SENSORES

?PR?VALIDASENSORESPASO?IO_SENSORES               -----    -----      -----    -----      0010H    0001H
  +--> ?PR?SEL_SENSOR2?IO_SENSORES
  +--> ?PR?VALIDASENSOR?IO_SENSORES
  +--> ?PR?VALIDA_SENSOR1_AUTO?IO_SENSORES
  +--> ?CO?IO_SENSORES
  +--> ?PR?_DEBUG_TXT_TIBBO?TIBBO

?PR?RESPONDE_TIPO_TARJETA?VERIFICADOR            -----    -----      -----    -----      0002H    0001H
  +--> ?CO?VERIFICADOR
  +--> ?PR?_DEBUG_TXT_TIBBO?TIBBO
  +--> ?PR?_SEND_PORTERR?PTO_PARALELO
  +--> ?PR?_PANTALLALCD?PANTALLAS
  +--> ?PR?CAPTURA_EXPULSA?VERIFICADOR

?PR?_RESPONDE_LECTURA_TARJETA_SECTOR1...         -----    -----      -----    -----      0002H    0016H
BL51 BANKED LINKER/LOCATER V6.22.2.0                                                  11/05/2020  12:20:06  PAGE 21


  +--> ?CO?VERIFICADOR
  +--> ?PR?_DEBUG_TXT_TIBBO?TIBBO
  +--> ?PR?_DEBUGBUFFERMF?TIBBO
  +--> ?PR?_RD_EEPROM?EEPROM
  +--> ?PR?_DEBUG_HEXDEC?TIBBO
  +--> ?PR?_DEBUG_CHR_TIBBO?TIBBO
  +--> ?PR?_SEND_PORTERR?PTO_PARALELO
  +--> ?PR?_PANTALLALCD?PANTALLAS
  +--> ?PR?CAPTURA_EXPULSA?VERIFICADOR

?PR?_DEBUG_HEXDEC?TIBBO                          -----    -----      -----    -----      0018H    0002H
  +--> ?PR?_TX_AUX?TIBBO

?PR?_RESPONDE_LECTURA_TARJETA_SECTOR1...         -----    -----      -----    -----      0002H    0004H
  +--> ?CO?VERIFICADOR
  +--> ?PR?_DEBUG_TXT_TIBBO?TIBBO
  +--> ?PR?CAPTURA_EXPULSA?VERIFICADOR

?PR?_RESPONDE_LECTURA_TARJETA_SECTOR1...         -----    -----      -----    -----      0002H    0015H
  +--> ?CO?VERIFICADOR
  +--> ?PR?_DEBUG_TXT_TIBBO?TIBBO
  +--> ?PR?_DEBUGBUFFERMF?TIBBO
  +--> ?PR?_DEBUG_CHR_TIBBO?TIBBO
  +--> ?PR?CAPTURA_EXPULSA?VERIFICADOR

?PR?_RESPONDE_WRITE_TARJETA_SECTOR1_B...         -----    -----      -----    -----      0002H    0007H
  +--> ?CO?VERIFICADOR
  +--> ?PR?_DEBUG_TXT_TIBBO?TIBBO
  +--> ?PR?_DEBUGBUFFERMF?TIBBO
  +--> ?PR?_ARMAR_TRAMA_TARJETA_SECTOR1_BLOQ...

?PR?_ARMAR_TRAMA_TARJETA_SECTOR1_BLOQ...         -----    -----      -----    -----      0009H    0003H
  +--> ?PR?LEE_NO_TICKET?EEPROM

?PR?_RESPONDE_WRITE_TARJETA_SECTOR2_B...         -----    -----      -----    -----      0002H    0003H
  +--> ?CO?VERIFICADOR
  +--> ?PR?_DEBUG_TXT_TIBBO?TIBBO
  +--> ?PR?_DEBUGBUFFERMF?TIBBO

?PR?_RESPONDE_WRITE_TARJETA_SECTOR1_B...         -----    -----      -----    -----      0002H    0003H
  +--> ?CO?VERIFICADOR
  +--> ?PR?_DEBUG_TXT_TIBBO?TIBBO
  +--> ?PR?_DEBUGBUFFERMF?TIBBO

?PR?_RESPONDE_WRITE_TARJETA_SECTOR1_B...         -----    -----      -----    -----      0002H    0003H
  +--> ?CO?VERIFICADOR
  +--> ?PR?_DEBUG_TXT_TIBBO?TIBBO
  +--> ?PR?_DEBUGBUFFERMF?TIBBO

?PR?_DISPARO_LOCK_ENTRADA_VEHICULO?VE...         -----    -----      -----    -----      0002H    0004H
  +--> ?CO?VERIFICADOR
  +--> ?PR?_DEBUG_TXT_TIBBO?TIBBO
  +--> ?PR?_PANTALLALCD?PANTALLAS
  +--> ?PR?_SEND_PORTERR?PTO_PARALELO
  +--> ?PR?_PANTALLALCD_LINEA_2?PANTALLAS
  +--> ?PR?VALIDA_SENSOR1_AUTO?IO_SENSORES

BL51 BANKED LINKER/LOCATER V6.22.2.0                                                  11/05/2020  12:20:06  PAGE 22


?PR?_PANTALLALCD_LINEA_2?PANTALLAS               -----    -----      -----    -----      0010H    000DH
  +--> ?CO?PANTALLAS
  +--> ?PR?_INIT_MEMPOOL?INIT_MEM
  +--> ?PR?_MALLOC?MALLOC
  +--> ?PR?_LCD_TXT?PANTALLAS
  +--> ?PR?_STRLEN?STRLEN
  +--> ?PR?_TX_CHRLCD?PANTALLAS
  +--> ?PR?_RASPBERRY_DATA?PANTALLAS
  +--> ?PR?LEE_NO_TICKET?EEPROM
  +--> ?PR?_STRCAT?STRCAT
  +--> ?PR?_FREE?FREE

?PR?_RESPUESTA_SEGUNDA_CLAVE?VERIFICADOR         -----    -----      -----    -----      0002H    0006H
  +--> ?CO?VERIFICADOR
  +--> ?PR?_DEBUG_TXT_TIBBO?TIBBO
  +--> ?PR?_DEBUGBUFFERMF?TIBBO
  +--> ?PR?_ARMAR_TRAMA_PLACA?VERIFICADOR

?PR?_ARMAR_TRAMA_PLACA?VERIFICADOR               -----    -----      -----    -----      0008H    0003H

?PR?ANALIZA_PRESENCIA_MENSUAL?VERIFIC...         -----    -----      -----    -----      0002H    0001H
  +--> ?PR?VALIDASENSORESPASO?IO_SENSORES
  +--> ?PR?_SEND_PORTERR?PTO_PARALELO
  +--> ?PR?_PANTALLALCD?PANTALLAS

?PR?_ANALIZA_UID_CARD?VERIFICADOR                -----    -----      -----    -----      0002H    0015H
  +--> ?CO?VERIFICADOR
  +--> ?PR?_DEBUG_TXT_TIBBO?TIBBO
  +--> ?PR?_DEBUGBUFFERMF?TIBBO
  +--> ?PR?_DEBUG_CHR_TIBBO?TIBBO

?PR?ANALIZA_PRESENCIA_ROTACION?VERIFI...         -----    -----      -----    -----      0002H    0001H
  +--> ?PR?VALIDASENSORESPASO?IO_SENSORES
  +--> ?PR?_SEND_PORTERR?PTO_PARALELO
  +--> ?PR?_PANTALLALCD?PANTALLAS

?PR?_RECIBE_PORT?PTO_PARALELO                    -----    -----      -----    -----      0001H    0008H
  +--> ?PR?OFF_TIMER0_INTERRUP?MAIN
  +--> ?PR?ON_TIMER0_INTERRUP?MAIN

?PR?_DEBUG_PTO_PARALELO?TIBBO                    -----    -----      -----    -----      0001H    0004H
  +--> ?PR?DEBUG_DIVIDIR_TEXTO?TIBBO
  +--> ?CO?TIBBO
  +--> ?PR?_DEBUG_TXT_TIBBO?TIBBO
  +--> ?PR?_DEBUGBUFFERMF?TIBBO

?PR?_VALIDA_TRAMA_PTO?ACCESCAN                   -----    -----      -----    -----      0001H    000FH
  +--> ?PR?_VALIDAR_CLK?CLOCK
  +--> ?PR?_BLOCK_WRITE_CLOCK_ASCII?CLOCK
  +--> ?PR?RELOJ_PANTALLA_LCD?PANTALLAS
  +--> ?PR?_PANTALLALCD?PANTALLAS
  +--> ?CO?ACCESCAN
  +--> ?PR?_DEBUG_TXT_TIBBO?TIBBO
  +--> ?PR?_BYTEHEX_DECIMAL?CLOCK
  +--> ?PR?_TWO_BYTEHEX_DECIMAL?CLOCK
  +--> ?PR?VALIDASENSORESPASO?IO_SENSORES
  +--> ?PR?_CMD_LPR_SALIDA_WIEGAND?ACCESCAN
BL51 BANKED LINKER/LOCATER V6.22.2.0                                                  11/05/2020  12:20:06  PAGE 23


  +--> ?PR?_PANTALLALCD_LINEA_2?PANTALLAS
  +--> ?PR?_GRABA_SERIE?EEPROM

?PR?_BLOCK_WRITE_CLOCK_ASCII?CLOCK               -----    -----      -----    -----      0010H    0003H
  +--> ?PR?_TWO_ONE?CLOCK
  +--> ?PR?_WR_CLK?CLOCK

?PR?_WR_CLK?CLOCK                                -----    -----      -----    -----      0013H    0002H
  +--> ?PR?_DELAY_20US?DELAY
  +--> ?PR?_EB_CLK?CLOCK

?PR?RELOJ_PANTALLA_LCD?PANTALLAS                 -----    -----      -----    -----      0010H    000DH
  +--> ?CO?PANTALLAS
  +--> ?PR?_BLOCK_READ_CLOCK?CLOCK
  +--> ?PR?_LCD_TXT_NUM_CHAR?PANTALLAS

?PR?_BLOCK_READ_CLOCK?CLOCK                      -----    -----      -----    -----      001DH    0003H
  +--> ?PR?_LEE_CLK?CLOCK

?PR?_LCD_TXT_NUM_CHAR?PANTALLAS                  -----    -----      -----    -----      001DH    0006H
  +--> ?PR?_TX_CHRLCD?PANTALLAS

?PR?_CMD_LPR_SALIDA_WIEGAND?ACCESCAN             -----    -----      -----    -----      0010H    0022H
  +--> ?PR?DIR_BOARD?IO_SENSORES
  +--> ?PR?_BLOCK_READ_CLOCK_ASCII?CLOCK
  +--> ?PR?_MONITOR_CHR?ACCESCAN

?PR?_MONITOR_CHR?ACCESCAN                        -----    -----      -----    -----      0032H    0005H
  +--> ?PR?_TX_AUX?TIBBO

?PR?_GRABA_SERIE?EEPROM                          -----    -----      -----    -----      0010H    0005H
  +--> ?CO?EEPROM
  +--> ?PR?_DEBUG_TXT_TIBBO?TIBBO
  +--> ?PR?_WRITE_EEPROM_TICKET?EEPROM
  +--> ?PR?_WR_EEPROM?EEPROM

?PR?MSJ_LCD_INFORMATIVO?IO_SENSORES              -----    -----      -----    -----      0001H    0001H
  +--> ?PR?SEL_FUNCION?IO_SENSORES
  +--> ?PR?LOAD_AND_SEND_INFO_RELOJ?PTO_PARA...
  +--> ?PR?LOAD_AND_SEND_ID_COD?PTO_PARALELO
  +--> ?PR?_RD_EEPROM?EEPROM
  +--> ?PR?_SEND_PORTERR?PTO_PARALELO

?PR?LOAD_AND_SEND_INFO_RELOJ?PTO_PARA...         -----    -----      -----    -----      0002H    000BH
  +--> ?PR?_BLOCK_READ_CLOCK?CLOCK
  +--> ?PR?_LEE_CLK?CLOCK
  +--> ?PR?_SEND_PORT?PTO_PARALELO

?PR?LOAD_AND_SEND_ID_COD?PTO_PARALELO            -----    -----      -----    -----      0002H    0013H
  +--> ?PR?_RD_EEPROM?EEPROM
  +--> ?CO?PTO_PARALELO
  +--> ?PR?PRINTF?PRINTF
  +--> ?PR?_SEND_PORT?PTO_PARALELO



SYMBOL TABLE OF MODULE:  .\Objects\expedidor_v_01_raspberry (MAIN)
BL51 BANKED LINKER/LOCATER V6.22.2.0                                                  11/05/2020  12:20:06  PAGE 24



  VALUE           TYPE          NAME
  ----------------------------------

  -------         MODULE        MAIN
  C:0000H         SYMBOL        _ICE_DUMMY_
  D:0080H         PUBLIC        P0
  D:0090H         PUBLIC        P1
  C:B2A3H         PUBLIC        timer0_int
  D:00B0H         PUBLIC        P3
  B:00A8H.7       PUBLIC        EA
  C:B6B6H         PUBLIC        off_Timer0_Interrup
  X:016AH         PUBLIC        ValTimeOutCom
  X:016BH         PUBLIC        Buffer_Rta_Lintech
  X:019DH         PUBLIC        Timer_wait
  X:019EH         PUBLIC        g_cContByteRx
  B:0080H.0       PUBLIC        rx_ip
  B:0080H.3       PUBLIC        Atascado
  C:A1E0H         PUBLIC        main
  X:019FH         PUBLIC        Timer_tivo
  C:A9F9H         PUBLIC        variable_inicio
  B:0090H.7       PUBLIC        lock
  I:0022H         PUBLIC        rbuf
  C:B6A7H         PUBLIC        on_Timer0_Interrup
  I:0054H         PUBLIC        tbuf
  B:0090H.1       PUBLIC        DataIn
  D:0089H         PUBLIC        TMOD
  X:01A1H         PUBLIC        USE_LPR
  X:01A2H         PUBLIC        Debug_Tibbo
  X:01A3H         PUBLIC        Raspberry
  X:01A4H         PUBLIC        SIN_COBRO
  X:01A6H         PUBLIC        Tipo_Vehiculo
  B:00B0H.3       PUBLIC        busy
  C:B612H         PUBLIC        ini_timer
  B:00A8H.1       PUBLIC        ET0
  B:0088H.5       PUBLIC        TF0
  D:008CH         PUBLIC        TH0
  X:01A7H         PUBLIC        ACK
  X:01A8H         PUBLIC        g_cEstadoComSoft
  D:008AH         PUBLIC        TL0
  B:0088H.4       PUBLIC        TR0
  C:B622H         PUBLIC        inicia_board
  X:01A9H         PUBLIC        T_GRACIA
  B:0080H.7       PUBLIC        sel_com
  X:01ABH         PUBLIC        STX_LINTECH
  C:B641H         PUBLIC        _getkey
  X:01ACH         PUBLIC        ETX
  C:AC49H         PUBLIC        _EscribirCadenaSoft_buffer
  B:0021H.1       PUBLIC        buffer_ready
  C:AEE5H         PUBLIC        _putchar
  B:0021H.2       PUBLIC        placa_ready
  -------         PROC          TIMER0_INT
  C:B2A3H         LINE#         16
  C:B2A9H         LINE#         19
  C:B2AFH         LINE#         20
  C:B2B4H         LINE#         21
  C:B2B4H         LINE#         22
BL51 BANKED LINKER/LOCATER V6.22.2.0                                                  11/05/2020  12:20:06  PAGE 25


  C:B2BAH         LINE#         23
  C:B2BAH         LINE#         25
  C:B2C8H         LINE#         26
  C:B2CAH         LINE#         28
  -------         ENDPROC       TIMER0_INT
  -------         PROC          INI_TIMER
  C:B612H         LINE#         31
  C:B612H         LINE#         32
  C:B612H         LINE#         34
  C:B61AH         LINE#         36
  C:B61DH         LINE#         37
  C:B61FH         LINE#         38
  C:B621H         LINE#         40
  -------         ENDPROC       INI_TIMER
  -------         PROC          ON_TIMER0_INTERRUP
  C:B6A7H         LINE#         43
  C:B6A7H         LINE#         44
  C:B6A7H         LINE#         45
  C:B6A9H         LINE#         46
  C:B6ABH         LINE#         48
  -------         ENDPROC       ON_TIMER0_INTERRUP
  -------         PROC          OFF_TIMER0_INTERRUP
  C:B6B6H         LINE#         51
  C:B6B6H         LINE#         52
  C:B6B6H         LINE#         53
  C:B6B8H         LINE#         55
  -------         ENDPROC       OFF_TIMER0_INTERRUP
  -------         PROC          _GETKEY
  -------         DO            
  D:0006H         SYMBOL        k
  -------         ENDDO         
  C:B641H         LINE#         63
  C:B641H         LINE#         64
  C:B641H         LINE#         68
  C:B641H         LINE#         69
  C:B644H         LINE#         70
  C:B644H         LINE#         71
  C:B64CH         LINE#         73
  C:B64CH         LINE#         74
  -------         ENDPROC       _GETKEY
  -------         PROC          _PUTCHAR
  X:00A7H         SYMBOL        c
  -------         DO            
  X:00A8H         SYMBOL        i
  -------         ENDDO         
  C:AEE5H         LINE#         78
  C:AEEAH         LINE#         79
  C:AEEAH         LINE#         82
  C:AEF9H         LINE#         83
  C:AEF9H         LINE#         84
  C:AF0FH         LINE#         85
  C:AF0FH         LINE#         87
  C:AF1DH         LINE#         88
  C:AF1DH         LINE#         90
  C:AF22H         LINE#         91
  -------         ENDPROC       _PUTCHAR
  -------         PROC          _ESCRIBIRCADENASOFT_BUFFER
BL51 BANKED LINKER/LOCATER V6.22.2.0                                                  11/05/2020  12:20:06  PAGE 26


  X:0027H         SYMBOL        buffer
  X:002AH         SYMBOL        tamano_cadena
  -------         DO            
  X:002BH         SYMBOL        i
  X:002CH         SYMBOL        d
  -------         ENDDO         
  C:AC49H         LINE#         95
  C:AC57H         LINE#         96
  C:AC57H         LINE#         98
  C:AC65H         LINE#         99
  C:AC65H         LINE#         100
  C:AC7CH         LINE#         101
  C:AC86H         LINE#         102
  C:AC8EH         LINE#         103
  -------         ENDPROC       _ESCRIBIRCADENASOFT_BUFFER
  -------         PROC          INICIA_BOARD
  C:B622H         LINE#         108
  C:B622H         LINE#         109
  C:B622H         LINE#         110
  C:B625H         LINE#         111
  C:B628H         LINE#         112
  C:B62BH         LINE#         113
  C:B62DH         LINE#         114
  C:B62FH         LINE#         115
  C:B631H         LINE#         117
  -------         ENDPROC       INICIA_BOARD
  -------         PROC          VARIABLE_INICIO
  C:A9F9H         LINE#         122
  C:A9F9H         LINE#         123
  C:A9F9H         LINE#         126
  C:AA0AH         LINE#         127
  C:AA1BH         LINE#         128
  C:AA29H         LINE#         129
  C:AA37H         LINE#         130
  C:AA45H         LINE#         132
  -------         ENDPROC       VARIABLE_INICIO
  -------         PROC          MAIN
  -------         DO            
  X:0141H         SYMBOL        buffer
  X:0169H         SYMBOL        Estado_Comunicacion_Secuencia_MF
  X:0000H         SYMBOL        Length_trama
  -------         ENDDO         
  C:A1E0H         LINE#         140
  C:A1E0H         LINE#         141
  C:A1E0H         LINE#         148
  C:A1E3H         LINE#         149
  C:A1E6H         LINE#         150
  C:A1E9H         LINE#         151
  C:A1ECH         LINE#         152
  C:A1EFH         LINE#         153
  C:A1F1H         LINE#         155
  C:A1F4H         LINE#         156
  C:A1FBH         LINE#         157
  C:A1FEH         LINE#         159
  C:A203H         LINE#         161
  C:A206H         LINE#         163
  C:A209H         LINE#         164
BL51 BANKED LINKER/LOCATER V6.22.2.0                                                  11/05/2020  12:20:06  PAGE 27


  C:A209H         LINE#         165
  C:A20CH         LINE#         166
  C:A20CH         LINE#         169
  C:A20FH         LINE#         170
  C:A215H         LINE#         171
  C:A21BH         LINE#         173
  C:A21BH         LINE#         174
  C:A21BH         LINE#         177
  C:A21EH         LINE#         178
  C:A21EH         LINE#         179
  C:A221H         LINE#         180
  C:A221H         LINE#         184
  C:A22EH         LINE#         189
  C:A231H         LINE#         190
  C:A231H         LINE#         192
  C:A240H         LINE#         194
  C:A249H         LINE#         196
  C:A257H         LINE#         198
  C:A257H         LINE#         199
  C:A25AH         LINE#         203
  -------         ENDPROC       MAIN
  -------         ENDMOD        MAIN

  -------         MODULE        ACCESCAN
  C:0000H         SYMBOL        _ICE_DUMMY_
  D:0080H         PUBLIC        P0
  D:0090H         PUBLIC        P1
  B:0080H.2       PUBLIC        led_err_imp
  C:ADE4H         PUBLIC        _Monitor_chr
  B:0080H.3       PUBLIC        Atascado
  B:0090H.7       PUBLIC        lock
  C:3FE3H         PUBLIC        _Valida_Trama_Pto
  C:7FA8H         PUBLIC        _Cmd_LPR_Salida_wiegand
  -------         PROC          _VALIDA_TRAMA_PTO
  X:0001H         SYMBOL        buffer
  X:0004H         SYMBOL        length_trama
  -------         DO            
  X:0267H         SYMBOL        cont
  X:0005H         SYMBOL        buff
  -------         ENDDO         
  C:3FE3H         LINE#         85
  C:3FF1H         LINE#         86
  C:3FF1H         LINE#         92
  C:4027H         LINE#         93
  C:4027H         LINE#         94
  C:403CH         LINE#         95
  C:403CH         LINE#         96
  C:404FH         LINE#         98
  C:4052H         LINE#         100
  C:4052H         LINE#         102
  C:4052H         LINE#         104
  C:4064H         LINE#         105
  C:4064H         LINE#         106
  C:406AH         LINE#         107
  C:4077H         LINE#         108
  C:4077H         LINE#         109
  C:407CH         LINE#         110
BL51 BANKED LINKER/LOCATER V6.22.2.0                                                  11/05/2020  12:20:06  PAGE 28


  C:407EH         LINE#         111
  C:4083H         LINE#         112
  C:4085H         LINE#         113
  C:4087H         LINE#         114
  C:408BH         LINE#         115
  C:408BH         LINE#         116
  C:408CH         LINE#         118
  C:40A4H         LINE#         119
  C:40A4H         LINE#         121
  C:40B1H         LINE#         122
  C:40B1H         LINE#         123
  C:40B3H         LINE#         124
  C:40B5H         LINE#         125
  C:40B7H         LINE#         126
  C:40B9H         LINE#         127
  C:40B9H         LINE#         129
  C:40DFH         LINE#         130
  C:40DFH         LINE#         131
  C:40E3H         LINE#         132
  C:40E8H         LINE#         133
  C:40F1H         LINE#         134
  C:40F6H         LINE#         135
  C:40F6H         LINE#         138
  C:40F7H         LINE#         141
  C:4109H         LINE#         142
  C:4109H         LINE#         143
  C:410BH         LINE#         144
  C:410EH         LINE#         146
  C:4120H         LINE#         147
  C:4120H         LINE#         148
  C:4122H         LINE#         149
  C:4125H         LINE#         151
  C:413FH         LINE#         152
  C:413FH         LINE#         153
  C:4141H         LINE#         154
  C:4144H         LINE#         157
  C:415EH         LINE#         158
  C:415EH         LINE#         159
  C:4160H         LINE#         160
  C:4162H         LINE#         163
  C:417CH         LINE#         164
  C:417CH         LINE#         165
  C:417EH         LINE#         166
  C:4180H         LINE#         170
  C:419AH         LINE#         171
  C:419AH         LINE#         172
  C:419CH         LINE#         173
  C:419EH         LINE#         176
  C:41B8H         LINE#         177
  C:41B8H         LINE#         178
  C:41BAH         LINE#         179
  C:41BCH         LINE#         181
  C:41D6H         LINE#         182
  C:41D6H         LINE#         183
  C:41DBH         LINE#         184
  C:41DBH         LINE#         186
  C:420BH         LINE#         187
BL51 BANKED LINKER/LOCATER V6.22.2.0                                                  11/05/2020  12:20:06  PAGE 29


  C:420BH         LINE#         188
  C:4219H         LINE#         189
  C:421CH         LINE#         192
  C:425FH         LINE#         193
  C:425FH         LINE#         195
  C:4274H         LINE#         196
  C:427AH         LINE#         197
  C:42A4H         LINE#         200
  C:42ACH         LINE#         201
  C:42ACH         LINE#         204
  C:42B3H         LINE#         205
  C:42B3H         LINE#         206
  C:42B8H         LINE#         207
  C:42B8H         LINE#         208
  C:42BAH         LINE#         210
  C:42BAH         LINE#         211
  C:42C3H         LINE#         212
  C:42CBH         LINE#         213
  C:42CBH         LINE#         218
  C:42CDH         LINE#         221
  C:42CDH         LINE#         224
  C:42D4H         LINE#         225
  C:42D4H         LINE#         226
  C:42D9H         LINE#         227
  C:42D9H         LINE#         228
  C:42E4H         LINE#         232
  C:42E4H         LINE#         233
  C:42E4H         LINE#         235
  C:4311H         LINE#         236
  C:4311H         LINE#         237
  C:4320H         LINE#         239
  C:4320H         LINE#         241
  -------         ENDPROC       _VALIDA_TRAMA_PTO
  -------         PROC          _MONITOR_CHR
  X:0032H         SYMBOL        str
  X:0035H         SYMBOL        num_char
  -------         DO            
  X:0036H         SYMBOL        j
  -------         ENDDO         
  C:ADE4H         LINE#         396
  C:ADF2H         LINE#         397
  C:ADF2H         LINE#         399
  C:AE00H         LINE#         400
  C:AE00H         LINE#         401
  C:AE12H         LINE#         402
  C:AE1CH         LINE#         403
  C:AE24H         LINE#         404
  -------         ENDPROC       _MONITOR_CHR
  -------         PROC          _CMD_LPR_SALIDA_WIEGAND
  X:0010H         SYMBOL        buffer
  -------         DO            
  X:0013H         SYMBOL        Buffer_Lpr
  X:0031H         SYMBOL        j
  -------         ENDDO         
  C:7FA8H         LINE#         409
  C:7FB3H         LINE#         410
  C:7FB3H         LINE#         412
BL51 BANKED LINKER/LOCATER V6.22.2.0                                                  11/05/2020  12:20:06  PAGE 30


  C:7FB9H         LINE#         413
  C:7FBEH         LINE#         414
  C:7FC6H         LINE#         415
  C:7FCAH         LINE#         416
  C:7FD3H         LINE#         417
  C:7FD3H         LINE#         418
  C:7FE4H         LINE#         419
  C:7FE6H         LINE#         421
  C:7FE6H         LINE#         422
  C:7FF7H         LINE#         423
  C:7FF7H         LINE#         427
  C:800EH         LINE#         428
  C:800EH         LINE#         429
  C:801DH         LINE#         430
  C:8027H         LINE#         432
  C:802FH         LINE#         433
  C:8043H         LINE#         435
  C:8053H         LINE#         436
  C:8064H         LINE#         437
  C:8071H         LINE#         441
  -------         ENDPROC       _CMD_LPR_SALIDA_WIEGAND
  -------         ENDMOD        ACCESCAN

  -------         MODULE        CLOCK
  C:0000H         SYMBOL        _ICE_DUMMY_
  C:AE59H         PUBLIC        _two_one
  D:0090H         PUBLIC        P1
  C:6E42H         PUBLIC        _validar_clk
  C:B327H         PUBLIC        _wr_clk
  C:854FH         PUBLIC        _check_fechaOut
  B:00D0H.7       PUBLIC        CY
  C:0003H         PUBLIC        p_ck
  C:97BFH         PUBLIC        _hex_ascii
  X:0268H         PUBLIC        data_clk
  C:B669H         PUBLIC        cond_ini_clock
  C:8618H         PUBLIC        _Block_read_Clock
  B:0090H.4       PUBLIC        sck
  C:91A3H         PUBLIC        _Block_read_Clock_Hex
  C:5BD6H         PUBLIC        _Block_read_clock_ascii
  C:AF3FH         PUBLIC        _hex_bcd
  C:B4FBH         PUBLIC        _bcd_hex
  C:A791H         PUBLIC        _ByteHex_Decimal
  C:98EBH         PUBLIC        _lee_clk
  B:0090H.5       PUBLIC        io
  C:9A01H         PUBLIC        _Block_write_clock_ascii
  B:0090H.6       PUBLIC        rst
  C:AEA6H         PUBLIC        _eb_clk
  C:4321H         PUBLIC        _Two_ByteHex_Decimal
  -------         PROC          P_CK
  C:0003H         LINE#         48
  C:0003H         LINE#         49
  C:0003H         LINE#         50
  C:0005H         LINE#         51
  C:0008H         LINE#         52
  C:000AH         LINE#         53
  -------         ENDPROC       P_CK
  -------         PROC          _EB_CLK
BL51 BANKED LINKER/LOCATER V6.22.2.0                                                  11/05/2020  12:20:06  PAGE 31


  X:00B4H         SYMBOL        dir_clk
  -------         DO            
  X:00B5H         SYMBOL        nbits
  -------         ENDDO         
  C:AEA6H         LINE#         55
  C:AEABH         LINE#         57
  C:AEB0H         LINE#         58
  C:AEB0H         LINE#         59
  C:AEB9H         LINE#         60
  C:AEBCH         LINE#         61
  C:AEBCH         LINE#         62
  C:AEBEH         LINE#         63
  C:AEC0H         LINE#         65
  C:AEC0H         LINE#         66
  C:AEC2H         LINE#         67
  C:AEC2H         LINE#         68
  C:AEC5H         LINE#         69
  C:AEE4H         LINE#         70
  -------         ENDPROC       _EB_CLK
  C:98E1H         SYMBOL        L?0082
  -------         PROC          L?0081
  -------         ENDPROC       L?0081
  C:98E1H         SYMBOL        L?0082
  -------         PROC          _LEE_CLK
  X:00B1H         SYMBOL        dir_clk
  -------         DO            
  X:00B2H         SYMBOL        nbits
  -------         ENDDO         
  C:98EBH         LINE#         72
  C:98F0H         LINE#         74
  C:98F2H         LINE#         75
  C:98F9H         LINE#         76
  C:9901H         LINE#         77
  C:991AH         LINE#         78
  C:991AH         LINE#         79
  C:991DH         LINE#         80
  C:991DH         LINE#         81
  C:9924H         LINE#         82
  C:992EH         LINE#         83
  C:9933H         LINE#         84
  C:9933H         LINE#         85
  C:9933H         LINE#         86
  C:9936H         LINE#         87
  C:9936H         LINE#         88
  C:993DH         LINE#         89
  C:994EH         LINE#         90
  C:994EH         LINE#         91
  C:9956H         LINE#         92
  C:9956H         LINE#         93
  C:9956H         LINE#         94
  C:9959H         LINE#         95
  C:9969H         LINE#         96
  C:996BH         LINE#         97
  C:9970H         LINE#         98
  -------         ENDPROC       _LEE_CLK
  -------         PROC          _WR_CLK
  X:0013H         SYMBOL        dir_clk
BL51 BANKED LINKER/LOCATER V6.22.2.0                                                  11/05/2020  12:20:06  PAGE 32


  X:0014H         SYMBOL        byte
  C:B327H         LINE#         100
  C:B32FH         LINE#         101
  C:B331H         LINE#         102
  C:B338H         LINE#         103
  C:B340H         LINE#         104
  C:B349H         LINE#         105
  C:B34CH         LINE#         106
  C:B34EH         LINE#         108
  -------         ENDPROC       _WR_CLK
  C:AE25H         SYMBOL        L?0077
  C:AE43H         SYMBOL        L?0078
  -------         PROC          L?0076
  -------         ENDPROC       L?0076
  C:AE25H         SYMBOL        L?0077
  C:AE43H         SYMBOL        L?0078
  -------         PROC          _TWO_ONE
  D:0007H         SYMBOL        byte_h
  D:0005H         SYMBOL        byte_l
  -------         DO            
  D:0007H         SYMBOL        byte_out
  -------         ENDDO         
  C:AE59H         LINE#         110
  C:AE59H         LINE#         111
  C:AE59H         LINE#         113
  C:AE5CH         LINE#         114
  C:AE60H         LINE#         115
  C:AE63H         LINE#         116
  C:AE65H         LINE#         117
  C:AE65H         LINE#         118
  -------         ENDPROC       _TWO_ONE
  -------         PROC          _VALIDAR_CLK
  D:0001H         SYMBOL        datos_clock
  -------         DO            
  D:0007H         SYMBOL        validador
  -------         ENDDO         
  C:6E42H         LINE#         122
  C:6E42H         LINE#         123
  C:6E42H         LINE#         124
  C:6E44H         LINE#         127
  C:6E59H         LINE#         128
  C:6E59H         LINE#         130
  C:6E71H         LINE#         131
  C:6E71H         LINE#         133
  C:6E89H         LINE#         134
  C:6E89H         LINE#         135
  C:6EA1H         LINE#         136
  C:6EA1H         LINE#         137
  C:6EB9H         LINE#         138
  C:6EB9H         LINE#         139
  C:6ECEH         LINE#         140
  C:6ECEH         LINE#         141
  C:6EE0H         LINE#         142
  C:6EE0H         LINE#         143
  C:6EF2H         LINE#         144
  C:6EF2H         LINE#         145
  C:6F04H         LINE#         146
BL51 BANKED LINKER/LOCATER V6.22.2.0                                                  11/05/2020  12:20:06  PAGE 33


  C:6F04H         LINE#         147
  C:6F16H         LINE#         148
  C:6F16H         LINE#         149
  C:6F28H         LINE#         150
  C:6F28H         LINE#         151
  C:6F38H         LINE#         152
  C:6F38H         LINE#         153
  C:6F38H         LINE#         154
  C:6F38H         LINE#         155
  C:6F39H         LINE#         157
  C:6F39H         LINE#         158
  C:6F3BH         LINE#         159
  C:6F3BH         LINE#         160
  C:6F3CH         LINE#         162
  C:6F3CH         LINE#         163
  C:6F3EH         LINE#         165
  C:6F3EH         LINE#         166
  C:6F3FH         LINE#         168
  C:6F3FH         LINE#         169
  C:6F41H         LINE#         171
  C:6F41H         LINE#         173
  C:6F42H         LINE#         175
  C:6F42H         LINE#         176
  C:6F44H         LINE#         178
  C:6F44H         LINE#         179
  C:6F45H         LINE#         181
  C:6F45H         LINE#         182
  C:6F47H         LINE#         184
  C:6F47H         LINE#         185
  C:6F48H         LINE#         187
  C:6F48H         LINE#         188
  C:6F4AH         LINE#         190
  C:6F4AH         LINE#         191
  C:6F4BH         LINE#         193
  C:6F4BH         LINE#         194
  C:6F4DH         LINE#         196
  C:6F4DH         LINE#         197
  C:6F4DH         LINE#         199
  C:6F4EH         LINE#         201
  C:6F4EH         LINE#         202
  C:6F50H         LINE#         204
  C:6F50H         LINE#         206
  C:6F51H         LINE#         209
  C:6F51H         LINE#         210
  C:6F53H         LINE#         212
  C:6F53H         LINE#         214
  C:6F54H         LINE#         217
  C:6F54H         LINE#         218
  C:6F56H         LINE#         220
  C:6F56H         LINE#         222
  C:6F56H         LINE#         224
  -------         ENDPROC       _VALIDAR_CLK
  -------         PROC          _BLOCK_WRITE_CLOCK_ASCII
  X:0010H         SYMBOL        datos_clock
  -------         DO            
  D:0007H         SYMBOL        temp
  -------         ENDDO         
BL51 BANKED LINKER/LOCATER V6.22.2.0                                                  11/05/2020  12:20:06  PAGE 34


  C:9A01H         LINE#         230
  C:9A0CH         LINE#         232
  C:9A0CH         LINE#         237
  C:9A16H         LINE#         238
  C:9A16H         LINE#         239
  C:9A16H         LINE#         240
  C:9A16H         LINE#         242
  C:9A20H         LINE#         243
  C:9A2AH         LINE#         244
  C:9A34H         LINE#         245
  C:9A34H         LINE#         246
  C:9A34H         LINE#         247
  C:9A34H         LINE#         249
  C:9A3EH         LINE#         250
  C:9A3EH         LINE#         251
  C:9A3EH         LINE#         252
  C:9A3EH         LINE#         254
  C:9A48H         LINE#         255
  C:9A48H         LINE#         256
  C:9A48H         LINE#         257
  C:9A48H         LINE#         259
  C:9A52H         LINE#         260
  C:9A52H         LINE#         261
  C:9A52H         LINE#         262
  C:9A52H         LINE#         264
  C:9A5CH         LINE#         265
  C:9A66H         LINE#         266
  C:9A70H         LINE#         267
  C:9A7AH         LINE#         269
  C:9A8AH         LINE#         270
  -------         ENDPROC       _BLOCK_WRITE_CLOCK_ASCII
  -------         PROC          _BCD_HEX
  D:0007H         SYMBOL        l_data
  -------         DO            
  D:0006H         SYMBOL        temp
  D:0005H         SYMBOL        j
  -------         ENDDO         
  C:B4FBH         LINE#         276
  C:B4FBH         LINE#         277
  C:B4FBH         LINE#         279
  C:B4FDH         LINE#         280
  C:B501H         LINE#         281
  C:B504H         LINE#         282
  C:B506H         LINE#         283
  C:B506H         LINE#         284
  C:B50AH         LINE#         285
  C:B511H         LINE#         286
  C:B511H         LINE#         287
  C:B515H         LINE#         288
  C:B518H         LINE#         289
  C:B518H         LINE#         290
  C:B518H         LINE#         291
  -------         ENDPROC       _BCD_HEX
  C:AF30H         SYMBOL        L?0080
  -------         PROC          L?0079
  -------         ENDPROC       L?0079
  C:AF30H         SYMBOL        L?0080
BL51 BANKED LINKER/LOCATER V6.22.2.0                                                  11/05/2020  12:20:06  PAGE 35


  -------         PROC          _HEX_BCD
  D:0007H         SYMBOL        byte
  -------         DO            
  D:0006H         SYMBOL        nibble_h
  D:0005H         SYMBOL        nibble_l
  D:0004H         SYMBOL        k
  D:0007H         SYMBOL        byte_out
  -------         ENDDO         
  C:AF3FH         LINE#         295
  C:AF3FH         LINE#         296
  C:AF3FH         LINE#         301
  C:AF41H         LINE#         302
  C:AF42H         LINE#         304
  C:AF48H         LINE#         305
  C:AF48H         LINE#         306
  C:AF49H         LINE#         307
  C:AF4EH         LINE#         308
  C:AF4EH         LINE#         309
  C:AF4FH         LINE#         310
  C:AF50H         LINE#         311
  C:AF50H         LINE#         312
  C:AF53H         LINE#         313
  C:AF57H         LINE#         314
  C:AF5AH         LINE#         315
  C:AF5DH         LINE#         316
  C:AF5FH         LINE#         317
  C:AF5FH         LINE#         319
  -------         ENDPROC       _HEX_BCD
  -------         PROC          _HEX_ASCII
  X:005DH         SYMBOL        datos
  X:0060H         SYMBOL        fecha_asii
  -------         DO            
  D:0007H         SYMBOL        dato
  -------         ENDDO         
  C:97BFH         LINE#         320
  C:97CAH         LINE#         321
  C:97CAH         LINE#         325
  C:97CDH         LINE#         326
  C:97E5H         LINE#         327
  C:97FAH         LINE#         328
  C:97FAH         LINE#         330
  C:97FDH         LINE#         331
  C:9818H         LINE#         332
  C:9820H         LINE#         333
  C:9820H         LINE#         335
  C:9823H         LINE#         336
  C:983EH         LINE#         337
  C:9849H         LINE#         339
  -------         ENDPROC       _HEX_ASCII
  -------         PROC          _BYTEHEX_DECIMAL
  D:0001H         SYMBOL        buffer
  D:0005H         SYMBOL        valorhex
  -------         DO            
  X:0015H         SYMBOL        numero
  D:0007H         SYMBOL        centena
  D:0006H         SYMBOL        decena
  -------         ENDDO         
BL51 BANKED LINKER/LOCATER V6.22.2.0                                                  11/05/2020  12:20:06  PAGE 36


  C:A791H         LINE#         347
  C:A791H         LINE#         348
  C:A791H         LINE#         351
  C:A793H         LINE#         352
  C:A794H         LINE#         353
  C:A799H         LINE#         355
  C:A7A6H         LINE#         356
  C:A7A6H         LINE#         357
  C:A7AAH         LINE#         358
  C:A7ABH         LINE#         359
  C:A7ADH         LINE#         360
  C:A7B3H         LINE#         361
  C:A7BAH         LINE#         362
  C:A7C7H         LINE#         363
  C:A7C7H         LINE#         364
  C:A7CBH         LINE#         365
  C:A7CCH         LINE#         366
  C:A7CEH         LINE#         367
  C:A7D4H         LINE#         368
  C:A7DBH         LINE#         369
  C:A7E4H         LINE#         370
  C:A7EBH         LINE#         371
  -------         ENDPROC       _BYTEHEX_DECIMAL
  -------         PROC          _TWO_BYTEHEX_DECIMAL
  X:0015H         SYMBOL        buffer
  X:0018H         SYMBOL        id_h
  X:0019H         SYMBOL        id_l
  -------         DO            
  X:001AH         SYMBOL        valor
  D:0006H         SYMBOL        numero
  X:001CH         SYMBOL        temp
  X:001DH         SYMBOL        dmil
  X:001EH         SYMBOL        mil
  X:001FH         SYMBOL        centena
  X:0020H         SYMBOL        decena
  -------         ENDDO         
  C:4321H         LINE#         378
  C:432FH         LINE#         379
  C:432FH         LINE#         383
  C:4336H         LINE#         384
  C:433AH         LINE#         385
  C:433CH         LINE#         386
  C:433EH         LINE#         387
  C:4340H         LINE#         390
  C:4345H         LINE#         391
  C:4348H         LINE#         392
  C:434EH         LINE#         394
  C:43A9H         LINE#         395
  C:43B1H         LINE#         396
  C:43B4H         LINE#         397
  C:440FH         LINE#         399
  C:4417H         LINE#         400
  C:441AH         LINE#         401
  C:4420H         LINE#         402
  C:447BH         LINE#         403
  C:4483H         LINE#         404
  C:4486H         LINE#         405
BL51 BANKED LINKER/LOCATER V6.22.2.0                                                  11/05/2020  12:20:06  PAGE 37


  C:44E1H         LINE#         406
  C:44E1H         LINE#         408
  C:44EAH         LINE#         409
  C:44EAH         LINE#         410
  C:44F2H         LINE#         411
  C:44F8H         LINE#         412
  C:44FAH         LINE#         413
  C:4510H         LINE#         414
  C:451AH         LINE#         415
  C:4523H         LINE#         416
  C:4523H         LINE#         417
  C:452BH         LINE#         418
  C:4531H         LINE#         419
  C:4533H         LINE#         420
  C:4549H         LINE#         421
  C:4553H         LINE#         422
  C:455CH         LINE#         423
  C:455CH         LINE#         424
  C:4564H         LINE#         425
  C:456AH         LINE#         426
  C:456CH         LINE#         427
  C:4582H         LINE#         428
  C:458CH         LINE#         429
  C:4595H         LINE#         430
  C:4595H         LINE#         431
  C:459DH         LINE#         432
  C:45A3H         LINE#         433
  C:45A5H         LINE#         434
  C:45BBH         LINE#         435
  C:45C5H         LINE#         436
  C:45D8H         LINE#         437
  C:45E2H         LINE#         438
  -------         ENDPROC       _TWO_BYTEHEX_DECIMAL
  -------         PROC          _BLOCK_READ_CLOCK_ASCII
  X:0051H         SYMBOL        datos_clock
  -------         DO            
  D:0007H         SYMBOL        dato
  -------         ENDDO         
  C:5BD6H         LINE#         444
  C:5BD9H         LINE#         445
  C:5BD9H         LINE#         451
  C:5BDCH         LINE#         452
  C:5BF4H         LINE#         453
  C:5BFEH         LINE#         454
  C:5C13H         LINE#         455
  C:5C1DH         LINE#         458
  C:5C22H         LINE#         459
  C:5C3AH         LINE#         460
  C:5C44H         LINE#         461
  C:5C59H         LINE#         462
  C:5C63H         LINE#         465
  C:5C68H         LINE#         466
  C:5C80H         LINE#         467
  C:5C8AH         LINE#         468
  C:5C9FH         LINE#         469
  C:5CA9H         LINE#         473
  C:5CAEH         LINE#         474
BL51 BANKED LINKER/LOCATER V6.22.2.0                                                  11/05/2020  12:20:06  PAGE 38


  C:5CC6H         LINE#         475
  C:5CD0H         LINE#         476
  C:5CE5H         LINE#         477
  C:5CEFH         LINE#         480
  C:5CF4H         LINE#         481
  C:5D0CH         LINE#         482
  C:5D16H         LINE#         483
  C:5D2BH         LINE#         484
  C:5D35H         LINE#         485
  -------         ENDPROC       _BLOCK_READ_CLOCK_ASCII
  -------         PROC          _BLOCK_READ_CLOCK_HEX
  X:00AEH         SYMBOL        datos_clock
  C:91A3H         LINE#         489
  C:91A6H         LINE#         490
  C:91A6H         LINE#         493
  C:91BBH         LINE#         494
  C:91C5H         LINE#         496
  C:91DCH         LINE#         497
  C:91E6H         LINE#         499
  C:91FDH         LINE#         500
  C:9207H         LINE#         502
  C:921EH         LINE#         503
  C:9228H         LINE#         505
  C:923FH         LINE#         506
  -------         ENDPROC       _BLOCK_READ_CLOCK_HEX
  -------         PROC          _BLOCK_READ_CLOCK
  X:001DH         SYMBOL        datos_clock
  C:8618H         LINE#         533
  C:861BH         LINE#         534
  C:861BH         LINE#         536
  C:862DH         LINE#         537
  C:8637H         LINE#         539
  C:864BH         LINE#         540
  C:8655H         LINE#         542
  C:8669H         LINE#         543
  C:8673H         LINE#         545
  C:8687H         LINE#         546
  C:8691H         LINE#         548
  C:86A5H         LINE#         549
  C:86AFH         LINE#         551
  C:86C3H         LINE#         552
  C:86CDH         LINE#         553
  -------         ENDPROC       _BLOCK_READ_CLOCK
  -------         PROC          COND_INI_CLOCK
  C:B669H         LINE#         556
  C:B669H         LINE#         557
  C:B669H         LINE#         558
  C:B66BH         LINE#         559
  C:B66DH         LINE#         560
  C:B66FH         LINE#         561
  -------         ENDPROC       COND_INI_CLOCK
  -------         PROC          _CHECK_FECHAOUT
  X:009CH         SYMBOL        buffer
  -------         DO            
  X:009FH         SYMBOL        fecha_inicio
  X:00A3H         SYMBOL        fecha_fin
  X:00A7H         SYMBOL        datos_clk
BL51 BANKED LINKER/LOCATER V6.22.2.0                                                  11/05/2020  12:20:06  PAGE 39


  X:00ADH         SYMBOL        temp
  -------         ENDDO         
  C:854FH         LINE#         571
  C:855AH         LINE#         572
  C:855AH         LINE#         578
  C:8563H         LINE#         579
  C:8592H         LINE#         580
  C:85E5H         LINE#         583
  C:8605H         LINE#         584
  C:8605H         LINE#         585
  C:860BH         LINE#         586
  C:860DH         LINE#         588
  C:860DH         LINE#         589
  C:8612H         LINE#         590
  C:8612H         LINE#         594
  C:8617H         LINE#         595
  -------         ENDPROC       _CHECK_FECHAOUT
  -------         ENDMOD        CLOCK

  -------         MODULE        DELAY
  C:0000H         SYMBOL        _ICE_DUMMY_
  C:B0C7H         PUBLIC        _Delay_10ms
  C:B5B8H         PUBLIC        _Delay_20us
  C:B519H         PUBLIC        _Delay_1ms
  C:B6BCH         PUBLIC        Delay
  -------         PROC          _DELAY_20US
  D:0006H         SYMBOL        cntd_us
  -------         DO            
  D:0004H         SYMBOL        i
  -------         ENDDO         
  C:B5B8H         LINE#         20
  C:B5B8H         LINE#         21
  C:B5B8H         LINE#         24
  C:B5C2H         LINE#         26
  C:B5C9H         LINE#         27
  -------         ENDPROC       _DELAY_20US
  -------         PROC          _DELAY_1MS
  D:0002H         SYMBOL        cntd_ms
  -------         DO            
  D:0082H         SYMBOL        i
  -------         ENDDO         
  C:B519H         LINE#         38
  C:B51DH         LINE#         39
  C:B51DH         LINE#         41
  C:B533H         LINE#         42
  -------         ENDPROC       _DELAY_1MS
  -------         PROC          _DELAY_10MS
  X:0008H         SYMBOL        cntd_10ms
  -------         DO            
  X:000AH         SYMBOL        i
  -------         ENDDO         
  C:B0C7H         LINE#         54
  C:B0CFH         LINE#         55
  C:B0CFH         LINE#         57
  C:B100H         LINE#         58
  -------         ENDPROC       _DELAY_10MS
  -------         PROC          DELAY
BL51 BANKED LINKER/LOCATER V6.22.2.0                                                  11/05/2020  12:20:06  PAGE 40


  C:B6BCH         LINE#         60
  C:B6BCH         LINE#         62
  -------         ENDPROC       DELAY
  -------         ENDMOD        DELAY

  -------         MODULE        EEPROM
  C:0000H         SYMBOL        _ICE_DUMMY_
  D:0090H         PUBLIC        P1
  C:7A59H         PUBLIC        _Write_EEprom_Ticket
  C:A528H         PUBLIC        _EscribirMemoria
  X:025EH         PUBLIC        l_chr
  C:B480H         PUBLIC        ackd
  B:0021H.5       PUBLIC        memory_flag
  B:00D0H.7       PUBLIC        CY
  C:B6A1H         PUBLIC        p_me
  C:B5D2H         PUBLIC        start
  B:0090H.2       PUBLIC        sda
  C:B4A0H         PUBLIC        ack_lect
  B:0090H.3       PUBLIC        scl
  C:AF64H         PUBLIC        _rd_eeprom
  C:B657H         PUBLIC        stop
  X:025FH         PUBLIC        l_data_eeprom
  C:A96CH         PUBLIC        _wr_eeprom
  C:A602H         PUBLIC        _LeerMemoria
  C:B1A5H         PUBLIC        Incremente_Ticket
  X:0260H         PUBLIC        byte_rd
  C:8485H         PUBLIC        Read_EEprom_Ticket
  C:B45BH         PUBLIC        _e_d_m
  C:82EEH         PUBLIC        _graba_serie
  C:AA93H         PUBLIC        Lee_No_Ticket
  C:AA46H         PUBLIC        l_d_m
  -------         PROC          L?0057
  -------         ENDPROC       L?0057
  -------         PROC          ACKD
  -------         DO            
  D:0006H         SYMBOL        i
  -------         ENDDO         
  C:B480H         LINE#         35
  C:B480H         LINE#         36
  C:B480H         LINE#         38
  C:B482H         LINE#         39
  C:B484H         LINE#         40
  C:B486H         LINE#         41
  C:B489H         LINE#         42
  C:B489H         LINE#         43
  C:B48CH         LINE#         44
  C:B48CH         LINE#         45
  C:B48EH         LINE#         46
  C:B490H         LINE#         48
  C:B491H         LINE#         49
  C:B491H         LINE#         50
  C:B49CH         LINE#         52
  C:B49CH         LINE#         53
  C:B49CH         LINE#         55
  C:B49CH         LINE#         56
  -------         ENDPROC       ACKD
  -------         PROC          L?0061
BL51 BANKED LINKER/LOCATER V6.22.2.0                                                  11/05/2020  12:20:06  PAGE 41


  -------         ENDPROC       L?0061
  -------         PROC          ACK_LECT
  -------         DO            
  D:0006H         SYMBOL        i
  -------         ENDDO         
  C:B4A0H         LINE#         59
  C:B4A0H         LINE#         60
  C:B4A0H         LINE#         62
  C:B4A2H         LINE#         63
  C:B4A4H         LINE#         64
  C:B4A6H         LINE#         65
  C:B4A9H         LINE#         66
  C:B4A9H         LINE#         67
  C:B4ACH         LINE#         68
  C:B4ACH         LINE#         69
  C:B4AEH         LINE#         70
  C:B4B0H         LINE#         71
  C:B4B1H         LINE#         72
  C:B4B1H         LINE#         73
  C:B4BCH         LINE#         74
  -------         ENDPROC       ACK_LECT
  -------         PROC          P_ME
  C:B6A1H         LINE#         76
  C:B6A1H         LINE#         77
  C:B6A1H         LINE#         78
  C:B6A3H         LINE#         79
  C:B6A4H         LINE#         80
  C:B6A6H         LINE#         81
  -------         ENDPROC       P_ME
  -------         PROC          _E_D_M
  D:0007H         SYMBOL        a_serial_eeprom
  -------         DO            
  D:0006H         SYMBOL        nbits
  -------         ENDDO         
  C:B45BH         LINE#         83
  C:B45BH         LINE#         84
  C:B45BH         LINE#         86
  C:B467H         LINE#         87
  C:B467H         LINE#         88
  C:B46BH         LINE#         89
  C:B46EH         LINE#         90
  C:B46EH         LINE#         91
  C:B470H         LINE#         92
  C:B472H         LINE#         94
  C:B472H         LINE#         95
  C:B474H         LINE#         96
  C:B474H         LINE#         97
  C:B476H         LINE#         98
  C:B479H         LINE#         99
  C:B47CH         LINE#         101
  -------         ENDPROC       _E_D_M
  -------         PROC          L?0058
  -------         ENDPROC       L?0058
  -------         PROC          START
  C:B5D2H         LINE#         103
  C:B5D2H         LINE#         104
  C:B5D2H         LINE#         105
BL51 BANKED LINKER/LOCATER V6.22.2.0                                                  11/05/2020  12:20:06  PAGE 42


  C:B5D4H         LINE#         106
  C:B5D6H         LINE#         107
  C:B5D7H         LINE#         108
  C:B5D9H         LINE#         109
  C:B5DBH         LINE#         111
  -------         ENDPROC       START
  -------         PROC          STOP
  C:B657H         LINE#         113
  C:B657H         LINE#         114
  C:B657H         LINE#         115
  C:B659H         LINE#         116
  C:B65BH         LINE#         117
  C:B65DH         LINE#         118
  C:B65FH         LINE#         120
  -------         ENDPROC       STOP
  -------         PROC          L_D_M
  -------         DO            
  D:0003H         SYMBOL        nbits
  -------         ENDDO         
  C:AA46H         LINE#         122
  C:AA46H         LINE#         123
  C:AA46H         LINE#         125
  C:AA53H         LINE#         126
  C:AA53H         LINE#         127
  C:AA55H         LINE#         128
  C:AA58H         LINE#         129
  C:AA58H         LINE#         130
  C:AA5FH         LINE#         131
  C:AA68H         LINE#         132
  C:AA68H         LINE#         133
  C:AA6CH         LINE#         134
  C:AA6EH         LINE#         135
  C:AA6EH         LINE#         136
  C:AA6EH         LINE#         137
  C:AA71H         LINE#         138
  C:AA71H         LINE#         139
  C:AA78H         LINE#         140
  C:AA82H         LINE#         141
  C:AA82H         LINE#         142
  C:AA86H         LINE#         143
  C:AA88H         LINE#         144
  C:AA88H         LINE#         145
  C:AA88H         LINE#         146
  C:AA8BH         LINE#         147
  C:AA8DH         LINE#         148
  C:AA92H         LINE#         149
  -------         ENDPROC       L_D_M
  -------         PROC          L?0056
  -------         ENDPROC       L?0056
  -------         PROC          _WR_EEPROM
  D:0002H         SYMBOL        control
  D:0004H         SYMBOL        Dir
  D:0003H         SYMBOL        data_eeprom
  -------         DO            
  D:0005H         SYMBOL        dir_h
  D:0001H         SYMBOL        dir_l
  -------         ENDDO         
BL51 BANKED LINKER/LOCATER V6.22.2.0                                                  11/05/2020  12:20:06  PAGE 43


  C:A96CH         LINE#         155
  C:A96EH         LINE#         156
  C:A96EH         LINE#         158
  C:A972H         LINE#         159
  C:A972H         LINE#         160
  C:A972H         LINE#         163
  C:A972H         LINE#         164
  C:A972H         LINE#         166
  C:A975H         LINE#         167
  C:A977H         LINE#         168
  C:A97AH         LINE#         169
  C:A97CH         LINE#         170
  C:A97FH         LINE#         171
  C:A984H         LINE#         172
  C:A987H         LINE#         173
  C:A98CH         LINE#         174
  C:A98FH         LINE#         175
  C:A992H         LINE#         176
  C:A999H         LINE#         178
  C:A99BH         LINE#         179
  C:A99DH         LINE#         180
  C:A9A4H         LINE#         181
  -------         ENDPROC       _WR_EEPROM
  C:AF60H         SYMBOL        L?0060
  -------         PROC          L?0059
  -------         ENDPROC       L?0059
  C:AF60H         SYMBOL        L?0060
  -------         PROC          _RD_EEPROM
  D:0003H         SYMBOL        control
  D:0004H         SYMBOL        Dir
  -------         DO            
  D:0005H         SYMBOL        dir_h
  D:0002H         SYMBOL        dir_l
  -------         ENDDO         
  C:AF64H         LINE#         219
  C:AF66H         LINE#         220
  C:AF66H         LINE#         223
  C:AF6AH         LINE#         224
  C:AF6AH         LINE#         225
  C:AF6AH         LINE#         227
  C:AF6AH         LINE#         228
  C:AF6AH         LINE#         230
  C:AF6DH         LINE#         231
  C:AF6FH         LINE#         232
  C:AF72H         LINE#         233
  C:AF74H         LINE#         234
  C:AF77H         LINE#         235
  C:AF7CH         LINE#         236
  C:AF7FH         LINE#         237
  C:AF82H         LINE#         238
  C:AF88H         LINE#         239
  C:AF8BH         LINE#         240
  C:AF8DH         LINE#         241
  C:AF90H         LINE#         242
  C:AF93H         LINE#         243
  C:AF95H         LINE#         244
  C:AF97H         LINE#         245
BL51 BANKED LINKER/LOCATER V6.22.2.0                                                  11/05/2020  12:20:06  PAGE 44


  C:AF9CH         LINE#         246
  -------         ENDPROC       _RD_EEPROM
  -------         PROC          _GRABA_SERIE
  X:0010H         SYMBOL        buffer
  -------         DO            
  X:0013H         SYMBOL        j
  X:0014H         SYMBOL        error
  -------         ENDDO         
  C:82EEH         LINE#         253
  C:82F9H         LINE#         254
  C:82F9H         LINE#         257
  C:82FEH         LINE#         262
  C:8310H         LINE#         264
  C:8323H         LINE#         265
  C:8323H         LINE#         266
  C:834CH         LINE#         267
  C:834CH         LINE#         268
  C:8352H         LINE#         270
  C:835BH         LINE#         271
  C:8369H         LINE#         272
  C:8372H         LINE#         273
  C:8372H         LINE#         275
  C:837AH         LINE#         279
  C:8380H         LINE#         280
  C:8380H         LINE#         281
  C:838EH         LINE#         283
  C:838EH         LINE#         285
  C:838EH         LINE#         286
  C:8398H         LINE#         287
  C:83A3H         LINE#         288
  C:83AEH         LINE#         289
  C:83B9H         LINE#         291
  C:83B9H         LINE#         292
  -------         ENDPROC       _GRABA_SERIE
  -------         PROC          _WRITE_EEPROM_TICKET
  X:0015H         SYMBOL        buffer
  -------         DO            
  X:0018H         SYMBOL        cod_3
  X:0019H         SYMBOL        cod_2
  X:001AH         SYMBOL        cod_1
  X:001BH         SYMBOL        cod_0
  X:001CH         SYMBOL        Noticket
  D:0004H         SYMBOL        Bnoticket
  -------         ENDDO         
  C:7A59H         LINE#         293
  C:7A64H         LINE#         294
  C:7A64H         LINE#         296
  C:7A6CH         LINE#         297
  C:7A75H         LINE#         298
  C:7A83H         LINE#         299
  C:7A8CH         LINE#         300
  C:7AA0H         LINE#         302
  C:7AA9H         LINE#         303
  C:7ABCH         LINE#         304
  C:7AC1H         LINE#         305
  C:7AC4H         LINE#         307
  C:7AD7H         LINE#         308
BL51 BANKED LINKER/LOCATER V6.22.2.0                                                  11/05/2020  12:20:06  PAGE 45


  C:7ADCH         LINE#         309
  C:7ADFH         LINE#         311
  C:7AF2H         LINE#         312
  C:7AF7H         LINE#         313
  C:7AFAH         LINE#         315
  C:7B06H         LINE#         316
  C:7B09H         LINE#         317
  C:7B12H         LINE#         319
  C:7B20H         LINE#         320
  C:7B2EH         LINE#         321
  C:7B3CH         LINE#         322
  -------         ENDPROC       _WRITE_EEPROM_TICKET
  -------         PROC          LEE_NO_TICKET
  -------         DO            
  D:0004H         SYMBOL        Noticket
  X:001DH         SYMBOL        Lee_No_Ticket
  D:0007H         SYMBOL        num_chr
  -------         ENDDO         
  C:AA93H         LINE#         327
  C:AA93H         LINE#         328
  C:AA93H         LINE#         332
  C:AA96H         LINE#         333
  C:AAB1H         LINE#         334
  C:AABAH         LINE#         335
  C:AAC6H         LINE#         336
  C:AACFH         LINE#         337
  C:AAD8H         LINE#         338
  C:AADEH         LINE#         339
  -------         ENDPROC       LEE_NO_TICKET
  -------         PROC          READ_EEPROM_TICKET
  -------         DO            
  D:0001H         SYMBOL        cod3
  X:0028H         SYMBOL        cod2
  X:0029H         SYMBOL        cod1
  X:002AH         SYMBOL        cod0
  X:002BH         SYMBOL        Noticket
  -------         ENDDO         
  C:8485H         LINE#         343
  C:8485H         LINE#         344
  C:8485H         LINE#         346
  C:848FH         LINE#         347
  C:8496H         LINE#         348
  C:84A0H         LINE#         349
  C:84AEH         LINE#         350
  C:84B8H         LINE#         352
  C:84D8H         LINE#         353
  C:84FDH         LINE#         354
  C:8522H         LINE#         355
  C:8540H         LINE#         356
  C:854EH         LINE#         357
  -------         ENDPROC       READ_EEPROM_TICKET
  -------         PROC          INCREMENTE_TICKET
  -------         DO            
  D:0004H         SYMBOL        Noticket
  X:0006H         SYMBOL        Lee_No_Ticket
  -------         ENDDO         
  C:B1A5H         LINE#         361
BL51 BANKED LINKER/LOCATER V6.22.2.0                                                  11/05/2020  12:20:06  PAGE 46


  C:B1A5H         LINE#         362
  C:B1A5H         LINE#         366
  C:B1A8H         LINE#         367
  C:B1B5H         LINE#         368
  C:B1D0H         LINE#         369
  -------         ENDPROC       INCREMENTE_TICKET
  -------         PROC          _LEERMEMORIA
  X:009CH         SYMBOL        addres
  X:009EH         SYMBOL        res
  -------         DO            
  D:0007H         SYMBOL        i
  -------         ENDDO         
  C:A602H         LINE#         375
  C:A613H         LINE#         376
  C:A613H         LINE#         378
  C:A613H         LINE#         379
  C:A62FH         LINE#         380
  C:A63EH         LINE#         381
  C:A64CH         LINE#         382
  C:A656H         LINE#         383
  C:A659H         LINE#         384
  -------         ENDPROC       _LEERMEMORIA
  -------         PROC          _ESCRIBIRMEMORIA
  X:005DH         SYMBOL        addres
  X:005FH         SYMBOL        res
  C:A528H         LINE#         386
  C:A539H         LINE#         387
  C:A539H         LINE#         390
  C:A549H         LINE#         391
  C:A550H         LINE#         392
  C:A553H         LINE#         394
  C:A561H         LINE#         395
  C:A56BH         LINE#         396
  C:A56DH         LINE#         397
  C:A570H         LINE#         398
  C:A57EH         LINE#         399
  C:A588H         LINE#         400
  -------         ENDPROC       _ESCRIBIRMEMORIA
  -------         ENDMOD        EEPROM

  -------         MODULE        IO_SENSORES
  C:0000H         SYMBOL        _ICE_DUMMY_
  D:0090H         PUBLIC        P1
  D:00B0H         PUBLIC        P3
  C:AD5FH         PUBLIC        Dir_board
  C:B67EH         PUBLIC        sel_Pulsa
  B:0090H.1       PUBLIC        DataIn
  C:B57AH         PUBLIC        Dir_Board_Monitor
  C:B677H         PUBLIC        sel_Auto
  C:B101H         PUBLIC        ValidaSensoresPaso
  B:00B0H.3       PUBLIC        busy
  C:B4BDH         PUBLIC        ValidaSensor
  C:B68CH         PUBLIC        sel_Sensor1
  C:B685H         PUBLIC        sel_Sensor2
  C:A8A5H         PUBLIC        Valida_Sensor1_Auto
  B:00B0H.5       PUBLIC        sel_A
  B:00B0H.6       PUBLIC        sel_B
BL51 BANKED LINKER/LOCATER V6.22.2.0                                                  11/05/2020  12:20:06  PAGE 47


  B:00B0H.7       PUBLIC        sel_C
  C:9FE0H         PUBLIC        msj_lcd_informativo
  C:B693H         PUBLIC        sel_Dir1
  C:B69AH         PUBLIC        sel_Dir2
  C:B670H         PUBLIC        sel_Funcion
  -------         PROC          SEL_FUNCION
  C:B670H         LINE#         31
  C:B670H         LINE#         32
  C:B670H         LINE#         33
  C:B672H         LINE#         34
  C:B674H         LINE#         35
  C:B676H         LINE#         36
  -------         ENDPROC       SEL_FUNCION
  -------         PROC          SEL_AUTO
  C:B677H         LINE#         38
  C:B677H         LINE#         39
  C:B677H         LINE#         40
  C:B679H         LINE#         41
  C:B67BH         LINE#         42
  C:B67DH         LINE#         43
  -------         ENDPROC       SEL_AUTO
  -------         PROC          SEL_PULSA
  C:B67EH         LINE#         45
  C:B67EH         LINE#         46
  C:B67EH         LINE#         47
  C:B680H         LINE#         48
  C:B682H         LINE#         49
  C:B684H         LINE#         50
  -------         ENDPROC       SEL_PULSA
  -------         PROC          SEL_SENSOR2
  C:B685H         LINE#         53
  C:B685H         LINE#         54
  C:B685H         LINE#         55
  C:B687H         LINE#         56
  C:B689H         LINE#         57
  C:B68BH         LINE#         58
  -------         ENDPROC       SEL_SENSOR2
  -------         PROC          SEL_SENSOR1
  C:B68CH         LINE#         60
  C:B68CH         LINE#         61
  C:B68CH         LINE#         62
  C:B68EH         LINE#         63
  C:B690H         LINE#         64
  C:B692H         LINE#         65
  -------         ENDPROC       SEL_SENSOR1
  -------         PROC          SEL_DIR1
  C:B693H         LINE#         67
  C:B693H         LINE#         68
  C:B693H         LINE#         69
  C:B695H         LINE#         70
  C:B697H         LINE#         71
  C:B699H         LINE#         72
  -------         ENDPROC       SEL_DIR1
  -------         PROC          SEL_DIR2
  C:B69AH         LINE#         74
  C:B69AH         LINE#         75
  C:B69AH         LINE#         76
BL51 BANKED LINKER/LOCATER V6.22.2.0                                                  11/05/2020  12:20:06  PAGE 48


  C:B69CH         LINE#         77
  C:B69EH         LINE#         78
  C:B6A0H         LINE#         79
  -------         ENDPROC       SEL_DIR2
  -------         PROC          VALIDASENSOR
  -------         DO            
  D:0007H         SYMBOL        Valido
  D:0004H         SYMBOL        Tmin
  -------         ENDDO         
  C:B4BDH         LINE#         81
  C:B4BDH         LINE#         82
  C:B4BDH         LINE#         84
  C:B4BFH         LINE#         85
  C:B4C3H         LINE#         86
  C:B4CEH         LINE#         87
  C:B4CEH         LINE#         88
  C:B4D3H         LINE#         89
  C:B4D7H         LINE#         90
  C:B4D7H         LINE#         91
  C:B4D9H         LINE#         92
  C:B4D9H         LINE#         93
  C:B4DBH         LINE#         94
  C:B4DBH         LINE#         95
  -------         ENDPROC       VALIDASENSOR
  -------         PROC          DIR_BOARD
  -------         DO            
  X:0032H         SYMBOL        Board
  D:0007H         SYMBOL        Board_High
  -------         ENDDO         
  C:AD5FH         LINE#         99
  C:AD5FH         LINE#         100
  C:AD5FH         LINE#         101
  C:AD65H         LINE#         103
  C:AD68H         LINE#         104
  C:AD6BH         LINE#         105
  C:AD6BH         LINE#         106
  C:AD6EH         LINE#         107
  C:AD6EH         LINE#         108
  C:AD71H         LINE#         109
  C:AD74H         LINE#         110
  C:AD74H         LINE#         111
  C:AD7BH         LINE#         112
  C:AD7BH         LINE#         113
  C:AD83H         LINE#         114
  C:AD83H         LINE#         115
  C:AD8BH         LINE#         117
  C:AD8EH         LINE#         118
  C:AD8EH         LINE#         119
  C:AD94H         LINE#         120
  C:AD94H         LINE#         121
  C:AD96H         LINE#         122
  C:AD98H         LINE#         123
  C:AD9AH         LINE#         124
  C:AD9AH         LINE#         126
  C:AD9AH         LINE#         127
  C:ADA1H         LINE#         128
  -------         ENDPROC       DIR_BOARD
BL51 BANKED LINKER/LOCATER V6.22.2.0                                                  11/05/2020  12:20:06  PAGE 49


  -------         PROC          DIR_BOARD_MONITOR
  -------         DO            
  D:0007H         SYMBOL        Board_High
  -------         ENDDO         
  C:B57AH         LINE#         129
  C:B57AH         LINE#         130
  C:B57AH         LINE#         133
  C:B583H         LINE#         134
  C:B586H         LINE#         135
  C:B586H         LINE#         136
  C:B589H         LINE#         137
  C:B589H         LINE#         138
  C:B58BH         LINE#         139
  C:B58BH         LINE#         140
  C:B58BH         LINE#         141
  C:B58FH         LINE#         142
  -------         ENDPROC       DIR_BOARD_MONITOR
  -------         PROC          VALIDA_SENSOR1_AUTO
  -------         DO            
  X:0011H         SYMBOL        sensor
  -------         ENDDO         
  C:A8A5H         LINE#         146
  C:A8A5H         LINE#         147
  C:A8A5H         LINE#         149
  C:A8A8H         LINE#         150
  C:A8ABH         LINE#         151
  C:A8AEH         LINE#         152
  C:A8B3H         LINE#         153
  C:A8B3H         LINE#         154
  C:A8BAH         LINE#         155
  C:A8BEH         LINE#         156
  C:A8BEH         LINE#         158
  C:A8C0H         LINE#         160
  C:A8C0H         LINE#         161
  C:A8C7H         LINE#         162
  C:A8CCH         LINE#         163
  C:A8CCH         LINE#         164
  C:A8CCH         LINE#         167
  C:A8CEH         LINE#         169
  C:A8D1H         LINE#         170
  C:A8D6H         LINE#         171
  C:A8D6H         LINE#         173
  C:A8DDH         LINE#         174
  C:A8E3H         LINE#         175
  C:A8E9H         LINE#         176
  C:A8EBH         LINE#         178
  C:A8EBH         LINE#         179
  C:A8F2H         LINE#         180
  C:A8F7H         LINE#         181
  C:A8F7H         LINE#         184
  C:A8F7H         LINE#         185
  C:A8FCH         LINE#         186
  -------         ENDPROC       VALIDA_SENSOR1_AUTO
  -------         PROC          VALIDASENSORESPASO
  -------         DO            
  X:0010H         SYMBOL        sensor
  -------         ENDDO         
BL51 BANKED LINKER/LOCATER V6.22.2.0                                                  11/05/2020  12:20:06  PAGE 50


  C:B101H         LINE#         191
  C:B101H         LINE#         192
  C:B101H         LINE#         194
  C:B104H         LINE#         195
  C:B107H         LINE#         196
  C:B107H         LINE#         197
  C:B115H         LINE#         198
  C:B115H         LINE#         199
  C:B11DH         LINE#         201
  C:B11FH         LINE#         203
  C:B11FH         LINE#         204
  C:B125H         LINE#         205
  C:B127H         LINE#         206
  C:B127H         LINE#         207
  C:B127H         LINE#         208
  C:B127H         LINE#         209
  C:B130H         LINE#         210
  C:B133H         LINE#         211
  C:B133H         LINE#         212
  C:B138H         LINE#         213
  -------         ENDPROC       VALIDASENSORESPASO
  -------         PROC          MSJ_LCD_INFORMATIVO
  -------         DO            
  X:0001H         SYMBOL        info
  X:0269H         SYMBOL        toggle
  -------         ENDDO         
  C:9FE0H         LINE#         223
  C:9FE0H         LINE#         224
  C:9FE0H         LINE#         225
  C:9FE5H         LINE#         227
  C:9FE8H         LINE#         228
  C:9FEBH         LINE#         229
  C:9FEBH         LINE#         230
  C:9FF7H         LINE#         231
  C:9FF7H         LINE#         232
  C:9FFAH         LINE#         233
  C:9FFAH         LINE#         234
  C:9FFCH         LINE#         235
  C:9FFFH         LINE#         236
  C:A005H         LINE#         237
  C:A005H         LINE#         238
  C:A007H         LINE#         239
  C:A015H         LINE#         240
  C:A015H         LINE#         241
  C:A018H         LINE#         242
  C:A018H         LINE#         243
  C:A01AH         LINE#         244
  C:A01DH         LINE#         245
  C:A023H         LINE#         246
  C:A023H         LINE#         247
  C:A025H         LINE#         248
  C:A033H         LINE#         249
  C:A033H         LINE#         250
  C:A036H         LINE#         251
  C:A036H         LINE#         252
  C:A038H         LINE#         253
  C:A046H         LINE#         254
BL51 BANKED LINKER/LOCATER V6.22.2.0                                                  11/05/2020  12:20:06  PAGE 51


  C:A046H         LINE#         255
  C:A048H         LINE#         256
  C:A04FH         LINE#         258
  C:A054H         LINE#         259
  C:A054H         LINE#         261
  C:A054H         LINE#         263
  C:A054H         LINE#         265
  C:A057H         LINE#         266
  C:A05AH         LINE#         267
  C:A05AH         LINE#         268
  C:A05FH         LINE#         269
  C:A05FH         LINE#         271
  -------         ENDPROC       MSJ_LCD_INFORMATIVO
  -------         ENDMOD        IO_SENSORES

  -------         MODULE        PANTALLAS
  C:0000H         SYMBOL        _ICE_DUMMY_
  D:0080H         PUBLIC        P0
  C:A9ABH         PUBLIC        Reloj_Pantalla_Lcd
  C:264EH         PUBLIC        _PantallaLCD
  C:AD23H         PUBLIC        _LCD_txt
  C:9C47H         PUBLIC        _Raspberry_data
  C:B3A8H         PUBLIC        _tx_chrlcd
  C:337FH         SYMBOL        _?ix1000
  C:3385H         SYMBOL        _?ix1001
  C:338BH         SYMBOL        _?ix1002
  C:AC8FH         PUBLIC        _LCD_txt_num_char
  X:0206H         PUBLIC        malloc_memoria
  C:48A8H         PUBLIC        _PantallaLCD_LINEA_2
  B:0098H.4       PUBLIC        REN
  B:0080H.7       PUBLIC        sel_com
  -------         PROC          _PANTALLALCD
  X:002AH         SYMBOL        cod_msg
  -------         DO            
  X:002BH         SYMBOL        Ini_LCD_Line_one
  X:0031H         SYMBOL        num_chr
  X:0032H         SYMBOL        msjpantalla
  -------         ENDDO         
  C:264EH         LINE#         90
  C:2653H         LINE#         91
  C:2653H         LINE#         93
  C:2666H         LINE#         100
  C:2671H         LINE#         101
  C:2680H         LINE#         102
  C:2682H         LINE#         104
  C:268BH         LINE#         105
  C:268BH         LINE#         106
  C:2695H         LINE#         108
  C:26F1H         LINE#         109
  C:26F1H         LINE#         111
  C:26F1H         LINE#         112
  C:26FFH         LINE#         113
  C:2705H         LINE#         114
  C:2708H         LINE#         115
  C:270EH         LINE#         116
  C:2711H         LINE#         118
  C:2711H         LINE#         120
BL51 BANKED LINKER/LOCATER V6.22.2.0                                                  11/05/2020  12:20:06  PAGE 52


  C:271FH         LINE#         121
  C:2725H         LINE#         122
  C:2728H         LINE#         123
  C:272EH         LINE#         124
  C:2731H         LINE#         126
  C:2731H         LINE#         128
  C:273FH         LINE#         129
  C:2745H         LINE#         130
  C:2748H         LINE#         131
  C:274EH         LINE#         132
  C:2751H         LINE#         133
  C:2751H         LINE#         134
  C:275FH         LINE#         135
  C:2765H         LINE#         136
  C:2768H         LINE#         137
  C:276EH         LINE#         138
  C:2771H         LINE#         139
  C:2771H         LINE#         140
  C:277FH         LINE#         141
  C:2785H         LINE#         142
  C:2788H         LINE#         143
  C:278EH         LINE#         144
  C:2791H         LINE#         145
  C:2791H         LINE#         146
  C:279FH         LINE#         147
  C:27A5H         LINE#         148
  C:27A8H         LINE#         149
  C:27AEH         LINE#         150
  C:27B1H         LINE#         151
  C:27B1H         LINE#         153
  C:27BFH         LINE#         154
  C:27C5H         LINE#         155
  C:27C8H         LINE#         156
  C:27CEH         LINE#         157
  C:27D1H         LINE#         158
  C:27D1H         LINE#         164
  C:27D1H         LINE#         165
  C:27DFH         LINE#         166
  C:27E5H         LINE#         167
  C:27E8H         LINE#         168
  C:27EEH         LINE#         169
  C:27F1H         LINE#         170
  C:27F1H         LINE#         171
  C:27FFH         LINE#         172
  C:2805H         LINE#         173
  C:2808H         LINE#         174
  C:280EH         LINE#         175
  C:2811H         LINE#         177
  C:2811H         LINE#         178
  C:281FH         LINE#         179
  C:2825H         LINE#         180
  C:2828H         LINE#         181
  C:282EH         LINE#         182
  C:2831H         LINE#         184
  C:2831H         LINE#         185
  C:283FH         LINE#         186
  C:2845H         LINE#         187
BL51 BANKED LINKER/LOCATER V6.22.2.0                                                  11/05/2020  12:20:06  PAGE 53


  C:2848H         LINE#         188
  C:284EH         LINE#         189
  C:2851H         LINE#         194
  C:2851H         LINE#         196
  C:285FH         LINE#         197
  C:2865H         LINE#         198
  C:2868H         LINE#         199
  C:286EH         LINE#         200
  C:2871H         LINE#         202
  C:2871H         LINE#         204
  C:287FH         LINE#         205
  C:2885H         LINE#         206
  C:2888H         LINE#         207
  C:288EH         LINE#         208
  C:2891H         LINE#         210
  C:2891H         LINE#         211
  C:289FH         LINE#         212
  C:28A5H         LINE#         213
  C:28A8H         LINE#         214
  C:28AEH         LINE#         215
  C:28B1H         LINE#         217
  C:28B1H         LINE#         219
  C:28BFH         LINE#         220
  C:28C5H         LINE#         221
  C:28C8H         LINE#         222
  C:28CEH         LINE#         223
  C:28D1H         LINE#         225
  C:28D1H         LINE#         227
  C:28DFH         LINE#         228
  C:28E5H         LINE#         229
  C:28E8H         LINE#         230
  C:28EEH         LINE#         231
  C:28F1H         LINE#         233
  C:28F1H         LINE#         234
  C:28FFH         LINE#         235
  C:2905H         LINE#         236
  C:2908H         LINE#         237
  C:290EH         LINE#         238
  C:2911H         LINE#         240
  C:2911H         LINE#         241
  C:291FH         LINE#         242
  C:2925H         LINE#         243
  C:2928H         LINE#         244
  C:292EH         LINE#         245
  C:2931H         LINE#         247
  C:2931H         LINE#         249
  C:293FH         LINE#         250
  C:2945H         LINE#         251
  C:2948H         LINE#         252
  C:294EH         LINE#         253
  C:2951H         LINE#         255
  C:2951H         LINE#         256
  C:295FH         LINE#         257
  C:2965H         LINE#         258
  C:2968H         LINE#         259
  C:296EH         LINE#         260
  C:2971H         LINE#         261
BL51 BANKED LINKER/LOCATER V6.22.2.0                                                  11/05/2020  12:20:06  PAGE 54


  C:2971H         LINE#         262
  C:297FH         LINE#         263
  C:2985H         LINE#         264
  C:2988H         LINE#         265
  C:298EH         LINE#         266
  C:2991H         LINE#         267
  C:2991H         LINE#         268
  C:299FH         LINE#         269
  C:29A5H         LINE#         270
  C:29A8H         LINE#         271
  C:29AEH         LINE#         272
  C:29B1H         LINE#         273
  C:29B1H         LINE#         274
  C:29BFH         LINE#         275
  C:29C2H         LINE#         276
  C:29C8H         LINE#         277
  C:29CAH         LINE#         281
  C:29CAH         LINE#         282
  C:29D8H         LINE#         283
  C:29DEH         LINE#         284
  C:29E1H         LINE#         285
  C:29E7H         LINE#         286
  C:29E9H         LINE#         287
  C:29E9H         LINE#         288
  C:29F7H         LINE#         289
  C:29FDH         LINE#         290
  C:2A00H         LINE#         291
  C:2A06H         LINE#         292
  C:2A08H         LINE#         293
  C:2A08H         LINE#         294
  C:2A16H         LINE#         295
  C:2A1CH         LINE#         296
  C:2A1FH         LINE#         297
  C:2A2AH         LINE#         298
  C:2A2AH         LINE#         307
  C:2A2AH         LINE#         309
  C:2A2AH         LINE#         310
  C:2A2AH         LINE#         311
  C:2A2CH         LINE#         313
  C:2A2DH         LINE#         315
  C:2A2DH         LINE#         316
  C:2A2FH         LINE#         317
  C:2A91H         LINE#         318
  C:2A91H         LINE#         321
  C:2A91H         LINE#         322
  C:2AA5H         LINE#         323
  C:2AA5H         LINE#         325
  C:2AA8H         LINE#         326
  C:2AA8H         LINE#         329
  C:2ABCH         LINE#         330
  C:2ABCH         LINE#         331
  C:2ABFH         LINE#         333
  C:2ABFH         LINE#         334
  C:2AD3H         LINE#         335
  C:2AD3H         LINE#         337
  C:2AD6H         LINE#         338
  C:2AD6H         LINE#         339
BL51 BANKED LINKER/LOCATER V6.22.2.0                                                  11/05/2020  12:20:06  PAGE 55


  C:2AEAH         LINE#         340
  C:2AEAH         LINE#         342
  C:2AEDH         LINE#         343
  C:2AEDH         LINE#         344
  C:2B01H         LINE#         345
  C:2B01H         LINE#         347
  C:2B04H         LINE#         348
  C:2B04H         LINE#         349
  C:2B18H         LINE#         350
  C:2B18H         LINE#         352
  C:2B1BH         LINE#         353
  C:2B1BH         LINE#         354
  C:2B2FH         LINE#         355
  C:2B2FH         LINE#         357
  C:2B32H         LINE#         358
  C:2B32H         LINE#         359
  C:2B46H         LINE#         360
  C:2B46H         LINE#         362
  C:2B49H         LINE#         364
  C:2B49H         LINE#         365
  C:2B5DH         LINE#         366
  C:2B5DH         LINE#         368
  C:2B60H         LINE#         370
  C:2B60H         LINE#         371
  C:2B74H         LINE#         372
  C:2B74H         LINE#         374
  C:2B77H         LINE#         376
  C:2B77H         LINE#         377
  C:2B8BH         LINE#         378
  C:2B8BH         LINE#         380
  C:2B8EH         LINE#         382
  C:2B8EH         LINE#         383
  C:2BA2H         LINE#         384
  C:2BA2H         LINE#         386
  C:2BA5H         LINE#         390
  C:2BA5H         LINE#         391
  C:2BB9H         LINE#         392
  C:2BB9H         LINE#         394
  C:2BBCH         LINE#         396
  C:2BBCH         LINE#         397
  C:2BD0H         LINE#         398
  C:2BD0H         LINE#         400
  C:2BD3H         LINE#         402
  C:2BD3H         LINE#         403
  C:2BE7H         LINE#         404
  C:2BE7H         LINE#         410
  C:2BEAH         LINE#         411
  C:2BEAH         LINE#         412
  C:2BFEH         LINE#         413
  C:2BFEH         LINE#         415
  C:2C01H         LINE#         416
  C:2C01H         LINE#         417
  C:2C15H         LINE#         418
  C:2C15H         LINE#         420
  C:2C18H         LINE#         421
  C:2C18H         LINE#         422
  C:2C2CH         LINE#         423
BL51 BANKED LINKER/LOCATER V6.22.2.0                                                  11/05/2020  12:20:06  PAGE 56


  C:2C2CH         LINE#         425
  C:2C2FH         LINE#         426
  C:2C2FH         LINE#         427
  C:2C43H         LINE#         428
  C:2C43H         LINE#         430
  C:2C46H         LINE#         432
  C:2C46H         LINE#         433
  C:2C5AH         LINE#         434
  C:2C5AH         LINE#         436
  C:2C5DH         LINE#         438
  C:2C5DH         LINE#         439
  C:2C71H         LINE#         440
  C:2C71H         LINE#         442
  C:2C74H         LINE#         443
  C:2C74H         LINE#         444
  C:2C88H         LINE#         445
  C:2C88H         LINE#         447
  C:2C8BH         LINE#         448
  C:2C8BH         LINE#         449
  C:2C9FH         LINE#         450
  C:2C9FH         LINE#         452
  C:2CA2H         LINE#         453
  C:2CA2H         LINE#         454
  C:2CB6H         LINE#         455
  C:2CB6H         LINE#         457
  C:2CB8H         LINE#         459
  C:2CB8H         LINE#         460
  C:2CCCH         LINE#         461
  C:2CCCH         LINE#         463
  C:2CCEH         LINE#         464
  C:2CCEH         LINE#         465
  C:2CE2H         LINE#         466
  C:2CE2H         LINE#         468
  C:2CE4H         LINE#         469
  C:2CE4H         LINE#         470
  C:2CF8H         LINE#         471
  C:2CF8H         LINE#         473
  C:2CFAH         LINE#         478
  C:2CFAH         LINE#         479
  C:2D0EH         LINE#         480
  C:2D0EH         LINE#         482
  C:2D10H         LINE#         483
  C:2D10H         LINE#         484
  C:2D27H         LINE#         485
  C:2D2DH         LINE#         487
  C:2D2DH         LINE#         495
  C:2D2DH         LINE#         496
  C:2D2DH         LINE#         497
  C:2D2DH         LINE#         498
  C:2D38H         LINE#         499
  C:2D3FH         LINE#         500
  C:2D41H         LINE#         501
  C:2D41H         LINE#         505
  -------         ENDPROC       _PANTALLALCD
  -------         PROC          _PANTALLALCD_LINEA_2
  X:0010H         SYMBOL        cod_msg
  X:0011H         SYMBOL        buffer
BL51 BANKED LINKER/LOCATER V6.22.2.0                                                  11/05/2020  12:20:06  PAGE 57


  -------         DO            
  X:0014H         SYMBOL        Ini_LCD_Line_one
  X:001AH         SYMBOL        num_chr
  X:001BH         SYMBOL        msjpantalla
  -------         ENDDO         
  C:48A8H         LINE#         506
  C:48B6H         LINE#         507
  C:48B6H         LINE#         509
  C:48C9H         LINE#         513
  C:48D4H         LINE#         514
  C:48E3H         LINE#         518
  C:48E5H         LINE#         520
  C:48EEH         LINE#         521
  C:48EEH         LINE#         524
  C:48FCH         LINE#         525
  C:48FCH         LINE#         527
  C:48FCH         LINE#         528
  C:48FFH         LINE#         529
  C:490DH         LINE#         530
  C:4922H         LINE#         531
  C:4928H         LINE#         532
  C:492EH         LINE#         533
  C:4934H         LINE#         534
  C:4934H         LINE#         535
  C:4936H         LINE#         536
  C:4936H         LINE#         537
  C:4939H         LINE#         538
  C:4947H         LINE#         539
  C:495CH         LINE#         540
  C:4962H         LINE#         541
  C:4968H         LINE#         542
  C:4973H         LINE#         543
  C:4983H         LINE#         544
  C:4983H         LINE#         548
  C:4983H         LINE#         550
  C:4983H         LINE#         552
  C:4983H         LINE#         553
  C:4985H         LINE#         554
  C:4986H         LINE#         556
  C:4986H         LINE#         557
  C:4988H         LINE#         558
  C:49A2H         LINE#         559
  C:49A2H         LINE#         560
  C:49A2H         LINE#         562
  C:49B9H         LINE#         563
  C:49B9H         LINE#         564
  C:49B9H         LINE#         565
  C:49B9H         LINE#         568
  C:49BCH         LINE#         570
  C:49BCH         LINE#         571
  C:49D3H         LINE#         572
  C:49E6H         LINE#         573
  C:4A00H         LINE#         574
  C:4A00H         LINE#         575
  C:4A00H         LINE#         576
  C:4A00H         LINE#         578
  C:4A03H         LINE#         579
BL51 BANKED LINKER/LOCATER V6.22.2.0                                                  11/05/2020  12:20:06  PAGE 58


  C:4A03H         LINE#         581
  C:4A17H         LINE#         582
  C:4A1AH         LINE#         583
  C:4A1DH         LINE#         584
  C:4A1DH         LINE#         586
  C:4A32H         LINE#         588
  C:4A32H         LINE#         589
  C:4A34H         LINE#         591
  C:4A34H         LINE#         593
  C:4A4DH         LINE#         595
  C:4A50H         LINE#         597
  C:4A50H         LINE#         598
  C:4A63H         LINE#         599
  C:4A63H         LINE#         600
  C:4A6AH         LINE#         602
  C:4A8BH         LINE#         604
  C:4AA8H         LINE#         605
  C:4AABH         LINE#         607
  C:4AABH         LINE#         608
  C:4AB2H         LINE#         610
  C:4AB2H         LINE#         611
  C:4AB2H         LINE#         614
  C:4AB5H         LINE#         616
  C:4AB5H         LINE#         617
  C:4ACCH         LINE#         618
  C:4ADFH         LINE#         619
  C:4AF9H         LINE#         620
  C:4B25H         LINE#         621
  C:4B42H         LINE#         622
  C:4B45H         LINE#         624
  C:4B45H         LINE#         626
  C:4B45H         LINE#         628
  C:4B45H         LINE#         629
  C:4B45H         LINE#         630
  C:4B50H         LINE#         631
  C:4B57H         LINE#         632
  C:4B59H         LINE#         633
  C:4B59H         LINE#         634
  -------         ENDPROC       _PANTALLALCD_LINEA_2
  C:B39FH         SYMBOL        L?0164
  C:B3A2H         SYMBOL        L?0165
  C:B3A3H         SYMBOL        L?0166
  -------         PROC          L?0163
  -------         ENDPROC       L?0163
  C:B39FH         SYMBOL        L?0164
  C:B3A2H         SYMBOL        L?0165
  C:B3A3H         SYMBOL        L?0166
  -------         PROC          _TX_CHRLCD
  D:0007H         SYMBOL        data_com
  X:0039H         SYMBOL        enable_char_add
  -------         DO            
  X:003AH         SYMBOL        d
  -------         ENDDO         
  C:B3A8H         LINE#         640
  C:B3ADH         LINE#         641
  C:B3ADH         LINE#         643
  C:B3B5H         LINE#         644
BL51 BANKED LINKER/LOCATER V6.22.2.0                                                  11/05/2020  12:20:06  PAGE 59


  C:B3C5H         LINE#         646
  -------         ENDPROC       _TX_CHRLCD
  -------         PROC          L?0170
  -------         ENDPROC       L?0170
  -------         PROC          _LCD_TXT
  X:0034H         SYMBOL        msg
  X:0037H         SYMBOL        enable_char_add
  -------         DO            
  X:0038H         SYMBOL        i
  -------         ENDDO         
  C:AD23H         LINE#         653
  C:AD31H         LINE#         654
  C:AD31H         LINE#         657
  C:AD4EH         LINE#         658
  C:AD4EH         LINE#         659
  C:AD56H         LINE#         660
  C:AD5EH         LINE#         661
  -------         ENDPROC       _LCD_TXT
  -------         PROC          _LCD_TXT_NUM_CHAR
  X:001DH         SYMBOL        msg
  X:0020H         SYMBOL        length_char
  X:0021H         SYMBOL        enable_char_add
  -------         DO            
  X:0022H         SYMBOL        i
  -------         ENDDO         
  C:AC8FH         LINE#         668
  C:AC9DH         LINE#         669
  C:AC9DH         LINE#         672
  C:ACB0H         LINE#         673
  C:ACB0H         LINE#         674
  C:ACCCH         LINE#         675
  C:ACD4H         LINE#         676
  -------         ENDPROC       _LCD_TXT_NUM_CHAR
  C:9C3BH         SYMBOL        L?0168
  C:9C3EH         SYMBOL        L?0169
  -------         PROC          L?0167
  -------         ENDPROC       L?0167
  C:9C3BH         SYMBOL        L?0168
  C:9C3EH         SYMBOL        L?0169
  -------         PROC          _RASPBERRY_DATA
  X:0034H         SYMBOL        msjpantalla
  -------         DO            
  X:0037H         SYMBOL        i
  X:0038H         SYMBOL        lenth_cadena
  X:0039H         SYMBOL        d
  -------         ENDDO         
  C:9C47H         LINE#         678
  C:9C52H         LINE#         679
  C:9C52H         LINE#         684
  C:9C5AH         LINE#         686
  C:9C6CH         LINE#         687
  C:9C6CH         LINE#         689
  C:9C7EH         LINE#         690
  C:9C7EH         LINE#         691
  C:9C83H         LINE#         692
  C:9CA1H         LINE#         694
  C:9CA9H         LINE#         697
BL51 BANKED LINKER/LOCATER V6.22.2.0                                                  11/05/2020  12:20:06  PAGE 60


  C:9CBBH         LINE#         698
  C:9CBBH         LINE#         700
  C:9CC0H         LINE#         702
  -------         ENDPROC       _RASPBERRY_DATA
  -------         PROC          RELOJ_PANTALLA_LCD
  -------         DO            
  X:0010H         SYMBOL        Ini_Clock_LCD
  -------         ENDDO         
  C:A9ABH         LINE#         710
  C:A9ABH         LINE#         711
  C:A9ABH         LINE#         713
  C:A9BEH         LINE#         714
  C:A9C4H         LINE#         715
  C:A9C4H         LINE#         716
  C:A9C6H         LINE#         717
  C:A9CFH         LINE#         721
  C:A9D1H         LINE#         722
  C:A9E1H         LINE#         724
  C:A9E3H         LINE#         725
  C:A9E5H         LINE#         727
  C:A9E6H         LINE#         729
  C:A9E6H         LINE#         730
  C:A9E8H         LINE#         731
  C:A9EDH         LINE#         732
  C:A9F6H         LINE#         736
  C:A9F8H         LINE#         737
  C:A9F8H         LINE#         738
  -------         ENDPROC       RELOJ_PANTALLA_LCD
  -------         ENDMOD        PANTALLAS

  -------         MODULE        PROG
  C:0000H         SYMBOL        _ICE_DUMMY_
  C:5188H         PUBLIC        Prog_fecha_vencimiento
  C:63C4H         PUBLIC        Prog_Sin_Cobro
  C:6D29H         PUBLIC        _Ver_Horario_Desde_Hasta
  C:7375H         PUBLIC        Prog_debug
  C:7669H         PUBLIC        Prog_AntiPassBack
  C:9984H         PUBLIC        _GetOption
  X:01B1H         PUBLIC        validacion
  C:7861H         PUBLIC        Prog_Validar_Tipo_Vehiculo_Mensual
  X:01BCH         PUBLIC        cursor
  C:6C0FH         PUBLIC        _Prog_Horarios_on_off
  C:95F5H         PUBLIC        Show
  C:3C87H         PUBLIC        Ver_Prog
  C:B1D9H         PUBLIC        Addr_Horarios
  C:8CD8H         PUBLIC        prog_id_cliente
  C:ADAAH         PUBLIC        _ValidarClave
  C:4B5AH         PUBLIC        menu
  C:7471H         PUBLIC        Prog_Use_Lpr
  C:A6CEH         PUBLIC        _ListaComandos
  C:12F7H         SYMBOL        _?ix1000
  C:1302H         SYMBOL        _?ix1001
  C:1312H         SYMBOL        _?ix1002
  C:1322H         SYMBOL        _?ix1003
  C:1326H         SYMBOL        _?ix1004
  C:5FFEH         PUBLIC        Prog_Horarios
  C:132AH         SYMBOL        _?ix1005
BL51 BANKED LINKER/LOCATER V6.22.2.0                                                  11/05/2020  12:20:06  PAGE 61


  C:795DH         PUBLIC        Prog_Apb_Mensual
  C:8863H         PUBLIC        Prog_tarjeta_automatica_o_boton
  C:4D86H         PUBLIC        _hash_id
  C:45F1H         PUBLIC        _Prog_Horario_dias
  C:8B61H         PUBLIC        Prog_tiempo_gracia
  C:A068H         PUBLIC        _IngresaDato
  X:01D0H         PUBLIC        comandos
  C:AB73H         PUBLIC        First_Clave
  C:B54CH         PUBLIC        DisplayCursor
  C:7765H         PUBLIC        Prog_Placa
  C:8AA4H         PUBLIC        prog_cod_park
  C:6640H         PUBLIC        Ver_Horario
  C:69CBH         PUBLIC        _Ver_Horario_dias
  C:4F8EH         PUBLIC        _Prog_Horario_Desde_Hasta
  C:756DH         PUBLIC        tipo_pantalla
  C:7D18H         PUBLIC        Prog_Address_High_Board
  C:AE6CH         PUBLIC        _GetCMD
  -------         PROC          _HASH_ID
  X:005DH         SYMBOL        clave
  -------         DO            
  X:0060H         SYMBOL        len_clave
  X:0061H         SYMBOL        i
  X:01ADH         SYMBOL        temp
  X:01AFH         SYMBOL        temp1
  X:0062H         SYMBOL        aleatorio
  X:006DH         SYMBOL        suma
  X:007DH         SYMBOL        xxor
  X:008DH         SYMBOL        usuario1
  X:0098H         SYMBOL        vencimiento_password
  -------         ENDDO         
  C:4D86H         LINE#         121
  C:4D91H         LINE#         122
  C:4D91H         LINE#         125
  C:4DA4H         LINE#         127
  C:4DB7H         LINE#         128
  C:4DCAH         LINE#         132
  C:4DD7H         LINE#         133
  C:4DF3H         LINE#         135
  C:4DF3H         LINE#         136
  C:4DF7H         LINE#         137
  C:4DF9H         LINE#         139
  C:4DF9H         LINE#         140
  C:4E00H         LINE#         141
  C:4E00H         LINE#         142
  C:4E13H         LINE#         143
  C:4E27H         LINE#         144
  C:4E27H         LINE#         145
  C:4E53H         LINE#         146
  C:4E5EH         LINE#         147
  C:4E6BH         LINE#         148
  C:4E89H         LINE#         149
  C:4E94H         LINE#         150
  C:4EA1H         LINE#         151
  C:4EC5H         LINE#         152
  C:4ECDH         LINE#         153
  C:4ECDH         LINE#         154
  C:4ED2H         LINE#         155
BL51 BANKED LINKER/LOCATER V6.22.2.0                                                  11/05/2020  12:20:06  PAGE 62


  C:4ED2H         LINE#         156
  C:4EEBH         LINE#         157
  C:4EEBH         LINE#         158
  C:4EF7H         LINE#         160
  C:4EF7H         LINE#         161
  C:4F06H         LINE#         162
  C:4F06H         LINE#         163
  C:4F12H         LINE#         164
  C:4F12H         LINE#         165
  C:4F2BH         LINE#         166
  C:4F2BH         LINE#         167
  C:4F36H         LINE#         168
  C:4F36H         LINE#         169
  C:4F4FH         LINE#         170
  C:4F4FH         LINE#         171
  C:4F5AH         LINE#         172
  C:4F5AH         LINE#         173
  C:4F6FH         LINE#         175
  C:4F78H         LINE#         176
  C:4F87H         LINE#         178
  C:4F8DH         LINE#         179
  -------         ENDPROC       _HASH_ID
  -------         PROC          _LISTACOMANDOS
  X:0046H         SYMBOL        cmd
  -------         DO            
  X:0049H         SYMBOL        buf
  X:004CH         SYMBOL        i
  -------         ENDDO         
  C:A6CEH         LINE#         186
  C:A6D9H         LINE#         187
  C:A6D9H         LINE#         191
  C:A6ECH         LINE#         192
  C:A6ECH         LINE#         193
  C:A704H         LINE#         194
  C:A71FH         LINE#         195
  C:A725H         LINE#         196
  C:A72DH         LINE#         198
  C:A72FH         LINE#         199
  -------         ENDPROC       _LISTACOMANDOS
  -------         PROC          L?0274
  -------         ENDPROC       L?0274
  -------         PROC          _VALIDARCLAVE
  X:005DH         SYMBOL        buffer
  -------         DO            
  X:0060H         SYMBOL        buf
  -------         ENDDO         
  C:ADAAH         LINE#         205
  C:ADB5H         LINE#         206
  C:ADB5H         LINE#         209
  C:ADC4H         LINE#         210
  C:ADDFH         LINE#         211
  C:ADE1H         LINE#         214
  C:ADE3H         LINE#         215
  -------         ENDPROC       _VALIDARCLAVE
  -------         PROC          L?0275
  -------         ENDPROC       L?0275
  -------         PROC          _GETCMD
BL51 BANKED LINKER/LOCATER V6.22.2.0                                                  11/05/2020  12:20:06  PAGE 63


  X:005DH         SYMBOL        in
  -------         DO            
  X:0060H         SYMBOL        tokens
  -------         ENDDO         
  C:AE6CH         LINE#         222
  C:AE77H         LINE#         223
  C:AE77H         LINE#         224
  C:AE8AH         LINE#         225
  -------         ENDPROC       _GETCMD
  -------         PROC          L?0273
  -------         ENDPROC       L?0273
  -------         PROC          _GETOPTION
  X:0046H         SYMBOL        in
  -------         DO            
  X:0049H         SYMBOL        tokensSpace
  X:004DH         SYMBOL        tokensQuote
  -------         ENDDO         
  C:9984H         LINE#         231
  C:998FH         LINE#         232
  C:998FH         LINE#         233
  C:99A2H         LINE#         234
  C:99B5H         LINE#         237
  C:99C7H         LINE#         238
  C:99D3H         LINE#         241
  C:99DAH         LINE#         242
  C:99E7H         LINE#         244
  C:9A00H         LINE#         245
  -------         ENDPROC       _GETOPTION
  -------         PROC          DISPLAYCURSOR
  C:B54CH         LINE#         250
  C:B54CH         LINE#         251
  C:B54CH         LINE#         252
  -------         ENDPROC       DISPLAYCURSOR
  C:A064H         SYMBOL        L?0272
  -------         PROC          L?0271
  -------         ENDPROC       L?0271
  C:A064H         SYMBOL        L?0272
  -------         PROC          _INGRESADATO
  X:0071H         SYMBOL        buffer
  X:0074H         SYMBOL        modo
  -------         DO            
  D:0006H         SYMBOL        i
  -------         ENDDO         
  C:A068H         LINE#         259
  C:A076H         LINE#         260
  C:A076H         LINE#         265
  C:A076H         LINE#         266
  C:A088H         LINE#         267
  C:A08EH         LINE#         268
  C:A08EH         LINE#         269
  C:A0A9H         LINE#         270
  C:A0ABH         LINE#         272
  C:A0ABH         LINE#         273
  C:A0B0H         LINE#         274
  C:A0B0H         LINE#         275
  C:A0C1H         LINE#         276
  C:A0CBH         LINE#         277
BL51 BANKED LINKER/LOCATER V6.22.2.0                                                  11/05/2020  12:20:06  PAGE 64


  C:A0DAH         LINE#         279
  C:A0DFH         LINE#         283
  -------         ENDPROC       _INGRESADATO
  -------         PROC          PROG_ID_CLIENTE
  -------         DO            
  X:0046H         SYMBOL        buffer
  X:0050H         SYMBOL        dataee
  -------         ENDDO         
  C:8CD8H         LINE#         300
  C:8CD8H         LINE#         301
  C:8CD8H         LINE#         305
  C:8CEAH         LINE#         306
  C:8D07H         LINE#         308
  C:8D1EH         LINE#         310
  C:8D27H         LINE#         311
  C:8D2EH         LINE#         312
  C:8D3FH         LINE#         313
  C:8D48H         LINE#         315
  C:8D5AH         LINE#         316
  C:8D77H         LINE#         317
  -------         ENDPROC       PROG_ID_CLIENTE
  -------         PROC          PROG_COD_PARK
  -------         DO            
  X:0046H         SYMBOL        buffer
  X:0050H         SYMBOL        dataee
  -------         ENDDO         
  C:8AA4H         LINE#         322
  C:8AA4H         LINE#         323
  C:8AA4H         LINE#         327
  C:8AB7H         LINE#         328
  C:8AD4H         LINE#         330
  C:8AEBH         LINE#         332
  C:8AF4H         LINE#         333
  C:8AFFH         LINE#         334
  C:8B10H         LINE#         335
  C:8B1AH         LINE#         337
  C:8B2DH         LINE#         338
  C:8B4AH         LINE#         339
  -------         ENDPROC       PROG_COD_PARK
  -------         PROC          PROG_TIEMPO_GRACIA
  -------         DO            
  X:0046H         SYMBOL        buffer
  X:0050H         SYMBOL        dataee
  -------         ENDDO         
  C:8B61H         LINE#         344
  C:8B61H         LINE#         345
  C:8B61H         LINE#         349
  C:8B74H         LINE#         350
  C:8B91H         LINE#         352
  C:8BA8H         LINE#         354
  C:8BB1H         LINE#         355
  C:8BBCH         LINE#         356
  C:8BCDH         LINE#         357
  C:8BD7H         LINE#         359
  C:8BEAH         LINE#         360
  C:8C07H         LINE#         361
  -------         ENDPROC       PROG_TIEMPO_GRACIA
BL51 BANKED LINKER/LOCATER V6.22.2.0                                                  11/05/2020  12:20:06  PAGE 65


  -------         PROC          PROG_SIN_COBRO
  -------         DO            
  X:0046H         SYMBOL        buffer
  X:0050H         SYMBOL        dataee
  -------         ENDDO         
  C:63C4H         LINE#         367
  C:63C4H         LINE#         368
  C:63C4H         LINE#         374
  C:63D7H         LINE#         375
  C:63F4H         LINE#         376
  C:63FEH         LINE#         377
  C:63FEH         LINE#         378
  C:6411H         LINE#         379
  C:6413H         LINE#         380
  C:641FH         LINE#         381
  C:641FH         LINE#         382
  C:6432H         LINE#         383
  C:6434H         LINE#         385
  C:6434H         LINE#         386
  C:644BH         LINE#         387
  C:644BH         LINE#         389
  C:6454H         LINE#         390
  C:645FH         LINE#         391
  C:6470H         LINE#         392
  C:647AH         LINE#         394
  C:648DH         LINE#         395
  C:64AAH         LINE#         396
  C:64B4H         LINE#         397
  C:64B4H         LINE#         398
  C:64C7H         LINE#         399
  C:64C9H         LINE#         400
  C:64D5H         LINE#         401
  C:64D5H         LINE#         402
  C:64E8H         LINE#         403
  C:64EAH         LINE#         405
  C:64EAH         LINE#         406
  C:6501H         LINE#         407
  C:6501H         LINE#         409
  -------         ENDPROC       PROG_SIN_COBRO
  -------         PROC          PROG_DEBUG
  -------         DO            
  X:0046H         SYMBOL        buffer
  X:0050H         SYMBOL        dataee
  -------         ENDDO         
  C:7375H         LINE#         415
  C:7375H         LINE#         416
  C:7375H         LINE#         421
  C:7388H         LINE#         422
  C:73A5H         LINE#         423
  C:73AFH         LINE#         424
  C:73AFH         LINE#         425
  C:73C2H         LINE#         426
  C:73C4H         LINE#         428
  C:73C4H         LINE#         429
  C:73DBH         LINE#         430
  C:73DBH         LINE#         432
  C:73E4H         LINE#         433
BL51 BANKED LINKER/LOCATER V6.22.2.0                                                  11/05/2020  12:20:06  PAGE 66


  C:73EFH         LINE#         434
  C:7400H         LINE#         435
  C:740AH         LINE#         437
  C:741DH         LINE#         438
  C:743AH         LINE#         439
  C:7444H         LINE#         440
  C:7444H         LINE#         441
  C:7457H         LINE#         442
  C:7459H         LINE#         444
  C:7459H         LINE#         445
  C:7470H         LINE#         446
  C:7470H         LINE#         447
  -------         ENDPROC       PROG_DEBUG
  -------         PROC          PROG_USE_LPR
  -------         DO            
  X:0046H         SYMBOL        buffer
  X:0050H         SYMBOL        dataee
  -------         ENDDO         
  C:7471H         LINE#         452
  C:7471H         LINE#         453
  C:7471H         LINE#         458
  C:7484H         LINE#         459
  C:74A1H         LINE#         460
  C:74ABH         LINE#         461
  C:74ABH         LINE#         462
  C:74BEH         LINE#         463
  C:74C0H         LINE#         465
  C:74C0H         LINE#         466
  C:74D7H         LINE#         467
  C:74D7H         LINE#         469
  C:74E0H         LINE#         470
  C:74EBH         LINE#         471
  C:74FCH         LINE#         472
  C:7506H         LINE#         474
  C:7519H         LINE#         475
  C:7536H         LINE#         476
  C:7540H         LINE#         477
  C:7540H         LINE#         478
  C:7553H         LINE#         479
  C:7555H         LINE#         481
  C:7555H         LINE#         482
  C:756CH         LINE#         483
  C:756CH         LINE#         484
  -------         ENDPROC       PROG_USE_LPR
  -------         PROC          TIPO_PANTALLA
  -------         DO            
  X:0046H         SYMBOL        buffer
  X:0050H         SYMBOL        dataee
  -------         ENDDO         
  C:756DH         LINE#         491
  C:756DH         LINE#         492
  C:756DH         LINE#         497
  C:7580H         LINE#         498
  C:759DH         LINE#         499
  C:75A7H         LINE#         500
  C:75A7H         LINE#         501
  C:75BAH         LINE#         502
BL51 BANKED LINKER/LOCATER V6.22.2.0                                                  11/05/2020  12:20:06  PAGE 67


  C:75BCH         LINE#         504
  C:75BCH         LINE#         505
  C:75D3H         LINE#         506
  C:75D3H         LINE#         508
  C:75DCH         LINE#         509
  C:75E7H         LINE#         510
  C:75F8H         LINE#         511
  C:7602H         LINE#         513
  C:7615H         LINE#         514
  C:7632H         LINE#         515
  C:763CH         LINE#         516
  C:763CH         LINE#         517
  C:764FH         LINE#         518
  C:7651H         LINE#         520
  C:7651H         LINE#         521
  C:7668H         LINE#         522
  C:7668H         LINE#         524
  -------         ENDPROC       TIPO_PANTALLA
  -------         PROC          PROG_TARJETA_AUTOMATICA_O_BOTON
  -------         DO            
  X:0046H         SYMBOL        buffer
  X:0050H         SYMBOL        dataee
  -------         ENDDO         
  C:8863H         LINE#         525
  C:8863H         LINE#         526
  C:8863H         LINE#         531
  C:8876H         LINE#         532
  C:8893H         LINE#         533
  C:889FH         LINE#         534
  C:889FH         LINE#         535
  C:88A3H         LINE#         536
  C:88A5H         LINE#         538
  C:88A5H         LINE#         539
  C:88ACH         LINE#         540
  C:88ACH         LINE#         542
  C:88B5H         LINE#         543
  C:88C0H         LINE#         544
  C:88D1H         LINE#         545
  C:88DBH         LINE#         547
  C:88EEH         LINE#         548
  C:890BH         LINE#         549
  C:8917H         LINE#         550
  C:8917H         LINE#         551
  C:891BH         LINE#         552
  C:891DH         LINE#         554
  C:891DH         LINE#         555
  C:8924H         LINE#         556
  C:8924H         LINE#         557
  -------         ENDPROC       PROG_TARJETA_AUTOMATICA_O_BOTON
  -------         PROC          PROG_ANTIPASSBACK
  -------         DO            
  X:0046H         SYMBOL        buffer
  X:0050H         SYMBOL        dataee
  -------         ENDDO         
  C:7669H         LINE#         558
  C:7669H         LINE#         559
  C:7669H         LINE#         564
BL51 BANKED LINKER/LOCATER V6.22.2.0                                                  11/05/2020  12:20:06  PAGE 68


  C:767CH         LINE#         565
  C:7699H         LINE#         566
  C:76A3H         LINE#         567
  C:76A3H         LINE#         568
  C:76B6H         LINE#         569
  C:76B8H         LINE#         571
  C:76B8H         LINE#         572
  C:76CFH         LINE#         573
  C:76CFH         LINE#         575
  C:76D8H         LINE#         576
  C:76E3H         LINE#         577
  C:76F4H         LINE#         578
  C:76FEH         LINE#         580
  C:7711H         LINE#         581
  C:772EH         LINE#         582
  C:7738H         LINE#         583
  C:7738H         LINE#         584
  C:774BH         LINE#         585
  C:774DH         LINE#         587
  C:774DH         LINE#         588
  C:7764H         LINE#         589
  C:7764H         LINE#         590
  -------         ENDPROC       PROG_ANTIPASSBACK
  -------         PROC          PROG_PLACA
  -------         DO            
  X:0046H         SYMBOL        buffer
  X:0050H         SYMBOL        dataee
  -------         ENDDO         
  C:7765H         LINE#         591
  C:7765H         LINE#         592
  C:7765H         LINE#         597
  C:7778H         LINE#         598
  C:7795H         LINE#         599
  C:779FH         LINE#         600
  C:779FH         LINE#         601
  C:77B2H         LINE#         602
  C:77B4H         LINE#         604
  C:77B4H         LINE#         605
  C:77CBH         LINE#         606
  C:77CBH         LINE#         608
  C:77D4H         LINE#         609
  C:77DFH         LINE#         610
  C:77F0H         LINE#         611
  C:77FAH         LINE#         613
  C:780DH         LINE#         614
  C:782AH         LINE#         615
  C:7834H         LINE#         616
  C:7834H         LINE#         617
  C:7847H         LINE#         618
  C:7849H         LINE#         620
  C:7849H         LINE#         621
  C:7860H         LINE#         622
  C:7860H         LINE#         623
  -------         ENDPROC       PROG_PLACA
  -------         PROC          PROG_ADDRESS_HIGH_BOARD
  -------         DO            
  X:0046H         SYMBOL        buffer
BL51 BANKED LINKER/LOCATER V6.22.2.0                                                  11/05/2020  12:20:06  PAGE 69


  X:0050H         SYMBOL        dataee
  -------         ENDDO         
  C:7D18H         LINE#         624
  C:7D18H         LINE#         625
  C:7D18H         LINE#         630
  C:7D2BH         LINE#         631
  C:7D48H         LINE#         632
  C:7D52H         LINE#         633
  C:7D52H         LINE#         634
  C:7D56H         LINE#         635
  C:7D58H         LINE#         637
  C:7D58H         LINE#         638
  C:7D6FH         LINE#         639
  C:7D6FH         LINE#         641
  C:7D78H         LINE#         642
  C:7D83H         LINE#         643
  C:7D94H         LINE#         644
  C:7D9EH         LINE#         646
  C:7DB1H         LINE#         647
  C:7DCEH         LINE#         648
  C:7DD8H         LINE#         649
  C:7DD8H         LINE#         650
  C:7DDCH         LINE#         651
  C:7DDEH         LINE#         653
  C:7DDEH         LINE#         654
  C:7DF5H         LINE#         655
  C:7DF5H         LINE#         656
  -------         ENDPROC       PROG_ADDRESS_HIGH_BOARD
  -------         PROC          ADDR_HORARIOS
  -------         DO            
  X:0074H         SYMBOL        ee_addr_horario
  -------         ENDDO         
  C:B1D9H         LINE#         658
  C:B1D9H         LINE#         659
  C:B1D9H         LINE#         662
  C:B1DFH         LINE#         663
  C:B1E3H         LINE#         664
  C:B1E7H         LINE#         665
  C:B1EBH         LINE#         666
  C:B1EFH         LINE#         667
  C:B1F3H         LINE#         668
  C:B1F7H         LINE#         669
  C:B1FBH         LINE#         670
  C:B1FFH         LINE#         671
  C:B203H         LINE#         672
  C:B206H         LINE#         673
  C:B20CH         LINE#         674
  -------         ENDPROC       ADDR_HORARIOS
  -------         PROC          _PROG_HORARIOS_ON_OFF
  X:0061H         SYMBOL        addr
  -------         DO            
  X:0063H         SYMBOL        buffer
  X:006DH         SYMBOL        dataee
  X:006FH         SYMBOL        habilitado
  -------         ENDDO         
  C:6C0FH         LINE#         675
  C:6C19H         LINE#         676
BL51 BANKED LINKER/LOCATER V6.22.2.0                                                  11/05/2020  12:20:06  PAGE 70


  C:6C19H         LINE#         679
  C:6C28H         LINE#         680
  C:6C45H         LINE#         681
  C:6C4FH         LINE#         682
  C:6C4FH         LINE#         683
  C:6C62H         LINE#         684
  C:6C64H         LINE#         686
  C:6C64H         LINE#         687
  C:6C7BH         LINE#         688
  C:6C7BH         LINE#         689
  C:6C84H         LINE#         690
  C:6C8FH         LINE#         691
  C:6CA0H         LINE#         692
  C:6CAFH         LINE#         694
  C:6CC6H         LINE#         695
  C:6CE3H         LINE#         696
  C:6CF0H         LINE#         697
  C:6CF0H         LINE#         698
  C:6CF3H         LINE#         699
  C:6D06H         LINE#         700
  C:6D08H         LINE#         702
  C:6D08H         LINE#         703
  C:6D0DH         LINE#         704
  C:6D22H         LINE#         705
  C:6D22H         LINE#         706
  C:6D28H         LINE#         707
  -------         ENDPROC       _PROG_HORARIOS_ON_OFF
  -------         PROC          _PROG_HORARIO_DESDE_HASTA
  X:0061H         SYMBOL        addr
  -------         DO            
  X:0063H         SYMBOL        buffer
  D:0007H         SYMBOL        dataee
  -------         ENDDO         
  C:4F8EH         LINE#         708
  C:4F96H         LINE#         709
  C:4F96H         LINE#         714
  C:4F9FH         LINE#         715
  C:4FA2H         LINE#         716
  C:4FABH         LINE#         717
  C:4FC3H         LINE#         718
  C:4FD6H         LINE#         719
  C:4FE4H         LINE#         720
  C:4FFCH         LINE#         721
  C:500FH         LINE#         722
  C:501DH         LINE#         723
  C:5035H         LINE#         724
  C:5048H         LINE#         725
  C:5056H         LINE#         726
  C:506EH         LINE#         727
  C:5081H         LINE#         728
  C:508FH         LINE#         732
  C:5098H         LINE#         733
  C:509BH         LINE#         735
  C:50A4H         LINE#         737
  C:50BCH         LINE#         738
  C:50CFH         LINE#         739
  C:50DDH         LINE#         740
BL51 BANKED LINKER/LOCATER V6.22.2.0                                                  11/05/2020  12:20:06  PAGE 71


  C:50F5H         LINE#         741
  C:5108H         LINE#         742
  C:5116H         LINE#         743
  C:512EH         LINE#         744
  C:5141H         LINE#         745
  C:514FH         LINE#         746
  C:5167H         LINE#         747
  C:517AH         LINE#         748
  -------         ENDPROC       _PROG_HORARIO_DESDE_HASTA
  -------         PROC          _VER_HORARIO_DESDE_HASTA
  X:0074H         SYMBOL        addr
  -------         DO            
  D:0007H         SYMBOL        dataee
  -------         ENDDO         
  C:6D29H         LINE#         750
  C:6D31H         LINE#         751
  C:6D31H         LINE#         753
  C:6D3AH         LINE#         754
  C:6D4DH         LINE#         755
  C:6D5BH         LINE#         756
  C:6D6EH         LINE#         757
  C:6D7CH         LINE#         758
  C:6D8FH         LINE#         759
  C:6D9DH         LINE#         760
  C:6DB0H         LINE#         761
  C:6DBEH         LINE#         763
  C:6DD1H         LINE#         764
  C:6DDFH         LINE#         766
  C:6DF2H         LINE#         767
  C:6E00H         LINE#         769
  C:6E13H         LINE#         770
  C:6E21H         LINE#         772
  C:6E34H         LINE#         773
  -------         ENDPROC       _VER_HORARIO_DESDE_HASTA
  -------         PROC          _PROG_HORARIO_DIAS
  X:0061H         SYMBOL        addr
  -------         DO            
  X:0063H         SYMBOL        buffer
  X:006DH         SYMBOL        dataee
  X:006EH         SYMBOL        j
  X:006FH         SYMBOL        temp
  -------         ENDDO         
  C:45F1H         LINE#         775
  C:45F9H         LINE#         776
  C:45F9H         LINE#         780
  C:4602H         LINE#         781
  C:460BH         LINE#         782
  C:4614H         LINE#         783
  C:461FH         LINE#         786
  C:4628H         LINE#         788
  C:463EH         LINE#         789
  C:463EH         LINE#         791
  C:4651H         LINE#         792
  C:4651H         LINE#         793
  C:465AH         LINE#         795
  C:466FH         LINE#         796
  C:4687H         LINE#         797
BL51 BANKED LINKER/LOCATER V6.22.2.0                                                  11/05/2020  12:20:06  PAGE 72


  C:4694H         LINE#         798
  C:4694H         LINE#         800
  C:46AAH         LINE#         801
  C:46AAH         LINE#         802
  C:46B3H         LINE#         803
  C:46C8H         LINE#         804
  C:46E0H         LINE#         805
  C:46EDH         LINE#         806
  C:46EDH         LINE#         808
  C:4703H         LINE#         809
  C:4703H         LINE#         810
  C:470CH         LINE#         811
  C:4721H         LINE#         812
  C:4739H         LINE#         813
  C:4746H         LINE#         814
  C:4746H         LINE#         816
  C:475CH         LINE#         817
  C:475CH         LINE#         818
  C:4765H         LINE#         819
  C:477AH         LINE#         820
  C:4792H         LINE#         821
  C:479FH         LINE#         822
  C:479FH         LINE#         824
  C:47B5H         LINE#         825
  C:47B5H         LINE#         826
  C:47BEH         LINE#         827
  C:47D3H         LINE#         828
  C:47EBH         LINE#         829
  C:47F8H         LINE#         830
  C:47F8H         LINE#         832
  C:480EH         LINE#         833
  C:480EH         LINE#         834
  C:4817H         LINE#         835
  C:482CH         LINE#         836
  C:4844H         LINE#         837
  C:4851H         LINE#         838
  C:4851H         LINE#         840
  C:4867H         LINE#         841
  C:4867H         LINE#         842
  C:4870H         LINE#         843
  C:487FH         LINE#         844
  C:4891H         LINE#         845
  C:489EH         LINE#         846
  C:489EH         LINE#         847
  C:48A7H         LINE#         849
  -------         ENDPROC       _PROG_HORARIO_DIAS
  -------         PROC          _VER_HORARIO_DIAS
  X:0074H         SYMBOL        addr
  -------         DO            
  X:0076H         SYMBOL        dataee
  -------         ENDDO         
  C:69CBH         LINE#         850
  C:69D3H         LINE#         851
  C:69D3H         LINE#         854
  C:69E3H         LINE#         855
  C:69E9H         LINE#         856
  C:69E9H         LINE#         857
BL51 BANKED LINKER/LOCATER V6.22.2.0                                                  11/05/2020  12:20:06  PAGE 73


  C:69EDH         LINE#         858
  C:69EFH         LINE#         860
  C:69EFH         LINE#         861
  C:69F6H         LINE#         862
  C:69F6H         LINE#         865
  C:6A0EH         LINE#         866
  C:6A14H         LINE#         867
  C:6A14H         LINE#         868
  C:6A18H         LINE#         869
  C:6A1AH         LINE#         871
  C:6A1AH         LINE#         872
  C:6A21H         LINE#         873
  C:6A21H         LINE#         876
  C:6A39H         LINE#         877
  C:6A3FH         LINE#         878
  C:6A3FH         LINE#         879
  C:6A43H         LINE#         880
  C:6A45H         LINE#         882
  C:6A45H         LINE#         883
  C:6A4CH         LINE#         884
  C:6A4CH         LINE#         886
  C:6A64H         LINE#         887
  C:6A6AH         LINE#         888
  C:6A6AH         LINE#         889
  C:6A6EH         LINE#         890
  C:6A70H         LINE#         892
  C:6A70H         LINE#         893
  C:6A77H         LINE#         894
  C:6A77H         LINE#         896
  C:6A8FH         LINE#         897
  C:6A95H         LINE#         898
  C:6A95H         LINE#         899
  C:6A99H         LINE#         900
  C:6A9BH         LINE#         902
  C:6A9BH         LINE#         903
  C:6AA2H         LINE#         904
  C:6AA2H         LINE#         907
  C:6ABAH         LINE#         908
  C:6AC0H         LINE#         909
  C:6AC0H         LINE#         910
  C:6AC4H         LINE#         911
  C:6AC6H         LINE#         913
  C:6AC6H         LINE#         914
  C:6ACDH         LINE#         915
  C:6ACDH         LINE#         917
  C:6ADFH         LINE#         918
  C:6AE5H         LINE#         919
  C:6AE5H         LINE#         920
  C:6AE9H         LINE#         921
  C:6AEBH         LINE#         923
  C:6AEBH         LINE#         924
  C:6AF2H         LINE#         925
  C:6AF2H         LINE#         926
  -------         ENDPROC       _VER_HORARIO_DIAS
  -------         PROC          PROG_HORARIOS
  -------         DO            
  X:0046H         SYMBOL        buffer
BL51 BANKED LINKER/LOCATER V6.22.2.0                                                  11/05/2020  12:20:06  PAGE 74


  X:0050H         SYMBOL        ee_addr_horario
  X:005BH         SYMBOL        addr
  X:005DH         SYMBOL        temp
  X:005FH         SYMBOL        dataee
  X:0060H         SYMBOL        j
  -------         ENDDO         
  C:5FFEH         LINE#         927
  C:5FFEH         LINE#         928
  C:5FFEH         LINE#         937
  C:600AH         LINE#         941
  C:6013H         LINE#         942
  C:601EH         LINE#         944
  C:602DH         LINE#         948
  C:6043H         LINE#         949
  C:6049H         LINE#         953
  C:6057H         LINE#         954
  C:605FH         LINE#         955
  C:605FH         LINE#         957
  C:606EH         LINE#         958
  C:6082H         LINE#         959
  C:6082H         LINE#         960
  C:6096H         LINE#         961
  C:609EH         LINE#         963
  C:60AEH         LINE#         966
  C:60B1H         LINE#         970
  C:60BCH         LINE#         973
  C:60C5H         LINE#         974
  C:60D0H         LINE#         975
  C:60DFH         LINE#         976
  C:60F2H         LINE#         978
  C:610AH         LINE#         979
  C:6124H         LINE#         980
  C:612CH         LINE#         981
  C:612CH         LINE#         983
  C:613AH         LINE#         984
  C:6142H         LINE#         985
  C:6142H         LINE#         986
  C:6142H         LINE#         988
  -------         ENDPROC       PROG_HORARIOS
  -------         PROC          PROG_VALIDAR_TIPO_VEHICULO_MENSUAL
  -------         DO            
  X:0046H         SYMBOL        buffer
  X:0050H         SYMBOL        dataee
  -------         ENDDO         
  C:7861H         LINE#         989
  C:7861H         LINE#         990
  C:7861H         LINE#         995
  C:7874H         LINE#         996
  C:7891H         LINE#         997
  C:789BH         LINE#         998
  C:789BH         LINE#         999
  C:78AEH         LINE#         1000
  C:78B0H         LINE#         1002
  C:78B0H         LINE#         1003
  C:78C7H         LINE#         1004
  C:78C7H         LINE#         1006
  C:78D0H         LINE#         1007
BL51 BANKED LINKER/LOCATER V6.22.2.0                                                  11/05/2020  12:20:06  PAGE 75


  C:78DBH         LINE#         1008
  C:78ECH         LINE#         1009
  C:78F6H         LINE#         1011
  C:7909H         LINE#         1012
  C:7926H         LINE#         1013
  C:7930H         LINE#         1014
  C:7930H         LINE#         1015
  C:7943H         LINE#         1016
  C:7945H         LINE#         1018
  C:7945H         LINE#         1019
  C:795CH         LINE#         1020
  C:795CH         LINE#         1021
  -------         ENDPROC       PROG_VALIDAR_TIPO_VEHICULO_MENSUAL
  -------         PROC          PROG_APB_MENSUAL
  -------         DO            
  X:0046H         SYMBOL        buffer
  X:0050H         SYMBOL        dataee
  -------         ENDDO         
  C:795DH         LINE#         1022
  C:795DH         LINE#         1023
  C:795DH         LINE#         1028
  C:7970H         LINE#         1029
  C:798DH         LINE#         1030
  C:7997H         LINE#         1031
  C:7997H         LINE#         1032
  C:79AAH         LINE#         1033
  C:79ACH         LINE#         1035
  C:79ACH         LINE#         1036
  C:79C3H         LINE#         1037
  C:79C3H         LINE#         1039
  C:79CCH         LINE#         1040
  C:79D7H         LINE#         1041
  C:79E8H         LINE#         1042
  C:79F2H         LINE#         1044
  C:7A05H         LINE#         1045
  C:7A22H         LINE#         1046
  C:7A2CH         LINE#         1047
  C:7A2CH         LINE#         1048
  C:7A3FH         LINE#         1049
  C:7A41H         LINE#         1051
  C:7A41H         LINE#         1052
  C:7A58H         LINE#         1053
  C:7A58H         LINE#         1054
  -------         ENDPROC       PROG_APB_MENSUAL
  -------         PROC          PROG_FECHA_VENCIMIENTO
  -------         DO            
  X:0046H         SYMBOL        buffer
  X:0051H         SYMBOL        cmd
  X:0054H         SYMBOL        fecha
  X:005BH         SYMBOL        dataee
  -------         ENDDO         
  C:5188H         LINE#         1056
  C:5188H         LINE#         1057
  C:5188H         LINE#         1064
  C:5195H         LINE#         1065
  C:51ACH         LINE#         1068
  C:51C3H         LINE#         1070
BL51 BANKED LINKER/LOCATER V6.22.2.0                                                  11/05/2020  12:20:06  PAGE 76


  C:51C3H         LINE#         1071
  C:51CCH         LINE#         1072
  C:51D9H         LINE#         1073
  C:51F0H         LINE#         1074
  C:5202H         LINE#         1075
  C:520BH         LINE#         1080
  C:5216H         LINE#         1081
  C:522AH         LINE#         1082
  C:5237H         LINE#         1084
  C:5240H         LINE#         1087
  C:5249H         LINE#         1088
  C:5254H         LINE#         1089
  C:526BH         LINE#         1091
  C:5273H         LINE#         1092
  C:527BH         LINE#         1093
  C:527EH         LINE#         1095
  C:528FH         LINE#         1096
  C:52A0H         LINE#         1098
  C:52AFH         LINE#         1099
  C:52B7H         LINE#         1100
  C:52BFH         LINE#         1101
  C:52C2H         LINE#         1102
  C:52D3H         LINE#         1103
  C:52E4H         LINE#         1104
  C:52F3H         LINE#         1105
  C:52FBH         LINE#         1106
  C:5303H         LINE#         1107
  C:5306H         LINE#         1108
  C:5317H         LINE#         1109
  C:5328H         LINE#         1110
  C:5337H         LINE#         1111
  C:5342H         LINE#         1113
  C:534FH         LINE#         1115
  C:5366H         LINE#         1116
  -------         ENDPROC       PROG_FECHA_VENCIMIENTO
  -------         PROC          VER_HORARIO
  -------         DO            
  X:0059H         SYMBOL        buffer
  X:0063H         SYMBOL        ee_addr_horario
  X:006EH         SYMBOL        conta
  X:006FH         SYMBOL        addr
  X:0071H         SYMBOL        temp
  X:0073H         SYMBOL        dataee
  -------         ENDDO         
  C:6640H         LINE#         1119
  C:6640H         LINE#         1120
  C:6640H         LINE#         1129
  C:664CH         LINE#         1130
  C:6662H         LINE#         1131
  C:6662H         LINE#         1133
  C:6672H         LINE#         1136
  C:668BH         LINE#         1137
  C:6691H         LINE#         1140
  C:669FH         LINE#         1141
  C:66AEH         LINE#         1142
  C:66C8H         LINE#         1143
  C:66D3H         LINE#         1144
BL51 BANKED LINKER/LOCATER V6.22.2.0                                                  11/05/2020  12:20:06  PAGE 77


  C:66D3H         LINE#         1145
  C:66DCH         LINE#         1147
  C:66E5H         LINE#         1148
  C:66F5H         LINE#         1149
  C:66F8H         LINE#         1151
  C:6703H         LINE#         1152
  C:671BH         LINE#         1153
  C:6735H         LINE#         1154
  C:673FH         LINE#         1155
  C:673FH         LINE#         1156
  C:6746H         LINE#         1158
  C:6754H         LINE#         1159
  C:675CH         LINE#         1160
  C:675EH         LINE#         1162
  C:675EH         LINE#         1163
  C:6762H         LINE#         1164
  C:6762H         LINE#         1165
  C:6764H         LINE#         1167
  C:6764H         LINE#         1168
  C:676DH         LINE#         1169
  C:676DH         LINE#         1171
  C:6776H         LINE#         1174
  -------         ENDPROC       VER_HORARIO
  -------         PROC          VER_PROG
  -------         DO            
  X:0046H         SYMBOL        buffer
  X:0050H         SYMBOL        dataee
  X:0052H         SYMBOL        fecha
  -------         ENDDO         
  C:3C87H         LINE#         1175
  C:3C87H         LINE#         1176
  C:3C87H         LINE#         1182
  C:3C99H         LINE#         1183
  C:3CB6H         LINE#         1185
  C:3CCDH         LINE#         1187
  C:3CE0H         LINE#         1188
  C:3CFDH         LINE#         1190
  C:3D14H         LINE#         1192
  C:3D27H         LINE#         1193
  C:3D44H         LINE#         1194
  C:3D52H         LINE#         1195
  C:3D52H         LINE#         1196
  C:3D56H         LINE#         1197
  C:3D58H         LINE#         1199
  C:3D58H         LINE#         1200
  C:3D5FH         LINE#         1201
  C:3D5FH         LINE#         1203
  C:3D72H         LINE#         1204
  C:3D8FH         LINE#         1205
  C:3D9BH         LINE#         1206
  C:3D9BH         LINE#         1207
  C:3D9FH         LINE#         1208
  C:3DA1H         LINE#         1210
  C:3DA1H         LINE#         1211
  C:3DA8H         LINE#         1212
  C:3DA8H         LINE#         1214
  C:3DBBH         LINE#         1215
BL51 BANKED LINKER/LOCATER V6.22.2.0                                                  11/05/2020  12:20:06  PAGE 78


  C:3DD8H         LINE#         1216
  C:3DE4H         LINE#         1217
  C:3DE4H         LINE#         1218
  C:3DE8H         LINE#         1219
  C:3DEAH         LINE#         1221
  C:3DEAH         LINE#         1222
  C:3DF1H         LINE#         1223
  C:3DF1H         LINE#         1225
  C:3E04H         LINE#         1226
  C:3E21H         LINE#         1227
  C:3E2DH         LINE#         1228
  C:3E2DH         LINE#         1229
  C:3E31H         LINE#         1230
  C:3E33H         LINE#         1232
  C:3E33H         LINE#         1233
  C:3E3AH         LINE#         1234
  C:3E3AH         LINE#         1236
  C:3E4DH         LINE#         1237
  C:3E6AH         LINE#         1238
  C:3E76H         LINE#         1239
  C:3E76H         LINE#         1240
  C:3E7AH         LINE#         1241
  C:3E7CH         LINE#         1243
  C:3E7CH         LINE#         1244
  C:3E83H         LINE#         1245
  C:3E83H         LINE#         1247
  C:3E96H         LINE#         1248
  C:3EB3H         LINE#         1249
  C:3EBFH         LINE#         1250
  C:3EBFH         LINE#         1251
  C:3EC3H         LINE#         1252
  C:3EC5H         LINE#         1254
  C:3EC5H         LINE#         1255
  C:3ECCH         LINE#         1256
  C:3ECCH         LINE#         1259
  C:3EDFH         LINE#         1260
  C:3EFCH         LINE#         1262
  C:3F13H         LINE#         1264
  C:3F16H         LINE#         1268
  C:3F29H         LINE#         1269
  C:3F46H         LINE#         1270
  C:3F52H         LINE#         1271
  C:3F52H         LINE#         1272
  C:3F56H         LINE#         1273
  C:3F58H         LINE#         1275
  C:3F58H         LINE#         1276
  C:3F5FH         LINE#         1277
  C:3F5FH         LINE#         1279
  C:3F72H         LINE#         1280
  C:3F8FH         LINE#         1281
  C:3F9BH         LINE#         1282
  C:3F9BH         LINE#         1283
  C:3F9FH         LINE#         1284
  C:3FA1H         LINE#         1286
  C:3FA1H         LINE#         1287
  C:3FA8H         LINE#         1288
  C:3FA8H         LINE#         1290
BL51 BANKED LINKER/LOCATER V6.22.2.0                                                  11/05/2020  12:20:06  PAGE 79


  C:3FB5H         LINE#         1292
  C:3FCCH         LINE#         1293
  -------         ENDPROC       VER_PROG
  -------         PROC          SHOW
  C:95F5H         LINE#         1299
  C:95F5H         LINE#         1300
  C:95F5H         LINE#         1301
  C:95FEH         LINE#         1302
  C:9607H         LINE#         1303
  C:9610H         LINE#         1304
  C:9619H         LINE#         1305
  C:9622H         LINE#         1306
  C:962BH         LINE#         1307
  C:9634H         LINE#         1308
  C:963DH         LINE#         1309
  C:9646H         LINE#         1310
  C:964FH         LINE#         1311
  C:9658H         LINE#         1312
  C:9661H         LINE#         1313
  C:966AH         LINE#         1314
  C:9673H         LINE#         1315
  C:967CH         LINE#         1316
  C:9685H         LINE#         1317
  -------         ENDPROC       SHOW
  -------         PROC          FIRST_CLAVE
  -------         DO            
  X:0046H         SYMBOL        clave
  -------         ENDDO         
  C:AB73H         LINE#         1324
  C:AB73H         LINE#         1325
  C:AB73H         LINE#         1329
  C:AB7CH         LINE#         1330
  C:AB81H         LINE#         1331
  C:AB93H         LINE#         1332
  C:ABA0H         LINE#         1333
  C:ABA6H         LINE#         1334
  C:ABA9H         LINE#         1335
  C:ABACH         LINE#         1336
  C:ABAEH         LINE#         1338
  -------         ENDPROC       FIRST_CLAVE
  -------         PROC          MENU
  -------         DO            
  X:0001H         SYMBOL        cmd
  X:0004H         SYMBOL        option1
  X:0007H         SYMBOL        option2
  X:000AH         SYMBOL        opt_buffer
  X:0032H         SYMBOL        buffer
  -------         ENDDO         
  C:4B5AH         LINE#         1342
  C:4B5AH         LINE#         1343
  C:4B5AH         LINE#         1352
  C:4B63H         LINE#         1357
  C:4B6FH         LINE#         1358
  C:4B6FH         LINE#         1359
  C:4B72H         LINE#         1360
  C:4B7CH         LINE#         1363
  C:4B7CH         LINE#         1365
BL51 BANKED LINKER/LOCATER V6.22.2.0                                                  11/05/2020  12:20:06  PAGE 80


  C:4B7CH         LINE#         1366
  C:4B85H         LINE#         1367
  C:4B92H         LINE#         1368
  C:4B97H         LINE#         1369
  C:4BADH         LINE#         1370
  C:4BBFH         LINE#         1371
  C:4BC8H         LINE#         1376
  C:4BD3H         LINE#         1377
  C:4BE1H         LINE#         1378
  C:4BEEH         LINE#         1380
  C:4BF7H         LINE#         1384
  C:4BFAH         LINE#         1385
  C:4BFAH         LINE#         1386
  C:4BFAH         LINE#         1387
  C:4BFDH         LINE#         1390
  C:4C08H         LINE#         1391
  C:4C16H         LINE#         1392
  C:4C2AH         LINE#         1393
  C:4C3EH         LINE#         1398
  C:4C54H         LINE#         1399
  C:4C54H         LINE#         1401
  C:4C63H         LINE#         1402
  C:4C65H         LINE#         1403
  C:4C75H         LINE#         1404
  C:4C75H         LINE#         1406
  C:4C84H         LINE#         1407
  C:4CA2H         LINE#         1408
  C:4CA2H         LINE#         1414
  C:4CB5H         LINE#         1415
  C:4CB5H         LINE#         1416
  C:4CFEH         LINE#         1417
  C:4CFEH         LINE#         1418
  C:4CFEH         LINE#         1419
  C:4D01H         LINE#         1421
  C:4D04H         LINE#         1423
  C:4D04H         LINE#         1424
  C:4D07H         LINE#         1425
  C:4D0AH         LINE#         1426
  C:4D0AH         LINE#         1427
  C:4D0DH         LINE#         1428
  C:4D10H         LINE#         1429
  C:4D10H         LINE#         1430
  C:4D13H         LINE#         1431
  C:4D16H         LINE#         1432
  C:4D16H         LINE#         1433
  C:4D19H         LINE#         1434
  C:4D1CH         LINE#         1435
  C:4D1CH         LINE#         1436
  C:4D1FH         LINE#         1437
  C:4D22H         LINE#         1438
  C:4D22H         LINE#         1439
  C:4D25H         LINE#         1440
  C:4D28H         LINE#         1441
  C:4D28H         LINE#         1442
  C:4D2BH         LINE#         1443
  C:4D2EH         LINE#         1444
  C:4D2EH         LINE#         1445
BL51 BANKED LINKER/LOCATER V6.22.2.0                                                  11/05/2020  12:20:06  PAGE 81


  C:4D31H         LINE#         1446
  C:4D34H         LINE#         1447
  C:4D34H         LINE#         1448
  C:4D37H         LINE#         1449
  C:4D3AH         LINE#         1450
  C:4D3AH         LINE#         1451
  C:4D3DH         LINE#         1452
  C:4D40H         LINE#         1453
  C:4D40H         LINE#         1454
  C:4D43H         LINE#         1455
  C:4D46H         LINE#         1456
  C:4D46H         LINE#         1457
  C:4D49H         LINE#         1458
  C:4D4CH         LINE#         1459
  C:4D4CH         LINE#         1460
  C:4D4FH         LINE#         1461
  C:4D52H         LINE#         1462
  C:4D52H         LINE#         1463
  C:4D55H         LINE#         1464
  C:4D58H         LINE#         1465
  C:4D58H         LINE#         1466
  C:4D5BH         LINE#         1467
  C:4D5EH         LINE#         1468
  C:4D5EH         LINE#         1470
  C:4D5EH         LINE#         1471
  C:4D5EH         LINE#         1472
  C:4D61H         LINE#         1473
  C:4D64H         LINE#         1476
  C:4D64H         LINE#         1477
  C:4D82H         LINE#         1478
  C:4D85H         LINE#         1479
  C:4D85H         LINE#         1480
  C:4D85H         LINE#         1481
  C:4D85H         LINE#         1482
  -------         ENDPROC       MENU
  -------         ENDMOD        PROG

  -------         MODULE        PTO_PARALELO
  C:0000H         SYMBOL        _ICE_DUMMY_
  D:0080H         PUBLIC        P0
  D:00A0H         PUBLIC        P2
  D:00B0H         PUBLIC        P3
  B:0080H.2       PUBLIC        led_err_imp
  C:6AF3H         PUBLIC        load_and_send_id_cod
  C:968EH         PUBLIC        _recibe_port
  B:00B0H.2       PUBLIC        ready
  B:0080H.6       PUBLIC        rx_in_data
  C:B5DCH         PUBLIC        Pulso_Bus
  C:9CC1H         PUBLIC        _send_portERR
  B:00B0H.3       PUBLIC        busy
  C:B2D1H         PUBLIC        load_and_send_info_reloj
  C:8E43H         PUBLIC        _send_port
  B:00B0H.4       PUBLIC        port_clk
  C:B64DH         PUBLIC        cond_ini_pto
  -------         PROC          _RECIBE_PORT
  X:0001H         SYMBOL        buffer_port
  -------         DO            
BL51 BANKED LINKER/LOCATER V6.22.2.0                                                  11/05/2020  12:20:06  PAGE 82


  D:0006H         SYMBOL        count
  X:0004H         SYMBOL        time_out
  X:0005H         SYMBOL        num_data
  X:0006H         SYMBOL        T_ANCHO
  X:0008H         SYMBOL        data_temp
  -------         ENDDO         
  C:968EH         LINE#         48
  C:9699H         LINE#         49
  C:9699H         LINE#         53
  C:96A2H         LINE#         54
  C:96A5H         LINE#         57
  C:96A8H         LINE#         58
  C:96A8H         LINE#         60
  C:96ABH         LINE#         61
  C:96B0H         LINE#         62
  C:96B2H         LINE#         63
  C:96B6H         LINE#         64
  C:96B8H         LINE#         67
  C:96BDH         LINE#         68
  C:96C6H         LINE#         69
  C:96C6H         LINE#         70
  C:96C9H         LINE#         71
  C:96C9H         LINE#         73
  C:96CEH         LINE#         74
  C:96D2H         LINE#         75
  C:96D2H         LINE#         76
  C:96D4H         LINE#         77
  C:96D6H         LINE#         78
  C:96D6H         LINE#         79
  C:96D6H         LINE#         81
  C:96D6H         LINE#         82
  C:96E3H         LINE#         83
  C:96E3H         LINE#         85
  C:96E6H         LINE#         86
  C:96E6H         LINE#         88
  C:96ECH         LINE#         90
  C:96EEH         LINE#         91
  C:9702H         LINE#         92
  C:970CH         LINE#         93
  C:9712H         LINE#         94
  C:9718H         LINE#         95
  C:971AH         LINE#         96
  C:971AH         LINE#         97
  C:971AH         LINE#         98
  C:971AH         LINE#         101
  C:971CH         LINE#         102
  C:971EH         LINE#         103
  C:971EH         LINE#         104
  C:9721H         LINE#         106
  C:9726H         LINE#         107
  -------         ENDPROC       _RECIBE_PORT
  -------         PROC          _SEND_PORT
  X:0015H         SYMBOL        buffer_port
  X:0018H         SYMBOL        length_char
  -------         DO            
  X:0019H         SYMBOL        cont
  X:001DH         SYMBOL        timeOut
BL51 BANKED LINKER/LOCATER V6.22.2.0                                                  11/05/2020  12:20:06  PAGE 83


  X:001EH         SYMBOL        length
  -------         ENDDO         
  C:8E43H         LINE#         114
  C:8E51H         LINE#         115
  C:8E51H         LINE#         120
  C:8E55H         LINE#         122
  C:8E57H         LINE#         123
  C:8E59H         LINE#         124
  C:8E5BH         LINE#         125
  C:8E60H         LINE#         126
  C:8E62H         LINE#         127
  C:8E6CH         LINE#         129
  C:8E75H         LINE#         130
  C:8E75H         LINE#         131
  C:8E77H         LINE#         132
  C:8E79H         LINE#         133
  C:8E9DH         LINE#         134
  C:8EB1H         LINE#         135
  C:8EB1H         LINE#         136
  C:8EB4H         LINE#         137
  C:8EB6H         LINE#         138
  C:8EB6H         LINE#         139
  C:8EB8H         LINE#         140
  C:8EC1H         LINE#         141
  C:8EC1H         LINE#         145
  C:8EC1H         LINE#         147
  C:8ED1H         LINE#         148
  C:8ED4H         LINE#         149
  C:8EDEH         LINE#         151
  C:8EE4H         LINE#         152
  C:8EE7H         LINE#         154
  C:8EE7H         LINE#         156
  C:8EEAH         LINE#         157
  C:8EECH         LINE#         158
  C:8EEEH         LINE#         159
  C:8EF0H         LINE#         160
  -------         ENDPROC       _SEND_PORT
  -------         PROC          PULSO_BUS
  C:B5DCH         LINE#         435
  C:B5DCH         LINE#         436
  C:B5DCH         LINE#         437
  C:B5DEH         LINE#         438
  C:B5E5H         LINE#         439
  C:B5E7H         LINE#         440
  -------         ENDPROC       PULSO_BUS
  -------         PROC          _SEND_PORTERR
  X:002AH         SYMBOL        cod_err
  -------         DO            
  X:002BH         SYMBOL        timeOut
  X:002CH         SYMBOL        cont
  -------         ENDDO         
  C:9CC1H         LINE#         445
  C:9CC7H         LINE#         446
  C:9CC7H         LINE#         450
  C:9CC9H         LINE#         451
  C:9CCBH         LINE#         452
  C:9CCEH         LINE#         453
BL51 BANKED LINKER/LOCATER V6.22.2.0                                                  11/05/2020  12:20:06  PAGE 84


  C:9CD6H         LINE#         455
  C:9CD8H         LINE#         456
  C:9CDAH         LINE#         457
  C:9CE3H         LINE#         458
  C:9CE3H         LINE#         459
  C:9D05H         LINE#         460
  C:9D19H         LINE#         461
  C:9D19H         LINE#         462
  C:9D1EH         LINE#         463
  C:9D1EH         LINE#         464
  C:9D20H         LINE#         465
  C:9D29H         LINE#         466
  C:9D29H         LINE#         467
  C:9D2FH         LINE#         468
  C:9D32H         LINE#         469
  C:9D32H         LINE#         470
  C:9D34H         LINE#         471
  C:9D36H         LINE#         472
  C:9D38H         LINE#         474
  C:9D3BH         LINE#         476
  C:9D42H         LINE#         477
  -------         ENDPROC       _SEND_PORTERR
  -------         PROC          COND_INI_PTO
  C:B64DH         LINE#         483
  C:B64DH         LINE#         484
  C:B64DH         LINE#         486
  C:B64FH         LINE#         487
  C:B651H         LINE#         488
  C:B653H         LINE#         489
  C:B656H         LINE#         490
  -------         ENDPROC       COND_INI_PTO
  -------         PROC          LOAD_AND_SEND_INFO_RELOJ
  -------         DO            
  X:0002H         SYMBOL        buffer_info
  -------         ENDDO         
  C:B2D1H         LINE#         495
  C:B2D1H         LINE#         496
  C:B2D1H         LINE#         499
  C:B2D7H         LINE#         501
  C:B2DBH         LINE#         503
  C:B2E4H         LINE#         504
  C:B2EEH         LINE#         505
  C:B2F2H         LINE#         509
  -------         ENDPROC       LOAD_AND_SEND_INFO_RELOJ
  -------         PROC          LOAD_AND_SEND_ID_COD
  -------         DO            
  X:0002H         SYMBOL        buffer_info
  X:000DH         SYMBOL        buf
  X:0011H         SYMBOL        i
  X:0012H         SYMBOL        k
  X:0013H         SYMBOL        ID_CLIENTE
  X:0014H         SYMBOL        COD_PARK
  -------         ENDDO         
  C:6AF3H         LINE#         516
  C:6AF3H         LINE#         517
  C:6AF3H         LINE#         523
  C:6AF8H         LINE#         524
BL51 BANKED LINKER/LOCATER V6.22.2.0                                                  11/05/2020  12:20:06  PAGE 85


  C:6B04H         LINE#         525
  C:6B12H         LINE#         526
  C:6B18H         LINE#         527
  C:6B1CH         LINE#         528
  C:6B3BH         LINE#         529
  C:6B41H         LINE#         530
  C:6B41H         LINE#         531
  C:6B52H         LINE#         532
  C:6B52H         LINE#         533
  C:6B61H         LINE#         534
  C:6B67H         LINE#         535
  C:6B69H         LINE#         536
  C:6B81H         LINE#         538
  C:6B89H         LINE#         541
  C:6BA8H         LINE#         543
  C:6BADH         LINE#         544
  C:6BADH         LINE#         545
  C:6BBEH         LINE#         546
  C:6BBEH         LINE#         547
  C:6BCDH         LINE#         548
  C:6BD3H         LINE#         549
  C:6BEDH         LINE#         550
  C:6BF5H         LINE#         553
  C:6C06H         LINE#         554
  -------         ENDPROC       LOAD_AND_SEND_ID_COD
  -------         ENDMOD        PTO_PARALELO

  -------         MODULE        TIBBO
  C:0000H         SYMBOL        _ICE_DUMMY_
  C:ACD5H         PUBLIC        _Debug_HexDec
  C:AB35H         PUBLIC        _Debug_txt_Tibbo
  D:0080H         PUBLIC        P0
  D:0090H         PUBLIC        P1
  B:0090H.0       PUBLIC        txd2
  B:00A8H.7       PUBLIC        EA
  C:AAE2H         PUBLIC        _tx_aux
  B:0080H.0       PUBLIC        rx_ip
  C:B59BH         PUBLIC        Debug_Dividir_texto
  C:B6B1H         PUBLIC        cond_ini_tibbo
  C:B563H         PUBLIC        time_mbit
  C:9D49H         PUBLIC        rx_Data
  C:B4E2H         PUBLIC        time_bit
  C:B051H         PUBLIC        _Debug_pto_paralelo
  C:B240H         PUBLIC        _Debug_monitor
  C:A444H         PUBLIC        _DebugBufferMF
  C:ABBBH         PUBLIC        _Debug_chr_Tibbo
  C:B4DCH         SYMBOL        L?0066
  -------         PROC          L?0065
  -------         ENDPROC       L?0065
  C:B4DCH         SYMBOL        L?0066
  -------         PROC          TIME_BIT
  -------         DO            
  D:0007H         SYMBOL        j
  -------         ENDDO         
  C:B4E2H         LINE#         19
  C:B4E2H         LINE#         20
  C:B4E2H         LINE#         23
BL51 BANKED LINKER/LOCATER V6.22.2.0                                                  11/05/2020  12:20:06  PAGE 86


  C:B4EEH         LINE#         24
  C:B4EEH         LINE#         25
  C:B4EFH         LINE#         26
  C:B4F0H         LINE#         27
  C:B4F1H         LINE#         28
  C:B4F2H         LINE#         29
  C:B4F3H         LINE#         30
  C:B4F4H         LINE#         31
  C:B4F5H         LINE#         32
  C:B4F6H         LINE#         33
  C:B4F7H         LINE#         38
  C:B4FAH         LINE#         39
  -------         ENDPROC       TIME_BIT
  -------         PROC          TIME_MBIT
  -------         DO            
  D:0007H         SYMBOL        j
  -------         ENDDO         
  C:B563H         LINE#         42
  C:B563H         LINE#         43
  C:B563H         LINE#         45
  C:B56FH         LINE#         46
  C:B56FH         LINE#         47
  C:B570H         LINE#         48
  C:B571H         LINE#         49
  C:B572H         LINE#         50
  C:B573H         LINE#         51
  C:B574H         LINE#         52
  C:B575H         LINE#         53
  C:B576H         LINE#         54
  C:B579H         LINE#         56
  -------         ENDPROC       TIME_MBIT
  -------         PROC          L?0070
  -------         ENDPROC       L?0070
  -------         PROC          _TX_AUX
  D:0006H         SYMBOL        caracter
  -------         DO            
  D:0004H         SYMBOL        j
  D:0005H         SYMBOL        temporal
  D:0006H         SYMBOL        bitTX
  -------         ENDDO         
  C:AAE2H         LINE#         61
  C:AAE4H         LINE#         62
  C:AAE4H         LINE#         65
  C:AAE6H         LINE#         66
  C:AAE8H         LINE#         67
  C:AAEBH         LINE#         68
  C:AAECH         LINE#         69
  C:AAEDH         LINE#         70
  C:AAEFH         LINE#         71
  C:AAF3H         LINE#         72
  C:AAF5H         LINE#         73
  C:AAF5H         LINE#         74
  C:AAF7H         LINE#         75
  C:AAF9H         LINE#         77
  C:AAF9H         LINE#         78
  C:AAFBH         LINE#         79
  C:AAFBH         LINE#         80
BL51 BANKED LINKER/LOCATER V6.22.2.0                                                  11/05/2020  12:20:06  PAGE 87


  C:AAFEH         LINE#         81
  C:AB0AH         LINE#         82
  C:AB0AH         LINE#         83
  C:AB0EH         LINE#         84
  C:AB11H         LINE#         85
  C:AB13H         LINE#         86
  C:AB13H         LINE#         87
  C:AB15H         LINE#         88
  C:AB17H         LINE#         90
  C:AB17H         LINE#         91
  C:AB19H         LINE#         92
  C:AB19H         LINE#         93
  C:AB1CH         LINE#         94
  C:AB1FH         LINE#         95
  C:AB21H         LINE#         96
  C:AB24H         LINE#         97
  C:AB27H         LINE#         99
  C:AB29H         LINE#         100
  -------         ENDPROC       _TX_AUX
  -------         PROC          _DEBUG_HEXDEC
  D:0007H         SYMBOL        xfc
  -------         DO            
  X:0018H         SYMBOL        valor
  D:0006H         SYMBOL        centena
  D:0003H         SYMBOL        decena
  D:0002H         SYMBOL        unidad
  -------         ENDDO         
  C:ACD5H         LINE#         103
  C:ACD5H         LINE#         104
  C:ACD5H         LINE#         107
  C:ACDCH         LINE#         109
  C:ACDDH         LINE#         110
  C:ACDEH         LINE#         111
  C:ACDFH         LINE#         112
  C:ACE7H         LINE#         113
  C:ACE7H         LINE#         114
  C:ACF1H         LINE#         115
  C:ACF1H         LINE#         116
  C:ACF5H         LINE#         117
  C:ACF6H         LINE#         118
  C:ACF8H         LINE#         119
  C:AD02H         LINE#         120
  C:AD02H         LINE#         121
  C:AD06H         LINE#         122
  C:AD07H         LINE#         123
  C:AD09H         LINE#         124
  C:AD0BH         LINE#         125
  C:AD0FH         LINE#         126
  C:AD13H         LINE#         127
  C:AD1AH         LINE#         129
  C:AD1AH         LINE#         130
  -------         ENDPROC       _DEBUG_HEXDEC
  -------         PROC          _DEBUG_CHR_TIBBO
  D:0003H         SYMBOL        Dat
  -------         DO            
  D:0007H         SYMBOL        temp
  -------         ENDDO         
BL51 BANKED LINKER/LOCATER V6.22.2.0                                                  11/05/2020  12:20:06  PAGE 88


  C:ABBBH         LINE#         135
  C:ABBDH         LINE#         136
  C:ABBDH         LINE#         138
  C:ABC5H         LINE#         139
  C:ABC5H         LINE#         140
  C:ABCCH         LINE#         141
  C:ABDFH         LINE#         143
  C:ABE2H         LINE#         145
  C:ABE6H         LINE#         146
  C:ABF9H         LINE#         147
  C:ABFCH         LINE#         148
  C:AC01H         LINE#         150
  C:AC01H         LINE#         151
  -------         ENDPROC       _DEBUG_CHR_TIBBO
  -------         PROC          _DEBUGBUFFERMF
  X:0027H         SYMBOL        str
  X:002AH         SYMBOL        num_char
  X:002BH         SYMBOL        io
  -------         DO            
  X:002CH         SYMBOL        j
  -------         ENDDO         
  C:A444H         LINE#         158
  C:A452H         LINE#         159
  C:A452H         LINE#         163
  C:A45AH         LINE#         164
  C:A45AH         LINE#         165
  C:A469H         LINE#         166
  C:A469H         LINE#         167
  C:A46DH         LINE#         168
  C:A476H         LINE#         169
  C:A488H         LINE#         170
  C:A488H         LINE#         171
  C:A49AH         LINE#         172
  C:A4A4H         LINE#         173
  C:A4ACH         LINE#         174
  C:A4B1H         LINE#         175
  C:A4B6H         LINE#         176
  C:A4B6H         LINE#         178
  -------         ENDPROC       _DEBUGBUFFERMF
  C:AB2FH         SYMBOL        L?0068
  -------         PROC          L?0067
  -------         ENDPROC       L?0067
  C:AB2FH         SYMBOL        L?0068
  -------         PROC          _DEBUG_TXT_TIBBO
  X:0037H         SYMBOL        str
  -------         DO            
  X:003AH         SYMBOL        i
  -------         ENDDO         
  C:AB35H         LINE#         183
  C:AB40H         LINE#         184
  C:AB40H         LINE#         186
  C:AB43H         LINE#         188
  C:AB4BH         LINE#         189
  C:AB4BH         LINE#         190
  C:AB67H         LINE#         191
  C:AB67H         LINE#         192
  C:AB6AH         LINE#         193
BL51 BANKED LINKER/LOCATER V6.22.2.0                                                  11/05/2020  12:20:06  PAGE 89


  C:AB72H         LINE#         195
  C:AB72H         LINE#         196
  -------         ENDPROC       _DEBUG_TXT_TIBBO
  -------         PROC          L?0069
  -------         ENDPROC       L?0069
  -------         PROC          DEBUG_DIVIDIR_TEXTO
  C:B59BH         LINE#         198
  C:B59BH         LINE#         199
  C:B59BH         LINE#         200
  -------         ENDPROC       DEBUG_DIVIDIR_TEXTO
  -------         PROC          RX_DATA
  -------         DO            
  D:0006H         SYMBOL        temporal
  -------         ENDDO         
  C:9D49H         LINE#         206
  C:9D49H         LINE#         207
  C:9D49H         LINE#         210
  C:9D4BH         LINE#         211
  C:9D4EH         LINE#         213
  C:9D51H         LINE#         215
  C:9D5DH         LINE#         216
  C:9D5DH         LINE#         218
  C:9D60H         LINE#         220
  C:9D6CH         LINE#         221
  C:9D6CH         LINE#         223
  C:9D6FH         LINE#         225
  C:9D7BH         LINE#         226
  C:9D7BH         LINE#         228
  C:9D7EH         LINE#         230
  C:9D8AH         LINE#         231
  C:9D8AH         LINE#         233
  C:9D8DH         LINE#         235
  C:9D99H         LINE#         236
  C:9D99H         LINE#         238
  C:9D9CH         LINE#         240
  C:9DA8H         LINE#         241
  C:9DA8H         LINE#         243
  C:9DABH         LINE#         245
  C:9DB7H         LINE#         246
  C:9DB7H         LINE#         248
  C:9DBAH         LINE#         249
  C:9DC8H         LINE#         251
  C:9DCBH         LINE#         252
  C:9DCEH         LINE#         253
  C:9DCEH         LINE#         254
  C:9DCEH         LINE#         257
  C:9DD0H         LINE#         259
  -------         ENDPROC       RX_DATA
  -------         PROC          COND_INI_TIBBO
  C:B6B1H         LINE#         277
  C:B6B1H         LINE#         278
  C:B6B1H         LINE#         280
  C:B6B3H         LINE#         281
  C:B6B5H         LINE#         282
  -------         ENDPROC       COND_INI_TIBBO
  -------         PROC          _DEBUG_PTO_PARALELO
  X:0001H         SYMBOL        buffer
BL51 BANKED LINKER/LOCATER V6.22.2.0                                                  11/05/2020  12:20:06  PAGE 90


  X:0004H         SYMBOL        Length_trama
  C:B051H         LINE#         283
  C:B054H         LINE#         284
  C:B054H         LINE#         285
  C:B057H         LINE#         286
  C:B060H         LINE#         287
  C:B077H         LINE#         288
  C:B07AH         LINE#         289
  C:B083H         LINE#         290
  C:B086H         LINE#         291
  C:B089H         LINE#         292
  -------         ENDPROC       _DEBUG_PTO_PARALELO
  -------         PROC          _DEBUG_MONITOR
  X:0016H         SYMBOL        buffer
  X:0019H         SYMBOL        Length_trama
  C:B240H         LINE#         295
  C:B243H         LINE#         296
  C:B243H         LINE#         297
  C:B246H         LINE#         298
  C:B24FH         LINE#         299
  C:B25DH         LINE#         300
  C:B260H         LINE#         301
  C:B269H         LINE#         302
  C:B26CH         LINE#         303
  C:B26FH         LINE#         304
  -------         ENDPROC       _DEBUG_MONITOR
  -------         ENDMOD        TIBBO

  -------         MODULE        UART
  C:0000H         SYMBOL        _ICE_DUMMY_
  C:B3C6H         PUBLIC        com_getchar
  C:B5EEH         PUBLIC        com_rbuflen
  C:B600H         PUBLIC        com_tbuflen
  B:00A8H.4       PUBLIC        ES
  B:0098H.0       PUBLIC        RI
  C:B08CH         PUBLIC        _com_putchar
  B:0098H.1       PUBLIC        TI
  B:0021H.3       PUBLIC        aSk
  B:00B8H.4       PUBLIC        PS
  D:000DH         SYMBOL        r_in
  D:000EH         SYMBOL        r_out
  D:000FH         SYMBOL        t_in
  D:0010H         SYMBOL        t_out
  D:0099H         PUBLIC        SBUF
  D:0087H         PUBLIC        PCON
  D:0089H         PUBLIC        TMOD
  B:0021H.4       SYMBOL        ti_restart
  B:00A8H.3       PUBLIC        ET1
  D:008DH         PUBLIC        TH1
  B:0098H.7       PUBLIC        SM0
  B:0098H.6       PUBLIC        SM1
  D:008BH         PUBLIC        TL1
  B:0098H.5       PUBLIC        SM2
  B:0088H.6       PUBLIC        TR1
  C:B2FDH         PUBLIC        com_initialize
  X:0263H         PUBLIC        cnt__ask_off
  B:0098H.4       PUBLIC        REN
BL51 BANKED LINKER/LOCATER V6.22.2.0                                                  11/05/2020  12:20:06  PAGE 91


  C:B34FH         PUBLIC        com_baudrate
  C:555CH         SYMBOL        com_isr
  -------         PROC          COM_ISR
  -------         DO            
  X:0261H         SYMBOL        cDatoRx
  D:0006H         SYMBOL        k
  D:0007H         SYMBOL        bcc
  X:0262H         SYMBOL        num_datos
  -------         ENDDO         
  C:555CH         LINE#         96
  C:5571H         LINE#         104
  C:5577H         LINE#         105
  C:5577H         LINE#         107
  C:5579H         LINE#         108
  C:557FH         LINE#         109
  C:558FH         LINE#         110
  C:558FH         LINE#         111
  C:559AH         LINE#         112
  C:559CH         LINE#         114
  C:559CH         LINE#         115
  C:55ACH         LINE#         116
  C:55ACH         LINE#         117
  C:55B1H         LINE#         118
  C:55B1H         LINE#         119
  C:55C8H         LINE#         120
  C:55C8H         LINE#         124
  C:55C8H         LINE#         127
  C:55D7H         LINE#         128
  C:55D7H         LINE#         129
  C:55D9H         LINE#         130
  C:55E1H         LINE#         131
  C:55E6H         LINE#         133
  C:55E6H         LINE#         134
  C:55E9H         LINE#         138
  C:55E9H         LINE#         139
  C:55E9H         LINE#         140
  C:5601H         LINE#         141
  C:5610H         LINE#         142
  C:5610H         LINE#         143
  C:5610H         LINE#         144
  C:5612H         LINE#         146
  C:5612H         LINE#         147
  C:5614H         LINE#         148
  C:5614H         LINE#         149
  C:5614H         LINE#         150
  C:5617H         LINE#         154
  C:5617H         LINE#         156
  C:5620H         LINE#         157
  C:5620H         LINE#         159
  C:5626H         LINE#         160
  C:5639H         LINE#         161
  C:5639H         LINE#         162
  C:563CH         LINE#         164
  C:563CH         LINE#         165
  C:5651H         LINE#         166
  C:5657H         LINE#         167
  C:5657H         LINE#         169
BL51 BANKED LINKER/LOCATER V6.22.2.0                                                  11/05/2020  12:20:06  PAGE 92


  C:565AH         LINE#         173
  C:565AH         LINE#         175
  C:5672H         LINE#         176
  C:5678H         LINE#         177
  C:567BH         LINE#         178
  C:567BH         LINE#         179
  C:5693H         LINE#         180
  C:5693H         LINE#         181
  C:5694H         LINE#         182
  C:56A1H         LINE#         183
  C:56A1H         LINE#         184
  C:56AEH         LINE#         185
  C:56B1H         LINE#         186
  C:56BFH         LINE#         187
  C:56BFH         LINE#         188
  C:56C1H         LINE#         189
  C:56C6H         LINE#         190
  C:56C8H         LINE#         191
  C:56CCH         LINE#         193
  C:56CEH         LINE#         195
  C:56CEH         LINE#         196
  C:56CEH         LINE#         197
  C:56CEH         LINE#         198
  C:56D0H         LINE#         200
  C:56D0H         LINE#         201
  C:56D0H         LINE#         202
  C:56D0H         LINE#         204
  C:56D2H         LINE#         206
  C:56D2H         LINE#         207
  C:56D8H         LINE#         208
  C:56D8H         LINE#         210
  C:56DAH         LINE#         215
  C:56DAH         LINE#         216
  C:56DFH         LINE#         217
  C:56DFH         LINE#         218
  C:56DFH         LINE#         219
  C:56DFH         LINE#         224
  C:56E2H         LINE#         225
  C:56E2H         LINE#         226
  C:56E4H         LINE#         228
  C:56EAH         LINE#         229
  C:56EAH         LINE#         230
  C:56F4H         LINE#         232
  C:56F6H         LINE#         233
  C:56F8H         LINE#         234
  C:56FAH         LINE#         236
  C:56FAH         LINE#         237
  C:56FCH         LINE#         238
  C:56FCH         LINE#         239
  C:56FCH         LINE#         241
  -------         ENDPROC       COM_ISR
  -------         PROC          COM_INITIALIZE
  C:B2FDH         LINE#         257
  C:B304H         LINE#         258
  C:B304H         LINE#         262
  C:B307H         LINE#         267
  C:B30AH         LINE#         268
BL51 BANKED LINKER/LOCATER V6.22.2.0                                                  11/05/2020  12:20:06  PAGE 93


  C:B30CH         LINE#         270
  C:B30EH         LINE#         271
  C:B310H         LINE#         276
  C:B314H         LINE#         277
  C:B316H         LINE#         278
  C:B318H         LINE#         280
  C:B31AH         LINE#         281
  C:B31CH         LINE#         282
  C:B31EH         LINE#         284
  C:B320H         LINE#         285
  C:B322H         LINE#         286
  -------         ENDPROC       COM_INITIALIZE
  -------         PROC          COM_BAUDRATE
  C:B34FH         LINE#         292
  C:B356H         LINE#         294
  C:B356H         LINE#         298
  C:B358H         LINE#         299
  C:B35BH         LINE#         300
  C:B35DH         LINE#         305
  C:B35FH         LINE#         306
  C:B361H         LINE#         308
  C:B364H         LINE#         310
  C:B367H         LINE#         311
  C:B36AH         LINE#         313
  C:B36DH         LINE#         314
  C:B370H         LINE#         315
  C:B372H         LINE#         316
  -------         ENDPROC       COM_BAUDRATE
  -------         PROC          _COM_PUTCHAR
  X:00AAH         SYMBOL        c
  C:B08CH         LINE#         322
  C:B098H         LINE#         323
  C:B098H         LINE#         327
  C:B0A5H         LINE#         328
  C:B0A9H         LINE#         334
  C:B0B7H         LINE#         336
  C:B0B9H         LINE#         338
  C:B0BCH         LINE#         339
  C:B0BCH         LINE#         340
  C:B0BEH         LINE#         341
  C:B0C0H         LINE#         342
  C:B0C0H         LINE#         344
  C:B0C2H         LINE#         345
  -------         ENDPROC       _COM_PUTCHAR
  -------         PROC          COM_GETCHAR
  C:B3C6H         LINE#         351
  C:B3CDH         LINE#         352
  C:B3CDH         LINE#         353
  C:B3D3H         LINE#         354
  C:B3D9H         LINE#         356
  C:B3E7H         LINE#         357
  -------         ENDPROC       COM_GETCHAR
  -------         PROC          COM_RBUFLEN
  C:B5EEH         LINE#         363
  C:B5F5H         LINE#         364
  C:B5F5H         LINE#         365
  C:B5FBH         LINE#         366
BL51 BANKED LINKER/LOCATER V6.22.2.0                                                  11/05/2020  12:20:06  PAGE 94


  -------         ENDPROC       COM_RBUFLEN
  -------         PROC          COM_TBUFLEN
  C:B600H         LINE#         372
  C:B607H         LINE#         373
  C:B607H         LINE#         374
  C:B60DH         LINE#         375
  -------         ENDPROC       COM_TBUFLEN
  -------         ENDMOD        UART

  -------         MODULE        LINTECH
  C:0000H         SYMBOL        _ICE_DUMMY_
  C:92EDH         PUBLIC        _Inicializa
  C:87A0H         PUBLIC        _RD_MF
  C:90FAH         PUBLIC        Dwload_EEprom
  C:9850H         PUBLIC        _Card_Insercion
  C:7B4AH         PUBLIC        _Mov_Card
  C:7275H         PUBLIC        _WR_MF
  C:9B1FH         PUBLIC        LoadVerify_EEprom
  C:9DD1H         PUBLIC        Unique_Identifier_UID
  C:A160H         PUBLIC        Power_off
  C:A25CH         PUBLIC        _Check_Status
  C:9050H         PUBLIC        Clave_Seguridad_S2
  C:A0E0H         PUBLIC        Aut_Card_check_Status
  -------         PROC          _INICIALIZA
  X:0002H         SYMBOL        TipoMovimiento
  -------         DO            
  D:0003H         SYMBOL        j
  X:0003H         SYMBOL        bcc
  X:0004H         SYMBOL        g_scArrTxComSoft
  -------         ENDDO         
  C:92EDH         LINE#         66
  C:92F2H         LINE#         67
  C:92F2H         LINE#         70
  C:92F5H         LINE#         71
  C:930BH         LINE#         72
  C:930BH         LINE#         74
  C:9314H         LINE#         76
  C:931AH         LINE#         77
  C:931DH         LINE#         78
  C:931FH         LINE#         79
  C:9323H         LINE#         80
  C:9327H         LINE#         81
  C:932BH         LINE#         82
  C:9333H         LINE#         83
  C:9337H         LINE#         84
  C:9343H         LINE#         85
  C:9343H         LINE#         86
  C:9357H         LINE#         87
  C:935AH         LINE#         88
  C:9362H         LINE#         89
  C:9364H         LINE#         90
  C:9369H         LINE#         91
  C:9378H         LINE#         92
  C:9383H         LINE#         93
  C:9389H         LINE#         94
  C:9389H         LINE#         95
  -------         ENDPROC       _INICIALIZA
BL51 BANKED LINKER/LOCATER V6.22.2.0                                                  11/05/2020  12:20:06  PAGE 95


  -------         PROC          _CHECK_STATUS
  X:0002H         SYMBOL        Detalle
  -------         DO            
  D:0006H         SYMBOL        j
  D:0007H         SYMBOL        bcc
  X:0003H         SYMBOL        g_scArrTxComSoft
  -------         ENDDO         
  C:A25CH         LINE#         107
  C:A261H         LINE#         108
  C:A261H         LINE#         111
  C:A26AH         LINE#         113
  C:A26CH         LINE#         115
  C:A272H         LINE#         116
  C:A275H         LINE#         117
  C:A277H         LINE#         118
  C:A27BH         LINE#         119
  C:A27FH         LINE#         120
  C:A283H         LINE#         121
  C:A28BH         LINE#         122
  C:A28FH         LINE#         123
  C:A29BH         LINE#         124
  C:A29BH         LINE#         125
  C:A2A8H         LINE#         126
  C:A2ABH         LINE#         127
  C:A2B0H         LINE#         128
  C:A2B2H         LINE#         129
  C:A2B7H         LINE#         130
  C:A2C6H         LINE#         131
  C:A2D1H         LINE#         132
  C:A2D7H         LINE#         133
  -------         ENDPROC       _CHECK_STATUS
  -------         PROC          _CARD_INSERCION
  D:0007H         SYMBOL        Tipo
  -------         DO            
  D:0006H         SYMBOL        j
  D:0007H         SYMBOL        bcc
  X:0002H         SYMBOL        g_scArrTxComSoft
  -------         ENDDO         
  C:9850H         LINE#         143
  C:9850H         LINE#         144
  C:9850H         LINE#         147
  C:985DH         LINE#         148
  C:985DH         LINE#         149
  C:9864H         LINE#         150
  C:986AH         LINE#         151
  C:986CH         LINE#         153
  C:986CH         LINE#         155
  C:9873H         LINE#         156
  C:9879H         LINE#         158
  C:9879H         LINE#         160
  C:987BH         LINE#         162
  C:9881H         LINE#         163
  C:9884H         LINE#         164
  C:9886H         LINE#         165
  C:988AH         LINE#         166
  C:988EH         LINE#         167
  C:9892H         LINE#         169
BL51 BANKED LINKER/LOCATER V6.22.2.0                                                  11/05/2020  12:20:06  PAGE 96


  C:9898H         LINE#         170
  C:98A4H         LINE#         171
  C:98A4H         LINE#         172
  C:98B1H         LINE#         173
  C:98B4H         LINE#         175
  C:98B9H         LINE#         177
  C:98BBH         LINE#         178
  C:98C0H         LINE#         179
  C:98CFH         LINE#         180
  C:98DAH         LINE#         181
  C:98E0H         LINE#         182
  -------         ENDPROC       _CARD_INSERCION
  -------         PROC          _MOV_CARD
  X:0002H         SYMBOL        Posicion
  -------         DO            
  D:0003H         SYMBOL        j
  X:0003H         SYMBOL        bcc
  X:0004H         SYMBOL        g_scArrTxComSoft
  -------         ENDDO         
  C:7B4AH         LINE#         193
  C:7B4FH         LINE#         194
  C:7B4FH         LINE#         197
  C:7B52H         LINE#         199
  C:7B72H         LINE#         200
  C:7B72H         LINE#         201
  C:7B79H         LINE#         202
  C:7B79H         LINE#         203
  C:7B7FH         LINE#         204
  C:7B81H         LINE#         205
  C:7B88H         LINE#         206
  C:7B88H         LINE#         207
  C:7B8EH         LINE#         208
  C:7B90H         LINE#         209
  C:7B97H         LINE#         210
  C:7B97H         LINE#         211
  C:7B9DH         LINE#         212
  C:7B9FH         LINE#         213
  C:7BA6H         LINE#         214
  C:7BA6H         LINE#         215
  C:7BACH         LINE#         216
  C:7BAEH         LINE#         217
  C:7BB5H         LINE#         218
  C:7BB5H         LINE#         219
  C:7BBEH         LINE#         220
  C:7BBEH         LINE#         222
  C:7BC4H         LINE#         223
  C:7BC7H         LINE#         224
  C:7BC9H         LINE#         225
  C:7BCDH         LINE#         226
  C:7BD1H         LINE#         227
  C:7BD5H         LINE#         228
  C:7BDDH         LINE#         229
  C:7BE1H         LINE#         230
  C:7BEDH         LINE#         231
  C:7BEDH         LINE#         232
  C:7C01H         LINE#         233
  C:7C04H         LINE#         234
BL51 BANKED LINKER/LOCATER V6.22.2.0                                                  11/05/2020  12:20:06  PAGE 97


  C:7C0CH         LINE#         235
  C:7C0EH         LINE#         236
  C:7C13H         LINE#         237
  C:7C22H         LINE#         238
  C:7C2DH         LINE#         239
  C:7C33H         LINE#         240
  C:7C33H         LINE#         242
  -------         ENDPROC       _MOV_CARD
  -------         PROC          AUT_CARD_CHECK_STATUS
  -------         DO            
  D:0003H         SYMBOL        j
  X:0002H         SYMBOL        bcc
  X:0003H         SYMBOL        g_scArrTxComSoft
  -------         ENDDO         
  C:A0E0H         LINE#         248
  C:A0E0H         LINE#         249
  C:A0E0H         LINE#         252
  C:A0E5H         LINE#         254
  C:A0EEH         LINE#         256
  C:A0F4H         LINE#         257
  C:A0F7H         LINE#         258
  C:A0F9H         LINE#         259
  C:A0FDH         LINE#         260
  C:A101H         LINE#         261
  C:A105H         LINE#         262
  C:A109H         LINE#         263
  C:A10DH         LINE#         264
  C:A119H         LINE#         265
  C:A119H         LINE#         266
  C:A12DH         LINE#         267
  C:A130H         LINE#         268
  C:A138H         LINE#         269
  C:A13AH         LINE#         270
  C:A13FH         LINE#         271
  C:A14EH         LINE#         272
  C:A159H         LINE#         273
  C:A15FH         LINE#         274
  -------         ENDPROC       AUT_CARD_CHECK_STATUS
  -------         PROC          CLAVE_SEGURIDAD_S2
  -------         DO            
  D:0003H         SYMBOL        j
  X:0002H         SYMBOL        bcc
  X:0003H         SYMBOL        g_scArrTxComSoft
  -------         ENDDO         
  C:9050H         LINE#         277
  C:9050H         LINE#         278
  C:9050H         LINE#         281
  C:9055H         LINE#         282
  C:905EH         LINE#         285
  C:9064H         LINE#         286
  C:9067H         LINE#         287
  C:9069H         LINE#         288
  C:906DH         LINE#         289
  C:9071H         LINE#         290
  C:9075H         LINE#         291
  C:9079H         LINE#         292
  C:907CH         LINE#         293
BL51 BANKED LINKER/LOCATER V6.22.2.0                                                  11/05/2020  12:20:06  PAGE 98


  C:9080H         LINE#         294
  C:9083H         LINE#         295
  C:9087H         LINE#         297
  C:908BH         LINE#         299
  C:908FH         LINE#         300
  C:9093H         LINE#         301
  C:9097H         LINE#         302
  C:909BH         LINE#         303
  C:909FH         LINE#         304
  C:90A3H         LINE#         307
  C:90A7H         LINE#         309
  C:90B3H         LINE#         310
  C:90B3H         LINE#         311
  C:90C7H         LINE#         312
  C:90CAH         LINE#         313
  C:90D2H         LINE#         314
  C:90D4H         LINE#         315
  C:90D9H         LINE#         316
  C:90E8H         LINE#         317
  C:90F3H         LINE#         318
  C:90F9H         LINE#         321
  -------         ENDPROC       CLAVE_SEGURIDAD_S2
  -------         PROC          DWLOAD_EEPROM
  -------         DO            
  D:0003H         SYMBOL        j
  X:0002H         SYMBOL        bcc
  X:0003H         SYMBOL        g_scArrTxComSoft
  -------         ENDDO         
  C:90FAH         LINE#         326
  C:90FAH         LINE#         327
  C:90FAH         LINE#         330
  C:90FFH         LINE#         331
  C:9108H         LINE#         333
  C:910EH         LINE#         334
  C:9111H         LINE#         335
  C:9113H         LINE#         336
  C:9117H         LINE#         337
  C:911BH         LINE#         338
  C:911FH         LINE#         339
  C:9123H         LINE#         340
  C:9126H         LINE#         341
  C:912AH         LINE#         342
  C:912DH         LINE#         343
  C:9130H         LINE#         344
  C:9134H         LINE#         345
  C:9138H         LINE#         346
  C:913CH         LINE#         347
  C:9140H         LINE#         348
  C:9144H         LINE#         349
  C:9148H         LINE#         350
  C:914CH         LINE#         351
  C:9150H         LINE#         353
  C:915CH         LINE#         354
  C:915CH         LINE#         355
  C:9170H         LINE#         356
  C:9173H         LINE#         357
  C:917BH         LINE#         358
BL51 BANKED LINKER/LOCATER V6.22.2.0                                                  11/05/2020  12:20:06  PAGE 99


  C:917DH         LINE#         359
  C:9182H         LINE#         360
  C:9191H         LINE#         361
  C:919CH         LINE#         362
  C:91A2H         LINE#         363
  -------         ENDPROC       DWLOAD_EEPROM
  -------         PROC          LOADVERIFY_EEPROM
  -------         DO            
  D:0003H         SYMBOL        j
  X:0002H         SYMBOL        bcc
  X:0003H         SYMBOL        g_scArrTxComSoft
  -------         ENDDO         
  C:9B1FH         LINE#         369
  C:9B1FH         LINE#         370
  C:9B1FH         LINE#         373
  C:9B24H         LINE#         374
  C:9B2DH         LINE#         377
  C:9B33H         LINE#         378
  C:9B36H         LINE#         379
  C:9B38H         LINE#         380
  C:9B3CH         LINE#         381
  C:9B40H         LINE#         382
  C:9B44H         LINE#         383
  C:9B48H         LINE#         384
  C:9B4BH         LINE#         385
  C:9B4FH         LINE#         386
  C:9B52H         LINE#         387
  C:9B55H         LINE#         388
  C:9B59H         LINE#         393
  C:9B65H         LINE#         394
  C:9B65H         LINE#         395
  C:9B79H         LINE#         396
  C:9B7CH         LINE#         397
  C:9B84H         LINE#         398
  C:9B86H         LINE#         399
  C:9B8BH         LINE#         400
  C:9B9AH         LINE#         401
  C:9BA5H         LINE#         402
  C:9BABH         LINE#         404
  -------         ENDPROC       LOADVERIFY_EEPROM
  -------         PROC          _RD_MF
  X:0002H         SYMBOL        Sector
  X:0003H         SYMBOL        Bloque
  -------         DO            
  D:0003H         SYMBOL        j
  X:0004H         SYMBOL        bcc
  X:0005H         SYMBOL        g_scArrTxComSoft
  -------         ENDDO         
  C:87A0H         LINE#         410
  C:87A8H         LINE#         411
  C:87A8H         LINE#         415
  C:87ABH         LINE#         417
  C:87B4H         LINE#         418
  C:87BCH         LINE#         420
  C:87C5H         LINE#         421
  C:87CDH         LINE#         422
  C:87D6H         LINE#         425
BL51 BANKED LINKER/LOCATER V6.22.2.0                                                  11/05/2020  12:20:06  PAGE 100


  C:87DCH         LINE#         426
  C:87DFH         LINE#         427
  C:87E1H         LINE#         428
  C:87E5H         LINE#         429
  C:87E9H         LINE#         430
  C:87EDH         LINE#         431
  C:87F1H         LINE#         432
  C:87F4H         LINE#         433
  C:87F8H         LINE#         434
  C:8800H         LINE#         435
  C:8808H         LINE#         436
  C:880CH         LINE#         437
  C:8810H         LINE#         439
  C:881CH         LINE#         440
  C:881CH         LINE#         441
  C:8830H         LINE#         442
  C:8833H         LINE#         443
  C:883BH         LINE#         446
  C:883DH         LINE#         447
  C:8842H         LINE#         448
  C:8851H         LINE#         449
  C:885CH         LINE#         450
  C:8862H         LINE#         452
  -------         ENDPROC       _RD_MF
  -------         PROC          _WR_MF
  X:0002H         SYMBOL        Sector
  X:0003H         SYMBOL        Bloque
  X:0004H         SYMBOL        buffer
  -------         DO            
  D:0005H         SYMBOL        j
  X:0007H         SYMBOL        bcc
  X:0008H         SYMBOL        g_scArrTxComSoft
  -------         ENDDO         
  C:7275H         LINE#         459
  C:7286H         LINE#         461
  C:7286H         LINE#         464
  C:7289H         LINE#         466
  C:7292H         LINE#         467
  C:729AH         LINE#         469
  C:72A3H         LINE#         470
  C:72ABH         LINE#         471
  C:72B4H         LINE#         473
  C:72BAH         LINE#         474
  C:72BDH         LINE#         475
  C:72BFH         LINE#         476
  C:72C3H         LINE#         478
  C:72C7H         LINE#         479
  C:72CBH         LINE#         480
  C:72CFH         LINE#         481
  C:72D2H         LINE#         482
  C:72D6H         LINE#         483
  C:72DEH         LINE#         484
  C:72E6H         LINE#         485
  C:72EAH         LINE#         487
  C:72F6H         LINE#         488
  C:72F6H         LINE#         489
  C:7316H         LINE#         490
BL51 BANKED LINKER/LOCATER V6.22.2.0                                                  11/05/2020  12:20:06  PAGE 101


  C:7319H         LINE#         492
  C:731FH         LINE#         494
  C:732BH         LINE#         495
  C:732BH         LINE#         496
  C:7342H         LINE#         497
  C:7345H         LINE#         498
  C:734DH         LINE#         501
  C:734FH         LINE#         502
  C:7354H         LINE#         503
  C:7363H         LINE#         504
  C:736EH         LINE#         505
  C:7374H         LINE#         507
  -------         ENDPROC       _WR_MF
  -------         PROC          UNIQUE_IDENTIFIER_UID
  -------         DO            
  D:0003H         SYMBOL        j
  X:0002H         SYMBOL        bcc
  X:0003H         SYMBOL        g_scArrTxComSoft
  -------         ENDDO         
  C:9DD1H         LINE#         512
  C:9DD1H         LINE#         513
  C:9DD1H         LINE#         516
  C:9DD6H         LINE#         518
  C:9DDFH         LINE#         520
  C:9DE5H         LINE#         521
  C:9DE8H         LINE#         522
  C:9DEAH         LINE#         523
  C:9DEEH         LINE#         524
  C:9DF2H         LINE#         525
  C:9DF6H         LINE#         526
  C:9DFAH         LINE#         527
  C:9DFEH         LINE#         528
  C:9E02H         LINE#         529
  C:9E06H         LINE#         530
  C:9E12H         LINE#         531
  C:9E12H         LINE#         532
  C:9E26H         LINE#         533
  C:9E29H         LINE#         534
  C:9E31H         LINE#         535
  C:9E33H         LINE#         536
  C:9E38H         LINE#         537
  C:9E47H         LINE#         538
  C:9E52H         LINE#         539
  C:9E58H         LINE#         540
  -------         ENDPROC       UNIQUE_IDENTIFIER_UID
  -------         PROC          POWER_OFF
  -------         DO            
  D:0003H         SYMBOL        j
  X:0002H         SYMBOL        bcc
  X:0003H         SYMBOL        g_scArrTxComSoft
  -------         ENDDO         
  C:A160H         LINE#         541
  C:A160H         LINE#         542
  C:A160H         LINE#         545
  C:A165H         LINE#         547
  C:A16EH         LINE#         549
  C:A174H         LINE#         550
BL51 BANKED LINKER/LOCATER V6.22.2.0                                                  11/05/2020  12:20:06  PAGE 102


  C:A177H         LINE#         551
  C:A179H         LINE#         552
  C:A17DH         LINE#         553
  C:A181H         LINE#         554
  C:A185H         LINE#         555
  C:A189H         LINE#         556
  C:A18DH         LINE#         557
  C:A199H         LINE#         558
  C:A199H         LINE#         559
  C:A1ADH         LINE#         560
  C:A1B0H         LINE#         561
  C:A1B8H         LINE#         562
  C:A1BAH         LINE#         563
  C:A1BFH         LINE#         564
  C:A1CEH         LINE#         565
  C:A1D9H         LINE#         566
  C:A1DFH         LINE#         569
  -------         ENDPROC       POWER_OFF
  -------         ENDMOD        LINTECH

  -------         MODULE        VERIFICADOR
  C:0000H         SYMBOL        _ICE_DUMMY_
  D:0080H         PUBLIC        P0
  C:B3ECH         PUBLIC        Analiza_Presencia_Mensual
  C:A84CH         PUBLIC        Ingreso_Vehiculo
  D:0090H         PUBLIC        P1
  C:B377H         PUBLIC        _Armar_Trama_Tarjeta_Sector1_Bloque0
  D:00B0H         PUBLIC        P3
  C:58B8H         PUBLIC        _Valida_Tipo_Tarjeta
  C:AFB9H         PUBLIC        _Load_Secuencia_Expedidor
  C:6143H         PUBLIC        _Armar_Trama_Tarjeta_Sector1_Bloque2
  C:570FH         PUBLIC        _Armar_Trama_Pto_Paralelo_Expedidor
  C:86DCH         PUBLIC        _Tarjeta_Mensual
  C:B438H         PUBLIC        Analiza_Presencia_rotacion
  C:A668H         PUBLIC        _Disparo_Lock_Entrada_Vehiculo
  C:9727H         PUBLIC        _Valida_Vehiculo_Card_Mensual
  C:A8FDH         PUBLIC        _Armar_Trama_Placa
  C:83BAH         PUBLIC        _rta_cmd_transporte
  C:B660H         PUBLIC        Captura_Expulsa
  C:5EAAH         PUBLIC        _Armar_Trama_Monitor
  C:6502H         PUBLIC        Secuencia_inicio_expedidor
  C:7ED1H         PUBLIC        _Analiza_Uid_Card
  B:0080H.0       PUBLIC        rx_ip
  C:7172H         PUBLIC        _Bloque_Horario
  B:0090H.7       PUBLIC        lock
  C:9249H         PUBLIC        _Armar_Trama_Tarjeta_Sector1_Bloque1_Camcel
  C:94C1H         PUBLIC        _Responde_Lectura_Tarjeta_Sector1_Bloque0
  C:89E6H         PUBLIC        error_rx_pto
  C:537DH         PUBLIC        _Responde_Lectura_Tarjeta_Sector1_Bloque1
  C:6777H         PUBLIC        _Responde_Lectura_Tarjeta_Sector1_Bloque2
  C:938AH         PUBLIC        _Respuesta_Placa_Cancel
  B:0090H.1       PUBLIC        DataIn
  C:9EDDH         PUBLIC        _Send_Pto_Paralelo
  C:B20DH         PUBLIC        Trama_Validacion_P_N
  B:0021H.6       PUBLIC        MenSual
  C:807EH         PUBLIC        _Armar_Trama_Pto_Paralelo_Expedidor_Mensual
  B:0080H.3       PUBLIC        Rele_Atasco
BL51 BANKED LINKER/LOCATER V6.22.2.0                                                  11/05/2020  12:20:06  PAGE 103


  C:6F57H         PUBLIC        _Horarios
  C:8FA4H         PUBLIC        _Hora_Maxima
  C:381BH         PUBLIC        _SecuenciaExpedidorMF
  C:A730H         PUBLIC        _Pregunta_Lpr
  C:8D8EH         PUBLIC        _Wait_Placa
  C:A2D8H         PUBLIC        Responde_Estado_Sensores_Transporte
  C:A354H         PUBLIC        Entrega_Card_Captura
  C:A7EFH         PUBLIC        _Respuesta_Segunda_clave
  X:0140H         SYMBOL        Estado
  C:B16FH         PUBLIC        _Responde_Write_Tarjeta_Sector1_Bloque0
  C:B139H         PUBLIC        _Responde_Write_Tarjeta_Sector1_Bloque1
  C:AC02H         PUBLIC        _Responde_Write_Tarjeta_Sector2_Bloque0
  C:9A90H         PUBLIC        _Responde_Write_Tarjeta_Sector1_Bloque2
  C:A4B7H         PUBLIC        _En_Horario
  C:A3CDH         PUBLIC        Responde_Tipo_Tarjeta
  C:B272H         PUBLIC        _Tarjeta_Rotacion
  -------         PROC          CAPTURA_EXPULSA
  -------         DO            
  D:0007H         SYMBOL        Estado_expedidor
  -------         ENDDO         
  C:B660H         LINE#         526
  C:B660H         LINE#         527
  C:B660H         LINE#         531
  C:B663H         LINE#         532
  C:B663H         LINE#         533
  C:B665H         LINE#         534
  C:B666H         LINE#         536
  C:B666H         LINE#         538
  C:B668H         LINE#         539
  C:B668H         LINE#         542
  C:B668H         LINE#         543
  -------         ENDPROC       CAPTURA_EXPULSA
  -------         PROC          TRAMA_VALIDACION_P_N
  -------         DO            
  D:0007H         SYMBOL        Trama_Validacion_P_N
  -------         ENDDO         
  C:B20DH         LINE#         554
  C:B20DH         LINE#         555
  C:B20DH         LINE#         556
  C:B20FH         LINE#         558
  C:B21AH         LINE#         559
  C:B21AH         LINE#         560
  C:B21DH         LINE#         561
  C:B21DH         LINE#         562
  C:B21FH         LINE#         565
  C:B227H         LINE#         566
  C:B227H         LINE#         568
  C:B229H         LINE#         570
  C:B22AH         LINE#         571
  C:B22EH         LINE#         572
  C:B22EH         LINE#         574
  C:B230H         LINE#         576
  C:B231H         LINE#         578
  C:B231H         LINE#         579
  C:B23AH         LINE#         580
  C:B23CH         LINE#         582
  C:B23CH         LINE#         583
BL51 BANKED LINKER/LOCATER V6.22.2.0                                                  11/05/2020  12:20:06  PAGE 104


  C:B23DH         LINE#         585
  C:B23DH         LINE#         587
  C:B23FH         LINE#         589
  C:B23FH         LINE#         591
  C:B23FH         LINE#         593
  C:B23FH         LINE#         594
  -------         ENDPROC       TRAMA_VALIDACION_P_N
  -------         PROC          ERROR_RX_PTO
  -------         DO            
  X:00B7H         SYMBOL        cnt_espera_ask_on
  X:0007H         SYMBOL        error_rx_pto
  -------         ENDDO         
  C:89E6H         LINE#         618
  C:89E6H         LINE#         619
  C:89E6H         LINE#         622
  C:89ECH         LINE#         626
  C:89F5H         LINE#         627
  C:89FDH         LINE#         628
  C:8A06H         LINE#         629
  C:8A0EH         LINE#         630
  C:8A17H         LINE#         631
  C:8A1AH         LINE#         633
  C:8A1AH         LINE#         634
  C:8A20H         LINE#         635
  C:8A2AH         LINE#         636
  C:8A2AH         LINE#         637
  C:8A33H         LINE#         638
  C:8A35H         LINE#         639
  C:8A3CH         LINE#         640
  C:8A41H         LINE#         641
  C:8A47H         LINE#         642
  C:8A4CH         LINE#         643
  C:8A4EH         LINE#         644
  C:8A55H         LINE#         645
  C:8A5BH         LINE#         646
  C:8A5BH         LINE#         648
  C:8A5BH         LINE#         649
  C:8A60H         LINE#         650
  C:8A60H         LINE#         651
  C:8A60H         LINE#         652
  C:8A62H         LINE#         654
  C:8A62H         LINE#         655
  C:8A70H         LINE#         656
  C:8A83H         LINE#         657
  C:8A83H         LINE#         658
  C:8A84H         LINE#         660
  C:8A8AH         LINE#         661
  C:8A8EH         LINE#         662
  C:8A90H         LINE#         663
  C:8A90H         LINE#         664
  C:8A92H         LINE#         666
  C:8A92H         LINE#         667
  C:8A93H         LINE#         668
  C:8A98H         LINE#         669
  C:8A9EH         LINE#         670
  C:8A9EH         LINE#         671
  C:8A9EH         LINE#         672
BL51 BANKED LINKER/LOCATER V6.22.2.0                                                  11/05/2020  12:20:06  PAGE 105


  C:8AA3H         LINE#         673
  -------         ENDPROC       ERROR_RX_PTO
  -------         PROC          _RTA_CMD_TRANSPORTE
  X:0002H         SYMBOL        secuencia_Expedidor
  -------         DO            
  X:0005H         SYMBOL        temp
  X:0006H         SYMBOL        EstadoComSeqMF
  -------         ENDDO         
  C:83BAH         LINE#         689
  C:83C5H         LINE#         690
  C:83C5H         LINE#         696
  C:83D2H         LINE#         697
  C:83D2H         LINE#         698
  C:83DAH         LINE#         699
  C:83DAH         LINE#         700
  C:83E8H         LINE#         701
  C:83EBH         LINE#         702
  C:83F1H         LINE#         703
  C:83F1H         LINE#         704
  C:83FAH         LINE#         705
  C:840EH         LINE#         706
  C:841FH         LINE#         708
  C:8421H         LINE#         710
  C:8421H         LINE#         713
  C:8439H         LINE#         714
  C:8439H         LINE#         715
  C:8444H         LINE#         716
  C:8446H         LINE#         718
  C:8446H         LINE#         719
  C:8454H         LINE#         720
  C:8454H         LINE#         721
  C:8454H         LINE#         722
  C:8456H         LINE#         724
  C:8456H         LINE#         726
  C:846AH         LINE#         727
  C:847FH         LINE#         728
  C:847FH         LINE#         729
  C:8484H         LINE#         730
  -------         ENDPROC       _RTA_CMD_TRANSPORTE
  -------         PROC          ANALIZA_PRESENCIA_MENSUAL
  -------         DO            
  X:0002H         SYMBOL        Estado_expedidor
  -------         ENDDO         
  C:B3ECH         LINE#         734
  C:B3ECH         LINE#         735
  C:B3ECH         LINE#         737
  C:B3F2H         LINE#         738
  C:B3F2H         LINE#         739
  C:B3F4H         LINE#         740
  C:B3FAH         LINE#         741
  C:B3FCH         LINE#         743
  C:B3FCH         LINE#         745
  C:B401H         LINE#         746
  C:B406H         LINE#         747
  C:B40CH         LINE#         749
  C:B40CH         LINE#         750
  C:B411H         LINE#         751
BL51 BANKED LINKER/LOCATER V6.22.2.0                                                  11/05/2020  12:20:06  PAGE 106


  -------         ENDPROC       ANALIZA_PRESENCIA_MENSUAL
  -------         PROC          ANALIZA_PRESENCIA_ROTACION
  -------         DO            
  X:0002H         SYMBOL        Estado_expedidor
  -------         ENDDO         
  C:B438H         LINE#         752
  C:B438H         LINE#         753
  C:B438H         LINE#         755
  C:B43EH         LINE#         756
  C:B43EH         LINE#         758
  C:B444H         LINE#         759
  C:B446H         LINE#         761
  C:B446H         LINE#         763
  C:B44BH         LINE#         764
  C:B450H         LINE#         765
  C:B455H         LINE#         767
  C:B455H         LINE#         768
  C:B45AH         LINE#         769
  -------         ENDPROC       ANALIZA_PRESENCIA_ROTACION
  -------         PROC          _ANALIZA_UID_CARD
  X:0002H         SYMBOL        Atributos_Expedidor
  -------         DO            
  X:0005H         SYMBOL        Estado_expedidor
  D:0007H         SYMBOL        temp
  X:0006H         SYMBOL        buffer_UID
  -------         ENDDO         
  C:7ED1H         LINE#         773
  C:7EDCH         LINE#         774
  C:7EDCH         LINE#         778
  C:7EECH         LINE#         779
  C:7EECH         LINE#         781
  C:7EF8H         LINE#         782
  C:7EF8H         LINE#         783
  C:7F10H         LINE#         785
  C:7F13H         LINE#         787
  C:7F1CH         LINE#         788
  C:7F2DH         LINE#         791
  C:7F36H         LINE#         792
  C:7F3EH         LINE#         793
  C:7F46H         LINE#         794
  C:7F4EH         LINE#         795
  C:7F56H         LINE#         796
  C:7F5FH         LINE#         798
  C:7F76H         LINE#         799
  C:7F80H         LINE#         800
  C:7F8AH         LINE#         801
  C:7F94H         LINE#         802
  C:7F9AH         LINE#         803
  C:7F9CH         LINE#         805
  C:7F9CH         LINE#         806
  C:7FA2H         LINE#         807
  C:7FA2H         LINE#         808
  C:7FA7H         LINE#         809
  -------         ENDPROC       _ANALIZA_UID_CARD
  -------         PROC          INGRESO_VEHICULO
  -------         DO            
  D:0007H         SYMBOL        CardAutomatic
BL51 BANKED LINKER/LOCATER V6.22.2.0                                                  11/05/2020  12:20:06  PAGE 107


  X:00B9H         SYMBOL        pulseboton
  -------         ENDDO         
  C:A84CH         LINE#         813
  C:A84CH         LINE#         814
  C:A84CH         LINE#         818
  C:A852H         LINE#         819
  C:A852H         LINE#         820
  C:A85BH         LINE#         822
  C:A860H         LINE#         823
  C:A860H         LINE#         824
  C:A869H         LINE#         826
  C:A869H         LINE#         827
  C:A86BH         LINE#         829
  C:A86BH         LINE#         830
  C:A871H         LINE#         831
  C:A876H         LINE#         832
  C:A878H         LINE#         834
  C:A878H         LINE#         835
  C:A87EH         LINE#         838
  C:A87EH         LINE#         839
  C:A881H         LINE#         840
  C:A884H         LINE#         841
  C:A884H         LINE#         842
  C:A88DH         LINE#         843
  C:A892H         LINE#         844
  C:A898H         LINE#         845
  C:A89AH         LINE#         854
  C:A89AH         LINE#         856
  C:A89FH         LINE#         857
  C:A89FH         LINE#         858
  C:A8A4H         LINE#         859
  -------         ENDPROC       INGRESO_VEHICULO
  -------         PROC          RESPONDE_ESTADO_SENSORES_TRANSPORTE
  -------         DO            
  X:0002H         SYMBOL        Estado_expedidor
  -------         ENDDO         
  C:A2D8H         LINE#         866
  C:A2D8H         LINE#         867
  C:A2D8H         LINE#         870
  C:A2E1H         LINE#         872
  C:A2E9H         LINE#         873
  C:A2E9H         LINE#         875
  C:A2F4H         LINE#         876
  C:A2F4H         LINE#         877
  C:A2F8H         LINE#         878
  C:A2F8H         LINE#         879
  C:A301H         LINE#         880
  C:A306H         LINE#         882
  C:A306H         LINE#         883
  C:A308H         LINE#         885
  C:A308H         LINE#         887
  C:A310H         LINE#         889
  C:A310H         LINE#         890
  C:A312H         LINE#         892
  C:A312H         LINE#         894
  C:A31BH         LINE#         896
  C:A320H         LINE#         899
BL51 BANKED LINKER/LOCATER V6.22.2.0                                                  11/05/2020  12:20:06  PAGE 108


  C:A320H         LINE#         900
  C:A320H         LINE#         901
  C:A322H         LINE#         902
  C:A329H         LINE#         903
  C:A329H         LINE#         905
  C:A32FH         LINE#         907
  C:A32FH         LINE#         908
  C:A331H         LINE#         909
  C:A338H         LINE#         911
  C:A338H         LINE#         912
  C:A341H         LINE#         913
  C:A347H         LINE#         914
  C:A349H         LINE#         916
  C:A349H         LINE#         917
  C:A34EH         LINE#         918
  C:A34EH         LINE#         919
  C:A353H         LINE#         920
  -------         ENDPROC       RESPONDE_ESTADO_SENSORES_TRANSPORTE
  -------         PROC          RESPONDE_TIPO_TARJETA
  -------         DO            
  X:0002H         SYMBOL        Estado_expedidor
  -------         ENDDO         
  C:A3CDH         LINE#         936
  C:A3CDH         LINE#         937
  C:A3CDH         LINE#         940
  C:A3D6H         LINE#         942
  C:A3DEH         LINE#         943
  C:A3DEH         LINE#         944
  C:A3E9H         LINE#         945
  C:A3E9H         LINE#         946
  C:A3F2H         LINE#         947
  C:A3F8H         LINE#         948
  C:A3F8H         LINE#         949
  C:A3FBH         LINE#         950
  C:A3FDH         LINE#         952
  C:A3FDH         LINE#         953
  C:A400H         LINE#         954
  C:A400H         LINE#         955
  C:A402H         LINE#         957
  C:A402H         LINE#         958
  C:A409H         LINE#         959
  C:A409H         LINE#         961
  C:A40FH         LINE#         963
  C:A40FH         LINE#         964
  C:A40FH         LINE#         966
  C:A40FH         LINE#         968
  C:A411H         LINE#         970
  C:A411H         LINE#         971
  C:A411H         LINE#         972
  C:A411H         LINE#         973
  C:A411H         LINE#         974
  C:A411H         LINE#         975
  C:A413H         LINE#         977
  C:A413H         LINE#         978
  C:A41AH         LINE#         979
  C:A41AH         LINE#         982
  C:A423H         LINE#         984
BL51 BANKED LINKER/LOCATER V6.22.2.0                                                  11/05/2020  12:20:06  PAGE 109


  C:A428H         LINE#         985
  C:A42DH         LINE#         987
  C:A435H         LINE#         990
  C:A437H         LINE#         992
  C:A437H         LINE#         993
  C:A439H         LINE#         994
  C:A43EH         LINE#         995
  C:A43EH         LINE#         996
  C:A43EH         LINE#         998
  C:A443H         LINE#         999
  -------         ENDPROC       RESPONDE_TIPO_TARJETA
  -------         PROC          _RESPONDE_LECTURA_TARJETA_SECTOR1_BLOQUE1
  X:0002H         SYMBOL        Atributos_Expedidor
  -------         DO            
  D:0007H         SYMBOL        temp
  X:0005H         SYMBOL        Estado_expedidor
  X:0006H         SYMBOL        buffer_S1_B1
  X:0017H         SYMBOL        ID_CLIENTE
  D:0007H         SYMBOL        COD_PARK
  X:00BAH         SYMBOL        falla
  -------         ENDDO         
  C:537DH         LINE#         1011
  C:5388H         LINE#         1012
  C:5388H         LINE#         1019
  C:5391H         LINE#         1023
  C:53A1H         LINE#         1024
  C:53A1H         LINE#         1026
  C:53ADH         LINE#         1027
  C:53ADH         LINE#         1028
  C:53C5H         LINE#         1030
  C:53C8H         LINE#         1033
  C:53D1H         LINE#         1034
  C:53E2H         LINE#         1035
  C:53EFH         LINE#         1036
  C:53F8H         LINE#         1039
  C:5417H         LINE#         1040
  C:5417H         LINE#         1042
  C:5420H         LINE#         1043
  C:5428H         LINE#         1044
  C:5431H         LINE#         1046
  C:543AH         LINE#         1047
  C:5442H         LINE#         1048
  C:544BH         LINE#         1050
  C:5454H         LINE#         1051
  C:545CH         LINE#         1052
  C:5465H         LINE#         1054
  C:546EH         LINE#         1055
  C:5476H         LINE#         1056
  C:547FH         LINE#         1058
  C:5488H         LINE#         1059
  C:5490H         LINE#         1060
  C:5499H         LINE#         1062
  C:54B0H         LINE#         1064
  C:54BAH         LINE#         1065
  C:54C4H         LINE#         1066
  C:54CEH         LINE#         1068
  C:54D3H         LINE#         1069
BL51 BANKED LINKER/LOCATER V6.22.2.0                                                  11/05/2020  12:20:06  PAGE 110


  C:54E6H         LINE#         1070
  C:54EBH         LINE#         1071
  C:54F1H         LINE#         1073
  C:54F3H         LINE#         1075
  C:54F3H         LINE#         1076
  C:54F8H         LINE#         1077
  C:5501H         LINE#         1078
  C:5506H         LINE#         1079
  C:5508H         LINE#         1080
  C:5508H         LINE#         1081
  C:5508H         LINE#         1082
  C:550AH         LINE#         1084
  C:550AH         LINE#         1086
  C:5512H         LINE#         1087
  C:5512H         LINE#         1088
  C:5518H         LINE#         1089
  C:5518H         LINE#         1090
  C:5525H         LINE#         1092
  C:5525H         LINE#         1093
  C:552EH         LINE#         1094
  C:5534H         LINE#         1096
  C:5536H         LINE#         1098
  C:5536H         LINE#         1099
  C:553BH         LINE#         1100
  C:5544H         LINE#         1101
  C:5549H         LINE#         1102
  C:554EH         LINE#         1103
  C:5556H         LINE#         1104
  C:5556H         LINE#         1105
  C:5556H         LINE#         1107
  C:555BH         LINE#         1108
  -------         ENDPROC       _RESPONDE_LECTURA_TARJETA_SECTOR1_BLOQUE1
  -------         PROC          _RESPONDE_LECTURA_TARJETA_SECTOR1_BLOQUE2
  X:0002H         SYMBOL        Atributos_Expedidor
  -------         DO            
  D:0007H         SYMBOL        temp
  X:0005H         SYMBOL        Estado_expedidor
  X:0006H         SYMBOL        buffer_S1_B2
  -------         ENDDO         
  C:6777H         LINE#         1113
  C:6782H         LINE#         1114
  C:6782H         LINE#         1120
  C:678BH         LINE#         1124
  C:679BH         LINE#         1125
  C:679BH         LINE#         1127
  C:67A7H         LINE#         1128
  C:67A7H         LINE#         1129
  C:67BFH         LINE#         1130
  C:67C2H         LINE#         1131
  C:67CBH         LINE#         1132
  C:67DCH         LINE#         1136
  C:67E5H         LINE#         1137
  C:67F2H         LINE#         1138
  C:680EH         LINE#         1139
  C:6817H         LINE#         1141
  C:6820H         LINE#         1143
  C:683CH         LINE#         1144
BL51 BANKED LINKER/LOCATER V6.22.2.0                                                  11/05/2020  12:20:06  PAGE 111


  C:6846H         LINE#         1145
  C:684FH         LINE#         1148
  C:6858H         LINE#         1149
  C:6860H         LINE#         1150
  C:6869H         LINE#         1154
  C:6880H         LINE#         1157
  C:688CH         LINE#         1158
  C:6892H         LINE#         1161
  C:6894H         LINE#         1163
  C:6894H         LINE#         1164
  C:689CH         LINE#         1165
  C:689CH         LINE#         1166
  C:68A1H         LINE#         1167
  -------         ENDPROC       _RESPONDE_LECTURA_TARJETA_SECTOR1_BLOQUE2
  -------         PROC          _RESPONDE_LECTURA_TARJETA_SECTOR1_BLOQUE0
  X:0002H         SYMBOL        Nombre_Mensual
  -------         DO            
  D:0007H         SYMBOL        temp
  X:0005H         SYMBOL        Estado_expedidor
  -------         ENDDO         
  C:94C1H         LINE#         1169
  C:94CCH         LINE#         1170
  C:94CCH         LINE#         1176
  C:94D5H         LINE#         1180
  C:94E2H         LINE#         1181
  C:94E2H         LINE#         1183
  C:94EEH         LINE#         1184
  C:94EEH         LINE#         1185
  C:950EH         LINE#         1186
  C:9511H         LINE#         1187
  C:9525H         LINE#         1188
  C:952EH         LINE#         1189
  C:953CH         LINE#         1190
  C:9545H         LINE#         1191
  C:954BH         LINE#         1194
  C:954DH         LINE#         1196
  C:954DH         LINE#         1197
  C:9555H         LINE#         1198
  C:9555H         LINE#         1199
  C:955AH         LINE#         1200
  -------         ENDPROC       _RESPONDE_LECTURA_TARJETA_SECTOR1_BLOQUE0
  -------         PROC          _RESPONDE_WRITE_TARJETA_SECTOR1_BLOQUE1
  X:0002H         SYMBOL        Buffer_Write_MF
  -------         DO            
  D:0007H         SYMBOL        Estado_expedidor
  -------         ENDDO         
  C:B139H         LINE#         1201
  C:B144H         LINE#         1202
  C:B144H         LINE#         1204
  C:B14DH         LINE#         1205
  C:B156H         LINE#         1206
  C:B16CH         LINE#         1207
  C:B16EH         LINE#         1208
  C:B16EH         LINE#         1209
  -------         ENDPROC       _RESPONDE_WRITE_TARJETA_SECTOR1_BLOQUE1
  -------         PROC          _RESPONDE_WRITE_TARJETA_SECTOR1_BLOQUE2
  X:0002H         SYMBOL        Atributos_Expedidor
BL51 BANKED LINKER/LOCATER V6.22.2.0                                                  11/05/2020  12:20:06  PAGE 112


  X:0005H         SYMBOL        Buffer_Write_MF
  -------         DO            
  X:0008H         SYMBOL        Estado_expedidor
  -------         ENDDO         
  C:9A90H         LINE#         1210
  C:9A9BH         LINE#         1211
  C:9A9BH         LINE#         1213
  C:9AA4H         LINE#         1214
  C:9AADH         LINE#         1215
  C:9AC3H         LINE#         1216
  C:9AD3H         LINE#         1217
  C:9AD3H         LINE#         1218
  C:9AD6H         LINE#         1219
  C:9AE8H         LINE#         1220
  C:9AF6H         LINE#         1221
  C:9AFCH         LINE#         1222
  C:9AFEH         LINE#         1224
  C:9AFEH         LINE#         1225
  C:9B01H         LINE#         1226
  C:9B13H         LINE#         1227
  C:9B19H         LINE#         1229
  C:9B19H         LINE#         1230
  C:9B1EH         LINE#         1231
  -------         ENDPROC       _RESPONDE_WRITE_TARJETA_SECTOR1_BLOQUE2
  -------         PROC          _RESPONDE_WRITE_TARJETA_SECTOR1_BLOQUE0
  X:0002H         SYMBOL        Buffer_Write_MF
  C:B16FH         LINE#         1234
  C:B17AH         LINE#         1235
  C:B17AH         LINE#         1237
  C:B183H         LINE#         1238
  C:B18CH         LINE#         1239
  C:B1A2H         LINE#         1241
  C:B1A4H         LINE#         1242
  -------         ENDPROC       _RESPONDE_WRITE_TARJETA_SECTOR1_BLOQUE0
  -------         PROC          _PREGUNTA_LPR
  X:0002H         SYMBOL        Atributos_Expedidor
  -------         DO            
  X:0005H         SYMBOL        Estado_expedidor
  -------         ENDDO         
  C:A730H         LINE#         1245
  C:A73BH         LINE#         1246
  C:A73BH         LINE#         1248
  C:A749H         LINE#         1249
  C:A749H         LINE#         1251
  C:A75AH         LINE#         1252
  C:A766H         LINE#         1253
  C:A766H         LINE#         1254
  C:A76AH         LINE#         1255
  C:A76AH         LINE#         1256
  C:A76AH         LINE#         1258
  C:A779H         LINE#         1259
  C:A779H         LINE#         1261
  C:A77CH         LINE#         1262
  C:A781H         LINE#         1263
  C:A786H         LINE#         1264
  C:A788H         LINE#         1266
  C:A788H         LINE#         1267
BL51 BANKED LINKER/LOCATER V6.22.2.0                                                  11/05/2020  12:20:06  PAGE 113


  C:A78BH         LINE#         1268
  C:A78BH         LINE#         1269
  C:A790H         LINE#         1270
  -------         ENDPROC       _PREGUNTA_LPR
  -------         PROC          _RESPONDE_WRITE_TARJETA_SECTOR2_BLOQUE0
  X:0002H         SYMBOL        Buffer_Write_MF
  C:AC02H         LINE#         1273
  C:AC0DH         LINE#         1274
  C:AC0DH         LINE#         1276
  C:AC16H         LINE#         1277
  C:AC1FH         LINE#         1278
  C:AC28H         LINE#         1279
  C:AC31H         LINE#         1280
  C:AC46H         LINE#         1281
  C:AC48H         LINE#         1282
  -------         ENDPROC       _RESPONDE_WRITE_TARJETA_SECTOR2_BLOQUE0
  -------         PROC          _RESPUESTA_SEGUNDA_CLAVE
  X:0002H         SYMBOL        Atributos_Expedidor
  X:0005H         SYMBOL        Buffer_Write_MF
  C:A7EFH         LINE#         1283
  C:A7FAH         LINE#         1284
  C:A7FAH         LINE#         1286
  C:A803H         LINE#         1287
  C:A819H         LINE#         1290
  C:A829H         LINE#         1291
  C:A83BH         LINE#         1292
  C:A849H         LINE#         1294
  C:A84BH         LINE#         1295
  -------         ENDPROC       _RESPUESTA_SEGUNDA_CLAVE
  -------         PROC          _RESPUESTA_PLACA_CANCEL
  X:0009H         SYMBOL        Atributos_Expedidor
  X:000CH         SYMBOL        Buffer_Write_MF
  -------         DO            
  X:000FH         SYMBOL        Estado_expedidor
  X:0010H         SYMBOL        Cancel
  -------         ENDDO         
  C:938AH         LINE#         1296
  C:9395H         LINE#         1297
  C:9395H         LINE#         1299
  C:93A3H         LINE#         1300
  C:93ACH         LINE#         1301
  C:93B5H         LINE#         1302
  C:93BEH         LINE#         1304
  C:93D9H         LINE#         1305
  C:93D9H         LINE#         1306
  C:93E9H         LINE#         1307
  C:93FCH         LINE#         1308
  C:940AH         LINE#         1309
  C:9410H         LINE#         1310
  C:9412H         LINE#         1312
  C:9412H         LINE#         1313
  C:9418H         LINE#         1314
  C:9418H         LINE#         1315
  C:941BH         LINE#         1316
  C:941DH         LINE#         1318
  C:941DH         LINE#         1319
  C:9420H         LINE#         1320
BL51 BANKED LINKER/LOCATER V6.22.2.0                                                  11/05/2020  12:20:06  PAGE 114


  C:9420H         LINE#         1321
  C:9420H         LINE#         1322
  C:9425H         LINE#         1323
  -------         ENDPROC       _RESPUESTA_PLACA_CANCEL
  -------         PROC          _ARMAR_TRAMA_TARJETA_SECTOR1_BLOQUE1_CAMCEL
  X:0013H         SYMBOL        Buffer_Write_MF
  -------         DO            
  X:0016H         SYMBOL        ID_CLIENTE
  D:0007H         SYMBOL        COD_PARK
  -------         ENDDO         
  C:9249H         LINE#         1326
  C:9254H         LINE#         1327
  C:9254H         LINE#         1331
  C:9257H         LINE#         1332
  C:9264H         LINE#         1333
  C:926DH         LINE#         1335
  C:927DH         LINE#         1336
  C:928FH         LINE#         1337
  C:9296H         LINE#         1338
  C:92A0H         LINE#         1339
  C:92A7H         LINE#         1340
  C:92AEH         LINE#         1341
  C:92B5H         LINE#         1342
  C:92BCH         LINE#         1343
  C:92C3H         LINE#         1344
  C:92CAH         LINE#         1345
  C:92D1H         LINE#         1346
  C:92D8H         LINE#         1347
  C:92DFH         LINE#         1348
  C:92E6H         LINE#         1349
  -------         ENDPROC       _ARMAR_TRAMA_TARJETA_SECTOR1_BLOQUE1_CAMCEL
  -------         PROC          _ARMAR_TRAMA_TARJETA_SECTOR1_BLOQUE2
  X:0010H         SYMBOL        Atributos_Expedidor
  X:0013H         SYMBOL        Buffer_Write_MF
  C:6143H         LINE#         1355
  C:614EH         LINE#         1356
  C:614EH         LINE#         1360
  C:615AH         LINE#         1364
  C:616CH         LINE#         1365
  C:6173H         LINE#         1366
  C:617AH         LINE#         1368
  C:618FH         LINE#         1369
  C:618FH         LINE#         1370
  C:61A6H         LINE#         1371
  C:61BFH         LINE#         1372
  C:61BFH         LINE#         1373
  C:61C2H         LINE#         1377
  C:61C2H         LINE#         1379
  C:61F1H         LINE#         1380
  C:6220H         LINE#         1382
  C:6238H         LINE#         1383
  C:6238H         LINE#         1384
  C:6245H         LINE#         1385
  C:6247H         LINE#         1387
  C:6247H         LINE#         1388
  C:6257H         LINE#         1389
  C:6257H         LINE#         1390
BL51 BANKED LINKER/LOCATER V6.22.2.0                                                  11/05/2020  12:20:06  PAGE 115


  C:6257H         LINE#         1392
  C:6269H         LINE#         1393
  C:6270H         LINE#         1394
  C:6277H         LINE#         1395
  C:627EH         LINE#         1396
  -------         ENDPROC       _ARMAR_TRAMA_TARJETA_SECTOR1_BLOQUE2
  -------         PROC          _ARMAR_TRAMA_TARJETA_SECTOR1_BLOQUE0
  X:0009H         SYMBOL        Buffer_Write_MF
  C:B377H         LINE#         1398
  C:B382H         LINE#         1399
  C:B382H         LINE#         1401
  -------         ENDPROC       _ARMAR_TRAMA_TARJETA_SECTOR1_BLOQUE0
  -------         PROC          _ARMAR_TRAMA_PTO_PARALELO_EXPEDIDOR
  X:0006H         SYMBOL        h
  -------         DO            
  X:00BBH         SYMBOL        buffer
  X:0009H         SYMBOL        ticket
  X:0014H         SYMBOL        j
  -------         ENDDO         
  C:570FH         LINE#         1403
  C:571AH         LINE#         1404
  C:571AH         LINE#         1411
  C:5720H         LINE#         1412
  C:5724H         LINE#         1413
  C:5727H         LINE#         1414
  C:5733H         LINE#         1415
  C:574AH         LINE#         1416
  C:5758H         LINE#         1418
  C:5769H         LINE#         1420
  C:5779H         LINE#         1421
  C:578BH         LINE#         1422
  C:5799H         LINE#         1423
  C:57A7H         LINE#         1424
  C:57B5H         LINE#         1425
  C:57C3H         LINE#         1426
  C:57D0H         LINE#         1428
  C:57DFH         LINE#         1429
  C:57DFH         LINE#         1430
  C:57E2H         LINE#         1431
  C:57E2H         LINE#         1432
  C:57F6H         LINE#         1433
  C:5805H         LINE#         1434
  C:5814H         LINE#         1435
  C:5823H         LINE#         1436
  C:5832H         LINE#         1437
  C:5841H         LINE#         1438
  C:5849H         LINE#         1439
  C:584BH         LINE#         1441
  C:584BH         LINE#         1442
  C:585CH         LINE#         1443
  C:5864H         LINE#         1444
  C:5864H         LINE#         1445
  C:5866H         LINE#         1447
  C:5866H         LINE#         1448
  C:5877H         LINE#         1449
  C:5883H         LINE#         1450
  C:5883H         LINE#         1451
BL51 BANKED LINKER/LOCATER V6.22.2.0                                                  11/05/2020  12:20:06  PAGE 116


  C:5891H         LINE#         1452
  C:589FH         LINE#         1453
  C:58B1H         LINE#         1455
  C:58B7H         LINE#         1456
  -------         ENDPROC       _ARMAR_TRAMA_PTO_PARALELO_EXPEDIDOR
  -------         PROC          _ARMAR_TRAMA_PTO_PARALELO_EXPEDIDOR_MENSUAL
  X:0006H         SYMBOL        Atributos_Expedidor
  X:0009H         SYMBOL        j
  -------         DO            
  X:00D7H         SYMBOL        buffer
  -------         ENDDO         
  C:807EH         LINE#         1457
  C:8089H         LINE#         1458
  C:8089H         LINE#         1464
  C:808FH         LINE#         1465
  C:8093H         LINE#         1466
  C:80A8H         LINE#         1467
  C:80B2H         LINE#         1468
  C:80BCH         LINE#         1469
  C:80C6H         LINE#         1472
  C:80CFH         LINE#         1473
  C:80D6H         LINE#         1474
  C:80DBH         LINE#         1475
  C:80E0H         LINE#         1476
  C:80E5H         LINE#         1477
  C:80EAH         LINE#         1480
  C:80F6H         LINE#         1481
  C:80F6H         LINE#         1483
  C:80FDH         LINE#         1484
  C:8101H         LINE#         1485
  C:8105H         LINE#         1486
  C:8109H         LINE#         1487
  C:810DH         LINE#         1488
  C:8111H         LINE#         1490
  C:8111H         LINE#         1492
  C:8127H         LINE#         1493
  C:8127H         LINE#         1494
  C:812AH         LINE#         1495
  C:812CH         LINE#         1497
  C:812CH         LINE#         1498
  C:812FH         LINE#         1499
  C:812FH         LINE#         1501
  C:8135H         LINE#         1502
  C:8138H         LINE#         1503
  C:8148H         LINE#         1504
  C:814EH         LINE#         1505
  -------         ENDPROC       _ARMAR_TRAMA_PTO_PARALELO_EXPEDIDOR_MENSUAL
  -------         PROC          _ARMAR_TRAMA_MONITOR
  X:0006H         SYMBOL        Atributos_Expedidor
  -------         DO            
  X:00F3H         SYMBOL        buffer
  X:0009H         SYMBOL        ticket
  X:0014H         SYMBOL        j
  -------         ENDDO         
  C:5EAAH         LINE#         1506
  C:5EB5H         LINE#         1507
  C:5EB5H         LINE#         1513
BL51 BANKED LINKER/LOCATER V6.22.2.0                                                  11/05/2020  12:20:06  PAGE 117


  C:5EBAH         LINE#         1514
  C:5EC0H         LINE#         1515
  C:5EC8H         LINE#         1516
  C:5ECCH         LINE#         1517
  C:5ED5H         LINE#         1518
  C:5ED5H         LINE#         1519
  C:5ED8H         LINE#         1520
  C:5EDAH         LINE#         1522
  C:5EDAH         LINE#         1523
  C:5EDDH         LINE#         1524
  C:5EDDH         LINE#         1527
  C:5EE0H         LINE#         1528
  C:5EE0H         LINE#         1529
  C:5EE5H         LINE#         1530
  C:5EF1H         LINE#         1531
  C:5F08H         LINE#         1532
  C:5F0BH         LINE#         1534
  C:5F0BH         LINE#         1535
  C:5F26H         LINE#         1536
  C:5F34H         LINE#         1537
  C:5F42H         LINE#         1538
  C:5F4EH         LINE#         1539
  C:5F5CH         LINE#         1540
  C:5F95H         LINE#         1542
  C:5F95H         LINE#         1543
  C:5FA3H         LINE#         1544
  C:5FB1H         LINE#         1547
  C:5FBEH         LINE#         1548
  C:5FCCH         LINE#         1550
  C:5FDAH         LINE#         1551
  C:5FE7H         LINE#         1552
  C:5FF3H         LINE#         1553
  C:5FF8H         LINE#         1554
  C:5FFDH         LINE#         1555
  -------         ENDPROC       _ARMAR_TRAMA_MONITOR
  -------         PROC          _ARMAR_TRAMA_PLACA
  X:0008H         SYMBOL        Buffer_Write_MF
  -------         DO            
  D:0007H         SYMBOL        j
  -------         ENDDO         
  C:A8FDH         LINE#         1556
  C:A908H         LINE#         1557
  C:A908H         LINE#         1560
  C:A914H         LINE#         1561
  C:A914H         LINE#         1562
  C:A92EH         LINE#         1563
  C:A931H         LINE#         1564
  C:A93DH         LINE#         1565
  C:A93DH         LINE#         1566
  C:A951H         LINE#         1567
  C:A954H         LINE#         1568
  -------         ENDPROC       _ARMAR_TRAMA_PLACA
  C:AF9DH         SYMBOL        L?0373
  -------         PROC          L?0372
  -------         ENDPROC       L?0372
  C:AF9DH         SYMBOL        L?0373
  -------         PROC          _LOAD_SECUENCIA_EXPEDIDOR
BL51 BANKED LINKER/LOCATER V6.22.2.0                                                  11/05/2020  12:20:06  PAGE 118


  D:0001H         SYMBOL        Secuencia_Expedidor
  D:0004H         SYMBOL        estadoactivo
  X:0007H         SYMBOL        estadoactual
  X:0009H         SYMBOL        estadofuturo
  C:AFB9H         LINE#         1569
  C:AFB9H         LINE#         1570
  C:AFB9H         LINE#         1571
  C:AFC0H         LINE#         1572
  C:AFC8H         LINE#         1573
  C:AFD3H         LINE#         1574
  C:AFD9H         LINE#         1575
  -------         ENDPROC       _LOAD_SECUENCIA_EXPEDIDOR
  -------         PROC          _DISPARO_LOCK_ENTRADA_VEHICULO
  X:0002H         SYMBOL        Nombre_Mensual
  -------         DO            
  X:0005H         SYMBOL        Estado_expedidor
  -------         ENDDO         
  C:A668H         LINE#         1576
  C:A673H         LINE#         1577
  C:A673H         LINE#         1579
  C:A67CH         LINE#         1581
  C:A681H         LINE#         1583
  C:A688H         LINE#         1584
  C:A688H         LINE#         1585
  C:A691H         LINE#         1586
  C:A693H         LINE#         1587
  C:A698H         LINE#         1588
  C:A6A8H         LINE#         1589
  C:A6AEH         LINE#         1592
  C:A6B0H         LINE#         1593
  C:A6B7H         LINE#         1594
  C:A6B7H         LINE#         1595
  C:A6C0H         LINE#         1596
  C:A6C0H         LINE#         1597
  C:A6C3H         LINE#         1598
  C:A6C5H         LINE#         1600
  C:A6C5H         LINE#         1601
  C:A6C8H         LINE#         1602
  C:A6C8H         LINE#         1604
  C:A6C8H         LINE#         1605
  C:A6CDH         LINE#         1606
  -------         ENDPROC       _DISPARO_LOCK_ENTRADA_VEHICULO
  -------         PROC          _SEND_PTO_PARALELO
  D:0001H         SYMBOL        Atributos_Expedidor
  -------         DO            
  X:0002H         SYMBOL        Trama_Expedidor
  X:0005H         SYMBOL        leng_trama_pto
  -------         ENDDO         
  C:9EDDH         LINE#         1607
  C:9EDDH         LINE#         1608
  C:9EDDH         LINE#         1611
  C:9EE0H         LINE#         1612
  C:9EE0H         LINE#         1613
  C:9EFCH         LINE#         1614
  C:9EFEH         LINE#         1616
  C:9EFEH         LINE#         1617
  C:9F12H         LINE#         1618
BL51 BANKED LINKER/LOCATER V6.22.2.0                                                  11/05/2020  12:20:06  PAGE 119


  C:9F15H         LINE#         1619
  C:9F15H         LINE#         1621
  C:9F26H         LINE#         1622
  C:9F2FH         LINE#         1623
  C:9F45H         LINE#         1624
  C:9F4EH         LINE#         1627
  C:9F51H         LINE#         1628
  C:9F57H         LINE#         1629
  C:9F5CH         LINE#         1630
  C:9F5EH         LINE#         1631
  -------         ENDPROC       _SEND_PTO_PARALELO
  -------         PROC          ENTREGA_CARD_CAPTURA
  -------         DO            
  X:0002H         SYMBOL        Estado_expedidor
  -------         ENDDO         
  C:A354H         LINE#         1635
  C:A354H         LINE#         1636
  C:A354H         LINE#         1640
  C:A35DH         LINE#         1641
  C:A360H         LINE#         1642
  C:A363H         LINE#         1643
  C:A363H         LINE#         1644
  C:A36DH         LINE#         1645
  C:A36DH         LINE#         1646
  C:A36FH         LINE#         1647
  C:A378H         LINE#         1648
  C:A378H         LINE#         1649
  C:A378H         LINE#         1651
  C:A37AH         LINE#         1653
  C:A37AH         LINE#         1654
  C:A380H         LINE#         1655
  C:A380H         LINE#         1657
  C:A386H         LINE#         1659
  C:A399H         LINE#         1660
  C:A399H         LINE#         1661
  C:A3A9H         LINE#         1662
  C:A3A9H         LINE#         1663
  C:A3ABH         LINE#         1664
  C:A3ABH         LINE#         1665
  C:A3ADH         LINE#         1666
  C:A3B8H         LINE#         1667
  C:A3B8H         LINE#         1668
  C:A3BEH         LINE#         1669
  C:A3BEH         LINE#         1670
  C:A3BEH         LINE#         1672
  C:A3C0H         LINE#         1674
  C:A3C0H         LINE#         1675
  C:A3C2H         LINE#         1676
  C:A3C7H         LINE#         1677
  C:A3C7H         LINE#         1678
  C:A3C7H         LINE#         1680
  C:A3CCH         LINE#         1681
  -------         ENDPROC       ENTREGA_CARD_CAPTURA
  -------         PROC          _WAIT_PLACA
  X:0002H         SYMBOL        Atributos_Expedidor
  X:0005H         SYMBOL        Buffer_Write_MF
  -------         DO            
BL51 BANKED LINKER/LOCATER V6.22.2.0                                                  11/05/2020  12:20:06  PAGE 120


  X:0008H         SYMBOL        Estado_expedidor
  -------         ENDDO         
  C:8D8EH         LINE#         1682
  C:8D99H         LINE#         1683
  C:8D99H         LINE#         1686
  C:8DA2H         LINE#         1688
  C:8DB8H         LINE#         1689
  C:8DB8H         LINE#         1690
  C:8DBBH         LINE#         1691
  C:8DBBH         LINE#         1693
  C:8DBEH         LINE#         1694
  C:8DBEH         LINE#         1695
  C:8DC0H         LINE#         1697
  C:8DC3H         LINE#         1698
  C:8DC3H         LINE#         1699
  C:8DEBH         LINE#         1700
  C:8DEDH         LINE#         1703
  C:8DEDH         LINE#         1704
  C:8DF3H         LINE#         1705
  C:8E06H         LINE#         1706
  C:8E06H         LINE#         1707
  C:8E13H         LINE#         1708
  C:8E13H         LINE#         1709
  C:8E22H         LINE#         1710
  C:8E28H         LINE#         1711
  C:8E2AH         LINE#         1712
  C:8E37H         LINE#         1713
  C:8E37H         LINE#         1714
  C:8E3DH         LINE#         1715
  C:8E3DH         LINE#         1716
  C:8E3DH         LINE#         1717
  C:8E3DH         LINE#         1718
  C:8E42H         LINE#         1719
  -------         ENDPROC       _WAIT_PLACA
  -------         PROC          _VALIDA_VEHICULO_CARD_MENSUAL
  X:0010H         SYMBOL        Atributos_Expedidor
  -------         DO            
  X:0013H         SYMBOL        Estado_expedidor
  -------         ENDDO         
  C:9727H         LINE#         1720
  C:9732H         LINE#         1721
  C:9732H         LINE#         1724
  C:973BH         LINE#         1725
  C:9750H         LINE#         1726
  C:9750H         LINE#         1727
  C:9754H         LINE#         1728
  C:9756H         LINE#         1730
  C:9756H         LINE#         1731
  C:975DH         LINE#         1732
  C:975DH         LINE#         1734
  C:9766H         LINE#         1735
  C:9774H         LINE#         1736
  C:9774H         LINE#         1737
  C:978DH         LINE#         1738
  C:978DH         LINE#         1739
  C:9793H         LINE#         1740
  C:9793H         LINE#         1741
BL51 BANKED LINKER/LOCATER V6.22.2.0                                                  11/05/2020  12:20:06  PAGE 121


  C:9795H         LINE#         1744
  C:9795H         LINE#         1745
  C:979AH         LINE#         1746
  C:97A3H         LINE#         1747
  C:97A8H         LINE#         1748
  C:97A8H         LINE#         1749
  C:97AAH         LINE#         1751
  C:97AAH         LINE#         1752
  C:97B3H         LINE#         1753
  C:97B9H         LINE#         1754
  C:97B9H         LINE#         1755
  C:97BEH         LINE#         1756
  -------         ENDPROC       _VALIDA_VEHICULO_CARD_MENSUAL
  -------         PROC          _TARJETA_MENSUAL
  X:0009H         SYMBOL        Atributos_Expedidor
  X:000CH         SYMBOL        Buffer_Write_MF
  -------         DO            
  X:000FH         SYMBOL        Estado_expedidor
  -------         ENDDO         
  C:86DCH         LINE#         1757
  C:86E7H         LINE#         1758
  C:86E7H         LINE#         1763
  C:86F2H         LINE#         1764
  C:86F2H         LINE#         1765
  C:8710H         LINE#         1766
  C:8710H         LINE#         1768
  C:8721H         LINE#         1769
  C:8721H         LINE#         1770
  C:8729H         LINE#         1771
  C:872BH         LINE#         1773
  C:872BH         LINE#         1774
  C:8734H         LINE#         1775
  C:8744H         LINE#         1776
  C:8757H         LINE#         1777
  C:8777H         LINE#         1778
  C:877DH         LINE#         1779
  C:877DH         LINE#         1780
  C:877FH         LINE#         1782
  C:877FH         LINE#         1783
  C:8784H         LINE#         1785
  C:8789H         LINE#         1786
  C:8792H         LINE#         1787
  C:8792H         LINE#         1788
  C:8792H         LINE#         1789
  C:8794H         LINE#         1791
  C:8794H         LINE#         1793
  C:879AH         LINE#         1794
  C:879AH         LINE#         1795
  C:879FH         LINE#         1796
  -------         ENDPROC       _TARJETA_MENSUAL
  -------         PROC          _TARJETA_ROTACION
  D:0001H         SYMBOL        Atributos_Expedidor
  X:000CH         SYMBOL        Buffer_Write_MF
  C:B272H         LINE#         1797
  C:B272H         LINE#         1798
  C:B272H         LINE#         1799
  C:B277H         LINE#         1800
BL51 BANKED LINKER/LOCATER V6.22.2.0                                                  11/05/2020  12:20:06  PAGE 122


  C:B280H         LINE#         1801
  C:B2A0H         LINE#         1802
  C:B2A2H         LINE#         1805
  -------         ENDPROC       _TARJETA_ROTACION
  -------         PROC          _VALIDA_TIPO_TARJETA
  X:0002H         SYMBOL        Atributos_Expedidor
  X:0005H         SYMBOL        Buffer_Write_MF
  -------         DO            
  X:0008H         SYMBOL        Estado_expedidor
  -------         ENDDO         
  C:58B8H         LINE#         1806
  C:58C3H         LINE#         1807
  C:58C3H         LINE#         1809
  C:58D0H         LINE#         1810
  C:58D0H         LINE#         1811
  C:58D9H         LINE#         1812
  C:58DFH         LINE#         1813
  C:58DFH         LINE#         1817
  C:58EDH         LINE#         1818
  C:58EDH         LINE#         1821
  C:590AH         LINE#         1822
  C:590AH         LINE#         1823
  C:5927H         LINE#         1825
  C:5929H         LINE#         1827
  C:5929H         LINE#         1828
  C:5932H         LINE#         1829
  C:5934H         LINE#         1830
  C:5934H         LINE#         1831
  C:5934H         LINE#         1832
  C:5937H         LINE#         1835
  C:5937H         LINE#         1836
  C:5940H         LINE#         1838
  C:5963H         LINE#         1839
  C:5963H         LINE#         1840
  C:5966H         LINE#         1842
  C:5966H         LINE#         1843
  C:596BH         LINE#         1844
  C:5970H         LINE#         1845
  C:5973H         LINE#         1846
  C:5973H         LINE#         1847
  C:5976H         LINE#         1848
  C:598EH         LINE#         1849
  C:598EH         LINE#         1851
  C:5997H         LINE#         1852
  C:599DH         LINE#         1853
  C:599DH         LINE#         1854
  C:59A9H         LINE#         1855
  C:59A9H         LINE#         1856
  C:59C6H         LINE#         1858
  C:59C6H         LINE#         1859
  C:59E6H         LINE#         1860
  C:59E8H         LINE#         1862
  C:59E8H         LINE#         1863
  C:59F1H         LINE#         1864
  C:59F6H         LINE#         1865
  C:59FBH         LINE#         1866
  C:59FEH         LINE#         1867
BL51 BANKED LINKER/LOCATER V6.22.2.0                                                  11/05/2020  12:20:06  PAGE 123


  C:59FEH         LINE#         1868
  C:5A00H         LINE#         1870
  C:5A00H         LINE#         1871
  C:5A09H         LINE#         1872
  C:5A2CH         LINE#         1873
  C:5A2CH         LINE#         1874
  C:5A2EH         LINE#         1876
  C:5A2EH         LINE#         1878
  C:5A33H         LINE#         1879
  C:5A38H         LINE#         1880
  C:5A3EH         LINE#         1881
  C:5A3EH         LINE#         1882
  C:5A40H         LINE#         1884
  C:5A40H         LINE#         1885
  C:5A49H         LINE#         1886
  C:5A4EH         LINE#         1888
  C:5A56H         LINE#         1889
  C:5A56H         LINE#         1891
  C:5A5BH         LINE#         1892
  -------         ENDPROC       _VALIDA_TIPO_TARJETA
  -------         PROC          _HORARIOS
  X:0010H         SYMBOL        Atributos_Expedidor
  -------         DO            
  X:0013H         SYMBOL        Estado_Horario
  X:0014H         SYMBOL        Addr_horarios
  X:001FH         SYMBOL        dia_semana
  X:0020H         SYMBOL        EE_dia_semana
  X:0021H         SYMBOL        addr
  -------         ENDDO         
  C:6F57H         LINE#         1986
  C:6F62H         LINE#         1987
  C:6F62H         LINE#         1993
  C:6F6DH         LINE#         1994
  C:6F6DH         LINE#         1996
  C:6F79H         LINE#         1998
  C:6F9FH         LINE#         2002
  C:6FB2H         LINE#         2003
  C:6FB2H         LINE#         2005
  C:6FBCH         LINE#         2006
  C:6FC5H         LINE#         2007
  C:6FCDH         LINE#         2008
  C:6FD6H         LINE#         2011
  C:6FFBH         LINE#         2012
  C:7004H         LINE#         2013
  C:700CH         LINE#         2014
  C:7015H         LINE#         2016
  C:701FH         LINE#         2017
  C:701FH         LINE#         2019
  C:702DH         LINE#         2020
  C:702FH         LINE#         2022
  C:702FH         LINE#         2024
  C:7038H         LINE#         2025
  C:703DH         LINE#         2026
  C:703DH         LINE#         2027
  C:703FH         LINE#         2029
  C:703FH         LINE#         2031
  C:7044H         LINE#         2032
BL51 BANKED LINKER/LOCATER V6.22.2.0                                                  11/05/2020  12:20:06  PAGE 124


  C:7049H         LINE#         2033
  C:704FH         LINE#         2035
  C:704FH         LINE#         2037
  C:7051H         LINE#         2039
  C:7051H         LINE#         2040
  C:7057H         LINE#         2042
  C:7060H         LINE#         2043
  C:7060H         LINE#         2044
  C:7065H         LINE#         2045
  -------         ENDPROC       _HORARIOS
  -------         PROC          _HORA_MAXIMA
  X:002FH         SYMBOL        addr
  -------         DO            
  X:0031H         SYMBOL        Hora_High
  X:0032H         SYMBOL        Minuto_High
  X:0033H         SYMBOL        HoraIni
  X:0034H         SYMBOL        MinutoIni
  X:0035H         SYMBOL        Hora_Prog
  -------         ENDDO         
  C:8FA4H         LINE#         2046
  C:8FACH         LINE#         2047
  C:8FACH         LINE#         2052
  C:8FC1H         LINE#         2053
  C:8FE1H         LINE#         2054
  C:8FFEH         LINE#         2055
  C:901EH         LINE#         2056
  C:9026H         LINE#         2057
  C:902EH         LINE#         2058
  C:9037H         LINE#         2060
  C:904FH         LINE#         2061
  -------         ENDPROC       _HORA_MAXIMA
  -------         PROC          _EN_HORARIO
  X:002AH         SYMBOL        HoraNow
  D:0004H         SYMBOL        Hora_Prog
  X:002CH         SYMBOL        addr
  -------         DO            
  X:002EH         SYMBOL        Estado_Horario
  -------         ENDDO         
  C:A4B7H         LINE#         2062
  C:A4C5H         LINE#         2063
  C:A4C5H         LINE#         2066
  C:A4D2H         LINE#         2067
  C:A4D2H         LINE#         2070
  C:A4DBH         LINE#         2071
  C:A4F0H         LINE#         2074
  C:A4FFH         LINE#         2075
  C:A4FFH         LINE#         2077
  C:A506H         LINE#         2078
  C:A50CH         LINE#         2079
  C:A50EH         LINE#         2081
  C:A50EH         LINE#         2084
  C:A512H         LINE#         2085
  C:A512H         LINE#         2086
  C:A512H         LINE#         2088
  C:A514H         LINE#         2090
  C:A514H         LINE#         2093
  C:A51DH         LINE#         2094
BL51 BANKED LINKER/LOCATER V6.22.2.0                                                  11/05/2020  12:20:06  PAGE 125


  C:A522H         LINE#         2096
  C:A522H         LINE#         2097
  C:A527H         LINE#         2098
  -------         ENDPROC       _EN_HORARIO
  -------         PROC          _BLOQUE_HORARIO
  X:0023H         SYMBOL        addr
  -------         DO            
  X:0025H         SYMBOL        Estado_Horario
  X:0026H         SYMBOL        HoraNow
  X:0028H         SYMBOL        Hora_Prog
  -------         ENDDO         
  C:7172H         LINE#         2100
  C:717AH         LINE#         2101
  C:717AH         LINE#         2107
  C:7183H         LINE#         2108
  C:718BH         LINE#         2109
  C:7193H         LINE#         2110
  C:719CH         LINE#         2111
  C:71CAH         LINE#         2116
  C:71D3H         LINE#         2117
  C:71E8H         LINE#         2118
  C:7200H         LINE#         2119
  C:7202H         LINE#         2120
  C:7202H         LINE#         2123
  C:721AH         LINE#         2124
  C:721AH         LINE#         2125
  C:7223H         LINE#         2126
  C:723EH         LINE#         2127
  C:725CH         LINE#         2128
  C:725EH         LINE#         2130
  C:725EH         LINE#         2131
  C:7263H         LINE#         2132
  C:7268H         LINE#         2133
  C:726DH         LINE#         2134
  C:726DH         LINE#         2135
  C:726DH         LINE#         2137
  C:7274H         LINE#         2138
  -------         ENDPROC       _BLOQUE_HORARIO
  -------         PROC          SECUENCIA_INICIO_EXPEDIDOR
  -------         DO            
  X:0001H         SYMBOL        temp
  -------         ENDDO         
  C:6502H         LINE#         2147
  C:6502H         LINE#         2148
  C:6502H         LINE#         2150
  C:6522H         LINE#         2151
  C:6522H         LINE#         2152
  C:6522H         LINE#         2155
  C:6527H         LINE#         2156
  C:652DH         LINE#         2159
  C:652FH         LINE#         2160
  C:652FH         LINE#         2171
  C:652FH         LINE#         2173
  C:653DH         LINE#         2174
  C:653DH         LINE#         2175
  C:6549H         LINE#         2176
  C:6549H         LINE#         2177
BL51 BANKED LINKER/LOCATER V6.22.2.0                                                  11/05/2020  12:20:06  PAGE 126


  C:654FH         LINE#         2178
  C:6552H         LINE#         2179
  C:655AH         LINE#         2180
  C:655AH         LINE#         2181
  C:6561H         LINE#         2182
  C:6575H         LINE#         2183
  C:6575H         LINE#         2184
  C:6577H         LINE#         2186
  C:6577H         LINE#         2187
  C:657EH         LINE#         2188
  C:6584H         LINE#         2189
  C:6584H         LINE#         2190
  C:6587H         LINE#         2192
  C:6587H         LINE#         2193
  C:6590H         LINE#         2194
  C:65A4H         LINE#         2195
  C:65AAH         LINE#         2196
  C:65AAH         LINE#         2197
  C:65ADH         LINE#         2198
  C:65ADH         LINE#         2204
  C:65ADH         LINE#         2206
  C:65B0H         LINE#         2207
  C:65B6H         LINE#         2211
  C:65B8H         LINE#         2212
  C:65B8H         LINE#         2222
  C:65B8H         LINE#         2224
  C:65C6H         LINE#         2225
  C:65C6H         LINE#         2226
  C:65D2H         LINE#         2227
  C:65D2H         LINE#         2228
  C:65D8H         LINE#         2229
  C:65DAH         LINE#         2230
  C:65E2H         LINE#         2231
  C:65E2H         LINE#         2232
  C:65E9H         LINE#         2233
  C:65FDH         LINE#         2234
  C:65FDH         LINE#         2235
  C:65FFH         LINE#         2237
  C:65FFH         LINE#         2238
  C:6606H         LINE#         2239
  C:660CH         LINE#         2240
  C:660CH         LINE#         2241
  C:660EH         LINE#         2243
  C:660EH         LINE#         2244
  C:6617H         LINE#         2245
  C:662BH         LINE#         2246
  C:6630H         LINE#         2247
  C:6630H         LINE#         2249
  C:6632H         LINE#         2250
  C:6632H         LINE#         2256
  C:6632H         LINE#         2258
  C:6638H         LINE#         2259
  C:6638H         LINE#         2262
  C:6638H         LINE#         2263
  C:663FH         LINE#         2264
  C:663FH         LINE#         2265
  C:663FH         LINE#         2266
BL51 BANKED LINKER/LOCATER V6.22.2.0                                                  11/05/2020  12:20:06  PAGE 127


  -------         ENDPROC       SECUENCIA_INICIO_EXPEDIDOR
  -------         PROC          _SECUENCIAEXPEDIDORMF
  X:0001H         SYMBOL        EstadoActivo
  -------         DO            
  X:010BH         SYMBOL        Buffer_Write_MF
  X:011CH         SYMBOL        Atributos_Expedidor
  X:012BH         SYMBOL        Secuencia_Expedidor
  X:012FH         SYMBOL        Nombre_Mensual
  -------         ENDDO         
  C:381BH         LINE#         2276
  C:3820H         LINE#         2277
  C:3820H         LINE#         2283
  C:387AH         LINE#         2284
  C:387AH         LINE#         2287
  C:387AH         LINE#         2289
  C:3890H         LINE#         2290
  C:3890H         LINE#         2291
  C:3892H         LINE#         2292
  C:3894H         LINE#         2293
  C:3899H         LINE#         2294
  C:38A1H         LINE#         2295
  C:38A6H         LINE#         2296
  C:38A6H         LINE#         2297
  C:38A9H         LINE#         2298
  C:38A9H         LINE#         2300
  C:38B2H         LINE#         2301
  C:38B5H         LINE#         2302
  C:38B5H         LINE#         2303
  C:38BAH         LINE#         2304
  C:38DAH         LINE#         2305
  C:38DDH         LINE#         2306
  C:38DDH         LINE#         2307
  C:38E2H         LINE#         2308
  C:38EAH         LINE#         2309
  C:38F0H         LINE#         2310
  C:38F3H         LINE#         2311
  C:38F3H         LINE#         2312
  C:38F6H         LINE#         2313
  C:38FEH         LINE#         2314
  C:3904H         LINE#         2315
  C:3907H         LINE#         2316
  C:3907H         LINE#         2317
  C:390AH         LINE#         2318
  C:392FH         LINE#         2319
  C:3935H         LINE#         2320
  C:3937H         LINE#         2321
  C:393AH         LINE#         2322
  C:393AH         LINE#         2323
  C:3945H         LINE#         2324
  C:394DH         LINE#         2325
  C:3953H         LINE#         2326
  C:3956H         LINE#         2327
  C:3956H         LINE#         2328
  C:3967H         LINE#         2329
  C:396FH         LINE#         2330
  C:3975H         LINE#         2331
  C:3978H         LINE#         2332
BL51 BANKED LINKER/LOCATER V6.22.2.0                                                  11/05/2020  12:20:06  PAGE 128


  C:3978H         LINE#         2333
  C:397DH         LINE#         2334
  C:399BH         LINE#         2335
  C:399EH         LINE#         2336
  C:399EH         LINE#         2337
  C:39A3H         LINE#         2338
  C:39C3H         LINE#         2339
  C:39C6H         LINE#         2340
  C:39C6H         LINE#         2341
  C:39CBH         LINE#         2342
  C:39CDH         LINE#         2343
  C:39EBH         LINE#         2344
  C:39EEH         LINE#         2345
  C:39EEH         LINE#         2346
  C:39F3H         LINE#         2347
  C:3A13H         LINE#         2348
  C:3A16H         LINE#         2349
  C:3A16H         LINE#         2350
  C:3A1BH         LINE#         2351
  C:3A23H         LINE#         2352
  C:3A29H         LINE#         2353
  C:3A2CH         LINE#         2354
  C:3A2CH         LINE#         2355
  C:3A2FH         LINE#         2356
  C:3A4FH         LINE#         2357
  C:3A52H         LINE#         2358
  C:3A52H         LINE#         2359
  C:3A54H         LINE#         2360
  C:3A57H         LINE#         2361
  C:3A5AH         LINE#         2362
  C:3A5AH         LINE#         2363
  C:3A63H         LINE#         2365
  C:3A66H         LINE#         2366
  C:3A66H         LINE#         2367
  C:3A7DH         LINE#         2368
  C:3A80H         LINE#         2369
  C:3A80H         LINE#         2370
  C:3A83H         LINE#         2371
  C:3A8BH         LINE#         2372
  C:3A91H         LINE#         2373
  C:3A94H         LINE#         2374
  C:3A94H         LINE#         2375
  C:3A9DH         LINE#         2376
  C:3AA0H         LINE#         2377
  C:3AA0H         LINE#         2378
  C:3AB7H         LINE#         2379
  C:3ABAH         LINE#         2380
  C:3ABAH         LINE#         2381
  C:3ABFH         LINE#         2382
  C:3AC7H         LINE#         2383
  C:3ACDH         LINE#         2384
  C:3AD0H         LINE#         2385
  C:3AD0H         LINE#         2386
  C:3AD3H         LINE#         2387
  C:3AF3H         LINE#         2388
  C:3AF6H         LINE#         2389
  C:3AF6H         LINE#         2390
BL51 BANKED LINKER/LOCATER V6.22.2.0                                                  11/05/2020  12:20:06  PAGE 129


  C:3AF9H         LINE#         2391
  C:3B19H         LINE#         2392
  C:3B1CH         LINE#         2393
  C:3B1CH         LINE#         2394
  C:3B1FH         LINE#         2395
  C:3B27H         LINE#         2396
  C:3B2DH         LINE#         2397
  C:3B30H         LINE#         2401
  C:3B30H         LINE#         2402
  C:3B36H         LINE#         2403
  C:3B3CH         LINE#         2404
  C:3B3CH         LINE#         2405
  C:3B44H         LINE#         2406
  C:3B4AH         LINE#         2408
  C:3B4DH         LINE#         2409
  C:3B55H         LINE#         2410
  C:3B55H         LINE#         2412
  C:3B58H         LINE#         2413
  C:3B5BH         LINE#         2414
  C:3B63H         LINE#         2415
  C:3B63H         LINE#         2416
  C:3B71H         LINE#         2417
  C:3B71H         LINE#         2418
  C:3B7AH         LINE#         2419
  C:3B7DH         LINE#         2420
  C:3B89H         LINE#         2421
  C:3B89H         LINE#         2422
  C:3B92H         LINE#         2423
  C:3B95H         LINE#         2425
  C:3B95H         LINE#         2426
  C:3B9EH         LINE#         2427
  C:3B9EH         LINE#         2428
  C:3BA1H         LINE#         2429
  C:3BA9H         LINE#         2430
  C:3BA9H         LINE#         2431
  C:3BB7H         LINE#         2432
  C:3BB7H         LINE#         2433
  C:3BCDH         LINE#         2434
  C:3BD0H         LINE#         2435
  C:3BDCH         LINE#         2436
  C:3BDCH         LINE#         2437
  C:3BE5H         LINE#         2438
  C:3BE8H         LINE#         2439
  C:3BF6H         LINE#         2440
  C:3BF6H         LINE#         2441
  C:3BFFH         LINE#         2442
  C:3C01H         LINE#         2444
  C:3C01H         LINE#         2445
  C:3C0AH         LINE#         2446
  C:3C0AH         LINE#         2447
  C:3C0CH         LINE#         2448
  C:3C14H         LINE#         2449
  C:3C14H         LINE#         2450
  C:3C1DH         LINE#         2451
  C:3C1FH         LINE#         2452
  C:3C27H         LINE#         2453
  C:3C27H         LINE#         2454
BL51 BANKED LINKER/LOCATER V6.22.2.0                                                  11/05/2020  12:20:06  PAGE 130


  C:3C3DH         LINE#         2455
  C:3C3FH         LINE#         2456
  C:3C47H         LINE#         2457
  C:3C47H         LINE#         2458
  C:3C4AH         LINE#         2459
  C:3C4CH         LINE#         2461
  C:3C54H         LINE#         2462
  C:3C54H         LINE#         2463
  C:3C5DH         LINE#         2464
  C:3C5FH         LINE#         2467
  C:3C67H         LINE#         2468
  C:3C67H         LINE#         2469
  C:3C6FH         LINE#         2470
  C:3C71H         LINE#         2472
  C:3C71H         LINE#         2473
  C:3C7AH         LINE#         2474
  C:3C7AH         LINE#         2475
  C:3C7CH         LINE#         2476
  C:3C7CH         LINE#         2477
  C:3C81H         LINE#         2478
  C:3C81H         LINE#         2480
  C:3C81H         LINE#         2481
  C:3C86H         LINE#         2482
  -------         ENDPROC       _SECUENCIAEXPEDIDORMF
  -------         ENDMOD        VERIFICADOR

  -------         MODULE        MONITOR
  C:0000H         SYMBOL        _ICE_DUMMY_
  D:0080H         PUBLIC        P0
  D:0090H         PUBLIC        P1
  I:0011H         PUBLIC        placa
  C:B412H         PUBLIC        Rx_Monitor
  B:0080H.0       PUBLIC        rx_ip
  B:0090H.7       PUBLIC        lock
  C:8925H         PUBLIC        _recibe_cmd_Monitor
  C:B534H         PUBLIC        clear_placa
  C:9426H         PUBLIC        _Valida_Trama_Monitor
  -------         PROC          _RECIBE_CMD_MONITOR
  X:0016H         SYMBOL        buffer_cmd
  -------         DO            
  X:0019H         SYMBOL        j
  X:001AH         SYMBOL        NumDatos
  X:001BH         SYMBOL        time_out
  X:001CH         SYMBOL        MaxChrRx
  X:001DH         SYMBOL        contador
  -------         ENDDO         
  C:8925H         LINE#         44
  C:8930H         LINE#         45
  C:8930H         LINE#         49
  C:8935H         LINE#         50
  C:893BH         LINE#         52
  C:8946H         LINE#         53
  C:8946H         LINE#         54
  C:8957H         LINE#         55
  C:8957H         LINE#         56
  C:895EH         LINE#         57
  C:8962H         LINE#         58
BL51 BANKED LINKER/LOCATER V6.22.2.0                                                  11/05/2020  12:20:06  PAGE 131


  C:896BH         LINE#         59
  C:896BH         LINE#         60
  C:8979H         LINE#         61
  C:8990H         LINE#         62
  C:8990H         LINE#         63
  C:8996H         LINE#         64
  C:899CH         LINE#         65
  C:899CH         LINE#         66
  C:899EH         LINE#         67
  C:89A6H         LINE#         68
  C:89ACH         LINE#         69
  C:89BEH         LINE#         70
  C:89C8H         LINE#         71
  C:89D1H         LINE#         73
  C:89E0H         LINE#         76
  C:89E0H         LINE#         77
  C:89E5H         LINE#         78
  -------         ENDPROC       _RECIBE_CMD_MONITOR
  -------         PROC          _VALIDA_TRAMA_MONITOR
  X:0016H         SYMBOL        buffer
  D:0005H         SYMBOL        length_trama
  -------         DO            
  D:0007H         SYMBOL        j
  D:0006H         SYMBOL        p
  -------         ENDDO         
  C:9426H         LINE#         83
  C:9431H         LINE#         84
  C:9431H         LINE#         85
  C:9433H         LINE#         86
  C:9435H         LINE#         87
  C:9435H         LINE#         89
  C:9453H         LINE#         90
  C:9453H         LINE#         91
  C:9455H         LINE#         92
  C:945AH         LINE#         93
  C:945BH         LINE#         95
  C:9476H         LINE#         96
  C:9476H         LINE#         99
  C:9476H         LINE#         100
  C:9490H         LINE#         101
  C:9491H         LINE#         102
  C:9492H         LINE#         103
  C:949EH         LINE#         104
  C:94B2H         LINE#         105
  C:94B8H         LINE#         106
  C:94BAH         LINE#         107
  C:94C0H         LINE#         110
  C:94C0H         LINE#         113
  -------         ENDPROC       _VALIDA_TRAMA_MONITOR
  -------         PROC          CLEAR_PLACA
  -------         DO            
  D:0007H         SYMBOL        i
  -------         ENDDO         
  C:B534H         LINE#         114
  C:B534H         LINE#         115
  C:B534H         LINE#         117
  C:B540H         LINE#         118
BL51 BANKED LINKER/LOCATER V6.22.2.0                                                  11/05/2020  12:20:06  PAGE 132


  C:B540H         LINE#         119
  C:B546H         LINE#         120
  C:B549H         LINE#         121
  C:B54BH         LINE#         122
  -------         ENDPROC       CLEAR_PLACA
  -------         PROC          RX_MONITOR
  -------         DO            
  X:0009H         SYMBOL        Length_trama
  X:000AH         SYMBOL        buffer1
  -------         ENDDO         
  C:B412H         LINE#         123
  C:B412H         LINE#         124
  C:B412H         LINE#         127
  C:B421H         LINE#         128
  C:B42AH         LINE#         129
  -------         ENDPROC       RX_MONITOR
  -------         ENDMOD        MONITOR

  -------         MODULE        ?C?FPADD
  C:1335H         PUBLIC        ?C?FPADD
  C:1331H         PUBLIC        ?C?FPSUB
  -------         ENDMOD        ?C?FPADD

  -------         MODULE        ?C?FPMUL
  C:1426H         PUBLIC        ?C?FPMUL
  -------         ENDMOD        ?C?FPMUL

  -------         MODULE        ?C?FCAST
  C:1536H         PUBLIC        ?C?FCASTC
  C:1531H         PUBLIC        ?C?FCASTI
  C:152CH         PUBLIC        ?C?FCASTL
  -------         ENDMOD        ?C?FCAST

  -------         MODULE        ?C?CASTF
  C:156AH         PUBLIC        ?C?CASTF
  -------         ENDMOD        ?C?CASTF

  -------         MODULE        PRINTF
  X:0077H         PUBLIC        ?_PRINTF?BYTE
  X:0077H         PUBLIC        ?_SPRINTF?BYTE
  C:3403H         PUBLIC        _PRINTF
  C:33FDH         PUBLIC        _SPRINTF
  -------         ENDMOD        PRINTF

  -------         MODULE        POW
  X:0021H         PUBLIC        ?_pow?BYTE
  C:5D44H         PUBLIC        _pow
  -------         ENDMOD        POW

  -------         MODULE        ?C?CHKFLOAT
  C:15EBH         PUBLIC        ?C?CHKFLOAT
  -------         ENDMOD        ?C?CHKFLOAT

  -------         MODULE        ?C?FPCMP
  C:1607H         PUBLIC        ?C?FPCMP
  C:1605H         PUBLIC        ?C?FPCMP3
  -------         ENDMOD        ?C?FPCMP
BL51 BANKED LINKER/LOCATER V6.22.2.0                                                  11/05/2020  12:20:06  PAGE 133



  -------         MODULE        ?C?FPNEG
  C:167EH         PUBLIC        ?C?FPNEG
  -------         ENDMOD        ?C?FPNEG

  -------         MODULE        ?C?FPROUND
  C:168FH         PUBLIC        ?C?FPROUND
  -------         ENDMOD        ?C?FPROUND

  -------         MODULE        ?C?FPCONVERT
  C:16CCH         PUBLIC        ?C?FPCONVERT
  -------         ENDMOD        ?C?FPCONVERT

  -------         MODULE        EXP
  C:9593H         PUBLIC        _EXP
  -------         ENDMOD        EXP

  -------         MODULE        LOG
  C:68D6H         PUBLIC        _LOG
  C:68D2H         PUBLIC        _LOG10
  -------         ENDMOD        LOG

  -------         MODULE        ?C?FPDIV
  C:17D4H         PUBLIC        ?C?FPDIV
  -------         ENDMOD        ?C?FPDIV

  -------         MODULE        ?C?FTNPWR
  C:18A1H         PUBLIC        ?C?FTNPWR
  -------         ENDMOD        ?C?FTNPWR

  -------         MODULE        ?C?COPY
  C:19FEH         PUBLIC        ?C?COPY
  -------         ENDMOD        ?C?COPY

  -------         MODULE        ?C?CLDPTR
  C:1A24H         PUBLIC        ?C?CLDPTR
  -------         ENDMOD        ?C?CLDPTR

  -------         MODULE        ?C?CLDOPTR
  C:1A3DH         PUBLIC        ?C?CLDOPTR
  -------         ENDMOD        ?C?CLDOPTR

  -------         MODULE        ?C?CSTPTR
  C:1A6AH         PUBLIC        ?C?CSTPTR
  -------         ENDMOD        ?C?CSTPTR

  -------         MODULE        ?C?CSTOPTR
  C:1A7CH         PUBLIC        ?C?CSTOPTR
  -------         ENDMOD        ?C?CSTOPTR

  -------         MODULE        ?C?IMUL
  C:1A9EH         PUBLIC        ?C?IMUL
  -------         ENDMOD        ?C?IMUL

  -------         MODULE        ?C?IILDX
  C:1AB0H         PUBLIC        ?C?IILDX
  -------         ENDMOD        ?C?IILDX
BL51 BANKED LINKER/LOCATER V6.22.2.0                                                  11/05/2020  12:20:06  PAGE 134



  -------         MODULE        ?C?LNEG
  C:1AC6H         PUBLIC        ?C?LNEG
  -------         ENDMOD        ?C?LNEG

  -------         MODULE        ?C?SLCMP
  C:1AD4H         PUBLIC        ?C?SLCMP
  -------         ENDMOD        ?C?SLCMP

  -------         MODULE        ?C?ULCMP
  C:1AEAH         PUBLIC        ?C?ULCMP
  -------         ENDMOD        ?C?ULCMP

  -------         MODULE        ?C?ULSHR
  C:1AFBH         PUBLIC        ?C?ULSHR
  -------         ENDMOD        ?C?ULSHR

  -------         MODULE        ?C?LSHL
  C:1B0EH         PUBLIC        ?C?LSHL
  -------         ENDMOD        ?C?LSHL

  -------         MODULE        ?C?LLDCODE
  C:1B21H         PUBLIC        ?C?LLDCODE
  -------         ENDMOD        ?C?LLDCODE

  -------         MODULE        ?C?LLDXDATA0
  C:1B31H         PUBLIC        ?C?LLDXDATA0
  -------         ENDMOD        ?C?LLDXDATA0

  -------         MODULE        ?C?LLDCODE0
  C:1B3DH         PUBLIC        ?C?LLDCODE0
  -------         ENDMOD        ?C?LLDCODE0

  -------         MODULE        ?C?LSTXDATA
  C:1B4DH         PUBLIC        ?C?LSTXDATA
  -------         ENDMOD        ?C?LSTXDATA

  -------         MODULE        ?C?LSTKXDATA
  C:1B59H         PUBLIC        ?C?LSTKXDATA
  -------         ENDMOD        ?C?LSTKXDATA

  -------         MODULE        ?C?PLDIXDATA
  C:1B8AH         PUBLIC        ?C?PLDIXDATA
  -------         ENDMOD        ?C?PLDIXDATA

  -------         MODULE        ?C?PSTXDATA
  C:1BA1H         PUBLIC        ?C?PSTXDATA
  -------         ENDMOD        ?C?PSTXDATA

  -------         MODULE        ?C?CCASE
  C:1BAAH         PUBLIC        ?C?CCASE
  -------         ENDMOD        ?C?CCASE

  -------         MODULE        STRCAT
  X:0046H         PUBLIC        ?_strcat?BYTE
  C:A597H         PUBLIC        _strcat
  -------         ENDMOD        STRCAT
BL51 BANKED LINKER/LOCATER V6.22.2.0                                                  11/05/2020  12:20:06  PAGE 135



  -------         MODULE        ?C?STRCMP
  C:1D4EH         PUBLIC        ?C?STRCMP
  -------         ENDMOD        ?C?STRCMP

  -------         MODULE        ?C?STRCPY
  C:1E37H         PUBLIC        ?C?STRCPY
  -------         ENDMOD        ?C?STRCPY

  -------         MODULE        STRLEN
  C:000EH         PUBLIC        _STRLEN
  -------         ENDMOD        STRLEN

  -------         MODULE        STRTOK
  X:0064H         PUBLIC        ?_strtok?BYTE
  C:7C34H         PUBLIC        _strtok
  -------         ENDMOD        STRTOK

  -------         MODULE        ATOL
  C:7066H         PUBLIC        _atol
  -------         ENDMOD        ATOL

  -------         MODULE        ATOI
  C:7DF6H         PUBLIC        _atoi
  -------         ENDMOD        ATOI

  -------         MODULE        MALLOC
  C:814FH         PUBLIC        _malloc
  -------         ENDMOD        MALLOC

  -------         MODULE        INIT_MEM
  X:0256H         PUBLIC        __mem_avail__
  C:AFDAH         PUBLIC        _init_mempool
  -------         ENDMOD        INIT_MEM

  -------         MODULE        FREE
  C:6285H         PUBLIC        _free
  -------         ENDMOD        FREE

  -------         MODULE        ?C?ILDIX
  C:1E54H         PUBLIC        ?C?ILDIX
  -------         ENDMOD        ?C?ILDIX

  -------         MODULE        ?C?LMUL
  C:1E6AH         PUBLIC        ?C?LMUL
  -------         ENDMOD        ?C?LMUL

  -------         MODULE        ISDIGIT
  C:B632H         PUBLIC        _isdigit
  -------         ENDMOD        ISDIGIT

  -------         MODULE        ISSPACE
  C:B5A4H         PUBLIC        _isspace
  -------         ENDMOD        ISSPACE

  -------         MODULE        STRSPN
  X:006AH         PUBLIC        ?_strspn?BYTE
BL51 BANKED LINKER/LOCATER V6.22.2.0                                                  11/05/2020  12:20:06  PAGE 136


  C:9E59H         PUBLIC        _strspn
  -------         ENDMOD        STRSPN

  -------         MODULE        STRPBRK
  X:006AH         PUBLIC        ?_strpbrk?BYTE
  C:9F5FH         PUBLIC        _strpbrk
  -------         ENDMOD        STRPBRK

Program Size: data=98.7 xdata=618 code=46781
LINK/LOCATE RUN COMPLETE.  0 WARNING(S),  0 ERROR(S)
