BL51 BANKED LINKER/LOCATER V6.22.2.0                                                    08/19/2020  14:41:27  PAGE 1


BL51 BANKED LINKER/LOCATER V6.22.2.0, INVOKED BY:
C:\KEIL_V5\C51\BIN\BL51.EXE .\Objects\main.obj, .\Objects\Accescan.obj, .\Objects\Clock.obj, .\Objects\delay.obj, .\Obje
>> cts\eeprom.obj, .\Objects\io_sensores.obj, .\Objects\pantallas.obj, .\Objects\prog.obj, .\Objects\pto_paralelo.obj, .
>> \Objects\tibbo.obj, .\Objects\uart.obj, .\Objects\lintech.obj, .\Objects\verificador.obj, .\Objects\Monitor.obj TO .\
>> Objects\expedidor_v_01_raspberry PRINT (.\Listings\expedidor_v_01_raspberry.m51) RAMSIZE (256)


MEMORY MODEL: LARGE WITH FLOATING POINT ARITHMETIC


INPUT MODULES INCLUDED:
  .\Objects\main.obj (MAIN)
  .\Objects\Accescan.obj (ACCESCAN)
  .\Objects\Clock.obj (CLOCK)
  .\Objects\delay.obj (DELAY)
  .\Objects\eeprom.obj (EEPROM)
  .\Objects\io_sensores.obj (IO_SENSORES)
  .\Objects\pantallas.obj (PANTALLAS)
  .\Objects\prog.obj (PROG)
  .\Objects\pto_paralelo.obj (PTO_PARALELO)
  .\Objects\tibbo.obj (TIBBO)
  .\Objects\uart.obj (UART)
  .\Objects\lintech.obj (LINTECH)
  .\Objects\verificador.obj (VERIFICADOR)
  .\Objects\Monitor.obj (MONITOR)
  C:\KEIL_V5\C51\LIB\C51FPL.LIB (?C?FPADD)
  C:\KEIL_V5\C51\LIB\C51FPL.LIB (?C?FPMUL)
  C:\KEIL_V5\C51\LIB\C51FPL.LIB (?C?FCAST)
  C:\KEIL_V5\C51\LIB\C51FPL.LIB (?C?CASTF)
  C:\KEIL_V5\C51\LIB\C51FPL.LIB (PRINTF)
  C:\KEIL_V5\C51\LIB\C51FPL.LIB (POW)
  C:\KEIL_V5\C51\LIB\C51FPL.LIB (?C?FPGETOPN)
  C:\KEIL_V5\C51\LIB\C51FPL.LIB (?C?CHKFLOAT)
  C:\KEIL_V5\C51\LIB\C51FPL.LIB (?C?FPCMP)
  C:\KEIL_V5\C51\LIB\C51FPL.LIB (?C?FPNEG)
  C:\KEIL_V5\C51\LIB\C51FPL.LIB (?C?FPROUND)
  C:\KEIL_V5\C51\LIB\C51FPL.LIB (?C?FPCONVERT)
  C:\KEIL_V5\C51\LIB\C51FPL.LIB (EXP)
  C:\KEIL_V5\C51\LIB\C51FPL.LIB (LOG)
  C:\KEIL_V5\C51\LIB\C51FPL.LIB (?C?FPDIV)
  C:\KEIL_V5\C51\LIB\C51FPL.LIB (?C?FTNPWR)
  C:\KEIL_V5\C51\LIB\C51FPL.LIB (?C?FPSERIES)
  C:\KEIL_V5\C51\LIB\C51L.LIB (?C_STARTUP)
  C:\KEIL_V5\C51\LIB\C51L.LIB (?C?COPY)
  C:\KEIL_V5\C51\LIB\C51L.LIB (?C?CLDPTR)
  C:\KEIL_V5\C51\LIB\C51L.LIB (?C?CLDOPTR)
  C:\KEIL_V5\C51\LIB\C51L.LIB (?C?CSTPTR)
  C:\KEIL_V5\C51\LIB\C51L.LIB (?C?CSTOPTR)
  C:\KEIL_V5\C51\LIB\C51L.LIB (?C?IMUL)
  C:\KEIL_V5\C51\LIB\C51L.LIB (?C?IILDX)
  C:\KEIL_V5\C51\LIB\C51L.LIB (?C?LNEG)
  C:\KEIL_V5\C51\LIB\C51L.LIB (?C?SLCMP)
  C:\KEIL_V5\C51\LIB\C51L.LIB (?C?ULCMP)
  C:\KEIL_V5\C51\LIB\C51L.LIB (?C?ULSHR)
  C:\KEIL_V5\C51\LIB\C51L.LIB (?C?LSHL)
  C:\KEIL_V5\C51\LIB\C51L.LIB (?C?LLDCODE)
  C:\KEIL_V5\C51\LIB\C51L.LIB (?C?LLDXDATA0)
  C:\KEIL_V5\C51\LIB\C51L.LIB (?C?LLDCODE0)
BL51 BANKED LINKER/LOCATER V6.22.2.0                                                  08/19/2020  14:41:27  PAGE 2


  C:\KEIL_V5\C51\LIB\C51L.LIB (?C?LSTXDATA)
  C:\KEIL_V5\C51\LIB\C51L.LIB (?C?LSTKXDATA)
  C:\KEIL_V5\C51\LIB\C51L.LIB (?C?PLDIXDATA)
  C:\KEIL_V5\C51\LIB\C51L.LIB (?C?PSTXDATA)
  C:\KEIL_V5\C51\LIB\C51L.LIB (?C?CCASE)
  C:\KEIL_V5\C51\LIB\C51L.LIB (STRCAT)
  C:\KEIL_V5\C51\LIB\C51L.LIB (?C?STRCMP)
  C:\KEIL_V5\C51\LIB\C51L.LIB (?C?STRCPY)
  C:\KEIL_V5\C51\LIB\C51L.LIB (STRLEN)
  C:\KEIL_V5\C51\LIB\C51L.LIB (STRTOK)
  C:\KEIL_V5\C51\LIB\C51L.LIB (ATOL)
  C:\KEIL_V5\C51\LIB\C51L.LIB (ATOI)
  C:\KEIL_V5\C51\LIB\C51L.LIB (?C_INIT)
  C:\KEIL_V5\C51\LIB\C51L.LIB (?C?ILDIX)
  C:\KEIL_V5\C51\LIB\C51L.LIB (?C?LMUL)
  C:\KEIL_V5\C51\LIB\C51L.LIB (ISDIGIT)
  C:\KEIL_V5\C51\LIB\C51L.LIB (ISSPACE)
  C:\KEIL_V5\C51\LIB\C51L.LIB (STRSPN)
  C:\KEIL_V5\C51\LIB\C51L.LIB (STRPBRK)


LINK MAP OF MODULE:  .\Objects\expedidor_v_01_raspberry (MAIN)


            TYPE    BASE      LENGTH    RELOCATION   SEGMENT NAME
            -----------------------------------------------------

            * * * * * * *   D A T A   M E M O R Y   * * * * * * *
            REG     0000H     0008H     ABSOLUTE     "REG BANK 0"
            DATA    0008H     0005H     UNIT         _DATA_GROUP_
            DATA    000DH     0004H     UNIT         ?DT?UART
            IDATA   0011H     0009H     UNIT         ?ID?MONITOR
                    001AH     0006H                  *** GAP ***
            BIT     0020H.0   0001H.1   UNIT         _BIT_GROUP_
            BIT     0021H.1   0000H.2   UNIT         ?BI?MAIN
            BIT     0021H.3   0000H.2   UNIT         ?BI?UART
            BIT     0021H.5   0000H.1   UNIT         ?BI?EEPROM
            BIT     0021H.6   0000H.1   UNIT         ?BI?VERIFICADOR
                    0021H.7   0000H.1                *** GAP ***
            IDATA   0022H     0046H     UNIT         ?ID?MAIN
            IDATA   0068H     0028H     UNIT         ?ID?PANTALLAS
            IDATA   0090H     0001H     UNIT         ?STACK

            * * * * * * *  X D A T A   M E M O R Y  * * * * * * *
            XDATA   0000H     00B8H     UNIT         _XDATA_GROUP_
            XDATA   00B8H     008AH     UNIT         ?XD?VERIFICADOR
            XDATA   0142H     006BH     UNIT         ?XD?MAIN
            XDATA   01ADH     0059H     UNIT         ?XD?PROG
            XDATA   0206H     0003H     UNIT         ?XD?EEPROM
            XDATA   0209H     0003H     UNIT         ?XD?UART
            XDATA   020CH     0003H     UNIT         ?XD?STRTOK
            XDATA   020FH     0001H     UNIT         ?XD?ACCESCAN
            XDATA   0210H     0001H     UNIT         ?XD?CLOCK
            XDATA   0211H     0001H     UNIT         ?XD?IO_SENSORES

            * * * * * * *   C O D E   M E M O R Y   * * * * * * *
            CODE    0000H     0003H     ABSOLUTE     
BL51 BANKED LINKER/LOCATER V6.22.2.0                                                  08/19/2020  14:41:27  PAGE 3


            CODE    0003H     0008H     UNIT         ?PR?P_CK?CLOCK
            CODE    000BH     0003H     ABSOLUTE     
            CODE    000EH     0015H     UNIT         ?PR?_STRLEN?STRLEN
            CODE    0023H     0003H     ABSOLUTE     
            CODE    0026H     1308H     UNIT         ?CO?PROG
            CODE    132EH     0B8BH     UNIT         ?C?LIB_CODE
            CODE    1EB9H     072CH     UNIT         ?CO?VERIFICADOR
            CODE    25E5H     06BFH     UNIT         ?CO?PANTALLAS
            CODE    2CA4H     05D9H     UNIT         ?PR?_PANTALLALCD?PANTALLAS
            CODE    327DH     0483H     UNIT         ?PR?PRINTF?PRINTF
            CODE    3700H     0435H     UNIT         ?PR?_SECUENCIAEXPEDIDORMF?VERIFICADOR
            CODE    3B35H     035CH     UNIT         ?PR?VER_PROG?PROG
            CODE    3E91H     033EH     UNIT         ?PR?_VALIDA_TRAMA_PTO?ACCESCAN
            CODE    41CFH     02D0H     UNIT         ?PR?_TWO_BYTEHEX_DECIMAL?CLOCK
            CODE    449FH     02B7H     UNIT         ?PR?_PROG_HORARIO_DIAS?PROG
            CODE    4756H     0228H     UNIT         ?PR?MENU?PROG
            CODE    497EH     021EH     UNIT         ?PR?_PANTALLALCD_LINEA_2?PANTALLAS
            CODE    4B9CH     0208H     UNIT         ?PR?_HASH_ID?PROG
            CODE    4DA4H     01FAH     UNIT         ?PR?_PROG_HORARIO_DESDE_HASTA?PROG
            CODE    4F9EH     01F5H     UNIT         ?PR?PROG_FECHA_VENCIMIENTO?PROG
            CODE    5193H     01DFH     UNIT         ?PR?_RESPONDE_LECTURA_TARJETA_SECTOR1_BLOQUE1?VERIFICADOR
            CODE    5372H     01B3H     UNIT         ?PR?COM_ISR?UART
            CODE    5525H     01A5H     UNIT         ?PR?_VALIDA_TIPO_TARJETA?VERIFICADOR
            CODE    56CAH     0198H     UNIT         ?PR?ARMAR_TRAMA_PTO_PARALELO_EXPEDIDOR?VERIFICADOR
            CODE    5862H     017AH     UNIT         ?CO?LINTECH
            CODE    59DCH     016EH     UNIT         ?PR?_BLOCK_READ_CLOCK_ASCII?CLOCK
            CODE    5B4AH     0166H     UNIT         ?PR?_POW?POW
            CODE    5CB0H     0154H     UNIT         ?PR?_ARMAR_TRAMA_MONITOR?VERIFICADOR
            CODE    5E04H     0145H     UNIT         ?PR?PROG_HORARIOS?PROG
            CODE    5F49H     0142H     UNIT         ?PR?_ARMAR_TRAMA_TARJETA_SECTOR1_BLOQUE2?VERIFICADOR
            CODE    608BH     013EH     UNIT         ?PR?PROG_SIN_COBRO?PROG
            CODE    61C9H     013EH     UNIT         ?PR?SECUENCIA_INICIO_EXPEDIDOR?VERIFICADOR
            CODE    6307H     0137H     UNIT         ?PR?VER_HORARIO?PROG
            CODE    643EH     012BH     UNIT         ?PR?_RESPONDE_LECTURA_TARJETA_SECTOR1_BLOQUE2?VERIFICADOR
            CODE    6569H     0129H     UNIT         ?PR?LOG?LOG
            CODE    6692H     0128H     UNIT         ?PR?_VER_HORARIO_DIAS?PROG
            CODE    67BAH     011CH     UNIT         ?PR?LOAD_AND_SEND_ID_COD?PTO_PARALELO
            CODE    68D6H     011AH     UNIT         ?PR?_PROG_HORARIOS_ON_OFF?PROG
            CODE    69F0H     0119H     UNIT         ?PR?_VER_HORARIO_DESDE_HASTA?PROG
            CODE    6B09H     0115H     UNIT         ?PR?_VALIDAR_CLK?CLOCK
            CODE    6C1EH     010FH     UNIT         ?PR?_HORARIOS?VERIFICADOR
            CODE    6D2DH     010CH     UNIT         ?PR?_ATOL?ATOL
            CODE    6E39H     0103H     UNIT         ?PR?_BLOQUE_HORARIO?VERIFICADOR
            CODE    6F3CH     0100H     UNIT         ?PR?_WR_MF?LINTECH
            CODE    703CH     00FCH     UNIT         ?PR?PROG_DEBUG?PROG
            CODE    7138H     00FCH     UNIT         ?PR?PROG_USE_LPR?PROG
            CODE    7234H     00FCH     UNIT         ?PR?TIPO_PANTALLA?PROG
            CODE    7330H     00FCH     UNIT         ?PR?PROG_ANTIPASSBACK?PROG
            CODE    742CH     00FCH     UNIT         ?PR?PROG_PLACA?PROG
            CODE    7528H     00FCH     UNIT         ?PR?PROG_VALIDAR_TIPO_VEHICULO_MENSUAL?PROG
            CODE    7624H     00FCH     UNIT         ?PR?PROG_APB_MENSUAL?PROG
            CODE    7720H     00F1H     UNIT         ?PR?_WRITE_EEPROM_TICKET?EEPROM
            CODE    7811H     00EAH     UNIT         ?PR?_MOV_CARD?LINTECH
            CODE    78FBH     00E4H     UNIT         ?PR?_STRTOK?STRTOK
            CODE    79DFH     00DEH     UNIT         ?PR?PROG_ADDRESS_HIGH_BOARD?PROG
            CODE    7ABDH     00DBH     UNIT         ?PR?_ATOI?ATOI
            CODE    7B98H     00D7H     UNIT         ?PR?_ANALIZA_UID_CARD?VERIFICADOR
BL51 BANKED LINKER/LOCATER V6.22.2.0                                                  08/19/2020  14:41:27  PAGE 4


            CODE    7C6FH     00D6H     UNIT         ?PR?_CMD_LPR_SALIDA_WIEGAND?ACCESCAN
            CODE    7D45H     00CCH     UNIT         ?PR?_GRABA_SERIE?EEPROM
            CODE    7E11H     00CBH     UNIT         ?PR?_RTA_CMD_TRANSPORTE?VERIFICADOR
            CODE    7EDCH     00CAH     UNIT         ?PR?READ_EEPROM_TICKET?EEPROM
            CODE    7FA6H     00C9H     UNIT         ?PR?_CHECK_FECHAOUT?CLOCK
            CODE    806FH     00C4H     UNIT         ?PR?_BLOCK_READ_CLOCK?CLOCK
            CODE    8133H     00C4H     UNIT         ?PR?_TARJETA_MENSUAL?VERIFICADOR
            CODE    81F7H     00C3H     UNIT         ?PR?_RD_MF?LINTECH
            CODE    82BAH     00C2H     UNIT         ?PR?PROG_TARJETA_AUTOMATICA_O_BOTON?PROG
            CODE    837CH     00C1H     UNIT         ?PR?_ARMAR_TRAMA_PTO_PARALELO_EXPEDIDOR_MENSUAL?VERIFICADOR
            CODE    843DH     00C1H     UNIT         ?PR?_RECIBE_CMD_MONITOR?MONITOR
            CODE    84FEH     00BFH     UNIT         ?C_INITSEG
            CODE    85BDH     00BEH     UNIT         ?PR?ERROR_RX_PTO?VERIFICADOR
            CODE    867BH     00BDH     UNIT         ?PR?PROG_COD_PARK?PROG
            CODE    8738H     00BDH     UNIT         ?PR?PROG_TIEMPO_GRACIA?PROG
            CODE    87F5H     00BAH     UNIT         ?CO?TIBBO
            CODE    88AFH     00B6H     UNIT         ?PR?PROG_ID_CLIENTE?PROG
            CODE    8965H     00B4H     UNIT         ?PR?_SEND_PORT?PTO_PARALELO
            CODE    8A19H     00ADH     UNIT         ?CO?IO_SENSORES
            CODE    8AC6H     00ACH     UNIT         ?PR?_HORA_MAXIMA?VERIFICADOR
            CODE    8B72H     00AAH     UNIT         ?PR?CLAVE_SEGURIDAD_S2?LINTECH
            CODE    8C1CH     00A9H     UNIT         ?PR?DWLOAD_EEPROM?LINTECH
            CODE    8CC5H     00A6H     UNIT         ?PR?_BLOCK_READ_CLOCK_HEX?CLOCK
            CODE    8D6BH     00A3H     UNIT         ?PR?_WAIT_PLACA?VERIFICADOR
            CODE    8E0EH     009DH     UNIT         ?PR?_INICIALIZA?LINTECH
            CODE    8EABH     009AH     UNIT         ?PR?_RESPONDE_LECTURA_TARJETA_SECTOR1_BLOQUE0?VERIFICADOR
            CODE    8F45H     009AH     UNIT         ?PR?EXP?EXP
            CODE    8FDFH     0099H     UNIT         ?PR?SHOW?PROG
            CODE    9078H     0099H     UNIT         ?PR?_RECIBE_PORT?PTO_PARALELO
            CODE    9111H     0098H     UNIT         ?PR?_VALIDA_VEHICULO_CARD_MENSUAL?VERIFICADOR
            CODE    91A9H     0095H     UNIT         ?PR?_VALIDA_TRAMA_MONITOR?MONITOR
            CODE    923EH     0091H     UNIT         ?PR?_HEX_ASCII?CLOCK
            CODE    92CFH     0091H     UNIT         ?PR?_CARD_INSERCION?LINTECH
            CODE    9360H     0091H     UNIT         ?PR?LOADVERIFY_EEPROM?LINTECH
            CODE    93F1H     0090H     UNIT         ?PR?_LEE_CLK?CLOCK
            CODE    9481H     0090H     UNIT         ?PR?_GETOPTION?PROG
            CODE    9511H     008FH     UNIT         ?PR?_BLOCK_WRITE_CLOCK_ASCII?CLOCK
            CODE    95A0H     008FH     UNIT         ?PR?_RESPONDE_WRITE_TARJETA_SECTOR1_BLOQUE2?VERIFICADOR
            CODE    962FH     008CH     UNIT         ?C_C51STARTUP
            CODE    96BBH     0088H     UNIT         ?PR?_SEND_PORTERR?PTO_PARALELO
            CODE    9743H     0088H     UNIT         ?PR?RX_DATA?TIBBO
            CODE    97CBH     0088H     UNIT         ?PR?UNIQUE_IDENTIFIER_UID?LINTECH
            CODE    9853H     0088H     UNIT         ?PR?_SEND_PTO_PARALELO?VERIFICADOR
            CODE    98DBH     0084H     UNIT         ?PR?_STRSPN?STRSPN
            CODE    995FH     0081H     UNIT         ?PR?MAIN?MAIN
            CODE    99E0H     0081H     UNIT         ?PR?_STRPBRK?STRPBRK
            CODE    9A61H     0080H     UNIT         ?PR?MSJ_LCD_INFORMATIVO?IO_SENSORES
            CODE    9AE1H     0080H     UNIT         ?PR?_INGRESADATO?PROG
            CODE    9B61H     0080H     UNIT         ?PR?AUT_CARD_CHECK_STATUS?LINTECH
            CODE    9BE1H     0080H     UNIT         ?PR?POWER_OFF?LINTECH
            CODE    9C61H     007CH     UNIT         ?PR?_CHECK_STATUS?LINTECH
            CODE    9CDDH     007CH     UNIT         ?PR?RESPONDE_ESTADO_SENSORES_TRANSPORTE?VERIFICADOR
            CODE    9D59H     0079H     UNIT         ?PR?ENTREGA_CARD_CAPTURA?VERIFICADOR
            CODE    9DD2H     0073H     UNIT         ?PR?_DEBUGBUFFERMF?TIBBO
            CODE    9E45H     0071H     UNIT         ?PR?RESPONDE_TIPO_TARJETA?VERIFICADOR
            CODE    9EB6H     0071H     UNIT         ?PR?_EN_HORARIO?VERIFICADOR
            CODE    9F27H     006FH     UNIT         ?PR?_ESCRIBIRMEMORIA?EEPROM
BL51 BANKED LINKER/LOCATER V6.22.2.0                                                  08/19/2020  14:41:27  PAGE 5


            CODE    9F96H     006BH     UNIT         ?PR?_STRCAT?STRCAT
            CODE    A001H     0066H     UNIT         ?PR?_LEERMEMORIA?EEPROM
            CODE    A067H     0066H     UNIT         ?PR?_DISPARO_LOCK_ENTRADA_VEHICULO?VERIFICADOR
            CODE    A0CDH     0062H     UNIT         ?PR?_LISTACOMANDOS?PROG
            CODE    A12FH     0061H     UNIT         ?PR?_PREGUNTA_LPR?VERIFICADOR
            CODE    A190H     005EH     UNIT         ?PR?_BYTEHEX_DECIMAL?CLOCK
            CODE    A1EEH     005DH     UNIT         ?PR?_RESPUESTA_SEGUNDA_CLAVE?VERIFICADOR
            CODE    A24BH     005AH     UNIT         ?PR?RASPBERRY_DATA1?PANTALLAS
            CODE    A2A5H     0059H     UNIT         ?PR?INGRESO_VEHICULO?VERIFICADOR
            CODE    A2FEH     0058H     UNIT         ?PR?VALIDA_SENSOR1_AUTO?IO_SENSORES
            CODE    A356H     0058H     UNIT         ?PR?_ARMAR_TRAMA_PLACA?VERIFICADOR
            CODE    A3AEH     0056H     UNIT         ?PR?_WR_EEPROM?EEPROM
            CODE    A404H     0055H     UNIT         ?PR?RELOJ_PANTALLA_LCD?PANTALLAS
            CODE    A459H     004DH     UNIT         ?PR?VARIABLE_INICIO?MAIN
            CODE    A4A6H     004DH     UNIT         ?PR?L_D_M?EEPROM
            CODE    A4F3H     004CH     UNIT         ?PR?LEE_NO_TICKET?EEPROM
            CODE    A53FH     004BH     UNIT         ?PR?_TX_AUX?TIBBO
            CODE    A58AH     0049H     UNIT         ?PR?_DEBUG_TXT_TIBBO?TIBBO
            CODE    A5D3H     0048H     UNIT         ?PR?FIRST_CLAVE?PROG
            CODE    A61BH     0047H     UNIT         ?PR?_DEBUG_CHR_TIBBO?TIBBO
            CODE    A662H     0047H     UNIT         ?PR?_RESPONDE_WRITE_TARJETA_SECTOR2_BLOQUE0?VERIFICADOR
            CODE    A6A9H     0046H     UNIT         ?PR?_ESCRIBIRCADENASOFT_BUFFER?MAIN
            CODE    A6EFH     0046H     UNIT         ?PR?_LCD_TXT_NUM_CHAR?PANTALLAS
            CODE    A735H     0046H     UNIT         ?PR?_DEBUG_HEXDEC?TIBBO
            CODE    A77BH     0044H     UNIT         ?PR?_LCD_TXT?PANTALLAS
            CODE    A7BFH     0043H     UNIT         ?PR?DIR_BOARD?IO_SENSORES
            CODE    A802H     0042H     UNIT         ?PR?_VALIDARCLAVE?PROG
            CODE    A844H     0041H     UNIT         ?PR?_MONITOR_CHR?ACCESCAN
            CODE    A885H     0041H     UNIT         ?PR?_TWO_ONE?CLOCK
            CODE    A8C6H     0040H     UNIT         ?PR?_GETCMD?PROG
            CODE    A906H     003FH     UNIT         ?PR?_EB_CLK?CLOCK
            CODE    A945H     003EH     UNIT         ?PR?_PUTCHAR?MAIN
            CODE    A983H     003DH     UNIT         ?PR?_HEX_BCD?CLOCK
            CODE    A9C0H     003DH     UNIT         ?PR?_RD_EEPROM?EEPROM
            CODE    A9FDH     003DH     UNIT         ?PR?_LOAD_SECUENCIA_EXPEDIDOR?VERIFICADOR
            CODE    AA3AH     003BH     UNIT         ?CO?EEPROM
            CODE    AA75H     003BH     UNIT         ?PR?_DEBUG_PTO_PARALELO?TIBBO
            CODE    AAB0H     003BH     UNIT         ?PR?_COM_PUTCHAR?UART
            CODE    AAEBH     003AH     UNIT         ?PR?_DELAY_10MS?DELAY
            CODE    AB25H     0038H     UNIT         ?PR?VALIDASENSORESPASO?IO_SENSORES
            CODE    AB5DH     0036H     UNIT         ?PR?_RESPONDE_WRITE_TARJETA_SECTOR1_BLOQUE0?VERIFICADOR
            CODE    AB93H     0034H     UNIT         ?PR?INCREMENTE_TICKET?EEPROM
            CODE    ABC7H     0034H     UNIT         ?PR?ADDR_HORARIOS?PROG
            CODE    ABFBH     0033H     UNIT         ?PR?TRAMA_VALIDACION_P_N?VERIFICADOR
            CODE    AC2EH     0032H     UNIT         ?PR?_DEBUG_MONITOR?TIBBO
            CODE    AC60H     0031H     UNIT         ?PR?_TARJETA_ROTACION?VERIFICADOR
            CODE    AC91H     002EH     UNIT         ?PR?TIMER0_INT?MAIN
            CODE    ACBFH     002CH     UNIT         ?PR?LOAD_AND_SEND_INFO_RELOJ?PTO_PARALELO
            CODE    ACEBH     002AH     UNIT         ?PR?COM_INITIALIZE?UART
            CODE    AD15H     0028H     UNIT         ?PR?_WR_CLK?CLOCK
            CODE    AD3DH     0028H     UNIT         ?PR?COM_BAUDRATE?UART
            CODE    AD65H     0028H     UNIT         ?PR?_ARMAR_TRAMA_TARJETA_SECTOR1_BLOQUE0?VERIFICADOR
            CODE    AD8DH     0027H     UNIT         ?PR?_TX_CHRLCD?PANTALLAS
            CODE    ADB4H     0026H     UNIT         ?PR?COM_GETCHAR?UART
            CODE    ADDAH     0026H     UNIT         ?PR?ANALIZA_PRESENCIA_MENSUAL?VERIFICADOR
            CODE    AE00H     0026H     UNIT         ?PR?RX_MONITOR?MONITOR
            CODE    AE26H     0023H     UNIT         ?PR?ANALIZA_PRESENCIA_ROTACION?VERIFICADOR
BL51 BANKED LINKER/LOCATER V6.22.2.0                                                  08/19/2020  14:41:27  PAGE 6


            CODE    AE49H     0022H     UNIT         ?PR?_E_D_M?EEPROM
            CODE    AE6BH     0020H     UNIT         ?PR?ACKD?EEPROM
            CODE    AE8BH     0020H     UNIT         ?PR?ACK_LECT?EEPROM
            CODE    AEABH     001FH     UNIT         ?PR?VALIDASENSOR?IO_SENSORES
            CODE    AECAH     001FH     UNIT         ?PR?TIME_BIT?TIBBO
            CODE    AEE9H     001EH     UNIT         ?PR?_BCD_HEX?CLOCK
            CODE    AF07H     001BH     UNIT         ?PR?_DELAY_1MS?DELAY
            CODE    AF22H     0018H     UNIT         ?PR?CLEAR_PLACA?MONITOR
            CODE    AF3AH     0017H     UNIT         ?PR?DISPLAYCURSOR?PROG
            CODE    AF51H     0017H     UNIT         ?PR?TIME_MBIT?TIBBO
            CODE    AF68H     0014H     UNIT         ?PR?DEBUG_DIVIDIR_TEXTO?TIBBO
            CODE    AF7CH     0014H     UNIT         ?PR?_ISSPACE?ISSPACE
            CODE    AF90H     0012H     UNIT         ?PR?_DELAY_20US?DELAY
            CODE    AFA2H     0012H     UNIT         ?PR?START?EEPROM
            CODE    AFB4H     0012H     UNIT         ?PR?PULSO_BUS?PTO_PARALELO
            CODE    AFC6H     0012H     UNIT         ?PR?COM_RBUFLEN?UART
            CODE    AFD8H     0012H     UNIT         ?PR?COM_TBUFLEN?UART
            CODE    AFEAH     0010H     UNIT         ?PR?INI_TIMER?MAIN
            CODE    AFFAH     0010H     UNIT         ?PR?INICIA_BOARD?MAIN
            CODE    B00AH     000FH     UNIT         ?PR?_ISDIGIT?ISDIGIT
            CODE    B019H     000CH     UNIT         ?PR?_GETKEY?MAIN
            CODE    B025H     000AH     UNIT         ?PR?COND_INI_PTO?PTO_PARALELO
            CODE    B02FH     0009H     UNIT         ?PR?STOP?EEPROM
            CODE    B038H     0009H     UNIT         ?PR?CAPTURA_EXPULSA?VERIFICADOR
            CODE    B041H     0007H     UNIT         ?PR?COND_INI_CLOCK?CLOCK
            CODE    B048H     0007H     UNIT         ?PR?SEL_FUNCION?IO_SENSORES
            CODE    B04FH     0007H     UNIT         ?PR?SEL_AUTO?IO_SENSORES
            CODE    B056H     0007H     UNIT         ?PR?SEL_PULSA?IO_SENSORES
            CODE    B05DH     0007H     UNIT         ?PR?SEL_SENSOR2?IO_SENSORES
            CODE    B064H     0007H     UNIT         ?PR?SEL_SENSOR1?IO_SENSORES
            CODE    B06BH     0007H     UNIT         ?PR?SEL_DIR1?IO_SENSORES
            CODE    B072H     0007H     UNIT         ?PR?SEL_DIR2?IO_SENSORES
            CODE    B079H     0006H     UNIT         ?PR?P_ME?EEPROM
            CODE    B07FH     0005H     UNIT         ?PR?ON_TIMER0_INTERRUP?MAIN
            CODE    B084H     0005H     UNIT         ?CO?ACCESCAN
            CODE    B089H     0005H     UNIT         ?PR?COND_INI_TIBBO?TIBBO
            CODE    B08EH     0003H     UNIT         ?PR?OFF_TIMER0_INTERRUP?MAIN
            CODE    B091H     0003H     UNIT         ?CO?PTO_PARALELO
            CODE    B094H     0001H     UNIT         ?PR?DELAY?DELAY



OVERLAY MAP OF MODULE:   .\Objects\expedidor_v_01_raspberry (MAIN)


SEGMENT                                             BIT_GROUP          DATA_GROUP          XDATA_GROUP
  +--> CALLED SEGMENT                            START    LENGTH     START    LENGTH     START    LENGTH
--------------------------------------------------------------------------------------------------------
?C_C51STARTUP                                    -----    -----      -----    -----      -----    -----
  +--> ?PR?MAIN?MAIN
  +--> ?C_INITSEG

?PR?MAIN?MAIN                                    -----    -----      -----    -----      0000H    0002H
  +--> ?PR?INI_TIMER?MAIN
  +--> ?PR?ON_TIMER0_INTERRUP?MAIN
  +--> ?PR?COM_INITIALIZE?UART
  +--> ?PR?COM_BAUDRATE?UART
BL51 BANKED LINKER/LOCATER V6.22.2.0                                                  08/19/2020  14:41:27  PAGE 7


  +--> ?PR?INICIA_BOARD?MAIN
  +--> ?PR?TIME_BIT?TIBBO
  +--> ?PR?_DELAY_20US?DELAY
  +--> ?PR?TIME_MBIT?TIBBO
  +--> ?PR?_TX_AUX?TIBBO
  +--> ?PR?SEL_FUNCION?IO_SENSORES
  +--> ?PR?MENU?PROG
  +--> ?PR?VARIABLE_INICIO?MAIN
  +--> ?PR?SECUENCIA_INICIO_EXPEDIDOR?VERIFI...
  +--> ?PR?RX_MONITOR?MONITOR
  +--> ?PR?_SECUENCIAEXPEDIDORMF?VERIFICADOR
  +--> ?PR?_RECIBE_PORT?PTO_PARALELO
  +--> ?PR?_DEBUG_PTO_PARALELO?TIBBO
  +--> ?PR?_VALIDA_TRAMA_PTO?ACCESCAN
  +--> ?PR?MSJ_LCD_INFORMATIVO?IO_SENSORES

?PR?COM_INITIALIZE?UART                          -----    -----      -----    -----      -----    -----
  +--> ?PR?COM_BAUDRATE?UART

?PR?INICIA_BOARD?MAIN                            -----    -----      -----    -----      -----    -----
  +--> ?PR?COND_INI_TIBBO?TIBBO
  +--> ?PR?COND_INI_CLOCK?CLOCK
  +--> ?PR?COND_INI_PTO?PTO_PARALELO

?PR?_TX_AUX?TIBBO                                -----    -----      -----    -----      -----    -----
  +--> ?PR?TIME_BIT?TIBBO

?PR?MENU?PROG                                    -----    -----      -----    -----      0002H    0045H
  +--> ?CO?PROG
  +--> ?PR?PRINTF?PRINTF
  +--> ?PR?_RD_EEPROM?EEPROM
  +--> ?PR?FIRST_CLAVE?PROG
  +--> ?PR?_WR_EEPROM?EEPROM
  +--> ?PR?_LEERMEMORIA?EEPROM
  +--> ?PR?_HASH_ID?PROG
  +--> ?PR?_INGRESADATO?PROG
  +--> ?PR?_GETCMD?PROG
  +--> ?PR?_ESCRIBIRMEMORIA?EEPROM
  +--> ?PR?_VALIDARCLAVE?PROG
  +--> ?PR?DISPLAYCURSOR?PROG
  +--> ?PR?_STRLEN?STRLEN
  +--> ?PR?_GETOPTION?PROG
  +--> ?PR?_STRCAT?STRCAT
  +--> ?PR?_LISTACOMANDOS?PROG
  +--> ?PR?PROG_ID_CLIENTE?PROG
  +--> ?PR?PROG_COD_PARK?PROG
  +--> ?PR?PROG_TIEMPO_GRACIA?PROG
  +--> ?PR?PROG_SIN_COBRO?PROG
  +--> ?PR?PROG_DEBUG?PROG
  +--> ?PR?PROG_USE_LPR?PROG
  +--> ?PR?TIPO_PANTALLA?PROG
  +--> ?PR?PROG_TARJETA_AUTOMATICA_O_BOTON?PROG
  +--> ?PR?PROG_ANTIPASSBACK?PROG
  +--> ?PR?PROG_PLACA?PROG
  +--> ?PR?PROG_ADDRESS_HIGH_BOARD?PROG
  +--> ?PR?PROG_HORARIOS?PROG
  +--> ?PR?PROG_VALIDAR_TIPO_VEHICULO_MENSUA...
BL51 BANKED LINKER/LOCATER V6.22.2.0                                                  08/19/2020  14:41:27  PAGE 8


  +--> ?PR?PROG_APB_MENSUAL?PROG
  +--> ?PR?VER_PROG?PROG
  +--> ?PR?SHOW?PROG
  +--> ?PR?PROG_FECHA_VENCIMIENTO?PROG

?PR?PRINTF?PRINTF                                0020H.0  0001H.1    0008H    0005H      0078H    0030H
  +--> ?PR?_PUTCHAR?MAIN

?PR?_PUTCHAR?MAIN                                -----    -----      -----    -----      00A8H    0003H
  +--> ?PR?_COM_PUTCHAR?UART

?PR?_COM_PUTCHAR?UART                            -----    -----      -----    -----      00ABH    0001H
  +--> ?PR?COM_TBUFLEN?UART

?PR?_RD_EEPROM?EEPROM                            -----    -----      -----    -----      -----    -----
  +--> ?PR?START?EEPROM
  +--> ?PR?ACK_LECT?EEPROM
  +--> ?PR?_E_D_M?EEPROM
  +--> ?PR?ACKD?EEPROM
  +--> ?PR?L_D_M?EEPROM
  +--> ?PR?STOP?EEPROM

?PR?ACK_LECT?EEPROM                              -----    -----      -----    -----      -----    -----
  +--> ?PR?_E_D_M?EEPROM

?PR?_E_D_M?EEPROM                                -----    -----      -----    -----      -----    -----
  +--> ?PR?P_ME?EEPROM

?PR?ACKD?EEPROM                                  -----    -----      -----    -----      -----    -----
  +--> ?PR?_E_D_M?EEPROM

?PR?FIRST_CLAVE?PROG                             -----    -----      -----    -----      0047H    000BH
  +--> ?PR?_BLOCK_READ_CLOCK_ASCII?CLOCK
  +--> ?PR?_HASH_ID?PROG
  +--> ?PR?_ESCRIBIRMEMORIA?EEPROM

?PR?_BLOCK_READ_CLOCK_ASCII?CLOCK                -----    -----      -----    -----      0052H    0003H
  +--> ?PR?_LEE_CLK?CLOCK

?PR?_LEE_CLK?CLOCK                               -----    -----      -----    -----      00B2H    0003H
  +--> ?PR?_DELAY_20US?DELAY
  +--> ?PR?_EB_CLK?CLOCK
  +--> ?PR?P_CK?CLOCK

?PR?_EB_CLK?CLOCK                                -----    -----      -----    -----      00B5H    0003H
  +--> ?PR?P_CK?CLOCK

?PR?P_CK?CLOCK                                   -----    -----      -----    -----      -----    -----
  +--> ?PR?DELAY?DELAY

?PR?_HASH_ID?PROG                                -----    -----      -----    -----      005EH    003FH
  +--> ?CO?PROG
  +--> ?PR?_LEERMEMORIA?EEPROM
  +--> ?PR?_CHECK_FECHAOUT?CLOCK
  +--> ?PR?_STRLEN?STRLEN

?PR?_LEERMEMORIA?EEPROM                          -----    -----      -----    -----      009DH    0005H
BL51 BANKED LINKER/LOCATER V6.22.2.0                                                  08/19/2020  14:41:27  PAGE 9


  +--> ?PR?_RD_EEPROM?EEPROM

?PR?_CHECK_FECHAOUT?CLOCK                        -----    -----      -----    -----      009DH    0012H
  +--> ?PR?_BLOCK_READ_CLOCK_HEX?CLOCK

?PR?_BLOCK_READ_CLOCK_HEX?CLOCK                  -----    -----      -----    -----      00AFH    0003H
  +--> ?PR?_LEE_CLK?CLOCK
  +--> ?PR?_BCD_HEX?CLOCK

?PR?_ESCRIBIRMEMORIA?EEPROM                      -----    -----      -----    -----      005EH    0005H
  +--> ?PR?_WR_EEPROM?EEPROM

?PR?_WR_EEPROM?EEPROM                            -----    -----      -----    -----      -----    -----
  +--> ?PR?START?EEPROM
  +--> ?PR?ACKD?EEPROM
  +--> ?PR?_E_D_M?EEPROM
  +--> ?PR?STOP?EEPROM
  +--> ?PR?_DELAY_1MS?DELAY
  +--> ?PR?_DELAY_20US?DELAY

?PR?_DELAY_1MS?DELAY                             -----    -----      -----    -----      -----    -----
  +--> ?PR?_DELAY_20US?DELAY

?PR?_INGRESADATO?PROG                            -----    -----      -----    -----      0072H    0004H
  +--> ?PR?_GETKEY?MAIN
  +--> ?CO?PROG
  +--> ?PR?PRINTF?PRINTF
  +--> ?PR?_PUTCHAR?MAIN

?PR?_GETKEY?MAIN                                 -----    -----      -----    -----      -----    -----
  +--> ?PR?COM_GETCHAR?UART

?PR?COM_GETCHAR?UART                             -----    -----      -----    -----      -----    -----
  +--> ?PR?COM_RBUFLEN?UART

?PR?_GETCMD?PROG                                 -----    -----      -----    -----      005EH    0007H
  +--> ?CO?PROG
  +--> ?PR?_STRTOK?STRTOK

?PR?_STRTOK?STRTOK                               -----    -----      -----    -----      0065H    0006H
  +--> ?PR?_STRSPN?STRSPN
  +--> ?PR?_STRPBRK?STRPBRK

?PR?_STRSPN?STRSPN                               -----    -----      -----    -----      006BH    0008H

?PR?_STRPBRK?STRPBRK                             -----    -----      -----    -----      006BH    0009H

?PR?_VALIDARCLAVE?PROG                           -----    -----      -----    -----      005EH    000EH

?PR?DISPLAYCURSOR?PROG                           -----    -----      -----    -----      -----    -----
  +--> ?CO?PROG
  +--> ?PR?PRINTF?PRINTF

?PR?_GETOPTION?PROG                              -----    -----      -----    -----      0047H    000BH
  +--> ?CO?PROG
  +--> ?PR?_STRTOK?STRTOK

BL51 BANKED LINKER/LOCATER V6.22.2.0                                                  08/19/2020  14:41:27  PAGE 10


?PR?_STRCAT?STRCAT                               -----    -----      -----    -----      0047H    0009H

?PR?_LISTACOMANDOS?PROG                          -----    -----      -----    -----      0047H    0007H

?PR?PROG_ID_CLIENTE?PROG                         -----    -----      -----    -----      0047H    000CH
  +--> ?PR?_RD_EEPROM?EEPROM
  +--> ?CO?PROG
  +--> ?PR?PRINTF?PRINTF
  +--> ?PR?_INGRESADATO?PROG
  +--> ?PR?_ATOI?ATOI
  +--> ?PR?_WR_EEPROM?EEPROM

?PR?_ATOI?ATOI                                   0020H.0  0000H.1    -----    -----      0072H    0005H
  +--> ?PR?_ISSPACE?ISSPACE
  +--> ?PR?_ISDIGIT?ISDIGIT

?PR?PROG_COD_PARK?PROG                           -----    -----      -----    -----      0047H    000CH
  +--> ?PR?_RD_EEPROM?EEPROM
  +--> ?CO?PROG
  +--> ?PR?PRINTF?PRINTF
  +--> ?PR?_INGRESADATO?PROG
  +--> ?PR?_ATOI?ATOI
  +--> ?PR?_WR_EEPROM?EEPROM

?PR?PROG_TIEMPO_GRACIA?PROG                      -----    -----      -----    -----      0047H    000CH
  +--> ?PR?_RD_EEPROM?EEPROM
  +--> ?CO?PROG
  +--> ?PR?PRINTF?PRINTF
  +--> ?PR?_INGRESADATO?PROG
  +--> ?PR?_ATOI?ATOI
  +--> ?PR?_WR_EEPROM?EEPROM

?PR?PROG_SIN_COBRO?PROG                          -----    -----      -----    -----      0047H    000CH
  +--> ?PR?_RD_EEPROM?EEPROM
  +--> ?CO?PROG
  +--> ?PR?PRINTF?PRINTF
  +--> ?PR?_INGRESADATO?PROG
  +--> ?PR?_ATOI?ATOI
  +--> ?PR?_WR_EEPROM?EEPROM

?PR?PROG_DEBUG?PROG                              -----    -----      -----    -----      0047H    000CH
  +--> ?PR?_RD_EEPROM?EEPROM
  +--> ?CO?PROG
  +--> ?PR?PRINTF?PRINTF
  +--> ?PR?_INGRESADATO?PROG
  +--> ?PR?_ATOI?ATOI
  +--> ?PR?_WR_EEPROM?EEPROM

?PR?PROG_USE_LPR?PROG                            -----    -----      -----    -----      0047H    000CH
  +--> ?PR?_RD_EEPROM?EEPROM
  +--> ?CO?PROG
  +--> ?PR?PRINTF?PRINTF
  +--> ?PR?_INGRESADATO?PROG
  +--> ?PR?_ATOI?ATOI
  +--> ?PR?_WR_EEPROM?EEPROM

?PR?TIPO_PANTALLA?PROG                           -----    -----      -----    -----      0047H    000CH
BL51 BANKED LINKER/LOCATER V6.22.2.0                                                  08/19/2020  14:41:27  PAGE 11


  +--> ?PR?_RD_EEPROM?EEPROM
  +--> ?CO?PROG
  +--> ?PR?PRINTF?PRINTF
  +--> ?PR?_INGRESADATO?PROG
  +--> ?PR?_ATOI?ATOI
  +--> ?PR?_WR_EEPROM?EEPROM

?PR?PROG_TARJETA_AUTOMATICA_O_BOTON?PROG         -----    -----      -----    -----      0047H    000CH
  +--> ?PR?_RD_EEPROM?EEPROM
  +--> ?CO?PROG
  +--> ?PR?PRINTF?PRINTF
  +--> ?PR?_INGRESADATO?PROG
  +--> ?PR?_ATOI?ATOI
  +--> ?PR?_WR_EEPROM?EEPROM

?PR?PROG_ANTIPASSBACK?PROG                       -----    -----      -----    -----      0047H    000CH
  +--> ?PR?_RD_EEPROM?EEPROM
  +--> ?CO?PROG
  +--> ?PR?PRINTF?PRINTF
  +--> ?PR?_INGRESADATO?PROG
  +--> ?PR?_ATOI?ATOI
  +--> ?PR?_WR_EEPROM?EEPROM

?PR?PROG_PLACA?PROG                              -----    -----      -----    -----      0047H    000CH
  +--> ?PR?_RD_EEPROM?EEPROM
  +--> ?CO?PROG
  +--> ?PR?PRINTF?PRINTF
  +--> ?PR?_INGRESADATO?PROG
  +--> ?PR?_ATOI?ATOI
  +--> ?PR?_WR_EEPROM?EEPROM

?PR?PROG_ADDRESS_HIGH_BOARD?PROG                 -----    -----      -----    -----      0047H    000CH
  +--> ?PR?_RD_EEPROM?EEPROM
  +--> ?CO?PROG
  +--> ?PR?PRINTF?PRINTF
  +--> ?PR?_INGRESADATO?PROG
  +--> ?PR?_ATOI?ATOI
  +--> ?PR?_WR_EEPROM?EEPROM

?PR?PROG_HORARIOS?PROG                           -----    -----      -----    -----      0047H    001BH
  +--> ?PR?ADDR_HORARIOS?PROG
  +--> ?CO?PROG
  +--> ?PR?PRINTF?PRINTF
  +--> ?PR?_INGRESADATO?PROG
  +--> ?PR?_ATOI?ATOI
  +--> ?PR?_PROG_HORARIOS_ON_OFF?PROG
  +--> ?PR?_WR_EEPROM?EEPROM
  +--> ?PR?_PROG_HORARIO_DIAS?PROG
  +--> ?PR?_PROG_HORARIO_DESDE_HASTA?PROG
  +--> ?PR?_RD_EEPROM?EEPROM

?PR?ADDR_HORARIOS?PROG                           -----    -----      -----    -----      0075H    000BH

?PR?_PROG_HORARIOS_ON_OFF?PROG                   -----    -----      -----    -----      0062H    0010H
  +--> ?PR?_RD_EEPROM?EEPROM
  +--> ?CO?PROG
  +--> ?PR?PRINTF?PRINTF
BL51 BANKED LINKER/LOCATER V6.22.2.0                                                  08/19/2020  14:41:27  PAGE 12


  +--> ?PR?_INGRESADATO?PROG
  +--> ?PR?_ATOI?ATOI
  +--> ?PR?_WR_EEPROM?EEPROM

?PR?_PROG_HORARIO_DIAS?PROG                      -----    -----      -----    -----      0062H    000FH
  +--> ?CO?PROG
  +--> ?PR?PRINTF?PRINTF
  +--> ?PR?_INGRESADATO?PROG
  +--> ?PR?_WR_EEPROM?EEPROM
  +--> ?PR?_RD_EEPROM?EEPROM

?PR?_PROG_HORARIO_DESDE_HASTA?PROG               -----    -----      -----    -----      0062H    000CH
  +--> ?CO?PROG
  +--> ?PR?PRINTF?PRINTF
  +--> ?PR?_INGRESADATO?PROG
  +--> ?PR?_WR_EEPROM?EEPROM
  +--> ?PR?_RD_EEPROM?EEPROM

?PR?PROG_VALIDAR_TIPO_VEHICULO_MENSUA...         -----    -----      -----    -----      0047H    000CH
  +--> ?PR?_RD_EEPROM?EEPROM
  +--> ?CO?PROG
  +--> ?PR?PRINTF?PRINTF
  +--> ?PR?_INGRESADATO?PROG
  +--> ?PR?_ATOI?ATOI
  +--> ?PR?_WR_EEPROM?EEPROM

?PR?PROG_APB_MENSUAL?PROG                        -----    -----      -----    -----      0047H    000CH
  +--> ?PR?_RD_EEPROM?EEPROM
  +--> ?CO?PROG
  +--> ?PR?PRINTF?PRINTF
  +--> ?PR?_INGRESADATO?PROG
  +--> ?PR?_ATOI?ATOI
  +--> ?PR?_WR_EEPROM?EEPROM

?PR?VER_PROG?PROG                                -----    -----      -----    -----      0047H    0013H
  +--> ?PR?_RD_EEPROM?EEPROM
  +--> ?CO?PROG
  +--> ?PR?PRINTF?PRINTF
  +--> ?PR?VER_HORARIO?PROG
  +--> ?PR?_LEERMEMORIA?EEPROM
  +--> ?PR?_HEX_ASCII?CLOCK

?PR?VER_HORARIO?PROG                             -----    -----      -----    -----      005AH    001BH
  +--> ?PR?ADDR_HORARIOS?PROG
  +--> ?CO?PROG
  +--> ?PR?PRINTF?PRINTF
  +--> ?PR?_RD_EEPROM?EEPROM
  +--> ?PR?_VER_HORARIO_DIAS?PROG
  +--> ?PR?_VER_HORARIO_DESDE_HASTA?PROG

?PR?_VER_HORARIO_DIAS?PROG                       -----    -----      -----    -----      0075H    0003H
  +--> ?PR?_RD_EEPROM?EEPROM
  +--> ?CO?PROG
  +--> ?PR?PRINTF?PRINTF

?PR?_VER_HORARIO_DESDE_HASTA?PROG                -----    -----      -----    -----      0075H    0002H
  +--> ?CO?PROG
BL51 BANKED LINKER/LOCATER V6.22.2.0                                                  08/19/2020  14:41:27  PAGE 13


  +--> ?PR?PRINTF?PRINTF
  +--> ?PR?_RD_EEPROM?EEPROM

?PR?_HEX_ASCII?CLOCK                             -----    -----      -----    -----      005EH    0006H
  +--> ?PR?_HEX_BCD?CLOCK

?PR?SHOW?PROG                                    -----    -----      -----    -----      -----    -----
  +--> ?CO?PROG
  +--> ?PR?PRINTF?PRINTF

?PR?PROG_FECHA_VENCIMIENTO?PROG                  -----    -----      -----    -----      0047H    0017H
  +--> ?PR?_LEERMEMORIA?EEPROM
  +--> ?PR?_HEX_ASCII?CLOCK
  +--> ?CO?PROG
  +--> ?PR?PRINTF?PRINTF
  +--> ?PR?_HASH_ID?PROG
  +--> ?PR?_INGRESADATO?PROG
  +--> ?PR?_GETCMD?PROG
  +--> ?PR?_ESCRIBIRMEMORIA?EEPROM
  +--> ?PR?_VALIDARCLAVE?PROG
  +--> ?PR?_ATOI?ATOI
  +--> ?PR?_WR_EEPROM?EEPROM

?PR?VARIABLE_INICIO?MAIN                         -----    -----      -----    -----      -----    -----
  +--> ?PR?_RD_EEPROM?EEPROM

?PR?SECUENCIA_INICIO_EXPEDIDOR?VERIFI...         -----    -----      -----    -----      0002H    0001H
  +--> ?PR?_INICIALIZA?LINTECH
  +--> ?PR?TRAMA_VALIDACION_P_N?VERIFICADOR
  +--> ?CO?VERIFICADOR
  +--> ?PR?_DEBUG_TXT_TIBBO?TIBBO
  +--> ?PR?_DEBUGBUFFERMF?TIBBO
  +--> ?PR?DWLOAD_EEPROM?LINTECH

?PR?_INICIALIZA?LINTECH                          -----    -----      -----    -----      0003H    000CH
  +--> ?CO?LINTECH
  +--> ?PR?_DEBUG_TXT_TIBBO?TIBBO
  +--> ?PR?_DEBUGBUFFERMF?TIBBO
  +--> ?PR?_ESCRIBIRCADENASOFT_BUFFER?MAIN

?PR?_DEBUG_TXT_TIBBO?TIBBO                       -----    -----      -----    -----      0038H    0004H
  +--> ?PR?_DEBUG_CHR_TIBBO?TIBBO
  +--> ?CO?TIBBO
  +--> ?PR?_TX_AUX?TIBBO

?PR?_DEBUG_CHR_TIBBO?TIBBO                       -----    -----      -----    -----      -----    -----
  +--> ?PR?_TX_AUX?TIBBO

?PR?_DEBUGBUFFERMF?TIBBO                         -----    -----      -----    -----      0028H    0006H
  +--> ?CO?TIBBO
  +--> ?PR?_DEBUG_TXT_TIBBO?TIBBO
  +--> ?PR?_DEBUG_CHR_TIBBO?TIBBO
  +--> ?PR?_TX_AUX?TIBBO

?PR?_ESCRIBIRCADENASOFT_BUFFER?MAIN              -----    -----      -----    -----      0028H    0006H
  +--> ?PR?_PUTCHAR?MAIN

BL51 BANKED LINKER/LOCATER V6.22.2.0                                                  08/19/2020  14:41:27  PAGE 14


?PR?TRAMA_VALIDACION_P_N?VERIFICADOR             -----    -----      -----    -----      -----    -----
  +--> ?CO?VERIFICADOR
  +--> ?PR?_DEBUG_TXT_TIBBO?TIBBO

?PR?DWLOAD_EEPROM?LINTECH                        -----    -----      -----    -----      0003H    0016H
  +--> ?CO?LINTECH
  +--> ?PR?_DEBUG_TXT_TIBBO?TIBBO
  +--> ?PR?_DEBUGBUFFERMF?TIBBO
  +--> ?PR?_ESCRIBIRCADENASOFT_BUFFER?MAIN

?PR?RX_MONITOR?MONITOR                           -----    -----      -----    -----      0008H    000DH
  +--> ?PR?_RECIBE_CMD_MONITOR?MONITOR
  +--> ?PR?_DEBUG_MONITOR?TIBBO
  +--> ?PR?_VALIDA_TRAMA_MONITOR?MONITOR

?PR?_RECIBE_CMD_MONITOR?MONITOR                  -----    -----      -----    -----      0015H    0009H
  +--> ?PR?RX_DATA?TIBBO

?PR?RX_DATA?TIBBO                                -----    -----      -----    -----      -----    -----
  +--> ?PR?TIME_MBIT?TIBBO
  +--> ?PR?TIME_BIT?TIBBO

?PR?_DEBUG_MONITOR?TIBBO                         -----    -----      -----    -----      0015H    0004H
  +--> ?PR?DEBUG_DIVIDIR_TEXTO?TIBBO
  +--> ?CO?TIBBO
  +--> ?PR?_DEBUG_TXT_TIBBO?TIBBO

?PR?DEBUG_DIVIDIR_TEXTO?TIBBO                    -----    -----      -----    -----      -----    -----
  +--> ?CO?TIBBO
  +--> ?PR?_DEBUG_TXT_TIBBO?TIBBO

?PR?_VALIDA_TRAMA_MONITOR?MONITOR                -----    -----      -----    -----      0015H    0003H

?PR?_SECUENCIAEXPEDIDORMF?VERIFICADOR            -----    -----      -----    -----      0002H    0001H
  +--> ?PR?_CHECK_STATUS?LINTECH
  +--> ?PR?_LOAD_SECUENCIA_EXPEDIDOR?VERIFIC...
  +--> ?PR?_RTA_CMD_TRANSPORTE?VERIFICADOR
  +--> ?PR?RESPONDE_ESTADO_SENSORES_TRANSPOR...
  +--> ?PR?RESPONDE_TIPO_TARJETA?VERIFICADOR
  +--> ?PR?_RESPONDE_LECTURA_TARJETA_SECTOR1...
  +--> ?PR?_RESPONDE_LECTURA_TARJETA_SECTOR1...
  +--> ?PR?_RESPONDE_LECTURA_TARJETA_SECTOR1...
  +--> ?PR?_RESPONDE_WRITE_TARJETA_SECTOR1_B...
  +--> ?PR?_RESPONDE_WRITE_TARJETA_SECTOR2_B...
  +--> ?PR?_RESPONDE_WRITE_TARJETA_SECTOR1_B...
  +--> ?PR?_DISPARO_LOCK_ENTRADA_VEHICULO?VE...
  +--> ?PR?_RESPUESTA_SEGUNDA_CLAVE?VERIFICADOR
  +--> ?PR?ANALIZA_PRESENCIA_MENSUAL?VERIFIC...
  +--> ?PR?_ANALIZA_UID_CARD?VERIFICADOR
  +--> ?CO?VERIFICADOR
  +--> ?PR?_DEBUG_TXT_TIBBO?TIBBO
  +--> ?PR?_MOV_CARD?LINTECH
  +--> ?PR?_CARD_INSERCION?LINTECH
  +--> ?PR?AUT_CARD_CHECK_STATUS?LINTECH
  +--> ?PR?LOADVERIFY_EEPROM?LINTECH
  +--> ?PR?_RD_MF?LINTECH
  +--> ?PR?_WR_MF?LINTECH
BL51 BANKED LINKER/LOCATER V6.22.2.0                                                  08/19/2020  14:41:27  PAGE 15


  +--> ?PR?DWLOAD_EEPROM?LINTECH
  +--> ?PR?ENTREGA_CARD_CAPTURA?VERIFICADOR
  +--> ?PR?_SEND_PTO_PARALELO?VERIFICADOR
  +--> ?PR?_WAIT_PLACA?VERIFICADOR
  +--> ?PR?UNIQUE_IDENTIFIER_UID?LINTECH
  +--> ?PR?_PREGUNTA_LPR?VERIFICADOR
  +--> ?PR?_VALIDA_TIPO_TARJETA?VERIFICADOR
  +--> ?PR?ANALIZA_PRESENCIA_ROTACION?VERIFI...
  +--> ?PR?POWER_OFF?LINTECH

?PR?_CHECK_STATUS?LINTECH                        -----    -----      -----    -----      0003H    000BH
  +--> ?CO?LINTECH
  +--> ?PR?_DEBUG_TXT_TIBBO?TIBBO
  +--> ?PR?_DEBUGBUFFERMF?TIBBO
  +--> ?PR?_ESCRIBIRCADENASOFT_BUFFER?MAIN

?PR?_LOAD_SECUENCIA_EXPEDIDOR?VERIFIC...         -----    -----      -----    -----      0008H    0009H

?PR?_RTA_CMD_TRANSPORTE?VERIFICADOR              -----    -----      -----    -----      0003H    0005H
  +--> ?PR?TRAMA_VALIDACION_P_N?VERIFICADOR
  +--> ?CO?VERIFICADOR
  +--> ?PR?_DEBUG_TXT_TIBBO?TIBBO
  +--> ?PR?_DEBUGBUFFERMF?TIBBO
  +--> ?PR?ERROR_RX_PTO?VERIFICADOR

?PR?ERROR_RX_PTO?VERIFICADOR                     -----    -----      -----    -----      0008H    0001H
  +--> ?CO?VERIFICADOR
  +--> ?PR?_DEBUG_TXT_TIBBO?TIBBO
  +--> ?PR?_DEBUG_CHR_TIBBO?TIBBO
  +--> ?PR?_DELAY_10MS?DELAY

?PR?_DELAY_10MS?DELAY                            -----    -----      -----    -----      0009H    0004H
  +--> ?PR?_DELAY_1MS?DELAY

?PR?RESPONDE_ESTADO_SENSORES_TRANSPOR...         -----    -----      -----    -----      0003H    0001H
  +--> ?CO?VERIFICADOR
  +--> ?PR?_DEBUG_TXT_TIBBO?TIBBO
  +--> ?PR?_SEND_PORTERR?PTO_PARALELO
  +--> ?PR?INGRESO_VEHICULO?VERIFICADOR

?PR?_SEND_PORTERR?PTO_PARALELO                   -----    -----      -----    -----      002BH    0006H
  +--> ?PR?PULSO_BUS?PTO_PARALELO
  +--> ?PR?_DELAY_20US?DELAY

?PR?PULSO_BUS?PTO_PARALELO                       -----    -----      -----    -----      -----    -----
  +--> ?PR?_DELAY_20US?DELAY

?PR?INGRESO_VEHICULO?VERIFICADOR                 -----    -----      -----    -----      -----    -----
  +--> ?PR?VALIDASENSORESPASO?IO_SENSORES
  +--> ?PR?_RD_EEPROM?EEPROM
  +--> ?CO?VERIFICADOR
  +--> ?PR?_DEBUG_TXT_TIBBO?TIBBO
  +--> ?PR?_PANTALLALCD?PANTALLAS
  +--> ?PR?SEL_PULSA?IO_SENSORES

?PR?VALIDASENSORESPASO?IO_SENSORES               -----    -----      -----    -----      0011H    0001H
  +--> ?PR?SEL_SENSOR2?IO_SENSORES
BL51 BANKED LINKER/LOCATER V6.22.2.0                                                  08/19/2020  14:41:27  PAGE 16


  +--> ?PR?VALIDASENSOR?IO_SENSORES
  +--> ?PR?VALIDA_SENSOR1_AUTO?IO_SENSORES
  +--> ?CO?IO_SENSORES
  +--> ?PR?_DEBUG_TXT_TIBBO?TIBBO

?PR?VALIDA_SENSOR1_AUTO?IO_SENSORES              -----    -----      -----    -----      0012H    0001H
  +--> ?PR?SEL_SENSOR1?IO_SENSORES
  +--> ?PR?SEL_AUTO?IO_SENSORES
  +--> ?CO?IO_SENSORES
  +--> ?PR?_DEBUG_TXT_TIBBO?TIBBO

?PR?_PANTALLALCD?PANTALLAS                       -----    -----      -----    -----      002BH    0008H
  +--> ?CO?PANTALLAS
  +--> ?PR?_LCD_TXT?PANTALLAS
  +--> ?PR?_STRLEN?STRLEN
  +--> ?PR?_TX_CHRLCD?PANTALLAS
  +--> ?PR?RASPBERRY_DATA1?PANTALLAS

?PR?_LCD_TXT?PANTALLAS                           -----    -----      -----    -----      0033H    0005H
  +--> ?PR?_TX_CHRLCD?PANTALLAS

?PR?_TX_CHRLCD?PANTALLAS                         -----    -----      -----    -----      0038H    0002H
  +--> ?PR?_PUTCHAR?MAIN

?PR?RASPBERRY_DATA1?PANTALLAS                    -----    -----      -----    -----      0033H    0003H
  +--> ?PR?_STRLEN?STRLEN
  +--> ?PR?_PUTCHAR?MAIN

?PR?RESPONDE_TIPO_TARJETA?VERIFICADOR            -----    -----      -----    -----      0003H    0001H
  +--> ?CO?VERIFICADOR
  +--> ?PR?_DEBUG_TXT_TIBBO?TIBBO
  +--> ?PR?_SEND_PORTERR?PTO_PARALELO
  +--> ?PR?_PANTALLALCD?PANTALLAS
  +--> ?PR?CAPTURA_EXPULSA?VERIFICADOR

?PR?_RESPONDE_LECTURA_TARJETA_SECTOR1...         -----    -----      -----    -----      0003H    0016H
  +--> ?CO?VERIFICADOR
  +--> ?PR?_DEBUG_TXT_TIBBO?TIBBO
  +--> ?PR?_DEBUGBUFFERMF?TIBBO
  +--> ?PR?_RD_EEPROM?EEPROM
  +--> ?PR?_DEBUG_HEXDEC?TIBBO
  +--> ?PR?_DEBUG_CHR_TIBBO?TIBBO
  +--> ?PR?_SEND_PORTERR?PTO_PARALELO
  +--> ?PR?_PANTALLALCD?PANTALLAS
  +--> ?PR?CAPTURA_EXPULSA?VERIFICADOR

?PR?_DEBUG_HEXDEC?TIBBO                          -----    -----      -----    -----      0019H    0002H
  +--> ?PR?_TX_AUX?TIBBO

?PR?_RESPONDE_LECTURA_TARJETA_SECTOR1...         -----    -----      -----    -----      0003H    0004H
  +--> ?CO?VERIFICADOR
  +--> ?PR?_DEBUG_TXT_TIBBO?TIBBO
  +--> ?PR?CAPTURA_EXPULSA?VERIFICADOR

?PR?_RESPONDE_LECTURA_TARJETA_SECTOR1...         -----    -----      -----    -----      0003H    0015H
  +--> ?CO?VERIFICADOR
  +--> ?PR?_DEBUG_TXT_TIBBO?TIBBO
BL51 BANKED LINKER/LOCATER V6.22.2.0                                                  08/19/2020  14:41:27  PAGE 17


  +--> ?PR?_DEBUGBUFFERMF?TIBBO
  +--> ?PR?_DEBUG_CHR_TIBBO?TIBBO
  +--> ?PR?CAPTURA_EXPULSA?VERIFICADOR

?PR?_RESPONDE_WRITE_TARJETA_SECTOR1_B...         -----    -----      -----    -----      0003H    0007H
  +--> ?CO?VERIFICADOR
  +--> ?PR?_DEBUG_TXT_TIBBO?TIBBO
  +--> ?PR?_DEBUGBUFFERMF?TIBBO
  +--> ?PR?_ARMAR_TRAMA_TARJETA_SECTOR1_BLOQ...

?PR?_ARMAR_TRAMA_TARJETA_SECTOR1_BLOQ...         -----    -----      -----    -----      000AH    0003H
  +--> ?PR?LEE_NO_TICKET?EEPROM

?PR?LEE_NO_TICKET?EEPROM                         -----    -----      -----    -----      001CH    000BH
  +--> ?PR?READ_EEPROM_TICKET?EEPROM
  +--> ?CO?EEPROM
  +--> ?PR?PRINTF?PRINTF
  +--> ?PR?_STRLEN?STRLEN
  +--> ?PR?_DEBUG_TXT_TIBBO?TIBBO

?PR?READ_EEPROM_TICKET?EEPROM                    -----    -----      -----    -----      0027H    0007H
  +--> ?PR?_RD_EEPROM?EEPROM

?PR?_RESPONDE_WRITE_TARJETA_SECTOR2_B...         -----    -----      -----    -----      0003H    0003H
  +--> ?CO?VERIFICADOR
  +--> ?PR?_DEBUG_TXT_TIBBO?TIBBO
  +--> ?PR?_DEBUGBUFFERMF?TIBBO

?PR?_RESPONDE_WRITE_TARJETA_SECTOR1_B...         -----    -----      -----    -----      0003H    0003H
  +--> ?CO?VERIFICADOR
  +--> ?PR?_DEBUG_TXT_TIBBO?TIBBO
  +--> ?PR?_DEBUGBUFFERMF?TIBBO

?PR?_DISPARO_LOCK_ENTRADA_VEHICULO?VE...         -----    -----      -----    -----      0003H    0004H
  +--> ?CO?VERIFICADOR
  +--> ?PR?_DEBUG_TXT_TIBBO?TIBBO
  +--> ?PR?_PANTALLALCD?PANTALLAS
  +--> ?PR?_SEND_PORTERR?PTO_PARALELO
  +--> ?PR?_PANTALLALCD_LINEA_2?PANTALLAS
  +--> ?PR?VALIDA_SENSOR1_AUTO?IO_SENSORES

?PR?_PANTALLALCD_LINEA_2?PANTALLAS               -----    -----      -----    -----      0011H    000BH
  +--> ?CO?PANTALLAS
  +--> ?PR?_LCD_TXT?PANTALLAS
  +--> ?PR?_STRLEN?STRLEN
  +--> ?PR?_TX_CHRLCD?PANTALLAS
  +--> ?PR?RASPBERRY_DATA1?PANTALLAS
  +--> ?PR?LEE_NO_TICKET?EEPROM
  +--> ?PR?_STRCAT?STRCAT

?PR?_RESPUESTA_SEGUNDA_CLAVE?VERIFICADOR         -----    -----      -----    -----      0003H    0006H
  +--> ?CO?VERIFICADOR
  +--> ?PR?_DEBUG_TXT_TIBBO?TIBBO
  +--> ?PR?_DEBUGBUFFERMF?TIBBO
  +--> ?PR?_ARMAR_TRAMA_PLACA?VERIFICADOR

?PR?_ARMAR_TRAMA_PLACA?VERIFICADOR               -----    -----      -----    -----      0009H    0003H
BL51 BANKED LINKER/LOCATER V6.22.2.0                                                  08/19/2020  14:41:27  PAGE 18



?PR?ANALIZA_PRESENCIA_MENSUAL?VERIFIC...         -----    -----      -----    -----      0003H    0001H
  +--> ?PR?VALIDASENSORESPASO?IO_SENSORES
  +--> ?PR?_SEND_PORTERR?PTO_PARALELO
  +--> ?PR?_PANTALLALCD?PANTALLAS

?PR?_ANALIZA_UID_CARD?VERIFICADOR                -----    -----      -----    -----      0003H    0015H
  +--> ?CO?VERIFICADOR
  +--> ?PR?_DEBUG_TXT_TIBBO?TIBBO
  +--> ?PR?_DEBUGBUFFERMF?TIBBO
  +--> ?PR?_DEBUG_CHR_TIBBO?TIBBO

?PR?_MOV_CARD?LINTECH                            -----    -----      -----    -----      0003H    000CH
  +--> ?CO?LINTECH
  +--> ?PR?_DEBUG_TXT_TIBBO?TIBBO
  +--> ?PR?_DEBUGBUFFERMF?TIBBO
  +--> ?PR?_ESCRIBIRCADENASOFT_BUFFER?MAIN

?PR?_CARD_INSERCION?LINTECH                      -----    -----      -----    -----      0003H    000AH
  +--> ?CO?LINTECH
  +--> ?PR?_DEBUG_TXT_TIBBO?TIBBO
  +--> ?PR?_DEBUGBUFFERMF?TIBBO
  +--> ?PR?_ESCRIBIRCADENASOFT_BUFFER?MAIN

?PR?AUT_CARD_CHECK_STATUS?LINTECH                -----    -----      -----    -----      0003H    000BH
  +--> ?CO?LINTECH
  +--> ?PR?_DEBUG_TXT_TIBBO?TIBBO
  +--> ?PR?_DEBUGBUFFERMF?TIBBO
  +--> ?PR?_ESCRIBIRCADENASOFT_BUFFER?MAIN

?PR?LOADVERIFY_EEPROM?LINTECH                    -----    -----      -----    -----      0003H    0010H
  +--> ?CO?LINTECH
  +--> ?PR?_DEBUG_TXT_TIBBO?TIBBO
  +--> ?PR?_DEBUGBUFFERMF?TIBBO
  +--> ?PR?_ESCRIBIRCADENASOFT_BUFFER?MAIN

?PR?_RD_MF?LINTECH                               -----    -----      -----    -----      0003H    0012H
  +--> ?CO?LINTECH
  +--> ?PR?_DEBUG_TXT_TIBBO?TIBBO
  +--> ?PR?_DEBUG_CHR_TIBBO?TIBBO
  +--> ?PR?_DEBUGBUFFERMF?TIBBO
  +--> ?PR?_ESCRIBIRCADENASOFT_BUFFER?MAIN

?PR?_WR_MF?LINTECH                               -----    -----      -----    -----      0003H    0025H
  +--> ?CO?LINTECH
  +--> ?PR?_DEBUG_TXT_TIBBO?TIBBO
  +--> ?PR?_DEBUG_CHR_TIBBO?TIBBO
  +--> ?PR?_DEBUGBUFFERMF?TIBBO
  +--> ?PR?_ESCRIBIRCADENASOFT_BUFFER?MAIN

?PR?ENTREGA_CARD_CAPTURA?VERIFICADOR             -----    -----      -----    -----      0003H    0001H
  +--> ?CO?VERIFICADOR
  +--> ?PR?_DEBUG_TXT_TIBBO?TIBBO
  +--> ?PR?SEL_SENSOR2?IO_SENSORES
  +--> ?PR?VALIDASENSOR?IO_SENSORES
  +--> ?PR?VALIDA_SENSOR1_AUTO?IO_SENSORES

BL51 BANKED LINKER/LOCATER V6.22.2.0                                                  08/19/2020  14:41:27  PAGE 19


?PR?_SEND_PTO_PARALELO?VERIFICADOR               -----    -----      -----    -----      0003H    0003H
  +--> ?PR?_ARMAR_TRAMA_PTO_PARALELO_EXPEDID...
  +--> ?PR?ARMAR_TRAMA_PTO_PARALELO_EXPEDIDO...
  +--> ?PR?INCREMENTE_TICKET?EEPROM
  +--> ?PR?_STRLEN?STRLEN
  +--> ?PR?_SEND_PORT?PTO_PARALELO
  +--> ?CO?VERIFICADOR
  +--> ?PR?_DEBUG_TXT_TIBBO?TIBBO
  +--> ?PR?_DEBUGBUFFERMF?TIBBO
  +--> ?PR?CLEAR_PLACA?MONITOR

?PR?_ARMAR_TRAMA_PTO_PARALELO_EXPEDID...         -----    -----      -----    -----      0006H    0003H
  +--> ?PR?_BLOCK_READ_CLOCK_HEX?CLOCK
  +--> ?PR?_RD_EEPROM?EEPROM

?PR?ARMAR_TRAMA_PTO_PARALELO_EXPEDIDO...         -----    -----      -----    -----      0006H    000CH
  +--> ?PR?LEE_NO_TICKET?EEPROM
  +--> ?PR?_STRCAT?STRCAT
  +--> ?PR?_STRLEN?STRLEN
  +--> ?PR?_BLOCK_READ_CLOCK_HEX?CLOCK
  +--> ?PR?_RD_EEPROM?EEPROM

?PR?INCREMENTE_TICKET?EEPROM                     -----    -----      -----    -----      0006H    000BH
  +--> ?PR?READ_EEPROM_TICKET?EEPROM
  +--> ?CO?EEPROM
  +--> ?PR?PRINTF?PRINTF
  +--> ?PR?_WRITE_EEPROM_TICKET?EEPROM

?PR?_WRITE_EEPROM_TICKET?EEPROM                  -----    -----      -----    -----      0016H    000BH
  +--> ?CO?EEPROM
  +--> ?PR?_DEBUG_TXT_TIBBO?TIBBO
  +--> ?PR?_ATOL?ATOL
  +--> ?PR?_DEBUG_CHR_TIBBO?TIBBO
  +--> ?PR?_WR_EEPROM?EEPROM

?PR?_ATOL?ATOL                                   0020H.0  0000H.1    -----    -----      0021H    0007H
  +--> ?PR?_ISSPACE?ISSPACE
  +--> ?PR?_ISDIGIT?ISDIGIT

?PR?_SEND_PORT?PTO_PARALELO                      -----    -----      -----    -----      0016H    000AH
  +--> ?PR?PULSO_BUS?PTO_PARALELO
  +--> ?PR?_DELAY_20US?DELAY

?PR?_WAIT_PLACA?VERIFICADOR                      -----    -----      -----    -----      0003H    0005H
  +--> ?PR?RX_MONITOR?MONITOR
  +--> ?PR?CLAVE_SEGURIDAD_S2?LINTECH
  +--> ?PR?_LOAD_SECUENCIA_EXPEDIDOR?VERIFIC...

?PR?CLAVE_SEGURIDAD_S2?LINTECH                   -----    -----      -----    -----      0008H    0016H
  +--> ?CO?LINTECH
  +--> ?PR?_DEBUG_TXT_TIBBO?TIBBO
  +--> ?PR?_DEBUGBUFFERMF?TIBBO
  +--> ?PR?_ESCRIBIRCADENASOFT_BUFFER?MAIN

?PR?UNIQUE_IDENTIFIER_UID?LINTECH                -----    -----      -----    -----      0003H    000BH
  +--> ?CO?LINTECH
  +--> ?PR?_DEBUG_TXT_TIBBO?TIBBO
BL51 BANKED LINKER/LOCATER V6.22.2.0                                                  08/19/2020  14:41:27  PAGE 20


  +--> ?PR?_DEBUGBUFFERMF?TIBBO
  +--> ?PR?_ESCRIBIRCADENASOFT_BUFFER?MAIN

?PR?_PREGUNTA_LPR?VERIFICADOR                    -----    -----      -----    -----      0003H    0004H
  +--> ?PR?_RD_EEPROM?EEPROM
  +--> ?PR?_ARMAR_TRAMA_MONITOR?VERIFICADOR
  +--> ?PR?_DEBUG_TXT_TIBBO?TIBBO

?PR?_ARMAR_TRAMA_MONITOR?VERIFICADOR             -----    -----      -----    -----      0007H    000FH
  +--> ?PR?DIR_BOARD?IO_SENSORES
  +--> ?PR?LEE_NO_TICKET?EEPROM
  +--> ?PR?_STRCAT?STRCAT
  +--> ?PR?_BYTEHEX_DECIMAL?CLOCK
  +--> ?PR?_STRLEN?STRLEN
  +--> ?PR?_TWO_BYTEHEX_DECIMAL?CLOCK
  +--> ?PR?_BLOCK_READ_CLOCK_ASCII?CLOCK

?PR?DIR_BOARD?IO_SENSORES                        -----    -----      -----    -----      0033H    0001H
  +--> ?PR?SEL_DIR1?IO_SENSORES
  +--> ?PR?SEL_DIR2?IO_SENSORES
  +--> ?PR?_RD_EEPROM?EEPROM

?PR?_BYTEHEX_DECIMAL?CLOCK                       -----    -----      -----    -----      0016H    0001H

?PR?_TWO_BYTEHEX_DECIMAL?CLOCK                   -----    -----      -----    -----      0016H    000CH
  +--> ?PR?_POW?POW

?PR?_POW?POW                                     -----    -----      -----    -----      0022H    000AH
  +--> ?PR?LOG?LOG
  +--> ?PR?EXP?EXP

?PR?LOG?LOG                                      0020H.0  0000H.1    -----    -----      002CH    0004H

?PR?_VALIDA_TIPO_TARJETA?VERIFICADOR             -----    -----      -----    -----      0003H    0007H
  +--> ?CO?VERIFICADOR
  +--> ?PR?_DEBUG_TXT_TIBBO?TIBBO
  +--> ?PR?_RD_EEPROM?EEPROM
  +--> ?PR?_SEND_PORTERR?PTO_PARALELO
  +--> ?PR?_TARJETA_MENSUAL?VERIFICADOR
  +--> ?PR?_PANTALLALCD?PANTALLAS
  +--> ?PR?CAPTURA_EXPULSA?VERIFICADOR
  +--> ?PR?_TARJETA_ROTACION?VERIFICADOR

?PR?_TARJETA_MENSUAL?VERIFICADOR                 -----    -----      -----    -----      000AH    0007H
  +--> ?PR?_HORARIOS?VERIFICADOR
  +--> ?PR?_CHECK_FECHAOUT?CLOCK
  +--> ?PR?_VALIDA_VEHICULO_CARD_MENSUAL?VER...
  +--> ?PR?CAPTURA_EXPULSA?VERIFICADOR
  +--> ?CO?VERIFICADOR
  +--> ?PR?_DEBUG_TXT_TIBBO?TIBBO
  +--> ?PR?_ARMAR_TRAMA_TARJETA_SECTOR1_BLOQ...
  +--> ?PR?_SEND_PORTERR?PTO_PARALELO
  +--> ?PR?_PANTALLALCD?PANTALLAS

?PR?_HORARIOS?VERIFICADOR                        -----    -----      -----    -----      0011H    0013H
  +--> ?PR?ADDR_HORARIOS?PROG
  +--> ?PR?_RD_EEPROM?EEPROM
BL51 BANKED LINKER/LOCATER V6.22.2.0                                                  08/19/2020  14:41:27  PAGE 21


  +--> ?PR?_LEE_CLK?CLOCK
  +--> ?CO?VERIFICADOR
  +--> ?PR?_DEBUG_TXT_TIBBO?TIBBO
  +--> ?PR?_DEBUG_CHR_TIBBO?TIBBO
  +--> ?PR?_BLOQUE_HORARIO?VERIFICADOR
  +--> ?PR?_PANTALLALCD?PANTALLAS

?PR?_BLOQUE_HORARIO?VERIFICADOR                  -----    -----      -----    -----      0024H    0007H
  +--> ?CO?VERIFICADOR
  +--> ?PR?_DEBUG_TXT_TIBBO?TIBBO
  +--> ?PR?_LEE_CLK?CLOCK
  +--> ?PR?_DEBUG_CHR_TIBBO?TIBBO
  +--> ?PR?_HORA_MAXIMA?VERIFICADOR
  +--> ?PR?_EN_HORARIO?VERIFICADOR
  +--> ?PR?_RD_EEPROM?EEPROM
  +--> ?PR?_SEND_PORTERR?PTO_PARALELO
  +--> ?PR?_PANTALLALCD?PANTALLAS

?PR?_HORA_MAXIMA?VERIFICADOR                     -----    -----      -----    -----      0030H    0008H
  +--> ?PR?_RD_EEPROM?EEPROM
  +--> ?PR?_DEBUG_CHR_TIBBO?TIBBO
  +--> ?CO?VERIFICADOR
  +--> ?PR?_DEBUG_TXT_TIBBO?TIBBO

?PR?_EN_HORARIO?VERIFICADOR                      -----    -----      -----    -----      002BH    0005H
  +--> ?CO?VERIFICADOR
  +--> ?PR?_DEBUG_TXT_TIBBO?TIBBO
  +--> ?PR?_HORA_MAXIMA?VERIFICADOR

?PR?_VALIDA_VEHICULO_CARD_MENSUAL?VER...         -----    -----      -----    -----      0011H    0004H
  +--> ?CO?VERIFICADOR
  +--> ?PR?_DEBUG_TXT_TIBBO?TIBBO
  +--> ?PR?_RD_EEPROM?EEPROM
  +--> ?PR?_SEND_PORTERR?PTO_PARALELO

?PR?_ARMAR_TRAMA_TARJETA_SECTOR1_BLOQ...         -----    -----      -----    -----      0011H    0006H
  +--> ?PR?_BLOCK_READ_CLOCK_HEX?CLOCK
  +--> ?PR?DIR_BOARD?IO_SENSORES

?PR?_TARJETA_ROTACION?VERIFICADOR                -----    -----      -----    -----      000AH    0006H
  +--> ?PR?_ARMAR_TRAMA_TARJETA_SECTOR1_BLOQ...

?PR?ANALIZA_PRESENCIA_ROTACION?VERIFI...         -----    -----      -----    -----      0003H    0001H
  +--> ?PR?VALIDASENSORESPASO?IO_SENSORES
  +--> ?PR?_SEND_PORTERR?PTO_PARALELO
  +--> ?PR?_PANTALLALCD?PANTALLAS

?PR?POWER_OFF?LINTECH                            -----    -----      -----    -----      0003H    000BH
  +--> ?CO?LINTECH
  +--> ?PR?_DEBUG_TXT_TIBBO?TIBBO
  +--> ?PR?_DEBUGBUFFERMF?TIBBO
  +--> ?PR?_ESCRIBIRCADENASOFT_BUFFER?MAIN

?PR?_RECIBE_PORT?PTO_PARALELO                    -----    -----      -----    -----      0002H    0008H
  +--> ?PR?OFF_TIMER0_INTERRUP?MAIN
  +--> ?PR?ON_TIMER0_INTERRUP?MAIN

BL51 BANKED LINKER/LOCATER V6.22.2.0                                                  08/19/2020  14:41:27  PAGE 22


?PR?_DEBUG_PTO_PARALELO?TIBBO                    -----    -----      -----    -----      0002H    0004H
  +--> ?PR?DEBUG_DIVIDIR_TEXTO?TIBBO
  +--> ?CO?TIBBO
  +--> ?PR?_DEBUG_TXT_TIBBO?TIBBO
  +--> ?PR?_DEBUGBUFFERMF?TIBBO

?PR?_VALIDA_TRAMA_PTO?ACCESCAN                   -----    -----      -----    -----      0002H    000FH
  +--> ?PR?_VALIDAR_CLK?CLOCK
  +--> ?PR?_BLOCK_WRITE_CLOCK_ASCII?CLOCK
  +--> ?PR?RELOJ_PANTALLA_LCD?PANTALLAS
  +--> ?PR?_PANTALLALCD?PANTALLAS
  +--> ?CO?ACCESCAN
  +--> ?PR?_DEBUG_TXT_TIBBO?TIBBO
  +--> ?PR?_BYTEHEX_DECIMAL?CLOCK
  +--> ?PR?_TWO_BYTEHEX_DECIMAL?CLOCK
  +--> ?PR?VALIDASENSORESPASO?IO_SENSORES
  +--> ?PR?_CMD_LPR_SALIDA_WIEGAND?ACCESCAN
  +--> ?PR?_PANTALLALCD_LINEA_2?PANTALLAS
  +--> ?PR?_GRABA_SERIE?EEPROM

?PR?_BLOCK_WRITE_CLOCK_ASCII?CLOCK               -----    -----      -----    -----      0011H    0003H
  +--> ?PR?_TWO_ONE?CLOCK
  +--> ?PR?_WR_CLK?CLOCK

?PR?_WR_CLK?CLOCK                                -----    -----      -----    -----      0014H    0002H
  +--> ?PR?_DELAY_20US?DELAY
  +--> ?PR?_EB_CLK?CLOCK

?PR?RELOJ_PANTALLA_LCD?PANTALLAS                 -----    -----      -----    -----      0011H    000DH
  +--> ?CO?PANTALLAS
  +--> ?PR?_BLOCK_READ_CLOCK?CLOCK
  +--> ?PR?_LCD_TXT_NUM_CHAR?PANTALLAS
  +--> ?PR?RASPBERRY_DATA1?PANTALLAS

?PR?_BLOCK_READ_CLOCK?CLOCK                      -----    -----      -----    -----      001EH    0003H
  +--> ?PR?_LEE_CLK?CLOCK

?PR?_LCD_TXT_NUM_CHAR?PANTALLAS                  -----    -----      -----    -----      001EH    0006H
  +--> ?PR?_TX_CHRLCD?PANTALLAS

?PR?_CMD_LPR_SALIDA_WIEGAND?ACCESCAN             -----    -----      -----    -----      0011H    0022H
  +--> ?PR?DIR_BOARD?IO_SENSORES
  +--> ?PR?_BLOCK_READ_CLOCK_ASCII?CLOCK
  +--> ?PR?_MONITOR_CHR?ACCESCAN

?PR?_MONITOR_CHR?ACCESCAN                        -----    -----      -----    -----      0033H    0005H
  +--> ?PR?_TX_AUX?TIBBO

?PR?_GRABA_SERIE?EEPROM                          -----    -----      -----    -----      0011H    0005H
  +--> ?CO?EEPROM
  +--> ?PR?_DEBUG_TXT_TIBBO?TIBBO
  +--> ?PR?_WRITE_EEPROM_TICKET?EEPROM
  +--> ?PR?_WR_EEPROM?EEPROM

?PR?MSJ_LCD_INFORMATIVO?IO_SENSORES              -----    -----      -----    -----      0002H    0001H
  +--> ?PR?SEL_FUNCION?IO_SENSORES
  +--> ?PR?LOAD_AND_SEND_INFO_RELOJ?PTO_PARA...
BL51 BANKED LINKER/LOCATER V6.22.2.0                                                  08/19/2020  14:41:27  PAGE 23


  +--> ?PR?LOAD_AND_SEND_ID_COD?PTO_PARALELO
  +--> ?PR?_RD_EEPROM?EEPROM
  +--> ?PR?_SEND_PORTERR?PTO_PARALELO

?PR?LOAD_AND_SEND_INFO_RELOJ?PTO_PARA...         -----    -----      -----    -----      0003H    000BH
  +--> ?PR?_BLOCK_READ_CLOCK?CLOCK
  +--> ?PR?_LEE_CLK?CLOCK
  +--> ?PR?_SEND_PORT?PTO_PARALELO

?PR?LOAD_AND_SEND_ID_COD?PTO_PARALELO            -----    -----      -----    -----      0003H    0013H
  +--> ?PR?_RD_EEPROM?EEPROM
  +--> ?CO?PTO_PARALELO
  +--> ?PR?PRINTF?PRINTF
  +--> ?PR?_SEND_PORT?PTO_PARALELO



SYMBOL TABLE OF MODULE:  .\Objects\expedidor_v_01_raspberry (MAIN)

  VALUE           TYPE          NAME
  ----------------------------------

  -------         MODULE        MAIN
  C:0000H         SYMBOL        _ICE_DUMMY_
  D:0080H         PUBLIC        P0
  D:0090H         PUBLIC        P1
  C:AC91H         PUBLIC        timer0_int
  D:00B0H         PUBLIC        P3
  B:00A8H.7       PUBLIC        EA
  C:B08EH         PUBLIC        off_Timer0_Interrup
  X:016AH         PUBLIC        ValTimeOutCom
  X:016BH         PUBLIC        Buffer_Rta_Lintech
  X:019DH         PUBLIC        Timer_wait
  X:019EH         PUBLIC        g_cContByteRx
  B:0080H.0       PUBLIC        rx_ip
  B:0080H.3       PUBLIC        Atascado
  C:995FH         PUBLIC        main
  X:019FH         PUBLIC        Timer_tivo
  C:A459H         PUBLIC        variable_inicio
  B:0090H.7       PUBLIC        lock
  I:0022H         PUBLIC        rbuf
  C:B07FH         PUBLIC        on_Timer0_Interrup
  I:0054H         PUBLIC        tbuf
  B:0090H.1       PUBLIC        DataIn
  D:0089H         PUBLIC        TMOD
  X:01A1H         PUBLIC        USE_LPR
  X:01A2H         PUBLIC        Debug_Tibbo
  X:01A3H         PUBLIC        Raspberry
  X:01A4H         PUBLIC        SIN_COBRO
  X:01A6H         PUBLIC        Tipo_Vehiculo
  B:00B0H.3       PUBLIC        busy
  C:AFEAH         PUBLIC        ini_timer
  B:00A8H.1       PUBLIC        ET0
  B:0088H.5       PUBLIC        TF0
  D:008CH         PUBLIC        TH0
  X:01A7H         PUBLIC        ACK
  X:01A8H         PUBLIC        g_cEstadoComSoft
BL51 BANKED LINKER/LOCATER V6.22.2.0                                                  08/19/2020  14:41:27  PAGE 24


  D:008AH         PUBLIC        TL0
  B:0088H.4       PUBLIC        TR0
  C:AFFAH         PUBLIC        inicia_board
  X:01A9H         PUBLIC        T_GRACIA
  B:0080H.7       PUBLIC        sel_com
  X:01ABH         PUBLIC        STX_LINTECH
  C:B019H         PUBLIC        _getkey
  X:01ACH         PUBLIC        ETX
  C:A6A9H         PUBLIC        _EscribirCadenaSoft_buffer
  B:0021H.1       PUBLIC        buffer_ready
  C:A945H         PUBLIC        _putchar
  B:0021H.2       PUBLIC        placa_ready
  -------         PROC          TIMER0_INT
  C:AC91H         LINE#         16
  C:AC97H         LINE#         19
  C:AC9DH         LINE#         20
  C:ACA2H         LINE#         21
  C:ACA2H         LINE#         22
  C:ACA8H         LINE#         23
  C:ACA8H         LINE#         25
  C:ACB6H         LINE#         26
  C:ACB8H         LINE#         28
  -------         ENDPROC       TIMER0_INT
  -------         PROC          INI_TIMER
  C:AFEAH         LINE#         31
  C:AFEAH         LINE#         32
  C:AFEAH         LINE#         34
  C:AFF2H         LINE#         36
  C:AFF5H         LINE#         37
  C:AFF7H         LINE#         38
  C:AFF9H         LINE#         40
  -------         ENDPROC       INI_TIMER
  -------         PROC          ON_TIMER0_INTERRUP
  C:B07FH         LINE#         43
  C:B07FH         LINE#         44
  C:B07FH         LINE#         45
  C:B081H         LINE#         46
  C:B083H         LINE#         48
  -------         ENDPROC       ON_TIMER0_INTERRUP
  -------         PROC          OFF_TIMER0_INTERRUP
  C:B08EH         LINE#         51
  C:B08EH         LINE#         52
  C:B08EH         LINE#         53
  C:B090H         LINE#         55
  -------         ENDPROC       OFF_TIMER0_INTERRUP
  -------         PROC          _GETKEY
  -------         DO            
  D:0006H         SYMBOL        k
  -------         ENDDO         
  C:B019H         LINE#         63
  C:B019H         LINE#         64
  C:B019H         LINE#         68
  C:B019H         LINE#         69
  C:B01CH         LINE#         70
  C:B01CH         LINE#         71
  C:B024H         LINE#         73
  C:B024H         LINE#         74
BL51 BANKED LINKER/LOCATER V6.22.2.0                                                  08/19/2020  14:41:27  PAGE 25


  -------         ENDPROC       _GETKEY
  -------         PROC          _PUTCHAR
  X:00A8H         SYMBOL        c
  -------         DO            
  X:00A9H         SYMBOL        i
  -------         ENDDO         
  C:A945H         LINE#         78
  C:A94AH         LINE#         79
  C:A94AH         LINE#         82
  C:A959H         LINE#         83
  C:A959H         LINE#         84
  C:A96FH         LINE#         85
  C:A96FH         LINE#         87
  C:A97DH         LINE#         88
  C:A97DH         LINE#         90
  C:A982H         LINE#         91
  -------         ENDPROC       _PUTCHAR
  -------         PROC          _ESCRIBIRCADENASOFT_BUFFER
  X:0028H         SYMBOL        buffer
  X:002BH         SYMBOL        tamano_cadena
  -------         DO            
  X:002CH         SYMBOL        i
  X:002DH         SYMBOL        d
  -------         ENDDO         
  C:A6A9H         LINE#         95
  C:A6B7H         LINE#         96
  C:A6B7H         LINE#         98
  C:A6C5H         LINE#         99
  C:A6C5H         LINE#         100
  C:A6DCH         LINE#         101
  C:A6E6H         LINE#         102
  C:A6EEH         LINE#         103
  -------         ENDPROC       _ESCRIBIRCADENASOFT_BUFFER
  -------         PROC          INICIA_BOARD
  C:AFFAH         LINE#         108
  C:AFFAH         LINE#         109
  C:AFFAH         LINE#         110
  C:AFFDH         LINE#         111
  C:B000H         LINE#         112
  C:B003H         LINE#         113
  C:B005H         LINE#         114
  C:B007H         LINE#         115
  C:B009H         LINE#         117
  -------         ENDPROC       INICIA_BOARD
  -------         PROC          VARIABLE_INICIO
  C:A459H         LINE#         122
  C:A459H         LINE#         123
  C:A459H         LINE#         126
  C:A46AH         LINE#         127
  C:A47BH         LINE#         128
  C:A489H         LINE#         129
  C:A497H         LINE#         130
  C:A4A5H         LINE#         132
  -------         ENDPROC       VARIABLE_INICIO
  -------         PROC          MAIN
  -------         DO            
  X:0142H         SYMBOL        buffer
BL51 BANKED LINKER/LOCATER V6.22.2.0                                                  08/19/2020  14:41:27  PAGE 26


  X:0000H         SYMBOL        Estado_Comunicacion_Secuencia_MF
  X:0001H         SYMBOL        Length_trama
  -------         ENDDO         
  C:995FH         LINE#         140
  C:995FH         LINE#         141
  C:995FH         LINE#         144
  C:9964H         LINE#         148
  C:9967H         LINE#         149
  C:996AH         LINE#         150
  C:996DH         LINE#         151
  C:9970H         LINE#         152
  C:9973H         LINE#         153
  C:9975H         LINE#         155
  C:9978H         LINE#         156
  C:997FH         LINE#         157
  C:9982H         LINE#         159
  C:9987H         LINE#         161
  C:998AH         LINE#         163
  C:998DH         LINE#         164
  C:998DH         LINE#         165
  C:9990H         LINE#         166
  C:9990H         LINE#         169
  C:9993H         LINE#         170
  C:9999H         LINE#         171
  C:999FH         LINE#         173
  C:999FH         LINE#         174
  C:999FH         LINE#         177
  C:99A2H         LINE#         178
  C:99A2H         LINE#         179
  C:99A5H         LINE#         180
  C:99A5H         LINE#         184
  C:99B2H         LINE#         189
  C:99B5H         LINE#         190
  C:99B5H         LINE#         192
  C:99C4H         LINE#         194
  C:99CDH         LINE#         196
  C:99DBH         LINE#         198
  C:99DBH         LINE#         199
  C:99DEH         LINE#         203
  -------         ENDPROC       MAIN
  -------         ENDMOD        MAIN

  -------         MODULE        ACCESCAN
  C:0000H         SYMBOL        _ICE_DUMMY_
  D:0080H         PUBLIC        P0
  D:0090H         PUBLIC        P1
  B:0080H.2       PUBLIC        led_err_imp
  C:A844H         PUBLIC        _Monitor_chr
  B:0080H.3       PUBLIC        Atascado
  B:0090H.7       PUBLIC        lock
  C:3E91H         PUBLIC        _Valida_Trama_Pto
  C:7C6FH         PUBLIC        _Cmd_LPR_Salida_wiegand
  -------         PROC          _VALIDA_TRAMA_PTO
  X:0002H         SYMBOL        buffer
  X:0005H         SYMBOL        length_trama
  -------         DO            
  X:020FH         SYMBOL        cont
BL51 BANKED LINKER/LOCATER V6.22.2.0                                                  08/19/2020  14:41:27  PAGE 27


  X:0006H         SYMBOL        buff
  -------         ENDDO         
  C:3E91H         LINE#         85
  C:3E9FH         LINE#         86
  C:3E9FH         LINE#         92
  C:3ED5H         LINE#         93
  C:3ED5H         LINE#         94
  C:3EEAH         LINE#         95
  C:3EEAH         LINE#         96
  C:3EFDH         LINE#         98
  C:3F00H         LINE#         100
  C:3F00H         LINE#         102
  C:3F00H         LINE#         104
  C:3F12H         LINE#         105
  C:3F12H         LINE#         106
  C:3F18H         LINE#         107
  C:3F25H         LINE#         108
  C:3F25H         LINE#         109
  C:3F2AH         LINE#         110
  C:3F2CH         LINE#         111
  C:3F31H         LINE#         112
  C:3F33H         LINE#         113
  C:3F35H         LINE#         114
  C:3F39H         LINE#         115
  C:3F39H         LINE#         116
  C:3F3AH         LINE#         118
  C:3F52H         LINE#         119
  C:3F52H         LINE#         121
  C:3F5FH         LINE#         122
  C:3F5FH         LINE#         123
  C:3F61H         LINE#         124
  C:3F63H         LINE#         125
  C:3F65H         LINE#         126
  C:3F67H         LINE#         127
  C:3F67H         LINE#         129
  C:3F8DH         LINE#         130
  C:3F8DH         LINE#         131
  C:3F91H         LINE#         132
  C:3F96H         LINE#         133
  C:3F9FH         LINE#         134
  C:3FA4H         LINE#         135
  C:3FA4H         LINE#         138
  C:3FA5H         LINE#         141
  C:3FB7H         LINE#         142
  C:3FB7H         LINE#         143
  C:3FB9H         LINE#         144
  C:3FBCH         LINE#         146
  C:3FCEH         LINE#         147
  C:3FCEH         LINE#         148
  C:3FD0H         LINE#         149
  C:3FD3H         LINE#         151
  C:3FEDH         LINE#         152
  C:3FEDH         LINE#         153
  C:3FEFH         LINE#         154
  C:3FF2H         LINE#         157
  C:400CH         LINE#         158
  C:400CH         LINE#         159
BL51 BANKED LINKER/LOCATER V6.22.2.0                                                  08/19/2020  14:41:27  PAGE 28


  C:400EH         LINE#         160
  C:4010H         LINE#         163
  C:402AH         LINE#         164
  C:402AH         LINE#         165
  C:402CH         LINE#         166
  C:402EH         LINE#         170
  C:4048H         LINE#         171
  C:4048H         LINE#         172
  C:404AH         LINE#         173
  C:404CH         LINE#         176
  C:4066H         LINE#         177
  C:4066H         LINE#         178
  C:4068H         LINE#         179
  C:406AH         LINE#         181
  C:4084H         LINE#         182
  C:4084H         LINE#         183
  C:4089H         LINE#         184
  C:4089H         LINE#         186
  C:40B9H         LINE#         187
  C:40B9H         LINE#         188
  C:40C7H         LINE#         189
  C:40CAH         LINE#         192
  C:410DH         LINE#         193
  C:410DH         LINE#         195
  C:4122H         LINE#         196
  C:4128H         LINE#         197
  C:4152H         LINE#         200
  C:415AH         LINE#         201
  C:415AH         LINE#         204
  C:4161H         LINE#         205
  C:4161H         LINE#         206
  C:4166H         LINE#         207
  C:4166H         LINE#         208
  C:4168H         LINE#         210
  C:4168H         LINE#         211
  C:4171H         LINE#         212
  C:4179H         LINE#         213
  C:4179H         LINE#         218
  C:417BH         LINE#         221
  C:417BH         LINE#         224
  C:4182H         LINE#         225
  C:4182H         LINE#         226
  C:4187H         LINE#         227
  C:4187H         LINE#         228
  C:4192H         LINE#         232
  C:4192H         LINE#         233
  C:4192H         LINE#         235
  C:41BFH         LINE#         236
  C:41BFH         LINE#         237
  C:41CEH         LINE#         239
  C:41CEH         LINE#         241
  -------         ENDPROC       _VALIDA_TRAMA_PTO
  -------         PROC          _MONITOR_CHR
  X:0033H         SYMBOL        str
  X:0036H         SYMBOL        num_char
  -------         DO            
  X:0037H         SYMBOL        j
BL51 BANKED LINKER/LOCATER V6.22.2.0                                                  08/19/2020  14:41:27  PAGE 29


  -------         ENDDO         
  C:A844H         LINE#         396
  C:A852H         LINE#         397
  C:A852H         LINE#         399
  C:A860H         LINE#         400
  C:A860H         LINE#         401
  C:A872H         LINE#         402
  C:A87CH         LINE#         403
  C:A884H         LINE#         404
  -------         ENDPROC       _MONITOR_CHR
  -------         PROC          _CMD_LPR_SALIDA_WIEGAND
  X:0011H         SYMBOL        buffer
  -------         DO            
  X:0014H         SYMBOL        Buffer_Lpr
  X:0032H         SYMBOL        j
  -------         ENDDO         
  C:7C6FH         LINE#         409
  C:7C7AH         LINE#         410
  C:7C7AH         LINE#         412
  C:7C80H         LINE#         413
  C:7C85H         LINE#         414
  C:7C8DH         LINE#         415
  C:7C91H         LINE#         416
  C:7C9AH         LINE#         417
  C:7C9AH         LINE#         418
  C:7CABH         LINE#         419
  C:7CADH         LINE#         421
  C:7CADH         LINE#         422
  C:7CBEH         LINE#         423
  C:7CBEH         LINE#         427
  C:7CD5H         LINE#         428
  C:7CD5H         LINE#         429
  C:7CE4H         LINE#         430
  C:7CEEH         LINE#         432
  C:7CF6H         LINE#         433
  C:7D0AH         LINE#         435
  C:7D1AH         LINE#         436
  C:7D2BH         LINE#         437
  C:7D38H         LINE#         441
  -------         ENDPROC       _CMD_LPR_SALIDA_WIEGAND
  -------         ENDMOD        ACCESCAN

  -------         MODULE        CLOCK
  C:0000H         SYMBOL        _ICE_DUMMY_
  C:A8B9H         PUBLIC        _two_one
  D:0090H         PUBLIC        P1
  C:6B09H         PUBLIC        _validar_clk
  C:AD15H         PUBLIC        _wr_clk
  C:7FA6H         PUBLIC        _check_fechaOut
  B:00D0H.7       PUBLIC        CY
  C:0003H         PUBLIC        p_ck
  C:923EH         PUBLIC        _hex_ascii
  X:0210H         PUBLIC        data_clk
  C:B041H         PUBLIC        cond_ini_clock
  C:806FH         PUBLIC        _Block_read_Clock
  B:0090H.4       PUBLIC        sck
  C:8CC5H         PUBLIC        _Block_read_Clock_Hex
BL51 BANKED LINKER/LOCATER V6.22.2.0                                                  08/19/2020  14:41:27  PAGE 30


  C:59DCH         PUBLIC        _Block_read_clock_ascii
  C:A99FH         PUBLIC        _hex_bcd
  C:AEE9H         PUBLIC        _bcd_hex
  C:A190H         PUBLIC        _ByteHex_Decimal
  C:93FBH         PUBLIC        _lee_clk
  B:0090H.5       PUBLIC        io
  C:9511H         PUBLIC        _Block_write_clock_ascii
  B:0090H.6       PUBLIC        rst
  C:A906H         PUBLIC        _eb_clk
  C:41CFH         PUBLIC        _Two_ByteHex_Decimal
  -------         PROC          P_CK
  C:0003H         LINE#         48
  C:0003H         LINE#         49
  C:0003H         LINE#         50
  C:0005H         LINE#         51
  C:0008H         LINE#         52
  C:000AH         LINE#         53
  -------         ENDPROC       P_CK
  -------         PROC          _EB_CLK
  X:00B5H         SYMBOL        dir_clk
  -------         DO            
  X:00B6H         SYMBOL        nbits
  -------         ENDDO         
  C:A906H         LINE#         55
  C:A90BH         LINE#         57
  C:A910H         LINE#         58
  C:A910H         LINE#         59
  C:A919H         LINE#         60
  C:A91CH         LINE#         61
  C:A91CH         LINE#         62
  C:A91EH         LINE#         63
  C:A920H         LINE#         65
  C:A920H         LINE#         66
  C:A922H         LINE#         67
  C:A922H         LINE#         68
  C:A925H         LINE#         69
  C:A944H         LINE#         70
  -------         ENDPROC       _EB_CLK
  C:93F1H         SYMBOL        L?0082
  -------         PROC          L?0081
  -------         ENDPROC       L?0081
  C:93F1H         SYMBOL        L?0082
  -------         PROC          _LEE_CLK
  X:00B2H         SYMBOL        dir_clk
  -------         DO            
  X:00B3H         SYMBOL        nbits
  -------         ENDDO         
  C:93FBH         LINE#         72
  C:9400H         LINE#         74
  C:9402H         LINE#         75
  C:9409H         LINE#         76
  C:9411H         LINE#         77
  C:942AH         LINE#         78
  C:942AH         LINE#         79
  C:942DH         LINE#         80
  C:942DH         LINE#         81
  C:9434H         LINE#         82
BL51 BANKED LINKER/LOCATER V6.22.2.0                                                  08/19/2020  14:41:27  PAGE 31


  C:943EH         LINE#         83
  C:9443H         LINE#         84
  C:9443H         LINE#         85
  C:9443H         LINE#         86
  C:9446H         LINE#         87
  C:9446H         LINE#         88
  C:944DH         LINE#         89
  C:945EH         LINE#         90
  C:945EH         LINE#         91
  C:9466H         LINE#         92
  C:9466H         LINE#         93
  C:9466H         LINE#         94
  C:9469H         LINE#         95
  C:9479H         LINE#         96
  C:947BH         LINE#         97
  C:9480H         LINE#         98
  -------         ENDPROC       _LEE_CLK
  -------         PROC          _WR_CLK
  X:0014H         SYMBOL        dir_clk
  X:0015H         SYMBOL        byte
  C:AD15H         LINE#         100
  C:AD1DH         LINE#         101
  C:AD1FH         LINE#         102
  C:AD26H         LINE#         103
  C:AD2EH         LINE#         104
  C:AD37H         LINE#         105
  C:AD3AH         LINE#         106
  C:AD3CH         LINE#         108
  -------         ENDPROC       _WR_CLK
  C:A885H         SYMBOL        L?0077
  C:A8A3H         SYMBOL        L?0078
  -------         PROC          L?0076
  -------         ENDPROC       L?0076
  C:A885H         SYMBOL        L?0077
  C:A8A3H         SYMBOL        L?0078
  -------         PROC          _TWO_ONE
  D:0007H         SYMBOL        byte_h
  D:0005H         SYMBOL        byte_l
  -------         DO            
  D:0007H         SYMBOL        byte_out
  -------         ENDDO         
  C:A8B9H         LINE#         110
  C:A8B9H         LINE#         111
  C:A8B9H         LINE#         113
  C:A8BCH         LINE#         114
  C:A8C0H         LINE#         115
  C:A8C3H         LINE#         116
  C:A8C5H         LINE#         117
  C:A8C5H         LINE#         118
  -------         ENDPROC       _TWO_ONE
  -------         PROC          _VALIDAR_CLK
  D:0001H         SYMBOL        datos_clock
  -------         DO            
  D:0007H         SYMBOL        validador
  -------         ENDDO         
  C:6B09H         LINE#         122
  C:6B09H         LINE#         123
BL51 BANKED LINKER/LOCATER V6.22.2.0                                                  08/19/2020  14:41:27  PAGE 32


  C:6B09H         LINE#         124
  C:6B0BH         LINE#         127
  C:6B20H         LINE#         128
  C:6B20H         LINE#         130
  C:6B38H         LINE#         131
  C:6B38H         LINE#         133
  C:6B50H         LINE#         134
  C:6B50H         LINE#         135
  C:6B68H         LINE#         136
  C:6B68H         LINE#         137
  C:6B80H         LINE#         138
  C:6B80H         LINE#         139
  C:6B95H         LINE#         140
  C:6B95H         LINE#         141
  C:6BA7H         LINE#         142
  C:6BA7H         LINE#         143
  C:6BB9H         LINE#         144
  C:6BB9H         LINE#         145
  C:6BCBH         LINE#         146
  C:6BCBH         LINE#         147
  C:6BDDH         LINE#         148
  C:6BDDH         LINE#         149
  C:6BEFH         LINE#         150
  C:6BEFH         LINE#         151
  C:6BFFH         LINE#         152
  C:6BFFH         LINE#         153
  C:6BFFH         LINE#         154
  C:6BFFH         LINE#         155
  C:6C00H         LINE#         157
  C:6C00H         LINE#         158
  C:6C02H         LINE#         159
  C:6C02H         LINE#         160
  C:6C03H         LINE#         162
  C:6C03H         LINE#         163
  C:6C05H         LINE#         165
  C:6C05H         LINE#         166
  C:6C06H         LINE#         168
  C:6C06H         LINE#         169
  C:6C08H         LINE#         171
  C:6C08H         LINE#         173
  C:6C09H         LINE#         175
  C:6C09H         LINE#         176
  C:6C0BH         LINE#         178
  C:6C0BH         LINE#         179
  C:6C0CH         LINE#         181
  C:6C0CH         LINE#         182
  C:6C0EH         LINE#         184
  C:6C0EH         LINE#         185
  C:6C0FH         LINE#         187
  C:6C0FH         LINE#         188
  C:6C11H         LINE#         190
  C:6C11H         LINE#         191
  C:6C12H         LINE#         193
  C:6C12H         LINE#         194
  C:6C14H         LINE#         196
  C:6C14H         LINE#         197
  C:6C14H         LINE#         199
BL51 BANKED LINKER/LOCATER V6.22.2.0                                                  08/19/2020  14:41:27  PAGE 33


  C:6C15H         LINE#         201
  C:6C15H         LINE#         202
  C:6C17H         LINE#         204
  C:6C17H         LINE#         206
  C:6C18H         LINE#         209
  C:6C18H         LINE#         210
  C:6C1AH         LINE#         212
  C:6C1AH         LINE#         214
  C:6C1BH         LINE#         217
  C:6C1BH         LINE#         218
  C:6C1DH         LINE#         220
  C:6C1DH         LINE#         222
  C:6C1DH         LINE#         224
  -------         ENDPROC       _VALIDAR_CLK
  -------         PROC          _BLOCK_WRITE_CLOCK_ASCII
  X:0011H         SYMBOL        datos_clock
  -------         DO            
  D:0007H         SYMBOL        temp
  -------         ENDDO         
  C:9511H         LINE#         230
  C:951CH         LINE#         232
  C:951CH         LINE#         237
  C:9526H         LINE#         238
  C:9526H         LINE#         239
  C:9526H         LINE#         240
  C:9526H         LINE#         242
  C:9530H         LINE#         243
  C:953AH         LINE#         244
  C:9544H         LINE#         245
  C:9544H         LINE#         246
  C:9544H         LINE#         247
  C:9544H         LINE#         249
  C:954EH         LINE#         250
  C:954EH         LINE#         251
  C:954EH         LINE#         252
  C:954EH         LINE#         254
  C:9558H         LINE#         255
  C:9558H         LINE#         256
  C:9558H         LINE#         257
  C:9558H         LINE#         259
  C:9562H         LINE#         260
  C:9562H         LINE#         261
  C:9562H         LINE#         262
  C:9562H         LINE#         264
  C:956CH         LINE#         265
  C:9576H         LINE#         266
  C:9580H         LINE#         267
  C:958AH         LINE#         269
  C:959AH         LINE#         270
  -------         ENDPROC       _BLOCK_WRITE_CLOCK_ASCII
  -------         PROC          _BCD_HEX
  D:0007H         SYMBOL        l_data
  -------         DO            
  D:0006H         SYMBOL        temp
  D:0005H         SYMBOL        j
  -------         ENDDO         
  C:AEE9H         LINE#         276
BL51 BANKED LINKER/LOCATER V6.22.2.0                                                  08/19/2020  14:41:27  PAGE 34


  C:AEE9H         LINE#         277
  C:AEE9H         LINE#         279
  C:AEEBH         LINE#         280
  C:AEEFH         LINE#         281
  C:AEF2H         LINE#         282
  C:AEF4H         LINE#         283
  C:AEF4H         LINE#         284
  C:AEF8H         LINE#         285
  C:AEFFH         LINE#         286
  C:AEFFH         LINE#         287
  C:AF03H         LINE#         288
  C:AF06H         LINE#         289
  C:AF06H         LINE#         290
  C:AF06H         LINE#         291
  -------         ENDPROC       _BCD_HEX
  C:A990H         SYMBOL        L?0080
  -------         PROC          L?0079
  -------         ENDPROC       L?0079
  C:A990H         SYMBOL        L?0080
  -------         PROC          _HEX_BCD
  D:0007H         SYMBOL        byte
  -------         DO            
  D:0006H         SYMBOL        nibble_h
  D:0005H         SYMBOL        nibble_l
  D:0004H         SYMBOL        k
  D:0007H         SYMBOL        byte_out
  -------         ENDDO         
  C:A99FH         LINE#         295
  C:A99FH         LINE#         296
  C:A99FH         LINE#         301
  C:A9A1H         LINE#         302
  C:A9A2H         LINE#         304
  C:A9A8H         LINE#         305
  C:A9A8H         LINE#         306
  C:A9A9H         LINE#         307
  C:A9AEH         LINE#         308
  C:A9AEH         LINE#         309
  C:A9AFH         LINE#         310
  C:A9B0H         LINE#         311
  C:A9B0H         LINE#         312
  C:A9B3H         LINE#         313
  C:A9B7H         LINE#         314
  C:A9BAH         LINE#         315
  C:A9BDH         LINE#         316
  C:A9BFH         LINE#         317
  C:A9BFH         LINE#         319
  -------         ENDPROC       _HEX_BCD
  -------         PROC          _HEX_ASCII
  X:005EH         SYMBOL        datos
  X:0061H         SYMBOL        fecha_asii
  -------         DO            
  D:0007H         SYMBOL        dato
  -------         ENDDO         
  C:923EH         LINE#         320
  C:9249H         LINE#         321
  C:9249H         LINE#         325
  C:924CH         LINE#         326
BL51 BANKED LINKER/LOCATER V6.22.2.0                                                  08/19/2020  14:41:27  PAGE 35


  C:9264H         LINE#         327
  C:9279H         LINE#         328
  C:9279H         LINE#         330
  C:927CH         LINE#         331
  C:9297H         LINE#         332
  C:929FH         LINE#         333
  C:929FH         LINE#         335
  C:92A2H         LINE#         336
  C:92BDH         LINE#         337
  C:92C8H         LINE#         339
  -------         ENDPROC       _HEX_ASCII
  -------         PROC          _BYTEHEX_DECIMAL
  D:0001H         SYMBOL        buffer
  D:0005H         SYMBOL        valorhex
  -------         DO            
  X:0016H         SYMBOL        numero
  D:0007H         SYMBOL        centena
  D:0006H         SYMBOL        decena
  -------         ENDDO         
  C:A190H         LINE#         347
  C:A190H         LINE#         348
  C:A190H         LINE#         351
  C:A192H         LINE#         352
  C:A193H         LINE#         353
  C:A198H         LINE#         355
  C:A1A5H         LINE#         356
  C:A1A5H         LINE#         357
  C:A1A9H         LINE#         358
  C:A1AAH         LINE#         359
  C:A1ACH         LINE#         360
  C:A1B2H         LINE#         361
  C:A1B9H         LINE#         362
  C:A1C6H         LINE#         363
  C:A1C6H         LINE#         364
  C:A1CAH         LINE#         365
  C:A1CBH         LINE#         366
  C:A1CDH         LINE#         367
  C:A1D3H         LINE#         368
  C:A1DAH         LINE#         369
  C:A1E3H         LINE#         370
  C:A1EAH         LINE#         371
  -------         ENDPROC       _BYTEHEX_DECIMAL
  -------         PROC          _TWO_BYTEHEX_DECIMAL
  X:0016H         SYMBOL        buffer
  X:0019H         SYMBOL        id_h
  X:001AH         SYMBOL        id_l
  -------         DO            
  X:001BH         SYMBOL        valor
  D:0006H         SYMBOL        numero
  X:001DH         SYMBOL        temp
  X:001EH         SYMBOL        dmil
  X:001FH         SYMBOL        mil
  X:0020H         SYMBOL        centena
  X:0021H         SYMBOL        decena
  -------         ENDDO         
  C:41CFH         LINE#         378
  C:41DDH         LINE#         379
BL51 BANKED LINKER/LOCATER V6.22.2.0                                                  08/19/2020  14:41:27  PAGE 36


  C:41DDH         LINE#         383
  C:41E4H         LINE#         384
  C:41E8H         LINE#         385
  C:41EAH         LINE#         386
  C:41ECH         LINE#         387
  C:41EEH         LINE#         390
  C:41F3H         LINE#         391
  C:41F6H         LINE#         392
  C:41FCH         LINE#         394
  C:4257H         LINE#         395
  C:425FH         LINE#         396
  C:4262H         LINE#         397
  C:42BDH         LINE#         399
  C:42C5H         LINE#         400
  C:42C8H         LINE#         401
  C:42CEH         LINE#         402
  C:4329H         LINE#         403
  C:4331H         LINE#         404
  C:4334H         LINE#         405
  C:438FH         LINE#         406
  C:438FH         LINE#         408
  C:4398H         LINE#         409
  C:4398H         LINE#         410
  C:43A0H         LINE#         411
  C:43A6H         LINE#         412
  C:43A8H         LINE#         413
  C:43BEH         LINE#         414
  C:43C8H         LINE#         415
  C:43D1H         LINE#         416
  C:43D1H         LINE#         417
  C:43D9H         LINE#         418
  C:43DFH         LINE#         419
  C:43E1H         LINE#         420
  C:43F7H         LINE#         421
  C:4401H         LINE#         422
  C:440AH         LINE#         423
  C:440AH         LINE#         424
  C:4412H         LINE#         425
  C:4418H         LINE#         426
  C:441AH         LINE#         427
  C:4430H         LINE#         428
  C:443AH         LINE#         429
  C:4443H         LINE#         430
  C:4443H         LINE#         431
  C:444BH         LINE#         432
  C:4451H         LINE#         433
  C:4453H         LINE#         434
  C:4469H         LINE#         435
  C:4473H         LINE#         436
  C:4486H         LINE#         437
  C:4490H         LINE#         438
  -------         ENDPROC       _TWO_BYTEHEX_DECIMAL
  -------         PROC          _BLOCK_READ_CLOCK_ASCII
  X:0052H         SYMBOL        datos_clock
  -------         DO            
  D:0007H         SYMBOL        dato
  -------         ENDDO         
BL51 BANKED LINKER/LOCATER V6.22.2.0                                                  08/19/2020  14:41:27  PAGE 37


  C:59DCH         LINE#         444
  C:59DFH         LINE#         445
  C:59DFH         LINE#         451
  C:59E2H         LINE#         452
  C:59FAH         LINE#         453
  C:5A04H         LINE#         454
  C:5A19H         LINE#         455
  C:5A23H         LINE#         458
  C:5A28H         LINE#         459
  C:5A40H         LINE#         460
  C:5A4AH         LINE#         461
  C:5A5FH         LINE#         462
  C:5A69H         LINE#         465
  C:5A6EH         LINE#         466
  C:5A86H         LINE#         467
  C:5A90H         LINE#         468
  C:5AA5H         LINE#         469
  C:5AAFH         LINE#         473
  C:5AB4H         LINE#         474
  C:5ACCH         LINE#         475
  C:5AD6H         LINE#         476
  C:5AEBH         LINE#         477
  C:5AF5H         LINE#         480
  C:5AFAH         LINE#         481
  C:5B12H         LINE#         482
  C:5B1CH         LINE#         483
  C:5B31H         LINE#         484
  C:5B3BH         LINE#         485
  -------         ENDPROC       _BLOCK_READ_CLOCK_ASCII
  -------         PROC          _BLOCK_READ_CLOCK_HEX
  X:00AFH         SYMBOL        datos_clock
  C:8CC5H         LINE#         489
  C:8CC8H         LINE#         490
  C:8CC8H         LINE#         493
  C:8CDDH         LINE#         494
  C:8CE7H         LINE#         496
  C:8CFEH         LINE#         497
  C:8D08H         LINE#         499
  C:8D1FH         LINE#         500
  C:8D29H         LINE#         502
  C:8D40H         LINE#         503
  C:8D4AH         LINE#         505
  C:8D61H         LINE#         506
  -------         ENDPROC       _BLOCK_READ_CLOCK_HEX
  -------         PROC          _BLOCK_READ_CLOCK
  X:001EH         SYMBOL        datos_clock
  C:806FH         LINE#         533
  C:8072H         LINE#         534
  C:8072H         LINE#         536
  C:8084H         LINE#         537
  C:808EH         LINE#         539
  C:80A2H         LINE#         540
  C:80ACH         LINE#         542
  C:80C0H         LINE#         543
  C:80CAH         LINE#         545
  C:80DEH         LINE#         546
  C:80E8H         LINE#         548
BL51 BANKED LINKER/LOCATER V6.22.2.0                                                  08/19/2020  14:41:27  PAGE 38


  C:80FCH         LINE#         549
  C:8106H         LINE#         551
  C:811AH         LINE#         552
  C:8124H         LINE#         553
  -------         ENDPROC       _BLOCK_READ_CLOCK
  -------         PROC          COND_INI_CLOCK
  C:B041H         LINE#         556
  C:B041H         LINE#         557
  C:B041H         LINE#         558
  C:B043H         LINE#         559
  C:B045H         LINE#         560
  C:B047H         LINE#         561
  -------         ENDPROC       COND_INI_CLOCK
  -------         PROC          _CHECK_FECHAOUT
  X:009DH         SYMBOL        buffer
  -------         DO            
  X:00A0H         SYMBOL        fecha_inicio
  X:00A4H         SYMBOL        fecha_fin
  X:00A8H         SYMBOL        datos_clk
  X:00AEH         SYMBOL        temp
  -------         ENDDO         
  C:7FA6H         LINE#         571
  C:7FB1H         LINE#         572
  C:7FB1H         LINE#         578
  C:7FBAH         LINE#         579
  C:7FE9H         LINE#         580
  C:803CH         LINE#         583
  C:805CH         LINE#         584
  C:805CH         LINE#         585
  C:8062H         LINE#         586
  C:8064H         LINE#         588
  C:8064H         LINE#         589
  C:8069H         LINE#         590
  C:8069H         LINE#         594
  C:806EH         LINE#         595
  -------         ENDPROC       _CHECK_FECHAOUT
  -------         ENDMOD        CLOCK

  -------         MODULE        DELAY
  C:0000H         SYMBOL        _ICE_DUMMY_
  C:AAEBH         PUBLIC        _Delay_10ms
  C:AF90H         PUBLIC        _Delay_20us
  C:AF07H         PUBLIC        _Delay_1ms
  C:B094H         PUBLIC        Delay
  -------         PROC          _DELAY_20US
  D:0006H         SYMBOL        cntd_us
  -------         DO            
  D:0004H         SYMBOL        i
  -------         ENDDO         
  C:AF90H         LINE#         20
  C:AF90H         LINE#         21
  C:AF90H         LINE#         24
  C:AF9AH         LINE#         26
  C:AFA1H         LINE#         27
  -------         ENDPROC       _DELAY_20US
  -------         PROC          _DELAY_1MS
  D:0002H         SYMBOL        cntd_ms
BL51 BANKED LINKER/LOCATER V6.22.2.0                                                  08/19/2020  14:41:27  PAGE 39


  -------         DO            
  D:0082H         SYMBOL        i
  -------         ENDDO         
  C:AF07H         LINE#         38
  C:AF0BH         LINE#         39
  C:AF0BH         LINE#         41
  C:AF21H         LINE#         42
  -------         ENDPROC       _DELAY_1MS
  -------         PROC          _DELAY_10MS
  X:0009H         SYMBOL        cntd_10ms
  -------         DO            
  X:000BH         SYMBOL        i
  -------         ENDDO         
  C:AAEBH         LINE#         54
  C:AAF3H         LINE#         55
  C:AAF3H         LINE#         57
  C:AB24H         LINE#         58
  -------         ENDPROC       _DELAY_10MS
  -------         PROC          DELAY
  C:B094H         LINE#         60
  C:B094H         LINE#         62
  -------         ENDPROC       DELAY
  -------         ENDMOD        DELAY

  -------         MODULE        EEPROM
  C:0000H         SYMBOL        _ICE_DUMMY_
  D:0090H         PUBLIC        P1
  C:7720H         PUBLIC        _Write_EEprom_Ticket
  C:9F27H         PUBLIC        _EscribirMemoria
  X:0206H         PUBLIC        l_chr
  C:AE6EH         PUBLIC        ackd
  B:0021H.5       PUBLIC        memory_flag
  B:00D0H.7       PUBLIC        CY
  C:B079H         PUBLIC        p_me
  C:AFAAH         PUBLIC        start
  B:0090H.2       PUBLIC        sda
  C:AE8EH         PUBLIC        ack_lect
  B:0090H.3       PUBLIC        scl
  C:A9C4H         PUBLIC        _rd_eeprom
  C:B02FH         PUBLIC        stop
  X:0207H         PUBLIC        l_data_eeprom
  C:A3C5H         PUBLIC        _wr_eeprom
  C:A001H         PUBLIC        _LeerMemoria
  C:AB93H         PUBLIC        Incremente_Ticket
  X:0208H         PUBLIC        byte_rd
  C:7EDCH         PUBLIC        Read_EEprom_Ticket
  C:AE49H         PUBLIC        _e_d_m
  C:7D45H         PUBLIC        _graba_serie
  C:A4F3H         PUBLIC        Lee_No_Ticket
  C:A4A6H         PUBLIC        l_d_m
  -------         PROC          L?0057
  -------         ENDPROC       L?0057
  -------         PROC          ACKD
  -------         DO            
  D:0006H         SYMBOL        i
  -------         ENDDO         
  C:AE6EH         LINE#         35
BL51 BANKED LINKER/LOCATER V6.22.2.0                                                  08/19/2020  14:41:27  PAGE 40


  C:AE6EH         LINE#         36
  C:AE6EH         LINE#         38
  C:AE70H         LINE#         39
  C:AE72H         LINE#         40
  C:AE74H         LINE#         41
  C:AE77H         LINE#         42
  C:AE77H         LINE#         43
  C:AE7AH         LINE#         44
  C:AE7AH         LINE#         45
  C:AE7CH         LINE#         46
  C:AE7EH         LINE#         48
  C:AE7FH         LINE#         49
  C:AE7FH         LINE#         50
  C:AE8AH         LINE#         52
  C:AE8AH         LINE#         53
  C:AE8AH         LINE#         55
  C:AE8AH         LINE#         56
  -------         ENDPROC       ACKD
  -------         PROC          L?0061
  -------         ENDPROC       L?0061
  -------         PROC          ACK_LECT
  -------         DO            
  D:0006H         SYMBOL        i
  -------         ENDDO         
  C:AE8EH         LINE#         59
  C:AE8EH         LINE#         60
  C:AE8EH         LINE#         62
  C:AE90H         LINE#         63
  C:AE92H         LINE#         64
  C:AE94H         LINE#         65
  C:AE97H         LINE#         66
  C:AE97H         LINE#         67
  C:AE9AH         LINE#         68
  C:AE9AH         LINE#         69
  C:AE9CH         LINE#         70
  C:AE9EH         LINE#         71
  C:AE9FH         LINE#         72
  C:AE9FH         LINE#         73
  C:AEAAH         LINE#         74
  -------         ENDPROC       ACK_LECT
  -------         PROC          P_ME
  C:B079H         LINE#         76
  C:B079H         LINE#         77
  C:B079H         LINE#         78
  C:B07BH         LINE#         79
  C:B07CH         LINE#         80
  C:B07EH         LINE#         81
  -------         ENDPROC       P_ME
  -------         PROC          _E_D_M
  D:0007H         SYMBOL        a_serial_eeprom
  -------         DO            
  D:0006H         SYMBOL        nbits
  -------         ENDDO         
  C:AE49H         LINE#         83
  C:AE49H         LINE#         84
  C:AE49H         LINE#         86
  C:AE55H         LINE#         87
BL51 BANKED LINKER/LOCATER V6.22.2.0                                                  08/19/2020  14:41:27  PAGE 41


  C:AE55H         LINE#         88
  C:AE59H         LINE#         89
  C:AE5CH         LINE#         90
  C:AE5CH         LINE#         91
  C:AE5EH         LINE#         92
  C:AE60H         LINE#         94
  C:AE60H         LINE#         95
  C:AE62H         LINE#         96
  C:AE62H         LINE#         97
  C:AE64H         LINE#         98
  C:AE67H         LINE#         99
  C:AE6AH         LINE#         101
  -------         ENDPROC       _E_D_M
  -------         PROC          L?0058
  -------         ENDPROC       L?0058
  -------         PROC          START
  C:AFAAH         LINE#         103
  C:AFAAH         LINE#         104
  C:AFAAH         LINE#         105
  C:AFACH         LINE#         106
  C:AFAEH         LINE#         107
  C:AFAFH         LINE#         108
  C:AFB1H         LINE#         109
  C:AFB3H         LINE#         111
  -------         ENDPROC       START
  -------         PROC          STOP
  C:B02FH         LINE#         113
  C:B02FH         LINE#         114
  C:B02FH         LINE#         115
  C:B031H         LINE#         116
  C:B033H         LINE#         117
  C:B035H         LINE#         118
  C:B037H         LINE#         120
  -------         ENDPROC       STOP
  -------         PROC          L_D_M
  -------         DO            
  D:0003H         SYMBOL        nbits
  -------         ENDDO         
  C:A4A6H         LINE#         122
  C:A4A6H         LINE#         123
  C:A4A6H         LINE#         125
  C:A4B3H         LINE#         126
  C:A4B3H         LINE#         127
  C:A4B5H         LINE#         128
  C:A4B8H         LINE#         129
  C:A4B8H         LINE#         130
  C:A4BFH         LINE#         131
  C:A4C8H         LINE#         132
  C:A4C8H         LINE#         133
  C:A4CCH         LINE#         134
  C:A4CEH         LINE#         135
  C:A4CEH         LINE#         136
  C:A4CEH         LINE#         137
  C:A4D1H         LINE#         138
  C:A4D1H         LINE#         139
  C:A4D8H         LINE#         140
  C:A4E2H         LINE#         141
BL51 BANKED LINKER/LOCATER V6.22.2.0                                                  08/19/2020  14:41:27  PAGE 42


  C:A4E2H         LINE#         142
  C:A4E6H         LINE#         143
  C:A4E8H         LINE#         144
  C:A4E8H         LINE#         145
  C:A4E8H         LINE#         146
  C:A4EBH         LINE#         147
  C:A4EDH         LINE#         148
  C:A4F2H         LINE#         149
  -------         ENDPROC       L_D_M
  -------         PROC          L?0056
  -------         ENDPROC       L?0056
  -------         PROC          _WR_EEPROM
  D:0002H         SYMBOL        control
  D:0004H         SYMBOL        Dir
  D:0003H         SYMBOL        data_eeprom
  -------         DO            
  D:0005H         SYMBOL        dir_h
  D:0001H         SYMBOL        dir_l
  -------         ENDDO         
  C:A3C5H         LINE#         155
  C:A3C7H         LINE#         156
  C:A3C7H         LINE#         158
  C:A3CBH         LINE#         159
  C:A3CBH         LINE#         160
  C:A3CBH         LINE#         163
  C:A3CBH         LINE#         164
  C:A3CBH         LINE#         166
  C:A3CEH         LINE#         167
  C:A3D0H         LINE#         168
  C:A3D3H         LINE#         169
  C:A3D5H         LINE#         170
  C:A3D8H         LINE#         171
  C:A3DDH         LINE#         172
  C:A3E0H         LINE#         173
  C:A3E5H         LINE#         174
  C:A3E8H         LINE#         175
  C:A3EBH         LINE#         176
  C:A3F2H         LINE#         178
  C:A3F4H         LINE#         179
  C:A3F6H         LINE#         180
  C:A3FDH         LINE#         181
  -------         ENDPROC       _WR_EEPROM
  C:A9C0H         SYMBOL        L?0060
  -------         PROC          L?0059
  -------         ENDPROC       L?0059
  C:A9C0H         SYMBOL        L?0060
  -------         PROC          _RD_EEPROM
  D:0003H         SYMBOL        control
  D:0004H         SYMBOL        Dir
  -------         DO            
  D:0005H         SYMBOL        dir_h
  D:0002H         SYMBOL        dir_l
  -------         ENDDO         
  C:A9C4H         LINE#         219
  C:A9C6H         LINE#         220
  C:A9C6H         LINE#         223
  C:A9CAH         LINE#         224
BL51 BANKED LINKER/LOCATER V6.22.2.0                                                  08/19/2020  14:41:27  PAGE 43


  C:A9CAH         LINE#         225
  C:A9CAH         LINE#         227
  C:A9CAH         LINE#         228
  C:A9CAH         LINE#         230
  C:A9CDH         LINE#         231
  C:A9CFH         LINE#         232
  C:A9D2H         LINE#         233
  C:A9D4H         LINE#         234
  C:A9D7H         LINE#         235
  C:A9DCH         LINE#         236
  C:A9DFH         LINE#         237
  C:A9E2H         LINE#         238
  C:A9E8H         LINE#         239
  C:A9EBH         LINE#         240
  C:A9EDH         LINE#         241
  C:A9F0H         LINE#         242
  C:A9F3H         LINE#         243
  C:A9F5H         LINE#         244
  C:A9F7H         LINE#         245
  C:A9FCH         LINE#         246
  -------         ENDPROC       _RD_EEPROM
  -------         PROC          _GRABA_SERIE
  X:0011H         SYMBOL        buffer
  -------         DO            
  X:0014H         SYMBOL        j
  X:0015H         SYMBOL        error
  -------         ENDDO         
  C:7D45H         LINE#         253
  C:7D50H         LINE#         254
  C:7D50H         LINE#         257
  C:7D55H         LINE#         262
  C:7D67H         LINE#         264
  C:7D7AH         LINE#         265
  C:7D7AH         LINE#         266
  C:7DA3H         LINE#         267
  C:7DA3H         LINE#         268
  C:7DA9H         LINE#         270
  C:7DB2H         LINE#         271
  C:7DC0H         LINE#         272
  C:7DC9H         LINE#         273
  C:7DC9H         LINE#         275
  C:7DD1H         LINE#         279
  C:7DD7H         LINE#         280
  C:7DD7H         LINE#         281
  C:7DE5H         LINE#         283
  C:7DE5H         LINE#         285
  C:7DE5H         LINE#         286
  C:7DEFH         LINE#         287
  C:7DFAH         LINE#         288
  C:7E05H         LINE#         289
  C:7E10H         LINE#         291
  C:7E10H         LINE#         292
  -------         ENDPROC       _GRABA_SERIE
  -------         PROC          _WRITE_EEPROM_TICKET
  X:0016H         SYMBOL        buffer
  -------         DO            
  X:0019H         SYMBOL        cod_3
BL51 BANKED LINKER/LOCATER V6.22.2.0                                                  08/19/2020  14:41:27  PAGE 44


  X:001AH         SYMBOL        cod_2
  X:001BH         SYMBOL        cod_1
  X:001CH         SYMBOL        cod_0
  X:001DH         SYMBOL        Noticket
  D:0004H         SYMBOL        Bnoticket
  -------         ENDDO         
  C:7720H         LINE#         293
  C:772BH         LINE#         294
  C:772BH         LINE#         296
  C:7733H         LINE#         297
  C:773CH         LINE#         298
  C:774AH         LINE#         299
  C:7753H         LINE#         300
  C:7767H         LINE#         302
  C:7770H         LINE#         303
  C:7783H         LINE#         304
  C:7788H         LINE#         305
  C:778BH         LINE#         307
  C:779EH         LINE#         308
  C:77A3H         LINE#         309
  C:77A6H         LINE#         311
  C:77B9H         LINE#         312
  C:77BEH         LINE#         313
  C:77C1H         LINE#         315
  C:77CDH         LINE#         316
  C:77D0H         LINE#         317
  C:77D9H         LINE#         319
  C:77E7H         LINE#         320
  C:77F5H         LINE#         321
  C:7803H         LINE#         322
  -------         ENDPROC       _WRITE_EEPROM_TICKET
  -------         PROC          LEE_NO_TICKET
  -------         DO            
  D:0004H         SYMBOL        Noticket
  X:001CH         SYMBOL        Lee_No_Ticket
  D:0007H         SYMBOL        num_chr
  -------         ENDDO         
  C:A4F3H         LINE#         327
  C:A4F3H         LINE#         328
  C:A4F3H         LINE#         332
  C:A4F6H         LINE#         333
  C:A511H         LINE#         334
  C:A51AH         LINE#         335
  C:A526H         LINE#         336
  C:A52FH         LINE#         337
  C:A538H         LINE#         338
  C:A53EH         LINE#         339
  -------         ENDPROC       LEE_NO_TICKET
  -------         PROC          READ_EEPROM_TICKET
  -------         DO            
  D:0001H         SYMBOL        cod3
  X:0027H         SYMBOL        cod2
  X:0028H         SYMBOL        cod1
  X:0029H         SYMBOL        cod0
  X:002AH         SYMBOL        Noticket
  -------         ENDDO         
  C:7EDCH         LINE#         343
BL51 BANKED LINKER/LOCATER V6.22.2.0                                                  08/19/2020  14:41:27  PAGE 45


  C:7EDCH         LINE#         344
  C:7EDCH         LINE#         346
  C:7EE6H         LINE#         347
  C:7EEDH         LINE#         348
  C:7EF7H         LINE#         349
  C:7F05H         LINE#         350
  C:7F0FH         LINE#         352
  C:7F2FH         LINE#         353
  C:7F54H         LINE#         354
  C:7F79H         LINE#         355
  C:7F97H         LINE#         356
  C:7FA5H         LINE#         357
  -------         ENDPROC       READ_EEPROM_TICKET
  -------         PROC          INCREMENTE_TICKET
  -------         DO            
  D:0004H         SYMBOL        Noticket
  X:0006H         SYMBOL        Lee_No_Ticket
  -------         ENDDO         
  C:AB93H         LINE#         361
  C:AB93H         LINE#         362
  C:AB93H         LINE#         366
  C:AB96H         LINE#         367
  C:ABA3H         LINE#         368
  C:ABBEH         LINE#         369
  -------         ENDPROC       INCREMENTE_TICKET
  -------         PROC          _LEERMEMORIA
  X:009DH         SYMBOL        addres
  X:009FH         SYMBOL        res
  -------         DO            
  D:0007H         SYMBOL        i
  -------         ENDDO         
  C:A001H         LINE#         375
  C:A012H         LINE#         376
  C:A012H         LINE#         378
  C:A012H         LINE#         379
  C:A02EH         LINE#         380
  C:A03DH         LINE#         381
  C:A04BH         LINE#         382
  C:A055H         LINE#         383
  C:A058H         LINE#         384
  -------         ENDPROC       _LEERMEMORIA
  -------         PROC          _ESCRIBIRMEMORIA
  X:005EH         SYMBOL        addres
  X:0060H         SYMBOL        res
  C:9F27H         LINE#         386
  C:9F38H         LINE#         387
  C:9F38H         LINE#         390
  C:9F48H         LINE#         391
  C:9F4FH         LINE#         392
  C:9F52H         LINE#         394
  C:9F60H         LINE#         395
  C:9F6AH         LINE#         396
  C:9F6CH         LINE#         397
  C:9F6FH         LINE#         398
  C:9F7DH         LINE#         399
  C:9F87H         LINE#         400
  -------         ENDPROC       _ESCRIBIRMEMORIA
BL51 BANKED LINKER/LOCATER V6.22.2.0                                                  08/19/2020  14:41:27  PAGE 46


  -------         ENDMOD        EEPROM

  -------         MODULE        IO_SENSORES
  C:0000H         SYMBOL        _ICE_DUMMY_
  D:0090H         PUBLIC        P1
  D:00B0H         PUBLIC        P3
  C:A7BFH         PUBLIC        Dir_board
  C:B056H         PUBLIC        sel_Pulsa
  B:0090H.1       PUBLIC        DataIn
  C:B04FH         PUBLIC        sel_Auto
  C:AB25H         PUBLIC        ValidaSensoresPaso
  B:00B0H.3       PUBLIC        busy
  C:AEABH         PUBLIC        ValidaSensor
  C:B064H         PUBLIC        sel_Sensor1
  C:B05DH         PUBLIC        sel_Sensor2
  C:A2FEH         PUBLIC        Valida_Sensor1_Auto
  B:00B0H.5       PUBLIC        sel_A
  B:00B0H.6       PUBLIC        sel_B
  B:00B0H.7       PUBLIC        sel_C
  C:9A61H         PUBLIC        msj_lcd_informativo
  C:B06BH         PUBLIC        sel_Dir1
  C:B072H         PUBLIC        sel_Dir2
  C:B048H         PUBLIC        sel_Funcion
  -------         PROC          SEL_FUNCION
  C:B048H         LINE#         31
  C:B048H         LINE#         32
  C:B048H         LINE#         33
  C:B04AH         LINE#         34
  C:B04CH         LINE#         35
  C:B04EH         LINE#         36
  -------         ENDPROC       SEL_FUNCION
  -------         PROC          SEL_AUTO
  C:B04FH         LINE#         38
  C:B04FH         LINE#         39
  C:B04FH         LINE#         40
  C:B051H         LINE#         41
  C:B053H         LINE#         42
  C:B055H         LINE#         43
  -------         ENDPROC       SEL_AUTO
  -------         PROC          SEL_PULSA
  C:B056H         LINE#         45
  C:B056H         LINE#         46
  C:B056H         LINE#         47
  C:B058H         LINE#         48
  C:B05AH         LINE#         49
  C:B05CH         LINE#         50
  -------         ENDPROC       SEL_PULSA
  -------         PROC          SEL_SENSOR2
  C:B05DH         LINE#         53
  C:B05DH         LINE#         54
  C:B05DH         LINE#         55
  C:B05FH         LINE#         56
  C:B061H         LINE#         57
  C:B063H         LINE#         58
  -------         ENDPROC       SEL_SENSOR2
  -------         PROC          SEL_SENSOR1
  C:B064H         LINE#         60
BL51 BANKED LINKER/LOCATER V6.22.2.0                                                  08/19/2020  14:41:27  PAGE 47


  C:B064H         LINE#         61
  C:B064H         LINE#         62
  C:B066H         LINE#         63
  C:B068H         LINE#         64
  C:B06AH         LINE#         65
  -------         ENDPROC       SEL_SENSOR1
  -------         PROC          SEL_DIR1
  C:B06BH         LINE#         67
  C:B06BH         LINE#         68
  C:B06BH         LINE#         69
  C:B06DH         LINE#         70
  C:B06FH         LINE#         71
  C:B071H         LINE#         72
  -------         ENDPROC       SEL_DIR1
  -------         PROC          SEL_DIR2
  C:B072H         LINE#         74
  C:B072H         LINE#         75
  C:B072H         LINE#         76
  C:B074H         LINE#         77
  C:B076H         LINE#         78
  C:B078H         LINE#         79
  -------         ENDPROC       SEL_DIR2
  -------         PROC          VALIDASENSOR
  -------         DO            
  D:0007H         SYMBOL        Valido
  D:0004H         SYMBOL        Tmin
  -------         ENDDO         
  C:AEABH         LINE#         81
  C:AEABH         LINE#         82
  C:AEABH         LINE#         84
  C:AEADH         LINE#         85
  C:AEB1H         LINE#         86
  C:AEBCH         LINE#         87
  C:AEBCH         LINE#         88
  C:AEC1H         LINE#         89
  C:AEC5H         LINE#         90
  C:AEC5H         LINE#         91
  C:AEC7H         LINE#         92
  C:AEC7H         LINE#         93
  C:AEC9H         LINE#         94
  C:AEC9H         LINE#         95
  -------         ENDPROC       VALIDASENSOR
  -------         PROC          DIR_BOARD
  -------         DO            
  X:0033H         SYMBOL        Board
  D:0007H         SYMBOL        Board_High
  -------         ENDDO         
  C:A7BFH         LINE#         99
  C:A7BFH         LINE#         100
  C:A7BFH         LINE#         101
  C:A7C5H         LINE#         103
  C:A7C8H         LINE#         104
  C:A7CBH         LINE#         105
  C:A7CBH         LINE#         106
  C:A7CEH         LINE#         107
  C:A7CEH         LINE#         108
  C:A7D1H         LINE#         109
BL51 BANKED LINKER/LOCATER V6.22.2.0                                                  08/19/2020  14:41:27  PAGE 48


  C:A7D4H         LINE#         110
  C:A7D4H         LINE#         111
  C:A7DBH         LINE#         112
  C:A7DBH         LINE#         113
  C:A7E3H         LINE#         114
  C:A7E3H         LINE#         115
  C:A7EBH         LINE#         117
  C:A7EEH         LINE#         118
  C:A7EEH         LINE#         119
  C:A7F4H         LINE#         120
  C:A7F4H         LINE#         121
  C:A7F6H         LINE#         122
  C:A7F8H         LINE#         123
  C:A7FAH         LINE#         124
  C:A7FAH         LINE#         126
  C:A7FAH         LINE#         127
  C:A801H         LINE#         128
  -------         ENDPROC       DIR_BOARD
  -------         PROC          VALIDA_SENSOR1_AUTO
  -------         DO            
  X:0012H         SYMBOL        sensor
  -------         ENDDO         
  C:A2FEH         LINE#         132
  C:A2FEH         LINE#         133
  C:A2FEH         LINE#         135
  C:A301H         LINE#         136
  C:A304H         LINE#         137
  C:A307H         LINE#         138
  C:A30CH         LINE#         139
  C:A30CH         LINE#         140
  C:A313H         LINE#         141
  C:A317H         LINE#         142
  C:A317H         LINE#         144
  C:A319H         LINE#         146
  C:A319H         LINE#         147
  C:A320H         LINE#         148
  C:A325H         LINE#         149
  C:A325H         LINE#         150
  C:A325H         LINE#         153
  C:A327H         LINE#         155
  C:A32AH         LINE#         156
  C:A32FH         LINE#         157
  C:A32FH         LINE#         159
  C:A336H         LINE#         160
  C:A33CH         LINE#         161
  C:A342H         LINE#         162
  C:A344H         LINE#         164
  C:A344H         LINE#         165
  C:A34BH         LINE#         166
  C:A350H         LINE#         167
  C:A350H         LINE#         170
  C:A350H         LINE#         171
  C:A355H         LINE#         172
  -------         ENDPROC       VALIDA_SENSOR1_AUTO
  -------         PROC          VALIDASENSORESPASO
  -------         DO            
  X:0011H         SYMBOL        sensor
BL51 BANKED LINKER/LOCATER V6.22.2.0                                                  08/19/2020  14:41:27  PAGE 49


  -------         ENDDO         
  C:AB25H         LINE#         177
  C:AB25H         LINE#         178
  C:AB25H         LINE#         180
  C:AB28H         LINE#         181
  C:AB2BH         LINE#         182
  C:AB2BH         LINE#         183
  C:AB39H         LINE#         184
  C:AB39H         LINE#         185
  C:AB41H         LINE#         187
  C:AB43H         LINE#         189
  C:AB43H         LINE#         190
  C:AB49H         LINE#         191
  C:AB4BH         LINE#         192
  C:AB4BH         LINE#         193
  C:AB4BH         LINE#         194
  C:AB4BH         LINE#         195
  C:AB54H         LINE#         196
  C:AB57H         LINE#         197
  C:AB57H         LINE#         198
  C:AB5CH         LINE#         199
  -------         ENDPROC       VALIDASENSORESPASO
  -------         PROC          MSJ_LCD_INFORMATIVO
  -------         DO            
  X:0002H         SYMBOL        info
  X:0211H         SYMBOL        toggle
  -------         ENDDO         
  C:9A61H         LINE#         209
  C:9A61H         LINE#         210
  C:9A61H         LINE#         211
  C:9A66H         LINE#         213
  C:9A69H         LINE#         214
  C:9A6CH         LINE#         215
  C:9A6CH         LINE#         216
  C:9A78H         LINE#         217
  C:9A78H         LINE#         218
  C:9A7BH         LINE#         219
  C:9A7BH         LINE#         220
  C:9A7DH         LINE#         221
  C:9A80H         LINE#         222
  C:9A86H         LINE#         223
  C:9A86H         LINE#         224
  C:9A88H         LINE#         225
  C:9A96H         LINE#         226
  C:9A96H         LINE#         227
  C:9A99H         LINE#         228
  C:9A99H         LINE#         229
  C:9A9BH         LINE#         230
  C:9A9EH         LINE#         231
  C:9AA4H         LINE#         232
  C:9AA4H         LINE#         233
  C:9AA6H         LINE#         234
  C:9AB4H         LINE#         235
  C:9AB4H         LINE#         236
  C:9AB7H         LINE#         237
  C:9AB7H         LINE#         238
  C:9AB9H         LINE#         239
BL51 BANKED LINKER/LOCATER V6.22.2.0                                                  08/19/2020  14:41:27  PAGE 50


  C:9AC7H         LINE#         240
  C:9AC7H         LINE#         241
  C:9AC9H         LINE#         242
  C:9AD0H         LINE#         244
  C:9AD5H         LINE#         245
  C:9AD5H         LINE#         247
  C:9AD5H         LINE#         249
  C:9AD5H         LINE#         251
  C:9AD8H         LINE#         252
  C:9ADBH         LINE#         253
  C:9ADBH         LINE#         254
  C:9AE0H         LINE#         255
  C:9AE0H         LINE#         257
  -------         ENDPROC       MSJ_LCD_INFORMATIVO
  -------         ENDMOD        IO_SENSORES

  -------         MODULE        PANTALLAS
  C:0000H         SYMBOL        _ICE_DUMMY_
  D:0080H         PUBLIC        P0
  C:A404H         PUBLIC        Reloj_Pantalla_Lcd
  C:2CA4H         PUBLIC        _PantallaLCD
  C:A783H         PUBLIC        _LCD_txt
  I:0068H         PUBLIC        msjpantalla
  C:AD96H         PUBLIC        _tx_chrlcd
  C:2C8BH         SYMBOL        _?ix1000
  C:2C91H         SYMBOL        _?ix1001
  C:2C97H         SYMBOL        _?ix1002
  C:A6EFH         PUBLIC        _LCD_txt_num_char
  C:497EH         PUBLIC        _PantallaLCD_LINEA_2
  B:0098H.4       PUBLIC        REN
  B:0080H.7       PUBLIC        sel_com
  C:A256H         PUBLIC        Raspberry_data1
  -------         PROC          _PANTALLALCD
  X:002BH         SYMBOL        cod_msg
  -------         DO            
  X:002CH         SYMBOL        Ini_LCD_Line_one
  X:0032H         SYMBOL        num_chr
  -------         ENDDO         
  C:2CA4H         LINE#         86
  C:2CA9H         LINE#         87
  C:2CA9H         LINE#         89
  C:2CBCH         LINE#         96
  C:2CBEH         LINE#         98
  C:2CC7H         LINE#         99
  C:2CC7H         LINE#         100
  C:2CD1H         LINE#         102
  C:2D2DH         LINE#         103
  C:2D2DH         LINE#         105
  C:2D2DH         LINE#         106
  C:2D3BH         LINE#         107
  C:2D41H         LINE#         108
  C:2D44H         LINE#         109
  C:2D4AH         LINE#         110
  C:2D4DH         LINE#         112
  C:2D4DH         LINE#         114
  C:2D5BH         LINE#         115
  C:2D61H         LINE#         116
BL51 BANKED LINKER/LOCATER V6.22.2.0                                                  08/19/2020  14:41:27  PAGE 51


  C:2D64H         LINE#         117
  C:2D6AH         LINE#         118
  C:2D6DH         LINE#         120
  C:2D6DH         LINE#         122
  C:2D7BH         LINE#         123
  C:2D81H         LINE#         124
  C:2D84H         LINE#         125
  C:2D8AH         LINE#         126
  C:2D8DH         LINE#         127
  C:2D8DH         LINE#         128
  C:2D9BH         LINE#         129
  C:2DA1H         LINE#         130
  C:2DA4H         LINE#         131
  C:2DAAH         LINE#         132
  C:2DADH         LINE#         133
  C:2DADH         LINE#         134
  C:2DBBH         LINE#         135
  C:2DC1H         LINE#         136
  C:2DC4H         LINE#         137
  C:2DCAH         LINE#         138
  C:2DCDH         LINE#         139
  C:2DCDH         LINE#         140
  C:2DDBH         LINE#         141
  C:2DE1H         LINE#         142
  C:2DE4H         LINE#         143
  C:2DEAH         LINE#         144
  C:2DEDH         LINE#         145
  C:2DEDH         LINE#         147
  C:2DFBH         LINE#         148
  C:2E01H         LINE#         149
  C:2E04H         LINE#         150
  C:2E0AH         LINE#         151
  C:2E0DH         LINE#         152
  C:2E0DH         LINE#         158
  C:2E0DH         LINE#         159
  C:2E1BH         LINE#         160
  C:2E21H         LINE#         161
  C:2E24H         LINE#         162
  C:2E2AH         LINE#         163
  C:2E2DH         LINE#         164
  C:2E2DH         LINE#         165
  C:2E3BH         LINE#         166
  C:2E41H         LINE#         167
  C:2E44H         LINE#         168
  C:2E4AH         LINE#         169
  C:2E4DH         LINE#         171
  C:2E4DH         LINE#         172
  C:2E5BH         LINE#         173
  C:2E61H         LINE#         174
  C:2E64H         LINE#         175
  C:2E6AH         LINE#         176
  C:2E6DH         LINE#         178
  C:2E6DH         LINE#         179
  C:2E7BH         LINE#         180
  C:2E81H         LINE#         181
  C:2E84H         LINE#         182
  C:2E8AH         LINE#         183
BL51 BANKED LINKER/LOCATER V6.22.2.0                                                  08/19/2020  14:41:27  PAGE 52


  C:2E8DH         LINE#         188
  C:2E8DH         LINE#         190
  C:2E9BH         LINE#         191
  C:2EA1H         LINE#         192
  C:2EA4H         LINE#         193
  C:2EAAH         LINE#         194
  C:2EADH         LINE#         196
  C:2EADH         LINE#         198
  C:2EBBH         LINE#         199
  C:2EC1H         LINE#         200
  C:2EC4H         LINE#         201
  C:2ECAH         LINE#         202
  C:2ECDH         LINE#         204
  C:2ECDH         LINE#         205
  C:2EDBH         LINE#         206
  C:2EE1H         LINE#         207
  C:2EE4H         LINE#         208
  C:2EEAH         LINE#         209
  C:2EEDH         LINE#         211
  C:2EEDH         LINE#         213
  C:2EFBH         LINE#         214
  C:2F01H         LINE#         215
  C:2F04H         LINE#         216
  C:2F0AH         LINE#         217
  C:2F0DH         LINE#         219
  C:2F0DH         LINE#         221
  C:2F1BH         LINE#         222
  C:2F21H         LINE#         223
  C:2F24H         LINE#         224
  C:2F2AH         LINE#         225
  C:2F2DH         LINE#         227
  C:2F2DH         LINE#         228
  C:2F3BH         LINE#         229
  C:2F41H         LINE#         230
  C:2F44H         LINE#         231
  C:2F4AH         LINE#         232
  C:2F4DH         LINE#         234
  C:2F4DH         LINE#         235
  C:2F5BH         LINE#         236
  C:2F61H         LINE#         237
  C:2F64H         LINE#         238
  C:2F6AH         LINE#         239
  C:2F6DH         LINE#         241
  C:2F6DH         LINE#         243
  C:2F7BH         LINE#         244
  C:2F81H         LINE#         245
  C:2F84H         LINE#         246
  C:2F8AH         LINE#         247
  C:2F8DH         LINE#         249
  C:2F8DH         LINE#         250
  C:2F9BH         LINE#         251
  C:2FA1H         LINE#         252
  C:2FA4H         LINE#         253
  C:2FAAH         LINE#         254
  C:2FADH         LINE#         255
  C:2FADH         LINE#         256
  C:2FBBH         LINE#         257
BL51 BANKED LINKER/LOCATER V6.22.2.0                                                  08/19/2020  14:41:27  PAGE 53


  C:2FC1H         LINE#         258
  C:2FC4H         LINE#         259
  C:2FCAH         LINE#         260
  C:2FCDH         LINE#         261
  C:2FCDH         LINE#         262
  C:2FDBH         LINE#         263
  C:2FE1H         LINE#         264
  C:2FE4H         LINE#         265
  C:2FEAH         LINE#         266
  C:2FEDH         LINE#         267
  C:2FEDH         LINE#         268
  C:2FFBH         LINE#         269
  C:2FFEH         LINE#         270
  C:3004H         LINE#         271
  C:3006H         LINE#         275
  C:3006H         LINE#         276
  C:3014H         LINE#         277
  C:301AH         LINE#         278
  C:301DH         LINE#         279
  C:3023H         LINE#         280
  C:3025H         LINE#         281
  C:3025H         LINE#         282
  C:3033H         LINE#         283
  C:3039H         LINE#         284
  C:303CH         LINE#         285
  C:3042H         LINE#         286
  C:3044H         LINE#         287
  C:3044H         LINE#         288
  C:3052H         LINE#         289
  C:3058H         LINE#         290
  C:305BH         LINE#         291
  C:3066H         LINE#         292
  C:3066H         LINE#         301
  C:3066H         LINE#         303
  C:3066H         LINE#         304
  C:3066H         LINE#         305
  C:3068H         LINE#         307
  C:3069H         LINE#         309
  C:3069H         LINE#         310
  C:306BH         LINE#         311
  C:30CDH         LINE#         312
  C:30CDH         LINE#         315
  C:30CDH         LINE#         316
  C:30D9H         LINE#         317
  C:30D9H         LINE#         319
  C:30DCH         LINE#         320
  C:30DCH         LINE#         323
  C:30E8H         LINE#         324
  C:30E8H         LINE#         325
  C:30EBH         LINE#         327
  C:30EBH         LINE#         328
  C:30F7H         LINE#         329
  C:30F7H         LINE#         331
  C:30FAH         LINE#         332
  C:30FAH         LINE#         333
  C:3106H         LINE#         334
  C:3106H         LINE#         336
BL51 BANKED LINKER/LOCATER V6.22.2.0                                                  08/19/2020  14:41:27  PAGE 54


  C:3109H         LINE#         337
  C:3109H         LINE#         338
  C:3115H         LINE#         339
  C:3115H         LINE#         341
  C:3118H         LINE#         342
  C:3118H         LINE#         343
  C:3124H         LINE#         344
  C:3124H         LINE#         346
  C:3127H         LINE#         347
  C:3127H         LINE#         348
  C:3133H         LINE#         349
  C:3133H         LINE#         351
  C:3136H         LINE#         352
  C:3136H         LINE#         353
  C:3142H         LINE#         354
  C:3142H         LINE#         356
  C:3145H         LINE#         358
  C:3145H         LINE#         359
  C:3151H         LINE#         360
  C:3151H         LINE#         362
  C:3154H         LINE#         364
  C:3154H         LINE#         365
  C:3160H         LINE#         366
  C:3160H         LINE#         368
  C:3163H         LINE#         370
  C:3163H         LINE#         371
  C:316FH         LINE#         372
  C:316FH         LINE#         374
  C:3172H         LINE#         376
  C:3172H         LINE#         377
  C:317EH         LINE#         378
  C:317EH         LINE#         380
  C:3181H         LINE#         384
  C:3181H         LINE#         385
  C:318DH         LINE#         386
  C:318DH         LINE#         388
  C:3190H         LINE#         390
  C:3190H         LINE#         391
  C:319CH         LINE#         392
  C:319CH         LINE#         394
  C:319FH         LINE#         396
  C:319FH         LINE#         397
  C:31ABH         LINE#         399
  C:31ABH         LINE#         400
  C:31AEH         LINE#         401
  C:31AEH         LINE#         402
  C:31BAH         LINE#         403
  C:31BAH         LINE#         405
  C:31BDH         LINE#         406
  C:31BDH         LINE#         407
  C:31C9H         LINE#         408
  C:31C9H         LINE#         410
  C:31CCH         LINE#         411
  C:31CCH         LINE#         412
  C:31D8H         LINE#         413
  C:31D8H         LINE#         415
  C:31DBH         LINE#         416
BL51 BANKED LINKER/LOCATER V6.22.2.0                                                  08/19/2020  14:41:27  PAGE 55


  C:31DBH         LINE#         417
  C:31E7H         LINE#         418
  C:31E7H         LINE#         420
  C:31EAH         LINE#         422
  C:31EAH         LINE#         423
  C:31F6H         LINE#         424
  C:31F6H         LINE#         426
  C:31F8H         LINE#         428
  C:31F8H         LINE#         429
  C:3204H         LINE#         430
  C:3204H         LINE#         432
  C:3206H         LINE#         433
  C:3206H         LINE#         434
  C:3212H         LINE#         435
  C:3212H         LINE#         437
  C:3214H         LINE#         438
  C:3214H         LINE#         439
  C:3220H         LINE#         440
  C:3220H         LINE#         442
  C:3222H         LINE#         443
  C:3222H         LINE#         444
  C:322EH         LINE#         445
  C:322EH         LINE#         447
  C:3230H         LINE#         449
  C:3230H         LINE#         450
  C:323CH         LINE#         451
  C:323CH         LINE#         453
  C:323EH         LINE#         454
  C:323EH         LINE#         455
  C:324AH         LINE#         456
  C:324AH         LINE#         458
  C:324CH         LINE#         459
  C:324CH         LINE#         460
  C:3258H         LINE#         461
  C:3258H         LINE#         463
  C:325AH         LINE#         468
  C:325AH         LINE#         469
  C:3266H         LINE#         470
  C:3266H         LINE#         472
  C:3268H         LINE#         473
  C:3268H         LINE#         474
  C:3277H         LINE#         475
  C:327AH         LINE#         477
  C:327AH         LINE#         485
  C:327AH         LINE#         486
  C:327AH         LINE#         487
  C:327AH         LINE#         488
  C:327CH         LINE#         489
  C:327CH         LINE#         493
  -------         ENDPROC       _PANTALLALCD
  -------         PROC          _PANTALLALCD_LINEA_2
  X:0011H         SYMBOL        cod_msg
  X:0012H         SYMBOL        buffer
  -------         DO            
  X:0015H         SYMBOL        Ini_LCD_Line_one
  X:001BH         SYMBOL        num_chr
  -------         ENDDO         
BL51 BANKED LINKER/LOCATER V6.22.2.0                                                  08/19/2020  14:41:27  PAGE 56


  C:497EH         LINE#         494
  C:498CH         LINE#         495
  C:498CH         LINE#         497
  C:499FH         LINE#         505
  C:49A1H         LINE#         507
  C:49AAH         LINE#         508
  C:49AAH         LINE#         511
  C:49B8H         LINE#         512
  C:49B8H         LINE#         514
  C:49B8H         LINE#         515
  C:49BBH         LINE#         516
  C:49C9H         LINE#         517
  C:49DEH         LINE#         518
  C:49E4H         LINE#         519
  C:49EAH         LINE#         520
  C:49F0H         LINE#         521
  C:49F0H         LINE#         522
  C:49F2H         LINE#         523
  C:49F2H         LINE#         524
  C:49F5H         LINE#         525
  C:4A03H         LINE#         526
  C:4A18H         LINE#         527
  C:4A1EH         LINE#         528
  C:4A24H         LINE#         529
  C:4A2FH         LINE#         530
  C:4A3FH         LINE#         531
  C:4A3FH         LINE#         535
  C:4A3FH         LINE#         537
  C:4A3FH         LINE#         539
  C:4A3FH         LINE#         540
  C:4A41H         LINE#         541
  C:4A42H         LINE#         543
  C:4A42H         LINE#         544
  C:4A44H         LINE#         545
  C:4A5EH         LINE#         546
  C:4A5EH         LINE#         547
  C:4A5EH         LINE#         549
  C:4A6DH         LINE#         550
  C:4A6DH         LINE#         551
  C:4A6DH         LINE#         552
  C:4A6DH         LINE#         555
  C:4A70H         LINE#         557
  C:4A70H         LINE#         558
  C:4A7FH         LINE#         559
  C:4A92H         LINE#         560
  C:4AACH         LINE#         561
  C:4AACH         LINE#         562
  C:4AACH         LINE#         563
  C:4AACH         LINE#         565
  C:4AAFH         LINE#         566
  C:4AAFH         LINE#         568
  C:4AB3H         LINE#         569
  C:4AB6H         LINE#         570
  C:4AB9H         LINE#         571
  C:4AB9H         LINE#         573
  C:4AC2H         LINE#         575
  C:4AC2H         LINE#         576
BL51 BANKED LINKER/LOCATER V6.22.2.0                                                  08/19/2020  14:41:27  PAGE 57


  C:4AC4H         LINE#         578
  C:4AC4H         LINE#         580
  C:4AD8H         LINE#         582
  C:4ADBH         LINE#         584
  C:4ADBH         LINE#         585
  C:4AE6H         LINE#         586
  C:4AE6H         LINE#         587
  C:4AEDH         LINE#         589
  C:4B03H         LINE#         591
  C:4B1AH         LINE#         592
  C:4B1CH         LINE#         594
  C:4B1CH         LINE#         595
  C:4B23H         LINE#         597
  C:4B23H         LINE#         598
  C:4B23H         LINE#         601
  C:4B25H         LINE#         603
  C:4B25H         LINE#         604
  C:4B34H         LINE#         605
  C:4B47H         LINE#         606
  C:4B61H         LINE#         607
  C:4B7FH         LINE#         608
  C:4B96H         LINE#         609
  C:4B99H         LINE#         611
  C:4B99H         LINE#         613
  C:4B99H         LINE#         615
  C:4B99H         LINE#         616
  C:4B99H         LINE#         617
  C:4B9BH         LINE#         618
  C:4B9BH         LINE#         619
  -------         ENDPROC       _PANTALLALCD_LINEA_2
  C:AD8DH         SYMBOL        L?0161
  C:AD90H         SYMBOL        L?0162
  C:AD91H         SYMBOL        L?0163
  -------         PROC          L?0160
  -------         ENDPROC       L?0160
  C:AD8DH         SYMBOL        L?0161
  C:AD90H         SYMBOL        L?0162
  C:AD91H         SYMBOL        L?0163
  -------         PROC          _TX_CHRLCD
  D:0007H         SYMBOL        data_com
  X:0038H         SYMBOL        enable_char_add
  -------         DO            
  X:0039H         SYMBOL        d
  -------         ENDDO         
  C:AD96H         LINE#         625
  C:AD9BH         LINE#         626
  C:AD9BH         LINE#         628
  C:ADA3H         LINE#         629
  C:ADB3H         LINE#         631
  -------         ENDPROC       _TX_CHRLCD
  -------         PROC          L?0165
  -------         ENDPROC       L?0165
  -------         PROC          _LCD_TXT
  X:0033H         SYMBOL        msg
  X:0036H         SYMBOL        enable_char_add
  -------         DO            
  X:0037H         SYMBOL        i
BL51 BANKED LINKER/LOCATER V6.22.2.0                                                  08/19/2020  14:41:27  PAGE 58


  -------         ENDDO         
  C:A783H         LINE#         638
  C:A791H         LINE#         639
  C:A791H         LINE#         642
  C:A7AEH         LINE#         643
  C:A7AEH         LINE#         644
  C:A7B6H         LINE#         645
  C:A7BEH         LINE#         646
  -------         ENDPROC       _LCD_TXT
  -------         PROC          _LCD_TXT_NUM_CHAR
  X:001EH         SYMBOL        msg
  X:0021H         SYMBOL        length_char
  X:0022H         SYMBOL        enable_char_add
  -------         DO            
  X:0023H         SYMBOL        i
  -------         ENDDO         
  C:A6EFH         LINE#         653
  C:A6FDH         LINE#         654
  C:A6FDH         LINE#         657
  C:A710H         LINE#         658
  C:A710H         LINE#         659
  C:A72CH         LINE#         660
  C:A734H         LINE#         661
  -------         ENDPROC       _LCD_TXT_NUM_CHAR
  -------         PROC          L?0164
  -------         ENDPROC       L?0164
  -------         PROC          RASPBERRY_DATA1
  -------         DO            
  X:0033H         SYMBOL        i
  X:0034H         SYMBOL        lenth_cadena
  X:0035H         SYMBOL        d
  -------         ENDDO         
  C:A256H         LINE#         689
  C:A256H         LINE#         690
  C:A256H         LINE#         695
  C:A264H         LINE#         697
  C:A277H         LINE#         698
  C:A277H         LINE#         699
  C:A285H         LINE#         701
  C:A28DH         LINE#         702
  C:A29FH         LINE#         703
  C:A29FH         LINE#         705
  C:A2A4H         LINE#         708
  -------         ENDPROC       RASPBERRY_DATA1
  -------         PROC          RELOJ_PANTALLA_LCD
  -------         DO            
  X:0011H         SYMBOL        Ini_Clock_LCD
  -------         ENDDO         
  C:A404H         LINE#         715
  C:A404H         LINE#         716
  C:A404H         LINE#         718
  C:A417H         LINE#         719
  C:A41DH         LINE#         720
  C:A41DH         LINE#         721
  C:A41FH         LINE#         722
  C:A428H         LINE#         726
  C:A42AH         LINE#         727
BL51 BANKED LINKER/LOCATER V6.22.2.0                                                  08/19/2020  14:41:27  PAGE 59


  C:A43AH         LINE#         729
  C:A43CH         LINE#         730
  C:A43EH         LINE#         732
  C:A43FH         LINE#         734
  C:A43FH         LINE#         735
  C:A441H         LINE#         736
  C:A446H         LINE#         737
  C:A44FH         LINE#         738
  C:A453H         LINE#         739
  C:A456H         LINE#         741
  C:A458H         LINE#         742
  C:A458H         LINE#         743
  -------         ENDPROC       RELOJ_PANTALLA_LCD
  -------         ENDMOD        PANTALLAS

  -------         MODULE        PROG
  C:0000H         SYMBOL        _ICE_DUMMY_
  C:4F9EH         PUBLIC        Prog_fecha_vencimiento
  C:608BH         PUBLIC        Prog_Sin_Cobro
  C:69F0H         PUBLIC        _Ver_Horario_Desde_Hasta
  C:703CH         PUBLIC        Prog_debug
  C:7330H         PUBLIC        Prog_AntiPassBack
  C:9494H         PUBLIC        _GetOption
  X:01B1H         PUBLIC        validacion
  C:7528H         PUBLIC        Prog_Validar_Tipo_Vehiculo_Mensual
  X:01BCH         PUBLIC        cursor
  C:68D6H         PUBLIC        _Prog_Horarios_on_off
  C:8FDFH         PUBLIC        Show
  C:3B35H         PUBLIC        Ver_Prog
  C:ABC7H         PUBLIC        Addr_Horarios
  C:88AFH         PUBLIC        prog_id_cliente
  C:A80AH         PUBLIC        _ValidarClave
  C:4756H         PUBLIC        menu
  C:7138H         PUBLIC        Prog_Use_Lpr
  C:A0CDH         PUBLIC        _ListaComandos
  C:12F7H         SYMBOL        _?ix1000
  C:1302H         SYMBOL        _?ix1001
  C:1312H         SYMBOL        _?ix1002
  C:1322H         SYMBOL        _?ix1003
  C:1326H         SYMBOL        _?ix1004
  C:5E04H         PUBLIC        Prog_Horarios
  C:132AH         SYMBOL        _?ix1005
  C:7624H         PUBLIC        Prog_Apb_Mensual
  C:82BAH         PUBLIC        Prog_tarjeta_automatica_o_boton
  C:4B9CH         PUBLIC        _hash_id
  C:449FH         PUBLIC        _Prog_Horario_dias
  C:8738H         PUBLIC        Prog_tiempo_gracia
  C:9AE9H         PUBLIC        _IngresaDato
  X:01D0H         PUBLIC        comandos
  C:A5D3H         PUBLIC        First_Clave
  C:AF3AH         PUBLIC        DisplayCursor
  C:742CH         PUBLIC        Prog_Placa
  C:867BH         PUBLIC        prog_cod_park
  C:6307H         PUBLIC        Ver_Horario
  C:6692H         PUBLIC        _Ver_Horario_dias
  C:4DA4H         PUBLIC        _Prog_Horario_Desde_Hasta
  C:7234H         PUBLIC        tipo_pantalla
BL51 BANKED LINKER/LOCATER V6.22.2.0                                                  08/19/2020  14:41:27  PAGE 60


  C:79DFH         PUBLIC        Prog_Address_High_Board
  C:A8CCH         PUBLIC        _GetCMD
  -------         PROC          _HASH_ID
  X:005EH         SYMBOL        clave
  -------         DO            
  X:0061H         SYMBOL        len_clave
  X:0062H         SYMBOL        i
  X:01ADH         SYMBOL        temp
  X:01AFH         SYMBOL        temp1
  X:0063H         SYMBOL        aleatorio
  X:006EH         SYMBOL        suma
  X:007EH         SYMBOL        xxor
  X:008EH         SYMBOL        usuario1
  X:0099H         SYMBOL        vencimiento_password
  -------         ENDDO         
  C:4B9CH         LINE#         120
  C:4BA7H         LINE#         121
  C:4BA7H         LINE#         124
  C:4BBAH         LINE#         126
  C:4BCDH         LINE#         127
  C:4BE0H         LINE#         131
  C:4BEDH         LINE#         132
  C:4C09H         LINE#         134
  C:4C09H         LINE#         135
  C:4C0DH         LINE#         136
  C:4C0FH         LINE#         138
  C:4C0FH         LINE#         139
  C:4C16H         LINE#         140
  C:4C16H         LINE#         141
  C:4C29H         LINE#         142
  C:4C3DH         LINE#         143
  C:4C3DH         LINE#         144
  C:4C69H         LINE#         145
  C:4C74H         LINE#         146
  C:4C81H         LINE#         147
  C:4C9FH         LINE#         148
  C:4CAAH         LINE#         149
  C:4CB7H         LINE#         150
  C:4CDBH         LINE#         151
  C:4CE3H         LINE#         152
  C:4CE3H         LINE#         153
  C:4CE8H         LINE#         154
  C:4CE8H         LINE#         155
  C:4D01H         LINE#         156
  C:4D01H         LINE#         157
  C:4D0DH         LINE#         159
  C:4D0DH         LINE#         160
  C:4D1CH         LINE#         161
  C:4D1CH         LINE#         162
  C:4D28H         LINE#         163
  C:4D28H         LINE#         164
  C:4D41H         LINE#         165
  C:4D41H         LINE#         166
  C:4D4CH         LINE#         167
  C:4D4CH         LINE#         168
  C:4D65H         LINE#         169
  C:4D65H         LINE#         170
BL51 BANKED LINKER/LOCATER V6.22.2.0                                                  08/19/2020  14:41:27  PAGE 61


  C:4D70H         LINE#         171
  C:4D70H         LINE#         172
  C:4D85H         LINE#         174
  C:4D8EH         LINE#         175
  C:4D9DH         LINE#         177
  C:4DA3H         LINE#         178
  -------         ENDPROC       _HASH_ID
  -------         PROC          _LISTACOMANDOS
  X:0047H         SYMBOL        cmd
  -------         DO            
  X:004AH         SYMBOL        buf
  X:004DH         SYMBOL        i
  -------         ENDDO         
  C:A0CDH         LINE#         185
  C:A0D8H         LINE#         186
  C:A0D8H         LINE#         190
  C:A0EBH         LINE#         191
  C:A0EBH         LINE#         192
  C:A103H         LINE#         193
  C:A11EH         LINE#         194
  C:A124H         LINE#         195
  C:A12CH         LINE#         197
  C:A12EH         LINE#         198
  -------         ENDPROC       _LISTACOMANDOS
  -------         PROC          L?0274
  -------         ENDPROC       L?0274
  -------         PROC          _VALIDARCLAVE
  X:005EH         SYMBOL        buffer
  -------         DO            
  X:0061H         SYMBOL        buf
  -------         ENDDO         
  C:A80AH         LINE#         204
  C:A815H         LINE#         205
  C:A815H         LINE#         208
  C:A824H         LINE#         209
  C:A83FH         LINE#         210
  C:A841H         LINE#         213
  C:A843H         LINE#         214
  -------         ENDPROC       _VALIDARCLAVE
  -------         PROC          L?0275
  -------         ENDPROC       L?0275
  -------         PROC          _GETCMD
  X:005EH         SYMBOL        in
  -------         DO            
  X:0061H         SYMBOL        tokens
  -------         ENDDO         
  C:A8CCH         LINE#         221
  C:A8D7H         LINE#         222
  C:A8D7H         LINE#         223
  C:A8EAH         LINE#         224
  -------         ENDPROC       _GETCMD
  -------         PROC          L?0273
  -------         ENDPROC       L?0273
  -------         PROC          _GETOPTION
  X:0047H         SYMBOL        in
  -------         DO            
  X:004AH         SYMBOL        tokensSpace
BL51 BANKED LINKER/LOCATER V6.22.2.0                                                  08/19/2020  14:41:27  PAGE 62


  X:004EH         SYMBOL        tokensQuote
  -------         ENDDO         
  C:9494H         LINE#         230
  C:949FH         LINE#         231
  C:949FH         LINE#         232
  C:94B2H         LINE#         233
  C:94C5H         LINE#         236
  C:94D7H         LINE#         237
  C:94E3H         LINE#         240
  C:94EAH         LINE#         241
  C:94F7H         LINE#         243
  C:9510H         LINE#         244
  -------         ENDPROC       _GETOPTION
  -------         PROC          DISPLAYCURSOR
  C:AF3AH         LINE#         249
  C:AF3AH         LINE#         250
  C:AF3AH         LINE#         251
  -------         ENDPROC       DISPLAYCURSOR
  C:9AE5H         SYMBOL        L?0272
  -------         PROC          L?0271
  -------         ENDPROC       L?0271
  C:9AE5H         SYMBOL        L?0272
  -------         PROC          _INGRESADATO
  X:0072H         SYMBOL        buffer
  X:0075H         SYMBOL        modo
  -------         DO            
  D:0006H         SYMBOL        i
  -------         ENDDO         
  C:9AE9H         LINE#         258
  C:9AF7H         LINE#         259
  C:9AF7H         LINE#         264
  C:9AF7H         LINE#         265
  C:9B09H         LINE#         266
  C:9B0FH         LINE#         267
  C:9B0FH         LINE#         268
  C:9B2AH         LINE#         269
  C:9B2CH         LINE#         271
  C:9B2CH         LINE#         272
  C:9B31H         LINE#         273
  C:9B31H         LINE#         274
  C:9B42H         LINE#         275
  C:9B4CH         LINE#         276
  C:9B5BH         LINE#         278
  C:9B60H         LINE#         282
  -------         ENDPROC       _INGRESADATO
  -------         PROC          PROG_ID_CLIENTE
  -------         DO            
  X:0047H         SYMBOL        buffer
  X:0051H         SYMBOL        dataee
  -------         ENDDO         
  C:88AFH         LINE#         299
  C:88AFH         LINE#         300
  C:88AFH         LINE#         304
  C:88C1H         LINE#         305
  C:88DEH         LINE#         307
  C:88F5H         LINE#         309
  C:88FEH         LINE#         310
BL51 BANKED LINKER/LOCATER V6.22.2.0                                                  08/19/2020  14:41:27  PAGE 63


  C:8905H         LINE#         311
  C:8916H         LINE#         312
  C:891FH         LINE#         314
  C:8931H         LINE#         315
  C:894EH         LINE#         316
  -------         ENDPROC       PROG_ID_CLIENTE
  -------         PROC          PROG_COD_PARK
  -------         DO            
  X:0047H         SYMBOL        buffer
  X:0051H         SYMBOL        dataee
  -------         ENDDO         
  C:867BH         LINE#         321
  C:867BH         LINE#         322
  C:867BH         LINE#         326
  C:868EH         LINE#         327
  C:86ABH         LINE#         329
  C:86C2H         LINE#         331
  C:86CBH         LINE#         332
  C:86D6H         LINE#         333
  C:86E7H         LINE#         334
  C:86F1H         LINE#         336
  C:8704H         LINE#         337
  C:8721H         LINE#         338
  -------         ENDPROC       PROG_COD_PARK
  -------         PROC          PROG_TIEMPO_GRACIA
  -------         DO            
  X:0047H         SYMBOL        buffer
  X:0051H         SYMBOL        dataee
  -------         ENDDO         
  C:8738H         LINE#         343
  C:8738H         LINE#         344
  C:8738H         LINE#         348
  C:874BH         LINE#         349
  C:8768H         LINE#         351
  C:877FH         LINE#         353
  C:8788H         LINE#         354
  C:8793H         LINE#         355
  C:87A4H         LINE#         356
  C:87AEH         LINE#         358
  C:87C1H         LINE#         359
  C:87DEH         LINE#         360
  -------         ENDPROC       PROG_TIEMPO_GRACIA
  -------         PROC          PROG_SIN_COBRO
  -------         DO            
  X:0047H         SYMBOL        buffer
  X:0051H         SYMBOL        dataee
  -------         ENDDO         
  C:608BH         LINE#         366
  C:608BH         LINE#         367
  C:608BH         LINE#         373
  C:609EH         LINE#         374
  C:60BBH         LINE#         375
  C:60C5H         LINE#         376
  C:60C5H         LINE#         377
  C:60D8H         LINE#         378
  C:60DAH         LINE#         379
  C:60E6H         LINE#         380
BL51 BANKED LINKER/LOCATER V6.22.2.0                                                  08/19/2020  14:41:27  PAGE 64


  C:60E6H         LINE#         381
  C:60F9H         LINE#         382
  C:60FBH         LINE#         384
  C:60FBH         LINE#         385
  C:6112H         LINE#         386
  C:6112H         LINE#         388
  C:611BH         LINE#         389
  C:6126H         LINE#         390
  C:6137H         LINE#         391
  C:6141H         LINE#         393
  C:6154H         LINE#         394
  C:6171H         LINE#         395
  C:617BH         LINE#         396
  C:617BH         LINE#         397
  C:618EH         LINE#         398
  C:6190H         LINE#         399
  C:619CH         LINE#         400
  C:619CH         LINE#         401
  C:61AFH         LINE#         402
  C:61B1H         LINE#         404
  C:61B1H         LINE#         405
  C:61C8H         LINE#         406
  C:61C8H         LINE#         408
  -------         ENDPROC       PROG_SIN_COBRO
  -------         PROC          PROG_DEBUG
  -------         DO            
  X:0047H         SYMBOL        buffer
  X:0051H         SYMBOL        dataee
  -------         ENDDO         
  C:703CH         LINE#         414
  C:703CH         LINE#         415
  C:703CH         LINE#         420
  C:704FH         LINE#         421
  C:706CH         LINE#         422
  C:7076H         LINE#         423
  C:7076H         LINE#         424
  C:7089H         LINE#         425
  C:708BH         LINE#         427
  C:708BH         LINE#         428
  C:70A2H         LINE#         429
  C:70A2H         LINE#         431
  C:70ABH         LINE#         432
  C:70B6H         LINE#         433
  C:70C7H         LINE#         434
  C:70D1H         LINE#         436
  C:70E4H         LINE#         437
  C:7101H         LINE#         438
  C:710BH         LINE#         439
  C:710BH         LINE#         440
  C:711EH         LINE#         441
  C:7120H         LINE#         443
  C:7120H         LINE#         444
  C:7137H         LINE#         445
  C:7137H         LINE#         446
  -------         ENDPROC       PROG_DEBUG
  -------         PROC          PROG_USE_LPR
  -------         DO            
BL51 BANKED LINKER/LOCATER V6.22.2.0                                                  08/19/2020  14:41:27  PAGE 65


  X:0047H         SYMBOL        buffer
  X:0051H         SYMBOL        dataee
  -------         ENDDO         
  C:7138H         LINE#         451
  C:7138H         LINE#         452
  C:7138H         LINE#         457
  C:714BH         LINE#         458
  C:7168H         LINE#         459
  C:7172H         LINE#         460
  C:7172H         LINE#         461
  C:7185H         LINE#         462
  C:7187H         LINE#         464
  C:7187H         LINE#         465
  C:719EH         LINE#         466
  C:719EH         LINE#         468
  C:71A7H         LINE#         469
  C:71B2H         LINE#         470
  C:71C3H         LINE#         471
  C:71CDH         LINE#         473
  C:71E0H         LINE#         474
  C:71FDH         LINE#         475
  C:7207H         LINE#         476
  C:7207H         LINE#         477
  C:721AH         LINE#         478
  C:721CH         LINE#         480
  C:721CH         LINE#         481
  C:7233H         LINE#         482
  C:7233H         LINE#         483
  -------         ENDPROC       PROG_USE_LPR
  -------         PROC          TIPO_PANTALLA
  -------         DO            
  X:0047H         SYMBOL        buffer
  X:0051H         SYMBOL        dataee
  -------         ENDDO         
  C:7234H         LINE#         490
  C:7234H         LINE#         491
  C:7234H         LINE#         496
  C:7247H         LINE#         497
  C:7264H         LINE#         498
  C:726EH         LINE#         499
  C:726EH         LINE#         500
  C:7281H         LINE#         501
  C:7283H         LINE#         503
  C:7283H         LINE#         504
  C:729AH         LINE#         505
  C:729AH         LINE#         507
  C:72A3H         LINE#         508
  C:72AEH         LINE#         509
  C:72BFH         LINE#         510
  C:72C9H         LINE#         512
  C:72DCH         LINE#         513
  C:72F9H         LINE#         514
  C:7303H         LINE#         515
  C:7303H         LINE#         516
  C:7316H         LINE#         517
  C:7318H         LINE#         519
  C:7318H         LINE#         520
BL51 BANKED LINKER/LOCATER V6.22.2.0                                                  08/19/2020  14:41:27  PAGE 66


  C:732FH         LINE#         521
  C:732FH         LINE#         523
  -------         ENDPROC       TIPO_PANTALLA
  -------         PROC          PROG_TARJETA_AUTOMATICA_O_BOTON
  -------         DO            
  X:0047H         SYMBOL        buffer
  X:0051H         SYMBOL        dataee
  -------         ENDDO         
  C:82BAH         LINE#         524
  C:82BAH         LINE#         525
  C:82BAH         LINE#         530
  C:82CDH         LINE#         531
  C:82EAH         LINE#         532
  C:82F6H         LINE#         533
  C:82F6H         LINE#         534
  C:82FAH         LINE#         535
  C:82FCH         LINE#         537
  C:82FCH         LINE#         538
  C:8303H         LINE#         539
  C:8303H         LINE#         541
  C:830CH         LINE#         542
  C:8317H         LINE#         543
  C:8328H         LINE#         544
  C:8332H         LINE#         546
  C:8345H         LINE#         547
  C:8362H         LINE#         548
  C:836EH         LINE#         549
  C:836EH         LINE#         550
  C:8372H         LINE#         551
  C:8374H         LINE#         553
  C:8374H         LINE#         554
  C:837BH         LINE#         555
  C:837BH         LINE#         556
  -------         ENDPROC       PROG_TARJETA_AUTOMATICA_O_BOTON
  -------         PROC          PROG_ANTIPASSBACK
  -------         DO            
  X:0047H         SYMBOL        buffer
  X:0051H         SYMBOL        dataee
  -------         ENDDO         
  C:7330H         LINE#         557
  C:7330H         LINE#         558
  C:7330H         LINE#         563
  C:7343H         LINE#         564
  C:7360H         LINE#         565
  C:736AH         LINE#         566
  C:736AH         LINE#         567
  C:737DH         LINE#         568
  C:737FH         LINE#         570
  C:737FH         LINE#         571
  C:7396H         LINE#         572
  C:7396H         LINE#         574
  C:739FH         LINE#         575
  C:73AAH         LINE#         576
  C:73BBH         LINE#         577
  C:73C5H         LINE#         579
  C:73D8H         LINE#         580
  C:73F5H         LINE#         581
BL51 BANKED LINKER/LOCATER V6.22.2.0                                                  08/19/2020  14:41:27  PAGE 67


  C:73FFH         LINE#         582
  C:73FFH         LINE#         583
  C:7412H         LINE#         584
  C:7414H         LINE#         586
  C:7414H         LINE#         587
  C:742BH         LINE#         588
  C:742BH         LINE#         589
  -------         ENDPROC       PROG_ANTIPASSBACK
  -------         PROC          PROG_PLACA
  -------         DO            
  X:0047H         SYMBOL        buffer
  X:0051H         SYMBOL        dataee
  -------         ENDDO         
  C:742CH         LINE#         590
  C:742CH         LINE#         591
  C:742CH         LINE#         596
  C:743FH         LINE#         597
  C:745CH         LINE#         598
  C:7466H         LINE#         599
  C:7466H         LINE#         600
  C:7479H         LINE#         601
  C:747BH         LINE#         603
  C:747BH         LINE#         604
  C:7492H         LINE#         605
  C:7492H         LINE#         607
  C:749BH         LINE#         608
  C:74A6H         LINE#         609
  C:74B7H         LINE#         610
  C:74C1H         LINE#         612
  C:74D4H         LINE#         613
  C:74F1H         LINE#         614
  C:74FBH         LINE#         615
  C:74FBH         LINE#         616
  C:750EH         LINE#         617
  C:7510H         LINE#         619
  C:7510H         LINE#         620
  C:7527H         LINE#         621
  C:7527H         LINE#         622
  -------         ENDPROC       PROG_PLACA
  -------         PROC          PROG_ADDRESS_HIGH_BOARD
  -------         DO            
  X:0047H         SYMBOL        buffer
  X:0051H         SYMBOL        dataee
  -------         ENDDO         
  C:79DFH         LINE#         623
  C:79DFH         LINE#         624
  C:79DFH         LINE#         629
  C:79F2H         LINE#         630
  C:7A0FH         LINE#         631
  C:7A19H         LINE#         632
  C:7A19H         LINE#         633
  C:7A1DH         LINE#         634
  C:7A1FH         LINE#         636
  C:7A1FH         LINE#         637
  C:7A36H         LINE#         638
  C:7A36H         LINE#         640
  C:7A3FH         LINE#         641
BL51 BANKED LINKER/LOCATER V6.22.2.0                                                  08/19/2020  14:41:27  PAGE 68


  C:7A4AH         LINE#         642
  C:7A5BH         LINE#         643
  C:7A65H         LINE#         645
  C:7A78H         LINE#         646
  C:7A95H         LINE#         647
  C:7A9FH         LINE#         648
  C:7A9FH         LINE#         649
  C:7AA3H         LINE#         650
  C:7AA5H         LINE#         652
  C:7AA5H         LINE#         653
  C:7ABCH         LINE#         654
  C:7ABCH         LINE#         655
  -------         ENDPROC       PROG_ADDRESS_HIGH_BOARD
  -------         PROC          ADDR_HORARIOS
  -------         DO            
  X:0075H         SYMBOL        ee_addr_horario
  -------         ENDDO         
  C:ABC7H         LINE#         657
  C:ABC7H         LINE#         658
  C:ABC7H         LINE#         661
  C:ABCDH         LINE#         662
  C:ABD1H         LINE#         663
  C:ABD5H         LINE#         664
  C:ABD9H         LINE#         665
  C:ABDDH         LINE#         666
  C:ABE1H         LINE#         667
  C:ABE5H         LINE#         668
  C:ABE9H         LINE#         669
  C:ABEDH         LINE#         670
  C:ABF1H         LINE#         671
  C:ABF4H         LINE#         672
  C:ABFAH         LINE#         673
  -------         ENDPROC       ADDR_HORARIOS
  -------         PROC          _PROG_HORARIOS_ON_OFF
  X:0062H         SYMBOL        addr
  -------         DO            
  X:0064H         SYMBOL        buffer
  X:006EH         SYMBOL        dataee
  X:0070H         SYMBOL        habilitado
  -------         ENDDO         
  C:68D6H         LINE#         674
  C:68E0H         LINE#         675
  C:68E0H         LINE#         678
  C:68EFH         LINE#         679
  C:690CH         LINE#         680
  C:6916H         LINE#         681
  C:6916H         LINE#         682
  C:6929H         LINE#         683
  C:692BH         LINE#         685
  C:692BH         LINE#         686
  C:6942H         LINE#         687
  C:6942H         LINE#         688
  C:694BH         LINE#         689
  C:6956H         LINE#         690
  C:6967H         LINE#         691
  C:6976H         LINE#         693
  C:698DH         LINE#         694
BL51 BANKED LINKER/LOCATER V6.22.2.0                                                  08/19/2020  14:41:27  PAGE 69


  C:69AAH         LINE#         695
  C:69B7H         LINE#         696
  C:69B7H         LINE#         697
  C:69BAH         LINE#         698
  C:69CDH         LINE#         699
  C:69CFH         LINE#         701
  C:69CFH         LINE#         702
  C:69D4H         LINE#         703
  C:69E9H         LINE#         704
  C:69E9H         LINE#         705
  C:69EFH         LINE#         706
  -------         ENDPROC       _PROG_HORARIOS_ON_OFF
  -------         PROC          _PROG_HORARIO_DESDE_HASTA
  X:0062H         SYMBOL        addr
  -------         DO            
  X:0064H         SYMBOL        buffer
  D:0007H         SYMBOL        dataee
  -------         ENDDO         
  C:4DA4H         LINE#         707
  C:4DACH         LINE#         708
  C:4DACH         LINE#         713
  C:4DB5H         LINE#         714
  C:4DB8H         LINE#         715
  C:4DC1H         LINE#         716
  C:4DD9H         LINE#         717
  C:4DECH         LINE#         718
  C:4DFAH         LINE#         719
  C:4E12H         LINE#         720
  C:4E25H         LINE#         721
  C:4E33H         LINE#         722
  C:4E4BH         LINE#         723
  C:4E5EH         LINE#         724
  C:4E6CH         LINE#         725
  C:4E84H         LINE#         726
  C:4E97H         LINE#         727
  C:4EA5H         LINE#         731
  C:4EAEH         LINE#         732
  C:4EB1H         LINE#         734
  C:4EBAH         LINE#         736
  C:4ED2H         LINE#         737
  C:4EE5H         LINE#         738
  C:4EF3H         LINE#         739
  C:4F0BH         LINE#         740
  C:4F1EH         LINE#         741
  C:4F2CH         LINE#         742
  C:4F44H         LINE#         743
  C:4F57H         LINE#         744
  C:4F65H         LINE#         745
  C:4F7DH         LINE#         746
  C:4F90H         LINE#         747
  -------         ENDPROC       _PROG_HORARIO_DESDE_HASTA
  -------         PROC          _VER_HORARIO_DESDE_HASTA
  X:0075H         SYMBOL        addr
  -------         DO            
  D:0007H         SYMBOL        dataee
  -------         ENDDO         
  C:69F0H         LINE#         749
BL51 BANKED LINKER/LOCATER V6.22.2.0                                                  08/19/2020  14:41:27  PAGE 70


  C:69F8H         LINE#         750
  C:69F8H         LINE#         752
  C:6A01H         LINE#         753
  C:6A14H         LINE#         754
  C:6A22H         LINE#         755
  C:6A35H         LINE#         756
  C:6A43H         LINE#         757
  C:6A56H         LINE#         758
  C:6A64H         LINE#         759
  C:6A77H         LINE#         760
  C:6A85H         LINE#         762
  C:6A98H         LINE#         763
  C:6AA6H         LINE#         765
  C:6AB9H         LINE#         766
  C:6AC7H         LINE#         768
  C:6ADAH         LINE#         769
  C:6AE8H         LINE#         771
  C:6AFBH         LINE#         772
  -------         ENDPROC       _VER_HORARIO_DESDE_HASTA
  -------         PROC          _PROG_HORARIO_DIAS
  X:0062H         SYMBOL        addr
  -------         DO            
  X:0064H         SYMBOL        buffer
  X:006EH         SYMBOL        dataee
  X:006FH         SYMBOL        j
  X:0070H         SYMBOL        temp
  -------         ENDDO         
  C:449FH         LINE#         774
  C:44A7H         LINE#         775
  C:44A7H         LINE#         779
  C:44B0H         LINE#         780
  C:44B9H         LINE#         781
  C:44C2H         LINE#         782
  C:44CDH         LINE#         785
  C:44D6H         LINE#         787
  C:44ECH         LINE#         788
  C:44ECH         LINE#         790
  C:44FFH         LINE#         791
  C:44FFH         LINE#         792
  C:4508H         LINE#         794
  C:451DH         LINE#         795
  C:4535H         LINE#         796
  C:4542H         LINE#         797
  C:4542H         LINE#         799
  C:4558H         LINE#         800
  C:4558H         LINE#         801
  C:4561H         LINE#         802
  C:4576H         LINE#         803
  C:458EH         LINE#         804
  C:459BH         LINE#         805
  C:459BH         LINE#         807
  C:45B1H         LINE#         808
  C:45B1H         LINE#         809
  C:45BAH         LINE#         810
  C:45CFH         LINE#         811
  C:45E7H         LINE#         812
  C:45F4H         LINE#         813
BL51 BANKED LINKER/LOCATER V6.22.2.0                                                  08/19/2020  14:41:27  PAGE 71


  C:45F4H         LINE#         815
  C:460AH         LINE#         816
  C:460AH         LINE#         817
  C:4613H         LINE#         818
  C:4628H         LINE#         819
  C:4640H         LINE#         820
  C:464DH         LINE#         821
  C:464DH         LINE#         823
  C:4663H         LINE#         824
  C:4663H         LINE#         825
  C:466CH         LINE#         826
  C:4681H         LINE#         827
  C:4699H         LINE#         828
  C:46A6H         LINE#         829
  C:46A6H         LINE#         831
  C:46BCH         LINE#         832
  C:46BCH         LINE#         833
  C:46C5H         LINE#         834
  C:46DAH         LINE#         835
  C:46F2H         LINE#         836
  C:46FFH         LINE#         837
  C:46FFH         LINE#         839
  C:4715H         LINE#         840
  C:4715H         LINE#         841
  C:471EH         LINE#         842
  C:472DH         LINE#         843
  C:473FH         LINE#         844
  C:474CH         LINE#         845
  C:474CH         LINE#         846
  C:4755H         LINE#         848
  -------         ENDPROC       _PROG_HORARIO_DIAS
  -------         PROC          _VER_HORARIO_DIAS
  X:0075H         SYMBOL        addr
  -------         DO            
  X:0077H         SYMBOL        dataee
  -------         ENDDO         
  C:6692H         LINE#         849
  C:669AH         LINE#         850
  C:669AH         LINE#         853
  C:66AAH         LINE#         854
  C:66B0H         LINE#         855
  C:66B0H         LINE#         856
  C:66B4H         LINE#         857
  C:66B6H         LINE#         859
  C:66B6H         LINE#         860
  C:66BDH         LINE#         861
  C:66BDH         LINE#         864
  C:66D5H         LINE#         865
  C:66DBH         LINE#         866
  C:66DBH         LINE#         867
  C:66DFH         LINE#         868
  C:66E1H         LINE#         870
  C:66E1H         LINE#         871
  C:66E8H         LINE#         872
  C:66E8H         LINE#         875
  C:6700H         LINE#         876
  C:6706H         LINE#         877
BL51 BANKED LINKER/LOCATER V6.22.2.0                                                  08/19/2020  14:41:27  PAGE 72


  C:6706H         LINE#         878
  C:670AH         LINE#         879
  C:670CH         LINE#         881
  C:670CH         LINE#         882
  C:6713H         LINE#         883
  C:6713H         LINE#         885
  C:672BH         LINE#         886
  C:6731H         LINE#         887
  C:6731H         LINE#         888
  C:6735H         LINE#         889
  C:6737H         LINE#         891
  C:6737H         LINE#         892
  C:673EH         LINE#         893
  C:673EH         LINE#         895
  C:6756H         LINE#         896
  C:675CH         LINE#         897
  C:675CH         LINE#         898
  C:6760H         LINE#         899
  C:6762H         LINE#         901
  C:6762H         LINE#         902
  C:6769H         LINE#         903
  C:6769H         LINE#         906
  C:6781H         LINE#         907
  C:6787H         LINE#         908
  C:6787H         LINE#         909
  C:678BH         LINE#         910
  C:678DH         LINE#         912
  C:678DH         LINE#         913
  C:6794H         LINE#         914
  C:6794H         LINE#         916
  C:67A6H         LINE#         917
  C:67ACH         LINE#         918
  C:67ACH         LINE#         919
  C:67B0H         LINE#         920
  C:67B2H         LINE#         922
  C:67B2H         LINE#         923
  C:67B9H         LINE#         924
  C:67B9H         LINE#         925
  -------         ENDPROC       _VER_HORARIO_DIAS
  -------         PROC          PROG_HORARIOS
  -------         DO            
  X:0047H         SYMBOL        buffer
  X:0051H         SYMBOL        ee_addr_horario
  X:005CH         SYMBOL        addr
  X:005EH         SYMBOL        temp
  X:0060H         SYMBOL        dataee
  X:0061H         SYMBOL        j
  -------         ENDDO         
  C:5E04H         LINE#         926
  C:5E04H         LINE#         927
  C:5E04H         LINE#         936
  C:5E10H         LINE#         940
  C:5E19H         LINE#         941
  C:5E24H         LINE#         943
  C:5E33H         LINE#         947
  C:5E49H         LINE#         948
  C:5E4FH         LINE#         952
BL51 BANKED LINKER/LOCATER V6.22.2.0                                                  08/19/2020  14:41:27  PAGE 73


  C:5E5DH         LINE#         953
  C:5E65H         LINE#         954
  C:5E65H         LINE#         956
  C:5E74H         LINE#         957
  C:5E88H         LINE#         958
  C:5E88H         LINE#         959
  C:5E9CH         LINE#         960
  C:5EA4H         LINE#         962
  C:5EB4H         LINE#         965
  C:5EB7H         LINE#         969
  C:5EC2H         LINE#         972
  C:5ECBH         LINE#         973
  C:5ED6H         LINE#         974
  C:5EE5H         LINE#         975
  C:5EF8H         LINE#         977
  C:5F10H         LINE#         978
  C:5F2AH         LINE#         979
  C:5F32H         LINE#         980
  C:5F32H         LINE#         982
  C:5F40H         LINE#         983
  C:5F48H         LINE#         984
  C:5F48H         LINE#         985
  C:5F48H         LINE#         987
  -------         ENDPROC       PROG_HORARIOS
  -------         PROC          PROG_VALIDAR_TIPO_VEHICULO_MENSUAL
  -------         DO            
  X:0047H         SYMBOL        buffer
  X:0051H         SYMBOL        dataee
  -------         ENDDO         
  C:7528H         LINE#         988
  C:7528H         LINE#         989
  C:7528H         LINE#         994
  C:753BH         LINE#         995
  C:7558H         LINE#         996
  C:7562H         LINE#         997
  C:7562H         LINE#         998
  C:7575H         LINE#         999
  C:7577H         LINE#         1001
  C:7577H         LINE#         1002
  C:758EH         LINE#         1003
  C:758EH         LINE#         1005
  C:7597H         LINE#         1006
  C:75A2H         LINE#         1007
  C:75B3H         LINE#         1008
  C:75BDH         LINE#         1010
  C:75D0H         LINE#         1011
  C:75EDH         LINE#         1012
  C:75F7H         LINE#         1013
  C:75F7H         LINE#         1014
  C:760AH         LINE#         1015
  C:760CH         LINE#         1017
  C:760CH         LINE#         1018
  C:7623H         LINE#         1019
  C:7623H         LINE#         1020
  -------         ENDPROC       PROG_VALIDAR_TIPO_VEHICULO_MENSUAL
  -------         PROC          PROG_APB_MENSUAL
  -------         DO            
BL51 BANKED LINKER/LOCATER V6.22.2.0                                                  08/19/2020  14:41:27  PAGE 74


  X:0047H         SYMBOL        buffer
  X:0051H         SYMBOL        dataee
  -------         ENDDO         
  C:7624H         LINE#         1021
  C:7624H         LINE#         1022
  C:7624H         LINE#         1027
  C:7637H         LINE#         1028
  C:7654H         LINE#         1029
  C:765EH         LINE#         1030
  C:765EH         LINE#         1031
  C:7671H         LINE#         1032
  C:7673H         LINE#         1034
  C:7673H         LINE#         1035
  C:768AH         LINE#         1036
  C:768AH         LINE#         1038
  C:7693H         LINE#         1039
  C:769EH         LINE#         1040
  C:76AFH         LINE#         1041
  C:76B9H         LINE#         1043
  C:76CCH         LINE#         1044
  C:76E9H         LINE#         1045
  C:76F3H         LINE#         1046
  C:76F3H         LINE#         1047
  C:7706H         LINE#         1048
  C:7708H         LINE#         1050
  C:7708H         LINE#         1051
  C:771FH         LINE#         1052
  C:771FH         LINE#         1053
  -------         ENDPROC       PROG_APB_MENSUAL
  -------         PROC          PROG_FECHA_VENCIMIENTO
  -------         DO            
  X:0047H         SYMBOL        buffer
  X:0052H         SYMBOL        cmd
  X:0055H         SYMBOL        fecha
  X:005CH         SYMBOL        dataee
  -------         ENDDO         
  C:4F9EH         LINE#         1055
  C:4F9EH         LINE#         1056
  C:4F9EH         LINE#         1063
  C:4FABH         LINE#         1064
  C:4FC2H         LINE#         1067
  C:4FD9H         LINE#         1069
  C:4FD9H         LINE#         1070
  C:4FE2H         LINE#         1071
  C:4FEFH         LINE#         1072
  C:5006H         LINE#         1073
  C:5018H         LINE#         1074
  C:5021H         LINE#         1079
  C:502CH         LINE#         1080
  C:5040H         LINE#         1081
  C:504DH         LINE#         1083
  C:5056H         LINE#         1086
  C:505FH         LINE#         1087
  C:506AH         LINE#         1088
  C:5081H         LINE#         1090
  C:5089H         LINE#         1091
  C:5091H         LINE#         1092
BL51 BANKED LINKER/LOCATER V6.22.2.0                                                  08/19/2020  14:41:27  PAGE 75


  C:5094H         LINE#         1094
  C:50A5H         LINE#         1095
  C:50B6H         LINE#         1097
  C:50C5H         LINE#         1098
  C:50CDH         LINE#         1099
  C:50D5H         LINE#         1100
  C:50D8H         LINE#         1101
  C:50E9H         LINE#         1102
  C:50FAH         LINE#         1103
  C:5109H         LINE#         1104
  C:5111H         LINE#         1105
  C:5119H         LINE#         1106
  C:511CH         LINE#         1107
  C:512DH         LINE#         1108
  C:513EH         LINE#         1109
  C:514DH         LINE#         1110
  C:5158H         LINE#         1112
  C:5165H         LINE#         1114
  C:517CH         LINE#         1115
  -------         ENDPROC       PROG_FECHA_VENCIMIENTO
  -------         PROC          VER_HORARIO
  -------         DO            
  X:005AH         SYMBOL        buffer
  X:0064H         SYMBOL        ee_addr_horario
  X:006FH         SYMBOL        conta
  X:0070H         SYMBOL        addr
  X:0072H         SYMBOL        temp
  X:0074H         SYMBOL        dataee
  -------         ENDDO         
  C:6307H         LINE#         1118
  C:6307H         LINE#         1119
  C:6307H         LINE#         1128
  C:6313H         LINE#         1129
  C:6329H         LINE#         1130
  C:6329H         LINE#         1132
  C:6339H         LINE#         1135
  C:6352H         LINE#         1136
  C:6358H         LINE#         1139
  C:6366H         LINE#         1140
  C:6375H         LINE#         1141
  C:638FH         LINE#         1142
  C:639AH         LINE#         1143
  C:639AH         LINE#         1144
  C:63A3H         LINE#         1146
  C:63ACH         LINE#         1147
  C:63BCH         LINE#         1148
  C:63BFH         LINE#         1150
  C:63CAH         LINE#         1151
  C:63E2H         LINE#         1152
  C:63FCH         LINE#         1153
  C:6406H         LINE#         1154
  C:6406H         LINE#         1155
  C:640DH         LINE#         1157
  C:641BH         LINE#         1158
  C:6423H         LINE#         1159
  C:6425H         LINE#         1161
  C:6425H         LINE#         1162
BL51 BANKED LINKER/LOCATER V6.22.2.0                                                  08/19/2020  14:41:27  PAGE 76


  C:6429H         LINE#         1163
  C:6429H         LINE#         1164
  C:642BH         LINE#         1166
  C:642BH         LINE#         1167
  C:6434H         LINE#         1168
  C:6434H         LINE#         1170
  C:643DH         LINE#         1173
  -------         ENDPROC       VER_HORARIO
  -------         PROC          VER_PROG
  -------         DO            
  X:0047H         SYMBOL        buffer
  X:0051H         SYMBOL        dataee
  X:0053H         SYMBOL        fecha
  -------         ENDDO         
  C:3B35H         LINE#         1174
  C:3B35H         LINE#         1175
  C:3B35H         LINE#         1181
  C:3B47H         LINE#         1182
  C:3B64H         LINE#         1184
  C:3B7BH         LINE#         1186
  C:3B8EH         LINE#         1187
  C:3BABH         LINE#         1189
  C:3BC2H         LINE#         1191
  C:3BD5H         LINE#         1192
  C:3BF2H         LINE#         1193
  C:3C00H         LINE#         1194
  C:3C00H         LINE#         1195
  C:3C04H         LINE#         1196
  C:3C06H         LINE#         1198
  C:3C06H         LINE#         1199
  C:3C0DH         LINE#         1200
  C:3C0DH         LINE#         1202
  C:3C20H         LINE#         1203
  C:3C3DH         LINE#         1204
  C:3C49H         LINE#         1205
  C:3C49H         LINE#         1206
  C:3C4DH         LINE#         1207
  C:3C4FH         LINE#         1209
  C:3C4FH         LINE#         1210
  C:3C56H         LINE#         1211
  C:3C56H         LINE#         1213
  C:3C69H         LINE#         1214
  C:3C86H         LINE#         1215
  C:3C92H         LINE#         1216
  C:3C92H         LINE#         1217
  C:3C96H         LINE#         1218
  C:3C98H         LINE#         1220
  C:3C98H         LINE#         1221
  C:3C9FH         LINE#         1222
  C:3C9FH         LINE#         1224
  C:3CB2H         LINE#         1225
  C:3CCFH         LINE#         1226
  C:3CDBH         LINE#         1227
  C:3CDBH         LINE#         1228
  C:3CDFH         LINE#         1229
  C:3CE1H         LINE#         1231
  C:3CE1H         LINE#         1232
BL51 BANKED LINKER/LOCATER V6.22.2.0                                                  08/19/2020  14:41:27  PAGE 77


  C:3CE8H         LINE#         1233
  C:3CE8H         LINE#         1235
  C:3CFBH         LINE#         1236
  C:3D18H         LINE#         1237
  C:3D24H         LINE#         1238
  C:3D24H         LINE#         1239
  C:3D28H         LINE#         1240
  C:3D2AH         LINE#         1242
  C:3D2AH         LINE#         1243
  C:3D31H         LINE#         1244
  C:3D31H         LINE#         1246
  C:3D44H         LINE#         1247
  C:3D61H         LINE#         1248
  C:3D6DH         LINE#         1249
  C:3D6DH         LINE#         1250
  C:3D71H         LINE#         1251
  C:3D73H         LINE#         1253
  C:3D73H         LINE#         1254
  C:3D7AH         LINE#         1255
  C:3D7AH         LINE#         1258
  C:3D8DH         LINE#         1259
  C:3DAAH         LINE#         1261
  C:3DC1H         LINE#         1263
  C:3DC4H         LINE#         1267
  C:3DD7H         LINE#         1268
  C:3DF4H         LINE#         1269
  C:3E00H         LINE#         1270
  C:3E00H         LINE#         1271
  C:3E04H         LINE#         1272
  C:3E06H         LINE#         1274
  C:3E06H         LINE#         1275
  C:3E0DH         LINE#         1276
  C:3E0DH         LINE#         1278
  C:3E20H         LINE#         1279
  C:3E3DH         LINE#         1280
  C:3E49H         LINE#         1281
  C:3E49H         LINE#         1282
  C:3E4DH         LINE#         1283
  C:3E4FH         LINE#         1285
  C:3E4FH         LINE#         1286
  C:3E56H         LINE#         1287
  C:3E56H         LINE#         1289
  C:3E63H         LINE#         1291
  C:3E7AH         LINE#         1292
  -------         ENDPROC       VER_PROG
  -------         PROC          SHOW
  C:8FDFH         LINE#         1298
  C:8FDFH         LINE#         1299
  C:8FDFH         LINE#         1300
  C:8FE8H         LINE#         1301
  C:8FF1H         LINE#         1302
  C:8FFAH         LINE#         1303
  C:9003H         LINE#         1304
  C:900CH         LINE#         1305
  C:9015H         LINE#         1306
  C:901EH         LINE#         1307
  C:9027H         LINE#         1308
BL51 BANKED LINKER/LOCATER V6.22.2.0                                                  08/19/2020  14:41:27  PAGE 78


  C:9030H         LINE#         1309
  C:9039H         LINE#         1310
  C:9042H         LINE#         1311
  C:904BH         LINE#         1312
  C:9054H         LINE#         1313
  C:905DH         LINE#         1314
  C:9066H         LINE#         1315
  C:906FH         LINE#         1316
  -------         ENDPROC       SHOW
  -------         PROC          FIRST_CLAVE
  -------         DO            
  X:0047H         SYMBOL        clave
  -------         ENDDO         
  C:A5D3H         LINE#         1323
  C:A5D3H         LINE#         1324
  C:A5D3H         LINE#         1328
  C:A5DCH         LINE#         1329
  C:A5E1H         LINE#         1330
  C:A5F3H         LINE#         1331
  C:A600H         LINE#         1332
  C:A606H         LINE#         1333
  C:A609H         LINE#         1334
  C:A60CH         LINE#         1335
  C:A60EH         LINE#         1337
  -------         ENDPROC       FIRST_CLAVE
  -------         PROC          MENU
  -------         DO            
  X:0002H         SYMBOL        cmd
  X:0005H         SYMBOL        option1
  X:0008H         SYMBOL        option2
  X:000BH         SYMBOL        opt_buffer
  X:0033H         SYMBOL        buffer
  -------         ENDDO         
  C:4756H         LINE#         1341
  C:4756H         LINE#         1342
  C:4756H         LINE#         1351
  C:475FH         LINE#         1356
  C:476BH         LINE#         1357
  C:476BH         LINE#         1358
  C:476EH         LINE#         1359
  C:4778H         LINE#         1362
  C:4778H         LINE#         1364
  C:4778H         LINE#         1365
  C:4781H         LINE#         1366
  C:478EH         LINE#         1367
  C:47A5H         LINE#         1368
  C:47B7H         LINE#         1369
  C:47C0H         LINE#         1374
  C:47CBH         LINE#         1375
  C:47D9H         LINE#         1376
  C:47E6H         LINE#         1378
  C:47EFH         LINE#         1382
  C:47F2H         LINE#         1383
  C:47F2H         LINE#         1384
  C:47F2H         LINE#         1385
  C:47F5H         LINE#         1388
  C:4800H         LINE#         1389
BL51 BANKED LINKER/LOCATER V6.22.2.0                                                  08/19/2020  14:41:27  PAGE 79


  C:480EH         LINE#         1390
  C:4822H         LINE#         1391
  C:4836H         LINE#         1396
  C:484CH         LINE#         1397
  C:484CH         LINE#         1399
  C:485BH         LINE#         1400
  C:485DH         LINE#         1401
  C:486DH         LINE#         1402
  C:486DH         LINE#         1404
  C:487CH         LINE#         1405
  C:489AH         LINE#         1406
  C:489AH         LINE#         1412
  C:48ADH         LINE#         1413
  C:48ADH         LINE#         1414
  C:48F6H         LINE#         1415
  C:48F6H         LINE#         1416
  C:48F6H         LINE#         1417
  C:48F9H         LINE#         1419
  C:48FCH         LINE#         1421
  C:48FCH         LINE#         1422
  C:48FFH         LINE#         1423
  C:4902H         LINE#         1424
  C:4902H         LINE#         1425
  C:4905H         LINE#         1426
  C:4908H         LINE#         1427
  C:4908H         LINE#         1428
  C:490BH         LINE#         1429
  C:490EH         LINE#         1430
  C:490EH         LINE#         1431
  C:4911H         LINE#         1432
  C:4914H         LINE#         1433
  C:4914H         LINE#         1434
  C:4917H         LINE#         1435
  C:491AH         LINE#         1436
  C:491AH         LINE#         1437
  C:491DH         LINE#         1438
  C:4920H         LINE#         1439
  C:4920H         LINE#         1440
  C:4923H         LINE#         1441
  C:4926H         LINE#         1442
  C:4926H         LINE#         1443
  C:4929H         LINE#         1444
  C:492CH         LINE#         1445
  C:492CH         LINE#         1446
  C:492FH         LINE#         1447
  C:4932H         LINE#         1448
  C:4932H         LINE#         1449
  C:4935H         LINE#         1450
  C:4938H         LINE#         1451
  C:4938H         LINE#         1452
  C:493BH         LINE#         1453
  C:493EH         LINE#         1454
  C:493EH         LINE#         1455
  C:4941H         LINE#         1456
  C:4944H         LINE#         1457
  C:4944H         LINE#         1458
  C:4947H         LINE#         1459
BL51 BANKED LINKER/LOCATER V6.22.2.0                                                  08/19/2020  14:41:27  PAGE 80


  C:494AH         LINE#         1460
  C:494AH         LINE#         1461
  C:494DH         LINE#         1462
  C:4950H         LINE#         1463
  C:4950H         LINE#         1464
  C:4953H         LINE#         1465
  C:4956H         LINE#         1466
  C:4956H         LINE#         1468
  C:4956H         LINE#         1469
  C:4956H         LINE#         1470
  C:4959H         LINE#         1471
  C:495CH         LINE#         1474
  C:495CH         LINE#         1475
  C:497AH         LINE#         1476
  C:497DH         LINE#         1477
  C:497DH         LINE#         1478
  C:497DH         LINE#         1479
  C:497DH         LINE#         1480
  -------         ENDPROC       MENU
  -------         ENDMOD        PROG

  -------         MODULE        PTO_PARALELO
  C:0000H         SYMBOL        _ICE_DUMMY_
  D:0080H         PUBLIC        P0
  D:00A0H         PUBLIC        P2
  D:00B0H         PUBLIC        P3
  B:0080H.2       PUBLIC        led_err_imp
  C:67BAH         PUBLIC        load_and_send_id_cod
  C:9078H         PUBLIC        _recibe_port
  B:00B0H.2       PUBLIC        ready
  B:0080H.6       PUBLIC        rx_in_data
  C:AFB4H         PUBLIC        Pulso_Bus
  C:96BBH         PUBLIC        _send_portERR
  B:00B0H.3       PUBLIC        busy
  C:ACBFH         PUBLIC        load_and_send_info_reloj
  C:8965H         PUBLIC        _send_port
  B:00B0H.4       PUBLIC        port_clk
  C:B025H         PUBLIC        cond_ini_pto
  -------         PROC          _RECIBE_PORT
  X:0002H         SYMBOL        buffer_port
  -------         DO            
  D:0006H         SYMBOL        count
  X:0005H         SYMBOL        time_out
  X:0006H         SYMBOL        num_data
  X:0007H         SYMBOL        T_ANCHO
  X:0009H         SYMBOL        data_temp
  -------         ENDDO         
  C:9078H         LINE#         48
  C:9083H         LINE#         49
  C:9083H         LINE#         53
  C:908CH         LINE#         54
  C:908FH         LINE#         57
  C:9092H         LINE#         58
  C:9092H         LINE#         60
  C:9095H         LINE#         61
  C:909AH         LINE#         62
  C:909CH         LINE#         63
BL51 BANKED LINKER/LOCATER V6.22.2.0                                                  08/19/2020  14:41:27  PAGE 81


  C:90A0H         LINE#         64
  C:90A2H         LINE#         67
  C:90A7H         LINE#         68
  C:90B0H         LINE#         69
  C:90B0H         LINE#         70
  C:90B3H         LINE#         71
  C:90B3H         LINE#         73
  C:90B8H         LINE#         74
  C:90BCH         LINE#         75
  C:90BCH         LINE#         76
  C:90BEH         LINE#         77
  C:90C0H         LINE#         78
  C:90C0H         LINE#         79
  C:90C0H         LINE#         81
  C:90C0H         LINE#         82
  C:90CDH         LINE#         83
  C:90CDH         LINE#         85
  C:90D0H         LINE#         86
  C:90D0H         LINE#         88
  C:90D6H         LINE#         90
  C:90D8H         LINE#         91
  C:90ECH         LINE#         92
  C:90F6H         LINE#         93
  C:90FCH         LINE#         94
  C:9102H         LINE#         95
  C:9104H         LINE#         96
  C:9104H         LINE#         97
  C:9104H         LINE#         98
  C:9104H         LINE#         101
  C:9106H         LINE#         102
  C:9108H         LINE#         103
  C:9108H         LINE#         104
  C:910BH         LINE#         106
  C:9110H         LINE#         107
  -------         ENDPROC       _RECIBE_PORT
  -------         PROC          _SEND_PORT
  X:0016H         SYMBOL        buffer_port
  X:0019H         SYMBOL        length_char
  -------         DO            
  X:001AH         SYMBOL        cont
  X:001EH         SYMBOL        timeOut
  X:001FH         SYMBOL        length
  -------         ENDDO         
  C:8965H         LINE#         114
  C:8973H         LINE#         115
  C:8973H         LINE#         120
  C:8977H         LINE#         122
  C:8979H         LINE#         123
  C:897BH         LINE#         124
  C:897DH         LINE#         125
  C:8982H         LINE#         126
  C:8984H         LINE#         127
  C:898EH         LINE#         129
  C:8997H         LINE#         130
  C:8997H         LINE#         131
  C:8999H         LINE#         132
  C:899BH         LINE#         133
BL51 BANKED LINKER/LOCATER V6.22.2.0                                                  08/19/2020  14:41:27  PAGE 82


  C:89BFH         LINE#         134
  C:89D3H         LINE#         135
  C:89D3H         LINE#         136
  C:89D6H         LINE#         137
  C:89D8H         LINE#         138
  C:89D8H         LINE#         139
  C:89DAH         LINE#         140
  C:89E3H         LINE#         141
  C:89E3H         LINE#         145
  C:89E3H         LINE#         147
  C:89F3H         LINE#         148
  C:89F6H         LINE#         149
  C:8A00H         LINE#         151
  C:8A06H         LINE#         152
  C:8A09H         LINE#         154
  C:8A09H         LINE#         156
  C:8A0CH         LINE#         157
  C:8A0EH         LINE#         158
  C:8A10H         LINE#         159
  C:8A12H         LINE#         160
  -------         ENDPROC       _SEND_PORT
  -------         PROC          PULSO_BUS
  C:AFB4H         LINE#         435
  C:AFB4H         LINE#         436
  C:AFB4H         LINE#         437
  C:AFB6H         LINE#         438
  C:AFBDH         LINE#         439
  C:AFBFH         LINE#         440
  -------         ENDPROC       PULSO_BUS
  -------         PROC          _SEND_PORTERR
  X:002BH         SYMBOL        cod_err
  -------         DO            
  X:002CH         SYMBOL        timeOut
  X:002DH         SYMBOL        cont
  -------         ENDDO         
  C:96BBH         LINE#         445
  C:96C1H         LINE#         446
  C:96C1H         LINE#         450
  C:96C3H         LINE#         451
  C:96C5H         LINE#         452
  C:96C8H         LINE#         453
  C:96D0H         LINE#         455
  C:96D2H         LINE#         456
  C:96D4H         LINE#         457
  C:96DDH         LINE#         458
  C:96DDH         LINE#         459
  C:96FFH         LINE#         460
  C:9713H         LINE#         461
  C:9713H         LINE#         462
  C:9718H         LINE#         463
  C:9718H         LINE#         464
  C:971AH         LINE#         465
  C:9723H         LINE#         466
  C:9723H         LINE#         467
  C:9729H         LINE#         468
  C:972CH         LINE#         469
  C:972CH         LINE#         470
BL51 BANKED LINKER/LOCATER V6.22.2.0                                                  08/19/2020  14:41:27  PAGE 83


  C:972EH         LINE#         471
  C:9730H         LINE#         472
  C:9732H         LINE#         474
  C:9735H         LINE#         476
  C:973CH         LINE#         477
  -------         ENDPROC       _SEND_PORTERR
  -------         PROC          COND_INI_PTO
  C:B025H         LINE#         483
  C:B025H         LINE#         484
  C:B025H         LINE#         486
  C:B027H         LINE#         487
  C:B029H         LINE#         488
  C:B02BH         LINE#         489
  C:B02EH         LINE#         490
  -------         ENDPROC       COND_INI_PTO
  -------         PROC          LOAD_AND_SEND_INFO_RELOJ
  -------         DO            
  X:0003H         SYMBOL        buffer_info
  -------         ENDDO         
  C:ACBFH         LINE#         495
  C:ACBFH         LINE#         496
  C:ACBFH         LINE#         499
  C:ACC5H         LINE#         501
  C:ACC9H         LINE#         503
  C:ACD2H         LINE#         504
  C:ACDCH         LINE#         505
  C:ACE0H         LINE#         509
  -------         ENDPROC       LOAD_AND_SEND_INFO_RELOJ
  -------         PROC          LOAD_AND_SEND_ID_COD
  -------         DO            
  X:0003H         SYMBOL        buffer_info
  X:000EH         SYMBOL        buf
  X:0012H         SYMBOL        i
  X:0013H         SYMBOL        k
  X:0014H         SYMBOL        ID_CLIENTE
  X:0015H         SYMBOL        COD_PARK
  -------         ENDDO         
  C:67BAH         LINE#         516
  C:67BAH         LINE#         517
  C:67BAH         LINE#         523
  C:67BFH         LINE#         524
  C:67CBH         LINE#         525
  C:67D9H         LINE#         526
  C:67DFH         LINE#         527
  C:67E3H         LINE#         528
  C:6802H         LINE#         529
  C:6808H         LINE#         530
  C:6808H         LINE#         531
  C:6819H         LINE#         532
  C:6819H         LINE#         533
  C:6828H         LINE#         534
  C:682EH         LINE#         535
  C:6830H         LINE#         536
  C:6848H         LINE#         538
  C:6850H         LINE#         541
  C:686FH         LINE#         543
  C:6874H         LINE#         544
BL51 BANKED LINKER/LOCATER V6.22.2.0                                                  08/19/2020  14:41:27  PAGE 84


  C:6874H         LINE#         545
  C:6885H         LINE#         546
  C:6885H         LINE#         547
  C:6894H         LINE#         548
  C:689AH         LINE#         549
  C:68B4H         LINE#         550
  C:68BCH         LINE#         553
  C:68CDH         LINE#         554
  -------         ENDPROC       LOAD_AND_SEND_ID_COD
  -------         ENDMOD        PTO_PARALELO

  -------         MODULE        TIBBO
  C:0000H         SYMBOL        _ICE_DUMMY_
  C:A735H         PUBLIC        _Debug_HexDec
  C:A595H         PUBLIC        _Debug_txt_Tibbo
  D:0080H         PUBLIC        P0
  D:0090H         PUBLIC        P1
  B:0090H.0       PUBLIC        txd2
  B:00A8H.7       PUBLIC        EA
  C:A542H         PUBLIC        _tx_aux
  B:0080H.0       PUBLIC        rx_ip
  C:AF73H         PUBLIC        Debug_Dividir_texto
  C:B089H         PUBLIC        cond_ini_tibbo
  C:AF51H         PUBLIC        time_mbit
  C:9743H         PUBLIC        rx_Data
  C:AED0H         PUBLIC        time_bit
  C:AA75H         PUBLIC        _Debug_pto_paralelo
  C:AC2EH         PUBLIC        _Debug_monitor
  C:9DD2H         PUBLIC        _DebugBufferMF
  C:A61BH         PUBLIC        _Debug_chr_Tibbo
  C:AECAH         SYMBOL        L?0066
  -------         PROC          L?0065
  -------         ENDPROC       L?0065
  C:AECAH         SYMBOL        L?0066
  -------         PROC          TIME_BIT
  -------         DO            
  D:0007H         SYMBOL        j
  -------         ENDDO         
  C:AED0H         LINE#         19
  C:AED0H         LINE#         20
  C:AED0H         LINE#         23
  C:AEDCH         LINE#         24
  C:AEDCH         LINE#         25
  C:AEDDH         LINE#         26
  C:AEDEH         LINE#         27
  C:AEDFH         LINE#         28
  C:AEE0H         LINE#         29
  C:AEE1H         LINE#         30
  C:AEE2H         LINE#         31
  C:AEE3H         LINE#         32
  C:AEE4H         LINE#         33
  C:AEE5H         LINE#         38
  C:AEE8H         LINE#         39
  -------         ENDPROC       TIME_BIT
  -------         PROC          TIME_MBIT
  -------         DO            
  D:0007H         SYMBOL        j
BL51 BANKED LINKER/LOCATER V6.22.2.0                                                  08/19/2020  14:41:27  PAGE 85


  -------         ENDDO         
  C:AF51H         LINE#         42
  C:AF51H         LINE#         43
  C:AF51H         LINE#         45
  C:AF5DH         LINE#         46
  C:AF5DH         LINE#         47
  C:AF5EH         LINE#         48
  C:AF5FH         LINE#         49
  C:AF60H         LINE#         50
  C:AF61H         LINE#         51
  C:AF62H         LINE#         52
  C:AF63H         LINE#         53
  C:AF64H         LINE#         54
  C:AF67H         LINE#         56
  -------         ENDPROC       TIME_MBIT
  -------         PROC          L?0070
  -------         ENDPROC       L?0070
  -------         PROC          _TX_AUX
  D:0006H         SYMBOL        caracter
  -------         DO            
  D:0004H         SYMBOL        j
  D:0005H         SYMBOL        temporal
  D:0006H         SYMBOL        bitTX
  -------         ENDDO         
  C:A542H         LINE#         61
  C:A544H         LINE#         62
  C:A544H         LINE#         65
  C:A546H         LINE#         66
  C:A548H         LINE#         67
  C:A54BH         LINE#         68
  C:A54CH         LINE#         69
  C:A54DH         LINE#         70
  C:A54FH         LINE#         71
  C:A553H         LINE#         72
  C:A555H         LINE#         73
  C:A555H         LINE#         74
  C:A557H         LINE#         75
  C:A559H         LINE#         77
  C:A559H         LINE#         78
  C:A55BH         LINE#         79
  C:A55BH         LINE#         80
  C:A55EH         LINE#         81
  C:A56AH         LINE#         82
  C:A56AH         LINE#         83
  C:A56EH         LINE#         84
  C:A571H         LINE#         85
  C:A573H         LINE#         86
  C:A573H         LINE#         87
  C:A575H         LINE#         88
  C:A577H         LINE#         90
  C:A577H         LINE#         91
  C:A579H         LINE#         92
  C:A579H         LINE#         93
  C:A57CH         LINE#         94
  C:A57FH         LINE#         95
  C:A581H         LINE#         96
  C:A584H         LINE#         97
BL51 BANKED LINKER/LOCATER V6.22.2.0                                                  08/19/2020  14:41:27  PAGE 86


  C:A587H         LINE#         99
  C:A589H         LINE#         100
  -------         ENDPROC       _TX_AUX
  -------         PROC          _DEBUG_HEXDEC
  D:0007H         SYMBOL        xfc
  -------         DO            
  X:0019H         SYMBOL        valor
  D:0006H         SYMBOL        centena
  D:0003H         SYMBOL        decena
  D:0002H         SYMBOL        unidad
  -------         ENDDO         
  C:A735H         LINE#         103
  C:A735H         LINE#         104
  C:A735H         LINE#         107
  C:A73CH         LINE#         109
  C:A73DH         LINE#         110
  C:A73EH         LINE#         111
  C:A73FH         LINE#         112
  C:A747H         LINE#         113
  C:A747H         LINE#         114
  C:A751H         LINE#         115
  C:A751H         LINE#         116
  C:A755H         LINE#         117
  C:A756H         LINE#         118
  C:A758H         LINE#         119
  C:A762H         LINE#         120
  C:A762H         LINE#         121
  C:A766H         LINE#         122
  C:A767H         LINE#         123
  C:A769H         LINE#         124
  C:A76BH         LINE#         125
  C:A76FH         LINE#         126
  C:A773H         LINE#         127
  C:A77AH         LINE#         129
  C:A77AH         LINE#         130
  -------         ENDPROC       _DEBUG_HEXDEC
  -------         PROC          _DEBUG_CHR_TIBBO
  D:0003H         SYMBOL        Dat
  -------         DO            
  D:0007H         SYMBOL        temp
  -------         ENDDO         
  C:A61BH         LINE#         135
  C:A61DH         LINE#         136
  C:A61DH         LINE#         138
  C:A625H         LINE#         139
  C:A625H         LINE#         140
  C:A62CH         LINE#         141
  C:A63FH         LINE#         143
  C:A642H         LINE#         145
  C:A646H         LINE#         146
  C:A659H         LINE#         147
  C:A65CH         LINE#         148
  C:A661H         LINE#         150
  C:A661H         LINE#         151
  -------         ENDPROC       _DEBUG_CHR_TIBBO
  -------         PROC          _DEBUGBUFFERMF
  X:0028H         SYMBOL        str
BL51 BANKED LINKER/LOCATER V6.22.2.0                                                  08/19/2020  14:41:27  PAGE 87


  X:002BH         SYMBOL        num_char
  X:002CH         SYMBOL        io
  -------         DO            
  X:002DH         SYMBOL        j
  -------         ENDDO         
  C:9DD2H         LINE#         158
  C:9DE0H         LINE#         159
  C:9DE0H         LINE#         163
  C:9DE8H         LINE#         164
  C:9DE8H         LINE#         165
  C:9DF7H         LINE#         166
  C:9DF7H         LINE#         167
  C:9DFBH         LINE#         168
  C:9E04H         LINE#         169
  C:9E16H         LINE#         170
  C:9E16H         LINE#         171
  C:9E28H         LINE#         172
  C:9E32H         LINE#         173
  C:9E3AH         LINE#         174
  C:9E3FH         LINE#         175
  C:9E44H         LINE#         176
  C:9E44H         LINE#         178
  -------         ENDPROC       _DEBUGBUFFERMF
  C:A58FH         SYMBOL        L?0068
  -------         PROC          L?0067
  -------         ENDPROC       L?0067
  C:A58FH         SYMBOL        L?0068
  -------         PROC          _DEBUG_TXT_TIBBO
  X:0038H         SYMBOL        str
  -------         DO            
  X:003BH         SYMBOL        i
  -------         ENDDO         
  C:A595H         LINE#         183
  C:A5A0H         LINE#         184
  C:A5A0H         LINE#         186
  C:A5A3H         LINE#         188
  C:A5ABH         LINE#         189
  C:A5ABH         LINE#         190
  C:A5C7H         LINE#         191
  C:A5C7H         LINE#         192
  C:A5CAH         LINE#         193
  C:A5D2H         LINE#         195
  C:A5D2H         LINE#         196
  -------         ENDPROC       _DEBUG_TXT_TIBBO
  -------         PROC          L?0069
  -------         ENDPROC       L?0069
  -------         PROC          DEBUG_DIVIDIR_TEXTO
  C:AF73H         LINE#         198
  C:AF73H         LINE#         199
  C:AF73H         LINE#         200
  -------         ENDPROC       DEBUG_DIVIDIR_TEXTO
  -------         PROC          RX_DATA
  -------         DO            
  D:0006H         SYMBOL        temporal
  -------         ENDDO         
  C:9743H         LINE#         206
  C:9743H         LINE#         207
BL51 BANKED LINKER/LOCATER V6.22.2.0                                                  08/19/2020  14:41:27  PAGE 88


  C:9743H         LINE#         210
  C:9745H         LINE#         211
  C:9748H         LINE#         213
  C:974BH         LINE#         215
  C:9757H         LINE#         216
  C:9757H         LINE#         218
  C:975AH         LINE#         220
  C:9766H         LINE#         221
  C:9766H         LINE#         223
  C:9769H         LINE#         225
  C:9775H         LINE#         226
  C:9775H         LINE#         228
  C:9778H         LINE#         230
  C:9784H         LINE#         231
  C:9784H         LINE#         233
  C:9787H         LINE#         235
  C:9793H         LINE#         236
  C:9793H         LINE#         238
  C:9796H         LINE#         240
  C:97A2H         LINE#         241
  C:97A2H         LINE#         243
  C:97A5H         LINE#         245
  C:97B1H         LINE#         246
  C:97B1H         LINE#         248
  C:97B4H         LINE#         249
  C:97C2H         LINE#         251
  C:97C5H         LINE#         252
  C:97C8H         LINE#         253
  C:97C8H         LINE#         254
  C:97C8H         LINE#         257
  C:97CAH         LINE#         259
  -------         ENDPROC       RX_DATA
  -------         PROC          COND_INI_TIBBO
  C:B089H         LINE#         277
  C:B089H         LINE#         278
  C:B089H         LINE#         280
  C:B08BH         LINE#         281
  C:B08DH         LINE#         282
  -------         ENDPROC       COND_INI_TIBBO
  -------         PROC          _DEBUG_PTO_PARALELO
  X:0002H         SYMBOL        buffer
  X:0005H         SYMBOL        Length_trama
  C:AA75H         LINE#         283
  C:AA78H         LINE#         284
  C:AA78H         LINE#         285
  C:AA7BH         LINE#         286
  C:AA84H         LINE#         287
  C:AA9BH         LINE#         288
  C:AA9EH         LINE#         289
  C:AAA7H         LINE#         290
  C:AAAAH         LINE#         291
  C:AAADH         LINE#         292
  -------         ENDPROC       _DEBUG_PTO_PARALELO
  -------         PROC          _DEBUG_MONITOR
  X:0015H         SYMBOL        buffer
  X:0018H         SYMBOL        Length_trama
  C:AC2EH         LINE#         295
BL51 BANKED LINKER/LOCATER V6.22.2.0                                                  08/19/2020  14:41:27  PAGE 89


  C:AC31H         LINE#         296
  C:AC31H         LINE#         297
  C:AC34H         LINE#         298
  C:AC3DH         LINE#         299
  C:AC4BH         LINE#         300
  C:AC4EH         LINE#         301
  C:AC57H         LINE#         302
  C:AC5AH         LINE#         303
  C:AC5DH         LINE#         304
  -------         ENDPROC       _DEBUG_MONITOR
  -------         ENDMOD        TIBBO

  -------         MODULE        UART
  C:0000H         SYMBOL        _ICE_DUMMY_
  C:ADB4H         PUBLIC        com_getchar
  C:AFC6H         PUBLIC        com_rbuflen
  C:AFD8H         PUBLIC        com_tbuflen
  B:00A8H.4       PUBLIC        ES
  B:0098H.0       PUBLIC        RI
  C:AAB0H         PUBLIC        _com_putchar
  B:0098H.1       PUBLIC        TI
  B:0021H.3       PUBLIC        aSk
  B:00B8H.4       PUBLIC        PS
  D:000DH         SYMBOL        r_in
  D:000EH         SYMBOL        r_out
  D:000FH         SYMBOL        t_in
  D:0010H         SYMBOL        t_out
  D:0099H         PUBLIC        SBUF
  D:0087H         PUBLIC        PCON
  D:0089H         PUBLIC        TMOD
  B:0021H.4       SYMBOL        ti_restart
  B:00A8H.3       PUBLIC        ET1
  D:008DH         PUBLIC        TH1
  B:0098H.7       PUBLIC        SM0
  B:0098H.6       PUBLIC        SM1
  D:008BH         PUBLIC        TL1
  B:0098H.5       PUBLIC        SM2
  B:0088H.6       PUBLIC        TR1
  C:ACEBH         PUBLIC        com_initialize
  X:020BH         PUBLIC        cnt__ask_off
  B:0098H.4       PUBLIC        REN
  C:AD3DH         PUBLIC        com_baudrate
  C:5372H         SYMBOL        com_isr
  -------         PROC          COM_ISR
  -------         DO            
  X:0209H         SYMBOL        cDatoRx
  D:0006H         SYMBOL        k
  D:0007H         SYMBOL        bcc
  X:020AH         SYMBOL        num_datos
  -------         ENDDO         
  C:5372H         LINE#         96
  C:5387H         LINE#         104
  C:538DH         LINE#         105
  C:538DH         LINE#         107
  C:538FH         LINE#         108
  C:5395H         LINE#         109
  C:53A5H         LINE#         110
BL51 BANKED LINKER/LOCATER V6.22.2.0                                                  08/19/2020  14:41:27  PAGE 90


  C:53A5H         LINE#         111
  C:53B0H         LINE#         112
  C:53B2H         LINE#         114
  C:53B2H         LINE#         115
  C:53C2H         LINE#         116
  C:53C2H         LINE#         117
  C:53C7H         LINE#         118
  C:53C7H         LINE#         119
  C:53DEH         LINE#         120
  C:53DEH         LINE#         124
  C:53DEH         LINE#         127
  C:53EDH         LINE#         128
  C:53EDH         LINE#         129
  C:53EFH         LINE#         130
  C:53F7H         LINE#         131
  C:53FCH         LINE#         133
  C:53FCH         LINE#         134
  C:53FFH         LINE#         138
  C:53FFH         LINE#         139
  C:53FFH         LINE#         140
  C:5417H         LINE#         141
  C:5426H         LINE#         142
  C:5426H         LINE#         143
  C:5426H         LINE#         144
  C:5428H         LINE#         146
  C:5428H         LINE#         147
  C:542AH         LINE#         148
  C:542AH         LINE#         149
  C:542AH         LINE#         150
  C:542DH         LINE#         154
  C:542DH         LINE#         156
  C:5436H         LINE#         157
  C:5436H         LINE#         159
  C:543CH         LINE#         160
  C:544FH         LINE#         161
  C:544FH         LINE#         162
  C:5452H         LINE#         164
  C:5452H         LINE#         165
  C:5467H         LINE#         166
  C:546DH         LINE#         167
  C:546DH         LINE#         169
  C:5470H         LINE#         173
  C:5470H         LINE#         175
  C:5488H         LINE#         176
  C:548EH         LINE#         177
  C:5491H         LINE#         178
  C:5491H         LINE#         179
  C:54A9H         LINE#         180
  C:54A9H         LINE#         181
  C:54AAH         LINE#         182
  C:54B7H         LINE#         183
  C:54B7H         LINE#         184
  C:54C4H         LINE#         185
  C:54C7H         LINE#         186
  C:54D5H         LINE#         187
  C:54D5H         LINE#         188
  C:54D7H         LINE#         189
BL51 BANKED LINKER/LOCATER V6.22.2.0                                                  08/19/2020  14:41:27  PAGE 91


  C:54DCH         LINE#         190
  C:54DEH         LINE#         191
  C:54E2H         LINE#         193
  C:54E4H         LINE#         195
  C:54E4H         LINE#         196
  C:54E4H         LINE#         197
  C:54E4H         LINE#         198
  C:54E6H         LINE#         200
  C:54E6H         LINE#         201
  C:54E6H         LINE#         202
  C:54E6H         LINE#         204
  C:54E8H         LINE#         206
  C:54E8H         LINE#         207
  C:54EEH         LINE#         208
  C:54EEH         LINE#         210
  C:54F0H         LINE#         215
  C:54F0H         LINE#         216
  C:54F5H         LINE#         217
  C:54F5H         LINE#         218
  C:54F5H         LINE#         219
  C:54F5H         LINE#         224
  C:54F8H         LINE#         225
  C:54F8H         LINE#         226
  C:54FAH         LINE#         228
  C:5500H         LINE#         229
  C:5500H         LINE#         230
  C:550AH         LINE#         232
  C:550CH         LINE#         233
  C:550EH         LINE#         234
  C:5510H         LINE#         236
  C:5510H         LINE#         237
  C:5512H         LINE#         238
  C:5512H         LINE#         239
  C:5512H         LINE#         241
  -------         ENDPROC       COM_ISR
  -------         PROC          COM_INITIALIZE
  C:ACEBH         LINE#         257
  C:ACF2H         LINE#         258
  C:ACF2H         LINE#         262
  C:ACF5H         LINE#         267
  C:ACF8H         LINE#         268
  C:ACFAH         LINE#         270
  C:ACFCH         LINE#         271
  C:ACFEH         LINE#         276
  C:AD02H         LINE#         277
  C:AD04H         LINE#         278
  C:AD06H         LINE#         280
  C:AD08H         LINE#         281
  C:AD0AH         LINE#         282
  C:AD0CH         LINE#         284
  C:AD0EH         LINE#         285
  C:AD10H         LINE#         286
  -------         ENDPROC       COM_INITIALIZE
  -------         PROC          COM_BAUDRATE
  C:AD3DH         LINE#         292
  C:AD44H         LINE#         294
  C:AD44H         LINE#         298
BL51 BANKED LINKER/LOCATER V6.22.2.0                                                  08/19/2020  14:41:27  PAGE 92


  C:AD46H         LINE#         299
  C:AD49H         LINE#         300
  C:AD4BH         LINE#         305
  C:AD4DH         LINE#         306
  C:AD4FH         LINE#         308
  C:AD52H         LINE#         310
  C:AD55H         LINE#         311
  C:AD58H         LINE#         313
  C:AD5BH         LINE#         314
  C:AD5EH         LINE#         315
  C:AD60H         LINE#         316
  -------         ENDPROC       COM_BAUDRATE
  -------         PROC          _COM_PUTCHAR
  X:00ABH         SYMBOL        c
  C:AAB0H         LINE#         322
  C:AABCH         LINE#         323
  C:AABCH         LINE#         327
  C:AAC9H         LINE#         328
  C:AACDH         LINE#         334
  C:AADBH         LINE#         336
  C:AADDH         LINE#         338
  C:AAE0H         LINE#         339
  C:AAE0H         LINE#         340
  C:AAE2H         LINE#         341
  C:AAE4H         LINE#         342
  C:AAE4H         LINE#         344
  C:AAE6H         LINE#         345
  -------         ENDPROC       _COM_PUTCHAR
  -------         PROC          COM_GETCHAR
  C:ADB4H         LINE#         351
  C:ADBBH         LINE#         352
  C:ADBBH         LINE#         353
  C:ADC1H         LINE#         354
  C:ADC7H         LINE#         356
  C:ADD5H         LINE#         357
  -------         ENDPROC       COM_GETCHAR
  -------         PROC          COM_RBUFLEN
  C:AFC6H         LINE#         363
  C:AFCDH         LINE#         364
  C:AFCDH         LINE#         365
  C:AFD3H         LINE#         366
  -------         ENDPROC       COM_RBUFLEN
  -------         PROC          COM_TBUFLEN
  C:AFD8H         LINE#         372
  C:AFDFH         LINE#         373
  C:AFDFH         LINE#         374
  C:AFE5H         LINE#         375
  -------         ENDPROC       COM_TBUFLEN
  -------         ENDMOD        UART

  -------         MODULE        LINTECH
  C:0000H         SYMBOL        _ICE_DUMMY_
  C:8E0EH         PUBLIC        _Inicializa
  C:81F7H         PUBLIC        _RD_MF
  C:8C1CH         PUBLIC        Dwload_EEprom
  C:92CFH         PUBLIC        _Card_Insercion
  C:7811H         PUBLIC        _Mov_Card
BL51 BANKED LINKER/LOCATER V6.22.2.0                                                  08/19/2020  14:41:27  PAGE 93


  C:6F3CH         PUBLIC        _WR_MF
  C:9360H         PUBLIC        LoadVerify_EEprom
  C:97CBH         PUBLIC        Unique_Identifier_UID
  C:9BE1H         PUBLIC        Power_off
  C:9C61H         PUBLIC        _Check_Status
  C:8B72H         PUBLIC        Clave_Seguridad_S2
  C:9B61H         PUBLIC        Aut_Card_check_Status
  -------         PROC          _INICIALIZA
  X:0003H         SYMBOL        TipoMovimiento
  -------         DO            
  D:0003H         SYMBOL        j
  X:0004H         SYMBOL        bcc
  X:0005H         SYMBOL        g_scArrTxComSoft
  -------         ENDDO         
  C:8E0EH         LINE#         66
  C:8E13H         LINE#         67
  C:8E13H         LINE#         70
  C:8E16H         LINE#         71
  C:8E2CH         LINE#         72
  C:8E2CH         LINE#         74
  C:8E35H         LINE#         76
  C:8E3BH         LINE#         77
  C:8E3EH         LINE#         78
  C:8E40H         LINE#         79
  C:8E44H         LINE#         80
  C:8E48H         LINE#         81
  C:8E4CH         LINE#         82
  C:8E54H         LINE#         83
  C:8E58H         LINE#         84
  C:8E64H         LINE#         85
  C:8E64H         LINE#         86
  C:8E78H         LINE#         87
  C:8E7BH         LINE#         88
  C:8E83H         LINE#         89
  C:8E85H         LINE#         90
  C:8E8AH         LINE#         91
  C:8E99H         LINE#         92
  C:8EA4H         LINE#         93
  C:8EAAH         LINE#         94
  C:8EAAH         LINE#         95
  -------         ENDPROC       _INICIALIZA
  -------         PROC          _CHECK_STATUS
  X:0003H         SYMBOL        Detalle
  -------         DO            
  D:0006H         SYMBOL        j
  D:0007H         SYMBOL        bcc
  X:0004H         SYMBOL        g_scArrTxComSoft
  -------         ENDDO         
  C:9C61H         LINE#         107
  C:9C66H         LINE#         108
  C:9C66H         LINE#         111
  C:9C6FH         LINE#         113
  C:9C71H         LINE#         115
  C:9C77H         LINE#         116
  C:9C7AH         LINE#         117
  C:9C7CH         LINE#         118
  C:9C80H         LINE#         119
BL51 BANKED LINKER/LOCATER V6.22.2.0                                                  08/19/2020  14:41:27  PAGE 94


  C:9C84H         LINE#         120
  C:9C88H         LINE#         121
  C:9C90H         LINE#         122
  C:9C94H         LINE#         123
  C:9CA0H         LINE#         124
  C:9CA0H         LINE#         125
  C:9CADH         LINE#         126
  C:9CB0H         LINE#         127
  C:9CB5H         LINE#         128
  C:9CB7H         LINE#         129
  C:9CBCH         LINE#         130
  C:9CCBH         LINE#         131
  C:9CD6H         LINE#         132
  C:9CDCH         LINE#         133
  -------         ENDPROC       _CHECK_STATUS
  -------         PROC          _CARD_INSERCION
  D:0007H         SYMBOL        Tipo
  -------         DO            
  D:0006H         SYMBOL        j
  D:0007H         SYMBOL        bcc
  X:0003H         SYMBOL        g_scArrTxComSoft
  -------         ENDDO         
  C:92CFH         LINE#         143
  C:92CFH         LINE#         144
  C:92CFH         LINE#         147
  C:92DCH         LINE#         148
  C:92DCH         LINE#         149
  C:92E3H         LINE#         150
  C:92E9H         LINE#         151
  C:92EBH         LINE#         153
  C:92EBH         LINE#         155
  C:92F2H         LINE#         156
  C:92F8H         LINE#         158
  C:92F8H         LINE#         160
  C:92FAH         LINE#         162
  C:9300H         LINE#         163
  C:9303H         LINE#         164
  C:9305H         LINE#         165
  C:9309H         LINE#         166
  C:930DH         LINE#         167
  C:9311H         LINE#         169
  C:9317H         LINE#         170
  C:9323H         LINE#         171
  C:9323H         LINE#         172
  C:9330H         LINE#         173
  C:9333H         LINE#         175
  C:9338H         LINE#         177
  C:933AH         LINE#         178
  C:933FH         LINE#         179
  C:934EH         LINE#         180
  C:9359H         LINE#         181
  C:935FH         LINE#         182
  -------         ENDPROC       _CARD_INSERCION
  -------         PROC          _MOV_CARD
  X:0003H         SYMBOL        Posicion
  -------         DO            
  D:0003H         SYMBOL        j
BL51 BANKED LINKER/LOCATER V6.22.2.0                                                  08/19/2020  14:41:27  PAGE 95


  X:0004H         SYMBOL        bcc
  X:0005H         SYMBOL        g_scArrTxComSoft
  -------         ENDDO         
  C:7811H         LINE#         193
  C:7816H         LINE#         194
  C:7816H         LINE#         197
  C:7819H         LINE#         199
  C:7839H         LINE#         200
  C:7839H         LINE#         201
  C:7840H         LINE#         202
  C:7840H         LINE#         203
  C:7846H         LINE#         204
  C:7848H         LINE#         205
  C:784FH         LINE#         206
  C:784FH         LINE#         207
  C:7855H         LINE#         208
  C:7857H         LINE#         209
  C:785EH         LINE#         210
  C:785EH         LINE#         211
  C:7864H         LINE#         212
  C:7866H         LINE#         213
  C:786DH         LINE#         214
  C:786DH         LINE#         215
  C:7873H         LINE#         216
  C:7875H         LINE#         217
  C:787CH         LINE#         218
  C:787CH         LINE#         219
  C:7885H         LINE#         220
  C:7885H         LINE#         222
  C:788BH         LINE#         223
  C:788EH         LINE#         224
  C:7890H         LINE#         225
  C:7894H         LINE#         226
  C:7898H         LINE#         227
  C:789CH         LINE#         228
  C:78A4H         LINE#         229
  C:78A8H         LINE#         230
  C:78B4H         LINE#         231
  C:78B4H         LINE#         232
  C:78C8H         LINE#         233
  C:78CBH         LINE#         234
  C:78D3H         LINE#         235
  C:78D5H         LINE#         236
  C:78DAH         LINE#         237
  C:78E9H         LINE#         238
  C:78F4H         LINE#         239
  C:78FAH         LINE#         240
  C:78FAH         LINE#         242
  -------         ENDPROC       _MOV_CARD
  -------         PROC          AUT_CARD_CHECK_STATUS
  -------         DO            
  D:0003H         SYMBOL        j
  X:0003H         SYMBOL        bcc
  X:0004H         SYMBOL        g_scArrTxComSoft
  -------         ENDDO         
  C:9B61H         LINE#         248
  C:9B61H         LINE#         249
BL51 BANKED LINKER/LOCATER V6.22.2.0                                                  08/19/2020  14:41:27  PAGE 96


  C:9B61H         LINE#         252
  C:9B66H         LINE#         254
  C:9B6FH         LINE#         256
  C:9B75H         LINE#         257
  C:9B78H         LINE#         258
  C:9B7AH         LINE#         259
  C:9B7EH         LINE#         260
  C:9B82H         LINE#         261
  C:9B86H         LINE#         262
  C:9B8AH         LINE#         263
  C:9B8EH         LINE#         264
  C:9B9AH         LINE#         265
  C:9B9AH         LINE#         266
  C:9BAEH         LINE#         267
  C:9BB1H         LINE#         268
  C:9BB9H         LINE#         269
  C:9BBBH         LINE#         270
  C:9BC0H         LINE#         271
  C:9BCFH         LINE#         272
  C:9BDAH         LINE#         273
  C:9BE0H         LINE#         274
  -------         ENDPROC       AUT_CARD_CHECK_STATUS
  -------         PROC          CLAVE_SEGURIDAD_S2
  -------         DO            
  D:0003H         SYMBOL        j
  X:0008H         SYMBOL        bcc
  X:0009H         SYMBOL        g_scArrTxComSoft
  -------         ENDDO         
  C:8B72H         LINE#         277
  C:8B72H         LINE#         278
  C:8B72H         LINE#         281
  C:8B77H         LINE#         282
  C:8B80H         LINE#         285
  C:8B86H         LINE#         286
  C:8B89H         LINE#         287
  C:8B8BH         LINE#         288
  C:8B8FH         LINE#         289
  C:8B93H         LINE#         290
  C:8B97H         LINE#         291
  C:8B9BH         LINE#         292
  C:8B9EH         LINE#         293
  C:8BA2H         LINE#         294
  C:8BA5H         LINE#         295
  C:8BA9H         LINE#         297
  C:8BADH         LINE#         299
  C:8BB1H         LINE#         300
  C:8BB5H         LINE#         301
  C:8BB9H         LINE#         302
  C:8BBDH         LINE#         303
  C:8BC1H         LINE#         304
  C:8BC5H         LINE#         307
  C:8BC9H         LINE#         309
  C:8BD5H         LINE#         310
  C:8BD5H         LINE#         311
  C:8BE9H         LINE#         312
  C:8BECH         LINE#         313
  C:8BF4H         LINE#         314
BL51 BANKED LINKER/LOCATER V6.22.2.0                                                  08/19/2020  14:41:27  PAGE 97


  C:8BF6H         LINE#         315
  C:8BFBH         LINE#         316
  C:8C0AH         LINE#         317
  C:8C15H         LINE#         318
  C:8C1BH         LINE#         321
  -------         ENDPROC       CLAVE_SEGURIDAD_S2
  -------         PROC          DWLOAD_EEPROM
  -------         DO            
  D:0003H         SYMBOL        j
  X:0003H         SYMBOL        bcc
  X:0004H         SYMBOL        g_scArrTxComSoft
  -------         ENDDO         
  C:8C1CH         LINE#         326
  C:8C1CH         LINE#         327
  C:8C1CH         LINE#         330
  C:8C21H         LINE#         331
  C:8C2AH         LINE#         333
  C:8C30H         LINE#         334
  C:8C33H         LINE#         335
  C:8C35H         LINE#         336
  C:8C39H         LINE#         337
  C:8C3DH         LINE#         338
  C:8C41H         LINE#         339
  C:8C45H         LINE#         340
  C:8C48H         LINE#         341
  C:8C4CH         LINE#         342
  C:8C4FH         LINE#         343
  C:8C52H         LINE#         344
  C:8C56H         LINE#         345
  C:8C5AH         LINE#         346
  C:8C5EH         LINE#         347
  C:8C62H         LINE#         348
  C:8C66H         LINE#         349
  C:8C6AH         LINE#         350
  C:8C6EH         LINE#         351
  C:8C72H         LINE#         353
  C:8C7EH         LINE#         354
  C:8C7EH         LINE#         355
  C:8C92H         LINE#         356
  C:8C95H         LINE#         357
  C:8C9DH         LINE#         358
  C:8C9FH         LINE#         359
  C:8CA4H         LINE#         360
  C:8CB3H         LINE#         361
  C:8CBEH         LINE#         362
  C:8CC4H         LINE#         363
  -------         ENDPROC       DWLOAD_EEPROM
  -------         PROC          LOADVERIFY_EEPROM
  -------         DO            
  D:0003H         SYMBOL        j
  X:0003H         SYMBOL        bcc
  X:0004H         SYMBOL        g_scArrTxComSoft
  -------         ENDDO         
  C:9360H         LINE#         369
  C:9360H         LINE#         370
  C:9360H         LINE#         373
  C:9365H         LINE#         374
BL51 BANKED LINKER/LOCATER V6.22.2.0                                                  08/19/2020  14:41:27  PAGE 98


  C:936EH         LINE#         377
  C:9374H         LINE#         378
  C:9377H         LINE#         379
  C:9379H         LINE#         380
  C:937DH         LINE#         381
  C:9381H         LINE#         382
  C:9385H         LINE#         383
  C:9389H         LINE#         384
  C:938CH         LINE#         385
  C:9390H         LINE#         386
  C:9393H         LINE#         387
  C:9396H         LINE#         388
  C:939AH         LINE#         389
  C:939EH         LINE#         393
  C:93AAH         LINE#         394
  C:93AAH         LINE#         395
  C:93BEH         LINE#         396
  C:93C1H         LINE#         397
  C:93C9H         LINE#         398
  C:93CBH         LINE#         399
  C:93D0H         LINE#         400
  C:93DFH         LINE#         401
  C:93EAH         LINE#         402
  C:93F0H         LINE#         404
  -------         ENDPROC       LOADVERIFY_EEPROM
  -------         PROC          _RD_MF
  X:0003H         SYMBOL        Sector
  X:0004H         SYMBOL        Bloque
  -------         DO            
  D:0003H         SYMBOL        j
  X:0005H         SYMBOL        bcc
  X:0006H         SYMBOL        g_scArrTxComSoft
  -------         ENDDO         
  C:81F7H         LINE#         410
  C:81FFH         LINE#         411
  C:81FFH         LINE#         415
  C:8202H         LINE#         417
  C:820BH         LINE#         418
  C:8213H         LINE#         420
  C:821CH         LINE#         421
  C:8224H         LINE#         422
  C:822DH         LINE#         425
  C:8233H         LINE#         426
  C:8236H         LINE#         427
  C:8238H         LINE#         428
  C:823CH         LINE#         429
  C:8240H         LINE#         430
  C:8244H         LINE#         431
  C:8248H         LINE#         432
  C:824BH         LINE#         433
  C:824FH         LINE#         434
  C:8257H         LINE#         435
  C:825FH         LINE#         436
  C:8263H         LINE#         437
  C:8267H         LINE#         439
  C:8273H         LINE#         440
  C:8273H         LINE#         441
BL51 BANKED LINKER/LOCATER V6.22.2.0                                                  08/19/2020  14:41:27  PAGE 99


  C:8287H         LINE#         442
  C:828AH         LINE#         443
  C:8292H         LINE#         446
  C:8294H         LINE#         447
  C:8299H         LINE#         448
  C:82A8H         LINE#         449
  C:82B3H         LINE#         450
  C:82B9H         LINE#         452
  -------         ENDPROC       _RD_MF
  -------         PROC          _WR_MF
  X:0003H         SYMBOL        Sector
  X:0004H         SYMBOL        Bloque
  X:0005H         SYMBOL        buffer
  -------         DO            
  D:0005H         SYMBOL        j
  X:0008H         SYMBOL        bcc
  X:0009H         SYMBOL        g_scArrTxComSoft
  -------         ENDDO         
  C:6F3CH         LINE#         459
  C:6F4DH         LINE#         461
  C:6F4DH         LINE#         464
  C:6F50H         LINE#         466
  C:6F59H         LINE#         467
  C:6F61H         LINE#         469
  C:6F6AH         LINE#         470
  C:6F72H         LINE#         471
  C:6F7BH         LINE#         473
  C:6F81H         LINE#         474
  C:6F84H         LINE#         475
  C:6F86H         LINE#         476
  C:6F8AH         LINE#         478
  C:6F8EH         LINE#         479
  C:6F92H         LINE#         480
  C:6F96H         LINE#         481
  C:6F99H         LINE#         482
  C:6F9DH         LINE#         483
  C:6FA5H         LINE#         484
  C:6FADH         LINE#         485
  C:6FB1H         LINE#         487
  C:6FBDH         LINE#         488
  C:6FBDH         LINE#         489
  C:6FDDH         LINE#         490
  C:6FE0H         LINE#         492
  C:6FE6H         LINE#         494
  C:6FF2H         LINE#         495
  C:6FF2H         LINE#         496
  C:7009H         LINE#         497
  C:700CH         LINE#         498
  C:7014H         LINE#         501
  C:7016H         LINE#         502
  C:701BH         LINE#         503
  C:702AH         LINE#         504
  C:7035H         LINE#         505
  C:703BH         LINE#         507
  -------         ENDPROC       _WR_MF
  -------         PROC          UNIQUE_IDENTIFIER_UID
  -------         DO            
BL51 BANKED LINKER/LOCATER V6.22.2.0                                                  08/19/2020  14:41:27  PAGE 100


  D:0003H         SYMBOL        j
  X:0003H         SYMBOL        bcc
  X:0004H         SYMBOL        g_scArrTxComSoft
  -------         ENDDO         
  C:97CBH         LINE#         512
  C:97CBH         LINE#         513
  C:97CBH         LINE#         516
  C:97D0H         LINE#         518
  C:97D9H         LINE#         520
  C:97DFH         LINE#         521
  C:97E2H         LINE#         522
  C:97E4H         LINE#         523
  C:97E8H         LINE#         524
  C:97ECH         LINE#         525
  C:97F0H         LINE#         526
  C:97F4H         LINE#         527
  C:97F8H         LINE#         528
  C:97FCH         LINE#         529
  C:9800H         LINE#         530
  C:980CH         LINE#         531
  C:980CH         LINE#         532
  C:9820H         LINE#         533
  C:9823H         LINE#         534
  C:982BH         LINE#         535
  C:982DH         LINE#         536
  C:9832H         LINE#         537
  C:9841H         LINE#         538
  C:984CH         LINE#         539
  C:9852H         LINE#         540
  -------         ENDPROC       UNIQUE_IDENTIFIER_UID
  -------         PROC          POWER_OFF
  -------         DO            
  D:0003H         SYMBOL        j
  X:0003H         SYMBOL        bcc
  X:0004H         SYMBOL        g_scArrTxComSoft
  -------         ENDDO         
  C:9BE1H         LINE#         541
  C:9BE1H         LINE#         542
  C:9BE1H         LINE#         545
  C:9BE6H         LINE#         547
  C:9BEFH         LINE#         549
  C:9BF5H         LINE#         550
  C:9BF8H         LINE#         551
  C:9BFAH         LINE#         552
  C:9BFEH         LINE#         553
  C:9C02H         LINE#         554
  C:9C06H         LINE#         555
  C:9C0AH         LINE#         556
  C:9C0EH         LINE#         557
  C:9C1AH         LINE#         558
  C:9C1AH         LINE#         559
  C:9C2EH         LINE#         560
  C:9C31H         LINE#         561
  C:9C39H         LINE#         562
  C:9C3BH         LINE#         563
  C:9C40H         LINE#         564
  C:9C4FH         LINE#         565
BL51 BANKED LINKER/LOCATER V6.22.2.0                                                  08/19/2020  14:41:27  PAGE 101


  C:9C5AH         LINE#         566
  C:9C60H         LINE#         569
  -------         ENDPROC       POWER_OFF
  -------         ENDMOD        LINTECH

  -------         MODULE        VERIFICADOR
  C:0000H         SYMBOL        _ICE_DUMMY_
  D:0080H         PUBLIC        P0
  C:ADDAH         PUBLIC        Analiza_Presencia_Mensual
  C:A2A5H         PUBLIC        Ingreso_Vehiculo
  D:0090H         PUBLIC        P1
  C:AD65H         PUBLIC        _Armar_Trama_Tarjeta_Sector1_Bloque0
  D:00B0H         PUBLIC        P3
  C:5525H         PUBLIC        _Valida_Tipo_Tarjeta
  C:AA19H         PUBLIC        _Load_Secuencia_Expedidor
  C:5F49H         PUBLIC        _Armar_Trama_Tarjeta_Sector1_Bloque2
  C:56CAH         PUBLIC        Armar_Trama_Pto_Paralelo_Expedidor
  C:8133H         PUBLIC        _Tarjeta_Mensual
  C:AE26H         PUBLIC        Analiza_Presencia_rotacion
  C:A067H         PUBLIC        _Disparo_Lock_Entrada_Vehiculo
  C:9111H         PUBLIC        _Valida_Vehiculo_Card_Mensual
  C:A356H         PUBLIC        _Armar_Trama_Placa
  C:7E11H         PUBLIC        _rta_cmd_transporte
  C:B038H         PUBLIC        Captura_Expulsa
  C:5CB0H         PUBLIC        _Armar_Trama_Monitor
  C:61C9H         PUBLIC        Secuencia_inicio_expedidor
  C:7B98H         PUBLIC        _Analiza_Uid_Card
  B:0080H.0       PUBLIC        rx_ip
  C:6E39H         PUBLIC        _Bloque_Horario
  B:0090H.7       PUBLIC        lock
  C:8EABH         PUBLIC        _Responde_Lectura_Tarjeta_Sector1_Bloque0
  C:85BDH         PUBLIC        error_rx_pto
  C:5193H         PUBLIC        _Responde_Lectura_Tarjeta_Sector1_Bloque1
  C:643EH         PUBLIC        _Responde_Lectura_Tarjeta_Sector1_Bloque2
  B:0090H.1       PUBLIC        DataIn
  C:9853H         PUBLIC        _Send_Pto_Paralelo
  C:ABFBH         PUBLIC        Trama_Validacion_P_N
  B:0021H.6       PUBLIC        MenSual
  C:837CH         PUBLIC        _Armar_Trama_Pto_Paralelo_Expedidor_Mensual
  B:0080H.3       PUBLIC        Rele_Atasco
  C:6C1EH         PUBLIC        _Horarios
  C:8AC6H         PUBLIC        _Hora_Maxima
  C:3700H         PUBLIC        _SecuenciaExpedidorMF
  C:A12FH         PUBLIC        _Pregunta_Lpr
  C:8D6BH         PUBLIC        _Wait_Placa
  C:9CDDH         PUBLIC        Responde_Estado_Sensores_Transporte
  C:9D59H         PUBLIC        Entrega_Card_Captura
  C:A1EEH         PUBLIC        _Respuesta_Segunda_clave
  X:0141H         SYMBOL        Estado
  C:AB5DH         PUBLIC        _Responde_Write_Tarjeta_Sector1_Bloque0
  C:A662H         PUBLIC        _Responde_Write_Tarjeta_Sector2_Bloque0
  C:95A0H         PUBLIC        _Responde_Write_Tarjeta_Sector1_Bloque2
  C:9EB6H         PUBLIC        _En_Horario
  C:9E45H         PUBLIC        Responde_Tipo_Tarjeta
  C:AC60H         PUBLIC        _Tarjeta_Rotacion
  -------         PROC          CAPTURA_EXPULSA
  -------         DO            
BL51 BANKED LINKER/LOCATER V6.22.2.0                                                  08/19/2020  14:41:27  PAGE 102


  D:0007H         SYMBOL        Estado_expedidor
  -------         ENDDO         
  C:B038H         LINE#         522
  C:B038H         LINE#         523
  C:B038H         LINE#         527
  C:B03BH         LINE#         528
  C:B03BH         LINE#         529
  C:B03DH         LINE#         530
  C:B03EH         LINE#         532
  C:B03EH         LINE#         534
  C:B040H         LINE#         535
  C:B040H         LINE#         538
  C:B040H         LINE#         539
  -------         ENDPROC       CAPTURA_EXPULSA
  -------         PROC          TRAMA_VALIDACION_P_N
  -------         DO            
  D:0007H         SYMBOL        Trama_Validacion_P_N
  -------         ENDDO         
  C:ABFBH         LINE#         550
  C:ABFBH         LINE#         551
  C:ABFBH         LINE#         552
  C:ABFDH         LINE#         554
  C:AC08H         LINE#         555
  C:AC08H         LINE#         556
  C:AC0BH         LINE#         557
  C:AC0BH         LINE#         558
  C:AC0DH         LINE#         561
  C:AC15H         LINE#         562
  C:AC15H         LINE#         564
  C:AC17H         LINE#         566
  C:AC18H         LINE#         567
  C:AC1CH         LINE#         568
  C:AC1CH         LINE#         570
  C:AC1EH         LINE#         572
  C:AC1FH         LINE#         574
  C:AC1FH         LINE#         575
  C:AC28H         LINE#         576
  C:AC2AH         LINE#         578
  C:AC2AH         LINE#         579
  C:AC2BH         LINE#         581
  C:AC2BH         LINE#         583
  C:AC2DH         LINE#         585
  C:AC2DH         LINE#         587
  C:AC2DH         LINE#         589
  C:AC2DH         LINE#         590
  -------         ENDPROC       TRAMA_VALIDACION_P_N
  -------         PROC          ERROR_RX_PTO
  -------         DO            
  X:00B8H         SYMBOL        cnt_espera_ask_on
  X:0008H         SYMBOL        error_rx_pto
  -------         ENDDO         
  C:85BDH         LINE#         614
  C:85BDH         LINE#         615
  C:85BDH         LINE#         618
  C:85C3H         LINE#         622
  C:85CCH         LINE#         623
  C:85D4H         LINE#         624
BL51 BANKED LINKER/LOCATER V6.22.2.0                                                  08/19/2020  14:41:27  PAGE 103


  C:85DDH         LINE#         625
  C:85E5H         LINE#         626
  C:85EEH         LINE#         627
  C:85F1H         LINE#         629
  C:85F1H         LINE#         630
  C:85F7H         LINE#         631
  C:8601H         LINE#         632
  C:8601H         LINE#         633
  C:860AH         LINE#         634
  C:860CH         LINE#         635
  C:8613H         LINE#         636
  C:8618H         LINE#         637
  C:861EH         LINE#         638
  C:8623H         LINE#         639
  C:8625H         LINE#         640
  C:862CH         LINE#         641
  C:8632H         LINE#         642
  C:8632H         LINE#         644
  C:8632H         LINE#         645
  C:8637H         LINE#         646
  C:8637H         LINE#         647
  C:8637H         LINE#         648
  C:8639H         LINE#         650
  C:8639H         LINE#         651
  C:8647H         LINE#         652
  C:865AH         LINE#         653
  C:865AH         LINE#         654
  C:865BH         LINE#         656
  C:8661H         LINE#         657
  C:8665H         LINE#         658
  C:8667H         LINE#         659
  C:8667H         LINE#         660
  C:8669H         LINE#         662
  C:8669H         LINE#         663
  C:866AH         LINE#         664
  C:866FH         LINE#         665
  C:8675H         LINE#         666
  C:8675H         LINE#         667
  C:8675H         LINE#         668
  C:867AH         LINE#         669
  -------         ENDPROC       ERROR_RX_PTO
  -------         PROC          _RTA_CMD_TRANSPORTE
  X:0003H         SYMBOL        secuencia_Expedidor
  -------         DO            
  X:0006H         SYMBOL        temp
  X:0007H         SYMBOL        EstadoComSeqMF
  -------         ENDDO         
  C:7E11H         LINE#         685
  C:7E1CH         LINE#         686
  C:7E1CH         LINE#         691
  C:7E29H         LINE#         692
  C:7E29H         LINE#         693
  C:7E31H         LINE#         694
  C:7E31H         LINE#         695
  C:7E3FH         LINE#         696
  C:7E42H         LINE#         697
  C:7E48H         LINE#         698
BL51 BANKED LINKER/LOCATER V6.22.2.0                                                  08/19/2020  14:41:27  PAGE 104


  C:7E48H         LINE#         699
  C:7E51H         LINE#         700
  C:7E65H         LINE#         701
  C:7E76H         LINE#         702
  C:7E78H         LINE#         704
  C:7E78H         LINE#         707
  C:7E90H         LINE#         708
  C:7E90H         LINE#         709
  C:7E9BH         LINE#         710
  C:7E9DH         LINE#         712
  C:7E9DH         LINE#         713
  C:7EABH         LINE#         714
  C:7EABH         LINE#         715
  C:7EABH         LINE#         716
  C:7EADH         LINE#         718
  C:7EADH         LINE#         720
  C:7EC1H         LINE#         721
  C:7ED6H         LINE#         722
  C:7ED6H         LINE#         723
  C:7EDBH         LINE#         724
  -------         ENDPROC       _RTA_CMD_TRANSPORTE
  -------         PROC          ANALIZA_PRESENCIA_MENSUAL
  -------         DO            
  X:0003H         SYMBOL        Estado_expedidor
  -------         ENDDO         
  C:ADDAH         LINE#         728
  C:ADDAH         LINE#         729
  C:ADDAH         LINE#         731
  C:ADE0H         LINE#         732
  C:ADE0H         LINE#         733
  C:ADE2H         LINE#         734
  C:ADE8H         LINE#         735
  C:ADEAH         LINE#         737
  C:ADEAH         LINE#         739
  C:ADEFH         LINE#         740
  C:ADF4H         LINE#         741
  C:ADFAH         LINE#         743
  C:ADFAH         LINE#         744
  C:ADFFH         LINE#         745
  -------         ENDPROC       ANALIZA_PRESENCIA_MENSUAL
  -------         PROC          ANALIZA_PRESENCIA_ROTACION
  -------         DO            
  X:0003H         SYMBOL        Estado_expedidor
  -------         ENDDO         
  C:AE26H         LINE#         746
  C:AE26H         LINE#         747
  C:AE26H         LINE#         749
  C:AE2CH         LINE#         750
  C:AE2CH         LINE#         752
  C:AE32H         LINE#         753
  C:AE34H         LINE#         755
  C:AE34H         LINE#         757
  C:AE39H         LINE#         758
  C:AE3EH         LINE#         759
  C:AE43H         LINE#         761
  C:AE43H         LINE#         762
  C:AE48H         LINE#         763
BL51 BANKED LINKER/LOCATER V6.22.2.0                                                  08/19/2020  14:41:27  PAGE 105


  -------         ENDPROC       ANALIZA_PRESENCIA_ROTACION
  -------         PROC          _ANALIZA_UID_CARD
  X:0003H         SYMBOL        Atributos_Expedidor
  -------         DO            
  X:0006H         SYMBOL        Estado_expedidor
  D:0007H         SYMBOL        temp
  X:0007H         SYMBOL        buffer_UID
  -------         ENDDO         
  C:7B98H         LINE#         767
  C:7BA3H         LINE#         768
  C:7BA3H         LINE#         772
  C:7BB3H         LINE#         773
  C:7BB3H         LINE#         775
  C:7BBFH         LINE#         776
  C:7BBFH         LINE#         777
  C:7BD7H         LINE#         779
  C:7BDAH         LINE#         781
  C:7BE3H         LINE#         782
  C:7BF4H         LINE#         785
  C:7BFDH         LINE#         786
  C:7C05H         LINE#         787
  C:7C0DH         LINE#         788
  C:7C15H         LINE#         789
  C:7C1DH         LINE#         790
  C:7C26H         LINE#         792
  C:7C3DH         LINE#         793
  C:7C47H         LINE#         794
  C:7C51H         LINE#         795
  C:7C5BH         LINE#         796
  C:7C61H         LINE#         797
  C:7C63H         LINE#         799
  C:7C63H         LINE#         800
  C:7C69H         LINE#         801
  C:7C69H         LINE#         802
  C:7C6EH         LINE#         803
  -------         ENDPROC       _ANALIZA_UID_CARD
  -------         PROC          INGRESO_VEHICULO
  -------         DO            
  D:0007H         SYMBOL        CardAutomatic
  X:00BAH         SYMBOL        pulseboton
  -------         ENDDO         
  C:A2A5H         LINE#         807
  C:A2A5H         LINE#         808
  C:A2A5H         LINE#         812
  C:A2ABH         LINE#         813
  C:A2ABH         LINE#         814
  C:A2B4H         LINE#         816
  C:A2B9H         LINE#         817
  C:A2B9H         LINE#         818
  C:A2C2H         LINE#         820
  C:A2C2H         LINE#         821
  C:A2C4H         LINE#         823
  C:A2C4H         LINE#         824
  C:A2CAH         LINE#         825
  C:A2CFH         LINE#         826
  C:A2D1H         LINE#         828
  C:A2D1H         LINE#         829
BL51 BANKED LINKER/LOCATER V6.22.2.0                                                  08/19/2020  14:41:27  PAGE 106


  C:A2D7H         LINE#         832
  C:A2D7H         LINE#         833
  C:A2DAH         LINE#         834
  C:A2DDH         LINE#         835
  C:A2DDH         LINE#         836
  C:A2E6H         LINE#         837
  C:A2EBH         LINE#         838
  C:A2F1H         LINE#         839
  C:A2F3H         LINE#         848
  C:A2F3H         LINE#         850
  C:A2F8H         LINE#         851
  C:A2F8H         LINE#         852
  C:A2FDH         LINE#         853
  -------         ENDPROC       INGRESO_VEHICULO
  -------         PROC          RESPONDE_ESTADO_SENSORES_TRANSPORTE
  -------         DO            
  X:0003H         SYMBOL        Estado_expedidor
  -------         ENDDO         
  C:9CDDH         LINE#         860
  C:9CDDH         LINE#         861
  C:9CDDH         LINE#         864
  C:9CE6H         LINE#         866
  C:9CEEH         LINE#         867
  C:9CEEH         LINE#         869
  C:9CF9H         LINE#         870
  C:9CF9H         LINE#         871
  C:9CFDH         LINE#         872
  C:9CFDH         LINE#         873
  C:9D06H         LINE#         874
  C:9D0BH         LINE#         876
  C:9D0BH         LINE#         877
  C:9D0DH         LINE#         879
  C:9D0DH         LINE#         881
  C:9D15H         LINE#         883
  C:9D15H         LINE#         884
  C:9D17H         LINE#         886
  C:9D17H         LINE#         888
  C:9D20H         LINE#         890
  C:9D25H         LINE#         893
  C:9D25H         LINE#         894
  C:9D25H         LINE#         895
  C:9D27H         LINE#         896
  C:9D2EH         LINE#         897
  C:9D2EH         LINE#         899
  C:9D34H         LINE#         901
  C:9D34H         LINE#         902
  C:9D36H         LINE#         903
  C:9D3DH         LINE#         905
  C:9D3DH         LINE#         906
  C:9D46H         LINE#         907
  C:9D4CH         LINE#         908
  C:9D4EH         LINE#         910
  C:9D4EH         LINE#         911
  C:9D53H         LINE#         912
  C:9D53H         LINE#         913
  C:9D58H         LINE#         914
  -------         ENDPROC       RESPONDE_ESTADO_SENSORES_TRANSPORTE
BL51 BANKED LINKER/LOCATER V6.22.2.0                                                  08/19/2020  14:41:27  PAGE 107


  -------         PROC          RESPONDE_TIPO_TARJETA
  -------         DO            
  X:0003H         SYMBOL        Estado_expedidor
  -------         ENDDO         
  C:9E45H         LINE#         930
  C:9E45H         LINE#         931
  C:9E45H         LINE#         934
  C:9E4EH         LINE#         936
  C:9E56H         LINE#         937
  C:9E56H         LINE#         938
  C:9E5BH         LINE#         939
  C:9E5BH         LINE#         940
  C:9E64H         LINE#         941
  C:9E6AH         LINE#         942
  C:9E6AH         LINE#         943
  C:9E6DH         LINE#         944
  C:9E6FH         LINE#         946
  C:9E6FH         LINE#         947
  C:9E72H         LINE#         948
  C:9E72H         LINE#         949
  C:9E74H         LINE#         951
  C:9E74H         LINE#         952
  C:9E7BH         LINE#         953
  C:9E7BH         LINE#         954
  C:9E81H         LINE#         955
  C:9E81H         LINE#         956
  C:9E81H         LINE#         958
  C:9E81H         LINE#         960
  C:9E83H         LINE#         962
  C:9E83H         LINE#         963
  C:9E83H         LINE#         964
  C:9E83H         LINE#         965
  C:9E83H         LINE#         966
  C:9E83H         LINE#         967
  C:9E85H         LINE#         969
  C:9E85H         LINE#         970
  C:9E8CH         LINE#         971
  C:9E8CH         LINE#         972
  C:9E95H         LINE#         974
  C:9E9AH         LINE#         975
  C:9E9FH         LINE#         977
  C:9EA7H         LINE#         980
  C:9EA9H         LINE#         982
  C:9EA9H         LINE#         983
  C:9EABH         LINE#         984
  C:9EB0H         LINE#         985
  C:9EB0H         LINE#         986
  C:9EB0H         LINE#         988
  C:9EB5H         LINE#         989
  -------         ENDPROC       RESPONDE_TIPO_TARJETA
  -------         PROC          _RESPONDE_LECTURA_TARJETA_SECTOR1_BLOQUE1
  X:0003H         SYMBOL        Atributos_Expedidor
  -------         DO            
  D:0007H         SYMBOL        temp
  X:0006H         SYMBOL        Estado_expedidor
  X:0007H         SYMBOL        buffer_S1_B1
  X:0018H         SYMBOL        ID_CLIENTE
BL51 BANKED LINKER/LOCATER V6.22.2.0                                                  08/19/2020  14:41:27  PAGE 108


  D:0007H         SYMBOL        COD_PARK
  X:00BBH         SYMBOL        falla
  -------         ENDDO         
  C:5193H         LINE#         1001
  C:519EH         LINE#         1002
  C:519EH         LINE#         1009
  C:51A7H         LINE#         1013
  C:51B7H         LINE#         1014
  C:51B7H         LINE#         1016
  C:51C3H         LINE#         1017
  C:51C3H         LINE#         1018
  C:51DBH         LINE#         1020
  C:51DEH         LINE#         1023
  C:51E7H         LINE#         1024
  C:51F8H         LINE#         1025
  C:5205H         LINE#         1026
  C:520EH         LINE#         1029
  C:522DH         LINE#         1030
  C:522DH         LINE#         1032
  C:5236H         LINE#         1033
  C:523EH         LINE#         1034
  C:5247H         LINE#         1036
  C:5250H         LINE#         1037
  C:5258H         LINE#         1038
  C:5261H         LINE#         1040
  C:526AH         LINE#         1041
  C:5272H         LINE#         1042
  C:527BH         LINE#         1044
  C:5284H         LINE#         1045
  C:528CH         LINE#         1046
  C:5295H         LINE#         1048
  C:529EH         LINE#         1049
  C:52A6H         LINE#         1050
  C:52AFH         LINE#         1052
  C:52C6H         LINE#         1054
  C:52D0H         LINE#         1055
  C:52DAH         LINE#         1056
  C:52E4H         LINE#         1058
  C:52E9H         LINE#         1059
  C:52FCH         LINE#         1060
  C:5301H         LINE#         1061
  C:5307H         LINE#         1063
  C:5309H         LINE#         1065
  C:5309H         LINE#         1066
  C:530EH         LINE#         1067
  C:5317H         LINE#         1068
  C:531CH         LINE#         1069
  C:531EH         LINE#         1070
  C:531EH         LINE#         1071
  C:531EH         LINE#         1072
  C:5320H         LINE#         1074
  C:5320H         LINE#         1076
  C:5328H         LINE#         1077
  C:5328H         LINE#         1078
  C:532EH         LINE#         1079
  C:532EH         LINE#         1080
  C:533BH         LINE#         1082
BL51 BANKED LINKER/LOCATER V6.22.2.0                                                  08/19/2020  14:41:27  PAGE 109


  C:533BH         LINE#         1083
  C:5344H         LINE#         1084
  C:534AH         LINE#         1086
  C:534CH         LINE#         1088
  C:534CH         LINE#         1089
  C:5351H         LINE#         1090
  C:535AH         LINE#         1091
  C:535FH         LINE#         1092
  C:5364H         LINE#         1093
  C:536CH         LINE#         1094
  C:536CH         LINE#         1095
  C:536CH         LINE#         1097
  C:5371H         LINE#         1098
  -------         ENDPROC       _RESPONDE_LECTURA_TARJETA_SECTOR1_BLOQUE1
  -------         PROC          _RESPONDE_LECTURA_TARJETA_SECTOR1_BLOQUE2
  X:0003H         SYMBOL        Atributos_Expedidor
  -------         DO            
  D:0007H         SYMBOL        temp
  X:0006H         SYMBOL        Estado_expedidor
  X:0007H         SYMBOL        buffer_S1_B2
  -------         ENDDO         
  C:643EH         LINE#         1103
  C:6449H         LINE#         1104
  C:6449H         LINE#         1110
  C:6452H         LINE#         1114
  C:6462H         LINE#         1115
  C:6462H         LINE#         1117
  C:646EH         LINE#         1118
  C:646EH         LINE#         1119
  C:6486H         LINE#         1120
  C:6489H         LINE#         1121
  C:6492H         LINE#         1122
  C:64A3H         LINE#         1126
  C:64ACH         LINE#         1127
  C:64B9H         LINE#         1128
  C:64D5H         LINE#         1129
  C:64DEH         LINE#         1131
  C:64E7H         LINE#         1133
  C:6503H         LINE#         1134
  C:650DH         LINE#         1135
  C:6516H         LINE#         1138
  C:651FH         LINE#         1139
  C:6527H         LINE#         1140
  C:6530H         LINE#         1144
  C:6547H         LINE#         1147
  C:6553H         LINE#         1148
  C:6559H         LINE#         1151
  C:655BH         LINE#         1153
  C:655BH         LINE#         1154
  C:6563H         LINE#         1155
  C:6563H         LINE#         1156
  C:6568H         LINE#         1157
  -------         ENDPROC       _RESPONDE_LECTURA_TARJETA_SECTOR1_BLOQUE2
  -------         PROC          _RESPONDE_LECTURA_TARJETA_SECTOR1_BLOQUE0
  X:0003H         SYMBOL        Nombre_Mensual
  -------         DO            
  D:0007H         SYMBOL        temp
BL51 BANKED LINKER/LOCATER V6.22.2.0                                                  08/19/2020  14:41:27  PAGE 110


  X:0006H         SYMBOL        Estado_expedidor
  -------         ENDDO         
  C:8EABH         LINE#         1159
  C:8EB6H         LINE#         1160
  C:8EB6H         LINE#         1166
  C:8EBFH         LINE#         1170
  C:8ECCH         LINE#         1171
  C:8ECCH         LINE#         1173
  C:8ED8H         LINE#         1174
  C:8ED8H         LINE#         1175
  C:8EF8H         LINE#         1176
  C:8EFBH         LINE#         1177
  C:8F0FH         LINE#         1178
  C:8F18H         LINE#         1179
  C:8F26H         LINE#         1180
  C:8F2FH         LINE#         1181
  C:8F35H         LINE#         1184
  C:8F37H         LINE#         1186
  C:8F37H         LINE#         1187
  C:8F3FH         LINE#         1188
  C:8F3FH         LINE#         1189
  C:8F44H         LINE#         1190
  -------         ENDPROC       _RESPONDE_LECTURA_TARJETA_SECTOR1_BLOQUE0
  -------         PROC          _RESPONDE_WRITE_TARJETA_SECTOR1_BLOQUE2
  X:0003H         SYMBOL        Atributos_Expedidor
  X:0006H         SYMBOL        Buffer_Write_MF
  -------         DO            
  X:0009H         SYMBOL        Estado_expedidor
  -------         ENDDO         
  C:95A0H         LINE#         1191
  C:95ABH         LINE#         1192
  C:95ABH         LINE#         1194
  C:95B4H         LINE#         1195
  C:95BDH         LINE#         1196
  C:95D3H         LINE#         1197
  C:95E3H         LINE#         1198
  C:95E3H         LINE#         1199
  C:95E6H         LINE#         1200
  C:95F8H         LINE#         1201
  C:9606H         LINE#         1202
  C:960CH         LINE#         1203
  C:960EH         LINE#         1205
  C:960EH         LINE#         1206
  C:9611H         LINE#         1207
  C:9623H         LINE#         1208
  C:9629H         LINE#         1210
  C:9629H         LINE#         1211
  C:962EH         LINE#         1212
  -------         ENDPROC       _RESPONDE_WRITE_TARJETA_SECTOR1_BLOQUE2
  -------         PROC          _RESPONDE_WRITE_TARJETA_SECTOR1_BLOQUE0
  X:0003H         SYMBOL        Buffer_Write_MF
  C:AB5DH         LINE#         1215
  C:AB68H         LINE#         1216
  C:AB68H         LINE#         1218
  C:AB71H         LINE#         1219
  C:AB7AH         LINE#         1220
  C:AB90H         LINE#         1222
BL51 BANKED LINKER/LOCATER V6.22.2.0                                                  08/19/2020  14:41:27  PAGE 111


  C:AB92H         LINE#         1223
  -------         ENDPROC       _RESPONDE_WRITE_TARJETA_SECTOR1_BLOQUE0
  -------         PROC          _PREGUNTA_LPR
  X:0003H         SYMBOL        Atributos_Expedidor
  -------         DO            
  X:0006H         SYMBOL        Estado_expedidor
  -------         ENDDO         
  C:A12FH         LINE#         1226
  C:A13AH         LINE#         1227
  C:A13AH         LINE#         1229
  C:A148H         LINE#         1230
  C:A148H         LINE#         1232
  C:A159H         LINE#         1233
  C:A165H         LINE#         1234
  C:A165H         LINE#         1235
  C:A169H         LINE#         1236
  C:A169H         LINE#         1237
  C:A169H         LINE#         1239
  C:A178H         LINE#         1240
  C:A178H         LINE#         1242
  C:A17BH         LINE#         1243
  C:A180H         LINE#         1244
  C:A185H         LINE#         1245
  C:A187H         LINE#         1247
  C:A187H         LINE#         1248
  C:A18AH         LINE#         1249
  C:A18AH         LINE#         1250
  C:A18FH         LINE#         1251
  -------         ENDPROC       _PREGUNTA_LPR
  -------         PROC          _RESPONDE_WRITE_TARJETA_SECTOR2_BLOQUE0
  X:0003H         SYMBOL        Buffer_Write_MF
  C:A662H         LINE#         1254
  C:A66DH         LINE#         1255
  C:A66DH         LINE#         1257
  C:A676H         LINE#         1258
  C:A67FH         LINE#         1259
  C:A688H         LINE#         1260
  C:A691H         LINE#         1261
  C:A6A6H         LINE#         1262
  C:A6A8H         LINE#         1263
  -------         ENDPROC       _RESPONDE_WRITE_TARJETA_SECTOR2_BLOQUE0
  -------         PROC          _RESPUESTA_SEGUNDA_CLAVE
  X:0003H         SYMBOL        Atributos_Expedidor
  X:0006H         SYMBOL        Buffer_Write_MF
  C:A1EEH         LINE#         1264
  C:A1F9H         LINE#         1265
  C:A1F9H         LINE#         1266
  C:A202H         LINE#         1267
  C:A218H         LINE#         1268
  C:A228H         LINE#         1269
  C:A23AH         LINE#         1270
  C:A248H         LINE#         1271
  C:A24AH         LINE#         1272
  -------         ENDPROC       _RESPUESTA_SEGUNDA_CLAVE
  -------         PROC          _ARMAR_TRAMA_TARJETA_SECTOR1_BLOQUE2
  X:0011H         SYMBOL        Atributos_Expedidor
  X:0014H         SYMBOL        Buffer_Write_MF
BL51 BANKED LINKER/LOCATER V6.22.2.0                                                  08/19/2020  14:41:27  PAGE 112


  C:5F49H         LINE#         1284
  C:5F54H         LINE#         1285
  C:5F54H         LINE#         1289
  C:5F60H         LINE#         1293
  C:5F72H         LINE#         1294
  C:5F79H         LINE#         1295
  C:5F80H         LINE#         1297
  C:5F95H         LINE#         1298
  C:5F95H         LINE#         1299
  C:5FACH         LINE#         1300
  C:5FC5H         LINE#         1301
  C:5FC5H         LINE#         1302
  C:5FC8H         LINE#         1306
  C:5FC8H         LINE#         1308
  C:5FF7H         LINE#         1309
  C:6026H         LINE#         1311
  C:603EH         LINE#         1312
  C:603EH         LINE#         1313
  C:604BH         LINE#         1314
  C:604DH         LINE#         1316
  C:604DH         LINE#         1317
  C:605DH         LINE#         1318
  C:605DH         LINE#         1319
  C:605DH         LINE#         1321
  C:606FH         LINE#         1322
  C:6076H         LINE#         1323
  C:607DH         LINE#         1324
  C:6084H         LINE#         1325
  -------         ENDPROC       _ARMAR_TRAMA_TARJETA_SECTOR1_BLOQUE2
  -------         PROC          _ARMAR_TRAMA_TARJETA_SECTOR1_BLOQUE0
  X:000AH         SYMBOL        Buffer_Write_MF
  C:AD65H         LINE#         1327
  C:AD70H         LINE#         1328
  C:AD70H         LINE#         1330
  -------         ENDPROC       _ARMAR_TRAMA_TARJETA_SECTOR1_BLOQUE0
  -------         PROC          ARMAR_TRAMA_PTO_PARALELO_EXPEDIDOR
  -------         DO            
  X:00BCH         SYMBOL        buffer
  X:0006H         SYMBOL        ticket
  X:0011H         SYMBOL        j
  -------         ENDDO         
  C:56CAH         LINE#         1332
  C:56CAH         LINE#         1333
  C:56CAH         LINE#         1340
  C:56D0H         LINE#         1341
  C:56D4H         LINE#         1342
  C:56D7H         LINE#         1343
  C:56E3H         LINE#         1344
  C:56FAH         LINE#         1345
  C:5708H         LINE#         1347
  C:5719H         LINE#         1349
  C:5729H         LINE#         1350
  C:573BH         LINE#         1351
  C:5749H         LINE#         1352
  C:5757H         LINE#         1353
  C:5765H         LINE#         1354
  C:5773H         LINE#         1355
BL51 BANKED LINKER/LOCATER V6.22.2.0                                                  08/19/2020  14:41:27  PAGE 113


  C:5780H         LINE#         1357
  C:578FH         LINE#         1358
  C:578FH         LINE#         1359
  C:5792H         LINE#         1360
  C:5792H         LINE#         1361
  C:57A6H         LINE#         1362
  C:57B5H         LINE#         1363
  C:57C4H         LINE#         1364
  C:57D3H         LINE#         1365
  C:57E2H         LINE#         1366
  C:57F1H         LINE#         1367
  C:57F9H         LINE#         1368
  C:57FBH         LINE#         1370
  C:57FBH         LINE#         1371
  C:580CH         LINE#         1372
  C:5814H         LINE#         1373
  C:5814H         LINE#         1374
  C:5816H         LINE#         1376
  C:5816H         LINE#         1377
  C:5827H         LINE#         1378
  C:5833H         LINE#         1379
  C:5833H         LINE#         1380
  C:5841H         LINE#         1381
  C:584FH         LINE#         1382
  C:585BH         LINE#         1383
  C:5861H         LINE#         1384
  -------         ENDPROC       ARMAR_TRAMA_PTO_PARALELO_EXPEDIDOR
  -------         PROC          _ARMAR_TRAMA_PTO_PARALELO_EXPEDIDOR_MENSUAL
  X:0006H         SYMBOL        Atributos_Expedidor
  -------         DO            
  X:00D8H         SYMBOL        buffer
  -------         ENDDO         
  C:837CH         LINE#         1385
  C:8387H         LINE#         1386
  C:8387H         LINE#         1392
  C:838DH         LINE#         1393
  C:8391H         LINE#         1394
  C:83A6H         LINE#         1395
  C:83B0H         LINE#         1396
  C:83BAH         LINE#         1397
  C:83C4H         LINE#         1400
  C:83CDH         LINE#         1401
  C:83D4H         LINE#         1402
  C:83D9H         LINE#         1403
  C:83DEH         LINE#         1404
  C:83E3H         LINE#         1405
  C:83E8H         LINE#         1408
  C:83F4H         LINE#         1409
  C:83F4H         LINE#         1411
  C:83FBH         LINE#         1412
  C:83FFH         LINE#         1413
  C:8403H         LINE#         1414
  C:8407H         LINE#         1415
  C:840BH         LINE#         1416
  C:840FH         LINE#         1418
  C:840FH         LINE#         1420
  C:8425H         LINE#         1421
BL51 BANKED LINKER/LOCATER V6.22.2.0                                                  08/19/2020  14:41:27  PAGE 114


  C:8425H         LINE#         1422
  C:8428H         LINE#         1423
  C:842AH         LINE#         1425
  C:842AH         LINE#         1426
  C:842DH         LINE#         1427
  C:842DH         LINE#         1429
  C:8433H         LINE#         1430
  C:8436H         LINE#         1431
  C:843CH         LINE#         1432
  -------         ENDPROC       _ARMAR_TRAMA_PTO_PARALELO_EXPEDIDOR_MENSUAL
  -------         PROC          _ARMAR_TRAMA_MONITOR
  X:0007H         SYMBOL        Atributos_Expedidor
  -------         DO            
  X:00F4H         SYMBOL        buffer
  X:000AH         SYMBOL        ticket
  X:0015H         SYMBOL        j
  -------         ENDDO         
  C:5CB0H         LINE#         1433
  C:5CBBH         LINE#         1434
  C:5CBBH         LINE#         1440
  C:5CC0H         LINE#         1441
  C:5CC6H         LINE#         1442
  C:5CCEH         LINE#         1443
  C:5CD2H         LINE#         1444
  C:5CDBH         LINE#         1445
  C:5CDBH         LINE#         1446
  C:5CDEH         LINE#         1447
  C:5CE0H         LINE#         1449
  C:5CE0H         LINE#         1450
  C:5CE3H         LINE#         1451
  C:5CE3H         LINE#         1454
  C:5CE6H         LINE#         1455
  C:5CE6H         LINE#         1456
  C:5CEBH         LINE#         1457
  C:5CF7H         LINE#         1458
  C:5D0EH         LINE#         1459
  C:5D11H         LINE#         1461
  C:5D11H         LINE#         1462
  C:5D2CH         LINE#         1463
  C:5D3AH         LINE#         1464
  C:5D48H         LINE#         1465
  C:5D54H         LINE#         1466
  C:5D62H         LINE#         1467
  C:5D9BH         LINE#         1469
  C:5D9BH         LINE#         1470
  C:5DA9H         LINE#         1471
  C:5DB7H         LINE#         1474
  C:5DC4H         LINE#         1475
  C:5DD2H         LINE#         1477
  C:5DE0H         LINE#         1478
  C:5DEDH         LINE#         1479
  C:5DF9H         LINE#         1480
  C:5DFEH         LINE#         1481
  C:5E03H         LINE#         1482
  -------         ENDPROC       _ARMAR_TRAMA_MONITOR
  -------         PROC          _ARMAR_TRAMA_PLACA
  X:0009H         SYMBOL        Buffer_Write_MF
BL51 BANKED LINKER/LOCATER V6.22.2.0                                                  08/19/2020  14:41:27  PAGE 115


  -------         DO            
  D:0007H         SYMBOL        j
  -------         ENDDO         
  C:A356H         LINE#         1483
  C:A361H         LINE#         1484
  C:A361H         LINE#         1487
  C:A36DH         LINE#         1488
  C:A36DH         LINE#         1489
  C:A387H         LINE#         1490
  C:A38AH         LINE#         1491
  C:A396H         LINE#         1492
  C:A396H         LINE#         1493
  C:A3AAH         LINE#         1494
  C:A3ADH         LINE#         1495
  -------         ENDPROC       _ARMAR_TRAMA_PLACA
  C:A9FDH         SYMBOL        L?0361
  C:AA06H         SYMBOL        L?0362
  -------         PROC          L?0360
  -------         ENDPROC       L?0360
  C:A9FDH         SYMBOL        L?0361
  C:AA06H         SYMBOL        L?0362
  -------         PROC          _LOAD_SECUENCIA_EXPEDIDOR
  D:0001H         SYMBOL        Secuencia_Expedidor
  D:0004H         SYMBOL        estadoactivo
  X:000DH         SYMBOL        estadoactual
  X:000FH         SYMBOL        estadofuturo
  C:AA19H         LINE#         1496
  C:AA19H         LINE#         1497
  C:AA19H         LINE#         1498
  C:AA20H         LINE#         1499
  C:AA28H         LINE#         1500
  C:AA33H         LINE#         1501
  C:AA39H         LINE#         1502
  -------         ENDPROC       _LOAD_SECUENCIA_EXPEDIDOR
  -------         PROC          _DISPARO_LOCK_ENTRADA_VEHICULO
  X:0003H         SYMBOL        Nombre_Mensual
  -------         DO            
  X:0006H         SYMBOL        Estado_expedidor
  -------         ENDDO         
  C:A067H         LINE#         1503
  C:A072H         LINE#         1504
  C:A072H         LINE#         1506
  C:A07BH         LINE#         1508
  C:A080H         LINE#         1510
  C:A087H         LINE#         1511
  C:A087H         LINE#         1512
  C:A090H         LINE#         1513
  C:A092H         LINE#         1514
  C:A097H         LINE#         1515
  C:A0A7H         LINE#         1516
  C:A0ADH         LINE#         1519
  C:A0AFH         LINE#         1520
  C:A0B6H         LINE#         1521
  C:A0B6H         LINE#         1522
  C:A0BFH         LINE#         1523
  C:A0BFH         LINE#         1524
  C:A0C2H         LINE#         1525
BL51 BANKED LINKER/LOCATER V6.22.2.0                                                  08/19/2020  14:41:27  PAGE 116


  C:A0C4H         LINE#         1527
  C:A0C4H         LINE#         1528
  C:A0C7H         LINE#         1529
  C:A0C7H         LINE#         1531
  C:A0C7H         LINE#         1532
  C:A0CCH         LINE#         1533
  -------         ENDPROC       _DISPARO_LOCK_ENTRADA_VEHICULO
  -------         PROC          _SEND_PTO_PARALELO
  D:0001H         SYMBOL        Atributos_Expedidor
  -------         DO            
  X:0003H         SYMBOL        Trama_Expedidor
  -------         ENDDO         
  C:9853H         LINE#         1534
  C:9853H         LINE#         1535
  C:9853H         LINE#         1537
  C:9856H         LINE#         1538
  C:9856H         LINE#         1539
  C:9864H         LINE#         1540
  C:9866H         LINE#         1542
  C:9866H         LINE#         1543
  C:9874H         LINE#         1544
  C:9877H         LINE#         1545
  C:9877H         LINE#         1546
  C:9895H         LINE#         1547
  C:989EH         LINE#         1548
  C:98C1H         LINE#         1549
  C:98CAH         LINE#         1552
  C:98CDH         LINE#         1553
  C:98D3H         LINE#         1554
  C:98D8H         LINE#         1555
  C:98DAH         LINE#         1556
  -------         ENDPROC       _SEND_PTO_PARALELO
  -------         PROC          ENTREGA_CARD_CAPTURA
  -------         DO            
  X:0003H         SYMBOL        Estado_expedidor
  -------         ENDDO         
  C:9D59H         LINE#         1560
  C:9D59H         LINE#         1561
  C:9D59H         LINE#         1565
  C:9D62H         LINE#         1566
  C:9D65H         LINE#         1567
  C:9D68H         LINE#         1568
  C:9D68H         LINE#         1569
  C:9D72H         LINE#         1570
  C:9D72H         LINE#         1571
  C:9D74H         LINE#         1572
  C:9D7DH         LINE#         1573
  C:9D7DH         LINE#         1574
  C:9D7DH         LINE#         1576
  C:9D7FH         LINE#         1578
  C:9D7FH         LINE#         1579
  C:9D85H         LINE#         1580
  C:9D85H         LINE#         1582
  C:9D8BH         LINE#         1584
  C:9D9EH         LINE#         1585
  C:9D9EH         LINE#         1586
  C:9DAEH         LINE#         1587
BL51 BANKED LINKER/LOCATER V6.22.2.0                                                  08/19/2020  14:41:27  PAGE 117


  C:9DAEH         LINE#         1588
  C:9DB0H         LINE#         1589
  C:9DB0H         LINE#         1590
  C:9DB2H         LINE#         1591
  C:9DBDH         LINE#         1592
  C:9DBDH         LINE#         1593
  C:9DC3H         LINE#         1594
  C:9DC3H         LINE#         1595
  C:9DC3H         LINE#         1597
  C:9DC5H         LINE#         1599
  C:9DC5H         LINE#         1600
  C:9DC7H         LINE#         1601
  C:9DCCH         LINE#         1602
  C:9DCCH         LINE#         1603
  C:9DCCH         LINE#         1605
  C:9DD1H         LINE#         1606
  -------         ENDPROC       ENTREGA_CARD_CAPTURA
  -------         PROC          _WAIT_PLACA
  X:0003H         SYMBOL        secuencia_expedidor
  X:0006H         SYMBOL        estadoactivo
  -------         DO            
  X:0007H         SYMBOL        Estado_expedidor
  -------         ENDDO         
  C:8D6BH         LINE#         1607
  C:8D79H         LINE#         1608
  C:8D79H         LINE#         1612
  C:8D8FH         LINE#         1613
  C:8D8FH         LINE#         1614
  C:8D92H         LINE#         1615
  C:8D92H         LINE#         1617
  C:8D95H         LINE#         1618
  C:8D95H         LINE#         1619
  C:8D97H         LINE#         1621
  C:8D9AH         LINE#         1622
  C:8D9AH         LINE#         1623
  C:8D9DH         LINE#         1624
  C:8DB1H         LINE#         1625
  C:8DC4H         LINE#         1626
  C:8DC6H         LINE#         1628
  C:8DC6H         LINE#         1629
  C:8DCCH         LINE#         1630
  C:8DDFH         LINE#         1631
  C:8DDFH         LINE#         1632
  C:8DEFH         LINE#         1633
  C:8DEFH         LINE#         1634
  C:8DF5H         LINE#         1635
  C:8DF7H         LINE#         1636
  C:8E02H         LINE#         1637
  C:8E02H         LINE#         1638
  C:8E08H         LINE#         1639
  C:8E08H         LINE#         1640
  C:8E08H         LINE#         1641
  C:8E08H         LINE#         1642
  C:8E0DH         LINE#         1643
  -------         ENDPROC       _WAIT_PLACA
  -------         PROC          _VALIDA_VEHICULO_CARD_MENSUAL
  X:0011H         SYMBOL        Atributos_Expedidor
BL51 BANKED LINKER/LOCATER V6.22.2.0                                                  08/19/2020  14:41:27  PAGE 118


  -------         DO            
  X:0014H         SYMBOL        Estado_expedidor
  -------         ENDDO         
  C:9111H         LINE#         1644
  C:911CH         LINE#         1645
  C:911CH         LINE#         1648
  C:9125H         LINE#         1649
  C:913AH         LINE#         1650
  C:913AH         LINE#         1651
  C:913EH         LINE#         1652
  C:9140H         LINE#         1654
  C:9140H         LINE#         1655
  C:9147H         LINE#         1656
  C:9147H         LINE#         1658
  C:9150H         LINE#         1659
  C:915EH         LINE#         1660
  C:915EH         LINE#         1661
  C:9177H         LINE#         1662
  C:9177H         LINE#         1663
  C:917DH         LINE#         1664
  C:917DH         LINE#         1665
  C:917FH         LINE#         1668
  C:917FH         LINE#         1669
  C:9184H         LINE#         1670
  C:918DH         LINE#         1671
  C:9192H         LINE#         1672
  C:9192H         LINE#         1673
  C:9194H         LINE#         1675
  C:9194H         LINE#         1676
  C:919DH         LINE#         1677
  C:91A3H         LINE#         1678
  C:91A3H         LINE#         1679
  C:91A8H         LINE#         1680
  -------         ENDPROC       _VALIDA_VEHICULO_CARD_MENSUAL
  -------         PROC          _TARJETA_MENSUAL
  X:000AH         SYMBOL        Atributos_Expedidor
  X:000DH         SYMBOL        Buffer_Write_MF
  -------         DO            
  X:0010H         SYMBOL        Estado_expedidor
  -------         ENDDO         
  C:8133H         LINE#         1681
  C:813EH         LINE#         1682
  C:813EH         LINE#         1687
  C:8149H         LINE#         1688
  C:8149H         LINE#         1689
  C:8167H         LINE#         1690
  C:8167H         LINE#         1692
  C:8178H         LINE#         1693
  C:8178H         LINE#         1694
  C:8180H         LINE#         1695
  C:8182H         LINE#         1697
  C:8182H         LINE#         1698
  C:818BH         LINE#         1699
  C:819BH         LINE#         1700
  C:81AEH         LINE#         1701
  C:81CEH         LINE#         1702
  C:81D4H         LINE#         1703
BL51 BANKED LINKER/LOCATER V6.22.2.0                                                  08/19/2020  14:41:27  PAGE 119


  C:81D4H         LINE#         1704
  C:81D6H         LINE#         1706
  C:81D6H         LINE#         1707
  C:81DBH         LINE#         1709
  C:81E0H         LINE#         1710
  C:81E9H         LINE#         1711
  C:81E9H         LINE#         1712
  C:81E9H         LINE#         1713
  C:81EBH         LINE#         1715
  C:81EBH         LINE#         1717
  C:81F1H         LINE#         1718
  C:81F1H         LINE#         1719
  C:81F6H         LINE#         1720
  -------         ENDPROC       _TARJETA_MENSUAL
  -------         PROC          _TARJETA_ROTACION
  D:0001H         SYMBOL        Atributos_Expedidor
  X:000DH         SYMBOL        Buffer_Write_MF
  C:AC60H         LINE#         1721
  C:AC60H         LINE#         1722
  C:AC60H         LINE#         1723
  C:AC65H         LINE#         1724
  C:AC6EH         LINE#         1725
  C:AC8EH         LINE#         1726
  C:AC90H         LINE#         1729
  -------         ENDPROC       _TARJETA_ROTACION
  -------         PROC          _VALIDA_TIPO_TARJETA
  X:0003H         SYMBOL        Atributos_Expedidor
  X:0006H         SYMBOL        Buffer_Write_MF
  -------         DO            
  X:0009H         SYMBOL        Estado_expedidor
  -------         ENDDO         
  C:5525H         LINE#         1730
  C:5530H         LINE#         1731
  C:5530H         LINE#         1733
  C:553DH         LINE#         1734
  C:553DH         LINE#         1735
  C:5546H         LINE#         1736
  C:554CH         LINE#         1737
  C:554CH         LINE#         1742
  C:555AH         LINE#         1743
  C:555AH         LINE#         1746
  C:5577H         LINE#         1747
  C:5577H         LINE#         1748
  C:5594H         LINE#         1750
  C:5596H         LINE#         1752
  C:5596H         LINE#         1753
  C:559FH         LINE#         1754
  C:55A4H         LINE#         1755
  C:55A6H         LINE#         1756
  C:55A6H         LINE#         1757
  C:55A6H         LINE#         1758
  C:55A8H         LINE#         1761
  C:55A8H         LINE#         1762
  C:55B1H         LINE#         1764
  C:55D4H         LINE#         1765
  C:55D4H         LINE#         1766
  C:55D7H         LINE#         1768
BL51 BANKED LINKER/LOCATER V6.22.2.0                                                  08/19/2020  14:41:27  PAGE 120


  C:55D7H         LINE#         1769
  C:55DCH         LINE#         1770
  C:55E1H         LINE#         1771
  C:55E4H         LINE#         1772
  C:55E4H         LINE#         1773
  C:55E7H         LINE#         1774
  C:55FFH         LINE#         1775
  C:55FFH         LINE#         1777
  C:5608H         LINE#         1778
  C:560EH         LINE#         1779
  C:560EH         LINE#         1780
  C:561AH         LINE#         1781
  C:561AH         LINE#         1782
  C:5637H         LINE#         1784
  C:5637H         LINE#         1785
  C:5657H         LINE#         1786
  C:5659H         LINE#         1788
  C:5659H         LINE#         1789
  C:5662H         LINE#         1790
  C:5667H         LINE#         1791
  C:566CH         LINE#         1792
  C:566FH         LINE#         1793
  C:566FH         LINE#         1794
  C:5671H         LINE#         1796
  C:5671H         LINE#         1797
  C:567AH         LINE#         1798
  C:569DH         LINE#         1799
  C:569DH         LINE#         1800
  C:569FH         LINE#         1802
  C:569FH         LINE#         1803
  C:56A4H         LINE#         1804
  C:56A9H         LINE#         1805
  C:56ACH         LINE#         1806
  C:56ACH         LINE#         1807
  C:56AEH         LINE#         1809
  C:56AEH         LINE#         1810
  C:56B7H         LINE#         1811
  C:56BCH         LINE#         1813
  C:56C4H         LINE#         1814
  C:56C4H         LINE#         1816
  C:56C9H         LINE#         1817
  -------         ENDPROC       _VALIDA_TIPO_TARJETA
  -------         PROC          _HORARIOS
  X:0011H         SYMBOL        Atributos_Expedidor
  -------         DO            
  X:0014H         SYMBOL        Estado_Horario
  X:0015H         SYMBOL        Addr_horarios
  X:0020H         SYMBOL        dia_semana
  X:0021H         SYMBOL        EE_dia_semana
  X:0022H         SYMBOL        addr
  -------         ENDDO         
  C:6C1EH         LINE#         1911
  C:6C29H         LINE#         1912
  C:6C29H         LINE#         1918
  C:6C34H         LINE#         1919
  C:6C34H         LINE#         1921
  C:6C40H         LINE#         1923
BL51 BANKED LINKER/LOCATER V6.22.2.0                                                  08/19/2020  14:41:27  PAGE 121


  C:6C66H         LINE#         1927
  C:6C79H         LINE#         1928
  C:6C79H         LINE#         1930
  C:6C83H         LINE#         1931
  C:6C8CH         LINE#         1932
  C:6C94H         LINE#         1933
  C:6C9DH         LINE#         1936
  C:6CC2H         LINE#         1937
  C:6CCBH         LINE#         1938
  C:6CD3H         LINE#         1939
  C:6CDCH         LINE#         1941
  C:6CE6H         LINE#         1942
  C:6CE6H         LINE#         1944
  C:6CF4H         LINE#         1945
  C:6CF6H         LINE#         1947
  C:6CF6H         LINE#         1949
  C:6CFFH         LINE#         1950
  C:6D04H         LINE#         1951
  C:6D04H         LINE#         1952
  C:6D06H         LINE#         1954
  C:6D06H         LINE#         1956
  C:6D0BH         LINE#         1957
  C:6D10H         LINE#         1958
  C:6D16H         LINE#         1960
  C:6D16H         LINE#         1962
  C:6D18H         LINE#         1964
  C:6D18H         LINE#         1965
  C:6D1EH         LINE#         1967
  C:6D27H         LINE#         1968
  C:6D27H         LINE#         1969
  C:6D2CH         LINE#         1970
  -------         ENDPROC       _HORARIOS
  -------         PROC          _HORA_MAXIMA
  X:0030H         SYMBOL        addr
  -------         DO            
  X:0032H         SYMBOL        Hora_High
  X:0033H         SYMBOL        Minuto_High
  X:0034H         SYMBOL        HoraIni
  X:0035H         SYMBOL        MinutoIni
  X:0036H         SYMBOL        Hora_Prog
  -------         ENDDO         
  C:8AC6H         LINE#         1971
  C:8ACEH         LINE#         1972
  C:8ACEH         LINE#         1977
  C:8AE3H         LINE#         1978
  C:8B03H         LINE#         1979
  C:8B20H         LINE#         1980
  C:8B40H         LINE#         1981
  C:8B48H         LINE#         1982
  C:8B50H         LINE#         1983
  C:8B59H         LINE#         1985
  C:8B71H         LINE#         1986
  -------         ENDPROC       _HORA_MAXIMA
  -------         PROC          _EN_HORARIO
  X:002BH         SYMBOL        HoraNow
  D:0004H         SYMBOL        Hora_Prog
  X:002DH         SYMBOL        addr
BL51 BANKED LINKER/LOCATER V6.22.2.0                                                  08/19/2020  14:41:27  PAGE 122


  -------         DO            
  X:002FH         SYMBOL        Estado_Horario
  -------         ENDDO         
  C:9EB6H         LINE#         1987
  C:9EC4H         LINE#         1988
  C:9EC4H         LINE#         1991
  C:9ED1H         LINE#         1992
  C:9ED1H         LINE#         1995
  C:9EDAH         LINE#         1996
  C:9EEFH         LINE#         1999
  C:9EFEH         LINE#         2000
  C:9EFEH         LINE#         2002
  C:9F05H         LINE#         2003
  C:9F0BH         LINE#         2004
  C:9F0DH         LINE#         2006
  C:9F0DH         LINE#         2009
  C:9F11H         LINE#         2010
  C:9F11H         LINE#         2011
  C:9F11H         LINE#         2013
  C:9F13H         LINE#         2015
  C:9F13H         LINE#         2018
  C:9F1CH         LINE#         2019
  C:9F21H         LINE#         2021
  C:9F21H         LINE#         2022
  C:9F26H         LINE#         2023
  -------         ENDPROC       _EN_HORARIO
  -------         PROC          _BLOQUE_HORARIO
  X:0024H         SYMBOL        addr
  -------         DO            
  X:0026H         SYMBOL        Estado_Horario
  X:0027H         SYMBOL        HoraNow
  X:0029H         SYMBOL        Hora_Prog
  -------         ENDDO         
  C:6E39H         LINE#         2025
  C:6E41H         LINE#         2026
  C:6E41H         LINE#         2032
  C:6E4AH         LINE#         2033
  C:6E52H         LINE#         2034
  C:6E5AH         LINE#         2035
  C:6E63H         LINE#         2036
  C:6E91H         LINE#         2041
  C:6E9AH         LINE#         2042
  C:6EAFH         LINE#         2043
  C:6EC7H         LINE#         2044
  C:6EC9H         LINE#         2045
  C:6EC9H         LINE#         2048
  C:6EE1H         LINE#         2049
  C:6EE1H         LINE#         2050
  C:6EEAH         LINE#         2051
  C:6F05H         LINE#         2052
  C:6F23H         LINE#         2053
  C:6F25H         LINE#         2055
  C:6F25H         LINE#         2056
  C:6F2AH         LINE#         2057
  C:6F2FH         LINE#         2058
  C:6F34H         LINE#         2059
  C:6F34H         LINE#         2060
BL51 BANKED LINKER/LOCATER V6.22.2.0                                                  08/19/2020  14:41:27  PAGE 123


  C:6F34H         LINE#         2062
  C:6F3BH         LINE#         2063
  -------         ENDPROC       _BLOQUE_HORARIO
  -------         PROC          SECUENCIA_INICIO_EXPEDIDOR
  -------         DO            
  X:0002H         SYMBOL        temp
  -------         ENDDO         
  C:61C9H         LINE#         2071
  C:61C9H         LINE#         2072
  C:61C9H         LINE#         2074
  C:61E9H         LINE#         2075
  C:61E9H         LINE#         2076
  C:61E9H         LINE#         2079
  C:61EEH         LINE#         2080
  C:61F4H         LINE#         2083
  C:61F6H         LINE#         2084
  C:61F6H         LINE#         2095
  C:61F6H         LINE#         2097
  C:6204H         LINE#         2098
  C:6204H         LINE#         2099
  C:6210H         LINE#         2100
  C:6210H         LINE#         2101
  C:6216H         LINE#         2102
  C:6219H         LINE#         2103
  C:6221H         LINE#         2104
  C:6221H         LINE#         2105
  C:6228H         LINE#         2106
  C:623CH         LINE#         2107
  C:623CH         LINE#         2108
  C:623EH         LINE#         2110
  C:623EH         LINE#         2111
  C:6245H         LINE#         2112
  C:624BH         LINE#         2113
  C:624BH         LINE#         2114
  C:624EH         LINE#         2116
  C:624EH         LINE#         2117
  C:6257H         LINE#         2118
  C:626BH         LINE#         2119
  C:6271H         LINE#         2120
  C:6271H         LINE#         2121
  C:6274H         LINE#         2122
  C:6274H         LINE#         2128
  C:6274H         LINE#         2130
  C:6277H         LINE#         2131
  C:627DH         LINE#         2135
  C:627FH         LINE#         2136
  C:627FH         LINE#         2146
  C:627FH         LINE#         2148
  C:628DH         LINE#         2149
  C:628DH         LINE#         2150
  C:6299H         LINE#         2151
  C:6299H         LINE#         2152
  C:629FH         LINE#         2153
  C:62A1H         LINE#         2154
  C:62A9H         LINE#         2155
  C:62A9H         LINE#         2156
  C:62B0H         LINE#         2157
BL51 BANKED LINKER/LOCATER V6.22.2.0                                                  08/19/2020  14:41:27  PAGE 124


  C:62C4H         LINE#         2158
  C:62C4H         LINE#         2159
  C:62C6H         LINE#         2161
  C:62C6H         LINE#         2162
  C:62CDH         LINE#         2163
  C:62D3H         LINE#         2164
  C:62D3H         LINE#         2165
  C:62D5H         LINE#         2167
  C:62D5H         LINE#         2168
  C:62DEH         LINE#         2169
  C:62F2H         LINE#         2170
  C:62F7H         LINE#         2171
  C:62F7H         LINE#         2173
  C:62F9H         LINE#         2174
  C:62F9H         LINE#         2180
  C:62F9H         LINE#         2182
  C:62FFH         LINE#         2183
  C:62FFH         LINE#         2186
  C:62FFH         LINE#         2187
  C:6306H         LINE#         2188
  C:6306H         LINE#         2189
  C:6306H         LINE#         2190
  -------         ENDPROC       SECUENCIA_INICIO_EXPEDIDOR
  -------         PROC          _SECUENCIAEXPEDIDORMF
  X:0002H         SYMBOL        EstadoActivo
  -------         DO            
  X:010CH         SYMBOL        Buffer_Write_MF
  X:011DH         SYMBOL        Atributos_Expedidor
  X:012CH         SYMBOL        Secuencia_Expedidor
  X:0130H         SYMBOL        Nombre_Mensual
  -------         ENDDO         
  C:3700H         LINE#         2200
  C:3705H         LINE#         2201
  C:3705H         LINE#         2207
  C:375CH         LINE#         2208
  C:375CH         LINE#         2211
  C:375CH         LINE#         2213
  C:3772H         LINE#         2214
  C:3772H         LINE#         2215
  C:3774H         LINE#         2216
  C:3776H         LINE#         2217
  C:377BH         LINE#         2218
  C:3783H         LINE#         2219
  C:3788H         LINE#         2221
  C:3788H         LINE#         2223
  C:378BH         LINE#         2225
  C:378BH         LINE#         2227
  C:3794H         LINE#         2229
  C:3797H         LINE#         2236
  C:3797H         LINE#         2237
  C:379DH         LINE#         2238
  C:37A3H         LINE#         2239
  C:37A3H         LINE#         2240
  C:37A6H         LINE#         2242
  C:37A9H         LINE#         2243
  C:37B1H         LINE#         2244
  C:37B1H         LINE#         2246
BL51 BANKED LINKER/LOCATER V6.22.2.0                                                  08/19/2020  14:41:27  PAGE 125


  C:37B4H         LINE#         2247
  C:37B7H         LINE#         2248
  C:37BFH         LINE#         2249
  C:37BFH         LINE#         2250
  C:37CDH         LINE#         2251
  C:37CDH         LINE#         2252
  C:37D6H         LINE#         2253
  C:37D9H         LINE#         2254
  C:37E5H         LINE#         2255
  C:37E5H         LINE#         2256
  C:37EEH         LINE#         2257
  C:37F1H         LINE#         2259
  C:37F1H         LINE#         2260
  C:37FAH         LINE#         2261
  C:37FAH         LINE#         2262
  C:37FDH         LINE#         2263
  C:3805H         LINE#         2264
  C:3805H         LINE#         2265
  C:3813H         LINE#         2266
  C:3813H         LINE#         2267
  C:3829H         LINE#         2268
  C:382CH         LINE#         2269
  C:3838H         LINE#         2270
  C:3838H         LINE#         2271
  C:3841H         LINE#         2272
  C:3844H         LINE#         2274
  C:3844H         LINE#         2275
  C:384DH         LINE#         2276
  C:384DH         LINE#         2277
  C:3850H         LINE#         2278
  C:3858H         LINE#         2279
  C:3858H         LINE#         2280
  C:3861H         LINE#         2281
  C:3864H         LINE#         2282
  C:386CH         LINE#         2283
  C:386CH         LINE#         2284
  C:3882H         LINE#         2285
  C:3885H         LINE#         2286
  C:388DH         LINE#         2287
  C:388DH         LINE#         2288
  C:3890H         LINE#         2289
  C:3893H         LINE#         2291
  C:389BH         LINE#         2292
  C:389BH         LINE#         2293
  C:38A4H         LINE#         2294
  C:38A7H         LINE#         2296
  C:38A7H         LINE#         2297
  C:38B0H         LINE#         2298
  C:38B0H         LINE#         2299
  C:38B3H         LINE#         2300
  C:38B3H         LINE#         2301
  C:38B8H         LINE#         2302
  C:38D8H         LINE#         2303
  C:38DBH         LINE#         2304
  C:38DBH         LINE#         2305
  C:38E0H         LINE#         2306
  C:38E8H         LINE#         2307
BL51 BANKED LINKER/LOCATER V6.22.2.0                                                  08/19/2020  14:41:27  PAGE 126


  C:38EEH         LINE#         2308
  C:38F1H         LINE#         2309
  C:38F1H         LINE#         2310
  C:38F4H         LINE#         2311
  C:38FCH         LINE#         2312
  C:3902H         LINE#         2313
  C:3905H         LINE#         2314
  C:3905H         LINE#         2315
  C:3908H         LINE#         2316
  C:392DH         LINE#         2317
  C:3933H         LINE#         2318
  C:3935H         LINE#         2319
  C:3938H         LINE#         2320
  C:3938H         LINE#         2321
  C:3943H         LINE#         2322
  C:394BH         LINE#         2323
  C:3951H         LINE#         2324
  C:3954H         LINE#         2325
  C:3954H         LINE#         2326
  C:3965H         LINE#         2327
  C:396DH         LINE#         2328
  C:3973H         LINE#         2329
  C:3976H         LINE#         2330
  C:3976H         LINE#         2331
  C:397BH         LINE#         2332
  C:3999H         LINE#         2333
  C:399CH         LINE#         2334
  C:399CH         LINE#         2335
  C:39A1H         LINE#         2336
  C:39C1H         LINE#         2337
  C:39C4H         LINE#         2338
  C:39C4H         LINE#         2339
  C:39C9H         LINE#         2340
  C:39CBH         LINE#         2341
  C:39E9H         LINE#         2343
  C:39ECH         LINE#         2344
  C:39ECH         LINE#         2345
  C:39F1H         LINE#         2346
  C:3A11H         LINE#         2348
  C:3A14H         LINE#         2349
  C:3A14H         LINE#         2350
  C:3A19H         LINE#         2351
  C:3A21H         LINE#         2352
  C:3A27H         LINE#         2353
  C:3A2AH         LINE#         2354
  C:3A2AH         LINE#         2355
  C:3A2DH         LINE#         2356
  C:3A4DH         LINE#         2357
  C:3A50H         LINE#         2358
  C:3A50H         LINE#         2359
  C:3A52H         LINE#         2360
  C:3A55H         LINE#         2361
  C:3A58H         LINE#         2362
  C:3A58H         LINE#         2363
  C:3A61H         LINE#         2365
  C:3A64H         LINE#         2366
  C:3A64H         LINE#         2367
BL51 BANKED LINKER/LOCATER V6.22.2.0                                                  08/19/2020  14:41:27  PAGE 127


  C:3A72H         LINE#         2368
  C:3A75H         LINE#         2369
  C:3A75H         LINE#         2370
  C:3A78H         LINE#         2371
  C:3A80H         LINE#         2372
  C:3A86H         LINE#         2373
  C:3A89H         LINE#         2374
  C:3A89H         LINE#         2375
  C:3A92H         LINE#         2376
  C:3A95H         LINE#         2377
  C:3A95H         LINE#         2378
  C:3AACH         LINE#         2379
  C:3AAEH         LINE#         2380
  C:3AAEH         LINE#         2381
  C:3AB3H         LINE#         2382
  C:3AD6H         LINE#         2383
  C:3AD9H         LINE#         2384
  C:3ADBH         LINE#         2385
  C:3ADBH         LINE#         2386
  C:3ADEH         LINE#         2387
  C:3AFEH         LINE#         2388
  C:3B00H         LINE#         2389
  C:3B00H         LINE#         2390
  C:3B03H         LINE#         2391
  C:3B28H         LINE#         2392
  C:3B2AH         LINE#         2393
  C:3B2AH         LINE#         2394
  C:3B2FH         LINE#         2395
  C:3B2FH         LINE#         2397
  C:3B2FH         LINE#         2398
  C:3B34H         LINE#         2399
  -------         ENDPROC       _SECUENCIAEXPEDIDORMF
  -------         ENDMOD        VERIFICADOR

  -------         MODULE        MONITOR
  C:0000H         SYMBOL        _ICE_DUMMY_
  D:0080H         PUBLIC        P0
  D:0090H         PUBLIC        P1
  I:0011H         PUBLIC        placa
  C:AE00H         PUBLIC        Rx_Monitor
  B:0080H.0       PUBLIC        rx_ip
  B:0090H.7       PUBLIC        lock
  C:843DH         PUBLIC        _recibe_cmd_Monitor
  C:AF22H         PUBLIC        clear_placa
  C:91A9H         PUBLIC        _Valida_Trama_Monitor
  -------         PROC          _RECIBE_CMD_MONITOR
  X:0015H         SYMBOL        buffer_cmd
  -------         DO            
  X:0018H         SYMBOL        j
  X:0019H         SYMBOL        NumDatos
  X:001AH         SYMBOL        time_out
  X:001BH         SYMBOL        MaxChrRx
  X:001CH         SYMBOL        contador
  -------         ENDDO         
  C:843DH         LINE#         44
  C:8448H         LINE#         45
  C:8448H         LINE#         49
BL51 BANKED LINKER/LOCATER V6.22.2.0                                                  08/19/2020  14:41:27  PAGE 128


  C:844DH         LINE#         50
  C:8453H         LINE#         52
  C:845EH         LINE#         53
  C:845EH         LINE#         54
  C:846FH         LINE#         55
  C:846FH         LINE#         56
  C:8476H         LINE#         57
  C:847AH         LINE#         58
  C:8483H         LINE#         59
  C:8483H         LINE#         60
  C:8491H         LINE#         61
  C:84A8H         LINE#         62
  C:84A8H         LINE#         63
  C:84AEH         LINE#         64
  C:84B4H         LINE#         65
  C:84B4H         LINE#         66
  C:84B6H         LINE#         67
  C:84BEH         LINE#         68
  C:84C4H         LINE#         69
  C:84D6H         LINE#         70
  C:84E0H         LINE#         71
  C:84E9H         LINE#         73
  C:84F8H         LINE#         76
  C:84F8H         LINE#         77
  C:84FDH         LINE#         78
  -------         ENDPROC       _RECIBE_CMD_MONITOR
  -------         PROC          _VALIDA_TRAMA_MONITOR
  X:0015H         SYMBOL        buffer
  D:0005H         SYMBOL        length_trama
  -------         DO            
  D:0007H         SYMBOL        j
  D:0006H         SYMBOL        p
  -------         ENDDO         
  C:91A9H         LINE#         83
  C:91B4H         LINE#         84
  C:91B4H         LINE#         85
  C:91B6H         LINE#         86
  C:91B8H         LINE#         87
  C:91B8H         LINE#         88
  C:91D6H         LINE#         89
  C:91D6H         LINE#         90
  C:91D8H         LINE#         91
  C:91DDH         LINE#         92
  C:91DEH         LINE#         93
  C:91F3H         LINE#         94
  C:91F3H         LINE#         97
  C:91F3H         LINE#         98
  C:920DH         LINE#         99
  C:920EH         LINE#         100
  C:920FH         LINE#         101
  C:921BH         LINE#         102
  C:922FH         LINE#         103
  C:9235H         LINE#         104
  C:9237H         LINE#         105
  C:923DH         LINE#         108
  C:923DH         LINE#         109
  C:923DH         LINE#         110
BL51 BANKED LINKER/LOCATER V6.22.2.0                                                  08/19/2020  14:41:27  PAGE 129


  C:923DH         LINE#         112
  C:923DH         LINE#         113
  -------         ENDPROC       _VALIDA_TRAMA_MONITOR
  -------         PROC          CLEAR_PLACA
  -------         DO            
  D:0007H         SYMBOL        i
  -------         ENDDO         
  C:AF22H         LINE#         114
  C:AF22H         LINE#         115
  C:AF22H         LINE#         117
  C:AF2EH         LINE#         118
  C:AF2EH         LINE#         119
  C:AF34H         LINE#         120
  C:AF37H         LINE#         121
  C:AF39H         LINE#         122
  -------         ENDPROC       CLEAR_PLACA
  -------         PROC          RX_MONITOR
  -------         DO            
  X:0008H         SYMBOL        Length_trama
  X:0009H         SYMBOL        buffer1
  -------         ENDDO         
  C:AE00H         LINE#         123
  C:AE00H         LINE#         124
  C:AE00H         LINE#         127
  C:AE0FH         LINE#         128
  C:AE18H         LINE#         129
  -------         ENDPROC       RX_MONITOR
  -------         ENDMOD        MONITOR

  -------         MODULE        ?C?FPADD
  C:1335H         PUBLIC        ?C?FPADD
  C:1331H         PUBLIC        ?C?FPSUB
  -------         ENDMOD        ?C?FPADD

  -------         MODULE        ?C?FPMUL
  C:1426H         PUBLIC        ?C?FPMUL
  -------         ENDMOD        ?C?FPMUL

  -------         MODULE        ?C?FCAST
  C:1536H         PUBLIC        ?C?FCASTC
  C:1531H         PUBLIC        ?C?FCASTI
  C:152CH         PUBLIC        ?C?FCASTL
  -------         ENDMOD        ?C?FCAST

  -------         MODULE        ?C?CASTF
  C:156AH         PUBLIC        ?C?CASTF
  -------         ENDMOD        ?C?CASTF

  -------         MODULE        PRINTF
  X:0078H         PUBLIC        ?_PRINTF?BYTE
  X:0078H         PUBLIC        ?_SPRINTF?BYTE
  C:32E8H         PUBLIC        _PRINTF
  C:32E2H         PUBLIC        _SPRINTF
  -------         ENDMOD        PRINTF

  -------         MODULE        POW
  X:0022H         PUBLIC        ?_pow?BYTE
BL51 BANKED LINKER/LOCATER V6.22.2.0                                                  08/19/2020  14:41:27  PAGE 130


  C:5B4AH         PUBLIC        _pow
  -------         ENDMOD        POW

  -------         MODULE        ?C?CHKFLOAT
  C:15EBH         PUBLIC        ?C?CHKFLOAT
  -------         ENDMOD        ?C?CHKFLOAT

  -------         MODULE        ?C?FPCMP
  C:1607H         PUBLIC        ?C?FPCMP
  C:1605H         PUBLIC        ?C?FPCMP3
  -------         ENDMOD        ?C?FPCMP

  -------         MODULE        ?C?FPNEG
  C:167EH         PUBLIC        ?C?FPNEG
  -------         ENDMOD        ?C?FPNEG

  -------         MODULE        ?C?FPROUND
  C:168FH         PUBLIC        ?C?FPROUND
  -------         ENDMOD        ?C?FPROUND

  -------         MODULE        ?C?FPCONVERT
  C:16CCH         PUBLIC        ?C?FPCONVERT
  -------         ENDMOD        ?C?FPCONVERT

  -------         MODULE        EXP
  C:8F7DH         PUBLIC        _EXP
  -------         ENDMOD        EXP

  -------         MODULE        LOG
  C:659DH         PUBLIC        _LOG
  C:6599H         PUBLIC        _LOG10
  -------         ENDMOD        LOG

  -------         MODULE        ?C?FPDIV
  C:17D4H         PUBLIC        ?C?FPDIV
  -------         ENDMOD        ?C?FPDIV

  -------         MODULE        ?C?FTNPWR
  C:18A1H         PUBLIC        ?C?FTNPWR
  -------         ENDMOD        ?C?FTNPWR

  -------         MODULE        ?C?COPY
  C:19FEH         PUBLIC        ?C?COPY
  -------         ENDMOD        ?C?COPY

  -------         MODULE        ?C?CLDPTR
  C:1A24H         PUBLIC        ?C?CLDPTR
  -------         ENDMOD        ?C?CLDPTR

  -------         MODULE        ?C?CLDOPTR
  C:1A3DH         PUBLIC        ?C?CLDOPTR
  -------         ENDMOD        ?C?CLDOPTR

  -------         MODULE        ?C?CSTPTR
  C:1A6AH         PUBLIC        ?C?CSTPTR
  -------         ENDMOD        ?C?CSTPTR

BL51 BANKED LINKER/LOCATER V6.22.2.0                                                  08/19/2020  14:41:27  PAGE 131


  -------         MODULE        ?C?CSTOPTR
  C:1A7CH         PUBLIC        ?C?CSTOPTR
  -------         ENDMOD        ?C?CSTOPTR

  -------         MODULE        ?C?IMUL
  C:1A9EH         PUBLIC        ?C?IMUL
  -------         ENDMOD        ?C?IMUL

  -------         MODULE        ?C?IILDX
  C:1AB0H         PUBLIC        ?C?IILDX
  -------         ENDMOD        ?C?IILDX

  -------         MODULE        ?C?LNEG
  C:1AC6H         PUBLIC        ?C?LNEG
  -------         ENDMOD        ?C?LNEG

  -------         MODULE        ?C?SLCMP
  C:1AD4H         PUBLIC        ?C?SLCMP
  -------         ENDMOD        ?C?SLCMP

  -------         MODULE        ?C?ULCMP
  C:1AEAH         PUBLIC        ?C?ULCMP
  -------         ENDMOD        ?C?ULCMP

  -------         MODULE        ?C?ULSHR
  C:1AFBH         PUBLIC        ?C?ULSHR
  -------         ENDMOD        ?C?ULSHR

  -------         MODULE        ?C?LSHL
  C:1B0EH         PUBLIC        ?C?LSHL
  -------         ENDMOD        ?C?LSHL

  -------         MODULE        ?C?LLDCODE
  C:1B21H         PUBLIC        ?C?LLDCODE
  -------         ENDMOD        ?C?LLDCODE

  -------         MODULE        ?C?LLDXDATA0
  C:1B31H         PUBLIC        ?C?LLDXDATA0
  -------         ENDMOD        ?C?LLDXDATA0

  -------         MODULE        ?C?LLDCODE0
  C:1B3DH         PUBLIC        ?C?LLDCODE0
  -------         ENDMOD        ?C?LLDCODE0

  -------         MODULE        ?C?LSTXDATA
  C:1B4DH         PUBLIC        ?C?LSTXDATA
  -------         ENDMOD        ?C?LSTXDATA

  -------         MODULE        ?C?LSTKXDATA
  C:1B59H         PUBLIC        ?C?LSTKXDATA
  -------         ENDMOD        ?C?LSTKXDATA

  -------         MODULE        ?C?PLDIXDATA
  C:1B8AH         PUBLIC        ?C?PLDIXDATA
  -------         ENDMOD        ?C?PLDIXDATA

  -------         MODULE        ?C?PSTXDATA
BL51 BANKED LINKER/LOCATER V6.22.2.0                                                  08/19/2020  14:41:27  PAGE 132


  C:1BA1H         PUBLIC        ?C?PSTXDATA
  -------         ENDMOD        ?C?PSTXDATA

  -------         MODULE        ?C?CCASE
  C:1BAAH         PUBLIC        ?C?CCASE
  -------         ENDMOD        ?C?CCASE

  -------         MODULE        STRCAT
  X:0047H         PUBLIC        ?_strcat?BYTE
  C:9F96H         PUBLIC        _strcat
  -------         ENDMOD        STRCAT

  -------         MODULE        ?C?STRCMP
  C:1D4EH         PUBLIC        ?C?STRCMP
  -------         ENDMOD        ?C?STRCMP

  -------         MODULE        ?C?STRCPY
  C:1E37H         PUBLIC        ?C?STRCPY
  -------         ENDMOD        ?C?STRCPY

  -------         MODULE        STRLEN
  C:000EH         PUBLIC        _STRLEN
  -------         ENDMOD        STRLEN

  -------         MODULE        STRTOK
  X:0065H         PUBLIC        ?_strtok?BYTE
  C:78FBH         PUBLIC        _strtok
  -------         ENDMOD        STRTOK

  -------         MODULE        ATOL
  C:6D2DH         PUBLIC        _atol
  -------         ENDMOD        ATOL

  -------         MODULE        ATOI
  C:7ABDH         PUBLIC        _atoi
  -------         ENDMOD        ATOI

  -------         MODULE        ?C?ILDIX
  C:1E54H         PUBLIC        ?C?ILDIX
  -------         ENDMOD        ?C?ILDIX

  -------         MODULE        ?C?LMUL
  C:1E6AH         PUBLIC        ?C?LMUL
  -------         ENDMOD        ?C?LMUL

  -------         MODULE        ISDIGIT
  C:B00AH         PUBLIC        _isdigit
  -------         ENDMOD        ISDIGIT

  -------         MODULE        ISSPACE
  C:AF7CH         PUBLIC        _isspace
  -------         ENDMOD        ISSPACE

  -------         MODULE        STRSPN
  X:006BH         PUBLIC        ?_strspn?BYTE
  C:98DBH         PUBLIC        _strspn
  -------         ENDMOD        STRSPN
BL51 BANKED LINKER/LOCATER V6.22.2.0                                                  08/19/2020  14:41:27  PAGE 133



  -------         MODULE        STRPBRK
  X:006BH         PUBLIC        ?_strpbrk?BYTE
  C:99E0H         PUBLIC        _strpbrk
  -------         ENDMOD        STRPBRK

Program Size: data=138.7 xdata=530 code=45205
LINK/LOCATE RUN COMPLETE.  0 WARNING(S),  0 ERROR(S)
