BL51 BANKED LINKER/LOCATER V6.22.2.0                                                    07/29/2020  18:03:03  PAGE 1


BL51 BANKED LINKER/LOCATER V6.22.2.0, INVOKED BY:
C:\KEIL_V5\C51\BIN\BL51.EXE .\Objects\main.obj, .\Objects\Accescan.obj, .\Objects\Clock.obj, .\Objects\delay.obj, .\Obje
>> cts\eeprom.obj, .\Objects\io_sensores.obj, .\Objects\pantallas.obj, .\Objects\prog.obj, .\Objects\pto_paralelo.obj, .
>> \Objects\tibbo.obj, .\Objects\uart.obj, .\Objects\lintech.obj, .\Objects\verificador.obj, .\Objects\Monitor.obj TO .\
>> Objects\expedidor_v_01_raspberry PRINT (.\Listings\expedidor_v_01_raspberry.m51) RAMSIZE (256)


MEMORY MODEL: LARGE WITH FLOATING POINT ARITHMETIC


INPUT MODULES INCLUDED:
  .\Objects\main.obj (MAIN)
  .\Objects\Accescan.obj (ACCESCAN)
  .\Objects\Clock.obj (CLOCK)
  .\Objects\delay.obj (DELAY)
  .\Objects\eeprom.obj (EEPROM)
  .\Objects\io_sensores.obj (IO_SENSORES)
  .\Objects\pantallas.obj (PANTALLAS)
  .\Objects\prog.obj (PROG)
  .\Objects\pto_paralelo.obj (PTO_PARALELO)
  .\Objects\tibbo.obj (TIBBO)
  .\Objects\uart.obj (UART)
  .\Objects\lintech.obj (LINTECH)
  .\Objects\verificador.obj (VERIFICADOR)
  .\Objects\Monitor.obj (MONITOR)
  C:\KEIL_V5\C51\LIB\C51FPL.LIB (?C?FPADD)
  C:\KEIL_V5\C51\LIB\C51FPL.LIB (?C?FPMUL)
  C:\KEIL_V5\C51\LIB\C51FPL.LIB (?C?FCAST)
  C:\KEIL_V5\C51\LIB\C51FPL.LIB (?C?CASTF)
  C:\KEIL_V5\C51\LIB\C51FPL.LIB (PRINTF)
  C:\KEIL_V5\C51\LIB\C51FPL.LIB (POW)
  C:\KEIL_V5\C51\LIB\C51FPL.LIB (?C?FPGETOPN)
  C:\KEIL_V5\C51\LIB\C51FPL.LIB (?C?CHKFLOAT)
  C:\KEIL_V5\C51\LIB\C51FPL.LIB (?C?FPCMP)
  C:\KEIL_V5\C51\LIB\C51FPL.LIB (?C?FPNEG)
  C:\KEIL_V5\C51\LIB\C51FPL.LIB (?C?FPROUND)
  C:\KEIL_V5\C51\LIB\C51FPL.LIB (?C?FPCONVERT)
  C:\KEIL_V5\C51\LIB\C51FPL.LIB (EXP)
  C:\KEIL_V5\C51\LIB\C51FPL.LIB (LOG)
  C:\KEIL_V5\C51\LIB\C51FPL.LIB (?C?FPDIV)
  C:\KEIL_V5\C51\LIB\C51FPL.LIB (?C?FTNPWR)
  C:\KEIL_V5\C51\LIB\C51FPL.LIB (?C?FPSERIES)
  C:\KEIL_V5\C51\LIB\C51L.LIB (?C_STARTUP)
  C:\KEIL_V5\C51\LIB\C51L.LIB (?C?COPY)
  C:\KEIL_V5\C51\LIB\C51L.LIB (?C?CLDPTR)
  C:\KEIL_V5\C51\LIB\C51L.LIB (?C?CLDOPTR)
  C:\KEIL_V5\C51\LIB\C51L.LIB (?C?CSTPTR)
  C:\KEIL_V5\C51\LIB\C51L.LIB (?C?CSTOPTR)
  C:\KEIL_V5\C51\LIB\C51L.LIB (?C?IMUL)
  C:\KEIL_V5\C51\LIB\C51L.LIB (?C?IILDX)
  C:\KEIL_V5\C51\LIB\C51L.LIB (?C?LNEG)
  C:\KEIL_V5\C51\LIB\C51L.LIB (?C?SLCMP)
  C:\KEIL_V5\C51\LIB\C51L.LIB (?C?ULCMP)
  C:\KEIL_V5\C51\LIB\C51L.LIB (?C?ULSHR)
  C:\KEIL_V5\C51\LIB\C51L.LIB (?C?LSHL)
  C:\KEIL_V5\C51\LIB\C51L.LIB (?C?LLDCODE)
  C:\KEIL_V5\C51\LIB\C51L.LIB (?C?LLDXDATA0)
  C:\KEIL_V5\C51\LIB\C51L.LIB (?C?LLDCODE0)
BL51 BANKED LINKER/LOCATER V6.22.2.0                                                  07/29/2020  18:03:03  PAGE 2


  C:\KEIL_V5\C51\LIB\C51L.LIB (?C?LSTXDATA)
  C:\KEIL_V5\C51\LIB\C51L.LIB (?C?LSTKXDATA)
  C:\KEIL_V5\C51\LIB\C51L.LIB (?C?PLDIXDATA)
  C:\KEIL_V5\C51\LIB\C51L.LIB (?C?PSTXDATA)
  C:\KEIL_V5\C51\LIB\C51L.LIB (?C?CCASE)
  C:\KEIL_V5\C51\LIB\C51L.LIB (STRCAT)
  C:\KEIL_V5\C51\LIB\C51L.LIB (?C?STRCMP)
  C:\KEIL_V5\C51\LIB\C51L.LIB (?C?STRCPY)
  C:\KEIL_V5\C51\LIB\C51L.LIB (STRLEN)
  C:\KEIL_V5\C51\LIB\C51L.LIB (STRTOK)
  C:\KEIL_V5\C51\LIB\C51L.LIB (ATOL)
  C:\KEIL_V5\C51\LIB\C51L.LIB (ATOI)
  C:\KEIL_V5\C51\LIB\C51L.LIB (?C_INIT)
  C:\KEIL_V5\C51\LIB\C51L.LIB (?C?ILDIX)
  C:\KEIL_V5\C51\LIB\C51L.LIB (?C?LMUL)
  C:\KEIL_V5\C51\LIB\C51L.LIB (ISDIGIT)
  C:\KEIL_V5\C51\LIB\C51L.LIB (ISSPACE)
  C:\KEIL_V5\C51\LIB\C51L.LIB (STRSPN)
  C:\KEIL_V5\C51\LIB\C51L.LIB (STRPBRK)


LINK MAP OF MODULE:  .\Objects\expedidor_v_01_raspberry (MAIN)


            TYPE    BASE      LENGTH    RELOCATION   SEGMENT NAME
            -----------------------------------------------------

            * * * * * * *   D A T A   M E M O R Y   * * * * * * *
            REG     0000H     0008H     ABSOLUTE     "REG BANK 0"
            DATA    0008H     0005H     UNIT         _DATA_GROUP_
            DATA    000DH     0004H     UNIT         ?DT?UART
            IDATA   0011H     0009H     UNIT         ?ID?MONITOR
                    001AH     0006H                  *** GAP ***
            BIT     0020H.0   0001H.1   UNIT         _BIT_GROUP_
            BIT     0021H.1   0000H.2   UNIT         ?BI?MAIN
            BIT     0021H.3   0000H.2   UNIT         ?BI?UART
            BIT     0021H.5   0000H.1   UNIT         ?BI?EEPROM
            BIT     0021H.6   0000H.1   UNIT         ?BI?VERIFICADOR
                    0021H.7   0000H.1                *** GAP ***
            IDATA   0022H     0046H     UNIT         ?ID?MAIN
            IDATA   0068H     0028H     UNIT         ?ID?PANTALLAS
            IDATA   0090H     0001H     UNIT         ?STACK

            * * * * * * *  X D A T A   M E M O R Y  * * * * * * *
            XDATA   0000H     00B8H     UNIT         _XDATA_GROUP_
            XDATA   00B8H     008AH     UNIT         ?XD?VERIFICADOR
            XDATA   0142H     006BH     UNIT         ?XD?MAIN
            XDATA   01ADH     0056H     UNIT         ?XD?PROG
            XDATA   0203H     0003H     UNIT         ?XD?EEPROM
            XDATA   0206H     0003H     UNIT         ?XD?UART
            XDATA   0209H     0003H     UNIT         ?XD?STRTOK
            XDATA   020CH     0001H     UNIT         ?XD?ACCESCAN
            XDATA   020DH     0001H     UNIT         ?XD?CLOCK
            XDATA   020EH     0001H     UNIT         ?XD?IO_SENSORES

            * * * * * * *   C O D E   M E M O R Y   * * * * * * *
            CODE    0000H     0003H     ABSOLUTE     
BL51 BANKED LINKER/LOCATER V6.22.2.0                                                  07/29/2020  18:03:03  PAGE 3


            CODE    0003H     0008H     UNIT         ?PR?P_CK?CLOCK
            CODE    000BH     0003H     ABSOLUTE     
            CODE    000EH     0015H     UNIT         ?PR?_STRLEN?STRLEN
            CODE    0023H     0003H     ABSOLUTE     
            CODE    0026H     0E44H     UNIT         ?CO?PROG
            CODE    0E6AH     0B8BH     UNIT         ?C?LIB_CODE
            CODE    19F5H     072CH     UNIT         ?CO?VERIFICADOR
            CODE    2121H     06BFH     UNIT         ?CO?PANTALLAS
            CODE    27E0H     05D9H     UNIT         ?PR?_PANTALLALCD?PANTALLAS
            CODE    2DB9H     0483H     UNIT         ?PR?PRINTF?PRINTF
            CODE    323CH     0435H     UNIT         ?PR?_SECUENCIAEXPEDIDORMF?VERIFICADOR
            CODE    3671H     033EH     UNIT         ?PR?_VALIDA_TRAMA_PTO?ACCESCAN
            CODE    39AFH     02D0H     UNIT         ?PR?_TWO_BYTEHEX_DECIMAL?CLOCK
            CODE    3C7FH     02B7H     UNIT         ?PR?_PROG_HORARIO_DIAS?PROG
            CODE    3F36H     021FH     UNIT         ?PR?MENU?PROG
            CODE    4155H     021EH     UNIT         ?PR?_PANTALLALCD_LINEA_2?PANTALLAS
            CODE    4373H     0208H     UNIT         ?PR?_HASH_ID?PROG
            CODE    457BH     01FAH     UNIT         ?PR?_PROG_HORARIO_DESDE_HASTA?PROG
            CODE    4775H     01F5H     UNIT         ?PR?PROG_FECHA_VENCIMIENTO?PROG
            CODE    496AH     01DFH     UNIT         ?PR?_RESPONDE_LECTURA_TARJETA_SECTOR1_BLOQUE1?VERIFICADOR
            CODE    4B49H     01B3H     UNIT         ?PR?COM_ISR?UART
            CODE    4CFCH     01A5H     UNIT         ?PR?_VALIDA_TIPO_TARJETA?VERIFICADOR
            CODE    4EA1H     0198H     UNIT         ?PR?ARMAR_TRAMA_PTO_PARALELO_EXPEDIDOR?VERIFICADOR
            CODE    5039H     017AH     UNIT         ?CO?LINTECH
            CODE    51B3H     016EH     UNIT         ?PR?_BLOCK_READ_CLOCK_ASCII?CLOCK
            CODE    5321H     0166H     UNIT         ?PR?_POW?POW
            CODE    5487H     0154H     UNIT         ?PR?_ARMAR_TRAMA_MONITOR?VERIFICADOR
            CODE    55DBH     0145H     UNIT         ?PR?PROG_HORARIOS?PROG
            CODE    5720H     0142H     UNIT         ?PR?_ARMAR_TRAMA_TARJETA_SECTOR1_BLOQUE2?VERIFICADOR
            CODE    5862H     013EH     UNIT         ?PR?PROG_SIN_COBRO?PROG
            CODE    59A0H     013EH     UNIT         ?PR?SECUENCIA_INICIO_EXPEDIDOR?VERIFICADOR
            CODE    5ADEH     012BH     UNIT         ?PR?_RESPONDE_LECTURA_TARJETA_SECTOR1_BLOQUE2?VERIFICADOR
            CODE    5C09H     0129H     UNIT         ?PR?LOG?LOG
            CODE    5D32H     011CH     UNIT         ?PR?LOAD_AND_SEND_ID_COD?PTO_PARALELO
            CODE    5E4EH     011AH     UNIT         ?PR?_PROG_HORARIOS_ON_OFF?PROG
            CODE    5F68H     0115H     UNIT         ?PR?_VALIDAR_CLK?CLOCK
            CODE    607DH     010FH     UNIT         ?PR?_HORARIOS?VERIFICADOR
            CODE    618CH     010CH     UNIT         ?PR?_ATOL?ATOL
            CODE    6298H     0103H     UNIT         ?PR?_BLOQUE_HORARIO?VERIFICADOR
            CODE    639BH     0100H     UNIT         ?PR?_WR_MF?LINTECH
            CODE    649BH     00FCH     UNIT         ?PR?PROG_DEBUG?PROG
            CODE    6597H     00FCH     UNIT         ?PR?PROG_USE_LPR?PROG
            CODE    6693H     00FCH     UNIT         ?PR?TIPO_PANTALLA?PROG
            CODE    678FH     00FCH     UNIT         ?PR?PROG_ANTIPASSBACK?PROG
            CODE    688BH     00FCH     UNIT         ?PR?PROG_PLACA?PROG
            CODE    6987H     00FCH     UNIT         ?PR?PROG_VALIDAR_TIPO_VEHICULO_MENSUAL?PROG
            CODE    6A83H     00FCH     UNIT         ?PR?PROG_APB_MENSUAL?PROG
            CODE    6B7FH     00F1H     UNIT         ?PR?_WRITE_EEPROM_TICKET?EEPROM
            CODE    6C70H     00EAH     UNIT         ?PR?_MOV_CARD?LINTECH
            CODE    6D5AH     00E4H     UNIT         ?PR?_STRTOK?STRTOK
            CODE    6E3EH     00DEH     UNIT         ?PR?PROG_ADDRESS_HIGH_BOARD?PROG
            CODE    6F1CH     00DBH     UNIT         ?PR?_ATOI?ATOI
            CODE    6FF7H     00D7H     UNIT         ?PR?_ANALIZA_UID_CARD?VERIFICADOR
            CODE    70CEH     00D6H     UNIT         ?PR?_CMD_LPR_SALIDA_WIEGAND?ACCESCAN
            CODE    71A4H     00CCH     UNIT         ?PR?_GRABA_SERIE?EEPROM
            CODE    7270H     00CBH     UNIT         ?PR?_RTA_CMD_TRANSPORTE?VERIFICADOR
            CODE    733BH     00CAH     UNIT         ?PR?READ_EEPROM_TICKET?EEPROM
BL51 BANKED LINKER/LOCATER V6.22.2.0                                                  07/29/2020  18:03:03  PAGE 4


            CODE    7405H     00C9H     UNIT         ?PR?_CHECK_FECHAOUT?CLOCK
            CODE    74CEH     00C4H     UNIT         ?PR?_BLOCK_READ_CLOCK?CLOCK
            CODE    7592H     00C4H     UNIT         ?PR?_TARJETA_MENSUAL?VERIFICADOR
            CODE    7656H     00C3H     UNIT         ?PR?_RD_MF?LINTECH
            CODE    7719H     00C2H     UNIT         ?PR?PROG_TARJETA_AUTOMATICA_O_BOTON?PROG
            CODE    77DBH     00C1H     UNIT         ?PR?_ARMAR_TRAMA_PTO_PARALELO_EXPEDIDOR_MENSUAL?VERIFICADOR
            CODE    789CH     00C1H     UNIT         ?PR?_RECIBE_CMD_MONITOR?MONITOR
            CODE    795DH     00BEH     UNIT         ?PR?ERROR_RX_PTO?VERIFICADOR
            CODE    7A1BH     00BDH     UNIT         ?PR?PROG_COD_PARK?PROG
            CODE    7AD8H     00BDH     UNIT         ?PR?PROG_TIEMPO_GRACIA?PROG
            CODE    7B95H     00BCH     UNIT         ?C_INITSEG
            CODE    7C51H     00BAH     UNIT         ?CO?TIBBO
            CODE    7D0BH     00B6H     UNIT         ?PR?PROG_ID_CLIENTE?PROG
            CODE    7DC1H     00B4H     UNIT         ?PR?_SEND_PORT?PTO_PARALELO
            CODE    7E75H     00ADH     UNIT         ?CO?IO_SENSORES
            CODE    7F22H     00ACH     UNIT         ?PR?_HORA_MAXIMA?VERIFICADOR
            CODE    7FCEH     00AAH     UNIT         ?PR?CLAVE_SEGURIDAD_S2?LINTECH
            CODE    8078H     00A9H     UNIT         ?PR?DWLOAD_EEPROM?LINTECH
            CODE    8121H     00A6H     UNIT         ?PR?_BLOCK_READ_CLOCK_HEX?CLOCK
            CODE    81C7H     00A3H     UNIT         ?PR?_WAIT_PLACA?VERIFICADOR
            CODE    826AH     009DH     UNIT         ?PR?_INICIALIZA?LINTECH
            CODE    8307H     009AH     UNIT         ?PR?_RESPONDE_LECTURA_TARJETA_SECTOR1_BLOQUE0?VERIFICADOR
            CODE    83A1H     009AH     UNIT         ?PR?EXP?EXP
            CODE    843BH     0099H     UNIT         ?PR?_RECIBE_PORT?PTO_PARALELO
            CODE    84D4H     0098H     UNIT         ?PR?_VALIDA_VEHICULO_CARD_MENSUAL?VERIFICADOR
            CODE    856CH     0095H     UNIT         ?PR?_VALIDA_TRAMA_MONITOR?MONITOR
            CODE    8601H     0091H     UNIT         ?PR?_HEX_ASCII?CLOCK
            CODE    8692H     0091H     UNIT         ?PR?_CARD_INSERCION?LINTECH
            CODE    8723H     0091H     UNIT         ?PR?LOADVERIFY_EEPROM?LINTECH
            CODE    87B4H     0090H     UNIT         ?PR?_LEE_CLK?CLOCK
            CODE    8844H     0090H     UNIT         ?PR?_GETOPTION?PROG
            CODE    88D4H     0090H     UNIT         ?PR?SHOW?PROG
            CODE    8964H     008FH     UNIT         ?PR?_BLOCK_WRITE_CLOCK_ASCII?CLOCK
            CODE    89F3H     008FH     UNIT         ?PR?_RESPONDE_WRITE_TARJETA_SECTOR1_BLOQUE2?VERIFICADOR
            CODE    8A82H     008CH     UNIT         ?C_C51STARTUP
            CODE    8B0EH     0088H     UNIT         ?PR?_SEND_PORTERR?PTO_PARALELO
            CODE    8B96H     0088H     UNIT         ?PR?RX_DATA?TIBBO
            CODE    8C1EH     0088H     UNIT         ?PR?UNIQUE_IDENTIFIER_UID?LINTECH
            CODE    8CA6H     0088H     UNIT         ?PR?_SEND_PTO_PARALELO?VERIFICADOR
            CODE    8D2EH     0084H     UNIT         ?PR?_STRSPN?STRSPN
            CODE    8DB2H     0081H     UNIT         ?PR?MAIN?MAIN
            CODE    8E33H     0081H     UNIT         ?PR?_STRPBRK?STRPBRK
            CODE    8EB4H     0080H     UNIT         ?PR?MSJ_LCD_INFORMATIVO?IO_SENSORES
            CODE    8F34H     0080H     UNIT         ?PR?_INGRESADATO?PROG
            CODE    8FB4H     0080H     UNIT         ?PR?AUT_CARD_CHECK_STATUS?LINTECH
            CODE    9034H     0080H     UNIT         ?PR?POWER_OFF?LINTECH
            CODE    90B4H     007CH     UNIT         ?PR?_CHECK_STATUS?LINTECH
            CODE    9130H     007CH     UNIT         ?PR?RESPONDE_ESTADO_SENSORES_TRANSPORTE?VERIFICADOR
            CODE    91ACH     0079H     UNIT         ?PR?ENTREGA_CARD_CAPTURA?VERIFICADOR
            CODE    9225H     0073H     UNIT         ?PR?_DEBUGBUFFERMF?TIBBO
            CODE    9298H     0071H     UNIT         ?PR?RESPONDE_TIPO_TARJETA?VERIFICADOR
            CODE    9309H     0071H     UNIT         ?PR?_EN_HORARIO?VERIFICADOR
            CODE    937AH     006FH     UNIT         ?PR?_ESCRIBIRMEMORIA?EEPROM
            CODE    93E9H     006BH     UNIT         ?PR?_STRCAT?STRCAT
            CODE    9454H     0066H     UNIT         ?PR?_LEERMEMORIA?EEPROM
            CODE    94BAH     0066H     UNIT         ?PR?_DISPARO_LOCK_ENTRADA_VEHICULO?VERIFICADOR
            CODE    9520H     0062H     UNIT         ?PR?_LISTACOMANDOS?PROG
BL51 BANKED LINKER/LOCATER V6.22.2.0                                                  07/29/2020  18:03:03  PAGE 5


            CODE    9582H     0061H     UNIT         ?PR?_PREGUNTA_LPR?VERIFICADOR
            CODE    95E3H     005EH     UNIT         ?PR?_BYTEHEX_DECIMAL?CLOCK
            CODE    9641H     005DH     UNIT         ?PR?_RESPUESTA_SEGUNDA_CLAVE?VERIFICADOR
            CODE    969EH     005AH     UNIT         ?PR?RASPBERRY_DATA1?PANTALLAS
            CODE    96F8H     0059H     UNIT         ?PR?INGRESO_VEHICULO?VERIFICADOR
            CODE    9751H     0058H     UNIT         ?PR?VALIDA_SENSOR1_AUTO?IO_SENSORES
            CODE    97A9H     0058H     UNIT         ?PR?_ARMAR_TRAMA_PLACA?VERIFICADOR
            CODE    9801H     0056H     UNIT         ?PR?_WR_EEPROM?EEPROM
            CODE    9857H     0055H     UNIT         ?PR?RELOJ_PANTALLA_LCD?PANTALLAS
            CODE    98ACH     004DH     UNIT         ?PR?VARIABLE_INICIO?MAIN
            CODE    98F9H     004DH     UNIT         ?PR?L_D_M?EEPROM
            CODE    9946H     004CH     UNIT         ?PR?LEE_NO_TICKET?EEPROM
            CODE    9992H     004BH     UNIT         ?PR?_TX_AUX?TIBBO
            CODE    99DDH     0049H     UNIT         ?PR?_DEBUG_TXT_TIBBO?TIBBO
            CODE    9A26H     0048H     UNIT         ?PR?FIRST_CLAVE?PROG
            CODE    9A6EH     0047H     UNIT         ?PR?_DEBUG_CHR_TIBBO?TIBBO
            CODE    9AB5H     0047H     UNIT         ?PR?_RESPONDE_WRITE_TARJETA_SECTOR2_BLOQUE0?VERIFICADOR
            CODE    9AFCH     0046H     UNIT         ?PR?_ESCRIBIRCADENASOFT_BUFFER?MAIN
            CODE    9B42H     0046H     UNIT         ?PR?_LCD_TXT_NUM_CHAR?PANTALLAS
            CODE    9B88H     0046H     UNIT         ?PR?_DEBUG_HEXDEC?TIBBO
            CODE    9BCEH     0044H     UNIT         ?PR?_LCD_TXT?PANTALLAS
            CODE    9C12H     0043H     UNIT         ?PR?DIR_BOARD?IO_SENSORES
            CODE    9C55H     0042H     UNIT         ?PR?_VALIDARCLAVE?PROG
            CODE    9C97H     0041H     UNIT         ?PR?_MONITOR_CHR?ACCESCAN
            CODE    9CD8H     0041H     UNIT         ?PR?_TWO_ONE?CLOCK
            CODE    9D19H     0040H     UNIT         ?PR?_GETCMD?PROG
            CODE    9D59H     003FH     UNIT         ?PR?_EB_CLK?CLOCK
            CODE    9D98H     003EH     UNIT         ?PR?_PUTCHAR?MAIN
            CODE    9DD6H     003DH     UNIT         ?PR?_HEX_BCD?CLOCK
            CODE    9E13H     003DH     UNIT         ?PR?_RD_EEPROM?EEPROM
            CODE    9E50H     003DH     UNIT         ?PR?_LOAD_SECUENCIA_EXPEDIDOR?VERIFICADOR
            CODE    9E8DH     003BH     UNIT         ?CO?EEPROM
            CODE    9EC8H     003BH     UNIT         ?PR?_DEBUG_PTO_PARALELO?TIBBO
            CODE    9F03H     003BH     UNIT         ?PR?_COM_PUTCHAR?UART
            CODE    9F3EH     003AH     UNIT         ?PR?_DELAY_10MS?DELAY
            CODE    9F78H     0038H     UNIT         ?PR?VALIDASENSORESPASO?IO_SENSORES
            CODE    9FB0H     0036H     UNIT         ?PR?_RESPONDE_WRITE_TARJETA_SECTOR1_BLOQUE0?VERIFICADOR
            CODE    9FE6H     0034H     UNIT         ?PR?INCREMENTE_TICKET?EEPROM
            CODE    A01AH     0034H     UNIT         ?PR?ADDR_HORARIOS?PROG
            CODE    A04EH     0033H     UNIT         ?PR?TRAMA_VALIDACION_P_N?VERIFICADOR
            CODE    A081H     0032H     UNIT         ?PR?_DEBUG_MONITOR?TIBBO
            CODE    A0B3H     0031H     UNIT         ?PR?_TARJETA_ROTACION?VERIFICADOR
            CODE    A0E4H     002EH     UNIT         ?PR?TIMER0_INT?MAIN
            CODE    A112H     002CH     UNIT         ?PR?LOAD_AND_SEND_INFO_RELOJ?PTO_PARALELO
            CODE    A13EH     002AH     UNIT         ?PR?COM_INITIALIZE?UART
            CODE    A168H     0028H     UNIT         ?PR?_WR_CLK?CLOCK
            CODE    A190H     0028H     UNIT         ?PR?COM_BAUDRATE?UART
            CODE    A1B8H     0028H     UNIT         ?PR?_ARMAR_TRAMA_TARJETA_SECTOR1_BLOQUE0?VERIFICADOR
            CODE    A1E0H     0027H     UNIT         ?PR?_TX_CHRLCD?PANTALLAS
            CODE    A207H     0026H     UNIT         ?PR?COM_GETCHAR?UART
            CODE    A22DH     0026H     UNIT         ?PR?ANALIZA_PRESENCIA_MENSUAL?VERIFICADOR
            CODE    A253H     0026H     UNIT         ?PR?RX_MONITOR?MONITOR
            CODE    A279H     0023H     UNIT         ?PR?ANALIZA_PRESENCIA_ROTACION?VERIFICADOR
            CODE    A29CH     0022H     UNIT         ?PR?_E_D_M?EEPROM
            CODE    A2BEH     0020H     UNIT         ?PR?ACKD?EEPROM
            CODE    A2DEH     0020H     UNIT         ?PR?ACK_LECT?EEPROM
            CODE    A2FEH     001FH     UNIT         ?PR?VALIDASENSOR?IO_SENSORES
BL51 BANKED LINKER/LOCATER V6.22.2.0                                                  07/29/2020  18:03:03  PAGE 6


            CODE    A31DH     001FH     UNIT         ?PR?TIME_BIT?TIBBO
            CODE    A33CH     001EH     UNIT         ?PR?_BCD_HEX?CLOCK
            CODE    A35AH     001BH     UNIT         ?PR?_DELAY_1MS?DELAY
            CODE    A375H     0018H     UNIT         ?PR?CLEAR_PLACA?MONITOR
            CODE    A38DH     0017H     UNIT         ?PR?DISPLAYCURSOR?PROG
            CODE    A3A4H     0017H     UNIT         ?PR?TIME_MBIT?TIBBO
            CODE    A3BBH     0014H     UNIT         ?PR?DEBUG_DIVIDIR_TEXTO?TIBBO
            CODE    A3CFH     0014H     UNIT         ?PR?_ISSPACE?ISSPACE
            CODE    A3E3H     0012H     UNIT         ?PR?_DELAY_20US?DELAY
            CODE    A3F5H     0012H     UNIT         ?PR?START?EEPROM
            CODE    A407H     0012H     UNIT         ?PR?PULSO_BUS?PTO_PARALELO
            CODE    A419H     0012H     UNIT         ?PR?COM_RBUFLEN?UART
            CODE    A42BH     0012H     UNIT         ?PR?COM_TBUFLEN?UART
            CODE    A43DH     0010H     UNIT         ?PR?INI_TIMER?MAIN
            CODE    A44DH     0010H     UNIT         ?PR?INICIA_BOARD?MAIN
            CODE    A45DH     000FH     UNIT         ?PR?_ISDIGIT?ISDIGIT
            CODE    A46CH     000CH     UNIT         ?PR?_GETKEY?MAIN
            CODE    A478H     000AH     UNIT         ?PR?COND_INI_PTO?PTO_PARALELO
            CODE    A482H     0009H     UNIT         ?PR?STOP?EEPROM
            CODE    A48BH     0009H     UNIT         ?PR?CAPTURA_EXPULSA?VERIFICADOR
            CODE    A494H     0007H     UNIT         ?PR?COND_INI_CLOCK?CLOCK
            CODE    A49BH     0007H     UNIT         ?PR?SEL_FUNCION?IO_SENSORES
            CODE    A4A2H     0007H     UNIT         ?PR?SEL_AUTO?IO_SENSORES
            CODE    A4A9H     0007H     UNIT         ?PR?SEL_PULSA?IO_SENSORES
            CODE    A4B0H     0007H     UNIT         ?PR?SEL_SENSOR2?IO_SENSORES
            CODE    A4B7H     0007H     UNIT         ?PR?SEL_SENSOR1?IO_SENSORES
            CODE    A4BEH     0007H     UNIT         ?PR?SEL_DIR1?IO_SENSORES
            CODE    A4C5H     0007H     UNIT         ?PR?SEL_DIR2?IO_SENSORES
            CODE    A4CCH     0006H     UNIT         ?PR?P_ME?EEPROM
            CODE    A4D2H     0005H     UNIT         ?PR?ON_TIMER0_INTERRUP?MAIN
            CODE    A4D7H     0005H     UNIT         ?CO?ACCESCAN
            CODE    A4DCH     0005H     UNIT         ?PR?COND_INI_TIBBO?TIBBO
            CODE    A4E1H     0003H     UNIT         ?PR?OFF_TIMER0_INTERRUP?MAIN
            CODE    A4E4H     0003H     UNIT         ?CO?PTO_PARALELO
            CODE    A4E7H     0001H     UNIT         ?PR?DELAY?DELAY



OVERLAY MAP OF MODULE:   .\Objects\expedidor_v_01_raspberry (MAIN)


SEGMENT                                             BIT_GROUP          DATA_GROUP          XDATA_GROUP
  +--> CALLED SEGMENT                            START    LENGTH     START    LENGTH     START    LENGTH
--------------------------------------------------------------------------------------------------------
?C_C51STARTUP                                    -----    -----      -----    -----      -----    -----
  +--> ?PR?MAIN?MAIN
  +--> ?C_INITSEG

?PR?MAIN?MAIN                                    -----    -----      -----    -----      0000H    0002H
  +--> ?PR?INI_TIMER?MAIN
  +--> ?PR?ON_TIMER0_INTERRUP?MAIN
  +--> ?PR?COM_INITIALIZE?UART
  +--> ?PR?COM_BAUDRATE?UART
  +--> ?PR?INICIA_BOARD?MAIN
  +--> ?PR?TIME_BIT?TIBBO
  +--> ?PR?_DELAY_20US?DELAY
  +--> ?PR?TIME_MBIT?TIBBO
BL51 BANKED LINKER/LOCATER V6.22.2.0                                                  07/29/2020  18:03:03  PAGE 7


  +--> ?PR?_TX_AUX?TIBBO
  +--> ?PR?SEL_FUNCION?IO_SENSORES
  +--> ?PR?MENU?PROG
  +--> ?PR?VARIABLE_INICIO?MAIN
  +--> ?PR?SECUENCIA_INICIO_EXPEDIDOR?VERIFI...
  +--> ?PR?RX_MONITOR?MONITOR
  +--> ?PR?_SECUENCIAEXPEDIDORMF?VERIFICADOR
  +--> ?PR?_RECIBE_PORT?PTO_PARALELO
  +--> ?PR?_DEBUG_PTO_PARALELO?TIBBO
  +--> ?PR?_VALIDA_TRAMA_PTO?ACCESCAN
  +--> ?PR?MSJ_LCD_INFORMATIVO?IO_SENSORES

?PR?COM_INITIALIZE?UART                          -----    -----      -----    -----      -----    -----
  +--> ?PR?COM_BAUDRATE?UART

?PR?INICIA_BOARD?MAIN                            -----    -----      -----    -----      -----    -----
  +--> ?PR?COND_INI_TIBBO?TIBBO
  +--> ?PR?COND_INI_CLOCK?CLOCK
  +--> ?PR?COND_INI_PTO?PTO_PARALELO

?PR?_TX_AUX?TIBBO                                -----    -----      -----    -----      -----    -----
  +--> ?PR?TIME_BIT?TIBBO

?PR?MENU?PROG                                    -----    -----      -----    -----      0002H    0045H
  +--> ?CO?PROG
  +--> ?PR?PRINTF?PRINTF
  +--> ?PR?_RD_EEPROM?EEPROM
  +--> ?PR?FIRST_CLAVE?PROG
  +--> ?PR?_WR_EEPROM?EEPROM
  +--> ?PR?_LEERMEMORIA?EEPROM
  +--> ?PR?_HASH_ID?PROG
  +--> ?PR?_INGRESADATO?PROG
  +--> ?PR?_GETCMD?PROG
  +--> ?PR?_ESCRIBIRMEMORIA?EEPROM
  +--> ?PR?_VALIDARCLAVE?PROG
  +--> ?PR?DISPLAYCURSOR?PROG
  +--> ?PR?_STRLEN?STRLEN
  +--> ?PR?_GETOPTION?PROG
  +--> ?PR?_STRCAT?STRCAT
  +--> ?PR?_LISTACOMANDOS?PROG
  +--> ?PR?PROG_ID_CLIENTE?PROG
  +--> ?PR?PROG_COD_PARK?PROG
  +--> ?PR?PROG_TIEMPO_GRACIA?PROG
  +--> ?PR?PROG_SIN_COBRO?PROG
  +--> ?PR?PROG_DEBUG?PROG
  +--> ?PR?PROG_USE_LPR?PROG
  +--> ?PR?TIPO_PANTALLA?PROG
  +--> ?PR?PROG_TARJETA_AUTOMATICA_O_BOTON?PROG
  +--> ?PR?PROG_ANTIPASSBACK?PROG
  +--> ?PR?PROG_PLACA?PROG
  +--> ?PR?PROG_ADDRESS_HIGH_BOARD?PROG
  +--> ?PR?PROG_HORARIOS?PROG
  +--> ?PR?PROG_VALIDAR_TIPO_VEHICULO_MENSUA...
  +--> ?PR?PROG_APB_MENSUAL?PROG
  +--> ?PR?SHOW?PROG
  +--> ?PR?PROG_FECHA_VENCIMIENTO?PROG

BL51 BANKED LINKER/LOCATER V6.22.2.0                                                  07/29/2020  18:03:03  PAGE 8


?PR?PRINTF?PRINTF                                0020H.0  0001H.1    0008H    0005H      0076H    0030H
  +--> ?PR?_PUTCHAR?MAIN

?PR?_PUTCHAR?MAIN                                -----    -----      -----    -----      00A6H    0003H
  +--> ?PR?_COM_PUTCHAR?UART

?PR?_COM_PUTCHAR?UART                            -----    -----      -----    -----      00A9H    0001H
  +--> ?PR?COM_TBUFLEN?UART

?PR?_RD_EEPROM?EEPROM                            -----    -----      -----    -----      -----    -----
  +--> ?PR?START?EEPROM
  +--> ?PR?ACK_LECT?EEPROM
  +--> ?PR?_E_D_M?EEPROM
  +--> ?PR?ACKD?EEPROM
  +--> ?PR?L_D_M?EEPROM
  +--> ?PR?STOP?EEPROM

?PR?ACK_LECT?EEPROM                              -----    -----      -----    -----      -----    -----
  +--> ?PR?_E_D_M?EEPROM

?PR?_E_D_M?EEPROM                                -----    -----      -----    -----      -----    -----
  +--> ?PR?P_ME?EEPROM

?PR?ACKD?EEPROM                                  -----    -----      -----    -----      -----    -----
  +--> ?PR?_E_D_M?EEPROM

?PR?FIRST_CLAVE?PROG                             -----    -----      -----    -----      0047H    000BH
  +--> ?PR?_BLOCK_READ_CLOCK_ASCII?CLOCK
  +--> ?PR?_HASH_ID?PROG
  +--> ?PR?_ESCRIBIRMEMORIA?EEPROM

?PR?_BLOCK_READ_CLOCK_ASCII?CLOCK                -----    -----      -----    -----      0052H    0003H
  +--> ?PR?_LEE_CLK?CLOCK

?PR?_LEE_CLK?CLOCK                               -----    -----      -----    -----      00B2H    0003H
  +--> ?PR?_DELAY_20US?DELAY
  +--> ?PR?_EB_CLK?CLOCK
  +--> ?PR?P_CK?CLOCK

?PR?_EB_CLK?CLOCK                                -----    -----      -----    -----      00B5H    0003H
  +--> ?PR?P_CK?CLOCK

?PR?P_CK?CLOCK                                   -----    -----      -----    -----      -----    -----
  +--> ?PR?DELAY?DELAY

?PR?_HASH_ID?PROG                                -----    -----      -----    -----      005EH    003FH
  +--> ?CO?PROG
  +--> ?PR?_LEERMEMORIA?EEPROM
  +--> ?PR?_CHECK_FECHAOUT?CLOCK
  +--> ?PR?_STRLEN?STRLEN

?PR?_LEERMEMORIA?EEPROM                          -----    -----      -----    -----      009DH    0005H
  +--> ?PR?_RD_EEPROM?EEPROM

?PR?_CHECK_FECHAOUT?CLOCK                        -----    -----      -----    -----      009DH    0012H
  +--> ?PR?_BLOCK_READ_CLOCK_HEX?CLOCK

BL51 BANKED LINKER/LOCATER V6.22.2.0                                                  07/29/2020  18:03:03  PAGE 9


?PR?_BLOCK_READ_CLOCK_HEX?CLOCK                  -----    -----      -----    -----      00AFH    0003H
  +--> ?PR?_LEE_CLK?CLOCK
  +--> ?PR?_BCD_HEX?CLOCK

?PR?_ESCRIBIRMEMORIA?EEPROM                      -----    -----      -----    -----      005EH    0005H
  +--> ?PR?_WR_EEPROM?EEPROM

?PR?_WR_EEPROM?EEPROM                            -----    -----      -----    -----      -----    -----
  +--> ?PR?START?EEPROM
  +--> ?PR?ACKD?EEPROM
  +--> ?PR?_E_D_M?EEPROM
  +--> ?PR?STOP?EEPROM
  +--> ?PR?_DELAY_1MS?DELAY
  +--> ?PR?_DELAY_20US?DELAY

?PR?_DELAY_1MS?DELAY                             -----    -----      -----    -----      -----    -----
  +--> ?PR?_DELAY_20US?DELAY

?PR?_INGRESADATO?PROG                            -----    -----      -----    -----      0072H    0004H
  +--> ?PR?_GETKEY?MAIN
  +--> ?CO?PROG
  +--> ?PR?PRINTF?PRINTF
  +--> ?PR?_PUTCHAR?MAIN

?PR?_GETKEY?MAIN                                 -----    -----      -----    -----      -----    -----
  +--> ?PR?COM_GETCHAR?UART

?PR?COM_GETCHAR?UART                             -----    -----      -----    -----      -----    -----
  +--> ?PR?COM_RBUFLEN?UART

?PR?_GETCMD?PROG                                 -----    -----      -----    -----      005EH    0007H
  +--> ?CO?PROG
  +--> ?PR?_STRTOK?STRTOK

?PR?_STRTOK?STRTOK                               -----    -----      -----    -----      0065H    0006H
  +--> ?PR?_STRSPN?STRSPN
  +--> ?PR?_STRPBRK?STRPBRK

?PR?_STRSPN?STRSPN                               -----    -----      -----    -----      006BH    0008H

?PR?_STRPBRK?STRPBRK                             -----    -----      -----    -----      006BH    0009H

?PR?_VALIDARCLAVE?PROG                           -----    -----      -----    -----      005EH    000EH

?PR?DISPLAYCURSOR?PROG                           -----    -----      -----    -----      -----    -----
  +--> ?CO?PROG
  +--> ?PR?PRINTF?PRINTF

?PR?_GETOPTION?PROG                              -----    -----      -----    -----      0047H    000BH
  +--> ?CO?PROG
  +--> ?PR?_STRTOK?STRTOK

?PR?_STRCAT?STRCAT                               -----    -----      -----    -----      0047H    0009H

?PR?_LISTACOMANDOS?PROG                          -----    -----      -----    -----      0047H    0007H

?PR?PROG_ID_CLIENTE?PROG                         -----    -----      -----    -----      0047H    000CH
BL51 BANKED LINKER/LOCATER V6.22.2.0                                                  07/29/2020  18:03:03  PAGE 10


  +--> ?PR?_RD_EEPROM?EEPROM
  +--> ?CO?PROG
  +--> ?PR?PRINTF?PRINTF
  +--> ?PR?_INGRESADATO?PROG
  +--> ?PR?_ATOI?ATOI
  +--> ?PR?_WR_EEPROM?EEPROM

?PR?_ATOI?ATOI                                   0020H.0  0000H.1    -----    -----      0072H    0005H
  +--> ?PR?_ISSPACE?ISSPACE
  +--> ?PR?_ISDIGIT?ISDIGIT

?PR?PROG_COD_PARK?PROG                           -----    -----      -----    -----      0047H    000CH
  +--> ?PR?_RD_EEPROM?EEPROM
  +--> ?CO?PROG
  +--> ?PR?PRINTF?PRINTF
  +--> ?PR?_INGRESADATO?PROG
  +--> ?PR?_ATOI?ATOI
  +--> ?PR?_WR_EEPROM?EEPROM

?PR?PROG_TIEMPO_GRACIA?PROG                      -----    -----      -----    -----      0047H    000CH
  +--> ?PR?_RD_EEPROM?EEPROM
  +--> ?CO?PROG
  +--> ?PR?PRINTF?PRINTF
  +--> ?PR?_INGRESADATO?PROG
  +--> ?PR?_ATOI?ATOI
  +--> ?PR?_WR_EEPROM?EEPROM

?PR?PROG_SIN_COBRO?PROG                          -----    -----      -----    -----      0047H    000CH
  +--> ?PR?_RD_EEPROM?EEPROM
  +--> ?CO?PROG
  +--> ?PR?PRINTF?PRINTF
  +--> ?PR?_INGRESADATO?PROG
  +--> ?PR?_ATOI?ATOI
  +--> ?PR?_WR_EEPROM?EEPROM

?PR?PROG_DEBUG?PROG                              -----    -----      -----    -----      0047H    000CH
  +--> ?PR?_RD_EEPROM?EEPROM
  +--> ?CO?PROG
  +--> ?PR?PRINTF?PRINTF
  +--> ?PR?_INGRESADATO?PROG
  +--> ?PR?_ATOI?ATOI
  +--> ?PR?_WR_EEPROM?EEPROM

?PR?PROG_USE_LPR?PROG                            -----    -----      -----    -----      0047H    000CH
  +--> ?PR?_RD_EEPROM?EEPROM
  +--> ?CO?PROG
  +--> ?PR?PRINTF?PRINTF
  +--> ?PR?_INGRESADATO?PROG
  +--> ?PR?_ATOI?ATOI
  +--> ?PR?_WR_EEPROM?EEPROM

?PR?TIPO_PANTALLA?PROG                           -----    -----      -----    -----      0047H    000CH
  +--> ?PR?_RD_EEPROM?EEPROM
  +--> ?CO?PROG
  +--> ?PR?PRINTF?PRINTF
  +--> ?PR?_INGRESADATO?PROG
  +--> ?PR?_ATOI?ATOI
BL51 BANKED LINKER/LOCATER V6.22.2.0                                                  07/29/2020  18:03:03  PAGE 11


  +--> ?PR?_WR_EEPROM?EEPROM

?PR?PROG_TARJETA_AUTOMATICA_O_BOTON?PROG         -----    -----      -----    -----      0047H    000CH
  +--> ?PR?_RD_EEPROM?EEPROM
  +--> ?CO?PROG
  +--> ?PR?PRINTF?PRINTF
  +--> ?PR?_INGRESADATO?PROG
  +--> ?PR?_ATOI?ATOI
  +--> ?PR?_WR_EEPROM?EEPROM

?PR?PROG_ANTIPASSBACK?PROG                       -----    -----      -----    -----      0047H    000CH
  +--> ?PR?_RD_EEPROM?EEPROM
  +--> ?CO?PROG
  +--> ?PR?PRINTF?PRINTF
  +--> ?PR?_INGRESADATO?PROG
  +--> ?PR?_ATOI?ATOI
  +--> ?PR?_WR_EEPROM?EEPROM

?PR?PROG_PLACA?PROG                              -----    -----      -----    -----      0047H    000CH
  +--> ?PR?_RD_EEPROM?EEPROM
  +--> ?CO?PROG
  +--> ?PR?PRINTF?PRINTF
  +--> ?PR?_INGRESADATO?PROG
  +--> ?PR?_ATOI?ATOI
  +--> ?PR?_WR_EEPROM?EEPROM

?PR?PROG_ADDRESS_HIGH_BOARD?PROG                 -----    -----      -----    -----      0047H    000CH
  +--> ?PR?_RD_EEPROM?EEPROM
  +--> ?CO?PROG
  +--> ?PR?PRINTF?PRINTF
  +--> ?PR?_INGRESADATO?PROG
  +--> ?PR?_ATOI?ATOI
  +--> ?PR?_WR_EEPROM?EEPROM

?PR?PROG_HORARIOS?PROG                           -----    -----      -----    -----      0047H    001BH
  +--> ?PR?ADDR_HORARIOS?PROG
  +--> ?CO?PROG
  +--> ?PR?PRINTF?PRINTF
  +--> ?PR?_INGRESADATO?PROG
  +--> ?PR?_ATOI?ATOI
  +--> ?PR?_PROG_HORARIOS_ON_OFF?PROG
  +--> ?PR?_WR_EEPROM?EEPROM
  +--> ?PR?_PROG_HORARIO_DIAS?PROG
  +--> ?PR?_PROG_HORARIO_DESDE_HASTA?PROG
  +--> ?PR?_RD_EEPROM?EEPROM

?PR?ADDR_HORARIOS?PROG                           -----    -----      -----    -----      0062H    000BH

?PR?_PROG_HORARIOS_ON_OFF?PROG                   -----    -----      -----    -----      0062H    0010H
  +--> ?PR?_RD_EEPROM?EEPROM
  +--> ?CO?PROG
  +--> ?PR?PRINTF?PRINTF
  +--> ?PR?_INGRESADATO?PROG
  +--> ?PR?_ATOI?ATOI
  +--> ?PR?_WR_EEPROM?EEPROM

?PR?_PROG_HORARIO_DIAS?PROG                      -----    -----      -----    -----      0062H    000FH
BL51 BANKED LINKER/LOCATER V6.22.2.0                                                  07/29/2020  18:03:03  PAGE 12


  +--> ?CO?PROG
  +--> ?PR?PRINTF?PRINTF
  +--> ?PR?_INGRESADATO?PROG
  +--> ?PR?_WR_EEPROM?EEPROM
  +--> ?PR?_RD_EEPROM?EEPROM

?PR?_PROG_HORARIO_DESDE_HASTA?PROG               -----    -----      -----    -----      0062H    000CH
  +--> ?CO?PROG
  +--> ?PR?PRINTF?PRINTF
  +--> ?PR?_INGRESADATO?PROG
  +--> ?PR?_WR_EEPROM?EEPROM
  +--> ?PR?_RD_EEPROM?EEPROM

?PR?PROG_VALIDAR_TIPO_VEHICULO_MENSUA...         -----    -----      -----    -----      0047H    000CH
  +--> ?PR?_RD_EEPROM?EEPROM
  +--> ?CO?PROG
  +--> ?PR?PRINTF?PRINTF
  +--> ?PR?_INGRESADATO?PROG
  +--> ?PR?_ATOI?ATOI
  +--> ?PR?_WR_EEPROM?EEPROM

?PR?PROG_APB_MENSUAL?PROG                        -----    -----      -----    -----      0047H    000CH
  +--> ?PR?_RD_EEPROM?EEPROM
  +--> ?CO?PROG
  +--> ?PR?PRINTF?PRINTF
  +--> ?PR?_INGRESADATO?PROG
  +--> ?PR?_ATOI?ATOI
  +--> ?PR?_WR_EEPROM?EEPROM

?PR?SHOW?PROG                                    -----    -----      -----    -----      -----    -----
  +--> ?CO?PROG
  +--> ?PR?PRINTF?PRINTF

?PR?PROG_FECHA_VENCIMIENTO?PROG                  -----    -----      -----    -----      0047H    0017H
  +--> ?PR?_LEERMEMORIA?EEPROM
  +--> ?PR?_HEX_ASCII?CLOCK
  +--> ?CO?PROG
  +--> ?PR?PRINTF?PRINTF
  +--> ?PR?_HASH_ID?PROG
  +--> ?PR?_INGRESADATO?PROG
  +--> ?PR?_GETCMD?PROG
  +--> ?PR?_ESCRIBIRMEMORIA?EEPROM
  +--> ?PR?_VALIDARCLAVE?PROG
  +--> ?PR?_ATOI?ATOI
  +--> ?PR?_WR_EEPROM?EEPROM

?PR?_HEX_ASCII?CLOCK                             -----    -----      -----    -----      005EH    0006H
  +--> ?PR?_HEX_BCD?CLOCK

?PR?VARIABLE_INICIO?MAIN                         -----    -----      -----    -----      -----    -----
  +--> ?PR?_RD_EEPROM?EEPROM

?PR?SECUENCIA_INICIO_EXPEDIDOR?VERIFI...         -----    -----      -----    -----      0002H    0001H
  +--> ?PR?_INICIALIZA?LINTECH
  +--> ?PR?TRAMA_VALIDACION_P_N?VERIFICADOR
  +--> ?CO?VERIFICADOR
  +--> ?PR?_DEBUG_TXT_TIBBO?TIBBO
BL51 BANKED LINKER/LOCATER V6.22.2.0                                                  07/29/2020  18:03:03  PAGE 13


  +--> ?PR?_DEBUGBUFFERMF?TIBBO
  +--> ?PR?DWLOAD_EEPROM?LINTECH

?PR?_INICIALIZA?LINTECH                          -----    -----      -----    -----      0003H    000CH
  +--> ?CO?LINTECH
  +--> ?PR?_DEBUG_TXT_TIBBO?TIBBO
  +--> ?PR?_DEBUGBUFFERMF?TIBBO
  +--> ?PR?_ESCRIBIRCADENASOFT_BUFFER?MAIN

?PR?_DEBUG_TXT_TIBBO?TIBBO                       -----    -----      -----    -----      0038H    0004H
  +--> ?PR?_DEBUG_CHR_TIBBO?TIBBO
  +--> ?CO?TIBBO
  +--> ?PR?_TX_AUX?TIBBO

?PR?_DEBUG_CHR_TIBBO?TIBBO                       -----    -----      -----    -----      -----    -----
  +--> ?PR?_TX_AUX?TIBBO

?PR?_DEBUGBUFFERMF?TIBBO                         -----    -----      -----    -----      0028H    0006H
  +--> ?CO?TIBBO
  +--> ?PR?_DEBUG_TXT_TIBBO?TIBBO
  +--> ?PR?_DEBUG_CHR_TIBBO?TIBBO
  +--> ?PR?_TX_AUX?TIBBO

?PR?_ESCRIBIRCADENASOFT_BUFFER?MAIN              -----    -----      -----    -----      0028H    0006H
  +--> ?PR?_PUTCHAR?MAIN

?PR?TRAMA_VALIDACION_P_N?VERIFICADOR             -----    -----      -----    -----      -----    -----
  +--> ?CO?VERIFICADOR
  +--> ?PR?_DEBUG_TXT_TIBBO?TIBBO

?PR?DWLOAD_EEPROM?LINTECH                        -----    -----      -----    -----      0003H    0016H
  +--> ?CO?LINTECH
  +--> ?PR?_DEBUG_TXT_TIBBO?TIBBO
  +--> ?PR?_DEBUGBUFFERMF?TIBBO
  +--> ?PR?_ESCRIBIRCADENASOFT_BUFFER?MAIN

?PR?RX_MONITOR?MONITOR                           -----    -----      -----    -----      0008H    000DH
  +--> ?PR?_RECIBE_CMD_MONITOR?MONITOR
  +--> ?PR?_DEBUG_MONITOR?TIBBO
  +--> ?PR?_VALIDA_TRAMA_MONITOR?MONITOR

?PR?_RECIBE_CMD_MONITOR?MONITOR                  -----    -----      -----    -----      0015H    0009H
  +--> ?PR?RX_DATA?TIBBO

?PR?RX_DATA?TIBBO                                -----    -----      -----    -----      -----    -----
  +--> ?PR?TIME_MBIT?TIBBO
  +--> ?PR?TIME_BIT?TIBBO

?PR?_DEBUG_MONITOR?TIBBO                         -----    -----      -----    -----      0015H    0004H
  +--> ?PR?DEBUG_DIVIDIR_TEXTO?TIBBO
  +--> ?CO?TIBBO
  +--> ?PR?_DEBUG_TXT_TIBBO?TIBBO

?PR?DEBUG_DIVIDIR_TEXTO?TIBBO                    -----    -----      -----    -----      -----    -----
  +--> ?CO?TIBBO
  +--> ?PR?_DEBUG_TXT_TIBBO?TIBBO

BL51 BANKED LINKER/LOCATER V6.22.2.0                                                  07/29/2020  18:03:03  PAGE 14


?PR?_VALIDA_TRAMA_MONITOR?MONITOR                -----    -----      -----    -----      0015H    0003H

?PR?_SECUENCIAEXPEDIDORMF?VERIFICADOR            -----    -----      -----    -----      0002H    0001H
  +--> ?PR?_CHECK_STATUS?LINTECH
  +--> ?PR?_LOAD_SECUENCIA_EXPEDIDOR?VERIFIC...
  +--> ?PR?_RTA_CMD_TRANSPORTE?VERIFICADOR
  +--> ?PR?RESPONDE_ESTADO_SENSORES_TRANSPOR...
  +--> ?PR?RESPONDE_TIPO_TARJETA?VERIFICADOR
  +--> ?PR?_RESPONDE_LECTURA_TARJETA_SECTOR1...
  +--> ?PR?_RESPONDE_LECTURA_TARJETA_SECTOR1...
  +--> ?PR?_RESPONDE_LECTURA_TARJETA_SECTOR1...
  +--> ?PR?_RESPONDE_WRITE_TARJETA_SECTOR1_B...
  +--> ?PR?_RESPONDE_WRITE_TARJETA_SECTOR2_B...
  +--> ?PR?_RESPONDE_WRITE_TARJETA_SECTOR1_B...
  +--> ?PR?_DISPARO_LOCK_ENTRADA_VEHICULO?VE...
  +--> ?PR?_RESPUESTA_SEGUNDA_CLAVE?VERIFICADOR
  +--> ?PR?ANALIZA_PRESENCIA_MENSUAL?VERIFIC...
  +--> ?PR?_ANALIZA_UID_CARD?VERIFICADOR
  +--> ?CO?VERIFICADOR
  +--> ?PR?_DEBUG_TXT_TIBBO?TIBBO
  +--> ?PR?_MOV_CARD?LINTECH
  +--> ?PR?_CARD_INSERCION?LINTECH
  +--> ?PR?AUT_CARD_CHECK_STATUS?LINTECH
  +--> ?PR?LOADVERIFY_EEPROM?LINTECH
  +--> ?PR?_RD_MF?LINTECH
  +--> ?PR?_WR_MF?LINTECH
  +--> ?PR?DWLOAD_EEPROM?LINTECH
  +--> ?PR?ENTREGA_CARD_CAPTURA?VERIFICADOR
  +--> ?PR?_SEND_PTO_PARALELO?VERIFICADOR
  +--> ?PR?_WAIT_PLACA?VERIFICADOR
  +--> ?PR?UNIQUE_IDENTIFIER_UID?LINTECH
  +--> ?PR?_PREGUNTA_LPR?VERIFICADOR
  +--> ?PR?_VALIDA_TIPO_TARJETA?VERIFICADOR
  +--> ?PR?ANALIZA_PRESENCIA_ROTACION?VERIFI...
  +--> ?PR?POWER_OFF?LINTECH

?PR?_CHECK_STATUS?LINTECH                        -----    -----      -----    -----      0003H    000BH
  +--> ?CO?LINTECH
  +--> ?PR?_DEBUG_TXT_TIBBO?TIBBO
  +--> ?PR?_DEBUGBUFFERMF?TIBBO
  +--> ?PR?_ESCRIBIRCADENASOFT_BUFFER?MAIN

?PR?_LOAD_SECUENCIA_EXPEDIDOR?VERIFIC...         -----    -----      -----    -----      0008H    0009H

?PR?_RTA_CMD_TRANSPORTE?VERIFICADOR              -----    -----      -----    -----      0003H    0005H
  +--> ?PR?TRAMA_VALIDACION_P_N?VERIFICADOR
  +--> ?CO?VERIFICADOR
  +--> ?PR?_DEBUG_TXT_TIBBO?TIBBO
  +--> ?PR?_DEBUGBUFFERMF?TIBBO
  +--> ?PR?ERROR_RX_PTO?VERIFICADOR

?PR?ERROR_RX_PTO?VERIFICADOR                     -----    -----      -----    -----      0008H    0001H
  +--> ?CO?VERIFICADOR
  +--> ?PR?_DEBUG_TXT_TIBBO?TIBBO
  +--> ?PR?_DEBUG_CHR_TIBBO?TIBBO
  +--> ?PR?_DELAY_10MS?DELAY

BL51 BANKED LINKER/LOCATER V6.22.2.0                                                  07/29/2020  18:03:03  PAGE 15


?PR?_DELAY_10MS?DELAY                            -----    -----      -----    -----      0009H    0004H
  +--> ?PR?_DELAY_1MS?DELAY

?PR?RESPONDE_ESTADO_SENSORES_TRANSPOR...         -----    -----      -----    -----      0003H    0001H
  +--> ?CO?VERIFICADOR
  +--> ?PR?_DEBUG_TXT_TIBBO?TIBBO
  +--> ?PR?_SEND_PORTERR?PTO_PARALELO
  +--> ?PR?INGRESO_VEHICULO?VERIFICADOR

?PR?_SEND_PORTERR?PTO_PARALELO                   -----    -----      -----    -----      002BH    0006H
  +--> ?PR?PULSO_BUS?PTO_PARALELO
  +--> ?PR?_DELAY_20US?DELAY

?PR?PULSO_BUS?PTO_PARALELO                       -----    -----      -----    -----      -----    -----
  +--> ?PR?_DELAY_20US?DELAY

?PR?INGRESO_VEHICULO?VERIFICADOR                 -----    -----      -----    -----      -----    -----
  +--> ?PR?VALIDASENSORESPASO?IO_SENSORES
  +--> ?PR?_RD_EEPROM?EEPROM
  +--> ?CO?VERIFICADOR
  +--> ?PR?_DEBUG_TXT_TIBBO?TIBBO
  +--> ?PR?_PANTALLALCD?PANTALLAS
  +--> ?PR?SEL_PULSA?IO_SENSORES

?PR?VALIDASENSORESPASO?IO_SENSORES               -----    -----      -----    -----      0011H    0001H
  +--> ?PR?SEL_SENSOR2?IO_SENSORES
  +--> ?PR?VALIDASENSOR?IO_SENSORES
  +--> ?PR?VALIDA_SENSOR1_AUTO?IO_SENSORES
  +--> ?CO?IO_SENSORES
  +--> ?PR?_DEBUG_TXT_TIBBO?TIBBO

?PR?VALIDA_SENSOR1_AUTO?IO_SENSORES              -----    -----      -----    -----      0012H    0001H
  +--> ?PR?SEL_SENSOR1?IO_SENSORES
  +--> ?PR?SEL_AUTO?IO_SENSORES
  +--> ?CO?IO_SENSORES
  +--> ?PR?_DEBUG_TXT_TIBBO?TIBBO

?PR?_PANTALLALCD?PANTALLAS                       -----    -----      -----    -----      002BH    0008H
  +--> ?CO?PANTALLAS
  +--> ?PR?_LCD_TXT?PANTALLAS
  +--> ?PR?_STRLEN?STRLEN
  +--> ?PR?_TX_CHRLCD?PANTALLAS
  +--> ?PR?RASPBERRY_DATA1?PANTALLAS

?PR?_LCD_TXT?PANTALLAS                           -----    -----      -----    -----      0033H    0005H
  +--> ?PR?_TX_CHRLCD?PANTALLAS

?PR?_TX_CHRLCD?PANTALLAS                         -----    -----      -----    -----      0038H    0002H
  +--> ?PR?_PUTCHAR?MAIN

?PR?RASPBERRY_DATA1?PANTALLAS                    -----    -----      -----    -----      0033H    0003H
  +--> ?PR?_STRLEN?STRLEN
  +--> ?PR?_PUTCHAR?MAIN

?PR?RESPONDE_TIPO_TARJETA?VERIFICADOR            -----    -----      -----    -----      0003H    0001H
  +--> ?CO?VERIFICADOR
  +--> ?PR?_DEBUG_TXT_TIBBO?TIBBO
BL51 BANKED LINKER/LOCATER V6.22.2.0                                                  07/29/2020  18:03:03  PAGE 16


  +--> ?PR?_SEND_PORTERR?PTO_PARALELO
  +--> ?PR?_PANTALLALCD?PANTALLAS
  +--> ?PR?CAPTURA_EXPULSA?VERIFICADOR

?PR?_RESPONDE_LECTURA_TARJETA_SECTOR1...         -----    -----      -----    -----      0003H    0016H
  +--> ?CO?VERIFICADOR
  +--> ?PR?_DEBUG_TXT_TIBBO?TIBBO
  +--> ?PR?_DEBUGBUFFERMF?TIBBO
  +--> ?PR?_RD_EEPROM?EEPROM
  +--> ?PR?_DEBUG_HEXDEC?TIBBO
  +--> ?PR?_DEBUG_CHR_TIBBO?TIBBO
  +--> ?PR?_SEND_PORTERR?PTO_PARALELO
  +--> ?PR?_PANTALLALCD?PANTALLAS
  +--> ?PR?CAPTURA_EXPULSA?VERIFICADOR

?PR?_DEBUG_HEXDEC?TIBBO                          -----    -----      -----    -----      0019H    0002H
  +--> ?PR?_TX_AUX?TIBBO

?PR?_RESPONDE_LECTURA_TARJETA_SECTOR1...         -----    -----      -----    -----      0003H    0004H
  +--> ?CO?VERIFICADOR
  +--> ?PR?_DEBUG_TXT_TIBBO?TIBBO
  +--> ?PR?CAPTURA_EXPULSA?VERIFICADOR

?PR?_RESPONDE_LECTURA_TARJETA_SECTOR1...         -----    -----      -----    -----      0003H    0015H
  +--> ?CO?VERIFICADOR
  +--> ?PR?_DEBUG_TXT_TIBBO?TIBBO
  +--> ?PR?_DEBUGBUFFERMF?TIBBO
  +--> ?PR?_DEBUG_CHR_TIBBO?TIBBO
  +--> ?PR?CAPTURA_EXPULSA?VERIFICADOR

?PR?_RESPONDE_WRITE_TARJETA_SECTOR1_B...         -----    -----      -----    -----      0003H    0007H
  +--> ?CO?VERIFICADOR
  +--> ?PR?_DEBUG_TXT_TIBBO?TIBBO
  +--> ?PR?_DEBUGBUFFERMF?TIBBO
  +--> ?PR?_ARMAR_TRAMA_TARJETA_SECTOR1_BLOQ...

?PR?_ARMAR_TRAMA_TARJETA_SECTOR1_BLOQ...         -----    -----      -----    -----      000AH    0003H
  +--> ?PR?LEE_NO_TICKET?EEPROM

?PR?LEE_NO_TICKET?EEPROM                         -----    -----      -----    -----      001CH    000BH
  +--> ?PR?READ_EEPROM_TICKET?EEPROM
  +--> ?CO?EEPROM
  +--> ?PR?PRINTF?PRINTF
  +--> ?PR?_STRLEN?STRLEN
  +--> ?PR?_DEBUG_TXT_TIBBO?TIBBO

?PR?READ_EEPROM_TICKET?EEPROM                    -----    -----      -----    -----      0027H    0007H
  +--> ?PR?_RD_EEPROM?EEPROM

?PR?_RESPONDE_WRITE_TARJETA_SECTOR2_B...         -----    -----      -----    -----      0003H    0003H
  +--> ?CO?VERIFICADOR
  +--> ?PR?_DEBUG_TXT_TIBBO?TIBBO
  +--> ?PR?_DEBUGBUFFERMF?TIBBO

?PR?_RESPONDE_WRITE_TARJETA_SECTOR1_B...         -----    -----      -----    -----      0003H    0003H
  +--> ?CO?VERIFICADOR
  +--> ?PR?_DEBUG_TXT_TIBBO?TIBBO
BL51 BANKED LINKER/LOCATER V6.22.2.0                                                  07/29/2020  18:03:03  PAGE 17


  +--> ?PR?_DEBUGBUFFERMF?TIBBO

?PR?_DISPARO_LOCK_ENTRADA_VEHICULO?VE...         -----    -----      -----    -----      0003H    0004H
  +--> ?CO?VERIFICADOR
  +--> ?PR?_DEBUG_TXT_TIBBO?TIBBO
  +--> ?PR?_PANTALLALCD?PANTALLAS
  +--> ?PR?_SEND_PORTERR?PTO_PARALELO
  +--> ?PR?_PANTALLALCD_LINEA_2?PANTALLAS
  +--> ?PR?VALIDA_SENSOR1_AUTO?IO_SENSORES

?PR?_PANTALLALCD_LINEA_2?PANTALLAS               -----    -----      -----    -----      0011H    000BH
  +--> ?CO?PANTALLAS
  +--> ?PR?_LCD_TXT?PANTALLAS
  +--> ?PR?_STRLEN?STRLEN
  +--> ?PR?_TX_CHRLCD?PANTALLAS
  +--> ?PR?RASPBERRY_DATA1?PANTALLAS
  +--> ?PR?LEE_NO_TICKET?EEPROM
  +--> ?PR?_STRCAT?STRCAT

?PR?_RESPUESTA_SEGUNDA_CLAVE?VERIFICADOR         -----    -----      -----    -----      0003H    0006H
  +--> ?CO?VERIFICADOR
  +--> ?PR?_DEBUG_TXT_TIBBO?TIBBO
  +--> ?PR?_DEBUGBUFFERMF?TIBBO
  +--> ?PR?_ARMAR_TRAMA_PLACA?VERIFICADOR

?PR?_ARMAR_TRAMA_PLACA?VERIFICADOR               -----    -----      -----    -----      0009H    0003H

?PR?ANALIZA_PRESENCIA_MENSUAL?VERIFIC...         -----    -----      -----    -----      0003H    0001H
  +--> ?PR?VALIDASENSORESPASO?IO_SENSORES
  +--> ?PR?_SEND_PORTERR?PTO_PARALELO
  +--> ?PR?_PANTALLALCD?PANTALLAS

?PR?_ANALIZA_UID_CARD?VERIFICADOR                -----    -----      -----    -----      0003H    0015H
  +--> ?CO?VERIFICADOR
  +--> ?PR?_DEBUG_TXT_TIBBO?TIBBO
  +--> ?PR?_DEBUGBUFFERMF?TIBBO
  +--> ?PR?_DEBUG_CHR_TIBBO?TIBBO

?PR?_MOV_CARD?LINTECH                            -----    -----      -----    -----      0003H    000CH
  +--> ?CO?LINTECH
  +--> ?PR?_DEBUG_TXT_TIBBO?TIBBO
  +--> ?PR?_DEBUGBUFFERMF?TIBBO
  +--> ?PR?_ESCRIBIRCADENASOFT_BUFFER?MAIN

?PR?_CARD_INSERCION?LINTECH                      -----    -----      -----    -----      0003H    000AH
  +--> ?CO?LINTECH
  +--> ?PR?_DEBUG_TXT_TIBBO?TIBBO
  +--> ?PR?_DEBUGBUFFERMF?TIBBO
  +--> ?PR?_ESCRIBIRCADENASOFT_BUFFER?MAIN

?PR?AUT_CARD_CHECK_STATUS?LINTECH                -----    -----      -----    -----      0003H    000BH
  +--> ?CO?LINTECH
  +--> ?PR?_DEBUG_TXT_TIBBO?TIBBO
  +--> ?PR?_DEBUGBUFFERMF?TIBBO
  +--> ?PR?_ESCRIBIRCADENASOFT_BUFFER?MAIN

?PR?LOADVERIFY_EEPROM?LINTECH                    -----    -----      -----    -----      0003H    0010H
BL51 BANKED LINKER/LOCATER V6.22.2.0                                                  07/29/2020  18:03:03  PAGE 18


  +--> ?CO?LINTECH
  +--> ?PR?_DEBUG_TXT_TIBBO?TIBBO
  +--> ?PR?_DEBUGBUFFERMF?TIBBO
  +--> ?PR?_ESCRIBIRCADENASOFT_BUFFER?MAIN

?PR?_RD_MF?LINTECH                               -----    -----      -----    -----      0003H    0012H
  +--> ?CO?LINTECH
  +--> ?PR?_DEBUG_TXT_TIBBO?TIBBO
  +--> ?PR?_DEBUG_CHR_TIBBO?TIBBO
  +--> ?PR?_DEBUGBUFFERMF?TIBBO
  +--> ?PR?_ESCRIBIRCADENASOFT_BUFFER?MAIN

?PR?_WR_MF?LINTECH                               -----    -----      -----    -----      0003H    0025H
  +--> ?CO?LINTECH
  +--> ?PR?_DEBUG_TXT_TIBBO?TIBBO
  +--> ?PR?_DEBUG_CHR_TIBBO?TIBBO
  +--> ?PR?_DEBUGBUFFERMF?TIBBO
  +--> ?PR?_ESCRIBIRCADENASOFT_BUFFER?MAIN

?PR?ENTREGA_CARD_CAPTURA?VERIFICADOR             -----    -----      -----    -----      0003H    0001H
  +--> ?CO?VERIFICADOR
  +--> ?PR?_DEBUG_TXT_TIBBO?TIBBO
  +--> ?PR?SEL_SENSOR2?IO_SENSORES
  +--> ?PR?VALIDASENSOR?IO_SENSORES
  +--> ?PR?VALIDA_SENSOR1_AUTO?IO_SENSORES

?PR?_SEND_PTO_PARALELO?VERIFICADOR               -----    -----      -----    -----      0003H    0003H
  +--> ?PR?_ARMAR_TRAMA_PTO_PARALELO_EXPEDID...
  +--> ?PR?ARMAR_TRAMA_PTO_PARALELO_EXPEDIDO...
  +--> ?PR?INCREMENTE_TICKET?EEPROM
  +--> ?PR?_STRLEN?STRLEN
  +--> ?PR?_SEND_PORT?PTO_PARALELO
  +--> ?CO?VERIFICADOR
  +--> ?PR?_DEBUG_TXT_TIBBO?TIBBO
  +--> ?PR?_DEBUGBUFFERMF?TIBBO
  +--> ?PR?CLEAR_PLACA?MONITOR

?PR?_ARMAR_TRAMA_PTO_PARALELO_EXPEDID...         -----    -----      -----    -----      0006H    0003H
  +--> ?PR?_BLOCK_READ_CLOCK_HEX?CLOCK
  +--> ?PR?_RD_EEPROM?EEPROM

?PR?ARMAR_TRAMA_PTO_PARALELO_EXPEDIDO...         -----    -----      -----    -----      0006H    000CH
  +--> ?PR?LEE_NO_TICKET?EEPROM
  +--> ?PR?_STRCAT?STRCAT
  +--> ?PR?_STRLEN?STRLEN
  +--> ?PR?_BLOCK_READ_CLOCK_HEX?CLOCK
  +--> ?PR?_RD_EEPROM?EEPROM

?PR?INCREMENTE_TICKET?EEPROM                     -----    -----      -----    -----      0006H    000BH
  +--> ?PR?READ_EEPROM_TICKET?EEPROM
  +--> ?CO?EEPROM
  +--> ?PR?PRINTF?PRINTF
  +--> ?PR?_WRITE_EEPROM_TICKET?EEPROM

?PR?_WRITE_EEPROM_TICKET?EEPROM                  -----    -----      -----    -----      0016H    000BH
  +--> ?CO?EEPROM
  +--> ?PR?_DEBUG_TXT_TIBBO?TIBBO
BL51 BANKED LINKER/LOCATER V6.22.2.0                                                  07/29/2020  18:03:03  PAGE 19


  +--> ?PR?_ATOL?ATOL
  +--> ?PR?_DEBUG_CHR_TIBBO?TIBBO
  +--> ?PR?_WR_EEPROM?EEPROM

?PR?_ATOL?ATOL                                   0020H.0  0000H.1    -----    -----      0021H    0007H
  +--> ?PR?_ISSPACE?ISSPACE
  +--> ?PR?_ISDIGIT?ISDIGIT

?PR?_SEND_PORT?PTO_PARALELO                      -----    -----      -----    -----      0016H    000AH
  +--> ?PR?PULSO_BUS?PTO_PARALELO
  +--> ?PR?_DELAY_20US?DELAY

?PR?_WAIT_PLACA?VERIFICADOR                      -----    -----      -----    -----      0003H    0005H
  +--> ?PR?RX_MONITOR?MONITOR
  +--> ?PR?CLAVE_SEGURIDAD_S2?LINTECH
  +--> ?PR?_LOAD_SECUENCIA_EXPEDIDOR?VERIFIC...

?PR?CLAVE_SEGURIDAD_S2?LINTECH                   -----    -----      -----    -----      0008H    0016H
  +--> ?CO?LINTECH
  +--> ?PR?_DEBUG_TXT_TIBBO?TIBBO
  +--> ?PR?_DEBUGBUFFERMF?TIBBO
  +--> ?PR?_ESCRIBIRCADENASOFT_BUFFER?MAIN

?PR?UNIQUE_IDENTIFIER_UID?LINTECH                -----    -----      -----    -----      0003H    000BH
  +--> ?CO?LINTECH
  +--> ?PR?_DEBUG_TXT_TIBBO?TIBBO
  +--> ?PR?_DEBUGBUFFERMF?TIBBO
  +--> ?PR?_ESCRIBIRCADENASOFT_BUFFER?MAIN

?PR?_PREGUNTA_LPR?VERIFICADOR                    -----    -----      -----    -----      0003H    0004H
  +--> ?PR?_RD_EEPROM?EEPROM
  +--> ?PR?_ARMAR_TRAMA_MONITOR?VERIFICADOR
  +--> ?PR?_DEBUG_TXT_TIBBO?TIBBO

?PR?_ARMAR_TRAMA_MONITOR?VERIFICADOR             -----    -----      -----    -----      0007H    000FH
  +--> ?PR?DIR_BOARD?IO_SENSORES
  +--> ?PR?LEE_NO_TICKET?EEPROM
  +--> ?PR?_STRCAT?STRCAT
  +--> ?PR?_BYTEHEX_DECIMAL?CLOCK
  +--> ?PR?_STRLEN?STRLEN
  +--> ?PR?_TWO_BYTEHEX_DECIMAL?CLOCK
  +--> ?PR?_BLOCK_READ_CLOCK_ASCII?CLOCK

?PR?DIR_BOARD?IO_SENSORES                        -----    -----      -----    -----      0033H    0001H
  +--> ?PR?SEL_DIR1?IO_SENSORES
  +--> ?PR?SEL_DIR2?IO_SENSORES
  +--> ?PR?_RD_EEPROM?EEPROM

?PR?_BYTEHEX_DECIMAL?CLOCK                       -----    -----      -----    -----      0016H    0001H

?PR?_TWO_BYTEHEX_DECIMAL?CLOCK                   -----    -----      -----    -----      0016H    000CH
  +--> ?PR?_POW?POW

?PR?_POW?POW                                     -----    -----      -----    -----      0022H    000AH
  +--> ?PR?LOG?LOG
  +--> ?PR?EXP?EXP

BL51 BANKED LINKER/LOCATER V6.22.2.0                                                  07/29/2020  18:03:03  PAGE 20


?PR?LOG?LOG                                      0020H.0  0000H.1    -----    -----      002CH    0004H

?PR?_VALIDA_TIPO_TARJETA?VERIFICADOR             -----    -----      -----    -----      0003H    0007H
  +--> ?CO?VERIFICADOR
  +--> ?PR?_DEBUG_TXT_TIBBO?TIBBO
  +--> ?PR?_RD_EEPROM?EEPROM
  +--> ?PR?_SEND_PORTERR?PTO_PARALELO
  +--> ?PR?_TARJETA_MENSUAL?VERIFICADOR
  +--> ?PR?_PANTALLALCD?PANTALLAS
  +--> ?PR?CAPTURA_EXPULSA?VERIFICADOR
  +--> ?PR?_TARJETA_ROTACION?VERIFICADOR

?PR?_TARJETA_MENSUAL?VERIFICADOR                 -----    -----      -----    -----      000AH    0007H
  +--> ?PR?_HORARIOS?VERIFICADOR
  +--> ?PR?_CHECK_FECHAOUT?CLOCK
  +--> ?PR?_VALIDA_VEHICULO_CARD_MENSUAL?VER...
  +--> ?PR?CAPTURA_EXPULSA?VERIFICADOR
  +--> ?CO?VERIFICADOR
  +--> ?PR?_DEBUG_TXT_TIBBO?TIBBO
  +--> ?PR?_ARMAR_TRAMA_TARJETA_SECTOR1_BLOQ...
  +--> ?PR?_SEND_PORTERR?PTO_PARALELO
  +--> ?PR?_PANTALLALCD?PANTALLAS

?PR?_HORARIOS?VERIFICADOR                        -----    -----      -----    -----      0011H    0013H
  +--> ?PR?ADDR_HORARIOS?PROG
  +--> ?PR?_RD_EEPROM?EEPROM
  +--> ?PR?_LEE_CLK?CLOCK
  +--> ?CO?VERIFICADOR
  +--> ?PR?_DEBUG_TXT_TIBBO?TIBBO
  +--> ?PR?_DEBUG_CHR_TIBBO?TIBBO
  +--> ?PR?_BLOQUE_HORARIO?VERIFICADOR
  +--> ?PR?_PANTALLALCD?PANTALLAS

?PR?_BLOQUE_HORARIO?VERIFICADOR                  -----    -----      -----    -----      0024H    0007H
  +--> ?CO?VERIFICADOR
  +--> ?PR?_DEBUG_TXT_TIBBO?TIBBO
  +--> ?PR?_LEE_CLK?CLOCK
  +--> ?PR?_DEBUG_CHR_TIBBO?TIBBO
  +--> ?PR?_HORA_MAXIMA?VERIFICADOR
  +--> ?PR?_EN_HORARIO?VERIFICADOR
  +--> ?PR?_RD_EEPROM?EEPROM
  +--> ?PR?_SEND_PORTERR?PTO_PARALELO
  +--> ?PR?_PANTALLALCD?PANTALLAS

?PR?_HORA_MAXIMA?VERIFICADOR                     -----    -----      -----    -----      0030H    0008H
  +--> ?PR?_RD_EEPROM?EEPROM
  +--> ?PR?_DEBUG_CHR_TIBBO?TIBBO
  +--> ?CO?VERIFICADOR
  +--> ?PR?_DEBUG_TXT_TIBBO?TIBBO

?PR?_EN_HORARIO?VERIFICADOR                      -----    -----      -----    -----      002BH    0005H
  +--> ?CO?VERIFICADOR
  +--> ?PR?_DEBUG_TXT_TIBBO?TIBBO
  +--> ?PR?_HORA_MAXIMA?VERIFICADOR

?PR?_VALIDA_VEHICULO_CARD_MENSUAL?VER...         -----    -----      -----    -----      0011H    0004H
  +--> ?CO?VERIFICADOR
BL51 BANKED LINKER/LOCATER V6.22.2.0                                                  07/29/2020  18:03:03  PAGE 21


  +--> ?PR?_DEBUG_TXT_TIBBO?TIBBO
  +--> ?PR?_RD_EEPROM?EEPROM
  +--> ?PR?_SEND_PORTERR?PTO_PARALELO

?PR?_ARMAR_TRAMA_TARJETA_SECTOR1_BLOQ...         -----    -----      -----    -----      0011H    0006H
  +--> ?PR?_BLOCK_READ_CLOCK_HEX?CLOCK
  +--> ?PR?DIR_BOARD?IO_SENSORES

?PR?_TARJETA_ROTACION?VERIFICADOR                -----    -----      -----    -----      000AH    0006H
  +--> ?PR?_ARMAR_TRAMA_TARJETA_SECTOR1_BLOQ...

?PR?ANALIZA_PRESENCIA_ROTACION?VERIFI...         -----    -----      -----    -----      0003H    0001H
  +--> ?PR?VALIDASENSORESPASO?IO_SENSORES
  +--> ?PR?_SEND_PORTERR?PTO_PARALELO
  +--> ?PR?_PANTALLALCD?PANTALLAS

?PR?POWER_OFF?LINTECH                            -----    -----      -----    -----      0003H    000BH
  +--> ?CO?LINTECH
  +--> ?PR?_DEBUG_TXT_TIBBO?TIBBO
  +--> ?PR?_DEBUGBUFFERMF?TIBBO
  +--> ?PR?_ESCRIBIRCADENASOFT_BUFFER?MAIN

?PR?_RECIBE_PORT?PTO_PARALELO                    -----    -----      -----    -----      0002H    0008H
  +--> ?PR?OFF_TIMER0_INTERRUP?MAIN
  +--> ?PR?ON_TIMER0_INTERRUP?MAIN

?PR?_DEBUG_PTO_PARALELO?TIBBO                    -----    -----      -----    -----      0002H    0004H
  +--> ?PR?DEBUG_DIVIDIR_TEXTO?TIBBO
  +--> ?CO?TIBBO
  +--> ?PR?_DEBUG_TXT_TIBBO?TIBBO
  +--> ?PR?_DEBUGBUFFERMF?TIBBO

?PR?_VALIDA_TRAMA_PTO?ACCESCAN                   -----    -----      -----    -----      0002H    000FH
  +--> ?PR?_VALIDAR_CLK?CLOCK
  +--> ?PR?_BLOCK_WRITE_CLOCK_ASCII?CLOCK
  +--> ?PR?RELOJ_PANTALLA_LCD?PANTALLAS
  +--> ?PR?_PANTALLALCD?PANTALLAS
  +--> ?CO?ACCESCAN
  +--> ?PR?_DEBUG_TXT_TIBBO?TIBBO
  +--> ?PR?_BYTEHEX_DECIMAL?CLOCK
  +--> ?PR?_TWO_BYTEHEX_DECIMAL?CLOCK
  +--> ?PR?VALIDASENSORESPASO?IO_SENSORES
  +--> ?PR?_CMD_LPR_SALIDA_WIEGAND?ACCESCAN
  +--> ?PR?_PANTALLALCD_LINEA_2?PANTALLAS
  +--> ?PR?_GRABA_SERIE?EEPROM

?PR?_BLOCK_WRITE_CLOCK_ASCII?CLOCK               -----    -----      -----    -----      0011H    0003H
  +--> ?PR?_TWO_ONE?CLOCK
  +--> ?PR?_WR_CLK?CLOCK

?PR?_WR_CLK?CLOCK                                -----    -----      -----    -----      0014H    0002H
  +--> ?PR?_DELAY_20US?DELAY
  +--> ?PR?_EB_CLK?CLOCK

?PR?RELOJ_PANTALLA_LCD?PANTALLAS                 -----    -----      -----    -----      0011H    000DH
  +--> ?CO?PANTALLAS
  +--> ?PR?_BLOCK_READ_CLOCK?CLOCK
BL51 BANKED LINKER/LOCATER V6.22.2.0                                                  07/29/2020  18:03:03  PAGE 22


  +--> ?PR?_LCD_TXT_NUM_CHAR?PANTALLAS
  +--> ?PR?RASPBERRY_DATA1?PANTALLAS

?PR?_BLOCK_READ_CLOCK?CLOCK                      -----    -----      -----    -----      001EH    0003H
  +--> ?PR?_LEE_CLK?CLOCK

?PR?_LCD_TXT_NUM_CHAR?PANTALLAS                  -----    -----      -----    -----      001EH    0006H
  +--> ?PR?_TX_CHRLCD?PANTALLAS

?PR?_CMD_LPR_SALIDA_WIEGAND?ACCESCAN             -----    -----      -----    -----      0011H    0022H
  +--> ?PR?DIR_BOARD?IO_SENSORES
  +--> ?PR?_BLOCK_READ_CLOCK_ASCII?CLOCK
  +--> ?PR?_MONITOR_CHR?ACCESCAN

?PR?_MONITOR_CHR?ACCESCAN                        -----    -----      -----    -----      0033H    0005H
  +--> ?PR?_TX_AUX?TIBBO

?PR?_GRABA_SERIE?EEPROM                          -----    -----      -----    -----      0011H    0005H
  +--> ?CO?EEPROM
  +--> ?PR?_DEBUG_TXT_TIBBO?TIBBO
  +--> ?PR?_WRITE_EEPROM_TICKET?EEPROM
  +--> ?PR?_WR_EEPROM?EEPROM

?PR?MSJ_LCD_INFORMATIVO?IO_SENSORES              -----    -----      -----    -----      0002H    0001H
  +--> ?PR?SEL_FUNCION?IO_SENSORES
  +--> ?PR?LOAD_AND_SEND_INFO_RELOJ?PTO_PARA...
  +--> ?PR?LOAD_AND_SEND_ID_COD?PTO_PARALELO
  +--> ?PR?_RD_EEPROM?EEPROM
  +--> ?PR?_SEND_PORTERR?PTO_PARALELO

?PR?LOAD_AND_SEND_INFO_RELOJ?PTO_PARA...         -----    -----      -----    -----      0003H    000BH
  +--> ?PR?_BLOCK_READ_CLOCK?CLOCK
  +--> ?PR?_LEE_CLK?CLOCK
  +--> ?PR?_SEND_PORT?PTO_PARALELO

?PR?LOAD_AND_SEND_ID_COD?PTO_PARALELO            -----    -----      -----    -----      0003H    0013H
  +--> ?PR?_RD_EEPROM?EEPROM
  +--> ?CO?PTO_PARALELO
  +--> ?PR?PRINTF?PRINTF
  +--> ?PR?_SEND_PORT?PTO_PARALELO



SYMBOL TABLE OF MODULE:  .\Objects\expedidor_v_01_raspberry (MAIN)

  VALUE           TYPE          NAME
  ----------------------------------

  -------         MODULE        MAIN
  C:0000H         SYMBOL        _ICE_DUMMY_
  D:0080H         PUBLIC        P0
  D:0090H         PUBLIC        P1
  C:A0E4H         PUBLIC        timer0_int
  D:00B0H         PUBLIC        P3
  B:00A8H.7       PUBLIC        EA
  C:A4E1H         PUBLIC        off_Timer0_Interrup
  X:016AH         PUBLIC        ValTimeOutCom
BL51 BANKED LINKER/LOCATER V6.22.2.0                                                  07/29/2020  18:03:03  PAGE 23


  X:016BH         PUBLIC        Buffer_Rta_Lintech
  X:019DH         PUBLIC        Timer_wait
  X:019EH         PUBLIC        g_cContByteRx
  B:0080H.0       PUBLIC        rx_ip
  B:0080H.3       PUBLIC        Atascado
  C:8DB2H         PUBLIC        main
  X:019FH         PUBLIC        Timer_tivo
  C:98ACH         PUBLIC        variable_inicio
  B:0090H.7       PUBLIC        lock
  I:0022H         PUBLIC        rbuf
  C:A4D2H         PUBLIC        on_Timer0_Interrup
  I:0054H         PUBLIC        tbuf
  B:0090H.1       PUBLIC        DataIn
  D:0089H         PUBLIC        TMOD
  X:01A1H         PUBLIC        USE_LPR
  X:01A2H         PUBLIC        Debug_Tibbo
  X:01A3H         PUBLIC        Raspberry
  X:01A4H         PUBLIC        SIN_COBRO
  X:01A6H         PUBLIC        Tipo_Vehiculo
  B:00B0H.3       PUBLIC        busy
  C:A43DH         PUBLIC        ini_timer
  B:00A8H.1       PUBLIC        ET0
  B:0088H.5       PUBLIC        TF0
  D:008CH         PUBLIC        TH0
  X:01A7H         PUBLIC        ACK
  X:01A8H         PUBLIC        g_cEstadoComSoft
  D:008AH         PUBLIC        TL0
  B:0088H.4       PUBLIC        TR0
  C:A44DH         PUBLIC        inicia_board
  X:01A9H         PUBLIC        T_GRACIA
  B:0080H.7       PUBLIC        sel_com
  X:01ABH         PUBLIC        STX_LINTECH
  C:A46CH         PUBLIC        _getkey
  X:01ACH         PUBLIC        ETX
  C:9AFCH         PUBLIC        _EscribirCadenaSoft_buffer
  B:0021H.1       PUBLIC        buffer_ready
  C:9D98H         PUBLIC        _putchar
  B:0021H.2       PUBLIC        placa_ready
  -------         PROC          TIMER0_INT
  C:A0E4H         LINE#         16
  C:A0EAH         LINE#         19
  C:A0F0H         LINE#         20
  C:A0F5H         LINE#         21
  C:A0F5H         LINE#         22
  C:A0FBH         LINE#         23
  C:A0FBH         LINE#         25
  C:A109H         LINE#         26
  C:A10BH         LINE#         28
  -------         ENDPROC       TIMER0_INT
  -------         PROC          INI_TIMER
  C:A43DH         LINE#         31
  C:A43DH         LINE#         32
  C:A43DH         LINE#         34
  C:A445H         LINE#         36
  C:A448H         LINE#         37
  C:A44AH         LINE#         38
  C:A44CH         LINE#         40
BL51 BANKED LINKER/LOCATER V6.22.2.0                                                  07/29/2020  18:03:03  PAGE 24


  -------         ENDPROC       INI_TIMER
  -------         PROC          ON_TIMER0_INTERRUP
  C:A4D2H         LINE#         43
  C:A4D2H         LINE#         44
  C:A4D2H         LINE#         45
  C:A4D4H         LINE#         46
  C:A4D6H         LINE#         48
  -------         ENDPROC       ON_TIMER0_INTERRUP
  -------         PROC          OFF_TIMER0_INTERRUP
  C:A4E1H         LINE#         51
  C:A4E1H         LINE#         52
  C:A4E1H         LINE#         53
  C:A4E3H         LINE#         55
  -------         ENDPROC       OFF_TIMER0_INTERRUP
  -------         PROC          _GETKEY
  -------         DO            
  D:0006H         SYMBOL        k
  -------         ENDDO         
  C:A46CH         LINE#         63
  C:A46CH         LINE#         64
  C:A46CH         LINE#         68
  C:A46CH         LINE#         69
  C:A46FH         LINE#         70
  C:A46FH         LINE#         71
  C:A477H         LINE#         73
  C:A477H         LINE#         74
  -------         ENDPROC       _GETKEY
  -------         PROC          _PUTCHAR
  X:00A6H         SYMBOL        c
  -------         DO            
  X:00A7H         SYMBOL        i
  -------         ENDDO         
  C:9D98H         LINE#         78
  C:9D9DH         LINE#         79
  C:9D9DH         LINE#         82
  C:9DACH         LINE#         83
  C:9DACH         LINE#         84
  C:9DC2H         LINE#         85
  C:9DC2H         LINE#         87
  C:9DD0H         LINE#         88
  C:9DD0H         LINE#         90
  C:9DD5H         LINE#         91
  -------         ENDPROC       _PUTCHAR
  -------         PROC          _ESCRIBIRCADENASOFT_BUFFER
  X:0028H         SYMBOL        buffer
  X:002BH         SYMBOL        tamano_cadena
  -------         DO            
  X:002CH         SYMBOL        i
  X:002DH         SYMBOL        d
  -------         ENDDO         
  C:9AFCH         LINE#         95
  C:9B0AH         LINE#         96
  C:9B0AH         LINE#         98
  C:9B18H         LINE#         99
  C:9B18H         LINE#         100
  C:9B2FH         LINE#         101
  C:9B39H         LINE#         102
BL51 BANKED LINKER/LOCATER V6.22.2.0                                                  07/29/2020  18:03:03  PAGE 25


  C:9B41H         LINE#         103
  -------         ENDPROC       _ESCRIBIRCADENASOFT_BUFFER
  -------         PROC          INICIA_BOARD
  C:A44DH         LINE#         108
  C:A44DH         LINE#         109
  C:A44DH         LINE#         110
  C:A450H         LINE#         111
  C:A453H         LINE#         112
  C:A456H         LINE#         113
  C:A458H         LINE#         114
  C:A45AH         LINE#         115
  C:A45CH         LINE#         117
  -------         ENDPROC       INICIA_BOARD
  -------         PROC          VARIABLE_INICIO
  C:98ACH         LINE#         122
  C:98ACH         LINE#         123
  C:98ACH         LINE#         126
  C:98BDH         LINE#         127
  C:98CEH         LINE#         128
  C:98DCH         LINE#         129
  C:98EAH         LINE#         130
  C:98F8H         LINE#         132
  -------         ENDPROC       VARIABLE_INICIO
  -------         PROC          MAIN
  -------         DO            
  X:0142H         SYMBOL        buffer
  X:0000H         SYMBOL        Estado_Comunicacion_Secuencia_MF
  X:0001H         SYMBOL        Length_trama
  -------         ENDDO         
  C:8DB2H         LINE#         140
  C:8DB2H         LINE#         141
  C:8DB2H         LINE#         144
  C:8DB7H         LINE#         148
  C:8DBAH         LINE#         149
  C:8DBDH         LINE#         150
  C:8DC0H         LINE#         151
  C:8DC3H         LINE#         152
  C:8DC6H         LINE#         153
  C:8DC8H         LINE#         155
  C:8DCBH         LINE#         156
  C:8DD2H         LINE#         157
  C:8DD5H         LINE#         159
  C:8DDAH         LINE#         161
  C:8DDDH         LINE#         163
  C:8DE0H         LINE#         164
  C:8DE0H         LINE#         165
  C:8DE3H         LINE#         166
  C:8DE3H         LINE#         169
  C:8DE6H         LINE#         170
  C:8DECH         LINE#         171
  C:8DF2H         LINE#         173
  C:8DF2H         LINE#         174
  C:8DF2H         LINE#         177
  C:8DF5H         LINE#         178
  C:8DF5H         LINE#         179
  C:8DF8H         LINE#         180
  C:8DF8H         LINE#         184
BL51 BANKED LINKER/LOCATER V6.22.2.0                                                  07/29/2020  18:03:03  PAGE 26


  C:8E05H         LINE#         189
  C:8E08H         LINE#         190
  C:8E08H         LINE#         192
  C:8E17H         LINE#         194
  C:8E20H         LINE#         196
  C:8E2EH         LINE#         198
  C:8E2EH         LINE#         199
  C:8E31H         LINE#         203
  -------         ENDPROC       MAIN
  -------         ENDMOD        MAIN

  -------         MODULE        ACCESCAN
  C:0000H         SYMBOL        _ICE_DUMMY_
  D:0080H         PUBLIC        P0
  D:0090H         PUBLIC        P1
  B:0080H.2       PUBLIC        led_err_imp
  C:9C97H         PUBLIC        _Monitor_chr
  B:0080H.3       PUBLIC        Atascado
  B:0090H.7       PUBLIC        lock
  C:3671H         PUBLIC        _Valida_Trama_Pto
  C:70CEH         PUBLIC        _Cmd_LPR_Salida_wiegand
  -------         PROC          _VALIDA_TRAMA_PTO
  X:0002H         SYMBOL        buffer
  X:0005H         SYMBOL        length_trama
  -------         DO            
  X:020CH         SYMBOL        cont
  X:0006H         SYMBOL        buff
  -------         ENDDO         
  C:3671H         LINE#         85
  C:367FH         LINE#         86
  C:367FH         LINE#         92
  C:36B5H         LINE#         93
  C:36B5H         LINE#         94
  C:36CAH         LINE#         95
  C:36CAH         LINE#         96
  C:36DDH         LINE#         98
  C:36E0H         LINE#         100
  C:36E0H         LINE#         102
  C:36E0H         LINE#         104
  C:36F2H         LINE#         105
  C:36F2H         LINE#         106
  C:36F8H         LINE#         107
  C:3705H         LINE#         108
  C:3705H         LINE#         109
  C:370AH         LINE#         110
  C:370CH         LINE#         111
  C:3711H         LINE#         112
  C:3713H         LINE#         113
  C:3715H         LINE#         114
  C:3719H         LINE#         115
  C:3719H         LINE#         116
  C:371AH         LINE#         118
  C:3732H         LINE#         119
  C:3732H         LINE#         121
  C:373FH         LINE#         122
  C:373FH         LINE#         123
  C:3741H         LINE#         124
BL51 BANKED LINKER/LOCATER V6.22.2.0                                                  07/29/2020  18:03:03  PAGE 27


  C:3743H         LINE#         125
  C:3745H         LINE#         126
  C:3747H         LINE#         127
  C:3747H         LINE#         129
  C:376DH         LINE#         130
  C:376DH         LINE#         131
  C:3771H         LINE#         132
  C:3776H         LINE#         133
  C:377FH         LINE#         134
  C:3784H         LINE#         135
  C:3784H         LINE#         138
  C:3785H         LINE#         141
  C:3797H         LINE#         142
  C:3797H         LINE#         143
  C:3799H         LINE#         144
  C:379CH         LINE#         146
  C:37AEH         LINE#         147
  C:37AEH         LINE#         148
  C:37B0H         LINE#         149
  C:37B3H         LINE#         151
  C:37CDH         LINE#         152
  C:37CDH         LINE#         153
  C:37CFH         LINE#         154
  C:37D2H         LINE#         157
  C:37ECH         LINE#         158
  C:37ECH         LINE#         159
  C:37EEH         LINE#         160
  C:37F0H         LINE#         163
  C:380AH         LINE#         164
  C:380AH         LINE#         165
  C:380CH         LINE#         166
  C:380EH         LINE#         170
  C:3828H         LINE#         171
  C:3828H         LINE#         172
  C:382AH         LINE#         173
  C:382CH         LINE#         176
  C:3846H         LINE#         177
  C:3846H         LINE#         178
  C:3848H         LINE#         179
  C:384AH         LINE#         181
  C:3864H         LINE#         182
  C:3864H         LINE#         183
  C:3869H         LINE#         184
  C:3869H         LINE#         186
  C:3899H         LINE#         187
  C:3899H         LINE#         188
  C:38A7H         LINE#         189
  C:38AAH         LINE#         192
  C:38EDH         LINE#         193
  C:38EDH         LINE#         195
  C:3902H         LINE#         196
  C:3908H         LINE#         197
  C:3932H         LINE#         200
  C:393AH         LINE#         201
  C:393AH         LINE#         204
  C:3941H         LINE#         205
  C:3941H         LINE#         206
BL51 BANKED LINKER/LOCATER V6.22.2.0                                                  07/29/2020  18:03:03  PAGE 28


  C:3946H         LINE#         207
  C:3946H         LINE#         208
  C:3948H         LINE#         210
  C:3948H         LINE#         211
  C:3951H         LINE#         212
  C:3959H         LINE#         213
  C:3959H         LINE#         218
  C:395BH         LINE#         221
  C:395BH         LINE#         224
  C:3962H         LINE#         225
  C:3962H         LINE#         226
  C:3967H         LINE#         227
  C:3967H         LINE#         228
  C:3972H         LINE#         232
  C:3972H         LINE#         233
  C:3972H         LINE#         235
  C:399FH         LINE#         236
  C:399FH         LINE#         237
  C:39AEH         LINE#         239
  C:39AEH         LINE#         241
  -------         ENDPROC       _VALIDA_TRAMA_PTO
  -------         PROC          _MONITOR_CHR
  X:0033H         SYMBOL        str
  X:0036H         SYMBOL        num_char
  -------         DO            
  X:0037H         SYMBOL        j
  -------         ENDDO         
  C:9C97H         LINE#         396
  C:9CA5H         LINE#         397
  C:9CA5H         LINE#         399
  C:9CB3H         LINE#         400
  C:9CB3H         LINE#         401
  C:9CC5H         LINE#         402
  C:9CCFH         LINE#         403
  C:9CD7H         LINE#         404
  -------         ENDPROC       _MONITOR_CHR
  -------         PROC          _CMD_LPR_SALIDA_WIEGAND
  X:0011H         SYMBOL        buffer
  -------         DO            
  X:0014H         SYMBOL        Buffer_Lpr
  X:0032H         SYMBOL        j
  -------         ENDDO         
  C:70CEH         LINE#         409
  C:70D9H         LINE#         410
  C:70D9H         LINE#         412
  C:70DFH         LINE#         413
  C:70E4H         LINE#         414
  C:70ECH         LINE#         415
  C:70F0H         LINE#         416
  C:70F9H         LINE#         417
  C:70F9H         LINE#         418
  C:710AH         LINE#         419
  C:710CH         LINE#         421
  C:710CH         LINE#         422
  C:711DH         LINE#         423
  C:711DH         LINE#         427
  C:7134H         LINE#         428
BL51 BANKED LINKER/LOCATER V6.22.2.0                                                  07/29/2020  18:03:03  PAGE 29


  C:7134H         LINE#         429
  C:7143H         LINE#         430
  C:714DH         LINE#         432
  C:7155H         LINE#         433
  C:7169H         LINE#         435
  C:7179H         LINE#         436
  C:718AH         LINE#         437
  C:7197H         LINE#         441
  -------         ENDPROC       _CMD_LPR_SALIDA_WIEGAND
  -------         ENDMOD        ACCESCAN

  -------         MODULE        CLOCK
  C:0000H         SYMBOL        _ICE_DUMMY_
  C:9D0CH         PUBLIC        _two_one
  D:0090H         PUBLIC        P1
  C:5F68H         PUBLIC        _validar_clk
  C:A168H         PUBLIC        _wr_clk
  C:7405H         PUBLIC        _check_fechaOut
  B:00D0H.7       PUBLIC        CY
  C:0003H         PUBLIC        p_ck
  C:8601H         PUBLIC        _hex_ascii
  X:020DH         PUBLIC        data_clk
  C:A494H         PUBLIC        cond_ini_clock
  C:74CEH         PUBLIC        _Block_read_Clock
  B:0090H.4       PUBLIC        sck
  C:8121H         PUBLIC        _Block_read_Clock_Hex
  C:51B3H         PUBLIC        _Block_read_clock_ascii
  C:9DF2H         PUBLIC        _hex_bcd
  C:A33CH         PUBLIC        _bcd_hex
  C:95E3H         PUBLIC        _ByteHex_Decimal
  C:87BEH         PUBLIC        _lee_clk
  B:0090H.5       PUBLIC        io
  C:8964H         PUBLIC        _Block_write_clock_ascii
  B:0090H.6       PUBLIC        rst
  C:9D59H         PUBLIC        _eb_clk
  C:39AFH         PUBLIC        _Two_ByteHex_Decimal
  -------         PROC          P_CK
  C:0003H         LINE#         48
  C:0003H         LINE#         49
  C:0003H         LINE#         50
  C:0005H         LINE#         51
  C:0008H         LINE#         52
  C:000AH         LINE#         53
  -------         ENDPROC       P_CK
  -------         PROC          _EB_CLK
  X:00B5H         SYMBOL        dir_clk
  -------         DO            
  X:00B6H         SYMBOL        nbits
  -------         ENDDO         
  C:9D59H         LINE#         55
  C:9D5EH         LINE#         57
  C:9D63H         LINE#         58
  C:9D63H         LINE#         59
  C:9D6CH         LINE#         60
  C:9D6FH         LINE#         61
  C:9D6FH         LINE#         62
  C:9D71H         LINE#         63
BL51 BANKED LINKER/LOCATER V6.22.2.0                                                  07/29/2020  18:03:03  PAGE 30


  C:9D73H         LINE#         65
  C:9D73H         LINE#         66
  C:9D75H         LINE#         67
  C:9D75H         LINE#         68
  C:9D78H         LINE#         69
  C:9D97H         LINE#         70
  -------         ENDPROC       _EB_CLK
  C:87B4H         SYMBOL        L?0082
  -------         PROC          L?0081
  -------         ENDPROC       L?0081
  C:87B4H         SYMBOL        L?0082
  -------         PROC          _LEE_CLK
  X:00B2H         SYMBOL        dir_clk
  -------         DO            
  X:00B3H         SYMBOL        nbits
  -------         ENDDO         
  C:87BEH         LINE#         72
  C:87C3H         LINE#         74
  C:87C5H         LINE#         75
  C:87CCH         LINE#         76
  C:87D4H         LINE#         77
  C:87EDH         LINE#         78
  C:87EDH         LINE#         79
  C:87F0H         LINE#         80
  C:87F0H         LINE#         81
  C:87F7H         LINE#         82
  C:8801H         LINE#         83
  C:8806H         LINE#         84
  C:8806H         LINE#         85
  C:8806H         LINE#         86
  C:8809H         LINE#         87
  C:8809H         LINE#         88
  C:8810H         LINE#         89
  C:8821H         LINE#         90
  C:8821H         LINE#         91
  C:8829H         LINE#         92
  C:8829H         LINE#         93
  C:8829H         LINE#         94
  C:882CH         LINE#         95
  C:883CH         LINE#         96
  C:883EH         LINE#         97
  C:8843H         LINE#         98
  -------         ENDPROC       _LEE_CLK
  -------         PROC          _WR_CLK
  X:0014H         SYMBOL        dir_clk
  X:0015H         SYMBOL        byte
  C:A168H         LINE#         100
  C:A170H         LINE#         101
  C:A172H         LINE#         102
  C:A179H         LINE#         103
  C:A181H         LINE#         104
  C:A18AH         LINE#         105
  C:A18DH         LINE#         106
  C:A18FH         LINE#         108
  -------         ENDPROC       _WR_CLK
  C:9CD8H         SYMBOL        L?0077
  C:9CF6H         SYMBOL        L?0078
BL51 BANKED LINKER/LOCATER V6.22.2.0                                                  07/29/2020  18:03:03  PAGE 31


  -------         PROC          L?0076
  -------         ENDPROC       L?0076
  C:9CD8H         SYMBOL        L?0077
  C:9CF6H         SYMBOL        L?0078
  -------         PROC          _TWO_ONE
  D:0007H         SYMBOL        byte_h
  D:0005H         SYMBOL        byte_l
  -------         DO            
  D:0007H         SYMBOL        byte_out
  -------         ENDDO         
  C:9D0CH         LINE#         110
  C:9D0CH         LINE#         111
  C:9D0CH         LINE#         113
  C:9D0FH         LINE#         114
  C:9D13H         LINE#         115
  C:9D16H         LINE#         116
  C:9D18H         LINE#         117
  C:9D18H         LINE#         118
  -------         ENDPROC       _TWO_ONE
  -------         PROC          _VALIDAR_CLK
  D:0001H         SYMBOL        datos_clock
  -------         DO            
  D:0007H         SYMBOL        validador
  -------         ENDDO         
  C:5F68H         LINE#         122
  C:5F68H         LINE#         123
  C:5F68H         LINE#         124
  C:5F6AH         LINE#         127
  C:5F7FH         LINE#         128
  C:5F7FH         LINE#         130
  C:5F97H         LINE#         131
  C:5F97H         LINE#         133
  C:5FAFH         LINE#         134
  C:5FAFH         LINE#         135
  C:5FC7H         LINE#         136
  C:5FC7H         LINE#         137
  C:5FDFH         LINE#         138
  C:5FDFH         LINE#         139
  C:5FF4H         LINE#         140
  C:5FF4H         LINE#         141
  C:6006H         LINE#         142
  C:6006H         LINE#         143
  C:6018H         LINE#         144
  C:6018H         LINE#         145
  C:602AH         LINE#         146
  C:602AH         LINE#         147
  C:603CH         LINE#         148
  C:603CH         LINE#         149
  C:604EH         LINE#         150
  C:604EH         LINE#         151
  C:605EH         LINE#         152
  C:605EH         LINE#         153
  C:605EH         LINE#         154
  C:605EH         LINE#         155
  C:605FH         LINE#         157
  C:605FH         LINE#         158
  C:6061H         LINE#         159
BL51 BANKED LINKER/LOCATER V6.22.2.0                                                  07/29/2020  18:03:03  PAGE 32


  C:6061H         LINE#         160
  C:6062H         LINE#         162
  C:6062H         LINE#         163
  C:6064H         LINE#         165
  C:6064H         LINE#         166
  C:6065H         LINE#         168
  C:6065H         LINE#         169
  C:6067H         LINE#         171
  C:6067H         LINE#         173
  C:6068H         LINE#         175
  C:6068H         LINE#         176
  C:606AH         LINE#         178
  C:606AH         LINE#         179
  C:606BH         LINE#         181
  C:606BH         LINE#         182
  C:606DH         LINE#         184
  C:606DH         LINE#         185
  C:606EH         LINE#         187
  C:606EH         LINE#         188
  C:6070H         LINE#         190
  C:6070H         LINE#         191
  C:6071H         LINE#         193
  C:6071H         LINE#         194
  C:6073H         LINE#         196
  C:6073H         LINE#         197
  C:6073H         LINE#         199
  C:6074H         LINE#         201
  C:6074H         LINE#         202
  C:6076H         LINE#         204
  C:6076H         LINE#         206
  C:6077H         LINE#         209
  C:6077H         LINE#         210
  C:6079H         LINE#         212
  C:6079H         LINE#         214
  C:607AH         LINE#         217
  C:607AH         LINE#         218
  C:607CH         LINE#         220
  C:607CH         LINE#         222
  C:607CH         LINE#         224
  -------         ENDPROC       _VALIDAR_CLK
  -------         PROC          _BLOCK_WRITE_CLOCK_ASCII
  X:0011H         SYMBOL        datos_clock
  -------         DO            
  D:0007H         SYMBOL        temp
  -------         ENDDO         
  C:8964H         LINE#         230
  C:896FH         LINE#         232
  C:896FH         LINE#         237
  C:8979H         LINE#         238
  C:8979H         LINE#         239
  C:8979H         LINE#         240
  C:8979H         LINE#         242
  C:8983H         LINE#         243
  C:898DH         LINE#         244
  C:8997H         LINE#         245
  C:8997H         LINE#         246
  C:8997H         LINE#         247
BL51 BANKED LINKER/LOCATER V6.22.2.0                                                  07/29/2020  18:03:03  PAGE 33


  C:8997H         LINE#         249
  C:89A1H         LINE#         250
  C:89A1H         LINE#         251
  C:89A1H         LINE#         252
  C:89A1H         LINE#         254
  C:89ABH         LINE#         255
  C:89ABH         LINE#         256
  C:89ABH         LINE#         257
  C:89ABH         LINE#         259
  C:89B5H         LINE#         260
  C:89B5H         LINE#         261
  C:89B5H         LINE#         262
  C:89B5H         LINE#         264
  C:89BFH         LINE#         265
  C:89C9H         LINE#         266
  C:89D3H         LINE#         267
  C:89DDH         LINE#         269
  C:89EDH         LINE#         270
  -------         ENDPROC       _BLOCK_WRITE_CLOCK_ASCII
  -------         PROC          _BCD_HEX
  D:0007H         SYMBOL        l_data
  -------         DO            
  D:0006H         SYMBOL        temp
  D:0005H         SYMBOL        j
  -------         ENDDO         
  C:A33CH         LINE#         276
  C:A33CH         LINE#         277
  C:A33CH         LINE#         279
  C:A33EH         LINE#         280
  C:A342H         LINE#         281
  C:A345H         LINE#         282
  C:A347H         LINE#         283
  C:A347H         LINE#         284
  C:A34BH         LINE#         285
  C:A352H         LINE#         286
  C:A352H         LINE#         287
  C:A356H         LINE#         288
  C:A359H         LINE#         289
  C:A359H         LINE#         290
  C:A359H         LINE#         291
  -------         ENDPROC       _BCD_HEX
  C:9DE3H         SYMBOL        L?0080
  -------         PROC          L?0079
  -------         ENDPROC       L?0079
  C:9DE3H         SYMBOL        L?0080
  -------         PROC          _HEX_BCD
  D:0007H         SYMBOL        byte
  -------         DO            
  D:0006H         SYMBOL        nibble_h
  D:0005H         SYMBOL        nibble_l
  D:0004H         SYMBOL        k
  D:0007H         SYMBOL        byte_out
  -------         ENDDO         
  C:9DF2H         LINE#         295
  C:9DF2H         LINE#         296
  C:9DF2H         LINE#         301
  C:9DF4H         LINE#         302
BL51 BANKED LINKER/LOCATER V6.22.2.0                                                  07/29/2020  18:03:03  PAGE 34


  C:9DF5H         LINE#         304
  C:9DFBH         LINE#         305
  C:9DFBH         LINE#         306
  C:9DFCH         LINE#         307
  C:9E01H         LINE#         308
  C:9E01H         LINE#         309
  C:9E02H         LINE#         310
  C:9E03H         LINE#         311
  C:9E03H         LINE#         312
  C:9E06H         LINE#         313
  C:9E0AH         LINE#         314
  C:9E0DH         LINE#         315
  C:9E10H         LINE#         316
  C:9E12H         LINE#         317
  C:9E12H         LINE#         319
  -------         ENDPROC       _HEX_BCD
  -------         PROC          _HEX_ASCII
  X:005EH         SYMBOL        datos
  X:0061H         SYMBOL        fecha_asii
  -------         DO            
  D:0007H         SYMBOL        dato
  -------         ENDDO         
  C:8601H         LINE#         320
  C:860CH         LINE#         321
  C:860CH         LINE#         325
  C:860FH         LINE#         326
  C:8627H         LINE#         327
  C:863CH         LINE#         328
  C:863CH         LINE#         330
  C:863FH         LINE#         331
  C:865AH         LINE#         332
  C:8662H         LINE#         333
  C:8662H         LINE#         335
  C:8665H         LINE#         336
  C:8680H         LINE#         337
  C:868BH         LINE#         339
  -------         ENDPROC       _HEX_ASCII
  -------         PROC          _BYTEHEX_DECIMAL
  D:0001H         SYMBOL        buffer
  D:0005H         SYMBOL        valorhex
  -------         DO            
  X:0016H         SYMBOL        numero
  D:0007H         SYMBOL        centena
  D:0006H         SYMBOL        decena
  -------         ENDDO         
  C:95E3H         LINE#         347
  C:95E3H         LINE#         348
  C:95E3H         LINE#         351
  C:95E5H         LINE#         352
  C:95E6H         LINE#         353
  C:95EBH         LINE#         355
  C:95F8H         LINE#         356
  C:95F8H         LINE#         357
  C:95FCH         LINE#         358
  C:95FDH         LINE#         359
  C:95FFH         LINE#         360
  C:9605H         LINE#         361
BL51 BANKED LINKER/LOCATER V6.22.2.0                                                  07/29/2020  18:03:03  PAGE 35


  C:960CH         LINE#         362
  C:9619H         LINE#         363
  C:9619H         LINE#         364
  C:961DH         LINE#         365
  C:961EH         LINE#         366
  C:9620H         LINE#         367
  C:9626H         LINE#         368
  C:962DH         LINE#         369
  C:9636H         LINE#         370
  C:963DH         LINE#         371
  -------         ENDPROC       _BYTEHEX_DECIMAL
  -------         PROC          _TWO_BYTEHEX_DECIMAL
  X:0016H         SYMBOL        buffer
  X:0019H         SYMBOL        id_h
  X:001AH         SYMBOL        id_l
  -------         DO            
  X:001BH         SYMBOL        valor
  D:0006H         SYMBOL        numero
  X:001DH         SYMBOL        temp
  X:001EH         SYMBOL        dmil
  X:001FH         SYMBOL        mil
  X:0020H         SYMBOL        centena
  X:0021H         SYMBOL        decena
  -------         ENDDO         
  C:39AFH         LINE#         378
  C:39BDH         LINE#         379
  C:39BDH         LINE#         383
  C:39C4H         LINE#         384
  C:39C8H         LINE#         385
  C:39CAH         LINE#         386
  C:39CCH         LINE#         387
  C:39CEH         LINE#         390
  C:39D3H         LINE#         391
  C:39D6H         LINE#         392
  C:39DCH         LINE#         394
  C:3A37H         LINE#         395
  C:3A3FH         LINE#         396
  C:3A42H         LINE#         397
  C:3A9DH         LINE#         399
  C:3AA5H         LINE#         400
  C:3AA8H         LINE#         401
  C:3AAEH         LINE#         402
  C:3B09H         LINE#         403
  C:3B11H         LINE#         404
  C:3B14H         LINE#         405
  C:3B6FH         LINE#         406
  C:3B6FH         LINE#         408
  C:3B78H         LINE#         409
  C:3B78H         LINE#         410
  C:3B80H         LINE#         411
  C:3B86H         LINE#         412
  C:3B88H         LINE#         413
  C:3B9EH         LINE#         414
  C:3BA8H         LINE#         415
  C:3BB1H         LINE#         416
  C:3BB1H         LINE#         417
  C:3BB9H         LINE#         418
BL51 BANKED LINKER/LOCATER V6.22.2.0                                                  07/29/2020  18:03:03  PAGE 36


  C:3BBFH         LINE#         419
  C:3BC1H         LINE#         420
  C:3BD7H         LINE#         421
  C:3BE1H         LINE#         422
  C:3BEAH         LINE#         423
  C:3BEAH         LINE#         424
  C:3BF2H         LINE#         425
  C:3BF8H         LINE#         426
  C:3BFAH         LINE#         427
  C:3C10H         LINE#         428
  C:3C1AH         LINE#         429
  C:3C23H         LINE#         430
  C:3C23H         LINE#         431
  C:3C2BH         LINE#         432
  C:3C31H         LINE#         433
  C:3C33H         LINE#         434
  C:3C49H         LINE#         435
  C:3C53H         LINE#         436
  C:3C66H         LINE#         437
  C:3C70H         LINE#         438
  -------         ENDPROC       _TWO_BYTEHEX_DECIMAL
  -------         PROC          _BLOCK_READ_CLOCK_ASCII
  X:0052H         SYMBOL        datos_clock
  -------         DO            
  D:0007H         SYMBOL        dato
  -------         ENDDO         
  C:51B3H         LINE#         444
  C:51B6H         LINE#         445
  C:51B6H         LINE#         451
  C:51B9H         LINE#         452
  C:51D1H         LINE#         453
  C:51DBH         LINE#         454
  C:51F0H         LINE#         455
  C:51FAH         LINE#         458
  C:51FFH         LINE#         459
  C:5217H         LINE#         460
  C:5221H         LINE#         461
  C:5236H         LINE#         462
  C:5240H         LINE#         465
  C:5245H         LINE#         466
  C:525DH         LINE#         467
  C:5267H         LINE#         468
  C:527CH         LINE#         469
  C:5286H         LINE#         473
  C:528BH         LINE#         474
  C:52A3H         LINE#         475
  C:52ADH         LINE#         476
  C:52C2H         LINE#         477
  C:52CCH         LINE#         480
  C:52D1H         LINE#         481
  C:52E9H         LINE#         482
  C:52F3H         LINE#         483
  C:5308H         LINE#         484
  C:5312H         LINE#         485
  -------         ENDPROC       _BLOCK_READ_CLOCK_ASCII
  -------         PROC          _BLOCK_READ_CLOCK_HEX
  X:00AFH         SYMBOL        datos_clock
BL51 BANKED LINKER/LOCATER V6.22.2.0                                                  07/29/2020  18:03:03  PAGE 37


  C:8121H         LINE#         489
  C:8124H         LINE#         490
  C:8124H         LINE#         493
  C:8139H         LINE#         494
  C:8143H         LINE#         496
  C:815AH         LINE#         497
  C:8164H         LINE#         499
  C:817BH         LINE#         500
  C:8185H         LINE#         502
  C:819CH         LINE#         503
  C:81A6H         LINE#         505
  C:81BDH         LINE#         506
  -------         ENDPROC       _BLOCK_READ_CLOCK_HEX
  -------         PROC          _BLOCK_READ_CLOCK
  X:001EH         SYMBOL        datos_clock
  C:74CEH         LINE#         533
  C:74D1H         LINE#         534
  C:74D1H         LINE#         536
  C:74E3H         LINE#         537
  C:74EDH         LINE#         539
  C:7501H         LINE#         540
  C:750BH         LINE#         542
  C:751FH         LINE#         543
  C:7529H         LINE#         545
  C:753DH         LINE#         546
  C:7547H         LINE#         548
  C:755BH         LINE#         549
  C:7565H         LINE#         551
  C:7579H         LINE#         552
  C:7583H         LINE#         553
  -------         ENDPROC       _BLOCK_READ_CLOCK
  -------         PROC          COND_INI_CLOCK
  C:A494H         LINE#         556
  C:A494H         LINE#         557
  C:A494H         LINE#         558
  C:A496H         LINE#         559
  C:A498H         LINE#         560
  C:A49AH         LINE#         561
  -------         ENDPROC       COND_INI_CLOCK
  -------         PROC          _CHECK_FECHAOUT
  X:009DH         SYMBOL        buffer
  -------         DO            
  X:00A0H         SYMBOL        fecha_inicio
  X:00A4H         SYMBOL        fecha_fin
  X:00A8H         SYMBOL        datos_clk
  X:00AEH         SYMBOL        temp
  -------         ENDDO         
  C:7405H         LINE#         571
  C:7410H         LINE#         572
  C:7410H         LINE#         578
  C:7419H         LINE#         579
  C:7448H         LINE#         580
  C:749BH         LINE#         583
  C:74BBH         LINE#         584
  C:74BBH         LINE#         585
  C:74C1H         LINE#         586
  C:74C3H         LINE#         588
BL51 BANKED LINKER/LOCATER V6.22.2.0                                                  07/29/2020  18:03:03  PAGE 38


  C:74C3H         LINE#         589
  C:74C8H         LINE#         590
  C:74C8H         LINE#         594
  C:74CDH         LINE#         595
  -------         ENDPROC       _CHECK_FECHAOUT
  -------         ENDMOD        CLOCK

  -------         MODULE        DELAY
  C:0000H         SYMBOL        _ICE_DUMMY_
  C:9F3EH         PUBLIC        _Delay_10ms
  C:A3E3H         PUBLIC        _Delay_20us
  C:A35AH         PUBLIC        _Delay_1ms
  C:A4E7H         PUBLIC        Delay
  -------         PROC          _DELAY_20US
  D:0006H         SYMBOL        cntd_us
  -------         DO            
  D:0004H         SYMBOL        i
  -------         ENDDO         
  C:A3E3H         LINE#         20
  C:A3E3H         LINE#         21
  C:A3E3H         LINE#         24
  C:A3EDH         LINE#         26
  C:A3F4H         LINE#         27
  -------         ENDPROC       _DELAY_20US
  -------         PROC          _DELAY_1MS
  D:0002H         SYMBOL        cntd_ms
  -------         DO            
  D:0082H         SYMBOL        i
  -------         ENDDO         
  C:A35AH         LINE#         38
  C:A35EH         LINE#         39
  C:A35EH         LINE#         41
  C:A374H         LINE#         42
  -------         ENDPROC       _DELAY_1MS
  -------         PROC          _DELAY_10MS
  X:0009H         SYMBOL        cntd_10ms
  -------         DO            
  X:000BH         SYMBOL        i
  -------         ENDDO         
  C:9F3EH         LINE#         54
  C:9F46H         LINE#         55
  C:9F46H         LINE#         57
  C:9F77H         LINE#         58
  -------         ENDPROC       _DELAY_10MS
  -------         PROC          DELAY
  C:A4E7H         LINE#         60
  C:A4E7H         LINE#         62
  -------         ENDPROC       DELAY
  -------         ENDMOD        DELAY

  -------         MODULE        EEPROM
  C:0000H         SYMBOL        _ICE_DUMMY_
  D:0090H         PUBLIC        P1
  C:6B7FH         PUBLIC        _Write_EEprom_Ticket
  C:937AH         PUBLIC        _EscribirMemoria
  X:0203H         PUBLIC        l_chr
  C:A2C1H         PUBLIC        ackd
BL51 BANKED LINKER/LOCATER V6.22.2.0                                                  07/29/2020  18:03:03  PAGE 39


  B:0021H.5       PUBLIC        memory_flag
  B:00D0H.7       PUBLIC        CY
  C:A4CCH         PUBLIC        p_me
  C:A3FDH         PUBLIC        start
  B:0090H.2       PUBLIC        sda
  C:A2E1H         PUBLIC        ack_lect
  B:0090H.3       PUBLIC        scl
  C:9E17H         PUBLIC        _rd_eeprom
  C:A482H         PUBLIC        stop
  X:0204H         PUBLIC        l_data_eeprom
  C:9818H         PUBLIC        _wr_eeprom
  C:9454H         PUBLIC        _LeerMemoria
  C:9FE6H         PUBLIC        Incremente_Ticket
  X:0205H         PUBLIC        byte_rd
  C:733BH         PUBLIC        Read_EEprom_Ticket
  C:A29CH         PUBLIC        _e_d_m
  C:71A4H         PUBLIC        _graba_serie
  C:9946H         PUBLIC        Lee_No_Ticket
  C:98F9H         PUBLIC        l_d_m
  -------         PROC          L?0057
  -------         ENDPROC       L?0057
  -------         PROC          ACKD
  -------         DO            
  D:0006H         SYMBOL        i
  -------         ENDDO         
  C:A2C1H         LINE#         35
  C:A2C1H         LINE#         36
  C:A2C1H         LINE#         38
  C:A2C3H         LINE#         39
  C:A2C5H         LINE#         40
  C:A2C7H         LINE#         41
  C:A2CAH         LINE#         42
  C:A2CAH         LINE#         43
  C:A2CDH         LINE#         44
  C:A2CDH         LINE#         45
  C:A2CFH         LINE#         46
  C:A2D1H         LINE#         48
  C:A2D2H         LINE#         49
  C:A2D2H         LINE#         50
  C:A2DDH         LINE#         52
  C:A2DDH         LINE#         53
  C:A2DDH         LINE#         55
  C:A2DDH         LINE#         56
  -------         ENDPROC       ACKD
  -------         PROC          L?0061
  -------         ENDPROC       L?0061
  -------         PROC          ACK_LECT
  -------         DO            
  D:0006H         SYMBOL        i
  -------         ENDDO         
  C:A2E1H         LINE#         59
  C:A2E1H         LINE#         60
  C:A2E1H         LINE#         62
  C:A2E3H         LINE#         63
  C:A2E5H         LINE#         64
  C:A2E7H         LINE#         65
  C:A2EAH         LINE#         66
BL51 BANKED LINKER/LOCATER V6.22.2.0                                                  07/29/2020  18:03:03  PAGE 40


  C:A2EAH         LINE#         67
  C:A2EDH         LINE#         68
  C:A2EDH         LINE#         69
  C:A2EFH         LINE#         70
  C:A2F1H         LINE#         71
  C:A2F2H         LINE#         72
  C:A2F2H         LINE#         73
  C:A2FDH         LINE#         74
  -------         ENDPROC       ACK_LECT
  -------         PROC          P_ME
  C:A4CCH         LINE#         76
  C:A4CCH         LINE#         77
  C:A4CCH         LINE#         78
  C:A4CEH         LINE#         79
  C:A4CFH         LINE#         80
  C:A4D1H         LINE#         81
  -------         ENDPROC       P_ME
  -------         PROC          _E_D_M
  D:0007H         SYMBOL        a_serial_eeprom
  -------         DO            
  D:0006H         SYMBOL        nbits
  -------         ENDDO         
  C:A29CH         LINE#         83
  C:A29CH         LINE#         84
  C:A29CH         LINE#         86
  C:A2A8H         LINE#         87
  C:A2A8H         LINE#         88
  C:A2ACH         LINE#         89
  C:A2AFH         LINE#         90
  C:A2AFH         LINE#         91
  C:A2B1H         LINE#         92
  C:A2B3H         LINE#         94
  C:A2B3H         LINE#         95
  C:A2B5H         LINE#         96
  C:A2B5H         LINE#         97
  C:A2B7H         LINE#         98
  C:A2BAH         LINE#         99
  C:A2BDH         LINE#         101
  -------         ENDPROC       _E_D_M
  -------         PROC          L?0058
  -------         ENDPROC       L?0058
  -------         PROC          START
  C:A3FDH         LINE#         103
  C:A3FDH         LINE#         104
  C:A3FDH         LINE#         105
  C:A3FFH         LINE#         106
  C:A401H         LINE#         107
  C:A402H         LINE#         108
  C:A404H         LINE#         109
  C:A406H         LINE#         111
  -------         ENDPROC       START
  -------         PROC          STOP
  C:A482H         LINE#         113
  C:A482H         LINE#         114
  C:A482H         LINE#         115
  C:A484H         LINE#         116
  C:A486H         LINE#         117
BL51 BANKED LINKER/LOCATER V6.22.2.0                                                  07/29/2020  18:03:03  PAGE 41


  C:A488H         LINE#         118
  C:A48AH         LINE#         120
  -------         ENDPROC       STOP
  -------         PROC          L_D_M
  -------         DO            
  D:0003H         SYMBOL        nbits
  -------         ENDDO         
  C:98F9H         LINE#         122
  C:98F9H         LINE#         123
  C:98F9H         LINE#         125
  C:9906H         LINE#         126
  C:9906H         LINE#         127
  C:9908H         LINE#         128
  C:990BH         LINE#         129
  C:990BH         LINE#         130
  C:9912H         LINE#         131
  C:991BH         LINE#         132
  C:991BH         LINE#         133
  C:991FH         LINE#         134
  C:9921H         LINE#         135
  C:9921H         LINE#         136
  C:9921H         LINE#         137
  C:9924H         LINE#         138
  C:9924H         LINE#         139
  C:992BH         LINE#         140
  C:9935H         LINE#         141
  C:9935H         LINE#         142
  C:9939H         LINE#         143
  C:993BH         LINE#         144
  C:993BH         LINE#         145
  C:993BH         LINE#         146
  C:993EH         LINE#         147
  C:9940H         LINE#         148
  C:9945H         LINE#         149
  -------         ENDPROC       L_D_M
  -------         PROC          L?0056
  -------         ENDPROC       L?0056
  -------         PROC          _WR_EEPROM
  D:0002H         SYMBOL        control
  D:0004H         SYMBOL        Dir
  D:0003H         SYMBOL        data_eeprom
  -------         DO            
  D:0005H         SYMBOL        dir_h
  D:0001H         SYMBOL        dir_l
  -------         ENDDO         
  C:9818H         LINE#         155
  C:981AH         LINE#         156
  C:981AH         LINE#         158
  C:981EH         LINE#         159
  C:981EH         LINE#         160
  C:981EH         LINE#         163
  C:981EH         LINE#         164
  C:981EH         LINE#         166
  C:9821H         LINE#         167
  C:9823H         LINE#         168
  C:9826H         LINE#         169
  C:9828H         LINE#         170
BL51 BANKED LINKER/LOCATER V6.22.2.0                                                  07/29/2020  18:03:03  PAGE 42


  C:982BH         LINE#         171
  C:9830H         LINE#         172
  C:9833H         LINE#         173
  C:9838H         LINE#         174
  C:983BH         LINE#         175
  C:983EH         LINE#         176
  C:9845H         LINE#         178
  C:9847H         LINE#         179
  C:9849H         LINE#         180
  C:9850H         LINE#         181
  -------         ENDPROC       _WR_EEPROM
  C:9E13H         SYMBOL        L?0060
  -------         PROC          L?0059
  -------         ENDPROC       L?0059
  C:9E13H         SYMBOL        L?0060
  -------         PROC          _RD_EEPROM
  D:0003H         SYMBOL        control
  D:0004H         SYMBOL        Dir
  -------         DO            
  D:0005H         SYMBOL        dir_h
  D:0002H         SYMBOL        dir_l
  -------         ENDDO         
  C:9E17H         LINE#         219
  C:9E19H         LINE#         220
  C:9E19H         LINE#         223
  C:9E1DH         LINE#         224
  C:9E1DH         LINE#         225
  C:9E1DH         LINE#         227
  C:9E1DH         LINE#         228
  C:9E1DH         LINE#         230
  C:9E20H         LINE#         231
  C:9E22H         LINE#         232
  C:9E25H         LINE#         233
  C:9E27H         LINE#         234
  C:9E2AH         LINE#         235
  C:9E2FH         LINE#         236
  C:9E32H         LINE#         237
  C:9E35H         LINE#         238
  C:9E3BH         LINE#         239
  C:9E3EH         LINE#         240
  C:9E40H         LINE#         241
  C:9E43H         LINE#         242
  C:9E46H         LINE#         243
  C:9E48H         LINE#         244
  C:9E4AH         LINE#         245
  C:9E4FH         LINE#         246
  -------         ENDPROC       _RD_EEPROM
  -------         PROC          _GRABA_SERIE
  X:0011H         SYMBOL        buffer
  -------         DO            
  X:0014H         SYMBOL        j
  X:0015H         SYMBOL        error
  -------         ENDDO         
  C:71A4H         LINE#         253
  C:71AFH         LINE#         254
  C:71AFH         LINE#         257
  C:71B4H         LINE#         262
BL51 BANKED LINKER/LOCATER V6.22.2.0                                                  07/29/2020  18:03:03  PAGE 43


  C:71C6H         LINE#         264
  C:71D9H         LINE#         265
  C:71D9H         LINE#         266
  C:7202H         LINE#         267
  C:7202H         LINE#         268
  C:7208H         LINE#         270
  C:7211H         LINE#         271
  C:721FH         LINE#         272
  C:7228H         LINE#         273
  C:7228H         LINE#         275
  C:7230H         LINE#         279
  C:7236H         LINE#         280
  C:7236H         LINE#         281
  C:7244H         LINE#         283
  C:7244H         LINE#         285
  C:7244H         LINE#         286
  C:724EH         LINE#         287
  C:7259H         LINE#         288
  C:7264H         LINE#         289
  C:726FH         LINE#         291
  C:726FH         LINE#         292
  -------         ENDPROC       _GRABA_SERIE
  -------         PROC          _WRITE_EEPROM_TICKET
  X:0016H         SYMBOL        buffer
  -------         DO            
  X:0019H         SYMBOL        cod_3
  X:001AH         SYMBOL        cod_2
  X:001BH         SYMBOL        cod_1
  X:001CH         SYMBOL        cod_0
  X:001DH         SYMBOL        Noticket
  D:0004H         SYMBOL        Bnoticket
  -------         ENDDO         
  C:6B7FH         LINE#         293
  C:6B8AH         LINE#         294
  C:6B8AH         LINE#         296
  C:6B92H         LINE#         297
  C:6B9BH         LINE#         298
  C:6BA9H         LINE#         299
  C:6BB2H         LINE#         300
  C:6BC6H         LINE#         302
  C:6BCFH         LINE#         303
  C:6BE2H         LINE#         304
  C:6BE7H         LINE#         305
  C:6BEAH         LINE#         307
  C:6BFDH         LINE#         308
  C:6C02H         LINE#         309
  C:6C05H         LINE#         311
  C:6C18H         LINE#         312
  C:6C1DH         LINE#         313
  C:6C20H         LINE#         315
  C:6C2CH         LINE#         316
  C:6C2FH         LINE#         317
  C:6C38H         LINE#         319
  C:6C46H         LINE#         320
  C:6C54H         LINE#         321
  C:6C62H         LINE#         322
  -------         ENDPROC       _WRITE_EEPROM_TICKET
BL51 BANKED LINKER/LOCATER V6.22.2.0                                                  07/29/2020  18:03:03  PAGE 44


  -------         PROC          LEE_NO_TICKET
  -------         DO            
  D:0004H         SYMBOL        Noticket
  X:001CH         SYMBOL        Lee_No_Ticket
  D:0007H         SYMBOL        num_chr
  -------         ENDDO         
  C:9946H         LINE#         327
  C:9946H         LINE#         328
  C:9946H         LINE#         332
  C:9949H         LINE#         333
  C:9964H         LINE#         334
  C:996DH         LINE#         335
  C:9979H         LINE#         336
  C:9982H         LINE#         337
  C:998BH         LINE#         338
  C:9991H         LINE#         339
  -------         ENDPROC       LEE_NO_TICKET
  -------         PROC          READ_EEPROM_TICKET
  -------         DO            
  D:0001H         SYMBOL        cod3
  X:0027H         SYMBOL        cod2
  X:0028H         SYMBOL        cod1
  X:0029H         SYMBOL        cod0
  X:002AH         SYMBOL        Noticket
  -------         ENDDO         
  C:733BH         LINE#         343
  C:733BH         LINE#         344
  C:733BH         LINE#         346
  C:7345H         LINE#         347
  C:734CH         LINE#         348
  C:7356H         LINE#         349
  C:7364H         LINE#         350
  C:736EH         LINE#         352
  C:738EH         LINE#         353
  C:73B3H         LINE#         354
  C:73D8H         LINE#         355
  C:73F6H         LINE#         356
  C:7404H         LINE#         357
  -------         ENDPROC       READ_EEPROM_TICKET
  -------         PROC          INCREMENTE_TICKET
  -------         DO            
  D:0004H         SYMBOL        Noticket
  X:0006H         SYMBOL        Lee_No_Ticket
  -------         ENDDO         
  C:9FE6H         LINE#         361
  C:9FE6H         LINE#         362
  C:9FE6H         LINE#         366
  C:9FE9H         LINE#         367
  C:9FF6H         LINE#         368
  C:A011H         LINE#         369
  -------         ENDPROC       INCREMENTE_TICKET
  -------         PROC          _LEERMEMORIA
  X:009DH         SYMBOL        addres
  X:009FH         SYMBOL        res
  -------         DO            
  D:0007H         SYMBOL        i
  -------         ENDDO         
BL51 BANKED LINKER/LOCATER V6.22.2.0                                                  07/29/2020  18:03:03  PAGE 45


  C:9454H         LINE#         375
  C:9465H         LINE#         376
  C:9465H         LINE#         378
  C:9465H         LINE#         379
  C:9481H         LINE#         380
  C:9490H         LINE#         381
  C:949EH         LINE#         382
  C:94A8H         LINE#         383
  C:94ABH         LINE#         384
  -------         ENDPROC       _LEERMEMORIA
  -------         PROC          _ESCRIBIRMEMORIA
  X:005EH         SYMBOL        addres
  X:0060H         SYMBOL        res
  C:937AH         LINE#         386
  C:938BH         LINE#         387
  C:938BH         LINE#         390
  C:939BH         LINE#         391
  C:93A2H         LINE#         392
  C:93A5H         LINE#         394
  C:93B3H         LINE#         395
  C:93BDH         LINE#         396
  C:93BFH         LINE#         397
  C:93C2H         LINE#         398
  C:93D0H         LINE#         399
  C:93DAH         LINE#         400
  -------         ENDPROC       _ESCRIBIRMEMORIA
  -------         ENDMOD        EEPROM

  -------         MODULE        IO_SENSORES
  C:0000H         SYMBOL        _ICE_DUMMY_
  D:0090H         PUBLIC        P1
  D:00B0H         PUBLIC        P3
  C:9C12H         PUBLIC        Dir_board
  C:A4A9H         PUBLIC        sel_Pulsa
  B:0090H.1       PUBLIC        DataIn
  C:A4A2H         PUBLIC        sel_Auto
  C:9F78H         PUBLIC        ValidaSensoresPaso
  B:00B0H.3       PUBLIC        busy
  C:A2FEH         PUBLIC        ValidaSensor
  C:A4B7H         PUBLIC        sel_Sensor1
  C:A4B0H         PUBLIC        sel_Sensor2
  C:9751H         PUBLIC        Valida_Sensor1_Auto
  B:00B0H.5       PUBLIC        sel_A
  B:00B0H.6       PUBLIC        sel_B
  B:00B0H.7       PUBLIC        sel_C
  C:8EB4H         PUBLIC        msj_lcd_informativo
  C:A4BEH         PUBLIC        sel_Dir1
  C:A4C5H         PUBLIC        sel_Dir2
  C:A49BH         PUBLIC        sel_Funcion
  -------         PROC          SEL_FUNCION
  C:A49BH         LINE#         31
  C:A49BH         LINE#         32
  C:A49BH         LINE#         33
  C:A49DH         LINE#         34
  C:A49FH         LINE#         35
  C:A4A1H         LINE#         36
  -------         ENDPROC       SEL_FUNCION
BL51 BANKED LINKER/LOCATER V6.22.2.0                                                  07/29/2020  18:03:03  PAGE 46


  -------         PROC          SEL_AUTO
  C:A4A2H         LINE#         38
  C:A4A2H         LINE#         39
  C:A4A2H         LINE#         40
  C:A4A4H         LINE#         41
  C:A4A6H         LINE#         42
  C:A4A8H         LINE#         43
  -------         ENDPROC       SEL_AUTO
  -------         PROC          SEL_PULSA
  C:A4A9H         LINE#         45
  C:A4A9H         LINE#         46
  C:A4A9H         LINE#         47
  C:A4ABH         LINE#         48
  C:A4ADH         LINE#         49
  C:A4AFH         LINE#         50
  -------         ENDPROC       SEL_PULSA
  -------         PROC          SEL_SENSOR2
  C:A4B0H         LINE#         53
  C:A4B0H         LINE#         54
  C:A4B0H         LINE#         55
  C:A4B2H         LINE#         56
  C:A4B4H         LINE#         57
  C:A4B6H         LINE#         58
  -------         ENDPROC       SEL_SENSOR2
  -------         PROC          SEL_SENSOR1
  C:A4B7H         LINE#         60
  C:A4B7H         LINE#         61
  C:A4B7H         LINE#         62
  C:A4B9H         LINE#         63
  C:A4BBH         LINE#         64
  C:A4BDH         LINE#         65
  -------         ENDPROC       SEL_SENSOR1
  -------         PROC          SEL_DIR1
  C:A4BEH         LINE#         67
  C:A4BEH         LINE#         68
  C:A4BEH         LINE#         69
  C:A4C0H         LINE#         70
  C:A4C2H         LINE#         71
  C:A4C4H         LINE#         72
  -------         ENDPROC       SEL_DIR1
  -------         PROC          SEL_DIR2
  C:A4C5H         LINE#         74
  C:A4C5H         LINE#         75
  C:A4C5H         LINE#         76
  C:A4C7H         LINE#         77
  C:A4C9H         LINE#         78
  C:A4CBH         LINE#         79
  -------         ENDPROC       SEL_DIR2
  -------         PROC          VALIDASENSOR
  -------         DO            
  D:0007H         SYMBOL        Valido
  D:0004H         SYMBOL        Tmin
  -------         ENDDO         
  C:A2FEH         LINE#         81
  C:A2FEH         LINE#         82
  C:A2FEH         LINE#         84
  C:A300H         LINE#         85
BL51 BANKED LINKER/LOCATER V6.22.2.0                                                  07/29/2020  18:03:03  PAGE 47


  C:A304H         LINE#         86
  C:A30FH         LINE#         87
  C:A30FH         LINE#         88
  C:A314H         LINE#         89
  C:A318H         LINE#         90
  C:A318H         LINE#         91
  C:A31AH         LINE#         92
  C:A31AH         LINE#         93
  C:A31CH         LINE#         94
  C:A31CH         LINE#         95
  -------         ENDPROC       VALIDASENSOR
  -------         PROC          DIR_BOARD
  -------         DO            
  X:0033H         SYMBOL        Board
  D:0007H         SYMBOL        Board_High
  -------         ENDDO         
  C:9C12H         LINE#         99
  C:9C12H         LINE#         100
  C:9C12H         LINE#         101
  C:9C18H         LINE#         103
  C:9C1BH         LINE#         104
  C:9C1EH         LINE#         105
  C:9C1EH         LINE#         106
  C:9C21H         LINE#         107
  C:9C21H         LINE#         108
  C:9C24H         LINE#         109
  C:9C27H         LINE#         110
  C:9C27H         LINE#         111
  C:9C2EH         LINE#         112
  C:9C2EH         LINE#         113
  C:9C36H         LINE#         114
  C:9C36H         LINE#         115
  C:9C3EH         LINE#         117
  C:9C41H         LINE#         118
  C:9C41H         LINE#         119
  C:9C47H         LINE#         120
  C:9C47H         LINE#         121
  C:9C49H         LINE#         122
  C:9C4BH         LINE#         123
  C:9C4DH         LINE#         124
  C:9C4DH         LINE#         126
  C:9C4DH         LINE#         127
  C:9C54H         LINE#         128
  -------         ENDPROC       DIR_BOARD
  -------         PROC          VALIDA_SENSOR1_AUTO
  -------         DO            
  X:0012H         SYMBOL        sensor
  -------         ENDDO         
  C:9751H         LINE#         132
  C:9751H         LINE#         133
  C:9751H         LINE#         135
  C:9754H         LINE#         136
  C:9757H         LINE#         137
  C:975AH         LINE#         138
  C:975FH         LINE#         139
  C:975FH         LINE#         140
  C:9766H         LINE#         141
BL51 BANKED LINKER/LOCATER V6.22.2.0                                                  07/29/2020  18:03:03  PAGE 48


  C:976AH         LINE#         142
  C:976AH         LINE#         144
  C:976CH         LINE#         146
  C:976CH         LINE#         147
  C:9773H         LINE#         148
  C:9778H         LINE#         149
  C:9778H         LINE#         150
  C:9778H         LINE#         153
  C:977AH         LINE#         155
  C:977DH         LINE#         156
  C:9782H         LINE#         157
  C:9782H         LINE#         159
  C:9789H         LINE#         160
  C:978FH         LINE#         161
  C:9795H         LINE#         162
  C:9797H         LINE#         164
  C:9797H         LINE#         165
  C:979EH         LINE#         166
  C:97A3H         LINE#         167
  C:97A3H         LINE#         170
  C:97A3H         LINE#         171
  C:97A8H         LINE#         172
  -------         ENDPROC       VALIDA_SENSOR1_AUTO
  -------         PROC          VALIDASENSORESPASO
  -------         DO            
  X:0011H         SYMBOL        sensor
  -------         ENDDO         
  C:9F78H         LINE#         177
  C:9F78H         LINE#         178
  C:9F78H         LINE#         180
  C:9F7BH         LINE#         181
  C:9F7EH         LINE#         182
  C:9F7EH         LINE#         183
  C:9F8CH         LINE#         184
  C:9F8CH         LINE#         185
  C:9F94H         LINE#         187
  C:9F96H         LINE#         189
  C:9F96H         LINE#         190
  C:9F9CH         LINE#         191
  C:9F9EH         LINE#         192
  C:9F9EH         LINE#         193
  C:9F9EH         LINE#         194
  C:9F9EH         LINE#         195
  C:9FA7H         LINE#         196
  C:9FAAH         LINE#         197
  C:9FAAH         LINE#         198
  C:9FAFH         LINE#         199
  -------         ENDPROC       VALIDASENSORESPASO
  -------         PROC          MSJ_LCD_INFORMATIVO
  -------         DO            
  X:0002H         SYMBOL        info
  X:020EH         SYMBOL        toggle
  -------         ENDDO         
  C:8EB4H         LINE#         209
  C:8EB4H         LINE#         210
  C:8EB4H         LINE#         211
  C:8EB9H         LINE#         213
BL51 BANKED LINKER/LOCATER V6.22.2.0                                                  07/29/2020  18:03:03  PAGE 49


  C:8EBCH         LINE#         214
  C:8EBFH         LINE#         215
  C:8EBFH         LINE#         216
  C:8ECBH         LINE#         217
  C:8ECBH         LINE#         218
  C:8ECEH         LINE#         219
  C:8ECEH         LINE#         220
  C:8ED0H         LINE#         221
  C:8ED3H         LINE#         222
  C:8ED9H         LINE#         223
  C:8ED9H         LINE#         224
  C:8EDBH         LINE#         225
  C:8EE9H         LINE#         226
  C:8EE9H         LINE#         227
  C:8EECH         LINE#         228
  C:8EECH         LINE#         229
  C:8EEEH         LINE#         230
  C:8EF1H         LINE#         231
  C:8EF7H         LINE#         232
  C:8EF7H         LINE#         233
  C:8EF9H         LINE#         234
  C:8F07H         LINE#         235
  C:8F07H         LINE#         236
  C:8F0AH         LINE#         237
  C:8F0AH         LINE#         238
  C:8F0CH         LINE#         239
  C:8F1AH         LINE#         240
  C:8F1AH         LINE#         241
  C:8F1CH         LINE#         242
  C:8F23H         LINE#         244
  C:8F28H         LINE#         245
  C:8F28H         LINE#         247
  C:8F28H         LINE#         249
  C:8F28H         LINE#         251
  C:8F2BH         LINE#         252
  C:8F2EH         LINE#         253
  C:8F2EH         LINE#         254
  C:8F33H         LINE#         255
  C:8F33H         LINE#         257
  -------         ENDPROC       MSJ_LCD_INFORMATIVO
  -------         ENDMOD        IO_SENSORES

  -------         MODULE        PANTALLAS
  C:0000H         SYMBOL        _ICE_DUMMY_
  D:0080H         PUBLIC        P0
  C:9857H         PUBLIC        Reloj_Pantalla_Lcd
  C:27E0H         PUBLIC        _PantallaLCD
  C:9BD6H         PUBLIC        _LCD_txt
  I:0068H         PUBLIC        msjpantalla
  C:A1E9H         PUBLIC        _tx_chrlcd
  C:27C7H         SYMBOL        _?ix1000
  C:27CDH         SYMBOL        _?ix1001
  C:27D3H         SYMBOL        _?ix1002
  C:9B42H         PUBLIC        _LCD_txt_num_char
  C:4155H         PUBLIC        _PantallaLCD_LINEA_2
  B:0098H.4       PUBLIC        REN
  B:0080H.7       PUBLIC        sel_com
BL51 BANKED LINKER/LOCATER V6.22.2.0                                                  07/29/2020  18:03:03  PAGE 50


  C:96A9H         PUBLIC        Raspberry_data1
  -------         PROC          _PANTALLALCD
  X:002BH         SYMBOL        cod_msg
  -------         DO            
  X:002CH         SYMBOL        Ini_LCD_Line_one
  X:0032H         SYMBOL        num_chr
  -------         ENDDO         
  C:27E0H         LINE#         86
  C:27E5H         LINE#         87
  C:27E5H         LINE#         89
  C:27F8H         LINE#         96
  C:27FAH         LINE#         98
  C:2803H         LINE#         99
  C:2803H         LINE#         100
  C:280DH         LINE#         102
  C:2869H         LINE#         103
  C:2869H         LINE#         105
  C:2869H         LINE#         106
  C:2877H         LINE#         107
  C:287DH         LINE#         108
  C:2880H         LINE#         109
  C:2886H         LINE#         110
  C:2889H         LINE#         112
  C:2889H         LINE#         114
  C:2897H         LINE#         115
  C:289DH         LINE#         116
  C:28A0H         LINE#         117
  C:28A6H         LINE#         118
  C:28A9H         LINE#         120
  C:28A9H         LINE#         122
  C:28B7H         LINE#         123
  C:28BDH         LINE#         124
  C:28C0H         LINE#         125
  C:28C6H         LINE#         126
  C:28C9H         LINE#         127
  C:28C9H         LINE#         128
  C:28D7H         LINE#         129
  C:28DDH         LINE#         130
  C:28E0H         LINE#         131
  C:28E6H         LINE#         132
  C:28E9H         LINE#         133
  C:28E9H         LINE#         134
  C:28F7H         LINE#         135
  C:28FDH         LINE#         136
  C:2900H         LINE#         137
  C:2906H         LINE#         138
  C:2909H         LINE#         139
  C:2909H         LINE#         140
  C:2917H         LINE#         141
  C:291DH         LINE#         142
  C:2920H         LINE#         143
  C:2926H         LINE#         144
  C:2929H         LINE#         145
  C:2929H         LINE#         147
  C:2937H         LINE#         148
  C:293DH         LINE#         149
  C:2940H         LINE#         150
BL51 BANKED LINKER/LOCATER V6.22.2.0                                                  07/29/2020  18:03:03  PAGE 51


  C:2946H         LINE#         151
  C:2949H         LINE#         152
  C:2949H         LINE#         158
  C:2949H         LINE#         159
  C:2957H         LINE#         160
  C:295DH         LINE#         161
  C:2960H         LINE#         162
  C:2966H         LINE#         163
  C:2969H         LINE#         164
  C:2969H         LINE#         165
  C:2977H         LINE#         166
  C:297DH         LINE#         167
  C:2980H         LINE#         168
  C:2986H         LINE#         169
  C:2989H         LINE#         171
  C:2989H         LINE#         172
  C:2997H         LINE#         173
  C:299DH         LINE#         174
  C:29A0H         LINE#         175
  C:29A6H         LINE#         176
  C:29A9H         LINE#         178
  C:29A9H         LINE#         179
  C:29B7H         LINE#         180
  C:29BDH         LINE#         181
  C:29C0H         LINE#         182
  C:29C6H         LINE#         183
  C:29C9H         LINE#         188
  C:29C9H         LINE#         190
  C:29D7H         LINE#         191
  C:29DDH         LINE#         192
  C:29E0H         LINE#         193
  C:29E6H         LINE#         194
  C:29E9H         LINE#         196
  C:29E9H         LINE#         198
  C:29F7H         LINE#         199
  C:29FDH         LINE#         200
  C:2A00H         LINE#         201
  C:2A06H         LINE#         202
  C:2A09H         LINE#         204
  C:2A09H         LINE#         205
  C:2A17H         LINE#         206
  C:2A1DH         LINE#         207
  C:2A20H         LINE#         208
  C:2A26H         LINE#         209
  C:2A29H         LINE#         211
  C:2A29H         LINE#         213
  C:2A37H         LINE#         214
  C:2A3DH         LINE#         215
  C:2A40H         LINE#         216
  C:2A46H         LINE#         217
  C:2A49H         LINE#         219
  C:2A49H         LINE#         221
  C:2A57H         LINE#         222
  C:2A5DH         LINE#         223
  C:2A60H         LINE#         224
  C:2A66H         LINE#         225
  C:2A69H         LINE#         227
BL51 BANKED LINKER/LOCATER V6.22.2.0                                                  07/29/2020  18:03:03  PAGE 52


  C:2A69H         LINE#         228
  C:2A77H         LINE#         229
  C:2A7DH         LINE#         230
  C:2A80H         LINE#         231
  C:2A86H         LINE#         232
  C:2A89H         LINE#         234
  C:2A89H         LINE#         235
  C:2A97H         LINE#         236
  C:2A9DH         LINE#         237
  C:2AA0H         LINE#         238
  C:2AA6H         LINE#         239
  C:2AA9H         LINE#         241
  C:2AA9H         LINE#         243
  C:2AB7H         LINE#         244
  C:2ABDH         LINE#         245
  C:2AC0H         LINE#         246
  C:2AC6H         LINE#         247
  C:2AC9H         LINE#         249
  C:2AC9H         LINE#         250
  C:2AD7H         LINE#         251
  C:2ADDH         LINE#         252
  C:2AE0H         LINE#         253
  C:2AE6H         LINE#         254
  C:2AE9H         LINE#         255
  C:2AE9H         LINE#         256
  C:2AF7H         LINE#         257
  C:2AFDH         LINE#         258
  C:2B00H         LINE#         259
  C:2B06H         LINE#         260
  C:2B09H         LINE#         261
  C:2B09H         LINE#         262
  C:2B17H         LINE#         263
  C:2B1DH         LINE#         264
  C:2B20H         LINE#         265
  C:2B26H         LINE#         266
  C:2B29H         LINE#         267
  C:2B29H         LINE#         268
  C:2B37H         LINE#         269
  C:2B3AH         LINE#         270
  C:2B40H         LINE#         271
  C:2B42H         LINE#         275
  C:2B42H         LINE#         276
  C:2B50H         LINE#         277
  C:2B56H         LINE#         278
  C:2B59H         LINE#         279
  C:2B5FH         LINE#         280
  C:2B61H         LINE#         281
  C:2B61H         LINE#         282
  C:2B6FH         LINE#         283
  C:2B75H         LINE#         284
  C:2B78H         LINE#         285
  C:2B7EH         LINE#         286
  C:2B80H         LINE#         287
  C:2B80H         LINE#         288
  C:2B8EH         LINE#         289
  C:2B94H         LINE#         290
  C:2B97H         LINE#         291
BL51 BANKED LINKER/LOCATER V6.22.2.0                                                  07/29/2020  18:03:03  PAGE 53


  C:2BA2H         LINE#         292
  C:2BA2H         LINE#         301
  C:2BA2H         LINE#         303
  C:2BA2H         LINE#         304
  C:2BA2H         LINE#         305
  C:2BA4H         LINE#         307
  C:2BA5H         LINE#         309
  C:2BA5H         LINE#         310
  C:2BA7H         LINE#         311
  C:2C09H         LINE#         312
  C:2C09H         LINE#         315
  C:2C09H         LINE#         316
  C:2C15H         LINE#         317
  C:2C15H         LINE#         319
  C:2C18H         LINE#         320
  C:2C18H         LINE#         323
  C:2C24H         LINE#         324
  C:2C24H         LINE#         325
  C:2C27H         LINE#         327
  C:2C27H         LINE#         328
  C:2C33H         LINE#         329
  C:2C33H         LINE#         331
  C:2C36H         LINE#         332
  C:2C36H         LINE#         333
  C:2C42H         LINE#         334
  C:2C42H         LINE#         336
  C:2C45H         LINE#         337
  C:2C45H         LINE#         338
  C:2C51H         LINE#         339
  C:2C51H         LINE#         341
  C:2C54H         LINE#         342
  C:2C54H         LINE#         343
  C:2C60H         LINE#         344
  C:2C60H         LINE#         346
  C:2C63H         LINE#         347
  C:2C63H         LINE#         348
  C:2C6FH         LINE#         349
  C:2C6FH         LINE#         351
  C:2C72H         LINE#         352
  C:2C72H         LINE#         353
  C:2C7EH         LINE#         354
  C:2C7EH         LINE#         356
  C:2C81H         LINE#         358
  C:2C81H         LINE#         359
  C:2C8DH         LINE#         360
  C:2C8DH         LINE#         362
  C:2C90H         LINE#         364
  C:2C90H         LINE#         365
  C:2C9CH         LINE#         366
  C:2C9CH         LINE#         368
  C:2C9FH         LINE#         370
  C:2C9FH         LINE#         371
  C:2CABH         LINE#         372
  C:2CABH         LINE#         374
  C:2CAEH         LINE#         376
  C:2CAEH         LINE#         377
  C:2CBAH         LINE#         378
BL51 BANKED LINKER/LOCATER V6.22.2.0                                                  07/29/2020  18:03:03  PAGE 54


  C:2CBAH         LINE#         380
  C:2CBDH         LINE#         384
  C:2CBDH         LINE#         385
  C:2CC9H         LINE#         386
  C:2CC9H         LINE#         388
  C:2CCCH         LINE#         390
  C:2CCCH         LINE#         391
  C:2CD8H         LINE#         392
  C:2CD8H         LINE#         394
  C:2CDBH         LINE#         396
  C:2CDBH         LINE#         397
  C:2CE7H         LINE#         399
  C:2CE7H         LINE#         400
  C:2CEAH         LINE#         401
  C:2CEAH         LINE#         402
  C:2CF6H         LINE#         403
  C:2CF6H         LINE#         405
  C:2CF9H         LINE#         406
  C:2CF9H         LINE#         407
  C:2D05H         LINE#         408
  C:2D05H         LINE#         410
  C:2D08H         LINE#         411
  C:2D08H         LINE#         412
  C:2D14H         LINE#         413
  C:2D14H         LINE#         415
  C:2D17H         LINE#         416
  C:2D17H         LINE#         417
  C:2D23H         LINE#         418
  C:2D23H         LINE#         420
  C:2D26H         LINE#         422
  C:2D26H         LINE#         423
  C:2D32H         LINE#         424
  C:2D32H         LINE#         426
  C:2D34H         LINE#         428
  C:2D34H         LINE#         429
  C:2D40H         LINE#         430
  C:2D40H         LINE#         432
  C:2D42H         LINE#         433
  C:2D42H         LINE#         434
  C:2D4EH         LINE#         435
  C:2D4EH         LINE#         437
  C:2D50H         LINE#         438
  C:2D50H         LINE#         439
  C:2D5CH         LINE#         440
  C:2D5CH         LINE#         442
  C:2D5EH         LINE#         443
  C:2D5EH         LINE#         444
  C:2D6AH         LINE#         445
  C:2D6AH         LINE#         447
  C:2D6CH         LINE#         449
  C:2D6CH         LINE#         450
  C:2D78H         LINE#         451
  C:2D78H         LINE#         453
  C:2D7AH         LINE#         454
  C:2D7AH         LINE#         455
  C:2D86H         LINE#         456
  C:2D86H         LINE#         458
BL51 BANKED LINKER/LOCATER V6.22.2.0                                                  07/29/2020  18:03:03  PAGE 55


  C:2D88H         LINE#         459
  C:2D88H         LINE#         460
  C:2D94H         LINE#         461
  C:2D94H         LINE#         463
  C:2D96H         LINE#         468
  C:2D96H         LINE#         469
  C:2DA2H         LINE#         470
  C:2DA2H         LINE#         472
  C:2DA4H         LINE#         473
  C:2DA4H         LINE#         474
  C:2DB3H         LINE#         475
  C:2DB6H         LINE#         477
  C:2DB6H         LINE#         485
  C:2DB6H         LINE#         486
  C:2DB6H         LINE#         487
  C:2DB6H         LINE#         488
  C:2DB8H         LINE#         489
  C:2DB8H         LINE#         493
  -------         ENDPROC       _PANTALLALCD
  -------         PROC          _PANTALLALCD_LINEA_2
  X:0011H         SYMBOL        cod_msg
  X:0012H         SYMBOL        buffer
  -------         DO            
  X:0015H         SYMBOL        Ini_LCD_Line_one
  X:001BH         SYMBOL        num_chr
  -------         ENDDO         
  C:4155H         LINE#         494
  C:4163H         LINE#         495
  C:4163H         LINE#         497
  C:4176H         LINE#         505
  C:4178H         LINE#         507
  C:4181H         LINE#         508
  C:4181H         LINE#         511
  C:418FH         LINE#         512
  C:418FH         LINE#         514
  C:418FH         LINE#         515
  C:4192H         LINE#         516
  C:41A0H         LINE#         517
  C:41B5H         LINE#         518
  C:41BBH         LINE#         519
  C:41C1H         LINE#         520
  C:41C7H         LINE#         521
  C:41C7H         LINE#         522
  C:41C9H         LINE#         523
  C:41C9H         LINE#         524
  C:41CCH         LINE#         525
  C:41DAH         LINE#         526
  C:41EFH         LINE#         527
  C:41F5H         LINE#         528
  C:41FBH         LINE#         529
  C:4206H         LINE#         530
  C:4216H         LINE#         531
  C:4216H         LINE#         535
  C:4216H         LINE#         537
  C:4216H         LINE#         539
  C:4216H         LINE#         540
  C:4218H         LINE#         541
BL51 BANKED LINKER/LOCATER V6.22.2.0                                                  07/29/2020  18:03:03  PAGE 56


  C:4219H         LINE#         543
  C:4219H         LINE#         544
  C:421BH         LINE#         545
  C:4235H         LINE#         546
  C:4235H         LINE#         547
  C:4235H         LINE#         549
  C:4244H         LINE#         550
  C:4244H         LINE#         551
  C:4244H         LINE#         552
  C:4244H         LINE#         555
  C:4247H         LINE#         557
  C:4247H         LINE#         558
  C:4256H         LINE#         559
  C:4269H         LINE#         560
  C:4283H         LINE#         561
  C:4283H         LINE#         562
  C:4283H         LINE#         563
  C:4283H         LINE#         565
  C:4286H         LINE#         566
  C:4286H         LINE#         568
  C:428AH         LINE#         569
  C:428DH         LINE#         570
  C:4290H         LINE#         571
  C:4290H         LINE#         573
  C:4299H         LINE#         575
  C:4299H         LINE#         576
  C:429BH         LINE#         578
  C:429BH         LINE#         580
  C:42AFH         LINE#         582
  C:42B2H         LINE#         584
  C:42B2H         LINE#         585
  C:42BDH         LINE#         586
  C:42BDH         LINE#         587
  C:42C4H         LINE#         589
  C:42DAH         LINE#         591
  C:42F1H         LINE#         592
  C:42F3H         LINE#         594
  C:42F3H         LINE#         595
  C:42FAH         LINE#         597
  C:42FAH         LINE#         598
  C:42FAH         LINE#         601
  C:42FCH         LINE#         603
  C:42FCH         LINE#         604
  C:430BH         LINE#         605
  C:431EH         LINE#         606
  C:4338H         LINE#         607
  C:4356H         LINE#         608
  C:436DH         LINE#         609
  C:4370H         LINE#         611
  C:4370H         LINE#         613
  C:4370H         LINE#         615
  C:4370H         LINE#         616
  C:4370H         LINE#         617
  C:4372H         LINE#         618
  C:4372H         LINE#         619
  -------         ENDPROC       _PANTALLALCD_LINEA_2
  C:A1E0H         SYMBOL        L?0161
BL51 BANKED LINKER/LOCATER V6.22.2.0                                                  07/29/2020  18:03:03  PAGE 57


  C:A1E3H         SYMBOL        L?0162
  C:A1E4H         SYMBOL        L?0163
  -------         PROC          L?0160
  -------         ENDPROC       L?0160
  C:A1E0H         SYMBOL        L?0161
  C:A1E3H         SYMBOL        L?0162
  C:A1E4H         SYMBOL        L?0163
  -------         PROC          _TX_CHRLCD
  D:0007H         SYMBOL        data_com
  X:0038H         SYMBOL        enable_char_add
  -------         DO            
  X:0039H         SYMBOL        d
  -------         ENDDO         
  C:A1E9H         LINE#         625
  C:A1EEH         LINE#         626
  C:A1EEH         LINE#         628
  C:A1F6H         LINE#         629
  C:A206H         LINE#         631
  -------         ENDPROC       _TX_CHRLCD
  -------         PROC          L?0165
  -------         ENDPROC       L?0165
  -------         PROC          _LCD_TXT
  X:0033H         SYMBOL        msg
  X:0036H         SYMBOL        enable_char_add
  -------         DO            
  X:0037H         SYMBOL        i
  -------         ENDDO         
  C:9BD6H         LINE#         638
  C:9BE4H         LINE#         639
  C:9BE4H         LINE#         642
  C:9C01H         LINE#         643
  C:9C01H         LINE#         644
  C:9C09H         LINE#         645
  C:9C11H         LINE#         646
  -------         ENDPROC       _LCD_TXT
  -------         PROC          _LCD_TXT_NUM_CHAR
  X:001EH         SYMBOL        msg
  X:0021H         SYMBOL        length_char
  X:0022H         SYMBOL        enable_char_add
  -------         DO            
  X:0023H         SYMBOL        i
  -------         ENDDO         
  C:9B42H         LINE#         653
  C:9B50H         LINE#         654
  C:9B50H         LINE#         657
  C:9B63H         LINE#         658
  C:9B63H         LINE#         659
  C:9B7FH         LINE#         660
  C:9B87H         LINE#         661
  -------         ENDPROC       _LCD_TXT_NUM_CHAR
  -------         PROC          L?0164
  -------         ENDPROC       L?0164
  -------         PROC          RASPBERRY_DATA1
  -------         DO            
  X:0033H         SYMBOL        i
  X:0034H         SYMBOL        lenth_cadena
  X:0035H         SYMBOL        d
BL51 BANKED LINKER/LOCATER V6.22.2.0                                                  07/29/2020  18:03:03  PAGE 58


  -------         ENDDO         
  C:96A9H         LINE#         689
  C:96A9H         LINE#         690
  C:96A9H         LINE#         695
  C:96B7H         LINE#         697
  C:96CAH         LINE#         698
  C:96CAH         LINE#         699
  C:96D8H         LINE#         701
  C:96E0H         LINE#         702
  C:96F2H         LINE#         703
  C:96F2H         LINE#         705
  C:96F7H         LINE#         708
  -------         ENDPROC       RASPBERRY_DATA1
  -------         PROC          RELOJ_PANTALLA_LCD
  -------         DO            
  X:0011H         SYMBOL        Ini_Clock_LCD
  -------         ENDDO         
  C:9857H         LINE#         715
  C:9857H         LINE#         716
  C:9857H         LINE#         718
  C:986AH         LINE#         719
  C:9870H         LINE#         720
  C:9870H         LINE#         721
  C:9872H         LINE#         722
  C:987BH         LINE#         726
  C:987DH         LINE#         727
  C:988DH         LINE#         729
  C:988FH         LINE#         730
  C:9891H         LINE#         732
  C:9892H         LINE#         734
  C:9892H         LINE#         735
  C:9894H         LINE#         736
  C:9899H         LINE#         737
  C:98A2H         LINE#         738
  C:98A6H         LINE#         739
  C:98A9H         LINE#         741
  C:98ABH         LINE#         742
  C:98ABH         LINE#         743
  -------         ENDPROC       RELOJ_PANTALLA_LCD
  -------         ENDMOD        PANTALLAS

  -------         MODULE        PROG
  C:0000H         SYMBOL        _ICE_DUMMY_
  C:4775H         PUBLIC        Prog_fecha_vencimiento
  C:5862H         PUBLIC        Prog_Sin_Cobro
  C:649BH         PUBLIC        Prog_debug
  C:678FH         PUBLIC        Prog_AntiPassBack
  C:8857H         PUBLIC        _GetOption
  X:01B1H         PUBLIC        validacion
  C:6987H         PUBLIC        Prog_Validar_Tipo_Vehiculo_Mensual
  X:01BCH         PUBLIC        cursor
  C:5E4EH         PUBLIC        _Prog_Horarios_on_off
  C:88D4H         PUBLIC        Show
  C:A01AH         PUBLIC        Addr_Horarios
  C:7D0BH         PUBLIC        prog_id_cliente
  C:9C5DH         PUBLIC        _ValidarClave
  C:3F36H         PUBLIC        menu
BL51 BANKED LINKER/LOCATER V6.22.2.0                                                  07/29/2020  18:03:03  PAGE 59


  C:6597H         PUBLIC        Prog_Use_Lpr
  C:9520H         PUBLIC        _ListaComandos
  C:0E33H         SYMBOL        _?ix1000
  C:0E3EH         SYMBOL        _?ix1001
  C:0E4EH         SYMBOL        _?ix1002
  C:0E5EH         SYMBOL        _?ix1003
  C:0E62H         SYMBOL        _?ix1004
  C:55DBH         PUBLIC        Prog_Horarios
  C:0E66H         SYMBOL        _?ix1005
  C:6A83H         PUBLIC        Prog_Apb_Mensual
  C:7719H         PUBLIC        Prog_tarjeta_automatica_o_boton
  C:4373H         PUBLIC        _hash_id
  C:3C7FH         PUBLIC        _Prog_Horario_dias
  C:7AD8H         PUBLIC        Prog_tiempo_gracia
  C:8F3CH         PUBLIC        _IngresaDato
  X:01D0H         PUBLIC        comandos
  C:9A26H         PUBLIC        First_Clave
  C:A38DH         PUBLIC        DisplayCursor
  C:688BH         PUBLIC        Prog_Placa
  C:7A1BH         PUBLIC        prog_cod_park
  C:457BH         PUBLIC        _Prog_Horario_Desde_Hasta
  C:6693H         PUBLIC        tipo_pantalla
  C:6E3EH         PUBLIC        Prog_Address_High_Board
  C:9D1FH         PUBLIC        _GetCMD
  -------         PROC          _HASH_ID
  X:005EH         SYMBOL        clave
  -------         DO            
  X:0061H         SYMBOL        len_clave
  X:0062H         SYMBOL        i
  X:01ADH         SYMBOL        temp
  X:01AFH         SYMBOL        temp1
  X:0063H         SYMBOL        aleatorio
  X:006EH         SYMBOL        suma
  X:007EH         SYMBOL        xxor
  X:008EH         SYMBOL        usuario1
  X:0099H         SYMBOL        vencimiento_password
  -------         ENDDO         
  C:4373H         LINE#         120
  C:437EH         LINE#         121
  C:437EH         LINE#         124
  C:4391H         LINE#         126
  C:43A4H         LINE#         127
  C:43B7H         LINE#         131
  C:43C4H         LINE#         132
  C:43E0H         LINE#         134
  C:43E0H         LINE#         135
  C:43E4H         LINE#         136
  C:43E6H         LINE#         138
  C:43E6H         LINE#         139
  C:43EDH         LINE#         140
  C:43EDH         LINE#         141
  C:4400H         LINE#         142
  C:4414H         LINE#         143
  C:4414H         LINE#         144
  C:4440H         LINE#         145
  C:444BH         LINE#         146
  C:4458H         LINE#         147
BL51 BANKED LINKER/LOCATER V6.22.2.0                                                  07/29/2020  18:03:03  PAGE 60


  C:4476H         LINE#         148
  C:4481H         LINE#         149
  C:448EH         LINE#         150
  C:44B2H         LINE#         151
  C:44BAH         LINE#         152
  C:44BAH         LINE#         153
  C:44BFH         LINE#         154
  C:44BFH         LINE#         155
  C:44D8H         LINE#         156
  C:44D8H         LINE#         157
  C:44E4H         LINE#         159
  C:44E4H         LINE#         160
  C:44F3H         LINE#         161
  C:44F3H         LINE#         162
  C:44FFH         LINE#         163
  C:44FFH         LINE#         164
  C:4518H         LINE#         165
  C:4518H         LINE#         166
  C:4523H         LINE#         167
  C:4523H         LINE#         168
  C:453CH         LINE#         169
  C:453CH         LINE#         170
  C:4547H         LINE#         171
  C:4547H         LINE#         172
  C:455CH         LINE#         174
  C:4565H         LINE#         175
  C:4574H         LINE#         177
  C:457AH         LINE#         178
  -------         ENDPROC       _HASH_ID
  -------         PROC          _LISTACOMANDOS
  X:0047H         SYMBOL        cmd
  -------         DO            
  X:004AH         SYMBOL        buf
  X:004DH         SYMBOL        i
  -------         ENDDO         
  C:9520H         LINE#         185
  C:952BH         LINE#         186
  C:952BH         LINE#         190
  C:953EH         LINE#         191
  C:953EH         LINE#         192
  C:9556H         LINE#         193
  C:9571H         LINE#         194
  C:9577H         LINE#         195
  C:957FH         LINE#         197
  C:9581H         LINE#         198
  -------         ENDPROC       _LISTACOMANDOS
  -------         PROC          L?0208
  -------         ENDPROC       L?0208
  -------         PROC          _VALIDARCLAVE
  X:005EH         SYMBOL        buffer
  -------         DO            
  X:0061H         SYMBOL        buf
  -------         ENDDO         
  C:9C5DH         LINE#         204
  C:9C68H         LINE#         205
  C:9C68H         LINE#         208
  C:9C77H         LINE#         209
BL51 BANKED LINKER/LOCATER V6.22.2.0                                                  07/29/2020  18:03:03  PAGE 61


  C:9C92H         LINE#         210
  C:9C94H         LINE#         213
  C:9C96H         LINE#         214
  -------         ENDPROC       _VALIDARCLAVE
  -------         PROC          L?0209
  -------         ENDPROC       L?0209
  -------         PROC          _GETCMD
  X:005EH         SYMBOL        in
  -------         DO            
  X:0061H         SYMBOL        tokens
  -------         ENDDO         
  C:9D1FH         LINE#         221
  C:9D2AH         LINE#         222
  C:9D2AH         LINE#         223
  C:9D3DH         LINE#         224
  -------         ENDPROC       _GETCMD
  -------         PROC          L?0207
  -------         ENDPROC       L?0207
  -------         PROC          _GETOPTION
  X:0047H         SYMBOL        in
  -------         DO            
  X:004AH         SYMBOL        tokensSpace
  X:004EH         SYMBOL        tokensQuote
  -------         ENDDO         
  C:8857H         LINE#         230
  C:8862H         LINE#         231
  C:8862H         LINE#         232
  C:8875H         LINE#         233
  C:8888H         LINE#         236
  C:889AH         LINE#         237
  C:88A6H         LINE#         240
  C:88ADH         LINE#         241
  C:88BAH         LINE#         243
  C:88D3H         LINE#         244
  -------         ENDPROC       _GETOPTION
  -------         PROC          DISPLAYCURSOR
  C:A38DH         LINE#         249
  C:A38DH         LINE#         250
  C:A38DH         LINE#         251
  -------         ENDPROC       DISPLAYCURSOR
  C:8F38H         SYMBOL        L?0206
  -------         PROC          L?0205
  -------         ENDPROC       L?0205
  C:8F38H         SYMBOL        L?0206
  -------         PROC          _INGRESADATO
  X:0072H         SYMBOL        buffer
  X:0075H         SYMBOL        modo
  -------         DO            
  D:0006H         SYMBOL        i
  -------         ENDDO         
  C:8F3CH         LINE#         258
  C:8F4AH         LINE#         259
  C:8F4AH         LINE#         264
  C:8F4AH         LINE#         265
  C:8F5CH         LINE#         266
  C:8F62H         LINE#         267
  C:8F62H         LINE#         268
BL51 BANKED LINKER/LOCATER V6.22.2.0                                                  07/29/2020  18:03:03  PAGE 62


  C:8F7DH         LINE#         269
  C:8F7FH         LINE#         271
  C:8F7FH         LINE#         272
  C:8F84H         LINE#         273
  C:8F84H         LINE#         274
  C:8F95H         LINE#         275
  C:8F9FH         LINE#         276
  C:8FAEH         LINE#         278
  C:8FB3H         LINE#         282
  -------         ENDPROC       _INGRESADATO
  -------         PROC          PROG_ID_CLIENTE
  -------         DO            
  X:0047H         SYMBOL        buffer
  X:0051H         SYMBOL        dataee
  -------         ENDDO         
  C:7D0BH         LINE#         299
  C:7D0BH         LINE#         300
  C:7D0BH         LINE#         304
  C:7D1DH         LINE#         305
  C:7D3AH         LINE#         307
  C:7D51H         LINE#         309
  C:7D5AH         LINE#         310
  C:7D61H         LINE#         311
  C:7D72H         LINE#         312
  C:7D7BH         LINE#         314
  C:7D8DH         LINE#         315
  C:7DAAH         LINE#         316
  -------         ENDPROC       PROG_ID_CLIENTE
  -------         PROC          PROG_COD_PARK
  -------         DO            
  X:0047H         SYMBOL        buffer
  X:0051H         SYMBOL        dataee
  -------         ENDDO         
  C:7A1BH         LINE#         321
  C:7A1BH         LINE#         322
  C:7A1BH         LINE#         326
  C:7A2EH         LINE#         327
  C:7A4BH         LINE#         329
  C:7A62H         LINE#         331
  C:7A6BH         LINE#         332
  C:7A76H         LINE#         333
  C:7A87H         LINE#         334
  C:7A91H         LINE#         336
  C:7AA4H         LINE#         337
  C:7AC1H         LINE#         338
  -------         ENDPROC       PROG_COD_PARK
  -------         PROC          PROG_TIEMPO_GRACIA
  -------         DO            
  X:0047H         SYMBOL        buffer
  X:0051H         SYMBOL        dataee
  -------         ENDDO         
  C:7AD8H         LINE#         343
  C:7AD8H         LINE#         344
  C:7AD8H         LINE#         348
  C:7AEBH         LINE#         349
  C:7B08H         LINE#         351
  C:7B1FH         LINE#         353
BL51 BANKED LINKER/LOCATER V6.22.2.0                                                  07/29/2020  18:03:03  PAGE 63


  C:7B28H         LINE#         354
  C:7B33H         LINE#         355
  C:7B44H         LINE#         356
  C:7B4EH         LINE#         358
  C:7B61H         LINE#         359
  C:7B7EH         LINE#         360
  -------         ENDPROC       PROG_TIEMPO_GRACIA
  -------         PROC          PROG_SIN_COBRO
  -------         DO            
  X:0047H         SYMBOL        buffer
  X:0051H         SYMBOL        dataee
  -------         ENDDO         
  C:5862H         LINE#         366
  C:5862H         LINE#         367
  C:5862H         LINE#         373
  C:5875H         LINE#         374
  C:5892H         LINE#         375
  C:589CH         LINE#         376
  C:589CH         LINE#         377
  C:58AFH         LINE#         378
  C:58B1H         LINE#         379
  C:58BDH         LINE#         380
  C:58BDH         LINE#         381
  C:58D0H         LINE#         382
  C:58D2H         LINE#         384
  C:58D2H         LINE#         385
  C:58E9H         LINE#         386
  C:58E9H         LINE#         388
  C:58F2H         LINE#         389
  C:58FDH         LINE#         390
  C:590EH         LINE#         391
  C:5918H         LINE#         393
  C:592BH         LINE#         394
  C:5948H         LINE#         395
  C:5952H         LINE#         396
  C:5952H         LINE#         397
  C:5965H         LINE#         398
  C:5967H         LINE#         399
  C:5973H         LINE#         400
  C:5973H         LINE#         401
  C:5986H         LINE#         402
  C:5988H         LINE#         404
  C:5988H         LINE#         405
  C:599FH         LINE#         406
  C:599FH         LINE#         408
  -------         ENDPROC       PROG_SIN_COBRO
  -------         PROC          PROG_DEBUG
  -------         DO            
  X:0047H         SYMBOL        buffer
  X:0051H         SYMBOL        dataee
  -------         ENDDO         
  C:649BH         LINE#         414
  C:649BH         LINE#         415
  C:649BH         LINE#         420
  C:64AEH         LINE#         421
  C:64CBH         LINE#         422
  C:64D5H         LINE#         423
BL51 BANKED LINKER/LOCATER V6.22.2.0                                                  07/29/2020  18:03:03  PAGE 64


  C:64D5H         LINE#         424
  C:64E8H         LINE#         425
  C:64EAH         LINE#         427
  C:64EAH         LINE#         428
  C:6501H         LINE#         429
  C:6501H         LINE#         431
  C:650AH         LINE#         432
  C:6515H         LINE#         433
  C:6526H         LINE#         434
  C:6530H         LINE#         436
  C:6543H         LINE#         437
  C:6560H         LINE#         438
  C:656AH         LINE#         439
  C:656AH         LINE#         440
  C:657DH         LINE#         441
  C:657FH         LINE#         443
  C:657FH         LINE#         444
  C:6596H         LINE#         445
  C:6596H         LINE#         446
  -------         ENDPROC       PROG_DEBUG
  -------         PROC          PROG_USE_LPR
  -------         DO            
  X:0047H         SYMBOL        buffer
  X:0051H         SYMBOL        dataee
  -------         ENDDO         
  C:6597H         LINE#         451
  C:6597H         LINE#         452
  C:6597H         LINE#         457
  C:65AAH         LINE#         458
  C:65C7H         LINE#         459
  C:65D1H         LINE#         460
  C:65D1H         LINE#         461
  C:65E4H         LINE#         462
  C:65E6H         LINE#         464
  C:65E6H         LINE#         465
  C:65FDH         LINE#         466
  C:65FDH         LINE#         468
  C:6606H         LINE#         469
  C:6611H         LINE#         470
  C:6622H         LINE#         471
  C:662CH         LINE#         473
  C:663FH         LINE#         474
  C:665CH         LINE#         475
  C:6666H         LINE#         476
  C:6666H         LINE#         477
  C:6679H         LINE#         478
  C:667BH         LINE#         480
  C:667BH         LINE#         481
  C:6692H         LINE#         482
  C:6692H         LINE#         483
  -------         ENDPROC       PROG_USE_LPR
  -------         PROC          TIPO_PANTALLA
  -------         DO            
  X:0047H         SYMBOL        buffer
  X:0051H         SYMBOL        dataee
  -------         ENDDO         
  C:6693H         LINE#         490
BL51 BANKED LINKER/LOCATER V6.22.2.0                                                  07/29/2020  18:03:03  PAGE 65


  C:6693H         LINE#         491
  C:6693H         LINE#         496
  C:66A6H         LINE#         497
  C:66C3H         LINE#         498
  C:66CDH         LINE#         499
  C:66CDH         LINE#         500
  C:66E0H         LINE#         501
  C:66E2H         LINE#         503
  C:66E2H         LINE#         504
  C:66F9H         LINE#         505
  C:66F9H         LINE#         507
  C:6702H         LINE#         508
  C:670DH         LINE#         509
  C:671EH         LINE#         510
  C:6728H         LINE#         512
  C:673BH         LINE#         513
  C:6758H         LINE#         514
  C:6762H         LINE#         515
  C:6762H         LINE#         516
  C:6775H         LINE#         517
  C:6777H         LINE#         519
  C:6777H         LINE#         520
  C:678EH         LINE#         521
  C:678EH         LINE#         523
  -------         ENDPROC       TIPO_PANTALLA
  -------         PROC          PROG_TARJETA_AUTOMATICA_O_BOTON
  -------         DO            
  X:0047H         SYMBOL        buffer
  X:0051H         SYMBOL        dataee
  -------         ENDDO         
  C:7719H         LINE#         524
  C:7719H         LINE#         525
  C:7719H         LINE#         530
  C:772CH         LINE#         531
  C:7749H         LINE#         532
  C:7755H         LINE#         533
  C:7755H         LINE#         534
  C:7759H         LINE#         535
  C:775BH         LINE#         537
  C:775BH         LINE#         538
  C:7762H         LINE#         539
  C:7762H         LINE#         541
  C:776BH         LINE#         542
  C:7776H         LINE#         543
  C:7787H         LINE#         544
  C:7791H         LINE#         546
  C:77A4H         LINE#         547
  C:77C1H         LINE#         548
  C:77CDH         LINE#         549
  C:77CDH         LINE#         550
  C:77D1H         LINE#         551
  C:77D3H         LINE#         553
  C:77D3H         LINE#         554
  C:77DAH         LINE#         555
  C:77DAH         LINE#         556
  -------         ENDPROC       PROG_TARJETA_AUTOMATICA_O_BOTON
  -------         PROC          PROG_ANTIPASSBACK
BL51 BANKED LINKER/LOCATER V6.22.2.0                                                  07/29/2020  18:03:03  PAGE 66


  -------         DO            
  X:0047H         SYMBOL        buffer
  X:0051H         SYMBOL        dataee
  -------         ENDDO         
  C:678FH         LINE#         557
  C:678FH         LINE#         558
  C:678FH         LINE#         563
  C:67A2H         LINE#         564
  C:67BFH         LINE#         565
  C:67C9H         LINE#         566
  C:67C9H         LINE#         567
  C:67DCH         LINE#         568
  C:67DEH         LINE#         570
  C:67DEH         LINE#         571
  C:67F5H         LINE#         572
  C:67F5H         LINE#         574
  C:67FEH         LINE#         575
  C:6809H         LINE#         576
  C:681AH         LINE#         577
  C:6824H         LINE#         579
  C:6837H         LINE#         580
  C:6854H         LINE#         581
  C:685EH         LINE#         582
  C:685EH         LINE#         583
  C:6871H         LINE#         584
  C:6873H         LINE#         586
  C:6873H         LINE#         587
  C:688AH         LINE#         588
  C:688AH         LINE#         589
  -------         ENDPROC       PROG_ANTIPASSBACK
  -------         PROC          PROG_PLACA
  -------         DO            
  X:0047H         SYMBOL        buffer
  X:0051H         SYMBOL        dataee
  -------         ENDDO         
  C:688BH         LINE#         590
  C:688BH         LINE#         591
  C:688BH         LINE#         596
  C:689EH         LINE#         597
  C:68BBH         LINE#         598
  C:68C5H         LINE#         599
  C:68C5H         LINE#         600
  C:68D8H         LINE#         601
  C:68DAH         LINE#         603
  C:68DAH         LINE#         604
  C:68F1H         LINE#         605
  C:68F1H         LINE#         607
  C:68FAH         LINE#         608
  C:6905H         LINE#         609
  C:6916H         LINE#         610
  C:6920H         LINE#         612
  C:6933H         LINE#         613
  C:6950H         LINE#         614
  C:695AH         LINE#         615
  C:695AH         LINE#         616
  C:696DH         LINE#         617
  C:696FH         LINE#         619
BL51 BANKED LINKER/LOCATER V6.22.2.0                                                  07/29/2020  18:03:03  PAGE 67


  C:696FH         LINE#         620
  C:6986H         LINE#         621
  C:6986H         LINE#         622
  -------         ENDPROC       PROG_PLACA
  -------         PROC          PROG_ADDRESS_HIGH_BOARD
  -------         DO            
  X:0047H         SYMBOL        buffer
  X:0051H         SYMBOL        dataee
  -------         ENDDO         
  C:6E3EH         LINE#         623
  C:6E3EH         LINE#         624
  C:6E3EH         LINE#         629
  C:6E51H         LINE#         630
  C:6E6EH         LINE#         631
  C:6E78H         LINE#         632
  C:6E78H         LINE#         633
  C:6E7CH         LINE#         634
  C:6E7EH         LINE#         636
  C:6E7EH         LINE#         637
  C:6E95H         LINE#         638
  C:6E95H         LINE#         640
  C:6E9EH         LINE#         641
  C:6EA9H         LINE#         642
  C:6EBAH         LINE#         643
  C:6EC4H         LINE#         645
  C:6ED7H         LINE#         646
  C:6EF4H         LINE#         647
  C:6EFEH         LINE#         648
  C:6EFEH         LINE#         649
  C:6F02H         LINE#         650
  C:6F04H         LINE#         652
  C:6F04H         LINE#         653
  C:6F1BH         LINE#         654
  C:6F1BH         LINE#         655
  -------         ENDPROC       PROG_ADDRESS_HIGH_BOARD
  -------         PROC          ADDR_HORARIOS
  -------         DO            
  X:0062H         SYMBOL        ee_addr_horario
  -------         ENDDO         
  C:A01AH         LINE#         657
  C:A01AH         LINE#         658
  C:A01AH         LINE#         661
  C:A020H         LINE#         662
  C:A024H         LINE#         663
  C:A028H         LINE#         664
  C:A02CH         LINE#         665
  C:A030H         LINE#         666
  C:A034H         LINE#         667
  C:A038H         LINE#         668
  C:A03CH         LINE#         669
  C:A040H         LINE#         670
  C:A044H         LINE#         671
  C:A047H         LINE#         672
  C:A04DH         LINE#         673
  -------         ENDPROC       ADDR_HORARIOS
  -------         PROC          _PROG_HORARIOS_ON_OFF
  X:0062H         SYMBOL        addr
BL51 BANKED LINKER/LOCATER V6.22.2.0                                                  07/29/2020  18:03:03  PAGE 68


  -------         DO            
  X:0064H         SYMBOL        buffer
  X:006EH         SYMBOL        dataee
  X:0070H         SYMBOL        habilitado
  -------         ENDDO         
  C:5E4EH         LINE#         674
  C:5E58H         LINE#         675
  C:5E58H         LINE#         678
  C:5E67H         LINE#         679
  C:5E84H         LINE#         680
  C:5E8EH         LINE#         681
  C:5E8EH         LINE#         682
  C:5EA1H         LINE#         683
  C:5EA3H         LINE#         685
  C:5EA3H         LINE#         686
  C:5EBAH         LINE#         687
  C:5EBAH         LINE#         688
  C:5EC3H         LINE#         689
  C:5ECEH         LINE#         690
  C:5EDFH         LINE#         691
  C:5EEEH         LINE#         693
  C:5F05H         LINE#         694
  C:5F22H         LINE#         695
  C:5F2FH         LINE#         696
  C:5F2FH         LINE#         697
  C:5F32H         LINE#         698
  C:5F45H         LINE#         699
  C:5F47H         LINE#         701
  C:5F47H         LINE#         702
  C:5F4CH         LINE#         703
  C:5F61H         LINE#         704
  C:5F61H         LINE#         705
  C:5F67H         LINE#         706
  -------         ENDPROC       _PROG_HORARIOS_ON_OFF
  -------         PROC          _PROG_HORARIO_DESDE_HASTA
  X:0062H         SYMBOL        addr
  -------         DO            
  X:0064H         SYMBOL        buffer
  D:0007H         SYMBOL        dataee
  -------         ENDDO         
  C:457BH         LINE#         707
  C:4583H         LINE#         708
  C:4583H         LINE#         713
  C:458CH         LINE#         714
  C:458FH         LINE#         715
  C:4598H         LINE#         716
  C:45B0H         LINE#         717
  C:45C3H         LINE#         718
  C:45D1H         LINE#         719
  C:45E9H         LINE#         720
  C:45FCH         LINE#         721
  C:460AH         LINE#         722
  C:4622H         LINE#         723
  C:4635H         LINE#         724
  C:4643H         LINE#         725
  C:465BH         LINE#         726
  C:466EH         LINE#         727
BL51 BANKED LINKER/LOCATER V6.22.2.0                                                  07/29/2020  18:03:03  PAGE 69


  C:467CH         LINE#         731
  C:4685H         LINE#         732
  C:4688H         LINE#         734
  C:4691H         LINE#         736
  C:46A9H         LINE#         737
  C:46BCH         LINE#         738
  C:46CAH         LINE#         739
  C:46E2H         LINE#         740
  C:46F5H         LINE#         741
  C:4703H         LINE#         742
  C:471BH         LINE#         743
  C:472EH         LINE#         744
  C:473CH         LINE#         745
  C:4754H         LINE#         746
  C:4767H         LINE#         747
  -------         ENDPROC       _PROG_HORARIO_DESDE_HASTA
  -------         PROC          _PROG_HORARIO_DIAS
  X:0062H         SYMBOL        addr
  -------         DO            
  X:0064H         SYMBOL        buffer
  X:006EH         SYMBOL        dataee
  X:006FH         SYMBOL        j
  X:0070H         SYMBOL        temp
  -------         ENDDO         
  C:3C7FH         LINE#         749
  C:3C87H         LINE#         750
  C:3C87H         LINE#         754
  C:3C90H         LINE#         755
  C:3C99H         LINE#         756
  C:3CA2H         LINE#         757
  C:3CADH         LINE#         760
  C:3CB6H         LINE#         762
  C:3CCCH         LINE#         763
  C:3CCCH         LINE#         765
  C:3CDFH         LINE#         766
  C:3CDFH         LINE#         767
  C:3CE8H         LINE#         769
  C:3CFDH         LINE#         770
  C:3D15H         LINE#         771
  C:3D22H         LINE#         772
  C:3D22H         LINE#         774
  C:3D38H         LINE#         775
  C:3D38H         LINE#         776
  C:3D41H         LINE#         777
  C:3D56H         LINE#         778
  C:3D6EH         LINE#         779
  C:3D7BH         LINE#         780
  C:3D7BH         LINE#         782
  C:3D91H         LINE#         783
  C:3D91H         LINE#         784
  C:3D9AH         LINE#         785
  C:3DAFH         LINE#         786
  C:3DC7H         LINE#         787
  C:3DD4H         LINE#         788
  C:3DD4H         LINE#         790
  C:3DEAH         LINE#         791
  C:3DEAH         LINE#         792
BL51 BANKED LINKER/LOCATER V6.22.2.0                                                  07/29/2020  18:03:03  PAGE 70


  C:3DF3H         LINE#         793
  C:3E08H         LINE#         794
  C:3E20H         LINE#         795
  C:3E2DH         LINE#         796
  C:3E2DH         LINE#         798
  C:3E43H         LINE#         799
  C:3E43H         LINE#         800
  C:3E4CH         LINE#         801
  C:3E61H         LINE#         802
  C:3E79H         LINE#         803
  C:3E86H         LINE#         804
  C:3E86H         LINE#         806
  C:3E9CH         LINE#         807
  C:3E9CH         LINE#         808
  C:3EA5H         LINE#         809
  C:3EBAH         LINE#         810
  C:3ED2H         LINE#         811
  C:3EDFH         LINE#         812
  C:3EDFH         LINE#         814
  C:3EF5H         LINE#         815
  C:3EF5H         LINE#         816
  C:3EFEH         LINE#         817
  C:3F0DH         LINE#         818
  C:3F1FH         LINE#         819
  C:3F2CH         LINE#         820
  C:3F2CH         LINE#         821
  C:3F35H         LINE#         823
  -------         ENDPROC       _PROG_HORARIO_DIAS
  -------         PROC          PROG_HORARIOS
  -------         DO            
  X:0047H         SYMBOL        buffer
  X:0051H         SYMBOL        ee_addr_horario
  X:005CH         SYMBOL        addr
  X:005EH         SYMBOL        temp
  X:0060H         SYMBOL        dataee
  X:0061H         SYMBOL        j
  -------         ENDDO         
  C:55DBH         LINE#         824
  C:55DBH         LINE#         825
  C:55DBH         LINE#         834
  C:55E7H         LINE#         838
  C:55F0H         LINE#         839
  C:55FBH         LINE#         841
  C:560AH         LINE#         845
  C:5620H         LINE#         846
  C:5626H         LINE#         850
  C:5634H         LINE#         851
  C:563CH         LINE#         852
  C:563CH         LINE#         854
  C:564BH         LINE#         855
  C:565FH         LINE#         856
  C:565FH         LINE#         857
  C:5673H         LINE#         858
  C:567BH         LINE#         860
  C:568BH         LINE#         863
  C:568EH         LINE#         867
  C:5699H         LINE#         870
BL51 BANKED LINKER/LOCATER V6.22.2.0                                                  07/29/2020  18:03:03  PAGE 71


  C:56A2H         LINE#         871
  C:56ADH         LINE#         872
  C:56BCH         LINE#         873
  C:56CFH         LINE#         875
  C:56E7H         LINE#         876
  C:5701H         LINE#         877
  C:5709H         LINE#         878
  C:5709H         LINE#         880
  C:5717H         LINE#         881
  C:571FH         LINE#         882
  C:571FH         LINE#         883
  C:571FH         LINE#         885
  -------         ENDPROC       PROG_HORARIOS
  -------         PROC          PROG_VALIDAR_TIPO_VEHICULO_MENSUAL
  -------         DO            
  X:0047H         SYMBOL        buffer
  X:0051H         SYMBOL        dataee
  -------         ENDDO         
  C:6987H         LINE#         886
  C:6987H         LINE#         887
  C:6987H         LINE#         892
  C:699AH         LINE#         893
  C:69B7H         LINE#         894
  C:69C1H         LINE#         895
  C:69C1H         LINE#         896
  C:69D4H         LINE#         897
  C:69D6H         LINE#         899
  C:69D6H         LINE#         900
  C:69EDH         LINE#         901
  C:69EDH         LINE#         903
  C:69F6H         LINE#         904
  C:6A01H         LINE#         905
  C:6A12H         LINE#         906
  C:6A1CH         LINE#         908
  C:6A2FH         LINE#         909
  C:6A4CH         LINE#         910
  C:6A56H         LINE#         911
  C:6A56H         LINE#         912
  C:6A69H         LINE#         913
  C:6A6BH         LINE#         915
  C:6A6BH         LINE#         916
  C:6A82H         LINE#         917
  C:6A82H         LINE#         918
  -------         ENDPROC       PROG_VALIDAR_TIPO_VEHICULO_MENSUAL
  -------         PROC          PROG_APB_MENSUAL
  -------         DO            
  X:0047H         SYMBOL        buffer
  X:0051H         SYMBOL        dataee
  -------         ENDDO         
  C:6A83H         LINE#         919
  C:6A83H         LINE#         920
  C:6A83H         LINE#         925
  C:6A96H         LINE#         926
  C:6AB3H         LINE#         927
  C:6ABDH         LINE#         928
  C:6ABDH         LINE#         929
  C:6AD0H         LINE#         930
BL51 BANKED LINKER/LOCATER V6.22.2.0                                                  07/29/2020  18:03:03  PAGE 72


  C:6AD2H         LINE#         932
  C:6AD2H         LINE#         933
  C:6AE9H         LINE#         934
  C:6AE9H         LINE#         936
  C:6AF2H         LINE#         937
  C:6AFDH         LINE#         938
  C:6B0EH         LINE#         939
  C:6B18H         LINE#         941
  C:6B2BH         LINE#         942
  C:6B48H         LINE#         943
  C:6B52H         LINE#         944
  C:6B52H         LINE#         945
  C:6B65H         LINE#         946
  C:6B67H         LINE#         948
  C:6B67H         LINE#         949
  C:6B7EH         LINE#         950
  C:6B7EH         LINE#         951
  -------         ENDPROC       PROG_APB_MENSUAL
  -------         PROC          PROG_FECHA_VENCIMIENTO
  -------         DO            
  X:0047H         SYMBOL        buffer
  X:0052H         SYMBOL        cmd
  X:0055H         SYMBOL        fecha
  X:005CH         SYMBOL        dataee
  -------         ENDDO         
  C:4775H         LINE#         953
  C:4775H         LINE#         954
  C:4775H         LINE#         961
  C:4782H         LINE#         962
  C:4799H         LINE#         965
  C:47B0H         LINE#         967
  C:47B0H         LINE#         968
  C:47B9H         LINE#         969
  C:47C6H         LINE#         970
  C:47DDH         LINE#         971
  C:47EFH         LINE#         972
  C:47F8H         LINE#         977
  C:4803H         LINE#         978
  C:4817H         LINE#         979
  C:4824H         LINE#         981
  C:482DH         LINE#         984
  C:4836H         LINE#         985
  C:4841H         LINE#         986
  C:4858H         LINE#         988
  C:4860H         LINE#         989
  C:4868H         LINE#         990
  C:486BH         LINE#         992
  C:487CH         LINE#         993
  C:488DH         LINE#         995
  C:489CH         LINE#         996
  C:48A4H         LINE#         997
  C:48ACH         LINE#         998
  C:48AFH         LINE#         999
  C:48C0H         LINE#         1000
  C:48D1H         LINE#         1001
  C:48E0H         LINE#         1002
  C:48E8H         LINE#         1003
BL51 BANKED LINKER/LOCATER V6.22.2.0                                                  07/29/2020  18:03:03  PAGE 73


  C:48F0H         LINE#         1004
  C:48F3H         LINE#         1005
  C:4904H         LINE#         1006
  C:4915H         LINE#         1007
  C:4924H         LINE#         1008
  C:492FH         LINE#         1010
  C:493CH         LINE#         1012
  C:4953H         LINE#         1013
  -------         ENDPROC       PROG_FECHA_VENCIMIENTO
  -------         PROC          SHOW
  C:88D4H         LINE#         1019
  C:88D4H         LINE#         1020
  C:88D4H         LINE#         1021
  C:88DDH         LINE#         1022
  C:88E6H         LINE#         1023
  C:88EFH         LINE#         1024
  C:88F8H         LINE#         1025
  C:8901H         LINE#         1026
  C:890AH         LINE#         1027
  C:8913H         LINE#         1028
  C:891CH         LINE#         1029
  C:8925H         LINE#         1030
  C:892EH         LINE#         1031
  C:8937H         LINE#         1032
  C:8940H         LINE#         1033
  C:8949H         LINE#         1034
  C:8952H         LINE#         1035
  C:895BH         LINE#         1036
  -------         ENDPROC       SHOW
  -------         PROC          FIRST_CLAVE
  -------         DO            
  X:0047H         SYMBOL        clave
  -------         ENDDO         
  C:9A26H         LINE#         1043
  C:9A26H         LINE#         1044
  C:9A26H         LINE#         1048
  C:9A2FH         LINE#         1049
  C:9A34H         LINE#         1050
  C:9A46H         LINE#         1051
  C:9A53H         LINE#         1052
  C:9A59H         LINE#         1053
  C:9A5CH         LINE#         1054
  C:9A5FH         LINE#         1055
  C:9A61H         LINE#         1057
  -------         ENDPROC       FIRST_CLAVE
  -------         PROC          MENU
  -------         DO            
  X:0002H         SYMBOL        cmd
  X:0005H         SYMBOL        option1
  X:0008H         SYMBOL        option2
  X:000BH         SYMBOL        opt_buffer
  X:0033H         SYMBOL        buffer
  -------         ENDDO         
  C:3F36H         LINE#         1061
  C:3F36H         LINE#         1062
  C:3F36H         LINE#         1071
  C:3F3FH         LINE#         1076
BL51 BANKED LINKER/LOCATER V6.22.2.0                                                  07/29/2020  18:03:03  PAGE 74


  C:3F4BH         LINE#         1077
  C:3F4BH         LINE#         1078
  C:3F4EH         LINE#         1079
  C:3F58H         LINE#         1082
  C:3F58H         LINE#         1084
  C:3F58H         LINE#         1085
  C:3F61H         LINE#         1086
  C:3F6EH         LINE#         1087
  C:3F85H         LINE#         1088
  C:3F97H         LINE#         1089
  C:3FA0H         LINE#         1094
  C:3FABH         LINE#         1095
  C:3FB9H         LINE#         1096
  C:3FC6H         LINE#         1098
  C:3FCFH         LINE#         1102
  C:3FD2H         LINE#         1103
  C:3FD2H         LINE#         1104
  C:3FD2H         LINE#         1105
  C:3FD5H         LINE#         1108
  C:3FE0H         LINE#         1109
  C:3FEEH         LINE#         1110
  C:4002H         LINE#         1111
  C:4016H         LINE#         1116
  C:402CH         LINE#         1117
  C:402CH         LINE#         1119
  C:403BH         LINE#         1120
  C:403DH         LINE#         1121
  C:404DH         LINE#         1122
  C:404DH         LINE#         1124
  C:405CH         LINE#         1125
  C:407AH         LINE#         1126
  C:407AH         LINE#         1132
  C:408DH         LINE#         1133
  C:408DH         LINE#         1134
  C:40D3H         LINE#         1135
  C:40D3H         LINE#         1136
  C:40D3H         LINE#         1137
  C:40D6H         LINE#         1139
  C:40D9H         LINE#         1141
  C:40D9H         LINE#         1142
  C:40DCH         LINE#         1143
  C:40DFH         LINE#         1144
  C:40DFH         LINE#         1145
  C:40E2H         LINE#         1146
  C:40E5H         LINE#         1147
  C:40E5H         LINE#         1148
  C:40E8H         LINE#         1149
  C:40EBH         LINE#         1150
  C:40EBH         LINE#         1151
  C:40EEH         LINE#         1152
  C:40F1H         LINE#         1153
  C:40F1H         LINE#         1154
  C:40F4H         LINE#         1155
  C:40F7H         LINE#         1156
  C:40F7H         LINE#         1157
  C:40FAH         LINE#         1158
  C:40FDH         LINE#         1159
BL51 BANKED LINKER/LOCATER V6.22.2.0                                                  07/29/2020  18:03:03  PAGE 75


  C:40FDH         LINE#         1160
  C:4100H         LINE#         1161
  C:4103H         LINE#         1162
  C:4103H         LINE#         1163
  C:4106H         LINE#         1164
  C:4109H         LINE#         1165
  C:4109H         LINE#         1166
  C:410CH         LINE#         1167
  C:410FH         LINE#         1168
  C:410FH         LINE#         1169
  C:4112H         LINE#         1170
  C:4115H         LINE#         1171
  C:4115H         LINE#         1172
  C:4118H         LINE#         1173
  C:411BH         LINE#         1174
  C:411BH         LINE#         1175
  C:411EH         LINE#         1176
  C:4121H         LINE#         1177
  C:4121H         LINE#         1178
  C:4124H         LINE#         1179
  C:4127H         LINE#         1180
  C:4127H         LINE#         1181
  C:412AH         LINE#         1182
  C:412DH         LINE#         1183
  C:412DH         LINE#         1185
  C:412DH         LINE#         1186
  C:412DH         LINE#         1187
  C:4130H         LINE#         1188
  C:4133H         LINE#         1191
  C:4133H         LINE#         1192
  C:4151H         LINE#         1193
  C:4154H         LINE#         1194
  C:4154H         LINE#         1195
  C:4154H         LINE#         1196
  C:4154H         LINE#         1197
  -------         ENDPROC       MENU
  -------         ENDMOD        PROG

  -------         MODULE        PTO_PARALELO
  C:0000H         SYMBOL        _ICE_DUMMY_
  D:0080H         PUBLIC        P0
  D:00A0H         PUBLIC        P2
  D:00B0H         PUBLIC        P3
  B:0080H.2       PUBLIC        led_err_imp
  C:5D32H         PUBLIC        load_and_send_id_cod
  C:843BH         PUBLIC        _recibe_port
  B:00B0H.2       PUBLIC        ready
  B:0080H.6       PUBLIC        rx_in_data
  C:A407H         PUBLIC        Pulso_Bus
  C:8B0EH         PUBLIC        _send_portERR
  B:00B0H.3       PUBLIC        busy
  C:A112H         PUBLIC        load_and_send_info_reloj
  C:7DC1H         PUBLIC        _send_port
  B:00B0H.4       PUBLIC        port_clk
  C:A478H         PUBLIC        cond_ini_pto
  -------         PROC          _RECIBE_PORT
  X:0002H         SYMBOL        buffer_port
BL51 BANKED LINKER/LOCATER V6.22.2.0                                                  07/29/2020  18:03:03  PAGE 76


  -------         DO            
  D:0006H         SYMBOL        count
  X:0005H         SYMBOL        time_out
  X:0006H         SYMBOL        num_data
  X:0007H         SYMBOL        T_ANCHO
  X:0009H         SYMBOL        data_temp
  -------         ENDDO         
  C:843BH         LINE#         48
  C:8446H         LINE#         49
  C:8446H         LINE#         53
  C:844FH         LINE#         54
  C:8452H         LINE#         57
  C:8455H         LINE#         58
  C:8455H         LINE#         60
  C:8458H         LINE#         61
  C:845DH         LINE#         62
  C:845FH         LINE#         63
  C:8463H         LINE#         64
  C:8465H         LINE#         67
  C:846AH         LINE#         68
  C:8473H         LINE#         69
  C:8473H         LINE#         70
  C:8476H         LINE#         71
  C:8476H         LINE#         73
  C:847BH         LINE#         74
  C:847FH         LINE#         75
  C:847FH         LINE#         76
  C:8481H         LINE#         77
  C:8483H         LINE#         78
  C:8483H         LINE#         79
  C:8483H         LINE#         81
  C:8483H         LINE#         82
  C:8490H         LINE#         83
  C:8490H         LINE#         85
  C:8493H         LINE#         86
  C:8493H         LINE#         88
  C:8499H         LINE#         90
  C:849BH         LINE#         91
  C:84AFH         LINE#         92
  C:84B9H         LINE#         93
  C:84BFH         LINE#         94
  C:84C5H         LINE#         95
  C:84C7H         LINE#         96
  C:84C7H         LINE#         97
  C:84C7H         LINE#         98
  C:84C7H         LINE#         101
  C:84C9H         LINE#         102
  C:84CBH         LINE#         103
  C:84CBH         LINE#         104
  C:84CEH         LINE#         106
  C:84D3H         LINE#         107
  -------         ENDPROC       _RECIBE_PORT
  -------         PROC          _SEND_PORT
  X:0016H         SYMBOL        buffer_port
  X:0019H         SYMBOL        length_char
  -------         DO            
  X:001AH         SYMBOL        cont
BL51 BANKED LINKER/LOCATER V6.22.2.0                                                  07/29/2020  18:03:03  PAGE 77


  X:001EH         SYMBOL        timeOut
  X:001FH         SYMBOL        length
  -------         ENDDO         
  C:7DC1H         LINE#         114
  C:7DCFH         LINE#         115
  C:7DCFH         LINE#         120
  C:7DD3H         LINE#         122
  C:7DD5H         LINE#         123
  C:7DD7H         LINE#         124
  C:7DD9H         LINE#         125
  C:7DDEH         LINE#         126
  C:7DE0H         LINE#         127
  C:7DEAH         LINE#         129
  C:7DF3H         LINE#         130
  C:7DF3H         LINE#         131
  C:7DF5H         LINE#         132
  C:7DF7H         LINE#         133
  C:7E1BH         LINE#         134
  C:7E2FH         LINE#         135
  C:7E2FH         LINE#         136
  C:7E32H         LINE#         137
  C:7E34H         LINE#         138
  C:7E34H         LINE#         139
  C:7E36H         LINE#         140
  C:7E3FH         LINE#         141
  C:7E3FH         LINE#         145
  C:7E3FH         LINE#         147
  C:7E4FH         LINE#         148
  C:7E52H         LINE#         149
  C:7E5CH         LINE#         151
  C:7E62H         LINE#         152
  C:7E65H         LINE#         154
  C:7E65H         LINE#         156
  C:7E68H         LINE#         157
  C:7E6AH         LINE#         158
  C:7E6CH         LINE#         159
  C:7E6EH         LINE#         160
  -------         ENDPROC       _SEND_PORT
  -------         PROC          PULSO_BUS
  C:A407H         LINE#         435
  C:A407H         LINE#         436
  C:A407H         LINE#         437
  C:A409H         LINE#         438
  C:A410H         LINE#         439
  C:A412H         LINE#         440
  -------         ENDPROC       PULSO_BUS
  -------         PROC          _SEND_PORTERR
  X:002BH         SYMBOL        cod_err
  -------         DO            
  X:002CH         SYMBOL        timeOut
  X:002DH         SYMBOL        cont
  -------         ENDDO         
  C:8B0EH         LINE#         445
  C:8B14H         LINE#         446
  C:8B14H         LINE#         450
  C:8B16H         LINE#         451
  C:8B18H         LINE#         452
BL51 BANKED LINKER/LOCATER V6.22.2.0                                                  07/29/2020  18:03:03  PAGE 78


  C:8B1BH         LINE#         453
  C:8B23H         LINE#         455
  C:8B25H         LINE#         456
  C:8B27H         LINE#         457
  C:8B30H         LINE#         458
  C:8B30H         LINE#         459
  C:8B52H         LINE#         460
  C:8B66H         LINE#         461
  C:8B66H         LINE#         462
  C:8B6BH         LINE#         463
  C:8B6BH         LINE#         464
  C:8B6DH         LINE#         465
  C:8B76H         LINE#         466
  C:8B76H         LINE#         467
  C:8B7CH         LINE#         468
  C:8B7FH         LINE#         469
  C:8B7FH         LINE#         470
  C:8B81H         LINE#         471
  C:8B83H         LINE#         472
  C:8B85H         LINE#         474
  C:8B88H         LINE#         476
  C:8B8FH         LINE#         477
  -------         ENDPROC       _SEND_PORTERR
  -------         PROC          COND_INI_PTO
  C:A478H         LINE#         483
  C:A478H         LINE#         484
  C:A478H         LINE#         486
  C:A47AH         LINE#         487
  C:A47CH         LINE#         488
  C:A47EH         LINE#         489
  C:A481H         LINE#         490
  -------         ENDPROC       COND_INI_PTO
  -------         PROC          LOAD_AND_SEND_INFO_RELOJ
  -------         DO            
  X:0003H         SYMBOL        buffer_info
  -------         ENDDO         
  C:A112H         LINE#         495
  C:A112H         LINE#         496
  C:A112H         LINE#         499
  C:A118H         LINE#         501
  C:A11CH         LINE#         503
  C:A125H         LINE#         504
  C:A12FH         LINE#         505
  C:A133H         LINE#         509
  -------         ENDPROC       LOAD_AND_SEND_INFO_RELOJ
  -------         PROC          LOAD_AND_SEND_ID_COD
  -------         DO            
  X:0003H         SYMBOL        buffer_info
  X:000EH         SYMBOL        buf
  X:0012H         SYMBOL        i
  X:0013H         SYMBOL        k
  X:0014H         SYMBOL        ID_CLIENTE
  X:0015H         SYMBOL        COD_PARK
  -------         ENDDO         
  C:5D32H         LINE#         516
  C:5D32H         LINE#         517
  C:5D32H         LINE#         523
BL51 BANKED LINKER/LOCATER V6.22.2.0                                                  07/29/2020  18:03:03  PAGE 79


  C:5D37H         LINE#         524
  C:5D43H         LINE#         525
  C:5D51H         LINE#         526
  C:5D57H         LINE#         527
  C:5D5BH         LINE#         528
  C:5D7AH         LINE#         529
  C:5D80H         LINE#         530
  C:5D80H         LINE#         531
  C:5D91H         LINE#         532
  C:5D91H         LINE#         533
  C:5DA0H         LINE#         534
  C:5DA6H         LINE#         535
  C:5DA8H         LINE#         536
  C:5DC0H         LINE#         538
  C:5DC8H         LINE#         541
  C:5DE7H         LINE#         543
  C:5DECH         LINE#         544
  C:5DECH         LINE#         545
  C:5DFDH         LINE#         546
  C:5DFDH         LINE#         547
  C:5E0CH         LINE#         548
  C:5E12H         LINE#         549
  C:5E2CH         LINE#         550
  C:5E34H         LINE#         553
  C:5E45H         LINE#         554
  -------         ENDPROC       LOAD_AND_SEND_ID_COD
  -------         ENDMOD        PTO_PARALELO

  -------         MODULE        TIBBO
  C:0000H         SYMBOL        _ICE_DUMMY_
  C:9B88H         PUBLIC        _Debug_HexDec
  C:99E8H         PUBLIC        _Debug_txt_Tibbo
  D:0080H         PUBLIC        P0
  D:0090H         PUBLIC        P1
  B:0090H.0       PUBLIC        txd2
  B:00A8H.7       PUBLIC        EA
  C:9995H         PUBLIC        _tx_aux
  B:0080H.0       PUBLIC        rx_ip
  C:A3C6H         PUBLIC        Debug_Dividir_texto
  C:A4DCH         PUBLIC        cond_ini_tibbo
  C:A3A4H         PUBLIC        time_mbit
  C:8B96H         PUBLIC        rx_Data
  C:A323H         PUBLIC        time_bit
  C:9EC8H         PUBLIC        _Debug_pto_paralelo
  C:A081H         PUBLIC        _Debug_monitor
  C:9225H         PUBLIC        _DebugBufferMF
  C:9A6EH         PUBLIC        _Debug_chr_Tibbo
  C:A31DH         SYMBOL        L?0066
  -------         PROC          L?0065
  -------         ENDPROC       L?0065
  C:A31DH         SYMBOL        L?0066
  -------         PROC          TIME_BIT
  -------         DO            
  D:0007H         SYMBOL        j
  -------         ENDDO         
  C:A323H         LINE#         19
  C:A323H         LINE#         20
BL51 BANKED LINKER/LOCATER V6.22.2.0                                                  07/29/2020  18:03:03  PAGE 80


  C:A323H         LINE#         23
  C:A32FH         LINE#         24
  C:A32FH         LINE#         25
  C:A330H         LINE#         26
  C:A331H         LINE#         27
  C:A332H         LINE#         28
  C:A333H         LINE#         29
  C:A334H         LINE#         30
  C:A335H         LINE#         31
  C:A336H         LINE#         32
  C:A337H         LINE#         33
  C:A338H         LINE#         38
  C:A33BH         LINE#         39
  -------         ENDPROC       TIME_BIT
  -------         PROC          TIME_MBIT
  -------         DO            
  D:0007H         SYMBOL        j
  -------         ENDDO         
  C:A3A4H         LINE#         42
  C:A3A4H         LINE#         43
  C:A3A4H         LINE#         45
  C:A3B0H         LINE#         46
  C:A3B0H         LINE#         47
  C:A3B1H         LINE#         48
  C:A3B2H         LINE#         49
  C:A3B3H         LINE#         50
  C:A3B4H         LINE#         51
  C:A3B5H         LINE#         52
  C:A3B6H         LINE#         53
  C:A3B7H         LINE#         54
  C:A3BAH         LINE#         56
  -------         ENDPROC       TIME_MBIT
  -------         PROC          L?0070
  -------         ENDPROC       L?0070
  -------         PROC          _TX_AUX
  D:0006H         SYMBOL        caracter
  -------         DO            
  D:0004H         SYMBOL        j
  D:0005H         SYMBOL        temporal
  D:0006H         SYMBOL        bitTX
  -------         ENDDO         
  C:9995H         LINE#         61
  C:9997H         LINE#         62
  C:9997H         LINE#         65
  C:9999H         LINE#         66
  C:999BH         LINE#         67
  C:999EH         LINE#         68
  C:999FH         LINE#         69
  C:99A0H         LINE#         70
  C:99A2H         LINE#         71
  C:99A6H         LINE#         72
  C:99A8H         LINE#         73
  C:99A8H         LINE#         74
  C:99AAH         LINE#         75
  C:99ACH         LINE#         77
  C:99ACH         LINE#         78
  C:99AEH         LINE#         79
BL51 BANKED LINKER/LOCATER V6.22.2.0                                                  07/29/2020  18:03:03  PAGE 81


  C:99AEH         LINE#         80
  C:99B1H         LINE#         81
  C:99BDH         LINE#         82
  C:99BDH         LINE#         83
  C:99C1H         LINE#         84
  C:99C4H         LINE#         85
  C:99C6H         LINE#         86
  C:99C6H         LINE#         87
  C:99C8H         LINE#         88
  C:99CAH         LINE#         90
  C:99CAH         LINE#         91
  C:99CCH         LINE#         92
  C:99CCH         LINE#         93
  C:99CFH         LINE#         94
  C:99D2H         LINE#         95
  C:99D4H         LINE#         96
  C:99D7H         LINE#         97
  C:99DAH         LINE#         99
  C:99DCH         LINE#         100
  -------         ENDPROC       _TX_AUX
  -------         PROC          _DEBUG_HEXDEC
  D:0007H         SYMBOL        xfc
  -------         DO            
  X:0019H         SYMBOL        valor
  D:0006H         SYMBOL        centena
  D:0003H         SYMBOL        decena
  D:0002H         SYMBOL        unidad
  -------         ENDDO         
  C:9B88H         LINE#         103
  C:9B88H         LINE#         104
  C:9B88H         LINE#         107
  C:9B8FH         LINE#         109
  C:9B90H         LINE#         110
  C:9B91H         LINE#         111
  C:9B92H         LINE#         112
  C:9B9AH         LINE#         113
  C:9B9AH         LINE#         114
  C:9BA4H         LINE#         115
  C:9BA4H         LINE#         116
  C:9BA8H         LINE#         117
  C:9BA9H         LINE#         118
  C:9BABH         LINE#         119
  C:9BB5H         LINE#         120
  C:9BB5H         LINE#         121
  C:9BB9H         LINE#         122
  C:9BBAH         LINE#         123
  C:9BBCH         LINE#         124
  C:9BBEH         LINE#         125
  C:9BC2H         LINE#         126
  C:9BC6H         LINE#         127
  C:9BCDH         LINE#         129
  C:9BCDH         LINE#         130
  -------         ENDPROC       _DEBUG_HEXDEC
  -------         PROC          _DEBUG_CHR_TIBBO
  D:0003H         SYMBOL        Dat
  -------         DO            
  D:0007H         SYMBOL        temp
BL51 BANKED LINKER/LOCATER V6.22.2.0                                                  07/29/2020  18:03:03  PAGE 82


  -------         ENDDO         
  C:9A6EH         LINE#         135
  C:9A70H         LINE#         136
  C:9A70H         LINE#         138
  C:9A78H         LINE#         139
  C:9A78H         LINE#         140
  C:9A7FH         LINE#         141
  C:9A92H         LINE#         143
  C:9A95H         LINE#         145
  C:9A99H         LINE#         146
  C:9AACH         LINE#         147
  C:9AAFH         LINE#         148
  C:9AB4H         LINE#         150
  C:9AB4H         LINE#         151
  -------         ENDPROC       _DEBUG_CHR_TIBBO
  -------         PROC          _DEBUGBUFFERMF
  X:0028H         SYMBOL        str
  X:002BH         SYMBOL        num_char
  X:002CH         SYMBOL        io
  -------         DO            
  X:002DH         SYMBOL        j
  -------         ENDDO         
  C:9225H         LINE#         158
  C:9233H         LINE#         159
  C:9233H         LINE#         163
  C:923BH         LINE#         164
  C:923BH         LINE#         165
  C:924AH         LINE#         166
  C:924AH         LINE#         167
  C:924EH         LINE#         168
  C:9257H         LINE#         169
  C:9269H         LINE#         170
  C:9269H         LINE#         171
  C:927BH         LINE#         172
  C:9285H         LINE#         173
  C:928DH         LINE#         174
  C:9292H         LINE#         175
  C:9297H         LINE#         176
  C:9297H         LINE#         178
  -------         ENDPROC       _DEBUGBUFFERMF
  C:99E2H         SYMBOL        L?0068
  -------         PROC          L?0067
  -------         ENDPROC       L?0067
  C:99E2H         SYMBOL        L?0068
  -------         PROC          _DEBUG_TXT_TIBBO
  X:0038H         SYMBOL        str
  -------         DO            
  X:003BH         SYMBOL        i
  -------         ENDDO         
  C:99E8H         LINE#         183
  C:99F3H         LINE#         184
  C:99F3H         LINE#         186
  C:99F6H         LINE#         188
  C:99FEH         LINE#         189
  C:99FEH         LINE#         190
  C:9A1AH         LINE#         191
  C:9A1AH         LINE#         192
BL51 BANKED LINKER/LOCATER V6.22.2.0                                                  07/29/2020  18:03:03  PAGE 83


  C:9A1DH         LINE#         193
  C:9A25H         LINE#         195
  C:9A25H         LINE#         196
  -------         ENDPROC       _DEBUG_TXT_TIBBO
  -------         PROC          L?0069
  -------         ENDPROC       L?0069
  -------         PROC          DEBUG_DIVIDIR_TEXTO
  C:A3C6H         LINE#         198
  C:A3C6H         LINE#         199
  C:A3C6H         LINE#         200
  -------         ENDPROC       DEBUG_DIVIDIR_TEXTO
  -------         PROC          RX_DATA
  -------         DO            
  D:0006H         SYMBOL        temporal
  -------         ENDDO         
  C:8B96H         LINE#         206
  C:8B96H         LINE#         207
  C:8B96H         LINE#         210
  C:8B98H         LINE#         211
  C:8B9BH         LINE#         213
  C:8B9EH         LINE#         215
  C:8BAAH         LINE#         216
  C:8BAAH         LINE#         218
  C:8BADH         LINE#         220
  C:8BB9H         LINE#         221
  C:8BB9H         LINE#         223
  C:8BBCH         LINE#         225
  C:8BC8H         LINE#         226
  C:8BC8H         LINE#         228
  C:8BCBH         LINE#         230
  C:8BD7H         LINE#         231
  C:8BD7H         LINE#         233
  C:8BDAH         LINE#         235
  C:8BE6H         LINE#         236
  C:8BE6H         LINE#         238
  C:8BE9H         LINE#         240
  C:8BF5H         LINE#         241
  C:8BF5H         LINE#         243
  C:8BF8H         LINE#         245
  C:8C04H         LINE#         246
  C:8C04H         LINE#         248
  C:8C07H         LINE#         249
  C:8C15H         LINE#         251
  C:8C18H         LINE#         252
  C:8C1BH         LINE#         253
  C:8C1BH         LINE#         254
  C:8C1BH         LINE#         257
  C:8C1DH         LINE#         259
  -------         ENDPROC       RX_DATA
  -------         PROC          COND_INI_TIBBO
  C:A4DCH         LINE#         277
  C:A4DCH         LINE#         278
  C:A4DCH         LINE#         280
  C:A4DEH         LINE#         281
  C:A4E0H         LINE#         282
  -------         ENDPROC       COND_INI_TIBBO
  -------         PROC          _DEBUG_PTO_PARALELO
BL51 BANKED LINKER/LOCATER V6.22.2.0                                                  07/29/2020  18:03:03  PAGE 84


  X:0002H         SYMBOL        buffer
  X:0005H         SYMBOL        Length_trama
  C:9EC8H         LINE#         283
  C:9ECBH         LINE#         284
  C:9ECBH         LINE#         285
  C:9ECEH         LINE#         286
  C:9ED7H         LINE#         287
  C:9EEEH         LINE#         288
  C:9EF1H         LINE#         289
  C:9EFAH         LINE#         290
  C:9EFDH         LINE#         291
  C:9F00H         LINE#         292
  -------         ENDPROC       _DEBUG_PTO_PARALELO
  -------         PROC          _DEBUG_MONITOR
  X:0015H         SYMBOL        buffer
  X:0018H         SYMBOL        Length_trama
  C:A081H         LINE#         295
  C:A084H         LINE#         296
  C:A084H         LINE#         297
  C:A087H         LINE#         298
  C:A090H         LINE#         299
  C:A09EH         LINE#         300
  C:A0A1H         LINE#         301
  C:A0AAH         LINE#         302
  C:A0ADH         LINE#         303
  C:A0B0H         LINE#         304
  -------         ENDPROC       _DEBUG_MONITOR
  -------         ENDMOD        TIBBO

  -------         MODULE        UART
  C:0000H         SYMBOL        _ICE_DUMMY_
  C:A207H         PUBLIC        com_getchar
  C:A419H         PUBLIC        com_rbuflen
  C:A42BH         PUBLIC        com_tbuflen
  B:00A8H.4       PUBLIC        ES
  B:0098H.0       PUBLIC        RI
  C:9F03H         PUBLIC        _com_putchar
  B:0098H.1       PUBLIC        TI
  B:0021H.3       PUBLIC        aSk
  B:00B8H.4       PUBLIC        PS
  D:000DH         SYMBOL        r_in
  D:000EH         SYMBOL        r_out
  D:000FH         SYMBOL        t_in
  D:0010H         SYMBOL        t_out
  D:0099H         PUBLIC        SBUF
  D:0087H         PUBLIC        PCON
  D:0089H         PUBLIC        TMOD
  B:0021H.4       SYMBOL        ti_restart
  B:00A8H.3       PUBLIC        ET1
  D:008DH         PUBLIC        TH1
  B:0098H.7       PUBLIC        SM0
  B:0098H.6       PUBLIC        SM1
  D:008BH         PUBLIC        TL1
  B:0098H.5       PUBLIC        SM2
  B:0088H.6       PUBLIC        TR1
  C:A13EH         PUBLIC        com_initialize
  X:0208H         PUBLIC        cnt__ask_off
BL51 BANKED LINKER/LOCATER V6.22.2.0                                                  07/29/2020  18:03:03  PAGE 85


  B:0098H.4       PUBLIC        REN
  C:A190H         PUBLIC        com_baudrate
  C:4B49H         SYMBOL        com_isr
  -------         PROC          COM_ISR
  -------         DO            
  X:0206H         SYMBOL        cDatoRx
  D:0006H         SYMBOL        k
  D:0007H         SYMBOL        bcc
  X:0207H         SYMBOL        num_datos
  -------         ENDDO         
  C:4B49H         LINE#         96
  C:4B5EH         LINE#         104
  C:4B64H         LINE#         105
  C:4B64H         LINE#         107
  C:4B66H         LINE#         108
  C:4B6CH         LINE#         109
  C:4B7CH         LINE#         110
  C:4B7CH         LINE#         111
  C:4B87H         LINE#         112
  C:4B89H         LINE#         114
  C:4B89H         LINE#         115
  C:4B99H         LINE#         116
  C:4B99H         LINE#         117
  C:4B9EH         LINE#         118
  C:4B9EH         LINE#         119
  C:4BB5H         LINE#         120
  C:4BB5H         LINE#         124
  C:4BB5H         LINE#         127
  C:4BC4H         LINE#         128
  C:4BC4H         LINE#         129
  C:4BC6H         LINE#         130
  C:4BCEH         LINE#         131
  C:4BD3H         LINE#         133
  C:4BD3H         LINE#         134
  C:4BD6H         LINE#         138
  C:4BD6H         LINE#         139
  C:4BD6H         LINE#         140
  C:4BEEH         LINE#         141
  C:4BFDH         LINE#         142
  C:4BFDH         LINE#         143
  C:4BFDH         LINE#         144
  C:4BFFH         LINE#         146
  C:4BFFH         LINE#         147
  C:4C01H         LINE#         148
  C:4C01H         LINE#         149
  C:4C01H         LINE#         150
  C:4C04H         LINE#         154
  C:4C04H         LINE#         156
  C:4C0DH         LINE#         157
  C:4C0DH         LINE#         159
  C:4C13H         LINE#         160
  C:4C26H         LINE#         161
  C:4C26H         LINE#         162
  C:4C29H         LINE#         164
  C:4C29H         LINE#         165
  C:4C3EH         LINE#         166
  C:4C44H         LINE#         167
BL51 BANKED LINKER/LOCATER V6.22.2.0                                                  07/29/2020  18:03:03  PAGE 86


  C:4C44H         LINE#         169
  C:4C47H         LINE#         173
  C:4C47H         LINE#         175
  C:4C5FH         LINE#         176
  C:4C65H         LINE#         177
  C:4C68H         LINE#         178
  C:4C68H         LINE#         179
  C:4C80H         LINE#         180
  C:4C80H         LINE#         181
  C:4C81H         LINE#         182
  C:4C8EH         LINE#         183
  C:4C8EH         LINE#         184
  C:4C9BH         LINE#         185
  C:4C9EH         LINE#         186
  C:4CACH         LINE#         187
  C:4CACH         LINE#         188
  C:4CAEH         LINE#         189
  C:4CB3H         LINE#         190
  C:4CB5H         LINE#         191
  C:4CB9H         LINE#         193
  C:4CBBH         LINE#         195
  C:4CBBH         LINE#         196
  C:4CBBH         LINE#         197
  C:4CBBH         LINE#         198
  C:4CBDH         LINE#         200
  C:4CBDH         LINE#         201
  C:4CBDH         LINE#         202
  C:4CBDH         LINE#         204
  C:4CBFH         LINE#         206
  C:4CBFH         LINE#         207
  C:4CC5H         LINE#         208
  C:4CC5H         LINE#         210
  C:4CC7H         LINE#         215
  C:4CC7H         LINE#         216
  C:4CCCH         LINE#         217
  C:4CCCH         LINE#         218
  C:4CCCH         LINE#         219
  C:4CCCH         LINE#         224
  C:4CCFH         LINE#         225
  C:4CCFH         LINE#         226
  C:4CD1H         LINE#         228
  C:4CD7H         LINE#         229
  C:4CD7H         LINE#         230
  C:4CE1H         LINE#         232
  C:4CE3H         LINE#         233
  C:4CE5H         LINE#         234
  C:4CE7H         LINE#         236
  C:4CE7H         LINE#         237
  C:4CE9H         LINE#         238
  C:4CE9H         LINE#         239
  C:4CE9H         LINE#         241
  -------         ENDPROC       COM_ISR
  -------         PROC          COM_INITIALIZE
  C:A13EH         LINE#         257
  C:A145H         LINE#         258
  C:A145H         LINE#         262
  C:A148H         LINE#         267
BL51 BANKED LINKER/LOCATER V6.22.2.0                                                  07/29/2020  18:03:03  PAGE 87


  C:A14BH         LINE#         268
  C:A14DH         LINE#         270
  C:A14FH         LINE#         271
  C:A151H         LINE#         276
  C:A155H         LINE#         277
  C:A157H         LINE#         278
  C:A159H         LINE#         280
  C:A15BH         LINE#         281
  C:A15DH         LINE#         282
  C:A15FH         LINE#         284
  C:A161H         LINE#         285
  C:A163H         LINE#         286
  -------         ENDPROC       COM_INITIALIZE
  -------         PROC          COM_BAUDRATE
  C:A190H         LINE#         292
  C:A197H         LINE#         294
  C:A197H         LINE#         298
  C:A199H         LINE#         299
  C:A19CH         LINE#         300
  C:A19EH         LINE#         305
  C:A1A0H         LINE#         306
  C:A1A2H         LINE#         308
  C:A1A5H         LINE#         310
  C:A1A8H         LINE#         311
  C:A1ABH         LINE#         313
  C:A1AEH         LINE#         314
  C:A1B1H         LINE#         315
  C:A1B3H         LINE#         316
  -------         ENDPROC       COM_BAUDRATE
  -------         PROC          _COM_PUTCHAR
  X:00A9H         SYMBOL        c
  C:9F03H         LINE#         322
  C:9F0FH         LINE#         323
  C:9F0FH         LINE#         327
  C:9F1CH         LINE#         328
  C:9F20H         LINE#         334
  C:9F2EH         LINE#         336
  C:9F30H         LINE#         338
  C:9F33H         LINE#         339
  C:9F33H         LINE#         340
  C:9F35H         LINE#         341
  C:9F37H         LINE#         342
  C:9F37H         LINE#         344
  C:9F39H         LINE#         345
  -------         ENDPROC       _COM_PUTCHAR
  -------         PROC          COM_GETCHAR
  C:A207H         LINE#         351
  C:A20EH         LINE#         352
  C:A20EH         LINE#         353
  C:A214H         LINE#         354
  C:A21AH         LINE#         356
  C:A228H         LINE#         357
  -------         ENDPROC       COM_GETCHAR
  -------         PROC          COM_RBUFLEN
  C:A419H         LINE#         363
  C:A420H         LINE#         364
  C:A420H         LINE#         365
BL51 BANKED LINKER/LOCATER V6.22.2.0                                                  07/29/2020  18:03:03  PAGE 88


  C:A426H         LINE#         366
  -------         ENDPROC       COM_RBUFLEN
  -------         PROC          COM_TBUFLEN
  C:A42BH         LINE#         372
  C:A432H         LINE#         373
  C:A432H         LINE#         374
  C:A438H         LINE#         375
  -------         ENDPROC       COM_TBUFLEN
  -------         ENDMOD        UART

  -------         MODULE        LINTECH
  C:0000H         SYMBOL        _ICE_DUMMY_
  C:826AH         PUBLIC        _Inicializa
  C:7656H         PUBLIC        _RD_MF
  C:8078H         PUBLIC        Dwload_EEprom
  C:8692H         PUBLIC        _Card_Insercion
  C:6C70H         PUBLIC        _Mov_Card
  C:639BH         PUBLIC        _WR_MF
  C:8723H         PUBLIC        LoadVerify_EEprom
  C:8C1EH         PUBLIC        Unique_Identifier_UID
  C:9034H         PUBLIC        Power_off
  C:90B4H         PUBLIC        _Check_Status
  C:7FCEH         PUBLIC        Clave_Seguridad_S2
  C:8FB4H         PUBLIC        Aut_Card_check_Status
  -------         PROC          _INICIALIZA
  X:0003H         SYMBOL        TipoMovimiento
  -------         DO            
  D:0003H         SYMBOL        j
  X:0004H         SYMBOL        bcc
  X:0005H         SYMBOL        g_scArrTxComSoft
  -------         ENDDO         
  C:826AH         LINE#         66
  C:826FH         LINE#         67
  C:826FH         LINE#         70
  C:8272H         LINE#         71
  C:8288H         LINE#         72
  C:8288H         LINE#         74
  C:8291H         LINE#         76
  C:8297H         LINE#         77
  C:829AH         LINE#         78
  C:829CH         LINE#         79
  C:82A0H         LINE#         80
  C:82A4H         LINE#         81
  C:82A8H         LINE#         82
  C:82B0H         LINE#         83
  C:82B4H         LINE#         84
  C:82C0H         LINE#         85
  C:82C0H         LINE#         86
  C:82D4H         LINE#         87
  C:82D7H         LINE#         88
  C:82DFH         LINE#         89
  C:82E1H         LINE#         90
  C:82E6H         LINE#         91
  C:82F5H         LINE#         92
  C:8300H         LINE#         93
  C:8306H         LINE#         94
  C:8306H         LINE#         95
BL51 BANKED LINKER/LOCATER V6.22.2.0                                                  07/29/2020  18:03:03  PAGE 89


  -------         ENDPROC       _INICIALIZA
  -------         PROC          _CHECK_STATUS
  X:0003H         SYMBOL        Detalle
  -------         DO            
  D:0006H         SYMBOL        j
  D:0007H         SYMBOL        bcc
  X:0004H         SYMBOL        g_scArrTxComSoft
  -------         ENDDO         
  C:90B4H         LINE#         107
  C:90B9H         LINE#         108
  C:90B9H         LINE#         111
  C:90C2H         LINE#         113
  C:90C4H         LINE#         115
  C:90CAH         LINE#         116
  C:90CDH         LINE#         117
  C:90CFH         LINE#         118
  C:90D3H         LINE#         119
  C:90D7H         LINE#         120
  C:90DBH         LINE#         121
  C:90E3H         LINE#         122
  C:90E7H         LINE#         123
  C:90F3H         LINE#         124
  C:90F3H         LINE#         125
  C:9100H         LINE#         126
  C:9103H         LINE#         127
  C:9108H         LINE#         128
  C:910AH         LINE#         129
  C:910FH         LINE#         130
  C:911EH         LINE#         131
  C:9129H         LINE#         132
  C:912FH         LINE#         133
  -------         ENDPROC       _CHECK_STATUS
  -------         PROC          _CARD_INSERCION
  D:0007H         SYMBOL        Tipo
  -------         DO            
  D:0006H         SYMBOL        j
  D:0007H         SYMBOL        bcc
  X:0003H         SYMBOL        g_scArrTxComSoft
  -------         ENDDO         
  C:8692H         LINE#         143
  C:8692H         LINE#         144
  C:8692H         LINE#         147
  C:869FH         LINE#         148
  C:869FH         LINE#         149
  C:86A6H         LINE#         150
  C:86ACH         LINE#         151
  C:86AEH         LINE#         153
  C:86AEH         LINE#         155
  C:86B5H         LINE#         156
  C:86BBH         LINE#         158
  C:86BBH         LINE#         160
  C:86BDH         LINE#         162
  C:86C3H         LINE#         163
  C:86C6H         LINE#         164
  C:86C8H         LINE#         165
  C:86CCH         LINE#         166
  C:86D0H         LINE#         167
BL51 BANKED LINKER/LOCATER V6.22.2.0                                                  07/29/2020  18:03:03  PAGE 90


  C:86D4H         LINE#         169
  C:86DAH         LINE#         170
  C:86E6H         LINE#         171
  C:86E6H         LINE#         172
  C:86F3H         LINE#         173
  C:86F6H         LINE#         175
  C:86FBH         LINE#         177
  C:86FDH         LINE#         178
  C:8702H         LINE#         179
  C:8711H         LINE#         180
  C:871CH         LINE#         181
  C:8722H         LINE#         182
  -------         ENDPROC       _CARD_INSERCION
  -------         PROC          _MOV_CARD
  X:0003H         SYMBOL        Posicion
  -------         DO            
  D:0003H         SYMBOL        j
  X:0004H         SYMBOL        bcc
  X:0005H         SYMBOL        g_scArrTxComSoft
  -------         ENDDO         
  C:6C70H         LINE#         193
  C:6C75H         LINE#         194
  C:6C75H         LINE#         197
  C:6C78H         LINE#         199
  C:6C98H         LINE#         200
  C:6C98H         LINE#         201
  C:6C9FH         LINE#         202
  C:6C9FH         LINE#         203
  C:6CA5H         LINE#         204
  C:6CA7H         LINE#         205
  C:6CAEH         LINE#         206
  C:6CAEH         LINE#         207
  C:6CB4H         LINE#         208
  C:6CB6H         LINE#         209
  C:6CBDH         LINE#         210
  C:6CBDH         LINE#         211
  C:6CC3H         LINE#         212
  C:6CC5H         LINE#         213
  C:6CCCH         LINE#         214
  C:6CCCH         LINE#         215
  C:6CD2H         LINE#         216
  C:6CD4H         LINE#         217
  C:6CDBH         LINE#         218
  C:6CDBH         LINE#         219
  C:6CE4H         LINE#         220
  C:6CE4H         LINE#         222
  C:6CEAH         LINE#         223
  C:6CEDH         LINE#         224
  C:6CEFH         LINE#         225
  C:6CF3H         LINE#         226
  C:6CF7H         LINE#         227
  C:6CFBH         LINE#         228
  C:6D03H         LINE#         229
  C:6D07H         LINE#         230
  C:6D13H         LINE#         231
  C:6D13H         LINE#         232
  C:6D27H         LINE#         233
BL51 BANKED LINKER/LOCATER V6.22.2.0                                                  07/29/2020  18:03:03  PAGE 91


  C:6D2AH         LINE#         234
  C:6D32H         LINE#         235
  C:6D34H         LINE#         236
  C:6D39H         LINE#         237
  C:6D48H         LINE#         238
  C:6D53H         LINE#         239
  C:6D59H         LINE#         240
  C:6D59H         LINE#         242
  -------         ENDPROC       _MOV_CARD
  -------         PROC          AUT_CARD_CHECK_STATUS
  -------         DO            
  D:0003H         SYMBOL        j
  X:0003H         SYMBOL        bcc
  X:0004H         SYMBOL        g_scArrTxComSoft
  -------         ENDDO         
  C:8FB4H         LINE#         248
  C:8FB4H         LINE#         249
  C:8FB4H         LINE#         252
  C:8FB9H         LINE#         254
  C:8FC2H         LINE#         256
  C:8FC8H         LINE#         257
  C:8FCBH         LINE#         258
  C:8FCDH         LINE#         259
  C:8FD1H         LINE#         260
  C:8FD5H         LINE#         261
  C:8FD9H         LINE#         262
  C:8FDDH         LINE#         263
  C:8FE1H         LINE#         264
  C:8FEDH         LINE#         265
  C:8FEDH         LINE#         266
  C:9001H         LINE#         267
  C:9004H         LINE#         268
  C:900CH         LINE#         269
  C:900EH         LINE#         270
  C:9013H         LINE#         271
  C:9022H         LINE#         272
  C:902DH         LINE#         273
  C:9033H         LINE#         274
  -------         ENDPROC       AUT_CARD_CHECK_STATUS
  -------         PROC          CLAVE_SEGURIDAD_S2
  -------         DO            
  D:0003H         SYMBOL        j
  X:0008H         SYMBOL        bcc
  X:0009H         SYMBOL        g_scArrTxComSoft
  -------         ENDDO         
  C:7FCEH         LINE#         277
  C:7FCEH         LINE#         278
  C:7FCEH         LINE#         281
  C:7FD3H         LINE#         282
  C:7FDCH         LINE#         285
  C:7FE2H         LINE#         286
  C:7FE5H         LINE#         287
  C:7FE7H         LINE#         288
  C:7FEBH         LINE#         289
  C:7FEFH         LINE#         290
  C:7FF3H         LINE#         291
  C:7FF7H         LINE#         292
BL51 BANKED LINKER/LOCATER V6.22.2.0                                                  07/29/2020  18:03:03  PAGE 92


  C:7FFAH         LINE#         293
  C:7FFEH         LINE#         294
  C:8001H         LINE#         295
  C:8005H         LINE#         297
  C:8009H         LINE#         299
  C:800DH         LINE#         300
  C:8011H         LINE#         301
  C:8015H         LINE#         302
  C:8019H         LINE#         303
  C:801DH         LINE#         304
  C:8021H         LINE#         307
  C:8025H         LINE#         309
  C:8031H         LINE#         310
  C:8031H         LINE#         311
  C:8045H         LINE#         312
  C:8048H         LINE#         313
  C:8050H         LINE#         314
  C:8052H         LINE#         315
  C:8057H         LINE#         316
  C:8066H         LINE#         317
  C:8071H         LINE#         318
  C:8077H         LINE#         321
  -------         ENDPROC       CLAVE_SEGURIDAD_S2
  -------         PROC          DWLOAD_EEPROM
  -------         DO            
  D:0003H         SYMBOL        j
  X:0003H         SYMBOL        bcc
  X:0004H         SYMBOL        g_scArrTxComSoft
  -------         ENDDO         
  C:8078H         LINE#         326
  C:8078H         LINE#         327
  C:8078H         LINE#         330
  C:807DH         LINE#         331
  C:8086H         LINE#         333
  C:808CH         LINE#         334
  C:808FH         LINE#         335
  C:8091H         LINE#         336
  C:8095H         LINE#         337
  C:8099H         LINE#         338
  C:809DH         LINE#         339
  C:80A1H         LINE#         340
  C:80A4H         LINE#         341
  C:80A8H         LINE#         342
  C:80ABH         LINE#         343
  C:80AEH         LINE#         344
  C:80B2H         LINE#         345
  C:80B6H         LINE#         346
  C:80BAH         LINE#         347
  C:80BEH         LINE#         348
  C:80C2H         LINE#         349
  C:80C6H         LINE#         350
  C:80CAH         LINE#         351
  C:80CEH         LINE#         353
  C:80DAH         LINE#         354
  C:80DAH         LINE#         355
  C:80EEH         LINE#         356
  C:80F1H         LINE#         357
BL51 BANKED LINKER/LOCATER V6.22.2.0                                                  07/29/2020  18:03:03  PAGE 93


  C:80F9H         LINE#         358
  C:80FBH         LINE#         359
  C:8100H         LINE#         360
  C:810FH         LINE#         361
  C:811AH         LINE#         362
  C:8120H         LINE#         363
  -------         ENDPROC       DWLOAD_EEPROM
  -------         PROC          LOADVERIFY_EEPROM
  -------         DO            
  D:0003H         SYMBOL        j
  X:0003H         SYMBOL        bcc
  X:0004H         SYMBOL        g_scArrTxComSoft
  -------         ENDDO         
  C:8723H         LINE#         369
  C:8723H         LINE#         370
  C:8723H         LINE#         373
  C:8728H         LINE#         374
  C:8731H         LINE#         377
  C:8737H         LINE#         378
  C:873AH         LINE#         379
  C:873CH         LINE#         380
  C:8740H         LINE#         381
  C:8744H         LINE#         382
  C:8748H         LINE#         383
  C:874CH         LINE#         384
  C:874FH         LINE#         385
  C:8753H         LINE#         386
  C:8756H         LINE#         387
  C:8759H         LINE#         388
  C:875DH         LINE#         389
  C:8761H         LINE#         393
  C:876DH         LINE#         394
  C:876DH         LINE#         395
  C:8781H         LINE#         396
  C:8784H         LINE#         397
  C:878CH         LINE#         398
  C:878EH         LINE#         399
  C:8793H         LINE#         400
  C:87A2H         LINE#         401
  C:87ADH         LINE#         402
  C:87B3H         LINE#         404
  -------         ENDPROC       LOADVERIFY_EEPROM
  -------         PROC          _RD_MF
  X:0003H         SYMBOL        Sector
  X:0004H         SYMBOL        Bloque
  -------         DO            
  D:0003H         SYMBOL        j
  X:0005H         SYMBOL        bcc
  X:0006H         SYMBOL        g_scArrTxComSoft
  -------         ENDDO         
  C:7656H         LINE#         410
  C:765EH         LINE#         411
  C:765EH         LINE#         415
  C:7661H         LINE#         417
  C:766AH         LINE#         418
  C:7672H         LINE#         420
  C:767BH         LINE#         421
BL51 BANKED LINKER/LOCATER V6.22.2.0                                                  07/29/2020  18:03:03  PAGE 94


  C:7683H         LINE#         422
  C:768CH         LINE#         425
  C:7692H         LINE#         426
  C:7695H         LINE#         427
  C:7697H         LINE#         428
  C:769BH         LINE#         429
  C:769FH         LINE#         430
  C:76A3H         LINE#         431
  C:76A7H         LINE#         432
  C:76AAH         LINE#         433
  C:76AEH         LINE#         434
  C:76B6H         LINE#         435
  C:76BEH         LINE#         436
  C:76C2H         LINE#         437
  C:76C6H         LINE#         439
  C:76D2H         LINE#         440
  C:76D2H         LINE#         441
  C:76E6H         LINE#         442
  C:76E9H         LINE#         443
  C:76F1H         LINE#         446
  C:76F3H         LINE#         447
  C:76F8H         LINE#         448
  C:7707H         LINE#         449
  C:7712H         LINE#         450
  C:7718H         LINE#         452
  -------         ENDPROC       _RD_MF
  -------         PROC          _WR_MF
  X:0003H         SYMBOL        Sector
  X:0004H         SYMBOL        Bloque
  X:0005H         SYMBOL        buffer
  -------         DO            
  D:0005H         SYMBOL        j
  X:0008H         SYMBOL        bcc
  X:0009H         SYMBOL        g_scArrTxComSoft
  -------         ENDDO         
  C:639BH         LINE#         459
  C:63ACH         LINE#         461
  C:63ACH         LINE#         464
  C:63AFH         LINE#         466
  C:63B8H         LINE#         467
  C:63C0H         LINE#         469
  C:63C9H         LINE#         470
  C:63D1H         LINE#         471
  C:63DAH         LINE#         473
  C:63E0H         LINE#         474
  C:63E3H         LINE#         475
  C:63E5H         LINE#         476
  C:63E9H         LINE#         478
  C:63EDH         LINE#         479
  C:63F1H         LINE#         480
  C:63F5H         LINE#         481
  C:63F8H         LINE#         482
  C:63FCH         LINE#         483
  C:6404H         LINE#         484
  C:640CH         LINE#         485
  C:6410H         LINE#         487
  C:641CH         LINE#         488
BL51 BANKED LINKER/LOCATER V6.22.2.0                                                  07/29/2020  18:03:03  PAGE 95


  C:641CH         LINE#         489
  C:643CH         LINE#         490
  C:643FH         LINE#         492
  C:6445H         LINE#         494
  C:6451H         LINE#         495
  C:6451H         LINE#         496
  C:6468H         LINE#         497
  C:646BH         LINE#         498
  C:6473H         LINE#         501
  C:6475H         LINE#         502
  C:647AH         LINE#         503
  C:6489H         LINE#         504
  C:6494H         LINE#         505
  C:649AH         LINE#         507
  -------         ENDPROC       _WR_MF
  -------         PROC          UNIQUE_IDENTIFIER_UID
  -------         DO            
  D:0003H         SYMBOL        j
  X:0003H         SYMBOL        bcc
  X:0004H         SYMBOL        g_scArrTxComSoft
  -------         ENDDO         
  C:8C1EH         LINE#         512
  C:8C1EH         LINE#         513
  C:8C1EH         LINE#         516
  C:8C23H         LINE#         518
  C:8C2CH         LINE#         520
  C:8C32H         LINE#         521
  C:8C35H         LINE#         522
  C:8C37H         LINE#         523
  C:8C3BH         LINE#         524
  C:8C3FH         LINE#         525
  C:8C43H         LINE#         526
  C:8C47H         LINE#         527
  C:8C4BH         LINE#         528
  C:8C4FH         LINE#         529
  C:8C53H         LINE#         530
  C:8C5FH         LINE#         531
  C:8C5FH         LINE#         532
  C:8C73H         LINE#         533
  C:8C76H         LINE#         534
  C:8C7EH         LINE#         535
  C:8C80H         LINE#         536
  C:8C85H         LINE#         537
  C:8C94H         LINE#         538
  C:8C9FH         LINE#         539
  C:8CA5H         LINE#         540
  -------         ENDPROC       UNIQUE_IDENTIFIER_UID
  -------         PROC          POWER_OFF
  -------         DO            
  D:0003H         SYMBOL        j
  X:0003H         SYMBOL        bcc
  X:0004H         SYMBOL        g_scArrTxComSoft
  -------         ENDDO         
  C:9034H         LINE#         541
  C:9034H         LINE#         542
  C:9034H         LINE#         545
  C:9039H         LINE#         547
BL51 BANKED LINKER/LOCATER V6.22.2.0                                                  07/29/2020  18:03:03  PAGE 96


  C:9042H         LINE#         549
  C:9048H         LINE#         550
  C:904BH         LINE#         551
  C:904DH         LINE#         552
  C:9051H         LINE#         553
  C:9055H         LINE#         554
  C:9059H         LINE#         555
  C:905DH         LINE#         556
  C:9061H         LINE#         557
  C:906DH         LINE#         558
  C:906DH         LINE#         559
  C:9081H         LINE#         560
  C:9084H         LINE#         561
  C:908CH         LINE#         562
  C:908EH         LINE#         563
  C:9093H         LINE#         564
  C:90A2H         LINE#         565
  C:90ADH         LINE#         566
  C:90B3H         LINE#         569
  -------         ENDPROC       POWER_OFF
  -------         ENDMOD        LINTECH

  -------         MODULE        VERIFICADOR
  C:0000H         SYMBOL        _ICE_DUMMY_
  D:0080H         PUBLIC        P0
  C:A22DH         PUBLIC        Analiza_Presencia_Mensual
  C:96F8H         PUBLIC        Ingreso_Vehiculo
  D:0090H         PUBLIC        P1
  C:A1B8H         PUBLIC        _Armar_Trama_Tarjeta_Sector1_Bloque0
  D:00B0H         PUBLIC        P3
  C:4CFCH         PUBLIC        _Valida_Tipo_Tarjeta
  C:9E6CH         PUBLIC        _Load_Secuencia_Expedidor
  C:5720H         PUBLIC        _Armar_Trama_Tarjeta_Sector1_Bloque2
  C:4EA1H         PUBLIC        Armar_Trama_Pto_Paralelo_Expedidor
  C:7592H         PUBLIC        _Tarjeta_Mensual
  C:A279H         PUBLIC        Analiza_Presencia_rotacion
  C:94BAH         PUBLIC        _Disparo_Lock_Entrada_Vehiculo
  C:84D4H         PUBLIC        _Valida_Vehiculo_Card_Mensual
  C:97A9H         PUBLIC        _Armar_Trama_Placa
  C:7270H         PUBLIC        _rta_cmd_transporte
  C:A48BH         PUBLIC        Captura_Expulsa
  C:5487H         PUBLIC        _Armar_Trama_Monitor
  C:59A0H         PUBLIC        Secuencia_inicio_expedidor
  C:6FF7H         PUBLIC        _Analiza_Uid_Card
  B:0080H.0       PUBLIC        rx_ip
  C:6298H         PUBLIC        _Bloque_Horario
  B:0090H.7       PUBLIC        lock
  C:8307H         PUBLIC        _Responde_Lectura_Tarjeta_Sector1_Bloque0
  C:795DH         PUBLIC        error_rx_pto
  C:496AH         PUBLIC        _Responde_Lectura_Tarjeta_Sector1_Bloque1
  C:5ADEH         PUBLIC        _Responde_Lectura_Tarjeta_Sector1_Bloque2
  B:0090H.1       PUBLIC        DataIn
  C:8CA6H         PUBLIC        _Send_Pto_Paralelo
  C:A04EH         PUBLIC        Trama_Validacion_P_N
  B:0021H.6       PUBLIC        MenSual
  C:77DBH         PUBLIC        _Armar_Trama_Pto_Paralelo_Expedidor_Mensual
  B:0080H.3       PUBLIC        Rele_Atasco
BL51 BANKED LINKER/LOCATER V6.22.2.0                                                  07/29/2020  18:03:03  PAGE 97


  C:607DH         PUBLIC        _Horarios
  C:7F22H         PUBLIC        _Hora_Maxima
  C:323CH         PUBLIC        _SecuenciaExpedidorMF
  C:9582H         PUBLIC        _Pregunta_Lpr
  C:81C7H         PUBLIC        _Wait_Placa
  C:9130H         PUBLIC        Responde_Estado_Sensores_Transporte
  C:91ACH         PUBLIC        Entrega_Card_Captura
  C:9641H         PUBLIC        _Respuesta_Segunda_clave
  X:0141H         SYMBOL        Estado
  C:9FB0H         PUBLIC        _Responde_Write_Tarjeta_Sector1_Bloque0
  C:9AB5H         PUBLIC        _Responde_Write_Tarjeta_Sector2_Bloque0
  C:89F3H         PUBLIC        _Responde_Write_Tarjeta_Sector1_Bloque2
  C:9309H         PUBLIC        _En_Horario
  C:9298H         PUBLIC        Responde_Tipo_Tarjeta
  C:A0B3H         PUBLIC        _Tarjeta_Rotacion
  -------         PROC          CAPTURA_EXPULSA
  -------         DO            
  D:0007H         SYMBOL        Estado_expedidor
  -------         ENDDO         
  C:A48BH         LINE#         522
  C:A48BH         LINE#         523
  C:A48BH         LINE#         527
  C:A48EH         LINE#         528
  C:A48EH         LINE#         529
  C:A490H         LINE#         530
  C:A491H         LINE#         532
  C:A491H         LINE#         534
  C:A493H         LINE#         535
  C:A493H         LINE#         538
  C:A493H         LINE#         539
  -------         ENDPROC       CAPTURA_EXPULSA
  -------         PROC          TRAMA_VALIDACION_P_N
  -------         DO            
  D:0007H         SYMBOL        Trama_Validacion_P_N
  -------         ENDDO         
  C:A04EH         LINE#         550
  C:A04EH         LINE#         551
  C:A04EH         LINE#         552
  C:A050H         LINE#         554
  C:A05BH         LINE#         555
  C:A05BH         LINE#         556
  C:A05EH         LINE#         557
  C:A05EH         LINE#         558
  C:A060H         LINE#         561
  C:A068H         LINE#         562
  C:A068H         LINE#         564
  C:A06AH         LINE#         566
  C:A06BH         LINE#         567
  C:A06FH         LINE#         568
  C:A06FH         LINE#         570
  C:A071H         LINE#         572
  C:A072H         LINE#         574
  C:A072H         LINE#         575
  C:A07BH         LINE#         576
  C:A07DH         LINE#         578
  C:A07DH         LINE#         579
  C:A07EH         LINE#         581
BL51 BANKED LINKER/LOCATER V6.22.2.0                                                  07/29/2020  18:03:03  PAGE 98


  C:A07EH         LINE#         583
  C:A080H         LINE#         585
  C:A080H         LINE#         587
  C:A080H         LINE#         589
  C:A080H         LINE#         590
  -------         ENDPROC       TRAMA_VALIDACION_P_N
  -------         PROC          ERROR_RX_PTO
  -------         DO            
  X:00B8H         SYMBOL        cnt_espera_ask_on
  X:0008H         SYMBOL        error_rx_pto
  -------         ENDDO         
  C:795DH         LINE#         614
  C:795DH         LINE#         615
  C:795DH         LINE#         618
  C:7963H         LINE#         622
  C:796CH         LINE#         623
  C:7974H         LINE#         624
  C:797DH         LINE#         625
  C:7985H         LINE#         626
  C:798EH         LINE#         627
  C:7991H         LINE#         629
  C:7991H         LINE#         630
  C:7997H         LINE#         631
  C:79A1H         LINE#         632
  C:79A1H         LINE#         633
  C:79AAH         LINE#         634
  C:79ACH         LINE#         635
  C:79B3H         LINE#         636
  C:79B8H         LINE#         637
  C:79BEH         LINE#         638
  C:79C3H         LINE#         639
  C:79C5H         LINE#         640
  C:79CCH         LINE#         641
  C:79D2H         LINE#         642
  C:79D2H         LINE#         644
  C:79D2H         LINE#         645
  C:79D7H         LINE#         646
  C:79D7H         LINE#         647
  C:79D7H         LINE#         648
  C:79D9H         LINE#         650
  C:79D9H         LINE#         651
  C:79E7H         LINE#         652
  C:79FAH         LINE#         653
  C:79FAH         LINE#         654
  C:79FBH         LINE#         656
  C:7A01H         LINE#         657
  C:7A05H         LINE#         658
  C:7A07H         LINE#         659
  C:7A07H         LINE#         660
  C:7A09H         LINE#         662
  C:7A09H         LINE#         663
  C:7A0AH         LINE#         664
  C:7A0FH         LINE#         665
  C:7A15H         LINE#         666
  C:7A15H         LINE#         667
  C:7A15H         LINE#         668
  C:7A1AH         LINE#         669
BL51 BANKED LINKER/LOCATER V6.22.2.0                                                  07/29/2020  18:03:03  PAGE 99


  -------         ENDPROC       ERROR_RX_PTO
  -------         PROC          _RTA_CMD_TRANSPORTE
  X:0003H         SYMBOL        secuencia_Expedidor
  -------         DO            
  X:0006H         SYMBOL        temp
  X:0007H         SYMBOL        EstadoComSeqMF
  -------         ENDDO         
  C:7270H         LINE#         685
  C:727BH         LINE#         686
  C:727BH         LINE#         691
  C:7288H         LINE#         692
  C:7288H         LINE#         693
  C:7290H         LINE#         694
  C:7290H         LINE#         695
  C:729EH         LINE#         696
  C:72A1H         LINE#         697
  C:72A7H         LINE#         698
  C:72A7H         LINE#         699
  C:72B0H         LINE#         700
  C:72C4H         LINE#         701
  C:72D5H         LINE#         702
  C:72D7H         LINE#         704
  C:72D7H         LINE#         707
  C:72EFH         LINE#         708
  C:72EFH         LINE#         709
  C:72FAH         LINE#         710
  C:72FCH         LINE#         712
  C:72FCH         LINE#         713
  C:730AH         LINE#         714
  C:730AH         LINE#         715
  C:730AH         LINE#         716
  C:730CH         LINE#         718
  C:730CH         LINE#         720
  C:7320H         LINE#         721
  C:7335H         LINE#         722
  C:7335H         LINE#         723
  C:733AH         LINE#         724
  -------         ENDPROC       _RTA_CMD_TRANSPORTE
  -------         PROC          ANALIZA_PRESENCIA_MENSUAL
  -------         DO            
  X:0003H         SYMBOL        Estado_expedidor
  -------         ENDDO         
  C:A22DH         LINE#         728
  C:A22DH         LINE#         729
  C:A22DH         LINE#         731
  C:A233H         LINE#         732
  C:A233H         LINE#         733
  C:A235H         LINE#         734
  C:A23BH         LINE#         735
  C:A23DH         LINE#         737
  C:A23DH         LINE#         739
  C:A242H         LINE#         740
  C:A247H         LINE#         741
  C:A24DH         LINE#         743
  C:A24DH         LINE#         744
  C:A252H         LINE#         745
  -------         ENDPROC       ANALIZA_PRESENCIA_MENSUAL
BL51 BANKED LINKER/LOCATER V6.22.2.0                                                  07/29/2020  18:03:03  PAGE 100


  -------         PROC          ANALIZA_PRESENCIA_ROTACION
  -------         DO            
  X:0003H         SYMBOL        Estado_expedidor
  -------         ENDDO         
  C:A279H         LINE#         746
  C:A279H         LINE#         747
  C:A279H         LINE#         749
  C:A27FH         LINE#         750
  C:A27FH         LINE#         752
  C:A285H         LINE#         753
  C:A287H         LINE#         755
  C:A287H         LINE#         757
  C:A28CH         LINE#         758
  C:A291H         LINE#         759
  C:A296H         LINE#         761
  C:A296H         LINE#         762
  C:A29BH         LINE#         763
  -------         ENDPROC       ANALIZA_PRESENCIA_ROTACION
  -------         PROC          _ANALIZA_UID_CARD
  X:0003H         SYMBOL        Atributos_Expedidor
  -------         DO            
  X:0006H         SYMBOL        Estado_expedidor
  D:0007H         SYMBOL        temp
  X:0007H         SYMBOL        buffer_UID
  -------         ENDDO         
  C:6FF7H         LINE#         767
  C:7002H         LINE#         768
  C:7002H         LINE#         772
  C:7012H         LINE#         773
  C:7012H         LINE#         775
  C:701EH         LINE#         776
  C:701EH         LINE#         777
  C:7036H         LINE#         779
  C:7039H         LINE#         781
  C:7042H         LINE#         782
  C:7053H         LINE#         785
  C:705CH         LINE#         786
  C:7064H         LINE#         787
  C:706CH         LINE#         788
  C:7074H         LINE#         789
  C:707CH         LINE#         790
  C:7085H         LINE#         792
  C:709CH         LINE#         793
  C:70A6H         LINE#         794
  C:70B0H         LINE#         795
  C:70BAH         LINE#         796
  C:70C0H         LINE#         797
  C:70C2H         LINE#         799
  C:70C2H         LINE#         800
  C:70C8H         LINE#         801
  C:70C8H         LINE#         802
  C:70CDH         LINE#         803
  -------         ENDPROC       _ANALIZA_UID_CARD
  -------         PROC          INGRESO_VEHICULO
  -------         DO            
  D:0007H         SYMBOL        CardAutomatic
  X:00BAH         SYMBOL        pulseboton
BL51 BANKED LINKER/LOCATER V6.22.2.0                                                  07/29/2020  18:03:03  PAGE 101


  -------         ENDDO         
  C:96F8H         LINE#         807
  C:96F8H         LINE#         808
  C:96F8H         LINE#         812
  C:96FEH         LINE#         813
  C:96FEH         LINE#         814
  C:9707H         LINE#         816
  C:970CH         LINE#         817
  C:970CH         LINE#         818
  C:9715H         LINE#         820
  C:9715H         LINE#         821
  C:9717H         LINE#         823
  C:9717H         LINE#         824
  C:971DH         LINE#         825
  C:9722H         LINE#         826
  C:9724H         LINE#         828
  C:9724H         LINE#         829
  C:972AH         LINE#         832
  C:972AH         LINE#         833
  C:972DH         LINE#         834
  C:9730H         LINE#         835
  C:9730H         LINE#         836
  C:9739H         LINE#         837
  C:973EH         LINE#         838
  C:9744H         LINE#         839
  C:9746H         LINE#         848
  C:9746H         LINE#         850
  C:974BH         LINE#         851
  C:974BH         LINE#         852
  C:9750H         LINE#         853
  -------         ENDPROC       INGRESO_VEHICULO
  -------         PROC          RESPONDE_ESTADO_SENSORES_TRANSPORTE
  -------         DO            
  X:0003H         SYMBOL        Estado_expedidor
  -------         ENDDO         
  C:9130H         LINE#         860
  C:9130H         LINE#         861
  C:9130H         LINE#         864
  C:9139H         LINE#         866
  C:9141H         LINE#         867
  C:9141H         LINE#         869
  C:914CH         LINE#         870
  C:914CH         LINE#         871
  C:9150H         LINE#         872
  C:9150H         LINE#         873
  C:9159H         LINE#         874
  C:915EH         LINE#         876
  C:915EH         LINE#         877
  C:9160H         LINE#         879
  C:9160H         LINE#         881
  C:9168H         LINE#         883
  C:9168H         LINE#         884
  C:916AH         LINE#         886
  C:916AH         LINE#         888
  C:9173H         LINE#         890
  C:9178H         LINE#         893
  C:9178H         LINE#         894
BL51 BANKED LINKER/LOCATER V6.22.2.0                                                  07/29/2020  18:03:03  PAGE 102


  C:9178H         LINE#         895
  C:917AH         LINE#         896
  C:9181H         LINE#         897
  C:9181H         LINE#         899
  C:9187H         LINE#         901
  C:9187H         LINE#         902
  C:9189H         LINE#         903
  C:9190H         LINE#         905
  C:9190H         LINE#         906
  C:9199H         LINE#         907
  C:919FH         LINE#         908
  C:91A1H         LINE#         910
  C:91A1H         LINE#         911
  C:91A6H         LINE#         912
  C:91A6H         LINE#         913
  C:91ABH         LINE#         914
  -------         ENDPROC       RESPONDE_ESTADO_SENSORES_TRANSPORTE
  -------         PROC          RESPONDE_TIPO_TARJETA
  -------         DO            
  X:0003H         SYMBOL        Estado_expedidor
  -------         ENDDO         
  C:9298H         LINE#         930
  C:9298H         LINE#         931
  C:9298H         LINE#         934
  C:92A1H         LINE#         936
  C:92A9H         LINE#         937
  C:92A9H         LINE#         938
  C:92AEH         LINE#         939
  C:92AEH         LINE#         940
  C:92B7H         LINE#         941
  C:92BDH         LINE#         942
  C:92BDH         LINE#         943
  C:92C0H         LINE#         944
  C:92C2H         LINE#         946
  C:92C2H         LINE#         947
  C:92C5H         LINE#         948
  C:92C5H         LINE#         949
  C:92C7H         LINE#         951
  C:92C7H         LINE#         952
  C:92CEH         LINE#         953
  C:92CEH         LINE#         954
  C:92D4H         LINE#         955
  C:92D4H         LINE#         956
  C:92D4H         LINE#         958
  C:92D4H         LINE#         960
  C:92D6H         LINE#         962
  C:92D6H         LINE#         963
  C:92D6H         LINE#         964
  C:92D6H         LINE#         965
  C:92D6H         LINE#         966
  C:92D6H         LINE#         967
  C:92D8H         LINE#         969
  C:92D8H         LINE#         970
  C:92DFH         LINE#         971
  C:92DFH         LINE#         972
  C:92E8H         LINE#         974
  C:92EDH         LINE#         975
BL51 BANKED LINKER/LOCATER V6.22.2.0                                                  07/29/2020  18:03:03  PAGE 103


  C:92F2H         LINE#         977
  C:92FAH         LINE#         980
  C:92FCH         LINE#         982
  C:92FCH         LINE#         983
  C:92FEH         LINE#         984
  C:9303H         LINE#         985
  C:9303H         LINE#         986
  C:9303H         LINE#         988
  C:9308H         LINE#         989
  -------         ENDPROC       RESPONDE_TIPO_TARJETA
  -------         PROC          _RESPONDE_LECTURA_TARJETA_SECTOR1_BLOQUE1
  X:0003H         SYMBOL        Atributos_Expedidor
  -------         DO            
  D:0007H         SYMBOL        temp
  X:0006H         SYMBOL        Estado_expedidor
  X:0007H         SYMBOL        buffer_S1_B1
  X:0018H         SYMBOL        ID_CLIENTE
  D:0007H         SYMBOL        COD_PARK
  X:00BBH         SYMBOL        falla
  -------         ENDDO         
  C:496AH         LINE#         1001
  C:4975H         LINE#         1002
  C:4975H         LINE#         1009
  C:497EH         LINE#         1013
  C:498EH         LINE#         1014
  C:498EH         LINE#         1016
  C:499AH         LINE#         1017
  C:499AH         LINE#         1018
  C:49B2H         LINE#         1020
  C:49B5H         LINE#         1023
  C:49BEH         LINE#         1024
  C:49CFH         LINE#         1025
  C:49DCH         LINE#         1026
  C:49E5H         LINE#         1029
  C:4A04H         LINE#         1030
  C:4A04H         LINE#         1032
  C:4A0DH         LINE#         1033
  C:4A15H         LINE#         1034
  C:4A1EH         LINE#         1036
  C:4A27H         LINE#         1037
  C:4A2FH         LINE#         1038
  C:4A38H         LINE#         1040
  C:4A41H         LINE#         1041
  C:4A49H         LINE#         1042
  C:4A52H         LINE#         1044
  C:4A5BH         LINE#         1045
  C:4A63H         LINE#         1046
  C:4A6CH         LINE#         1048
  C:4A75H         LINE#         1049
  C:4A7DH         LINE#         1050
  C:4A86H         LINE#         1052
  C:4A9DH         LINE#         1054
  C:4AA7H         LINE#         1055
  C:4AB1H         LINE#         1056
  C:4ABBH         LINE#         1058
  C:4AC0H         LINE#         1059
  C:4AD3H         LINE#         1060
BL51 BANKED LINKER/LOCATER V6.22.2.0                                                  07/29/2020  18:03:03  PAGE 104


  C:4AD8H         LINE#         1061
  C:4ADEH         LINE#         1063
  C:4AE0H         LINE#         1065
  C:4AE0H         LINE#         1066
  C:4AE5H         LINE#         1067
  C:4AEEH         LINE#         1068
  C:4AF3H         LINE#         1069
  C:4AF5H         LINE#         1070
  C:4AF5H         LINE#         1071
  C:4AF5H         LINE#         1072
  C:4AF7H         LINE#         1074
  C:4AF7H         LINE#         1076
  C:4AFFH         LINE#         1077
  C:4AFFH         LINE#         1078
  C:4B05H         LINE#         1079
  C:4B05H         LINE#         1080
  C:4B12H         LINE#         1082
  C:4B12H         LINE#         1083
  C:4B1BH         LINE#         1084
  C:4B21H         LINE#         1086
  C:4B23H         LINE#         1088
  C:4B23H         LINE#         1089
  C:4B28H         LINE#         1090
  C:4B31H         LINE#         1091
  C:4B36H         LINE#         1092
  C:4B3BH         LINE#         1093
  C:4B43H         LINE#         1094
  C:4B43H         LINE#         1095
  C:4B43H         LINE#         1097
  C:4B48H         LINE#         1098
  -------         ENDPROC       _RESPONDE_LECTURA_TARJETA_SECTOR1_BLOQUE1
  -------         PROC          _RESPONDE_LECTURA_TARJETA_SECTOR1_BLOQUE2
  X:0003H         SYMBOL        Atributos_Expedidor
  -------         DO            
  D:0007H         SYMBOL        temp
  X:0006H         SYMBOL        Estado_expedidor
  X:0007H         SYMBOL        buffer_S1_B2
  -------         ENDDO         
  C:5ADEH         LINE#         1103
  C:5AE9H         LINE#         1104
  C:5AE9H         LINE#         1110
  C:5AF2H         LINE#         1114
  C:5B02H         LINE#         1115
  C:5B02H         LINE#         1117
  C:5B0EH         LINE#         1118
  C:5B0EH         LINE#         1119
  C:5B26H         LINE#         1120
  C:5B29H         LINE#         1121
  C:5B32H         LINE#         1122
  C:5B43H         LINE#         1126
  C:5B4CH         LINE#         1127
  C:5B59H         LINE#         1128
  C:5B75H         LINE#         1129
  C:5B7EH         LINE#         1131
  C:5B87H         LINE#         1133
  C:5BA3H         LINE#         1134
  C:5BADH         LINE#         1135
BL51 BANKED LINKER/LOCATER V6.22.2.0                                                  07/29/2020  18:03:03  PAGE 105


  C:5BB6H         LINE#         1138
  C:5BBFH         LINE#         1139
  C:5BC7H         LINE#         1140
  C:5BD0H         LINE#         1144
  C:5BE7H         LINE#         1147
  C:5BF3H         LINE#         1148
  C:5BF9H         LINE#         1151
  C:5BFBH         LINE#         1153
  C:5BFBH         LINE#         1154
  C:5C03H         LINE#         1155
  C:5C03H         LINE#         1156
  C:5C08H         LINE#         1157
  -------         ENDPROC       _RESPONDE_LECTURA_TARJETA_SECTOR1_BLOQUE2
  -------         PROC          _RESPONDE_LECTURA_TARJETA_SECTOR1_BLOQUE0
  X:0003H         SYMBOL        Nombre_Mensual
  -------         DO            
  D:0007H         SYMBOL        temp
  X:0006H         SYMBOL        Estado_expedidor
  -------         ENDDO         
  C:8307H         LINE#         1159
  C:8312H         LINE#         1160
  C:8312H         LINE#         1166
  C:831BH         LINE#         1170
  C:8328H         LINE#         1171
  C:8328H         LINE#         1173
  C:8334H         LINE#         1174
  C:8334H         LINE#         1175
  C:8354H         LINE#         1176
  C:8357H         LINE#         1177
  C:836BH         LINE#         1178
  C:8374H         LINE#         1179
  C:8382H         LINE#         1180
  C:838BH         LINE#         1181
  C:8391H         LINE#         1184
  C:8393H         LINE#         1186
  C:8393H         LINE#         1187
  C:839BH         LINE#         1188
  C:839BH         LINE#         1189
  C:83A0H         LINE#         1190
  -------         ENDPROC       _RESPONDE_LECTURA_TARJETA_SECTOR1_BLOQUE0
  -------         PROC          _RESPONDE_WRITE_TARJETA_SECTOR1_BLOQUE2
  X:0003H         SYMBOL        Atributos_Expedidor
  X:0006H         SYMBOL        Buffer_Write_MF
  -------         DO            
  X:0009H         SYMBOL        Estado_expedidor
  -------         ENDDO         
  C:89F3H         LINE#         1191
  C:89FEH         LINE#         1192
  C:89FEH         LINE#         1194
  C:8A07H         LINE#         1195
  C:8A10H         LINE#         1196
  C:8A26H         LINE#         1197
  C:8A36H         LINE#         1198
  C:8A36H         LINE#         1199
  C:8A39H         LINE#         1200
  C:8A4BH         LINE#         1201
  C:8A59H         LINE#         1202
BL51 BANKED LINKER/LOCATER V6.22.2.0                                                  07/29/2020  18:03:03  PAGE 106


  C:8A5FH         LINE#         1203
  C:8A61H         LINE#         1205
  C:8A61H         LINE#         1206
  C:8A64H         LINE#         1207
  C:8A76H         LINE#         1208
  C:8A7CH         LINE#         1210
  C:8A7CH         LINE#         1211
  C:8A81H         LINE#         1212
  -------         ENDPROC       _RESPONDE_WRITE_TARJETA_SECTOR1_BLOQUE2
  -------         PROC          _RESPONDE_WRITE_TARJETA_SECTOR1_BLOQUE0
  X:0003H         SYMBOL        Buffer_Write_MF
  C:9FB0H         LINE#         1215
  C:9FBBH         LINE#         1216
  C:9FBBH         LINE#         1218
  C:9FC4H         LINE#         1219
  C:9FCDH         LINE#         1220
  C:9FE3H         LINE#         1222
  C:9FE5H         LINE#         1223
  -------         ENDPROC       _RESPONDE_WRITE_TARJETA_SECTOR1_BLOQUE0
  -------         PROC          _PREGUNTA_LPR
  X:0003H         SYMBOL        Atributos_Expedidor
  -------         DO            
  X:0006H         SYMBOL        Estado_expedidor
  -------         ENDDO         
  C:9582H         LINE#         1226
  C:958DH         LINE#         1227
  C:958DH         LINE#         1229
  C:959BH         LINE#         1230
  C:959BH         LINE#         1232
  C:95ACH         LINE#         1233
  C:95B8H         LINE#         1234
  C:95B8H         LINE#         1235
  C:95BCH         LINE#         1236
  C:95BCH         LINE#         1237
  C:95BCH         LINE#         1239
  C:95CBH         LINE#         1240
  C:95CBH         LINE#         1242
  C:95CEH         LINE#         1243
  C:95D3H         LINE#         1244
  C:95D8H         LINE#         1245
  C:95DAH         LINE#         1247
  C:95DAH         LINE#         1248
  C:95DDH         LINE#         1249
  C:95DDH         LINE#         1250
  C:95E2H         LINE#         1251
  -------         ENDPROC       _PREGUNTA_LPR
  -------         PROC          _RESPONDE_WRITE_TARJETA_SECTOR2_BLOQUE0
  X:0003H         SYMBOL        Buffer_Write_MF
  C:9AB5H         LINE#         1254
  C:9AC0H         LINE#         1255
  C:9AC0H         LINE#         1257
  C:9AC9H         LINE#         1258
  C:9AD2H         LINE#         1259
  C:9ADBH         LINE#         1260
  C:9AE4H         LINE#         1261
  C:9AF9H         LINE#         1262
  C:9AFBH         LINE#         1263
BL51 BANKED LINKER/LOCATER V6.22.2.0                                                  07/29/2020  18:03:03  PAGE 107


  -------         ENDPROC       _RESPONDE_WRITE_TARJETA_SECTOR2_BLOQUE0
  -------         PROC          _RESPUESTA_SEGUNDA_CLAVE
  X:0003H         SYMBOL        Atributos_Expedidor
  X:0006H         SYMBOL        Buffer_Write_MF
  C:9641H         LINE#         1264
  C:964CH         LINE#         1265
  C:964CH         LINE#         1266
  C:9655H         LINE#         1267
  C:966BH         LINE#         1268
  C:967BH         LINE#         1269
  C:968DH         LINE#         1270
  C:969BH         LINE#         1271
  C:969DH         LINE#         1272
  -------         ENDPROC       _RESPUESTA_SEGUNDA_CLAVE
  -------         PROC          _ARMAR_TRAMA_TARJETA_SECTOR1_BLOQUE2
  X:0011H         SYMBOL        Atributos_Expedidor
  X:0014H         SYMBOL        Buffer_Write_MF
  C:5720H         LINE#         1284
  C:572BH         LINE#         1285
  C:572BH         LINE#         1289
  C:5737H         LINE#         1293
  C:5749H         LINE#         1294
  C:5750H         LINE#         1295
  C:5757H         LINE#         1297
  C:576CH         LINE#         1298
  C:576CH         LINE#         1299
  C:5783H         LINE#         1300
  C:579CH         LINE#         1301
  C:579CH         LINE#         1302
  C:579FH         LINE#         1306
  C:579FH         LINE#         1308
  C:57CEH         LINE#         1309
  C:57FDH         LINE#         1311
  C:5815H         LINE#         1312
  C:5815H         LINE#         1313
  C:5822H         LINE#         1314
  C:5824H         LINE#         1316
  C:5824H         LINE#         1317
  C:5834H         LINE#         1318
  C:5834H         LINE#         1319
  C:5834H         LINE#         1321
  C:5846H         LINE#         1322
  C:584DH         LINE#         1323
  C:5854H         LINE#         1324
  C:585BH         LINE#         1325
  -------         ENDPROC       _ARMAR_TRAMA_TARJETA_SECTOR1_BLOQUE2
  -------         PROC          _ARMAR_TRAMA_TARJETA_SECTOR1_BLOQUE0
  X:000AH         SYMBOL        Buffer_Write_MF
  C:A1B8H         LINE#         1327
  C:A1C3H         LINE#         1328
  C:A1C3H         LINE#         1330
  -------         ENDPROC       _ARMAR_TRAMA_TARJETA_SECTOR1_BLOQUE0
  -------         PROC          ARMAR_TRAMA_PTO_PARALELO_EXPEDIDOR
  -------         DO            
  X:00BCH         SYMBOL        buffer
  X:0006H         SYMBOL        ticket
  X:0011H         SYMBOL        j
BL51 BANKED LINKER/LOCATER V6.22.2.0                                                  07/29/2020  18:03:03  PAGE 108


  -------         ENDDO         
  C:4EA1H         LINE#         1332
  C:4EA1H         LINE#         1333
  C:4EA1H         LINE#         1340
  C:4EA7H         LINE#         1341
  C:4EABH         LINE#         1342
  C:4EAEH         LINE#         1343
  C:4EBAH         LINE#         1344
  C:4ED1H         LINE#         1345
  C:4EDFH         LINE#         1347
  C:4EF0H         LINE#         1349
  C:4F00H         LINE#         1350
  C:4F12H         LINE#         1351
  C:4F20H         LINE#         1352
  C:4F2EH         LINE#         1353
  C:4F3CH         LINE#         1354
  C:4F4AH         LINE#         1355
  C:4F57H         LINE#         1357
  C:4F66H         LINE#         1358
  C:4F66H         LINE#         1359
  C:4F69H         LINE#         1360
  C:4F69H         LINE#         1361
  C:4F7DH         LINE#         1362
  C:4F8CH         LINE#         1363
  C:4F9BH         LINE#         1364
  C:4FAAH         LINE#         1365
  C:4FB9H         LINE#         1366
  C:4FC8H         LINE#         1367
  C:4FD0H         LINE#         1368
  C:4FD2H         LINE#         1370
  C:4FD2H         LINE#         1371
  C:4FE3H         LINE#         1372
  C:4FEBH         LINE#         1373
  C:4FEBH         LINE#         1374
  C:4FEDH         LINE#         1376
  C:4FEDH         LINE#         1377
  C:4FFEH         LINE#         1378
  C:500AH         LINE#         1379
  C:500AH         LINE#         1380
  C:5018H         LINE#         1381
  C:5026H         LINE#         1382
  C:5032H         LINE#         1383
  C:5038H         LINE#         1384
  -------         ENDPROC       ARMAR_TRAMA_PTO_PARALELO_EXPEDIDOR
  -------         PROC          _ARMAR_TRAMA_PTO_PARALELO_EXPEDIDOR_MENSUAL
  X:0006H         SYMBOL        Atributos_Expedidor
  -------         DO            
  X:00D8H         SYMBOL        buffer
  -------         ENDDO         
  C:77DBH         LINE#         1385
  C:77E6H         LINE#         1386
  C:77E6H         LINE#         1392
  C:77ECH         LINE#         1393
  C:77F0H         LINE#         1394
  C:7805H         LINE#         1395
  C:780FH         LINE#         1396
  C:7819H         LINE#         1397
BL51 BANKED LINKER/LOCATER V6.22.2.0                                                  07/29/2020  18:03:03  PAGE 109


  C:7823H         LINE#         1400
  C:782CH         LINE#         1401
  C:7833H         LINE#         1402
  C:7838H         LINE#         1403
  C:783DH         LINE#         1404
  C:7842H         LINE#         1405
  C:7847H         LINE#         1408
  C:7853H         LINE#         1409
  C:7853H         LINE#         1411
  C:785AH         LINE#         1412
  C:785EH         LINE#         1413
  C:7862H         LINE#         1414
  C:7866H         LINE#         1415
  C:786AH         LINE#         1416
  C:786EH         LINE#         1418
  C:786EH         LINE#         1420
  C:7884H         LINE#         1421
  C:7884H         LINE#         1422
  C:7887H         LINE#         1423
  C:7889H         LINE#         1425
  C:7889H         LINE#         1426
  C:788CH         LINE#         1427
  C:788CH         LINE#         1429
  C:7892H         LINE#         1430
  C:7895H         LINE#         1431
  C:789BH         LINE#         1432
  -------         ENDPROC       _ARMAR_TRAMA_PTO_PARALELO_EXPEDIDOR_MENSUAL
  -------         PROC          _ARMAR_TRAMA_MONITOR
  X:0007H         SYMBOL        Atributos_Expedidor
  -------         DO            
  X:00F4H         SYMBOL        buffer
  X:000AH         SYMBOL        ticket
  X:0015H         SYMBOL        j
  -------         ENDDO         
  C:5487H         LINE#         1433
  C:5492H         LINE#         1434
  C:5492H         LINE#         1440
  C:5497H         LINE#         1441
  C:549DH         LINE#         1442
  C:54A5H         LINE#         1443
  C:54A9H         LINE#         1444
  C:54B2H         LINE#         1445
  C:54B2H         LINE#         1446
  C:54B5H         LINE#         1447
  C:54B7H         LINE#         1449
  C:54B7H         LINE#         1450
  C:54BAH         LINE#         1451
  C:54BAH         LINE#         1454
  C:54BDH         LINE#         1455
  C:54BDH         LINE#         1456
  C:54C2H         LINE#         1457
  C:54CEH         LINE#         1458
  C:54E5H         LINE#         1459
  C:54E8H         LINE#         1461
  C:54E8H         LINE#         1462
  C:5503H         LINE#         1463
  C:5511H         LINE#         1464
BL51 BANKED LINKER/LOCATER V6.22.2.0                                                  07/29/2020  18:03:03  PAGE 110


  C:551FH         LINE#         1465
  C:552BH         LINE#         1466
  C:5539H         LINE#         1467
  C:5572H         LINE#         1469
  C:5572H         LINE#         1470
  C:5580H         LINE#         1471
  C:558EH         LINE#         1474
  C:559BH         LINE#         1475
  C:55A9H         LINE#         1477
  C:55B7H         LINE#         1478
  C:55C4H         LINE#         1479
  C:55D0H         LINE#         1480
  C:55D5H         LINE#         1481
  C:55DAH         LINE#         1482
  -------         ENDPROC       _ARMAR_TRAMA_MONITOR
  -------         PROC          _ARMAR_TRAMA_PLACA
  X:0009H         SYMBOL        Buffer_Write_MF
  -------         DO            
  D:0007H         SYMBOL        j
  -------         ENDDO         
  C:97A9H         LINE#         1483
  C:97B4H         LINE#         1484
  C:97B4H         LINE#         1487
  C:97C0H         LINE#         1488
  C:97C0H         LINE#         1489
  C:97DAH         LINE#         1490
  C:97DDH         LINE#         1491
  C:97E9H         LINE#         1492
  C:97E9H         LINE#         1493
  C:97FDH         LINE#         1494
  C:9800H         LINE#         1495
  -------         ENDPROC       _ARMAR_TRAMA_PLACA
  C:9E50H         SYMBOL        L?0361
  C:9E59H         SYMBOL        L?0362
  -------         PROC          L?0360
  -------         ENDPROC       L?0360
  C:9E50H         SYMBOL        L?0361
  C:9E59H         SYMBOL        L?0362
  -------         PROC          _LOAD_SECUENCIA_EXPEDIDOR
  D:0001H         SYMBOL        Secuencia_Expedidor
  D:0004H         SYMBOL        estadoactivo
  X:000DH         SYMBOL        estadoactual
  X:000FH         SYMBOL        estadofuturo
  C:9E6CH         LINE#         1496
  C:9E6CH         LINE#         1497
  C:9E6CH         LINE#         1498
  C:9E73H         LINE#         1499
  C:9E7BH         LINE#         1500
  C:9E86H         LINE#         1501
  C:9E8CH         LINE#         1502
  -------         ENDPROC       _LOAD_SECUENCIA_EXPEDIDOR
  -------         PROC          _DISPARO_LOCK_ENTRADA_VEHICULO
  X:0003H         SYMBOL        Nombre_Mensual
  -------         DO            
  X:0006H         SYMBOL        Estado_expedidor
  -------         ENDDO         
  C:94BAH         LINE#         1503
BL51 BANKED LINKER/LOCATER V6.22.2.0                                                  07/29/2020  18:03:03  PAGE 111


  C:94C5H         LINE#         1504
  C:94C5H         LINE#         1506
  C:94CEH         LINE#         1508
  C:94D3H         LINE#         1510
  C:94DAH         LINE#         1511
  C:94DAH         LINE#         1512
  C:94E3H         LINE#         1513
  C:94E5H         LINE#         1514
  C:94EAH         LINE#         1515
  C:94FAH         LINE#         1516
  C:9500H         LINE#         1519
  C:9502H         LINE#         1520
  C:9509H         LINE#         1521
  C:9509H         LINE#         1522
  C:9512H         LINE#         1523
  C:9512H         LINE#         1524
  C:9515H         LINE#         1525
  C:9517H         LINE#         1527
  C:9517H         LINE#         1528
  C:951AH         LINE#         1529
  C:951AH         LINE#         1531
  C:951AH         LINE#         1532
  C:951FH         LINE#         1533
  -------         ENDPROC       _DISPARO_LOCK_ENTRADA_VEHICULO
  -------         PROC          _SEND_PTO_PARALELO
  D:0001H         SYMBOL        Atributos_Expedidor
  -------         DO            
  X:0003H         SYMBOL        Trama_Expedidor
  -------         ENDDO         
  C:8CA6H         LINE#         1534
  C:8CA6H         LINE#         1535
  C:8CA6H         LINE#         1537
  C:8CA9H         LINE#         1538
  C:8CA9H         LINE#         1539
  C:8CB7H         LINE#         1540
  C:8CB9H         LINE#         1542
  C:8CB9H         LINE#         1543
  C:8CC7H         LINE#         1544
  C:8CCAH         LINE#         1545
  C:8CCAH         LINE#         1546
  C:8CE8H         LINE#         1547
  C:8CF1H         LINE#         1548
  C:8D14H         LINE#         1549
  C:8D1DH         LINE#         1552
  C:8D20H         LINE#         1553
  C:8D26H         LINE#         1554
  C:8D2BH         LINE#         1555
  C:8D2DH         LINE#         1556
  -------         ENDPROC       _SEND_PTO_PARALELO
  -------         PROC          ENTREGA_CARD_CAPTURA
  -------         DO            
  X:0003H         SYMBOL        Estado_expedidor
  -------         ENDDO         
  C:91ACH         LINE#         1560
  C:91ACH         LINE#         1561
  C:91ACH         LINE#         1565
  C:91B5H         LINE#         1566
BL51 BANKED LINKER/LOCATER V6.22.2.0                                                  07/29/2020  18:03:03  PAGE 112


  C:91B8H         LINE#         1567
  C:91BBH         LINE#         1568
  C:91BBH         LINE#         1569
  C:91C5H         LINE#         1570
  C:91C5H         LINE#         1571
  C:91C7H         LINE#         1572
  C:91D0H         LINE#         1573
  C:91D0H         LINE#         1574
  C:91D0H         LINE#         1576
  C:91D2H         LINE#         1578
  C:91D2H         LINE#         1579
  C:91D8H         LINE#         1580
  C:91D8H         LINE#         1582
  C:91DEH         LINE#         1584
  C:91F1H         LINE#         1585
  C:91F1H         LINE#         1586
  C:9201H         LINE#         1587
  C:9201H         LINE#         1588
  C:9203H         LINE#         1589
  C:9203H         LINE#         1590
  C:9205H         LINE#         1591
  C:9210H         LINE#         1592
  C:9210H         LINE#         1593
  C:9216H         LINE#         1594
  C:9216H         LINE#         1595
  C:9216H         LINE#         1597
  C:9218H         LINE#         1599
  C:9218H         LINE#         1600
  C:921AH         LINE#         1601
  C:921FH         LINE#         1602
  C:921FH         LINE#         1603
  C:921FH         LINE#         1605
  C:9224H         LINE#         1606
  -------         ENDPROC       ENTREGA_CARD_CAPTURA
  -------         PROC          _WAIT_PLACA
  X:0003H         SYMBOL        secuencia_expedidor
  X:0006H         SYMBOL        estadoactivo
  -------         DO            
  X:0007H         SYMBOL        Estado_expedidor
  -------         ENDDO         
  C:81C7H         LINE#         1607
  C:81D5H         LINE#         1608
  C:81D5H         LINE#         1612
  C:81EBH         LINE#         1613
  C:81EBH         LINE#         1614
  C:81EEH         LINE#         1615
  C:81EEH         LINE#         1617
  C:81F1H         LINE#         1618
  C:81F1H         LINE#         1619
  C:81F3H         LINE#         1621
  C:81F6H         LINE#         1622
  C:81F6H         LINE#         1623
  C:81F9H         LINE#         1624
  C:820DH         LINE#         1625
  C:8220H         LINE#         1626
  C:8222H         LINE#         1628
  C:8222H         LINE#         1629
BL51 BANKED LINKER/LOCATER V6.22.2.0                                                  07/29/2020  18:03:03  PAGE 113


  C:8228H         LINE#         1630
  C:823BH         LINE#         1631
  C:823BH         LINE#         1632
  C:824BH         LINE#         1633
  C:824BH         LINE#         1634
  C:8251H         LINE#         1635
  C:8253H         LINE#         1636
  C:825EH         LINE#         1637
  C:825EH         LINE#         1638
  C:8264H         LINE#         1639
  C:8264H         LINE#         1640
  C:8264H         LINE#         1641
  C:8264H         LINE#         1642
  C:8269H         LINE#         1643
  -------         ENDPROC       _WAIT_PLACA
  -------         PROC          _VALIDA_VEHICULO_CARD_MENSUAL
  X:0011H         SYMBOL        Atributos_Expedidor
  -------         DO            
  X:0014H         SYMBOL        Estado_expedidor
  -------         ENDDO         
  C:84D4H         LINE#         1644
  C:84DFH         LINE#         1645
  C:84DFH         LINE#         1648
  C:84E8H         LINE#         1649
  C:84FDH         LINE#         1650
  C:84FDH         LINE#         1651
  C:8501H         LINE#         1652
  C:8503H         LINE#         1654
  C:8503H         LINE#         1655
  C:850AH         LINE#         1656
  C:850AH         LINE#         1658
  C:8513H         LINE#         1659
  C:8521H         LINE#         1660
  C:8521H         LINE#         1661
  C:853AH         LINE#         1662
  C:853AH         LINE#         1663
  C:8540H         LINE#         1664
  C:8540H         LINE#         1665
  C:8542H         LINE#         1668
  C:8542H         LINE#         1669
  C:8547H         LINE#         1670
  C:8550H         LINE#         1671
  C:8555H         LINE#         1672
  C:8555H         LINE#         1673
  C:8557H         LINE#         1675
  C:8557H         LINE#         1676
  C:8560H         LINE#         1677
  C:8566H         LINE#         1678
  C:8566H         LINE#         1679
  C:856BH         LINE#         1680
  -------         ENDPROC       _VALIDA_VEHICULO_CARD_MENSUAL
  -------         PROC          _TARJETA_MENSUAL
  X:000AH         SYMBOL        Atributos_Expedidor
  X:000DH         SYMBOL        Buffer_Write_MF
  -------         DO            
  X:0010H         SYMBOL        Estado_expedidor
  -------         ENDDO         
BL51 BANKED LINKER/LOCATER V6.22.2.0                                                  07/29/2020  18:03:03  PAGE 114


  C:7592H         LINE#         1681
  C:759DH         LINE#         1682
  C:759DH         LINE#         1687
  C:75A8H         LINE#         1688
  C:75A8H         LINE#         1689
  C:75C6H         LINE#         1690
  C:75C6H         LINE#         1692
  C:75D7H         LINE#         1693
  C:75D7H         LINE#         1694
  C:75DFH         LINE#         1695
  C:75E1H         LINE#         1697
  C:75E1H         LINE#         1698
  C:75EAH         LINE#         1699
  C:75FAH         LINE#         1700
  C:760DH         LINE#         1701
  C:762DH         LINE#         1702
  C:7633H         LINE#         1703
  C:7633H         LINE#         1704
  C:7635H         LINE#         1706
  C:7635H         LINE#         1707
  C:763AH         LINE#         1709
  C:763FH         LINE#         1710
  C:7648H         LINE#         1711
  C:7648H         LINE#         1712
  C:7648H         LINE#         1713
  C:764AH         LINE#         1715
  C:764AH         LINE#         1717
  C:7650H         LINE#         1718
  C:7650H         LINE#         1719
  C:7655H         LINE#         1720
  -------         ENDPROC       _TARJETA_MENSUAL
  -------         PROC          _TARJETA_ROTACION
  D:0001H         SYMBOL        Atributos_Expedidor
  X:000DH         SYMBOL        Buffer_Write_MF
  C:A0B3H         LINE#         1721
  C:A0B3H         LINE#         1722
  C:A0B3H         LINE#         1723
  C:A0B8H         LINE#         1724
  C:A0C1H         LINE#         1725
  C:A0E1H         LINE#         1726
  C:A0E3H         LINE#         1729
  -------         ENDPROC       _TARJETA_ROTACION
  -------         PROC          _VALIDA_TIPO_TARJETA
  X:0003H         SYMBOL        Atributos_Expedidor
  X:0006H         SYMBOL        Buffer_Write_MF
  -------         DO            
  X:0009H         SYMBOL        Estado_expedidor
  -------         ENDDO         
  C:4CFCH         LINE#         1730
  C:4D07H         LINE#         1731
  C:4D07H         LINE#         1733
  C:4D14H         LINE#         1734
  C:4D14H         LINE#         1735
  C:4D1DH         LINE#         1736
  C:4D23H         LINE#         1737
  C:4D23H         LINE#         1742
  C:4D31H         LINE#         1743
BL51 BANKED LINKER/LOCATER V6.22.2.0                                                  07/29/2020  18:03:03  PAGE 115


  C:4D31H         LINE#         1746
  C:4D4EH         LINE#         1747
  C:4D4EH         LINE#         1748
  C:4D6BH         LINE#         1750
  C:4D6DH         LINE#         1752
  C:4D6DH         LINE#         1753
  C:4D76H         LINE#         1754
  C:4D7BH         LINE#         1755
  C:4D7DH         LINE#         1756
  C:4D7DH         LINE#         1757
  C:4D7DH         LINE#         1758
  C:4D7FH         LINE#         1761
  C:4D7FH         LINE#         1762
  C:4D88H         LINE#         1764
  C:4DABH         LINE#         1765
  C:4DABH         LINE#         1766
  C:4DAEH         LINE#         1768
  C:4DAEH         LINE#         1769
  C:4DB3H         LINE#         1770
  C:4DB8H         LINE#         1771
  C:4DBBH         LINE#         1772
  C:4DBBH         LINE#         1773
  C:4DBEH         LINE#         1774
  C:4DD6H         LINE#         1775
  C:4DD6H         LINE#         1777
  C:4DDFH         LINE#         1778
  C:4DE5H         LINE#         1779
  C:4DE5H         LINE#         1780
  C:4DF1H         LINE#         1781
  C:4DF1H         LINE#         1782
  C:4E0EH         LINE#         1784
  C:4E0EH         LINE#         1785
  C:4E2EH         LINE#         1786
  C:4E30H         LINE#         1788
  C:4E30H         LINE#         1789
  C:4E39H         LINE#         1790
  C:4E3EH         LINE#         1791
  C:4E43H         LINE#         1792
  C:4E46H         LINE#         1793
  C:4E46H         LINE#         1794
  C:4E48H         LINE#         1796
  C:4E48H         LINE#         1797
  C:4E51H         LINE#         1798
  C:4E74H         LINE#         1799
  C:4E74H         LINE#         1800
  C:4E76H         LINE#         1802
  C:4E76H         LINE#         1803
  C:4E7BH         LINE#         1804
  C:4E80H         LINE#         1805
  C:4E83H         LINE#         1806
  C:4E83H         LINE#         1807
  C:4E85H         LINE#         1809
  C:4E85H         LINE#         1810
  C:4E8EH         LINE#         1811
  C:4E93H         LINE#         1813
  C:4E9BH         LINE#         1814
  C:4E9BH         LINE#         1816
BL51 BANKED LINKER/LOCATER V6.22.2.0                                                  07/29/2020  18:03:03  PAGE 116


  C:4EA0H         LINE#         1817
  -------         ENDPROC       _VALIDA_TIPO_TARJETA
  -------         PROC          _HORARIOS
  X:0011H         SYMBOL        Atributos_Expedidor
  -------         DO            
  X:0014H         SYMBOL        Estado_Horario
  X:0015H         SYMBOL        Addr_horarios
  X:0020H         SYMBOL        dia_semana
  X:0021H         SYMBOL        EE_dia_semana
  X:0022H         SYMBOL        addr
  -------         ENDDO         
  C:607DH         LINE#         1911
  C:6088H         LINE#         1912
  C:6088H         LINE#         1918
  C:6093H         LINE#         1919
  C:6093H         LINE#         1921
  C:609FH         LINE#         1923
  C:60C5H         LINE#         1927
  C:60D8H         LINE#         1928
  C:60D8H         LINE#         1930
  C:60E2H         LINE#         1931
  C:60EBH         LINE#         1932
  C:60F3H         LINE#         1933
  C:60FCH         LINE#         1936
  C:6121H         LINE#         1937
  C:612AH         LINE#         1938
  C:6132H         LINE#         1939
  C:613BH         LINE#         1941
  C:6145H         LINE#         1942
  C:6145H         LINE#         1944
  C:6153H         LINE#         1945
  C:6155H         LINE#         1947
  C:6155H         LINE#         1949
  C:615EH         LINE#         1950
  C:6163H         LINE#         1951
  C:6163H         LINE#         1952
  C:6165H         LINE#         1954
  C:6165H         LINE#         1956
  C:616AH         LINE#         1957
  C:616FH         LINE#         1958
  C:6175H         LINE#         1960
  C:6175H         LINE#         1962
  C:6177H         LINE#         1964
  C:6177H         LINE#         1965
  C:617DH         LINE#         1967
  C:6186H         LINE#         1968
  C:6186H         LINE#         1969
  C:618BH         LINE#         1970
  -------         ENDPROC       _HORARIOS
  -------         PROC          _HORA_MAXIMA
  X:0030H         SYMBOL        addr
  -------         DO            
  X:0032H         SYMBOL        Hora_High
  X:0033H         SYMBOL        Minuto_High
  X:0034H         SYMBOL        HoraIni
  X:0035H         SYMBOL        MinutoIni
  X:0036H         SYMBOL        Hora_Prog
BL51 BANKED LINKER/LOCATER V6.22.2.0                                                  07/29/2020  18:03:03  PAGE 117


  -------         ENDDO         
  C:7F22H         LINE#         1971
  C:7F2AH         LINE#         1972
  C:7F2AH         LINE#         1977
  C:7F3FH         LINE#         1978
  C:7F5FH         LINE#         1979
  C:7F7CH         LINE#         1980
  C:7F9CH         LINE#         1981
  C:7FA4H         LINE#         1982
  C:7FACH         LINE#         1983
  C:7FB5H         LINE#         1985
  C:7FCDH         LINE#         1986
  -------         ENDPROC       _HORA_MAXIMA
  -------         PROC          _EN_HORARIO
  X:002BH         SYMBOL        HoraNow
  D:0004H         SYMBOL        Hora_Prog
  X:002DH         SYMBOL        addr
  -------         DO            
  X:002FH         SYMBOL        Estado_Horario
  -------         ENDDO         
  C:9309H         LINE#         1987
  C:9317H         LINE#         1988
  C:9317H         LINE#         1991
  C:9324H         LINE#         1992
  C:9324H         LINE#         1995
  C:932DH         LINE#         1996
  C:9342H         LINE#         1999
  C:9351H         LINE#         2000
  C:9351H         LINE#         2002
  C:9358H         LINE#         2003
  C:935EH         LINE#         2004
  C:9360H         LINE#         2006
  C:9360H         LINE#         2009
  C:9364H         LINE#         2010
  C:9364H         LINE#         2011
  C:9364H         LINE#         2013
  C:9366H         LINE#         2015
  C:9366H         LINE#         2018
  C:936FH         LINE#         2019
  C:9374H         LINE#         2021
  C:9374H         LINE#         2022
  C:9379H         LINE#         2023
  -------         ENDPROC       _EN_HORARIO
  -------         PROC          _BLOQUE_HORARIO
  X:0024H         SYMBOL        addr
  -------         DO            
  X:0026H         SYMBOL        Estado_Horario
  X:0027H         SYMBOL        HoraNow
  X:0029H         SYMBOL        Hora_Prog
  -------         ENDDO         
  C:6298H         LINE#         2025
  C:62A0H         LINE#         2026
  C:62A0H         LINE#         2032
  C:62A9H         LINE#         2033
  C:62B1H         LINE#         2034
  C:62B9H         LINE#         2035
  C:62C2H         LINE#         2036
BL51 BANKED LINKER/LOCATER V6.22.2.0                                                  07/29/2020  18:03:03  PAGE 118


  C:62F0H         LINE#         2041
  C:62F9H         LINE#         2042
  C:630EH         LINE#         2043
  C:6326H         LINE#         2044
  C:6328H         LINE#         2045
  C:6328H         LINE#         2048
  C:6340H         LINE#         2049
  C:6340H         LINE#         2050
  C:6349H         LINE#         2051
  C:6364H         LINE#         2052
  C:6382H         LINE#         2053
  C:6384H         LINE#         2055
  C:6384H         LINE#         2056
  C:6389H         LINE#         2057
  C:638EH         LINE#         2058
  C:6393H         LINE#         2059
  C:6393H         LINE#         2060
  C:6393H         LINE#         2062
  C:639AH         LINE#         2063
  -------         ENDPROC       _BLOQUE_HORARIO
  -------         PROC          SECUENCIA_INICIO_EXPEDIDOR
  -------         DO            
  X:0002H         SYMBOL        temp
  -------         ENDDO         
  C:59A0H         LINE#         2071
  C:59A0H         LINE#         2072
  C:59A0H         LINE#         2074
  C:59C0H         LINE#         2075
  C:59C0H         LINE#         2076
  C:59C0H         LINE#         2079
  C:59C5H         LINE#         2080
  C:59CBH         LINE#         2083
  C:59CDH         LINE#         2084
  C:59CDH         LINE#         2095
  C:59CDH         LINE#         2097
  C:59DBH         LINE#         2098
  C:59DBH         LINE#         2099
  C:59E7H         LINE#         2100
  C:59E7H         LINE#         2101
  C:59EDH         LINE#         2102
  C:59F0H         LINE#         2103
  C:59F8H         LINE#         2104
  C:59F8H         LINE#         2105
  C:59FFH         LINE#         2106
  C:5A13H         LINE#         2107
  C:5A13H         LINE#         2108
  C:5A15H         LINE#         2110
  C:5A15H         LINE#         2111
  C:5A1CH         LINE#         2112
  C:5A22H         LINE#         2113
  C:5A22H         LINE#         2114
  C:5A25H         LINE#         2116
  C:5A25H         LINE#         2117
  C:5A2EH         LINE#         2118
  C:5A42H         LINE#         2119
  C:5A48H         LINE#         2120
  C:5A48H         LINE#         2121
BL51 BANKED LINKER/LOCATER V6.22.2.0                                                  07/29/2020  18:03:03  PAGE 119


  C:5A4BH         LINE#         2122
  C:5A4BH         LINE#         2128
  C:5A4BH         LINE#         2130
  C:5A4EH         LINE#         2131
  C:5A54H         LINE#         2135
  C:5A56H         LINE#         2136
  C:5A56H         LINE#         2146
  C:5A56H         LINE#         2148
  C:5A64H         LINE#         2149
  C:5A64H         LINE#         2150
  C:5A70H         LINE#         2151
  C:5A70H         LINE#         2152
  C:5A76H         LINE#         2153
  C:5A78H         LINE#         2154
  C:5A80H         LINE#         2155
  C:5A80H         LINE#         2156
  C:5A87H         LINE#         2157
  C:5A9BH         LINE#         2158
  C:5A9BH         LINE#         2159
  C:5A9DH         LINE#         2161
  C:5A9DH         LINE#         2162
  C:5AA4H         LINE#         2163
  C:5AAAH         LINE#         2164
  C:5AAAH         LINE#         2165
  C:5AACH         LINE#         2167
  C:5AACH         LINE#         2168
  C:5AB5H         LINE#         2169
  C:5AC9H         LINE#         2170
  C:5ACEH         LINE#         2171
  C:5ACEH         LINE#         2173
  C:5AD0H         LINE#         2174
  C:5AD0H         LINE#         2180
  C:5AD0H         LINE#         2182
  C:5AD6H         LINE#         2183
  C:5AD6H         LINE#         2186
  C:5AD6H         LINE#         2187
  C:5ADDH         LINE#         2188
  C:5ADDH         LINE#         2189
  C:5ADDH         LINE#         2190
  -------         ENDPROC       SECUENCIA_INICIO_EXPEDIDOR
  -------         PROC          _SECUENCIAEXPEDIDORMF
  X:0002H         SYMBOL        EstadoActivo
  -------         DO            
  X:010CH         SYMBOL        Buffer_Write_MF
  X:011DH         SYMBOL        Atributos_Expedidor
  X:012CH         SYMBOL        Secuencia_Expedidor
  X:0130H         SYMBOL        Nombre_Mensual
  -------         ENDDO         
  C:323CH         LINE#         2200
  C:3241H         LINE#         2201
  C:3241H         LINE#         2207
  C:3298H         LINE#         2208
  C:3298H         LINE#         2211
  C:3298H         LINE#         2213
  C:32AEH         LINE#         2214
  C:32AEH         LINE#         2215
  C:32B0H         LINE#         2216
BL51 BANKED LINKER/LOCATER V6.22.2.0                                                  07/29/2020  18:03:03  PAGE 120


  C:32B2H         LINE#         2217
  C:32B7H         LINE#         2218
  C:32BFH         LINE#         2219
  C:32C4H         LINE#         2221
  C:32C4H         LINE#         2223
  C:32C7H         LINE#         2225
  C:32C7H         LINE#         2227
  C:32D0H         LINE#         2229
  C:32D3H         LINE#         2236
  C:32D3H         LINE#         2237
  C:32D9H         LINE#         2238
  C:32DFH         LINE#         2239
  C:32DFH         LINE#         2240
  C:32E2H         LINE#         2242
  C:32E5H         LINE#         2243
  C:32EDH         LINE#         2244
  C:32EDH         LINE#         2246
  C:32F0H         LINE#         2247
  C:32F3H         LINE#         2248
  C:32FBH         LINE#         2249
  C:32FBH         LINE#         2250
  C:3309H         LINE#         2251
  C:3309H         LINE#         2252
  C:3312H         LINE#         2253
  C:3315H         LINE#         2254
  C:3321H         LINE#         2255
  C:3321H         LINE#         2256
  C:332AH         LINE#         2257
  C:332DH         LINE#         2259
  C:332DH         LINE#         2260
  C:3336H         LINE#         2261
  C:3336H         LINE#         2262
  C:3339H         LINE#         2263
  C:3341H         LINE#         2264
  C:3341H         LINE#         2265
  C:334FH         LINE#         2266
  C:334FH         LINE#         2267
  C:3365H         LINE#         2268
  C:3368H         LINE#         2269
  C:3374H         LINE#         2270
  C:3374H         LINE#         2271
  C:337DH         LINE#         2272
  C:3380H         LINE#         2274
  C:3380H         LINE#         2275
  C:3389H         LINE#         2276
  C:3389H         LINE#         2277
  C:338CH         LINE#         2278
  C:3394H         LINE#         2279
  C:3394H         LINE#         2280
  C:339DH         LINE#         2281
  C:33A0H         LINE#         2282
  C:33A8H         LINE#         2283
  C:33A8H         LINE#         2284
  C:33BEH         LINE#         2285
  C:33C1H         LINE#         2286
  C:33C9H         LINE#         2287
  C:33C9H         LINE#         2288
BL51 BANKED LINKER/LOCATER V6.22.2.0                                                  07/29/2020  18:03:03  PAGE 121


  C:33CCH         LINE#         2289
  C:33CFH         LINE#         2291
  C:33D7H         LINE#         2292
  C:33D7H         LINE#         2293
  C:33E0H         LINE#         2294
  C:33E3H         LINE#         2296
  C:33E3H         LINE#         2297
  C:33ECH         LINE#         2298
  C:33ECH         LINE#         2299
  C:33EFH         LINE#         2300
  C:33EFH         LINE#         2301
  C:33F4H         LINE#         2302
  C:3414H         LINE#         2303
  C:3417H         LINE#         2304
  C:3417H         LINE#         2305
  C:341CH         LINE#         2306
  C:3424H         LINE#         2307
  C:342AH         LINE#         2308
  C:342DH         LINE#         2309
  C:342DH         LINE#         2310
  C:3430H         LINE#         2311
  C:3438H         LINE#         2312
  C:343EH         LINE#         2313
  C:3441H         LINE#         2314
  C:3441H         LINE#         2315
  C:3444H         LINE#         2316
  C:3469H         LINE#         2317
  C:346FH         LINE#         2318
  C:3471H         LINE#         2319
  C:3474H         LINE#         2320
  C:3474H         LINE#         2321
  C:347FH         LINE#         2322
  C:3487H         LINE#         2323
  C:348DH         LINE#         2324
  C:3490H         LINE#         2325
  C:3490H         LINE#         2326
  C:34A1H         LINE#         2327
  C:34A9H         LINE#         2328
  C:34AFH         LINE#         2329
  C:34B2H         LINE#         2330
  C:34B2H         LINE#         2331
  C:34B7H         LINE#         2332
  C:34D5H         LINE#         2333
  C:34D8H         LINE#         2334
  C:34D8H         LINE#         2335
  C:34DDH         LINE#         2336
  C:34FDH         LINE#         2337
  C:3500H         LINE#         2338
  C:3500H         LINE#         2339
  C:3505H         LINE#         2340
  C:3507H         LINE#         2341
  C:3525H         LINE#         2343
  C:3528H         LINE#         2344
  C:3528H         LINE#         2345
  C:352DH         LINE#         2346
  C:354DH         LINE#         2348
  C:3550H         LINE#         2349
BL51 BANKED LINKER/LOCATER V6.22.2.0                                                  07/29/2020  18:03:03  PAGE 122


  C:3550H         LINE#         2350
  C:3555H         LINE#         2351
  C:355DH         LINE#         2352
  C:3563H         LINE#         2353
  C:3566H         LINE#         2354
  C:3566H         LINE#         2355
  C:3569H         LINE#         2356
  C:3589H         LINE#         2357
  C:358CH         LINE#         2358
  C:358CH         LINE#         2359
  C:358EH         LINE#         2360
  C:3591H         LINE#         2361
  C:3594H         LINE#         2362
  C:3594H         LINE#         2363
  C:359DH         LINE#         2365
  C:35A0H         LINE#         2366
  C:35A0H         LINE#         2367
  C:35AEH         LINE#         2368
  C:35B1H         LINE#         2369
  C:35B1H         LINE#         2370
  C:35B4H         LINE#         2371
  C:35BCH         LINE#         2372
  C:35C2H         LINE#         2373
  C:35C5H         LINE#         2374
  C:35C5H         LINE#         2375
  C:35CEH         LINE#         2376
  C:35D1H         LINE#         2377
  C:35D1H         LINE#         2378
  C:35E8H         LINE#         2379
  C:35EAH         LINE#         2380
  C:35EAH         LINE#         2381
  C:35EFH         LINE#         2382
  C:3612H         LINE#         2383
  C:3615H         LINE#         2384
  C:3617H         LINE#         2385
  C:3617H         LINE#         2386
  C:361AH         LINE#         2387
  C:363AH         LINE#         2388
  C:363CH         LINE#         2389
  C:363CH         LINE#         2390
  C:363FH         LINE#         2391
  C:3664H         LINE#         2392
  C:3666H         LINE#         2393
  C:3666H         LINE#         2394
  C:366BH         LINE#         2395
  C:366BH         LINE#         2397
  C:366BH         LINE#         2398
  C:3670H         LINE#         2399
  -------         ENDPROC       _SECUENCIAEXPEDIDORMF
  -------         ENDMOD        VERIFICADOR

  -------         MODULE        MONITOR
  C:0000H         SYMBOL        _ICE_DUMMY_
  D:0080H         PUBLIC        P0
  D:0090H         PUBLIC        P1
  I:0011H         PUBLIC        placa
  C:A253H         PUBLIC        Rx_Monitor
BL51 BANKED LINKER/LOCATER V6.22.2.0                                                  07/29/2020  18:03:03  PAGE 123


  B:0080H.0       PUBLIC        rx_ip
  B:0090H.7       PUBLIC        lock
  C:789CH         PUBLIC        _recibe_cmd_Monitor
  C:A375H         PUBLIC        clear_placa
  C:856CH         PUBLIC        _Valida_Trama_Monitor
  -------         PROC          _RECIBE_CMD_MONITOR
  X:0015H         SYMBOL        buffer_cmd
  -------         DO            
  X:0018H         SYMBOL        j
  X:0019H         SYMBOL        NumDatos
  X:001AH         SYMBOL        time_out
  X:001BH         SYMBOL        MaxChrRx
  X:001CH         SYMBOL        contador
  -------         ENDDO         
  C:789CH         LINE#         44
  C:78A7H         LINE#         45
  C:78A7H         LINE#         49
  C:78ACH         LINE#         50
  C:78B2H         LINE#         52
  C:78BDH         LINE#         53
  C:78BDH         LINE#         54
  C:78CEH         LINE#         55
  C:78CEH         LINE#         56
  C:78D5H         LINE#         57
  C:78D9H         LINE#         58
  C:78E2H         LINE#         59
  C:78E2H         LINE#         60
  C:78F0H         LINE#         61
  C:7907H         LINE#         62
  C:7907H         LINE#         63
  C:790DH         LINE#         64
  C:7913H         LINE#         65
  C:7913H         LINE#         66
  C:7915H         LINE#         67
  C:791DH         LINE#         68
  C:7923H         LINE#         69
  C:7935H         LINE#         70
  C:793FH         LINE#         71
  C:7948H         LINE#         73
  C:7957H         LINE#         76
  C:7957H         LINE#         77
  C:795CH         LINE#         78
  -------         ENDPROC       _RECIBE_CMD_MONITOR
  -------         PROC          _VALIDA_TRAMA_MONITOR
  X:0015H         SYMBOL        buffer
  D:0005H         SYMBOL        length_trama
  -------         DO            
  D:0007H         SYMBOL        j
  D:0006H         SYMBOL        p
  -------         ENDDO         
  C:856CH         LINE#         83
  C:8577H         LINE#         84
  C:8577H         LINE#         85
  C:8579H         LINE#         86
  C:857BH         LINE#         87
  C:857BH         LINE#         88
  C:8599H         LINE#         89
BL51 BANKED LINKER/LOCATER V6.22.2.0                                                  07/29/2020  18:03:03  PAGE 124


  C:8599H         LINE#         90
  C:859BH         LINE#         91
  C:85A0H         LINE#         92
  C:85A1H         LINE#         93
  C:85B6H         LINE#         94
  C:85B6H         LINE#         97
  C:85B6H         LINE#         98
  C:85D0H         LINE#         99
  C:85D1H         LINE#         100
  C:85D2H         LINE#         101
  C:85DEH         LINE#         102
  C:85F2H         LINE#         103
  C:85F8H         LINE#         104
  C:85FAH         LINE#         105
  C:8600H         LINE#         108
  C:8600H         LINE#         109
  C:8600H         LINE#         110
  C:8600H         LINE#         112
  C:8600H         LINE#         113
  -------         ENDPROC       _VALIDA_TRAMA_MONITOR
  -------         PROC          CLEAR_PLACA
  -------         DO            
  D:0007H         SYMBOL        i
  -------         ENDDO         
  C:A375H         LINE#         114
  C:A375H         LINE#         115
  C:A375H         LINE#         117
  C:A381H         LINE#         118
  C:A381H         LINE#         119
  C:A387H         LINE#         120
  C:A38AH         LINE#         121
  C:A38CH         LINE#         122
  -------         ENDPROC       CLEAR_PLACA
  -------         PROC          RX_MONITOR
  -------         DO            
  X:0008H         SYMBOL        Length_trama
  X:0009H         SYMBOL        buffer1
  -------         ENDDO         
  C:A253H         LINE#         123
  C:A253H         LINE#         124
  C:A253H         LINE#         127
  C:A262H         LINE#         128
  C:A26BH         LINE#         129
  -------         ENDPROC       RX_MONITOR
  -------         ENDMOD        MONITOR

  -------         MODULE        ?C?FPADD
  C:0E71H         PUBLIC        ?C?FPADD
  C:0E6DH         PUBLIC        ?C?FPSUB
  -------         ENDMOD        ?C?FPADD

  -------         MODULE        ?C?FPMUL
  C:0F62H         PUBLIC        ?C?FPMUL
  -------         ENDMOD        ?C?FPMUL

  -------         MODULE        ?C?FCAST
  C:1072H         PUBLIC        ?C?FCASTC
BL51 BANKED LINKER/LOCATER V6.22.2.0                                                  07/29/2020  18:03:03  PAGE 125


  C:106DH         PUBLIC        ?C?FCASTI
  C:1068H         PUBLIC        ?C?FCASTL
  -------         ENDMOD        ?C?FCAST

  -------         MODULE        ?C?CASTF
  C:10A6H         PUBLIC        ?C?CASTF
  -------         ENDMOD        ?C?CASTF

  -------         MODULE        PRINTF
  X:0076H         PUBLIC        ?_PRINTF?BYTE
  X:0076H         PUBLIC        ?_SPRINTF?BYTE
  C:2E24H         PUBLIC        _PRINTF
  C:2E1EH         PUBLIC        _SPRINTF
  -------         ENDMOD        PRINTF

  -------         MODULE        POW
  X:0022H         PUBLIC        ?_pow?BYTE
  C:5321H         PUBLIC        _pow
  -------         ENDMOD        POW

  -------         MODULE        ?C?CHKFLOAT
  C:1127H         PUBLIC        ?C?CHKFLOAT
  -------         ENDMOD        ?C?CHKFLOAT

  -------         MODULE        ?C?FPCMP
  C:1143H         PUBLIC        ?C?FPCMP
  C:1141H         PUBLIC        ?C?FPCMP3
  -------         ENDMOD        ?C?FPCMP

  -------         MODULE        ?C?FPNEG
  C:11BAH         PUBLIC        ?C?FPNEG
  -------         ENDMOD        ?C?FPNEG

  -------         MODULE        ?C?FPROUND
  C:11CBH         PUBLIC        ?C?FPROUND
  -------         ENDMOD        ?C?FPROUND

  -------         MODULE        ?C?FPCONVERT
  C:1208H         PUBLIC        ?C?FPCONVERT
  -------         ENDMOD        ?C?FPCONVERT

  -------         MODULE        EXP
  C:83D9H         PUBLIC        _EXP
  -------         ENDMOD        EXP

  -------         MODULE        LOG
  C:5C3DH         PUBLIC        _LOG
  C:5C39H         PUBLIC        _LOG10
  -------         ENDMOD        LOG

  -------         MODULE        ?C?FPDIV
  C:1310H         PUBLIC        ?C?FPDIV
  -------         ENDMOD        ?C?FPDIV

  -------         MODULE        ?C?FTNPWR
  C:13DDH         PUBLIC        ?C?FTNPWR
  -------         ENDMOD        ?C?FTNPWR
BL51 BANKED LINKER/LOCATER V6.22.2.0                                                  07/29/2020  18:03:03  PAGE 126



  -------         MODULE        ?C?COPY
  C:153AH         PUBLIC        ?C?COPY
  -------         ENDMOD        ?C?COPY

  -------         MODULE        ?C?CLDPTR
  C:1560H         PUBLIC        ?C?CLDPTR
  -------         ENDMOD        ?C?CLDPTR

  -------         MODULE        ?C?CLDOPTR
  C:1579H         PUBLIC        ?C?CLDOPTR
  -------         ENDMOD        ?C?CLDOPTR

  -------         MODULE        ?C?CSTPTR
  C:15A6H         PUBLIC        ?C?CSTPTR
  -------         ENDMOD        ?C?CSTPTR

  -------         MODULE        ?C?CSTOPTR
  C:15B8H         PUBLIC        ?C?CSTOPTR
  -------         ENDMOD        ?C?CSTOPTR

  -------         MODULE        ?C?IMUL
  C:15DAH         PUBLIC        ?C?IMUL
  -------         ENDMOD        ?C?IMUL

  -------         MODULE        ?C?IILDX
  C:15ECH         PUBLIC        ?C?IILDX
  -------         ENDMOD        ?C?IILDX

  -------         MODULE        ?C?LNEG
  C:1602H         PUBLIC        ?C?LNEG
  -------         ENDMOD        ?C?LNEG

  -------         MODULE        ?C?SLCMP
  C:1610H         PUBLIC        ?C?SLCMP
  -------         ENDMOD        ?C?SLCMP

  -------         MODULE        ?C?ULCMP
  C:1626H         PUBLIC        ?C?ULCMP
  -------         ENDMOD        ?C?ULCMP

  -------         MODULE        ?C?ULSHR
  C:1637H         PUBLIC        ?C?ULSHR
  -------         ENDMOD        ?C?ULSHR

  -------         MODULE        ?C?LSHL
  C:164AH         PUBLIC        ?C?LSHL
  -------         ENDMOD        ?C?LSHL

  -------         MODULE        ?C?LLDCODE
  C:165DH         PUBLIC        ?C?LLDCODE
  -------         ENDMOD        ?C?LLDCODE

  -------         MODULE        ?C?LLDXDATA0
  C:166DH         PUBLIC        ?C?LLDXDATA0
  -------         ENDMOD        ?C?LLDXDATA0

BL51 BANKED LINKER/LOCATER V6.22.2.0                                                  07/29/2020  18:03:03  PAGE 127


  -------         MODULE        ?C?LLDCODE0
  C:1679H         PUBLIC        ?C?LLDCODE0
  -------         ENDMOD        ?C?LLDCODE0

  -------         MODULE        ?C?LSTXDATA
  C:1689H         PUBLIC        ?C?LSTXDATA
  -------         ENDMOD        ?C?LSTXDATA

  -------         MODULE        ?C?LSTKXDATA
  C:1695H         PUBLIC        ?C?LSTKXDATA
  -------         ENDMOD        ?C?LSTKXDATA

  -------         MODULE        ?C?PLDIXDATA
  C:16C6H         PUBLIC        ?C?PLDIXDATA
  -------         ENDMOD        ?C?PLDIXDATA

  -------         MODULE        ?C?PSTXDATA
  C:16DDH         PUBLIC        ?C?PSTXDATA
  -------         ENDMOD        ?C?PSTXDATA

  -------         MODULE        ?C?CCASE
  C:16E6H         PUBLIC        ?C?CCASE
  -------         ENDMOD        ?C?CCASE

  -------         MODULE        STRCAT
  X:0047H         PUBLIC        ?_strcat?BYTE
  C:93E9H         PUBLIC        _strcat
  -------         ENDMOD        STRCAT

  -------         MODULE        ?C?STRCMP
  C:188AH         PUBLIC        ?C?STRCMP
  -------         ENDMOD        ?C?STRCMP

  -------         MODULE        ?C?STRCPY
  C:1973H         PUBLIC        ?C?STRCPY
  -------         ENDMOD        ?C?STRCPY

  -------         MODULE        STRLEN
  C:000EH         PUBLIC        _STRLEN
  -------         ENDMOD        STRLEN

  -------         MODULE        STRTOK
  X:0065H         PUBLIC        ?_strtok?BYTE
  C:6D5AH         PUBLIC        _strtok
  -------         ENDMOD        STRTOK

  -------         MODULE        ATOL
  C:618CH         PUBLIC        _atol
  -------         ENDMOD        ATOL

  -------         MODULE        ATOI
  C:6F1CH         PUBLIC        _atoi
  -------         ENDMOD        ATOI

  -------         MODULE        ?C?ILDIX
  C:1990H         PUBLIC        ?C?ILDIX
  -------         ENDMOD        ?C?ILDIX
BL51 BANKED LINKER/LOCATER V6.22.2.0                                                  07/29/2020  18:03:03  PAGE 128



  -------         MODULE        ?C?LMUL
  C:19A6H         PUBLIC        ?C?LMUL
  -------         ENDMOD        ?C?LMUL

  -------         MODULE        ISDIGIT
  C:A45DH         PUBLIC        _isdigit
  -------         ENDMOD        ISDIGIT

  -------         MODULE        ISSPACE
  C:A3CFH         PUBLIC        _isspace
  -------         ENDMOD        ISSPACE

  -------         MODULE        STRSPN
  X:006BH         PUBLIC        ?_strspn?BYTE
  C:8D2EH         PUBLIC        _strspn
  -------         ENDMOD        STRSPN

  -------         MODULE        STRPBRK
  X:006BH         PUBLIC        ?_strpbrk?BYTE
  C:8E33H         PUBLIC        _strpbrk
  -------         ENDMOD        STRPBRK

Program Size: data=138.7 xdata=527 code=42216
LINK/LOCATE RUN COMPLETE.  0 WARNING(S),  0 ERROR(S)
