BL51 BANKED LINKER/LOCATER V6.22.2.0                                                    11/04/2020  14:53:46  PAGE 1


BL51 BANKED LINKER/LOCATER V6.22.2.0, INVOKED BY:
C:\KEIL_V5\C51\BIN\BL51.EXE .\Objects\main.obj, .\Objects\Accescan.obj, .\Objects\Clock.obj, .\Objects\delay.obj, .\Obje
>> cts\eeprom.obj, .\Objects\io_sensores.obj, .\Objects\pantallas.obj, .\Objects\prog.obj, .\Objects\pto_paralelo.obj, .
>> \Objects\tibbo.obj, .\Objects\uart.obj, .\Objects\lintech.obj, .\Objects\verificador.obj, .\Objects\Monitor.obj TO .\
>> Objects\expedidor_v_01_raspberry PRINT (.\Listings\expedidor_v_01_raspberry.m51) RAMSIZE (256)


MEMORY MODEL: LARGE WITH FLOATING POINT ARITHMETIC


INPUT MODULES INCLUDED:
  .\Objects\main.obj (MAIN)
  .\Objects\Accescan.obj (ACCESCAN)
  .\Objects\Clock.obj (CLOCK)
  .\Objects\delay.obj (DELAY)
  .\Objects\eeprom.obj (EEPROM)
  .\Objects\io_sensores.obj (IO_SENSORES)
  .\Objects\pantallas.obj (PANTALLAS)
  .\Objects\prog.obj (PROG)
  .\Objects\pto_paralelo.obj (PTO_PARALELO)
  .\Objects\tibbo.obj (TIBBO)
  .\Objects\uart.obj (UART)
  .\Objects\lintech.obj (LINTECH)
  .\Objects\verificador.obj (VERIFICADOR)
  .\Objects\Monitor.obj (MONITOR)
  C:\KEIL_V5\C51\LIB\C51FPL.LIB (?C?FPADD)
  C:\KEIL_V5\C51\LIB\C51FPL.LIB (?C?FPMUL)
  C:\KEIL_V5\C51\LIB\C51FPL.LIB (?C?FCAST)
  C:\KEIL_V5\C51\LIB\C51FPL.LIB (?C?CASTF)
  C:\KEIL_V5\C51\LIB\C51FPL.LIB (PRINTF)
  C:\KEIL_V5\C51\LIB\C51FPL.LIB (POW)
  C:\KEIL_V5\C51\LIB\C51FPL.LIB (?C?FPGETOPN)
  C:\KEIL_V5\C51\LIB\C51FPL.LIB (?C?CHKFLOAT)
  C:\KEIL_V5\C51\LIB\C51FPL.LIB (?C?FPCMP)
  C:\KEIL_V5\C51\LIB\C51FPL.LIB (?C?FPNEG)
  C:\KEIL_V5\C51\LIB\C51FPL.LIB (?C?FPROUND)
  C:\KEIL_V5\C51\LIB\C51FPL.LIB (?C?FPCONVERT)
  C:\KEIL_V5\C51\LIB\C51FPL.LIB (EXP)
  C:\KEIL_V5\C51\LIB\C51FPL.LIB (LOG)
  C:\KEIL_V5\C51\LIB\C51FPL.LIB (?C?FPDIV)
  C:\KEIL_V5\C51\LIB\C51FPL.LIB (?C?FTNPWR)
  C:\KEIL_V5\C51\LIB\C51FPL.LIB (?C?FPSERIES)
  C:\KEIL_V5\C51\LIB\C51L.LIB (?C_STARTUP)
  C:\KEIL_V5\C51\LIB\C51L.LIB (?C?COPY)
  C:\KEIL_V5\C51\LIB\C51L.LIB (?C?CLDPTR)
  C:\KEIL_V5\C51\LIB\C51L.LIB (?C?CLDOPTR)
  C:\KEIL_V5\C51\LIB\C51L.LIB (?C?CSTPTR)
  C:\KEIL_V5\C51\LIB\C51L.LIB (?C?CSTOPTR)
  C:\KEIL_V5\C51\LIB\C51L.LIB (?C?IMUL)
  C:\KEIL_V5\C51\LIB\C51L.LIB (?C?IILDX)
  C:\KEIL_V5\C51\LIB\C51L.LIB (?C?LNEG)
  C:\KEIL_V5\C51\LIB\C51L.LIB (?C?SLCMP)
  C:\KEIL_V5\C51\LIB\C51L.LIB (?C?ULCMP)
  C:\KEIL_V5\C51\LIB\C51L.LIB (?C?ULSHR)
  C:\KEIL_V5\C51\LIB\C51L.LIB (?C?LSHL)
  C:\KEIL_V5\C51\LIB\C51L.LIB (?C?LLDCODE)
  C:\KEIL_V5\C51\LIB\C51L.LIB (?C?LLDXDATA0)
  C:\KEIL_V5\C51\LIB\C51L.LIB (?C?LLDCODE0)
BL51 BANKED LINKER/LOCATER V6.22.2.0                                                  11/04/2020  14:53:46  PAGE 2


  C:\KEIL_V5\C51\LIB\C51L.LIB (?C?LSTXDATA)
  C:\KEIL_V5\C51\LIB\C51L.LIB (?C?LSTKXDATA)
  C:\KEIL_V5\C51\LIB\C51L.LIB (?C?PLDIXDATA)
  C:\KEIL_V5\C51\LIB\C51L.LIB (?C?PSTXDATA)
  C:\KEIL_V5\C51\LIB\C51L.LIB (?C?CCASE)
  C:\KEIL_V5\C51\LIB\C51L.LIB (STRCAT)
  C:\KEIL_V5\C51\LIB\C51L.LIB (?C?STRCMP)
  C:\KEIL_V5\C51\LIB\C51L.LIB (?C?STRCPY)
  C:\KEIL_V5\C51\LIB\C51L.LIB (STRLEN)
  C:\KEIL_V5\C51\LIB\C51L.LIB (STRTOK)
  C:\KEIL_V5\C51\LIB\C51L.LIB (ATOL)
  C:\KEIL_V5\C51\LIB\C51L.LIB (ATOI)
  C:\KEIL_V5\C51\LIB\C51L.LIB (MALLOC)
  C:\KEIL_V5\C51\LIB\C51L.LIB (INIT_MEM)
  C:\KEIL_V5\C51\LIB\C51L.LIB (FREE)
  C:\KEIL_V5\C51\LIB\C51L.LIB (?C_INIT)
  C:\KEIL_V5\C51\LIB\C51L.LIB (?C?ILDIX)
  C:\KEIL_V5\C51\LIB\C51L.LIB (?C?LMUL)
  C:\KEIL_V5\C51\LIB\C51L.LIB (ISDIGIT)
  C:\KEIL_V5\C51\LIB\C51L.LIB (ISSPACE)
  C:\KEIL_V5\C51\LIB\C51L.LIB (STRSPN)
  C:\KEIL_V5\C51\LIB\C51L.LIB (STRPBRK)


LINK MAP OF MODULE:  .\Objects\expedidor_v_01_raspberry (MAIN)


            TYPE    BASE      LENGTH    RELOCATION   SEGMENT NAME
            -----------------------------------------------------

            * * * * * * *   D A T A   M E M O R Y   * * * * * * *
            REG     0000H     0008H     ABSOLUTE     "REG BANK 0"
            DATA    0008H     0005H     UNIT         _DATA_GROUP_
            DATA    000DH     0004H     UNIT         ?DT?UART
            IDATA   0011H     0009H     UNIT         ?ID?MONITOR
                    001AH     0006H                  *** GAP ***
            BIT     0020H.0   0001H.1   UNIT         _BIT_GROUP_
            BIT     0021H.1   0000H.2   UNIT         ?BI?MAIN
            BIT     0021H.3   0000H.2   UNIT         ?BI?UART
            BIT     0021H.5   0000H.1   UNIT         ?BI?EEPROM
            BIT     0021H.6   0000H.1   UNIT         ?BI?VERIFICADOR
                    0021H.7   0000H.1                *** GAP ***
            IDATA   0022H     0046H     UNIT         ?ID?MAIN
            IDATA   0068H     0001H     UNIT         ?STACK

            * * * * * * *  X D A T A   M E M O R Y  * * * * * * *
            XDATA   0000H     00B7H     UNIT         _XDATA_GROUP_
            XDATA   00B7H     008AH     UNIT         ?XD?VERIFICADOR
            XDATA   0141H     006CH     UNIT         ?XD?MAIN
            XDATA   01ADH     0059H     UNIT         ?XD?PROG
            XDATA   0206H     0050H     UNIT         ?XD?PANTALLAS
            XDATA   0256H     0008H     UNIT         ?XD?INIT_MEM
            XDATA   025EH     0003H     UNIT         ?XD?EEPROM
            XDATA   0261H     0003H     UNIT         ?XD?UART
            XDATA   0264H     0003H     UNIT         ?XD?STRTOK
            XDATA   0267H     0001H     UNIT         ?XD?ACCESCAN
            XDATA   0268H     0001H     UNIT         ?XD?CLOCK
BL51 BANKED LINKER/LOCATER V6.22.2.0                                                  11/04/2020  14:53:46  PAGE 3


            XDATA   0269H     0001H     UNIT         ?XD?IO_SENSORES

            * * * * * * *   C O D E   M E M O R Y   * * * * * * *
            CODE    0000H     0003H     ABSOLUTE     
            CODE    0003H     0008H     UNIT         ?PR?P_CK?CLOCK
            CODE    000BH     0003H     ABSOLUTE     
            CODE    000EH     0015H     UNIT         ?PR?_STRLEN?STRLEN
            CODE    0023H     0003H     ABSOLUTE     
            CODE    0026H     1308H     UNIT         ?CO?PROG
            CODE    132EH     0B8BH     UNIT         ?C?LIB_CODE
            CODE    1EB9H     078DH     UNIT         ?CO?VERIFICADOR
            CODE    2646H     06F4H     UNIT         ?PR?_PANTALLALCD?PANTALLAS
            CODE    2D3AH     0656H     UNIT         ?CO?PANTALLAS
            CODE    3390H     0483H     UNIT         ?PR?PRINTF?PRINTF
            CODE    3813H     046CH     UNIT         ?PR?_SECUENCIAEXPEDIDORMF?VERIFICADOR
            CODE    3C7FH     035CH     UNIT         ?PR?VER_PROG?PROG
            CODE    3FDBH     033EH     UNIT         ?PR?_VALIDA_TRAMA_PTO?ACCESCAN
            CODE    4319H     02D0H     UNIT         ?PR?_TWO_BYTEHEX_DECIMAL?CLOCK
            CODE    45E9H     02B7H     UNIT         ?PR?_PROG_HORARIO_DIAS?PROG
            CODE    48A0H     02B2H     UNIT         ?PR?_PANTALLALCD_LINEA_2?PANTALLAS
            CODE    4B52H     022CH     UNIT         ?PR?MENU?PROG
            CODE    4D7EH     0208H     UNIT         ?PR?_HASH_ID?PROG
            CODE    4F86H     01FAH     UNIT         ?PR?_PROG_HORARIO_DESDE_HASTA?PROG
            CODE    5180H     01F5H     UNIT         ?PR?PROG_FECHA_VENCIMIENTO?PROG
            CODE    5375H     01DFH     UNIT         ?PR?_RESPONDE_LECTURA_TARJETA_SECTOR1_BLOQUE1?VERIFICADOR
            CODE    5554H     01B3H     UNIT         ?PR?COM_ISR?UART
            CODE    5707H     01A9H     UNIT         ?PR?_ARMAR_TRAMA_PTO_PARALELO_EXPEDIDOR?VERIFICADOR
            CODE    58B0H     01A4H     UNIT         ?PR?_VALIDA_TIPO_TARJETA?VERIFICADOR
            CODE    5A54H     017AH     UNIT         ?CO?LINTECH
            CODE    5BCEH     016EH     UNIT         ?PR?_BLOCK_READ_CLOCK_ASCII?CLOCK
            CODE    5D3CH     0166H     UNIT         ?PR?_POW?POW
            CODE    5EA2H     0154H     UNIT         ?PR?_ARMAR_TRAMA_MONITOR?VERIFICADOR
            CODE    5FF6H     0145H     UNIT         ?PR?PROG_HORARIOS?PROG
            CODE    613BH     0142H     UNIT         ?PR?_ARMAR_TRAMA_TARJETA_SECTOR1_BLOQUE2?VERIFICADOR
            CODE    627DH     013FH     UNIT         ?PR?_FREE?FREE
            CODE    63BCH     013EH     UNIT         ?PR?PROG_SIN_COBRO?PROG
            CODE    64FAH     013EH     UNIT         ?PR?SECUENCIA_INICIO_EXPEDIDOR?VERIFICADOR
            CODE    6638H     0137H     UNIT         ?PR?VER_HORARIO?PROG
            CODE    676FH     012BH     UNIT         ?PR?_RESPONDE_LECTURA_TARJETA_SECTOR1_BLOQUE2?VERIFICADOR
            CODE    689AH     0129H     UNIT         ?PR?LOG?LOG
            CODE    69C3H     0128H     UNIT         ?PR?_VER_HORARIO_DIAS?PROG
            CODE    6AEBH     011CH     UNIT         ?PR?LOAD_AND_SEND_ID_COD?PTO_PARALELO
            CODE    6C07H     011AH     UNIT         ?PR?_PROG_HORARIOS_ON_OFF?PROG
            CODE    6D21H     0119H     UNIT         ?PR?_VER_HORARIO_DESDE_HASTA?PROG
            CODE    6E3AH     0115H     UNIT         ?PR?_VALIDAR_CLK?CLOCK
            CODE    6F4FH     010FH     UNIT         ?PR?_HORARIOS?VERIFICADOR
            CODE    705EH     010CH     UNIT         ?PR?_ATOL?ATOL
            CODE    716AH     0103H     UNIT         ?PR?_BLOQUE_HORARIO?VERIFICADOR
            CODE    726DH     0100H     UNIT         ?PR?_WR_MF?LINTECH
            CODE    736DH     00FCH     UNIT         ?PR?PROG_DEBUG?PROG
            CODE    7469H     00FCH     UNIT         ?PR?PROG_USE_LPR?PROG
            CODE    7565H     00FCH     UNIT         ?PR?TIPO_PANTALLA?PROG
            CODE    7661H     00FCH     UNIT         ?PR?PROG_ANTIPASSBACK?PROG
            CODE    775DH     00FCH     UNIT         ?PR?PROG_PLACA?PROG
            CODE    7859H     00FCH     UNIT         ?PR?PROG_VALIDAR_TIPO_VEHICULO_MENSUAL?PROG
            CODE    7955H     00FCH     UNIT         ?PR?PROG_APB_MENSUAL?PROG
            CODE    7A51H     00F1H     UNIT         ?PR?_WRITE_EEPROM_TICKET?EEPROM
BL51 BANKED LINKER/LOCATER V6.22.2.0                                                  11/04/2020  14:53:46  PAGE 4


            CODE    7B42H     00EAH     UNIT         ?PR?_MOV_CARD?LINTECH
            CODE    7C2CH     00E4H     UNIT         ?PR?_STRTOK?STRTOK
            CODE    7D10H     00DEH     UNIT         ?PR?PROG_ADDRESS_HIGH_BOARD?PROG
            CODE    7DEEH     00DBH     UNIT         ?PR?_ATOI?ATOI
            CODE    7EC9H     00D7H     UNIT         ?PR?_ANALIZA_UID_CARD?VERIFICADOR
            CODE    7FA0H     00D6H     UNIT         ?PR?_CMD_LPR_SALIDA_WIEGAND?ACCESCAN
            CODE    8076H     00D1H     UNIT         ?PR?_ARMAR_TRAMA_PTO_PARALELO_EXPEDIDOR_MENSUAL?VERIFICADOR
            CODE    8147H     00D1H     UNIT         ?PR?_MALLOC?MALLOC
            CODE    8218H     00CEH     UNIT         ?C_INITSEG
            CODE    82E6H     00CCH     UNIT         ?PR?_GRABA_SERIE?EEPROM
            CODE    83B2H     00CBH     UNIT         ?PR?_RTA_CMD_TRANSPORTE?VERIFICADOR
            CODE    847DH     00CAH     UNIT         ?PR?READ_EEPROM_TICKET?EEPROM
            CODE    8547H     00C9H     UNIT         ?PR?_CHECK_FECHAOUT?CLOCK
            CODE    8610H     00C4H     UNIT         ?PR?_BLOCK_READ_CLOCK?CLOCK
            CODE    86D4H     00C4H     UNIT         ?PR?_TARJETA_MENSUAL?VERIFICADOR
            CODE    8798H     00C3H     UNIT         ?PR?_RD_MF?LINTECH
            CODE    885BH     00C2H     UNIT         ?PR?PROG_TARJETA_AUTOMATICA_O_BOTON?PROG
            CODE    891DH     00C1H     UNIT         ?PR?_RECIBE_CMD_MONITOR?MONITOR
            CODE    89DEH     00BEH     UNIT         ?PR?ERROR_RX_PTO?VERIFICADOR
            CODE    8A9CH     00BDH     UNIT         ?PR?PROG_COD_PARK?PROG
            CODE    8B59H     00BDH     UNIT         ?PR?PROG_TIEMPO_GRACIA?PROG
            CODE    8C16H     00BAH     UNIT         ?CO?TIBBO
            CODE    8CD0H     00B6H     UNIT         ?PR?PROG_ID_CLIENTE?PROG
            CODE    8D86H     00B4H     UNIT         ?PR?_SEND_PORT?PTO_PARALELO
            CODE    8E3AH     00ADH     UNIT         ?CO?IO_SENSORES
            CODE    8EE7H     00ACH     UNIT         ?PR?_HORA_MAXIMA?VERIFICADOR
            CODE    8F93H     00AAH     UNIT         ?PR?CLAVE_SEGURIDAD_S2?LINTECH
            CODE    903DH     00A9H     UNIT         ?PR?DWLOAD_EEPROM?LINTECH
            CODE    90E6H     00A7H     UNIT         ?PR?_WAIT_PLACA?VERIFICADOR
            CODE    918DH     00A6H     UNIT         ?PR?_BLOCK_READ_CLOCK_HEX?CLOCK
            CODE    9233H     00A4H     UNIT         ?PR?_ARMAR_TRAMA_TARJETA_SECTOR1_BLOQUE1_CAMCEL?VERIFICADOR
            CODE    92D7H     009DH     UNIT         ?PR?_INICIALIZA?LINTECH
            CODE    9374H     009BH     UNIT         ?PR?_VALIDA_TRAMA_MONITOR?MONITOR
            CODE    940FH     009AH     UNIT         ?PR?_RESPONDE_LECTURA_TARJETA_SECTOR1_BLOQUE0?VERIFICADOR
            CODE    94A9H     009AH     UNIT         ?PR?EXP?EXP
            CODE    9543H     0099H     UNIT         ?PR?SHOW?PROG
            CODE    95DCH     0099H     UNIT         ?PR?_RECIBE_PORT?PTO_PARALELO
            CODE    9675H     0098H     UNIT         ?PR?_VALIDA_VEHICULO_CARD_MENSUAL?VERIFICADOR
            CODE    970DH     0094H     UNIT         ?PR?_RESPUESTA_PLACA_CANCEL?VERIFICADOR
            CODE    97A1H     0091H     UNIT         ?PR?_HEX_ASCII?CLOCK
            CODE    9832H     0091H     UNIT         ?PR?_CARD_INSERCION?LINTECH
            CODE    98C3H     0090H     UNIT         ?PR?_LEE_CLK?CLOCK
            CODE    9953H     0090H     UNIT         ?PR?_GETOPTION?PROG
            CODE    99E3H     008FH     UNIT         ?PR?_BLOCK_WRITE_CLOCK_ASCII?CLOCK
            CODE    9A72H     008FH     UNIT         ?PR?_RESPONDE_WRITE_TARJETA_SECTOR1_BLOQUE2?VERIFICADOR
            CODE    9B01H     008DH     UNIT         ?PR?LOADVERIFY_EEPROM?LINTECH
            CODE    9B8EH     008CH     UNIT         ?C_C51STARTUP
            CODE    9C1AH     0089H     UNIT         ?PR?_RASPBERRY_DATA?PANTALLAS
            CODE    9CA3H     0088H     UNIT         ?PR?_SEND_PORTERR?PTO_PARALELO
            CODE    9D2BH     0088H     UNIT         ?PR?RX_DATA?TIBBO
            CODE    9DB3H     0088H     UNIT         ?PR?UNIQUE_IDENTIFIER_UID?LINTECH
            CODE    9E3BH     0084H     UNIT         ?PR?_STRSPN?STRSPN
            CODE    9EBFH     0082H     UNIT         ?PR?_SEND_PTO_PARALELO?VERIFICADOR
            CODE    9F41H     0081H     UNIT         ?PR?_STRPBRK?STRPBRK
            CODE    9FC2H     0080H     UNIT         ?PR?MSJ_LCD_INFORMATIVO?IO_SENSORES
            CODE    A042H     0080H     UNIT         ?PR?_INGRESADATO?PROG
            CODE    A0C2H     0080H     UNIT         ?PR?AUT_CARD_CHECK_STATUS?LINTECH
BL51 BANKED LINKER/LOCATER V6.22.2.0                                                  11/04/2020  14:53:46  PAGE 5


            CODE    A142H     0080H     UNIT         ?PR?POWER_OFF?LINTECH
            CODE    A1C2H     007CH     UNIT         ?PR?MAIN?MAIN
            CODE    A23EH     007CH     UNIT         ?PR?_CHECK_STATUS?LINTECH
            CODE    A2BAH     007CH     UNIT         ?PR?RESPONDE_ESTADO_SENSORES_TRANSPORTE?VERIFICADOR
            CODE    A336H     0079H     UNIT         ?PR?ENTREGA_CARD_CAPTURA?VERIFICADOR
            CODE    A3AFH     0077H     UNIT         ?PR?RESPONDE_TIPO_TARJETA?VERIFICADOR
            CODE    A426H     0073H     UNIT         ?PR?_DEBUGBUFFERMF?TIBBO
            CODE    A499H     0071H     UNIT         ?PR?_EN_HORARIO?VERIFICADOR
            CODE    A50AH     006FH     UNIT         ?PR?_ESCRIBIRMEMORIA?EEPROM
            CODE    A579H     006BH     UNIT         ?PR?_STRCAT?STRCAT
            CODE    A5E4H     0066H     UNIT         ?PR?_LEERMEMORIA?EEPROM
            CODE    A64AH     0066H     UNIT         ?PR?_DISPARO_LOCK_ENTRADA_VEHICULO?VERIFICADOR
            CODE    A6B0H     0062H     UNIT         ?PR?_LISTACOMANDOS?PROG
            CODE    A712H     0061H     UNIT         ?PR?_PREGUNTA_LPR?VERIFICADOR
            CODE    A773H     005EH     UNIT         ?PR?_BYTEHEX_DECIMAL?CLOCK
            CODE    A7D1H     005DH     UNIT         ?PR?_RESPUESTA_SEGUNDA_CLAVE?VERIFICADOR
            CODE    A82EH     0059H     UNIT         ?PR?INGRESO_VEHICULO?VERIFICADOR
            CODE    A887H     0058H     UNIT         ?PR?VALIDA_SENSOR1_AUTO?IO_SENSORES
            CODE    A8DFH     0058H     UNIT         ?PR?_ARMAR_TRAMA_PLACA?VERIFICADOR
            CODE    A937H     0056H     UNIT         ?PR?_WR_EEPROM?EEPROM
            CODE    A98DH     004EH     UNIT         ?PR?RELOJ_PANTALLA_LCD?PANTALLAS
            CODE    A9DBH     004DH     UNIT         ?PR?VARIABLE_INICIO?MAIN
            CODE    AA28H     004DH     UNIT         ?PR?L_D_M?EEPROM
            CODE    AA75H     004CH     UNIT         ?PR?LEE_NO_TICKET?EEPROM
            CODE    AAC1H     004BH     UNIT         ?PR?_TX_AUX?TIBBO
            CODE    AB0CH     0049H     UNIT         ?PR?_DEBUG_TXT_TIBBO?TIBBO
            CODE    AB55H     0048H     UNIT         ?PR?FIRST_CLAVE?PROG
            CODE    AB9DH     0047H     UNIT         ?PR?_DEBUG_CHR_TIBBO?TIBBO
            CODE    ABE4H     0047H     UNIT         ?PR?_RESPONDE_WRITE_TARJETA_SECTOR2_BLOQUE0?VERIFICADOR
            CODE    AC2BH     0046H     UNIT         ?PR?_ESCRIBIRCADENASOFT_BUFFER?MAIN
            CODE    AC71H     0046H     UNIT         ?PR?_LCD_TXT_NUM_CHAR?PANTALLAS
            CODE    ACB7H     0046H     UNIT         ?PR?_DEBUG_HEXDEC?TIBBO
            CODE    ACFDH     0044H     UNIT         ?PR?_LCD_TXT?PANTALLAS
            CODE    AD41H     0043H     UNIT         ?PR?DIR_BOARD?IO_SENSORES
            CODE    AD84H     0042H     UNIT         ?PR?_VALIDARCLAVE?PROG
            CODE    ADC6H     0041H     UNIT         ?PR?_MONITOR_CHR?ACCESCAN
            CODE    AE07H     0041H     UNIT         ?PR?_TWO_ONE?CLOCK
            CODE    AE48H     0040H     UNIT         ?PR?_GETCMD?PROG
            CODE    AE88H     003FH     UNIT         ?PR?_EB_CLK?CLOCK
            CODE    AEC7H     003EH     UNIT         ?PR?_PUTCHAR?MAIN
            CODE    AF05H     003DH     UNIT         ?PR?_HEX_BCD?CLOCK
            CODE    AF42H     003DH     UNIT         ?PR?_RD_EEPROM?EEPROM
            CODE    AF7FH     003DH     UNIT         ?PR?_LOAD_SECUENCIA_EXPEDIDOR?VERIFICADOR
            CODE    AFBCH     003CH     UNIT         ?PR?_INIT_MEMPOOL?INIT_MEM
            CODE    AFF8H     003BH     UNIT         ?CO?EEPROM
            CODE    B033H     003BH     UNIT         ?PR?_DEBUG_PTO_PARALELO?TIBBO
            CODE    B06EH     003BH     UNIT         ?PR?_COM_PUTCHAR?UART
            CODE    B0A9H     003AH     UNIT         ?PR?_DELAY_10MS?DELAY
            CODE    B0E3H     0038H     UNIT         ?PR?VALIDASENSORESPASO?IO_SENSORES
            CODE    B11BH     0036H     UNIT         ?PR?_RESPONDE_WRITE_TARJETA_SECTOR1_BLOQUE1?VERIFICADOR
            CODE    B151H     0036H     UNIT         ?PR?_RESPONDE_WRITE_TARJETA_SECTOR1_BLOQUE0?VERIFICADOR
            CODE    B187H     0034H     UNIT         ?PR?INCREMENTE_TICKET?EEPROM
            CODE    B1BBH     0034H     UNIT         ?PR?ADDR_HORARIOS?PROG
            CODE    B1EFH     0033H     UNIT         ?PR?TRAMA_VALIDACION_P_N?VERIFICADOR
            CODE    B222H     0032H     UNIT         ?PR?_DEBUG_MONITOR?TIBBO
            CODE    B254H     0031H     UNIT         ?PR?_TARJETA_ROTACION?VERIFICADOR
            CODE    B285H     002EH     UNIT         ?PR?TIMER0_INT?MAIN
BL51 BANKED LINKER/LOCATER V6.22.2.0                                                  11/04/2020  14:53:46  PAGE 6


            CODE    B2B3H     002CH     UNIT         ?PR?LOAD_AND_SEND_INFO_RELOJ?PTO_PARALELO
            CODE    B2DFH     002AH     UNIT         ?PR?COM_INITIALIZE?UART
            CODE    B309H     0028H     UNIT         ?PR?_WR_CLK?CLOCK
            CODE    B331H     0028H     UNIT         ?PR?COM_BAUDRATE?UART
            CODE    B359H     0028H     UNIT         ?PR?_ARMAR_TRAMA_TARJETA_SECTOR1_BLOQUE0?VERIFICADOR
            CODE    B381H     0027H     UNIT         ?PR?_TX_CHRLCD?PANTALLAS
            CODE    B3A8H     0026H     UNIT         ?PR?COM_GETCHAR?UART
            CODE    B3CEH     0026H     UNIT         ?PR?ANALIZA_PRESENCIA_MENSUAL?VERIFICADOR
            CODE    B3F4H     0026H     UNIT         ?PR?RX_MONITOR?MONITOR
            CODE    B41AH     0023H     UNIT         ?PR?ANALIZA_PRESENCIA_ROTACION?VERIFICADOR
            CODE    B43DH     0022H     UNIT         ?PR?_E_D_M?EEPROM
            CODE    B45FH     0020H     UNIT         ?PR?ACKD?EEPROM
            CODE    B47FH     0020H     UNIT         ?PR?ACK_LECT?EEPROM
            CODE    B49FH     001FH     UNIT         ?PR?VALIDASENSOR?IO_SENSORES
            CODE    B4BEH     001FH     UNIT         ?PR?TIME_BIT?TIBBO
            CODE    B4DDH     001EH     UNIT         ?PR?_BCD_HEX?CLOCK
            CODE    B4FBH     001BH     UNIT         ?PR?_DELAY_1MS?DELAY
            CODE    B516H     0018H     UNIT         ?PR?CLEAR_PLACA?MONITOR
            CODE    B52EH     0017H     UNIT         ?PR?DISPLAYCURSOR?PROG
            CODE    B545H     0017H     UNIT         ?PR?TIME_MBIT?TIBBO
            CODE    B55CH     0016H     UNIT         ?PR?DIR_BOARD_MONITOR?IO_SENSORES
            CODE    B572H     0014H     UNIT         ?PR?DEBUG_DIVIDIR_TEXTO?TIBBO
            CODE    B586H     0014H     UNIT         ?PR?_ISSPACE?ISSPACE
            CODE    B59AH     0012H     UNIT         ?PR?_DELAY_20US?DELAY
            CODE    B5ACH     0012H     UNIT         ?PR?START?EEPROM
            CODE    B5BEH     0012H     UNIT         ?PR?PULSO_BUS?PTO_PARALELO
            CODE    B5D0H     0012H     UNIT         ?PR?COM_RBUFLEN?UART
            CODE    B5E2H     0012H     UNIT         ?PR?COM_TBUFLEN?UART
            CODE    B5F4H     0010H     UNIT         ?PR?INI_TIMER?MAIN
            CODE    B604H     0010H     UNIT         ?PR?INICIA_BOARD?MAIN
            CODE    B614H     000FH     UNIT         ?PR?_ISDIGIT?ISDIGIT
            CODE    B623H     000CH     UNIT         ?PR?_GETKEY?MAIN
            CODE    B62FH     000AH     UNIT         ?PR?COND_INI_PTO?PTO_PARALELO
            CODE    B639H     0009H     UNIT         ?PR?STOP?EEPROM
            CODE    B642H     0009H     UNIT         ?PR?CAPTURA_EXPULSA?VERIFICADOR
            CODE    B64BH     0007H     UNIT         ?PR?COND_INI_CLOCK?CLOCK
            CODE    B652H     0007H     UNIT         ?PR?SEL_FUNCION?IO_SENSORES
            CODE    B659H     0007H     UNIT         ?PR?SEL_AUTO?IO_SENSORES
            CODE    B660H     0007H     UNIT         ?PR?SEL_PULSA?IO_SENSORES
            CODE    B667H     0007H     UNIT         ?PR?SEL_SENSOR2?IO_SENSORES
            CODE    B66EH     0007H     UNIT         ?PR?SEL_SENSOR1?IO_SENSORES
            CODE    B675H     0007H     UNIT         ?PR?SEL_DIR1?IO_SENSORES
            CODE    B67CH     0007H     UNIT         ?PR?SEL_DIR2?IO_SENSORES
            CODE    B683H     0006H     UNIT         ?PR?P_ME?EEPROM
            CODE    B689H     0005H     UNIT         ?PR?ON_TIMER0_INTERRUP?MAIN
            CODE    B68EH     0005H     UNIT         ?CO?ACCESCAN
            CODE    B693H     0005H     UNIT         ?PR?COND_INI_TIBBO?TIBBO
            CODE    B698H     0003H     UNIT         ?PR?OFF_TIMER0_INTERRUP?MAIN
            CODE    B69BH     0003H     UNIT         ?CO?PTO_PARALELO
            CODE    B69EH     0001H     UNIT         ?PR?DELAY?DELAY



OVERLAY MAP OF MODULE:   .\Objects\expedidor_v_01_raspberry (MAIN)


SEGMENT                                             BIT_GROUP          DATA_GROUP          XDATA_GROUP
BL51 BANKED LINKER/LOCATER V6.22.2.0                                                  11/04/2020  14:53:46  PAGE 7


  +--> CALLED SEGMENT                            START    LENGTH     START    LENGTH     START    LENGTH
--------------------------------------------------------------------------------------------------------
?C_C51STARTUP                                    -----    -----      -----    -----      -----    -----
  +--> ?PR?MAIN?MAIN
  +--> ?C_INITSEG

?PR?MAIN?MAIN                                    -----    -----      -----    -----      0000H    0001H
  +--> ?PR?INI_TIMER?MAIN
  +--> ?PR?ON_TIMER0_INTERRUP?MAIN
  +--> ?PR?COM_INITIALIZE?UART
  +--> ?PR?COM_BAUDRATE?UART
  +--> ?PR?INICIA_BOARD?MAIN
  +--> ?PR?TIME_BIT?TIBBO
  +--> ?PR?_DELAY_20US?DELAY
  +--> ?PR?TIME_MBIT?TIBBO
  +--> ?PR?_TX_AUX?TIBBO
  +--> ?PR?SEL_FUNCION?IO_SENSORES
  +--> ?PR?MENU?PROG
  +--> ?PR?VARIABLE_INICIO?MAIN
  +--> ?PR?SECUENCIA_INICIO_EXPEDIDOR?VERIFI...
  +--> ?PR?RX_MONITOR?MONITOR
  +--> ?PR?_SECUENCIAEXPEDIDORMF?VERIFICADOR
  +--> ?PR?_RECIBE_PORT?PTO_PARALELO
  +--> ?PR?_DEBUG_PTO_PARALELO?TIBBO
  +--> ?PR?_VALIDA_TRAMA_PTO?ACCESCAN
  +--> ?PR?MSJ_LCD_INFORMATIVO?IO_SENSORES

?PR?COM_INITIALIZE?UART                          -----    -----      -----    -----      -----    -----
  +--> ?PR?COM_BAUDRATE?UART

?PR?INICIA_BOARD?MAIN                            -----    -----      -----    -----      -----    -----
  +--> ?PR?COND_INI_TIBBO?TIBBO
  +--> ?PR?COND_INI_CLOCK?CLOCK
  +--> ?PR?COND_INI_PTO?PTO_PARALELO

?PR?_TX_AUX?TIBBO                                -----    -----      -----    -----      -----    -----
  +--> ?PR?TIME_BIT?TIBBO

?PR?MENU?PROG                                    -----    -----      -----    -----      0001H    0045H
  +--> ?CO?PROG
  +--> ?PR?PRINTF?PRINTF
  +--> ?PR?_RD_EEPROM?EEPROM
  +--> ?PR?FIRST_CLAVE?PROG
  +--> ?PR?_WR_EEPROM?EEPROM
  +--> ?PR?_LEERMEMORIA?EEPROM
  +--> ?PR?_HASH_ID?PROG
  +--> ?PR?_INGRESADATO?PROG
  +--> ?PR?_GETCMD?PROG
  +--> ?PR?_ESCRIBIRMEMORIA?EEPROM
  +--> ?PR?_VALIDARCLAVE?PROG
  +--> ?PR?DISPLAYCURSOR?PROG
  +--> ?PR?_STRLEN?STRLEN
  +--> ?PR?_GETOPTION?PROG
  +--> ?PR?_STRCAT?STRCAT
  +--> ?PR?_LISTACOMANDOS?PROG
  +--> ?PR?PROG_ID_CLIENTE?PROG
  +--> ?PR?PROG_COD_PARK?PROG
BL51 BANKED LINKER/LOCATER V6.22.2.0                                                  11/04/2020  14:53:46  PAGE 8


  +--> ?PR?PROG_TIEMPO_GRACIA?PROG
  +--> ?PR?PROG_SIN_COBRO?PROG
  +--> ?PR?PROG_DEBUG?PROG
  +--> ?PR?PROG_USE_LPR?PROG
  +--> ?PR?TIPO_PANTALLA?PROG
  +--> ?PR?PROG_TARJETA_AUTOMATICA_O_BOTON?PROG
  +--> ?PR?PROG_ANTIPASSBACK?PROG
  +--> ?PR?PROG_PLACA?PROG
  +--> ?PR?PROG_ADDRESS_HIGH_BOARD?PROG
  +--> ?PR?PROG_HORARIOS?PROG
  +--> ?PR?PROG_VALIDAR_TIPO_VEHICULO_MENSUA...
  +--> ?PR?PROG_APB_MENSUAL?PROG
  +--> ?PR?VER_PROG?PROG
  +--> ?PR?SHOW?PROG
  +--> ?PR?PROG_FECHA_VENCIMIENTO?PROG

?PR?PRINTF?PRINTF                                0020H.0  0001H.1    0008H    0005H      0077H    0030H
  +--> ?PR?_PUTCHAR?MAIN

?PR?_PUTCHAR?MAIN                                -----    -----      -----    -----      00A7H    0003H
  +--> ?PR?_COM_PUTCHAR?UART

?PR?_COM_PUTCHAR?UART                            -----    -----      -----    -----      00AAH    0001H
  +--> ?PR?COM_TBUFLEN?UART

?PR?_RD_EEPROM?EEPROM                            -----    -----      -----    -----      -----    -----
  +--> ?PR?START?EEPROM
  +--> ?PR?ACK_LECT?EEPROM
  +--> ?PR?_E_D_M?EEPROM
  +--> ?PR?ACKD?EEPROM
  +--> ?PR?L_D_M?EEPROM
  +--> ?PR?STOP?EEPROM

?PR?ACK_LECT?EEPROM                              -----    -----      -----    -----      -----    -----
  +--> ?PR?_E_D_M?EEPROM

?PR?_E_D_M?EEPROM                                -----    -----      -----    -----      -----    -----
  +--> ?PR?P_ME?EEPROM

?PR?ACKD?EEPROM                                  -----    -----      -----    -----      -----    -----
  +--> ?PR?_E_D_M?EEPROM

?PR?FIRST_CLAVE?PROG                             -----    -----      -----    -----      0046H    000BH
  +--> ?PR?_BLOCK_READ_CLOCK_ASCII?CLOCK
  +--> ?PR?_HASH_ID?PROG
  +--> ?PR?_ESCRIBIRMEMORIA?EEPROM

?PR?_BLOCK_READ_CLOCK_ASCII?CLOCK                -----    -----      -----    -----      0051H    0003H
  +--> ?PR?_LEE_CLK?CLOCK

?PR?_LEE_CLK?CLOCK                               -----    -----      -----    -----      00B1H    0003H
  +--> ?PR?_DELAY_20US?DELAY
  +--> ?PR?_EB_CLK?CLOCK
  +--> ?PR?P_CK?CLOCK

?PR?_EB_CLK?CLOCK                                -----    -----      -----    -----      00B4H    0003H
  +--> ?PR?P_CK?CLOCK
BL51 BANKED LINKER/LOCATER V6.22.2.0                                                  11/04/2020  14:53:46  PAGE 9



?PR?P_CK?CLOCK                                   -----    -----      -----    -----      -----    -----
  +--> ?PR?DELAY?DELAY

?PR?_HASH_ID?PROG                                -----    -----      -----    -----      005DH    003FH
  +--> ?CO?PROG
  +--> ?PR?_LEERMEMORIA?EEPROM
  +--> ?PR?_CHECK_FECHAOUT?CLOCK
  +--> ?PR?_STRLEN?STRLEN

?PR?_LEERMEMORIA?EEPROM                          -----    -----      -----    -----      009CH    0005H
  +--> ?PR?_RD_EEPROM?EEPROM

?PR?_CHECK_FECHAOUT?CLOCK                        -----    -----      -----    -----      009CH    0012H
  +--> ?PR?_BLOCK_READ_CLOCK_HEX?CLOCK

?PR?_BLOCK_READ_CLOCK_HEX?CLOCK                  -----    -----      -----    -----      00AEH    0003H
  +--> ?PR?_LEE_CLK?CLOCK
  +--> ?PR?_BCD_HEX?CLOCK

?PR?_ESCRIBIRMEMORIA?EEPROM                      -----    -----      -----    -----      005DH    0005H
  +--> ?PR?_WR_EEPROM?EEPROM

?PR?_WR_EEPROM?EEPROM                            -----    -----      -----    -----      -----    -----
  +--> ?PR?START?EEPROM
  +--> ?PR?ACKD?EEPROM
  +--> ?PR?_E_D_M?EEPROM
  +--> ?PR?STOP?EEPROM
  +--> ?PR?_DELAY_1MS?DELAY
  +--> ?PR?_DELAY_20US?DELAY

?PR?_DELAY_1MS?DELAY                             -----    -----      -----    -----      -----    -----
  +--> ?PR?_DELAY_20US?DELAY

?PR?_INGRESADATO?PROG                            -----    -----      -----    -----      0071H    0004H
  +--> ?PR?_GETKEY?MAIN
  +--> ?CO?PROG
  +--> ?PR?PRINTF?PRINTF
  +--> ?PR?_PUTCHAR?MAIN

?PR?_GETKEY?MAIN                                 -----    -----      -----    -----      -----    -----
  +--> ?PR?COM_GETCHAR?UART

?PR?COM_GETCHAR?UART                             -----    -----      -----    -----      -----    -----
  +--> ?PR?COM_RBUFLEN?UART

?PR?_GETCMD?PROG                                 -----    -----      -----    -----      005DH    0007H
  +--> ?CO?PROG
  +--> ?PR?_STRTOK?STRTOK

?PR?_STRTOK?STRTOK                               -----    -----      -----    -----      0064H    0006H
  +--> ?PR?_STRSPN?STRSPN
  +--> ?PR?_STRPBRK?STRPBRK

?PR?_STRSPN?STRSPN                               -----    -----      -----    -----      006AH    0008H

?PR?_STRPBRK?STRPBRK                             -----    -----      -----    -----      006AH    0009H
BL51 BANKED LINKER/LOCATER V6.22.2.0                                                  11/04/2020  14:53:46  PAGE 10



?PR?_VALIDARCLAVE?PROG                           -----    -----      -----    -----      005DH    000EH

?PR?DISPLAYCURSOR?PROG                           -----    -----      -----    -----      -----    -----
  +--> ?CO?PROG
  +--> ?PR?PRINTF?PRINTF

?PR?_GETOPTION?PROG                              -----    -----      -----    -----      0046H    000BH
  +--> ?CO?PROG
  +--> ?PR?_STRTOK?STRTOK

?PR?_STRCAT?STRCAT                               -----    -----      -----    -----      0046H    0009H

?PR?_LISTACOMANDOS?PROG                          -----    -----      -----    -----      0046H    0007H

?PR?PROG_ID_CLIENTE?PROG                         -----    -----      -----    -----      0046H    000CH
  +--> ?PR?_RD_EEPROM?EEPROM
  +--> ?CO?PROG
  +--> ?PR?PRINTF?PRINTF
  +--> ?PR?_INGRESADATO?PROG
  +--> ?PR?_ATOI?ATOI
  +--> ?PR?_WR_EEPROM?EEPROM

?PR?_ATOI?ATOI                                   0020H.0  0000H.1    -----    -----      0071H    0005H
  +--> ?PR?_ISSPACE?ISSPACE
  +--> ?PR?_ISDIGIT?ISDIGIT

?PR?PROG_COD_PARK?PROG                           -----    -----      -----    -----      0046H    000CH
  +--> ?PR?_RD_EEPROM?EEPROM
  +--> ?CO?PROG
  +--> ?PR?PRINTF?PRINTF
  +--> ?PR?_INGRESADATO?PROG
  +--> ?PR?_ATOI?ATOI
  +--> ?PR?_WR_EEPROM?EEPROM

?PR?PROG_TIEMPO_GRACIA?PROG                      -----    -----      -----    -----      0046H    000CH
  +--> ?PR?_RD_EEPROM?EEPROM
  +--> ?CO?PROG
  +--> ?PR?PRINTF?PRINTF
  +--> ?PR?_INGRESADATO?PROG
  +--> ?PR?_ATOI?ATOI
  +--> ?PR?_WR_EEPROM?EEPROM

?PR?PROG_SIN_COBRO?PROG                          -----    -----      -----    -----      0046H    000CH
  +--> ?PR?_RD_EEPROM?EEPROM
  +--> ?CO?PROG
  +--> ?PR?PRINTF?PRINTF
  +--> ?PR?_INGRESADATO?PROG
  +--> ?PR?_ATOI?ATOI
  +--> ?PR?_WR_EEPROM?EEPROM

?PR?PROG_DEBUG?PROG                              -----    -----      -----    -----      0046H    000CH
  +--> ?PR?_RD_EEPROM?EEPROM
  +--> ?CO?PROG
  +--> ?PR?PRINTF?PRINTF
  +--> ?PR?_INGRESADATO?PROG
  +--> ?PR?_ATOI?ATOI
BL51 BANKED LINKER/LOCATER V6.22.2.0                                                  11/04/2020  14:53:46  PAGE 11


  +--> ?PR?_WR_EEPROM?EEPROM

?PR?PROG_USE_LPR?PROG                            -----    -----      -----    -----      0046H    000CH
  +--> ?PR?_RD_EEPROM?EEPROM
  +--> ?CO?PROG
  +--> ?PR?PRINTF?PRINTF
  +--> ?PR?_INGRESADATO?PROG
  +--> ?PR?_ATOI?ATOI
  +--> ?PR?_WR_EEPROM?EEPROM

?PR?TIPO_PANTALLA?PROG                           -----    -----      -----    -----      0046H    000CH
  +--> ?PR?_RD_EEPROM?EEPROM
  +--> ?CO?PROG
  +--> ?PR?PRINTF?PRINTF
  +--> ?PR?_INGRESADATO?PROG
  +--> ?PR?_ATOI?ATOI
  +--> ?PR?_WR_EEPROM?EEPROM

?PR?PROG_TARJETA_AUTOMATICA_O_BOTON?PROG         -----    -----      -----    -----      0046H    000CH
  +--> ?PR?_RD_EEPROM?EEPROM
  +--> ?CO?PROG
  +--> ?PR?PRINTF?PRINTF
  +--> ?PR?_INGRESADATO?PROG
  +--> ?PR?_ATOI?ATOI
  +--> ?PR?_WR_EEPROM?EEPROM

?PR?PROG_ANTIPASSBACK?PROG                       -----    -----      -----    -----      0046H    000CH
  +--> ?PR?_RD_EEPROM?EEPROM
  +--> ?CO?PROG
  +--> ?PR?PRINTF?PRINTF
  +--> ?PR?_INGRESADATO?PROG
  +--> ?PR?_ATOI?ATOI
  +--> ?PR?_WR_EEPROM?EEPROM

?PR?PROG_PLACA?PROG                              -----    -----      -----    -----      0046H    000CH
  +--> ?PR?_RD_EEPROM?EEPROM
  +--> ?CO?PROG
  +--> ?PR?PRINTF?PRINTF
  +--> ?PR?_INGRESADATO?PROG
  +--> ?PR?_ATOI?ATOI
  +--> ?PR?_WR_EEPROM?EEPROM

?PR?PROG_ADDRESS_HIGH_BOARD?PROG                 -----    -----      -----    -----      0046H    000CH
  +--> ?PR?_RD_EEPROM?EEPROM
  +--> ?CO?PROG
  +--> ?PR?PRINTF?PRINTF
  +--> ?PR?_INGRESADATO?PROG
  +--> ?PR?_ATOI?ATOI
  +--> ?PR?_WR_EEPROM?EEPROM

?PR?PROG_HORARIOS?PROG                           -----    -----      -----    -----      0046H    001BH
  +--> ?PR?ADDR_HORARIOS?PROG
  +--> ?CO?PROG
  +--> ?PR?PRINTF?PRINTF
  +--> ?PR?_INGRESADATO?PROG
  +--> ?PR?_ATOI?ATOI
  +--> ?PR?_PROG_HORARIOS_ON_OFF?PROG
BL51 BANKED LINKER/LOCATER V6.22.2.0                                                  11/04/2020  14:53:46  PAGE 12


  +--> ?PR?_WR_EEPROM?EEPROM
  +--> ?PR?_PROG_HORARIO_DIAS?PROG
  +--> ?PR?_PROG_HORARIO_DESDE_HASTA?PROG
  +--> ?PR?_RD_EEPROM?EEPROM

?PR?ADDR_HORARIOS?PROG                           -----    -----      -----    -----      0074H    000BH

?PR?_PROG_HORARIOS_ON_OFF?PROG                   -----    -----      -----    -----      0061H    0010H
  +--> ?PR?_RD_EEPROM?EEPROM
  +--> ?CO?PROG
  +--> ?PR?PRINTF?PRINTF
  +--> ?PR?_INGRESADATO?PROG
  +--> ?PR?_ATOI?ATOI
  +--> ?PR?_WR_EEPROM?EEPROM

?PR?_PROG_HORARIO_DIAS?PROG                      -----    -----      -----    -----      0061H    000FH
  +--> ?CO?PROG
  +--> ?PR?PRINTF?PRINTF
  +--> ?PR?_INGRESADATO?PROG
  +--> ?PR?_WR_EEPROM?EEPROM
  +--> ?PR?_RD_EEPROM?EEPROM

?PR?_PROG_HORARIO_DESDE_HASTA?PROG               -----    -----      -----    -----      0061H    000CH
  +--> ?CO?PROG
  +--> ?PR?PRINTF?PRINTF
  +--> ?PR?_INGRESADATO?PROG
  +--> ?PR?_WR_EEPROM?EEPROM
  +--> ?PR?_RD_EEPROM?EEPROM

?PR?PROG_VALIDAR_TIPO_VEHICULO_MENSUA...         -----    -----      -----    -----      0046H    000CH
  +--> ?PR?_RD_EEPROM?EEPROM
  +--> ?CO?PROG
  +--> ?PR?PRINTF?PRINTF
  +--> ?PR?_INGRESADATO?PROG
  +--> ?PR?_ATOI?ATOI
  +--> ?PR?_WR_EEPROM?EEPROM

?PR?PROG_APB_MENSUAL?PROG                        -----    -----      -----    -----      0046H    000CH
  +--> ?PR?_RD_EEPROM?EEPROM
  +--> ?CO?PROG
  +--> ?PR?PRINTF?PRINTF
  +--> ?PR?_INGRESADATO?PROG
  +--> ?PR?_ATOI?ATOI
  +--> ?PR?_WR_EEPROM?EEPROM

?PR?VER_PROG?PROG                                -----    -----      -----    -----      0046H    0013H
  +--> ?PR?_RD_EEPROM?EEPROM
  +--> ?CO?PROG
  +--> ?PR?PRINTF?PRINTF
  +--> ?PR?VER_HORARIO?PROG
  +--> ?PR?_LEERMEMORIA?EEPROM
  +--> ?PR?_HEX_ASCII?CLOCK

?PR?VER_HORARIO?PROG                             -----    -----      -----    -----      0059H    001BH
  +--> ?PR?ADDR_HORARIOS?PROG
  +--> ?CO?PROG
  +--> ?PR?PRINTF?PRINTF
BL51 BANKED LINKER/LOCATER V6.22.2.0                                                  11/04/2020  14:53:46  PAGE 13


  +--> ?PR?_RD_EEPROM?EEPROM
  +--> ?PR?_VER_HORARIO_DIAS?PROG
  +--> ?PR?_VER_HORARIO_DESDE_HASTA?PROG

?PR?_VER_HORARIO_DIAS?PROG                       -----    -----      -----    -----      0074H    0003H
  +--> ?PR?_RD_EEPROM?EEPROM
  +--> ?CO?PROG
  +--> ?PR?PRINTF?PRINTF

?PR?_VER_HORARIO_DESDE_HASTA?PROG                -----    -----      -----    -----      0074H    0002H
  +--> ?CO?PROG
  +--> ?PR?PRINTF?PRINTF
  +--> ?PR?_RD_EEPROM?EEPROM

?PR?_HEX_ASCII?CLOCK                             -----    -----      -----    -----      005DH    0006H
  +--> ?PR?_HEX_BCD?CLOCK

?PR?SHOW?PROG                                    -----    -----      -----    -----      -----    -----
  +--> ?CO?PROG
  +--> ?PR?PRINTF?PRINTF

?PR?PROG_FECHA_VENCIMIENTO?PROG                  -----    -----      -----    -----      0046H    0017H
  +--> ?PR?_LEERMEMORIA?EEPROM
  +--> ?PR?_HEX_ASCII?CLOCK
  +--> ?CO?PROG
  +--> ?PR?PRINTF?PRINTF
  +--> ?PR?_HASH_ID?PROG
  +--> ?PR?_INGRESADATO?PROG
  +--> ?PR?_GETCMD?PROG
  +--> ?PR?_ESCRIBIRMEMORIA?EEPROM
  +--> ?PR?_VALIDARCLAVE?PROG
  +--> ?PR?_ATOI?ATOI
  +--> ?PR?_WR_EEPROM?EEPROM

?PR?VARIABLE_INICIO?MAIN                         -----    -----      -----    -----      -----    -----
  +--> ?PR?_RD_EEPROM?EEPROM

?PR?SECUENCIA_INICIO_EXPEDIDOR?VERIFI...         -----    -----      -----    -----      0001H    0001H
  +--> ?PR?_INICIALIZA?LINTECH
  +--> ?PR?TRAMA_VALIDACION_P_N?VERIFICADOR
  +--> ?CO?VERIFICADOR
  +--> ?PR?_DEBUG_TXT_TIBBO?TIBBO
  +--> ?PR?_DEBUGBUFFERMF?TIBBO
  +--> ?PR?DWLOAD_EEPROM?LINTECH

?PR?_INICIALIZA?LINTECH                          -----    -----      -----    -----      0002H    000CH
  +--> ?CO?LINTECH
  +--> ?PR?_DEBUG_TXT_TIBBO?TIBBO
  +--> ?PR?_DEBUGBUFFERMF?TIBBO
  +--> ?PR?_ESCRIBIRCADENASOFT_BUFFER?MAIN

?PR?_DEBUG_TXT_TIBBO?TIBBO                       -----    -----      -----    -----      0037H    0004H
  +--> ?PR?_DEBUG_CHR_TIBBO?TIBBO
  +--> ?CO?TIBBO
  +--> ?PR?_TX_AUX?TIBBO

?PR?_DEBUG_CHR_TIBBO?TIBBO                       -----    -----      -----    -----      -----    -----
BL51 BANKED LINKER/LOCATER V6.22.2.0                                                  11/04/2020  14:53:46  PAGE 14


  +--> ?PR?_TX_AUX?TIBBO

?PR?_DEBUGBUFFERMF?TIBBO                         -----    -----      -----    -----      0027H    0006H
  +--> ?CO?TIBBO
  +--> ?PR?_DEBUG_TXT_TIBBO?TIBBO
  +--> ?PR?_DEBUG_CHR_TIBBO?TIBBO
  +--> ?PR?_TX_AUX?TIBBO

?PR?_ESCRIBIRCADENASOFT_BUFFER?MAIN              -----    -----      -----    -----      0027H    0006H
  +--> ?PR?_PUTCHAR?MAIN

?PR?TRAMA_VALIDACION_P_N?VERIFICADOR             -----    -----      -----    -----      -----    -----
  +--> ?CO?VERIFICADOR
  +--> ?PR?_DEBUG_TXT_TIBBO?TIBBO

?PR?DWLOAD_EEPROM?LINTECH                        -----    -----      -----    -----      0002H    0016H
  +--> ?CO?LINTECH
  +--> ?PR?_DEBUG_TXT_TIBBO?TIBBO
  +--> ?PR?_DEBUGBUFFERMF?TIBBO
  +--> ?PR?_ESCRIBIRCADENASOFT_BUFFER?MAIN

?PR?RX_MONITOR?MONITOR                           -----    -----      -----    -----      0009H    000DH
  +--> ?PR?_RECIBE_CMD_MONITOR?MONITOR
  +--> ?PR?_DEBUG_MONITOR?TIBBO
  +--> ?PR?_VALIDA_TRAMA_MONITOR?MONITOR

?PR?_RECIBE_CMD_MONITOR?MONITOR                  -----    -----      -----    -----      0016H    0009H
  +--> ?PR?RX_DATA?TIBBO

?PR?RX_DATA?TIBBO                                -----    -----      -----    -----      -----    -----
  +--> ?PR?TIME_MBIT?TIBBO
  +--> ?PR?TIME_BIT?TIBBO

?PR?_DEBUG_MONITOR?TIBBO                         -----    -----      -----    -----      0016H    0004H
  +--> ?PR?DEBUG_DIVIDIR_TEXTO?TIBBO
  +--> ?CO?TIBBO
  +--> ?PR?_DEBUG_TXT_TIBBO?TIBBO

?PR?DEBUG_DIVIDIR_TEXTO?TIBBO                    -----    -----      -----    -----      -----    -----
  +--> ?CO?TIBBO
  +--> ?PR?_DEBUG_TXT_TIBBO?TIBBO

?PR?_VALIDA_TRAMA_MONITOR?MONITOR                -----    -----      -----    -----      0016H    0003H

?PR?_SECUENCIAEXPEDIDORMF?VERIFICADOR            -----    -----      -----    -----      0001H    0001H
  +--> ?PR?_CHECK_STATUS?LINTECH
  +--> ?PR?_LOAD_SECUENCIA_EXPEDIDOR?VERIFIC...
  +--> ?PR?_RTA_CMD_TRANSPORTE?VERIFICADOR
  +--> ?PR?_MOV_CARD?LINTECH
  +--> ?PR?_CARD_INSERCION?LINTECH
  +--> ?PR?AUT_CARD_CHECK_STATUS?LINTECH
  +--> ?PR?LOADVERIFY_EEPROM?LINTECH
  +--> ?PR?_RD_MF?LINTECH
  +--> ?PR?_WR_MF?LINTECH
  +--> ?PR?DWLOAD_EEPROM?LINTECH
  +--> ?PR?ENTREGA_CARD_CAPTURA?VERIFICADOR
  +--> ?PR?_SEND_PTO_PARALELO?VERIFICADOR
BL51 BANKED LINKER/LOCATER V6.22.2.0                                                  11/04/2020  14:53:46  PAGE 15


  +--> ?PR?_WAIT_PLACA?VERIFICADOR
  +--> ?PR?UNIQUE_IDENTIFIER_UID?LINTECH
  +--> ?PR?_PREGUNTA_LPR?VERIFICADOR
  +--> ?PR?_VALIDA_TIPO_TARJETA?VERIFICADOR
  +--> ?PR?POWER_OFF?LINTECH
  +--> ?PR?CLAVE_SEGURIDAD_S2?LINTECH
  +--> ?PR?RESPONDE_ESTADO_SENSORES_TRANSPOR...
  +--> ?PR?RESPONDE_TIPO_TARJETA?VERIFICADOR
  +--> ?PR?_RESPONDE_LECTURA_TARJETA_SECTOR1...
  +--> ?PR?_RESPONDE_LECTURA_TARJETA_SECTOR1...
  +--> ?PR?_RESPONDE_LECTURA_TARJETA_SECTOR1...
  +--> ?PR?_RESPONDE_WRITE_TARJETA_SECTOR1_B...
  +--> ?PR?_RESPONDE_WRITE_TARJETA_SECTOR2_B...
  +--> ?PR?_RESPONDE_WRITE_TARJETA_SECTOR1_B...
  +--> ?PR?_RESPONDE_WRITE_TARJETA_SECTOR1_B...
  +--> ?PR?_DISPARO_LOCK_ENTRADA_VEHICULO?VE...
  +--> ?PR?_RESPUESTA_SEGUNDA_CLAVE?VERIFICADOR
  +--> ?PR?ANALIZA_PRESENCIA_MENSUAL?VERIFIC...
  +--> ?PR?_ANALIZA_UID_CARD?VERIFICADOR
  +--> ?PR?ANALIZA_PRESENCIA_ROTACION?VERIFI...
  +--> ?CO?VERIFICADOR
  +--> ?PR?_DEBUG_TXT_TIBBO?TIBBO

?PR?_CHECK_STATUS?LINTECH                        -----    -----      -----    -----      0002H    000BH
  +--> ?CO?LINTECH
  +--> ?PR?_DEBUG_TXT_TIBBO?TIBBO
  +--> ?PR?_DEBUGBUFFERMF?TIBBO
  +--> ?PR?_ESCRIBIRCADENASOFT_BUFFER?MAIN

?PR?_LOAD_SECUENCIA_EXPEDIDOR?VERIFIC...         -----    -----      -----    -----      0002H    0009H

?PR?_RTA_CMD_TRANSPORTE?VERIFICADOR              -----    -----      -----    -----      0002H    0005H
  +--> ?PR?TRAMA_VALIDACION_P_N?VERIFICADOR
  +--> ?CO?VERIFICADOR
  +--> ?PR?_DEBUG_TXT_TIBBO?TIBBO
  +--> ?PR?_DEBUGBUFFERMF?TIBBO
  +--> ?PR?ERROR_RX_PTO?VERIFICADOR

?PR?ERROR_RX_PTO?VERIFICADOR                     -----    -----      -----    -----      0007H    0001H
  +--> ?CO?VERIFICADOR
  +--> ?PR?_DEBUG_TXT_TIBBO?TIBBO
  +--> ?PR?_DEBUG_CHR_TIBBO?TIBBO
  +--> ?PR?_DELAY_10MS?DELAY

?PR?_DELAY_10MS?DELAY                            -----    -----      -----    -----      0008H    0004H
  +--> ?PR?_DELAY_1MS?DELAY

?PR?_MOV_CARD?LINTECH                            -----    -----      -----    -----      0002H    000CH
  +--> ?CO?LINTECH
  +--> ?PR?_DEBUG_TXT_TIBBO?TIBBO
  +--> ?PR?_DEBUGBUFFERMF?TIBBO
  +--> ?PR?_ESCRIBIRCADENASOFT_BUFFER?MAIN

?PR?_CARD_INSERCION?LINTECH                      -----    -----      -----    -----      0002H    000AH
  +--> ?CO?LINTECH
  +--> ?PR?_DEBUG_TXT_TIBBO?TIBBO
  +--> ?PR?_DEBUGBUFFERMF?TIBBO
BL51 BANKED LINKER/LOCATER V6.22.2.0                                                  11/04/2020  14:53:46  PAGE 16


  +--> ?PR?_ESCRIBIRCADENASOFT_BUFFER?MAIN

?PR?AUT_CARD_CHECK_STATUS?LINTECH                -----    -----      -----    -----      0002H    000BH
  +--> ?CO?LINTECH
  +--> ?PR?_DEBUG_TXT_TIBBO?TIBBO
  +--> ?PR?_DEBUGBUFFERMF?TIBBO
  +--> ?PR?_ESCRIBIRCADENASOFT_BUFFER?MAIN

?PR?LOADVERIFY_EEPROM?LINTECH                    -----    -----      -----    -----      0002H    0010H
  +--> ?CO?LINTECH
  +--> ?PR?_DEBUG_TXT_TIBBO?TIBBO
  +--> ?PR?_DEBUGBUFFERMF?TIBBO
  +--> ?PR?_ESCRIBIRCADENASOFT_BUFFER?MAIN

?PR?_RD_MF?LINTECH                               -----    -----      -----    -----      0002H    0012H
  +--> ?CO?LINTECH
  +--> ?PR?_DEBUG_TXT_TIBBO?TIBBO
  +--> ?PR?_DEBUG_CHR_TIBBO?TIBBO
  +--> ?PR?_DEBUGBUFFERMF?TIBBO
  +--> ?PR?_ESCRIBIRCADENASOFT_BUFFER?MAIN

?PR?_WR_MF?LINTECH                               -----    -----      -----    -----      0002H    0025H
  +--> ?CO?LINTECH
  +--> ?PR?_DEBUG_TXT_TIBBO?TIBBO
  +--> ?PR?_DEBUG_CHR_TIBBO?TIBBO
  +--> ?PR?_DEBUGBUFFERMF?TIBBO
  +--> ?PR?_ESCRIBIRCADENASOFT_BUFFER?MAIN

?PR?ENTREGA_CARD_CAPTURA?VERIFICADOR             -----    -----      -----    -----      0002H    0001H
  +--> ?CO?VERIFICADOR
  +--> ?PR?_DEBUG_TXT_TIBBO?TIBBO
  +--> ?PR?SEL_SENSOR2?IO_SENSORES
  +--> ?PR?VALIDASENSOR?IO_SENSORES
  +--> ?PR?VALIDA_SENSOR1_AUTO?IO_SENSORES

?PR?VALIDA_SENSOR1_AUTO?IO_SENSORES              -----    -----      -----    -----      0011H    0001H
  +--> ?PR?SEL_SENSOR1?IO_SENSORES
  +--> ?PR?SEL_AUTO?IO_SENSORES
  +--> ?CO?IO_SENSORES
  +--> ?PR?_DEBUG_TXT_TIBBO?TIBBO

?PR?_SEND_PTO_PARALELO?VERIFICADOR               -----    -----      -----    -----      0002H    0004H
  +--> ?PR?_ARMAR_TRAMA_PTO_PARALELO_EXPEDID...
  +--> ?PR?_ARMAR_TRAMA_PTO_PARALELO_EXPEDID...
  +--> ?PR?INCREMENTE_TICKET?EEPROM
  +--> ?PR?_SEND_PORT?PTO_PARALELO
  +--> ?CO?VERIFICADOR
  +--> ?PR?_DEBUG_TXT_TIBBO?TIBBO
  +--> ?PR?_DEBUGBUFFERMF?TIBBO
  +--> ?PR?CLEAR_PLACA?MONITOR

?PR?_ARMAR_TRAMA_PTO_PARALELO_EXPEDID...         -----    -----      -----    -----      0006H    0006H
  +--> ?PR?_BLOCK_READ_CLOCK_HEX?CLOCK
  +--> ?PR?_RD_EEPROM?EEPROM

?PR?_ARMAR_TRAMA_PTO_PARALELO_EXPEDID...         -----    -----      -----    -----      0006H    000FH
  +--> ?PR?LEE_NO_TICKET?EEPROM
BL51 BANKED LINKER/LOCATER V6.22.2.0                                                  11/04/2020  14:53:46  PAGE 17


  +--> ?PR?_STRCAT?STRCAT
  +--> ?PR?_STRLEN?STRLEN
  +--> ?PR?_BLOCK_READ_CLOCK_HEX?CLOCK
  +--> ?PR?_RD_EEPROM?EEPROM

?PR?LEE_NO_TICKET?EEPROM                         -----    -----      -----    -----      001DH    000BH
  +--> ?PR?READ_EEPROM_TICKET?EEPROM
  +--> ?CO?EEPROM
  +--> ?PR?PRINTF?PRINTF
  +--> ?PR?_STRLEN?STRLEN
  +--> ?PR?_DEBUG_TXT_TIBBO?TIBBO

?PR?READ_EEPROM_TICKET?EEPROM                    -----    -----      -----    -----      0028H    0007H
  +--> ?PR?_RD_EEPROM?EEPROM

?PR?INCREMENTE_TICKET?EEPROM                     -----    -----      -----    -----      0006H    000BH
  +--> ?PR?READ_EEPROM_TICKET?EEPROM
  +--> ?CO?EEPROM
  +--> ?PR?PRINTF?PRINTF
  +--> ?PR?_WRITE_EEPROM_TICKET?EEPROM

?PR?_WRITE_EEPROM_TICKET?EEPROM                  -----    -----      -----    -----      0015H    000BH
  +--> ?CO?EEPROM
  +--> ?PR?_DEBUG_TXT_TIBBO?TIBBO
  +--> ?PR?_ATOL?ATOL
  +--> ?PR?_DEBUG_CHR_TIBBO?TIBBO
  +--> ?PR?_WR_EEPROM?EEPROM

?PR?_ATOL?ATOL                                   0020H.0  0000H.1    -----    -----      0020H    0007H
  +--> ?PR?_ISSPACE?ISSPACE
  +--> ?PR?_ISDIGIT?ISDIGIT

?PR?_SEND_PORT?PTO_PARALELO                      -----    -----      -----    -----      0015H    000AH
  +--> ?PR?PULSO_BUS?PTO_PARALELO
  +--> ?PR?_DELAY_20US?DELAY

?PR?PULSO_BUS?PTO_PARALELO                       -----    -----      -----    -----      -----    -----
  +--> ?PR?_DELAY_20US?DELAY

?PR?_WAIT_PLACA?VERIFICADOR                      -----    -----      -----    -----      0002H    0007H
  +--> ?CO?VERIFICADOR
  +--> ?PR?_DEBUG_TXT_TIBBO?TIBBO
  +--> ?PR?RX_MONITOR?MONITOR
  +--> ?PR?_RESPUESTA_PLACA_CANCEL?VERIFICADOR

?PR?_RESPUESTA_PLACA_CANCEL?VERIFICADOR          -----    -----      -----    -----      0009H    000AH
  +--> ?CO?VERIFICADOR
  +--> ?PR?_DEBUG_TXT_TIBBO?TIBBO
  +--> ?PR?_ARMAR_TRAMA_TARJETA_SECTOR1_BLOQ...

?PR?_ARMAR_TRAMA_TARJETA_SECTOR1_BLOQ...         -----    -----      -----    -----      0013H    0004H
  +--> ?PR?CLEAR_PLACA?MONITOR
  +--> ?PR?_RD_EEPROM?EEPROM

?PR?UNIQUE_IDENTIFIER_UID?LINTECH                -----    -----      -----    -----      0002H    000BH
  +--> ?CO?LINTECH
  +--> ?PR?_DEBUG_TXT_TIBBO?TIBBO
BL51 BANKED LINKER/LOCATER V6.22.2.0                                                  11/04/2020  14:53:46  PAGE 18


  +--> ?PR?_DEBUGBUFFERMF?TIBBO
  +--> ?PR?_ESCRIBIRCADENASOFT_BUFFER?MAIN

?PR?_PREGUNTA_LPR?VERIFICADOR                    -----    -----      -----    -----      0002H    0004H
  +--> ?PR?_RD_EEPROM?EEPROM
  +--> ?PR?_ARMAR_TRAMA_MONITOR?VERIFICADOR
  +--> ?PR?_DEBUG_TXT_TIBBO?TIBBO

?PR?_ARMAR_TRAMA_MONITOR?VERIFICADOR             -----    -----      -----    -----      0006H    000FH
  +--> ?PR?DIR_BOARD_MONITOR?IO_SENSORES
  +--> ?PR?LEE_NO_TICKET?EEPROM
  +--> ?PR?_STRCAT?STRCAT
  +--> ?PR?_BYTEHEX_DECIMAL?CLOCK
  +--> ?PR?_STRLEN?STRLEN
  +--> ?PR?_TWO_BYTEHEX_DECIMAL?CLOCK
  +--> ?PR?_BLOCK_READ_CLOCK_ASCII?CLOCK

?PR?DIR_BOARD_MONITOR?IO_SENSORES                -----    -----      -----    -----      -----    -----
  +--> ?PR?_RD_EEPROM?EEPROM

?PR?_BYTEHEX_DECIMAL?CLOCK                       -----    -----      -----    -----      0015H    0001H

?PR?_TWO_BYTEHEX_DECIMAL?CLOCK                   -----    -----      -----    -----      0015H    000CH
  +--> ?PR?_POW?POW

?PR?_POW?POW                                     -----    -----      -----    -----      0021H    000AH
  +--> ?PR?LOG?LOG
  +--> ?PR?EXP?EXP

?PR?LOG?LOG                                      0020H.0  0000H.1    -----    -----      002BH    0004H

?PR?_VALIDA_TIPO_TARJETA?VERIFICADOR             -----    -----      -----    -----      0002H    0007H
  +--> ?CO?VERIFICADOR
  +--> ?PR?_DEBUG_TXT_TIBBO?TIBBO
  +--> ?PR?_RD_EEPROM?EEPROM
  +--> ?PR?_TARJETA_MENSUAL?VERIFICADOR
  +--> ?PR?_SEND_PORTERR?PTO_PARALELO
  +--> ?PR?_PANTALLALCD?PANTALLAS
  +--> ?PR?CAPTURA_EXPULSA?VERIFICADOR
  +--> ?PR?_TARJETA_ROTACION?VERIFICADOR

?PR?_TARJETA_MENSUAL?VERIFICADOR                 -----    -----      -----    -----      0009H    0007H
  +--> ?PR?_HORARIOS?VERIFICADOR
  +--> ?PR?_CHECK_FECHAOUT?CLOCK
  +--> ?PR?_VALIDA_VEHICULO_CARD_MENSUAL?VER...
  +--> ?PR?CAPTURA_EXPULSA?VERIFICADOR
  +--> ?CO?VERIFICADOR
  +--> ?PR?_DEBUG_TXT_TIBBO?TIBBO
  +--> ?PR?_ARMAR_TRAMA_TARJETA_SECTOR1_BLOQ...
  +--> ?PR?_SEND_PORTERR?PTO_PARALELO
  +--> ?PR?_PANTALLALCD?PANTALLAS

?PR?_HORARIOS?VERIFICADOR                        -----    -----      -----    -----      0010H    0013H
  +--> ?PR?ADDR_HORARIOS?PROG
  +--> ?PR?_RD_EEPROM?EEPROM
  +--> ?PR?_LEE_CLK?CLOCK
  +--> ?CO?VERIFICADOR
BL51 BANKED LINKER/LOCATER V6.22.2.0                                                  11/04/2020  14:53:46  PAGE 19


  +--> ?PR?_DEBUG_TXT_TIBBO?TIBBO
  +--> ?PR?_DEBUG_CHR_TIBBO?TIBBO
  +--> ?PR?_BLOQUE_HORARIO?VERIFICADOR
  +--> ?PR?_PANTALLALCD?PANTALLAS

?PR?_BLOQUE_HORARIO?VERIFICADOR                  -----    -----      -----    -----      0023H    0007H
  +--> ?CO?VERIFICADOR
  +--> ?PR?_DEBUG_TXT_TIBBO?TIBBO
  +--> ?PR?_LEE_CLK?CLOCK
  +--> ?PR?_DEBUG_CHR_TIBBO?TIBBO
  +--> ?PR?_HORA_MAXIMA?VERIFICADOR
  +--> ?PR?_EN_HORARIO?VERIFICADOR
  +--> ?PR?_RD_EEPROM?EEPROM
  +--> ?PR?_SEND_PORTERR?PTO_PARALELO
  +--> ?PR?_PANTALLALCD?PANTALLAS

?PR?_HORA_MAXIMA?VERIFICADOR                     -----    -----      -----    -----      002FH    0008H
  +--> ?PR?_RD_EEPROM?EEPROM
  +--> ?PR?_DEBUG_CHR_TIBBO?TIBBO
  +--> ?CO?VERIFICADOR
  +--> ?PR?_DEBUG_TXT_TIBBO?TIBBO

?PR?_EN_HORARIO?VERIFICADOR                      -----    -----      -----    -----      002AH    0005H
  +--> ?CO?VERIFICADOR
  +--> ?PR?_DEBUG_TXT_TIBBO?TIBBO
  +--> ?PR?_HORA_MAXIMA?VERIFICADOR

?PR?_SEND_PORTERR?PTO_PARALELO                   -----    -----      -----    -----      002AH    0006H
  +--> ?PR?PULSO_BUS?PTO_PARALELO
  +--> ?PR?_DELAY_20US?DELAY

?PR?_PANTALLALCD?PANTALLAS                       -----    -----      -----    -----      002AH    000AH
  +--> ?CO?PANTALLAS
  +--> ?PR?_INIT_MEMPOOL?INIT_MEM
  +--> ?PR?_MALLOC?MALLOC
  +--> ?PR?_LCD_TXT?PANTALLAS
  +--> ?PR?_STRLEN?STRLEN
  +--> ?PR?_TX_CHRLCD?PANTALLAS
  +--> ?PR?_RASPBERRY_DATA?PANTALLAS
  +--> ?PR?_FREE?FREE

?PR?_MALLOC?MALLOC                               -----    -----      -----    -----      0034H    0006H

?PR?_LCD_TXT?PANTALLAS                           -----    -----      -----    -----      0034H    0005H
  +--> ?PR?_TX_CHRLCD?PANTALLAS

?PR?_TX_CHRLCD?PANTALLAS                         -----    -----      -----    -----      0039H    0002H
  +--> ?PR?_PUTCHAR?MAIN

?PR?_RASPBERRY_DATA?PANTALLAS                    -----    -----      -----    -----      0034H    0006H
  +--> ?PR?_STRLEN?STRLEN
  +--> ?PR?_PUTCHAR?MAIN

?PR?_FREE?FREE                                   -----    -----      -----    -----      0034H    0006H

?PR?_VALIDA_VEHICULO_CARD_MENSUAL?VER...         -----    -----      -----    -----      0010H    0004H
  +--> ?CO?VERIFICADOR
BL51 BANKED LINKER/LOCATER V6.22.2.0                                                  11/04/2020  14:53:46  PAGE 20


  +--> ?PR?_DEBUG_TXT_TIBBO?TIBBO
  +--> ?PR?_RD_EEPROM?EEPROM
  +--> ?PR?_SEND_PORTERR?PTO_PARALELO

?PR?_ARMAR_TRAMA_TARJETA_SECTOR1_BLOQ...         -----    -----      -----    -----      0010H    0006H
  +--> ?PR?_BLOCK_READ_CLOCK_HEX?CLOCK
  +--> ?PR?DIR_BOARD?IO_SENSORES

?PR?DIR_BOARD?IO_SENSORES                        -----    -----      -----    -----      0032H    0001H
  +--> ?PR?SEL_DIR1?IO_SENSORES
  +--> ?PR?SEL_DIR2?IO_SENSORES
  +--> ?PR?_RD_EEPROM?EEPROM

?PR?_TARJETA_ROTACION?VERIFICADOR                -----    -----      -----    -----      0009H    0006H
  +--> ?PR?_ARMAR_TRAMA_TARJETA_SECTOR1_BLOQ...

?PR?POWER_OFF?LINTECH                            -----    -----      -----    -----      0002H    000BH
  +--> ?CO?LINTECH
  +--> ?PR?_DEBUG_TXT_TIBBO?TIBBO
  +--> ?PR?_DEBUGBUFFERMF?TIBBO
  +--> ?PR?_ESCRIBIRCADENASOFT_BUFFER?MAIN

?PR?CLAVE_SEGURIDAD_S2?LINTECH                   -----    -----      -----    -----      0002H    0016H
  +--> ?CO?LINTECH
  +--> ?PR?_DEBUG_TXT_TIBBO?TIBBO
  +--> ?PR?_DEBUGBUFFERMF?TIBBO
  +--> ?PR?_ESCRIBIRCADENASOFT_BUFFER?MAIN

?PR?RESPONDE_ESTADO_SENSORES_TRANSPOR...         -----    -----      -----    -----      0002H    0001H
  +--> ?CO?VERIFICADOR
  +--> ?PR?_DEBUG_TXT_TIBBO?TIBBO
  +--> ?PR?_SEND_PORTERR?PTO_PARALELO
  +--> ?PR?INGRESO_VEHICULO?VERIFICADOR

?PR?INGRESO_VEHICULO?VERIFICADOR                 -----    -----      -----    -----      -----    -----
  +--> ?PR?VALIDASENSORESPASO?IO_SENSORES
  +--> ?PR?_RD_EEPROM?EEPROM
  +--> ?CO?VERIFICADOR
  +--> ?PR?_DEBUG_TXT_TIBBO?TIBBO
  +--> ?PR?_PANTALLALCD?PANTALLAS
  +--> ?PR?SEL_PULSA?IO_SENSORES

?PR?VALIDASENSORESPASO?IO_SENSORES               -----    -----      -----    -----      0010H    0001H
  +--> ?PR?SEL_SENSOR2?IO_SENSORES
  +--> ?PR?VALIDASENSOR?IO_SENSORES
  +--> ?PR?VALIDA_SENSOR1_AUTO?IO_SENSORES
  +--> ?CO?IO_SENSORES
  +--> ?PR?_DEBUG_TXT_TIBBO?TIBBO

?PR?RESPONDE_TIPO_TARJETA?VERIFICADOR            -----    -----      -----    -----      0002H    0001H
  +--> ?CO?VERIFICADOR
  +--> ?PR?_DEBUG_TXT_TIBBO?TIBBO
  +--> ?PR?_SEND_PORTERR?PTO_PARALELO
  +--> ?PR?_PANTALLALCD?PANTALLAS
  +--> ?PR?CAPTURA_EXPULSA?VERIFICADOR

?PR?_RESPONDE_LECTURA_TARJETA_SECTOR1...         -----    -----      -----    -----      0002H    0016H
BL51 BANKED LINKER/LOCATER V6.22.2.0                                                  11/04/2020  14:53:46  PAGE 21


  +--> ?CO?VERIFICADOR
  +--> ?PR?_DEBUG_TXT_TIBBO?TIBBO
  +--> ?PR?_DEBUGBUFFERMF?TIBBO
  +--> ?PR?_RD_EEPROM?EEPROM
  +--> ?PR?_DEBUG_HEXDEC?TIBBO
  +--> ?PR?_DEBUG_CHR_TIBBO?TIBBO
  +--> ?PR?_SEND_PORTERR?PTO_PARALELO
  +--> ?PR?_PANTALLALCD?PANTALLAS
  +--> ?PR?CAPTURA_EXPULSA?VERIFICADOR

?PR?_DEBUG_HEXDEC?TIBBO                          -----    -----      -----    -----      0018H    0002H
  +--> ?PR?_TX_AUX?TIBBO

?PR?_RESPONDE_LECTURA_TARJETA_SECTOR1...         -----    -----      -----    -----      0002H    0004H
  +--> ?CO?VERIFICADOR
  +--> ?PR?_DEBUG_TXT_TIBBO?TIBBO
  +--> ?PR?CAPTURA_EXPULSA?VERIFICADOR

?PR?_RESPONDE_LECTURA_TARJETA_SECTOR1...         -----    -----      -----    -----      0002H    0015H
  +--> ?CO?VERIFICADOR
  +--> ?PR?_DEBUG_TXT_TIBBO?TIBBO
  +--> ?PR?_DEBUGBUFFERMF?TIBBO
  +--> ?PR?_DEBUG_CHR_TIBBO?TIBBO
  +--> ?PR?CAPTURA_EXPULSA?VERIFICADOR

?PR?_RESPONDE_WRITE_TARJETA_SECTOR1_B...         -----    -----      -----    -----      0002H    0007H
  +--> ?CO?VERIFICADOR
  +--> ?PR?_DEBUG_TXT_TIBBO?TIBBO
  +--> ?PR?_DEBUGBUFFERMF?TIBBO
  +--> ?PR?_ARMAR_TRAMA_TARJETA_SECTOR1_BLOQ...

?PR?_ARMAR_TRAMA_TARJETA_SECTOR1_BLOQ...         -----    -----      -----    -----      0009H    0003H
  +--> ?PR?LEE_NO_TICKET?EEPROM

?PR?_RESPONDE_WRITE_TARJETA_SECTOR2_B...         -----    -----      -----    -----      0002H    0003H
  +--> ?CO?VERIFICADOR
  +--> ?PR?_DEBUG_TXT_TIBBO?TIBBO
  +--> ?PR?_DEBUGBUFFERMF?TIBBO

?PR?_RESPONDE_WRITE_TARJETA_SECTOR1_B...         -----    -----      -----    -----      0002H    0003H
  +--> ?CO?VERIFICADOR
  +--> ?PR?_DEBUG_TXT_TIBBO?TIBBO
  +--> ?PR?_DEBUGBUFFERMF?TIBBO

?PR?_RESPONDE_WRITE_TARJETA_SECTOR1_B...         -----    -----      -----    -----      0002H    0003H
  +--> ?CO?VERIFICADOR
  +--> ?PR?_DEBUG_TXT_TIBBO?TIBBO
  +--> ?PR?_DEBUGBUFFERMF?TIBBO

?PR?_DISPARO_LOCK_ENTRADA_VEHICULO?VE...         -----    -----      -----    -----      0002H    0004H
  +--> ?CO?VERIFICADOR
  +--> ?PR?_DEBUG_TXT_TIBBO?TIBBO
  +--> ?PR?_PANTALLALCD?PANTALLAS
  +--> ?PR?_SEND_PORTERR?PTO_PARALELO
  +--> ?PR?_PANTALLALCD_LINEA_2?PANTALLAS
  +--> ?PR?VALIDA_SENSOR1_AUTO?IO_SENSORES

BL51 BANKED LINKER/LOCATER V6.22.2.0                                                  11/04/2020  14:53:46  PAGE 22


?PR?_PANTALLALCD_LINEA_2?PANTALLAS               -----    -----      -----    -----      0010H    000DH
  +--> ?CO?PANTALLAS
  +--> ?PR?_INIT_MEMPOOL?INIT_MEM
  +--> ?PR?_MALLOC?MALLOC
  +--> ?PR?_LCD_TXT?PANTALLAS
  +--> ?PR?_STRLEN?STRLEN
  +--> ?PR?_TX_CHRLCD?PANTALLAS
  +--> ?PR?_RASPBERRY_DATA?PANTALLAS
  +--> ?PR?LEE_NO_TICKET?EEPROM
  +--> ?PR?_STRCAT?STRCAT
  +--> ?PR?_FREE?FREE

?PR?_RESPUESTA_SEGUNDA_CLAVE?VERIFICADOR         -----    -----      -----    -----      0002H    0006H
  +--> ?CO?VERIFICADOR
  +--> ?PR?_DEBUG_TXT_TIBBO?TIBBO
  +--> ?PR?_DEBUGBUFFERMF?TIBBO
  +--> ?PR?_ARMAR_TRAMA_PLACA?VERIFICADOR

?PR?_ARMAR_TRAMA_PLACA?VERIFICADOR               -----    -----      -----    -----      0008H    0003H

?PR?ANALIZA_PRESENCIA_MENSUAL?VERIFIC...         -----    -----      -----    -----      0002H    0001H
  +--> ?PR?VALIDASENSORESPASO?IO_SENSORES
  +--> ?PR?_SEND_PORTERR?PTO_PARALELO
  +--> ?PR?_PANTALLALCD?PANTALLAS

?PR?_ANALIZA_UID_CARD?VERIFICADOR                -----    -----      -----    -----      0002H    0015H
  +--> ?CO?VERIFICADOR
  +--> ?PR?_DEBUG_TXT_TIBBO?TIBBO
  +--> ?PR?_DEBUGBUFFERMF?TIBBO
  +--> ?PR?_DEBUG_CHR_TIBBO?TIBBO

?PR?ANALIZA_PRESENCIA_ROTACION?VERIFI...         -----    -----      -----    -----      0002H    0001H
  +--> ?PR?VALIDASENSORESPASO?IO_SENSORES
  +--> ?PR?_SEND_PORTERR?PTO_PARALELO
  +--> ?PR?_PANTALLALCD?PANTALLAS

?PR?_RECIBE_PORT?PTO_PARALELO                    -----    -----      -----    -----      0001H    0008H
  +--> ?PR?OFF_TIMER0_INTERRUP?MAIN
  +--> ?PR?ON_TIMER0_INTERRUP?MAIN

?PR?_DEBUG_PTO_PARALELO?TIBBO                    -----    -----      -----    -----      0001H    0004H
  +--> ?PR?DEBUG_DIVIDIR_TEXTO?TIBBO
  +--> ?CO?TIBBO
  +--> ?PR?_DEBUG_TXT_TIBBO?TIBBO
  +--> ?PR?_DEBUGBUFFERMF?TIBBO

?PR?_VALIDA_TRAMA_PTO?ACCESCAN                   -----    -----      -----    -----      0001H    000FH
  +--> ?PR?_VALIDAR_CLK?CLOCK
  +--> ?PR?_BLOCK_WRITE_CLOCK_ASCII?CLOCK
  +--> ?PR?RELOJ_PANTALLA_LCD?PANTALLAS
  +--> ?PR?_PANTALLALCD?PANTALLAS
  +--> ?CO?ACCESCAN
  +--> ?PR?_DEBUG_TXT_TIBBO?TIBBO
  +--> ?PR?_BYTEHEX_DECIMAL?CLOCK
  +--> ?PR?_TWO_BYTEHEX_DECIMAL?CLOCK
  +--> ?PR?VALIDASENSORESPASO?IO_SENSORES
  +--> ?PR?_CMD_LPR_SALIDA_WIEGAND?ACCESCAN
BL51 BANKED LINKER/LOCATER V6.22.2.0                                                  11/04/2020  14:53:46  PAGE 23


  +--> ?PR?_PANTALLALCD_LINEA_2?PANTALLAS
  +--> ?PR?_GRABA_SERIE?EEPROM

?PR?_BLOCK_WRITE_CLOCK_ASCII?CLOCK               -----    -----      -----    -----      0010H    0003H
  +--> ?PR?_TWO_ONE?CLOCK
  +--> ?PR?_WR_CLK?CLOCK

?PR?_WR_CLK?CLOCK                                -----    -----      -----    -----      0013H    0002H
  +--> ?PR?_DELAY_20US?DELAY
  +--> ?PR?_EB_CLK?CLOCK

?PR?RELOJ_PANTALLA_LCD?PANTALLAS                 -----    -----      -----    -----      0010H    000DH
  +--> ?CO?PANTALLAS
  +--> ?PR?_BLOCK_READ_CLOCK?CLOCK
  +--> ?PR?_LCD_TXT_NUM_CHAR?PANTALLAS

?PR?_BLOCK_READ_CLOCK?CLOCK                      -----    -----      -----    -----      001DH    0003H
  +--> ?PR?_LEE_CLK?CLOCK

?PR?_LCD_TXT_NUM_CHAR?PANTALLAS                  -----    -----      -----    -----      001DH    0006H
  +--> ?PR?_TX_CHRLCD?PANTALLAS

?PR?_CMD_LPR_SALIDA_WIEGAND?ACCESCAN             -----    -----      -----    -----      0010H    0022H
  +--> ?PR?DIR_BOARD?IO_SENSORES
  +--> ?PR?_BLOCK_READ_CLOCK_ASCII?CLOCK
  +--> ?PR?_MONITOR_CHR?ACCESCAN

?PR?_MONITOR_CHR?ACCESCAN                        -----    -----      -----    -----      0032H    0005H
  +--> ?PR?_TX_AUX?TIBBO

?PR?_GRABA_SERIE?EEPROM                          -----    -----      -----    -----      0010H    0005H
  +--> ?CO?EEPROM
  +--> ?PR?_DEBUG_TXT_TIBBO?TIBBO
  +--> ?PR?_WRITE_EEPROM_TICKET?EEPROM
  +--> ?PR?_WR_EEPROM?EEPROM

?PR?MSJ_LCD_INFORMATIVO?IO_SENSORES              -----    -----      -----    -----      0001H    0001H
  +--> ?PR?SEL_FUNCION?IO_SENSORES
  +--> ?PR?LOAD_AND_SEND_INFO_RELOJ?PTO_PARA...
  +--> ?PR?LOAD_AND_SEND_ID_COD?PTO_PARALELO
  +--> ?PR?_RD_EEPROM?EEPROM
  +--> ?PR?_SEND_PORTERR?PTO_PARALELO

?PR?LOAD_AND_SEND_INFO_RELOJ?PTO_PARA...         -----    -----      -----    -----      0002H    000BH
  +--> ?PR?_BLOCK_READ_CLOCK?CLOCK
  +--> ?PR?_LEE_CLK?CLOCK
  +--> ?PR?_SEND_PORT?PTO_PARALELO

?PR?LOAD_AND_SEND_ID_COD?PTO_PARALELO            -----    -----      -----    -----      0002H    0013H
  +--> ?PR?_RD_EEPROM?EEPROM
  +--> ?CO?PTO_PARALELO
  +--> ?PR?PRINTF?PRINTF
  +--> ?PR?_SEND_PORT?PTO_PARALELO



SYMBOL TABLE OF MODULE:  .\Objects\expedidor_v_01_raspberry (MAIN)
BL51 BANKED LINKER/LOCATER V6.22.2.0                                                  11/04/2020  14:53:46  PAGE 24



  VALUE           TYPE          NAME
  ----------------------------------

  -------         MODULE        MAIN
  C:0000H         SYMBOL        _ICE_DUMMY_
  D:0080H         PUBLIC        P0
  D:0090H         PUBLIC        P1
  C:B285H         PUBLIC        timer0_int
  D:00B0H         PUBLIC        P3
  B:00A8H.7       PUBLIC        EA
  C:B698H         PUBLIC        off_Timer0_Interrup
  X:016AH         PUBLIC        ValTimeOutCom
  X:016BH         PUBLIC        Buffer_Rta_Lintech
  X:019DH         PUBLIC        Timer_wait
  X:019EH         PUBLIC        g_cContByteRx
  B:0080H.0       PUBLIC        rx_ip
  B:0080H.3       PUBLIC        Atascado
  C:A1C2H         PUBLIC        main
  X:019FH         PUBLIC        Timer_tivo
  C:A9DBH         PUBLIC        variable_inicio
  B:0090H.7       PUBLIC        lock
  I:0022H         PUBLIC        rbuf
  C:B689H         PUBLIC        on_Timer0_Interrup
  I:0054H         PUBLIC        tbuf
  B:0090H.1       PUBLIC        DataIn
  D:0089H         PUBLIC        TMOD
  X:01A1H         PUBLIC        USE_LPR
  X:01A2H         PUBLIC        Debug_Tibbo
  X:01A3H         PUBLIC        Raspberry
  X:01A4H         PUBLIC        SIN_COBRO
  X:01A6H         PUBLIC        Tipo_Vehiculo
  B:00B0H.3       PUBLIC        busy
  C:B5F4H         PUBLIC        ini_timer
  B:00A8H.1       PUBLIC        ET0
  B:0088H.5       PUBLIC        TF0
  D:008CH         PUBLIC        TH0
  X:01A7H         PUBLIC        ACK
  X:01A8H         PUBLIC        g_cEstadoComSoft
  D:008AH         PUBLIC        TL0
  B:0088H.4       PUBLIC        TR0
  C:B604H         PUBLIC        inicia_board
  X:01A9H         PUBLIC        T_GRACIA
  B:0080H.7       PUBLIC        sel_com
  X:01ABH         PUBLIC        STX_LINTECH
  C:B623H         PUBLIC        _getkey
  X:01ACH         PUBLIC        ETX
  C:AC2BH         PUBLIC        _EscribirCadenaSoft_buffer
  B:0021H.1       PUBLIC        buffer_ready
  C:AEC7H         PUBLIC        _putchar
  B:0021H.2       PUBLIC        placa_ready
  -------         PROC          TIMER0_INT
  C:B285H         LINE#         16
  C:B28BH         LINE#         19
  C:B291H         LINE#         20
  C:B296H         LINE#         21
  C:B296H         LINE#         22
BL51 BANKED LINKER/LOCATER V6.22.2.0                                                  11/04/2020  14:53:46  PAGE 25


  C:B29CH         LINE#         23
  C:B29CH         LINE#         25
  C:B2AAH         LINE#         26
  C:B2ACH         LINE#         28
  -------         ENDPROC       TIMER0_INT
  -------         PROC          INI_TIMER
  C:B5F4H         LINE#         31
  C:B5F4H         LINE#         32
  C:B5F4H         LINE#         34
  C:B5FCH         LINE#         36
  C:B5FFH         LINE#         37
  C:B601H         LINE#         38
  C:B603H         LINE#         40
  -------         ENDPROC       INI_TIMER
  -------         PROC          ON_TIMER0_INTERRUP
  C:B689H         LINE#         43
  C:B689H         LINE#         44
  C:B689H         LINE#         45
  C:B68BH         LINE#         46
  C:B68DH         LINE#         48
  -------         ENDPROC       ON_TIMER0_INTERRUP
  -------         PROC          OFF_TIMER0_INTERRUP
  C:B698H         LINE#         51
  C:B698H         LINE#         52
  C:B698H         LINE#         53
  C:B69AH         LINE#         55
  -------         ENDPROC       OFF_TIMER0_INTERRUP
  -------         PROC          _GETKEY
  -------         DO            
  D:0006H         SYMBOL        k
  -------         ENDDO         
  C:B623H         LINE#         63
  C:B623H         LINE#         64
  C:B623H         LINE#         68
  C:B623H         LINE#         69
  C:B626H         LINE#         70
  C:B626H         LINE#         71
  C:B62EH         LINE#         73
  C:B62EH         LINE#         74
  -------         ENDPROC       _GETKEY
  -------         PROC          _PUTCHAR
  X:00A7H         SYMBOL        c
  -------         DO            
  X:00A8H         SYMBOL        i
  -------         ENDDO         
  C:AEC7H         LINE#         78
  C:AECCH         LINE#         79
  C:AECCH         LINE#         82
  C:AEDBH         LINE#         83
  C:AEDBH         LINE#         84
  C:AEF1H         LINE#         85
  C:AEF1H         LINE#         87
  C:AEFFH         LINE#         88
  C:AEFFH         LINE#         90
  C:AF04H         LINE#         91
  -------         ENDPROC       _PUTCHAR
  -------         PROC          _ESCRIBIRCADENASOFT_BUFFER
BL51 BANKED LINKER/LOCATER V6.22.2.0                                                  11/04/2020  14:53:46  PAGE 26


  X:0027H         SYMBOL        buffer
  X:002AH         SYMBOL        tamano_cadena
  -------         DO            
  X:002BH         SYMBOL        i
  X:002CH         SYMBOL        d
  -------         ENDDO         
  C:AC2BH         LINE#         95
  C:AC39H         LINE#         96
  C:AC39H         LINE#         98
  C:AC47H         LINE#         99
  C:AC47H         LINE#         100
  C:AC5EH         LINE#         101
  C:AC68H         LINE#         102
  C:AC70H         LINE#         103
  -------         ENDPROC       _ESCRIBIRCADENASOFT_BUFFER
  -------         PROC          INICIA_BOARD
  C:B604H         LINE#         108
  C:B604H         LINE#         109
  C:B604H         LINE#         110
  C:B607H         LINE#         111
  C:B60AH         LINE#         112
  C:B60DH         LINE#         113
  C:B60FH         LINE#         114
  C:B611H         LINE#         115
  C:B613H         LINE#         117
  -------         ENDPROC       INICIA_BOARD
  -------         PROC          VARIABLE_INICIO
  C:A9DBH         LINE#         122
  C:A9DBH         LINE#         123
  C:A9DBH         LINE#         126
  C:A9ECH         LINE#         127
  C:A9FDH         LINE#         128
  C:AA0BH         LINE#         129
  C:AA19H         LINE#         130
  C:AA27H         LINE#         132
  -------         ENDPROC       VARIABLE_INICIO
  -------         PROC          MAIN
  -------         DO            
  X:0141H         SYMBOL        buffer
  X:0169H         SYMBOL        Estado_Comunicacion_Secuencia_MF
  X:0000H         SYMBOL        Length_trama
  -------         ENDDO         
  C:A1C2H         LINE#         140
  C:A1C2H         LINE#         141
  C:A1C2H         LINE#         148
  C:A1C5H         LINE#         149
  C:A1C8H         LINE#         150
  C:A1CBH         LINE#         151
  C:A1CEH         LINE#         152
  C:A1D1H         LINE#         153
  C:A1D3H         LINE#         155
  C:A1D6H         LINE#         156
  C:A1DDH         LINE#         157
  C:A1E0H         LINE#         159
  C:A1E5H         LINE#         161
  C:A1E8H         LINE#         163
  C:A1EBH         LINE#         164
BL51 BANKED LINKER/LOCATER V6.22.2.0                                                  11/04/2020  14:53:46  PAGE 27


  C:A1EBH         LINE#         165
  C:A1EEH         LINE#         166
  C:A1EEH         LINE#         169
  C:A1F1H         LINE#         170
  C:A1F7H         LINE#         171
  C:A1FDH         LINE#         173
  C:A1FDH         LINE#         174
  C:A1FDH         LINE#         177
  C:A200H         LINE#         178
  C:A200H         LINE#         179
  C:A203H         LINE#         180
  C:A203H         LINE#         184
  C:A210H         LINE#         189
  C:A213H         LINE#         190
  C:A213H         LINE#         192
  C:A222H         LINE#         194
  C:A22BH         LINE#         196
  C:A239H         LINE#         198
  C:A239H         LINE#         199
  C:A23CH         LINE#         203
  -------         ENDPROC       MAIN
  -------         ENDMOD        MAIN

  -------         MODULE        ACCESCAN
  C:0000H         SYMBOL        _ICE_DUMMY_
  D:0080H         PUBLIC        P0
  D:0090H         PUBLIC        P1
  B:0080H.2       PUBLIC        led_err_imp
  C:ADC6H         PUBLIC        _Monitor_chr
  B:0080H.3       PUBLIC        Atascado
  B:0090H.7       PUBLIC        lock
  C:3FDBH         PUBLIC        _Valida_Trama_Pto
  C:7FA0H         PUBLIC        _Cmd_LPR_Salida_wiegand
  -------         PROC          _VALIDA_TRAMA_PTO
  X:0001H         SYMBOL        buffer
  X:0004H         SYMBOL        length_trama
  -------         DO            
  X:0267H         SYMBOL        cont
  X:0005H         SYMBOL        buff
  -------         ENDDO         
  C:3FDBH         LINE#         85
  C:3FE9H         LINE#         86
  C:3FE9H         LINE#         92
  C:401FH         LINE#         93
  C:401FH         LINE#         94
  C:4034H         LINE#         95
  C:4034H         LINE#         96
  C:4047H         LINE#         98
  C:404AH         LINE#         100
  C:404AH         LINE#         102
  C:404AH         LINE#         104
  C:405CH         LINE#         105
  C:405CH         LINE#         106
  C:4062H         LINE#         107
  C:406FH         LINE#         108
  C:406FH         LINE#         109
  C:4074H         LINE#         110
BL51 BANKED LINKER/LOCATER V6.22.2.0                                                  11/04/2020  14:53:46  PAGE 28


  C:4076H         LINE#         111
  C:407BH         LINE#         112
  C:407DH         LINE#         113
  C:407FH         LINE#         114
  C:4083H         LINE#         115
  C:4083H         LINE#         116
  C:4084H         LINE#         118
  C:409CH         LINE#         119
  C:409CH         LINE#         121
  C:40A9H         LINE#         122
  C:40A9H         LINE#         123
  C:40ABH         LINE#         124
  C:40ADH         LINE#         125
  C:40AFH         LINE#         126
  C:40B1H         LINE#         127
  C:40B1H         LINE#         129
  C:40D7H         LINE#         130
  C:40D7H         LINE#         131
  C:40DBH         LINE#         132
  C:40E0H         LINE#         133
  C:40E9H         LINE#         134
  C:40EEH         LINE#         135
  C:40EEH         LINE#         138
  C:40EFH         LINE#         141
  C:4101H         LINE#         142
  C:4101H         LINE#         143
  C:4103H         LINE#         144
  C:4106H         LINE#         146
  C:4118H         LINE#         147
  C:4118H         LINE#         148
  C:411AH         LINE#         149
  C:411DH         LINE#         151
  C:4137H         LINE#         152
  C:4137H         LINE#         153
  C:4139H         LINE#         154
  C:413CH         LINE#         157
  C:4156H         LINE#         158
  C:4156H         LINE#         159
  C:4158H         LINE#         160
  C:415AH         LINE#         163
  C:4174H         LINE#         164
  C:4174H         LINE#         165
  C:4176H         LINE#         166
  C:4178H         LINE#         170
  C:4192H         LINE#         171
  C:4192H         LINE#         172
  C:4194H         LINE#         173
  C:4196H         LINE#         176
  C:41B0H         LINE#         177
  C:41B0H         LINE#         178
  C:41B2H         LINE#         179
  C:41B4H         LINE#         181
  C:41CEH         LINE#         182
  C:41CEH         LINE#         183
  C:41D3H         LINE#         184
  C:41D3H         LINE#         186
  C:4203H         LINE#         187
BL51 BANKED LINKER/LOCATER V6.22.2.0                                                  11/04/2020  14:53:46  PAGE 29


  C:4203H         LINE#         188
  C:4211H         LINE#         189
  C:4214H         LINE#         192
  C:4257H         LINE#         193
  C:4257H         LINE#         195
  C:426CH         LINE#         196
  C:4272H         LINE#         197
  C:429CH         LINE#         200
  C:42A4H         LINE#         201
  C:42A4H         LINE#         204
  C:42ABH         LINE#         205
  C:42ABH         LINE#         206
  C:42B0H         LINE#         207
  C:42B0H         LINE#         208
  C:42B2H         LINE#         210
  C:42B2H         LINE#         211
  C:42BBH         LINE#         212
  C:42C3H         LINE#         213
  C:42C3H         LINE#         218
  C:42C5H         LINE#         221
  C:42C5H         LINE#         224
  C:42CCH         LINE#         225
  C:42CCH         LINE#         226
  C:42D1H         LINE#         227
  C:42D1H         LINE#         228
  C:42DCH         LINE#         232
  C:42DCH         LINE#         233
  C:42DCH         LINE#         235
  C:4309H         LINE#         236
  C:4309H         LINE#         237
  C:4318H         LINE#         239
  C:4318H         LINE#         241
  -------         ENDPROC       _VALIDA_TRAMA_PTO
  -------         PROC          _MONITOR_CHR
  X:0032H         SYMBOL        str
  X:0035H         SYMBOL        num_char
  -------         DO            
  X:0036H         SYMBOL        j
  -------         ENDDO         
  C:ADC6H         LINE#         396
  C:ADD4H         LINE#         397
  C:ADD4H         LINE#         399
  C:ADE2H         LINE#         400
  C:ADE2H         LINE#         401
  C:ADF4H         LINE#         402
  C:ADFEH         LINE#         403
  C:AE06H         LINE#         404
  -------         ENDPROC       _MONITOR_CHR
  -------         PROC          _CMD_LPR_SALIDA_WIEGAND
  X:0010H         SYMBOL        buffer
  -------         DO            
  X:0013H         SYMBOL        Buffer_Lpr
  X:0031H         SYMBOL        j
  -------         ENDDO         
  C:7FA0H         LINE#         409
  C:7FABH         LINE#         410
  C:7FABH         LINE#         412
BL51 BANKED LINKER/LOCATER V6.22.2.0                                                  11/04/2020  14:53:46  PAGE 30


  C:7FB1H         LINE#         413
  C:7FB6H         LINE#         414
  C:7FBEH         LINE#         415
  C:7FC2H         LINE#         416
  C:7FCBH         LINE#         417
  C:7FCBH         LINE#         418
  C:7FDCH         LINE#         419
  C:7FDEH         LINE#         421
  C:7FDEH         LINE#         422
  C:7FEFH         LINE#         423
  C:7FEFH         LINE#         427
  C:8006H         LINE#         428
  C:8006H         LINE#         429
  C:8015H         LINE#         430
  C:801FH         LINE#         432
  C:8027H         LINE#         433
  C:803BH         LINE#         435
  C:804BH         LINE#         436
  C:805CH         LINE#         437
  C:8069H         LINE#         441
  -------         ENDPROC       _CMD_LPR_SALIDA_WIEGAND
  -------         ENDMOD        ACCESCAN

  -------         MODULE        CLOCK
  C:0000H         SYMBOL        _ICE_DUMMY_
  C:AE3BH         PUBLIC        _two_one
  D:0090H         PUBLIC        P1
  C:6E3AH         PUBLIC        _validar_clk
  C:B309H         PUBLIC        _wr_clk
  C:8547H         PUBLIC        _check_fechaOut
  B:00D0H.7       PUBLIC        CY
  C:0003H         PUBLIC        p_ck
  C:97A1H         PUBLIC        _hex_ascii
  X:0268H         PUBLIC        data_clk
  C:B64BH         PUBLIC        cond_ini_clock
  C:8610H         PUBLIC        _Block_read_Clock
  B:0090H.4       PUBLIC        sck
  C:918DH         PUBLIC        _Block_read_Clock_Hex
  C:5BCEH         PUBLIC        _Block_read_clock_ascii
  C:AF21H         PUBLIC        _hex_bcd
  C:B4DDH         PUBLIC        _bcd_hex
  C:A773H         PUBLIC        _ByteHex_Decimal
  C:98CDH         PUBLIC        _lee_clk
  B:0090H.5       PUBLIC        io
  C:99E3H         PUBLIC        _Block_write_clock_ascii
  B:0090H.6       PUBLIC        rst
  C:AE88H         PUBLIC        _eb_clk
  C:4319H         PUBLIC        _Two_ByteHex_Decimal
  -------         PROC          P_CK
  C:0003H         LINE#         48
  C:0003H         LINE#         49
  C:0003H         LINE#         50
  C:0005H         LINE#         51
  C:0008H         LINE#         52
  C:000AH         LINE#         53
  -------         ENDPROC       P_CK
  -------         PROC          _EB_CLK
BL51 BANKED LINKER/LOCATER V6.22.2.0                                                  11/04/2020  14:53:46  PAGE 31


  X:00B4H         SYMBOL        dir_clk
  -------         DO            
  X:00B5H         SYMBOL        nbits
  -------         ENDDO         
  C:AE88H         LINE#         55
  C:AE8DH         LINE#         57
  C:AE92H         LINE#         58
  C:AE92H         LINE#         59
  C:AE9BH         LINE#         60
  C:AE9EH         LINE#         61
  C:AE9EH         LINE#         62
  C:AEA0H         LINE#         63
  C:AEA2H         LINE#         65
  C:AEA2H         LINE#         66
  C:AEA4H         LINE#         67
  C:AEA4H         LINE#         68
  C:AEA7H         LINE#         69
  C:AEC6H         LINE#         70
  -------         ENDPROC       _EB_CLK
  C:98C3H         SYMBOL        L?0082
  -------         PROC          L?0081
  -------         ENDPROC       L?0081
  C:98C3H         SYMBOL        L?0082
  -------         PROC          _LEE_CLK
  X:00B1H         SYMBOL        dir_clk
  -------         DO            
  X:00B2H         SYMBOL        nbits
  -------         ENDDO         
  C:98CDH         LINE#         72
  C:98D2H         LINE#         74
  C:98D4H         LINE#         75
  C:98DBH         LINE#         76
  C:98E3H         LINE#         77
  C:98FCH         LINE#         78
  C:98FCH         LINE#         79
  C:98FFH         LINE#         80
  C:98FFH         LINE#         81
  C:9906H         LINE#         82
  C:9910H         LINE#         83
  C:9915H         LINE#         84
  C:9915H         LINE#         85
  C:9915H         LINE#         86
  C:9918H         LINE#         87
  C:9918H         LINE#         88
  C:991FH         LINE#         89
  C:9930H         LINE#         90
  C:9930H         LINE#         91
  C:9938H         LINE#         92
  C:9938H         LINE#         93
  C:9938H         LINE#         94
  C:993BH         LINE#         95
  C:994BH         LINE#         96
  C:994DH         LINE#         97
  C:9952H         LINE#         98
  -------         ENDPROC       _LEE_CLK
  -------         PROC          _WR_CLK
  X:0013H         SYMBOL        dir_clk
BL51 BANKED LINKER/LOCATER V6.22.2.0                                                  11/04/2020  14:53:46  PAGE 32


  X:0014H         SYMBOL        byte
  C:B309H         LINE#         100
  C:B311H         LINE#         101
  C:B313H         LINE#         102
  C:B31AH         LINE#         103
  C:B322H         LINE#         104
  C:B32BH         LINE#         105
  C:B32EH         LINE#         106
  C:B330H         LINE#         108
  -------         ENDPROC       _WR_CLK
  C:AE07H         SYMBOL        L?0077
  C:AE25H         SYMBOL        L?0078
  -------         PROC          L?0076
  -------         ENDPROC       L?0076
  C:AE07H         SYMBOL        L?0077
  C:AE25H         SYMBOL        L?0078
  -------         PROC          _TWO_ONE
  D:0007H         SYMBOL        byte_h
  D:0005H         SYMBOL        byte_l
  -------         DO            
  D:0007H         SYMBOL        byte_out
  -------         ENDDO         
  C:AE3BH         LINE#         110
  C:AE3BH         LINE#         111
  C:AE3BH         LINE#         113
  C:AE3EH         LINE#         114
  C:AE42H         LINE#         115
  C:AE45H         LINE#         116
  C:AE47H         LINE#         117
  C:AE47H         LINE#         118
  -------         ENDPROC       _TWO_ONE
  -------         PROC          _VALIDAR_CLK
  D:0001H         SYMBOL        datos_clock
  -------         DO            
  D:0007H         SYMBOL        validador
  -------         ENDDO         
  C:6E3AH         LINE#         122
  C:6E3AH         LINE#         123
  C:6E3AH         LINE#         124
  C:6E3CH         LINE#         127
  C:6E51H         LINE#         128
  C:6E51H         LINE#         130
  C:6E69H         LINE#         131
  C:6E69H         LINE#         133
  C:6E81H         LINE#         134
  C:6E81H         LINE#         135
  C:6E99H         LINE#         136
  C:6E99H         LINE#         137
  C:6EB1H         LINE#         138
  C:6EB1H         LINE#         139
  C:6EC6H         LINE#         140
  C:6EC6H         LINE#         141
  C:6ED8H         LINE#         142
  C:6ED8H         LINE#         143
  C:6EEAH         LINE#         144
  C:6EEAH         LINE#         145
  C:6EFCH         LINE#         146
BL51 BANKED LINKER/LOCATER V6.22.2.0                                                  11/04/2020  14:53:46  PAGE 33


  C:6EFCH         LINE#         147
  C:6F0EH         LINE#         148
  C:6F0EH         LINE#         149
  C:6F20H         LINE#         150
  C:6F20H         LINE#         151
  C:6F30H         LINE#         152
  C:6F30H         LINE#         153
  C:6F30H         LINE#         154
  C:6F30H         LINE#         155
  C:6F31H         LINE#         157
  C:6F31H         LINE#         158
  C:6F33H         LINE#         159
  C:6F33H         LINE#         160
  C:6F34H         LINE#         162
  C:6F34H         LINE#         163
  C:6F36H         LINE#         165
  C:6F36H         LINE#         166
  C:6F37H         LINE#         168
  C:6F37H         LINE#         169
  C:6F39H         LINE#         171
  C:6F39H         LINE#         173
  C:6F3AH         LINE#         175
  C:6F3AH         LINE#         176
  C:6F3CH         LINE#         178
  C:6F3CH         LINE#         179
  C:6F3DH         LINE#         181
  C:6F3DH         LINE#         182
  C:6F3FH         LINE#         184
  C:6F3FH         LINE#         185
  C:6F40H         LINE#         187
  C:6F40H         LINE#         188
  C:6F42H         LINE#         190
  C:6F42H         LINE#         191
  C:6F43H         LINE#         193
  C:6F43H         LINE#         194
  C:6F45H         LINE#         196
  C:6F45H         LINE#         197
  C:6F45H         LINE#         199
  C:6F46H         LINE#         201
  C:6F46H         LINE#         202
  C:6F48H         LINE#         204
  C:6F48H         LINE#         206
  C:6F49H         LINE#         209
  C:6F49H         LINE#         210
  C:6F4BH         LINE#         212
  C:6F4BH         LINE#         214
  C:6F4CH         LINE#         217
  C:6F4CH         LINE#         218
  C:6F4EH         LINE#         220
  C:6F4EH         LINE#         222
  C:6F4EH         LINE#         224
  -------         ENDPROC       _VALIDAR_CLK
  -------         PROC          _BLOCK_WRITE_CLOCK_ASCII
  X:0010H         SYMBOL        datos_clock
  -------         DO            
  D:0007H         SYMBOL        temp
  -------         ENDDO         
BL51 BANKED LINKER/LOCATER V6.22.2.0                                                  11/04/2020  14:53:46  PAGE 34


  C:99E3H         LINE#         230
  C:99EEH         LINE#         232
  C:99EEH         LINE#         237
  C:99F8H         LINE#         238
  C:99F8H         LINE#         239
  C:99F8H         LINE#         240
  C:99F8H         LINE#         242
  C:9A02H         LINE#         243
  C:9A0CH         LINE#         244
  C:9A16H         LINE#         245
  C:9A16H         LINE#         246
  C:9A16H         LINE#         247
  C:9A16H         LINE#         249
  C:9A20H         LINE#         250
  C:9A20H         LINE#         251
  C:9A20H         LINE#         252
  C:9A20H         LINE#         254
  C:9A2AH         LINE#         255
  C:9A2AH         LINE#         256
  C:9A2AH         LINE#         257
  C:9A2AH         LINE#         259
  C:9A34H         LINE#         260
  C:9A34H         LINE#         261
  C:9A34H         LINE#         262
  C:9A34H         LINE#         264
  C:9A3EH         LINE#         265
  C:9A48H         LINE#         266
  C:9A52H         LINE#         267
  C:9A5CH         LINE#         269
  C:9A6CH         LINE#         270
  -------         ENDPROC       _BLOCK_WRITE_CLOCK_ASCII
  -------         PROC          _BCD_HEX
  D:0007H         SYMBOL        l_data
  -------         DO            
  D:0006H         SYMBOL        temp
  D:0005H         SYMBOL        j
  -------         ENDDO         
  C:B4DDH         LINE#         276
  C:B4DDH         LINE#         277
  C:B4DDH         LINE#         279
  C:B4DFH         LINE#         280
  C:B4E3H         LINE#         281
  C:B4E6H         LINE#         282
  C:B4E8H         LINE#         283
  C:B4E8H         LINE#         284
  C:B4ECH         LINE#         285
  C:B4F3H         LINE#         286
  C:B4F3H         LINE#         287
  C:B4F7H         LINE#         288
  C:B4FAH         LINE#         289
  C:B4FAH         LINE#         290
  C:B4FAH         LINE#         291
  -------         ENDPROC       _BCD_HEX
  C:AF12H         SYMBOL        L?0080
  -------         PROC          L?0079
  -------         ENDPROC       L?0079
  C:AF12H         SYMBOL        L?0080
BL51 BANKED LINKER/LOCATER V6.22.2.0                                                  11/04/2020  14:53:46  PAGE 35


  -------         PROC          _HEX_BCD
  D:0007H         SYMBOL        byte
  -------         DO            
  D:0006H         SYMBOL        nibble_h
  D:0005H         SYMBOL        nibble_l
  D:0004H         SYMBOL        k
  D:0007H         SYMBOL        byte_out
  -------         ENDDO         
  C:AF21H         LINE#         295
  C:AF21H         LINE#         296
  C:AF21H         LINE#         301
  C:AF23H         LINE#         302
  C:AF24H         LINE#         304
  C:AF2AH         LINE#         305
  C:AF2AH         LINE#         306
  C:AF2BH         LINE#         307
  C:AF30H         LINE#         308
  C:AF30H         LINE#         309
  C:AF31H         LINE#         310
  C:AF32H         LINE#         311
  C:AF32H         LINE#         312
  C:AF35H         LINE#         313
  C:AF39H         LINE#         314
  C:AF3CH         LINE#         315
  C:AF3FH         LINE#         316
  C:AF41H         LINE#         317
  C:AF41H         LINE#         319
  -------         ENDPROC       _HEX_BCD
  -------         PROC          _HEX_ASCII
  X:005DH         SYMBOL        datos
  X:0060H         SYMBOL        fecha_asii
  -------         DO            
  D:0007H         SYMBOL        dato
  -------         ENDDO         
  C:97A1H         LINE#         320
  C:97ACH         LINE#         321
  C:97ACH         LINE#         325
  C:97AFH         LINE#         326
  C:97C7H         LINE#         327
  C:97DCH         LINE#         328
  C:97DCH         LINE#         330
  C:97DFH         LINE#         331
  C:97FAH         LINE#         332
  C:9802H         LINE#         333
  C:9802H         LINE#         335
  C:9805H         LINE#         336
  C:9820H         LINE#         337
  C:982BH         LINE#         339
  -------         ENDPROC       _HEX_ASCII
  -------         PROC          _BYTEHEX_DECIMAL
  D:0001H         SYMBOL        buffer
  D:0005H         SYMBOL        valorhex
  -------         DO            
  X:0015H         SYMBOL        numero
  D:0007H         SYMBOL        centena
  D:0006H         SYMBOL        decena
  -------         ENDDO         
BL51 BANKED LINKER/LOCATER V6.22.2.0                                                  11/04/2020  14:53:46  PAGE 36


  C:A773H         LINE#         347
  C:A773H         LINE#         348
  C:A773H         LINE#         351
  C:A775H         LINE#         352
  C:A776H         LINE#         353
  C:A77BH         LINE#         355
  C:A788H         LINE#         356
  C:A788H         LINE#         357
  C:A78CH         LINE#         358
  C:A78DH         LINE#         359
  C:A78FH         LINE#         360
  C:A795H         LINE#         361
  C:A79CH         LINE#         362
  C:A7A9H         LINE#         363
  C:A7A9H         LINE#         364
  C:A7ADH         LINE#         365
  C:A7AEH         LINE#         366
  C:A7B0H         LINE#         367
  C:A7B6H         LINE#         368
  C:A7BDH         LINE#         369
  C:A7C6H         LINE#         370
  C:A7CDH         LINE#         371
  -------         ENDPROC       _BYTEHEX_DECIMAL
  -------         PROC          _TWO_BYTEHEX_DECIMAL
  X:0015H         SYMBOL        buffer
  X:0018H         SYMBOL        id_h
  X:0019H         SYMBOL        id_l
  -------         DO            
  X:001AH         SYMBOL        valor
  D:0006H         SYMBOL        numero
  X:001CH         SYMBOL        temp
  X:001DH         SYMBOL        dmil
  X:001EH         SYMBOL        mil
  X:001FH         SYMBOL        centena
  X:0020H         SYMBOL        decena
  -------         ENDDO         
  C:4319H         LINE#         378
  C:4327H         LINE#         379
  C:4327H         LINE#         383
  C:432EH         LINE#         384
  C:4332H         LINE#         385
  C:4334H         LINE#         386
  C:4336H         LINE#         387
  C:4338H         LINE#         390
  C:433DH         LINE#         391
  C:4340H         LINE#         392
  C:4346H         LINE#         394
  C:43A1H         LINE#         395
  C:43A9H         LINE#         396
  C:43ACH         LINE#         397
  C:4407H         LINE#         399
  C:440FH         LINE#         400
  C:4412H         LINE#         401
  C:4418H         LINE#         402
  C:4473H         LINE#         403
  C:447BH         LINE#         404
  C:447EH         LINE#         405
BL51 BANKED LINKER/LOCATER V6.22.2.0                                                  11/04/2020  14:53:46  PAGE 37


  C:44D9H         LINE#         406
  C:44D9H         LINE#         408
  C:44E2H         LINE#         409
  C:44E2H         LINE#         410
  C:44EAH         LINE#         411
  C:44F0H         LINE#         412
  C:44F2H         LINE#         413
  C:4508H         LINE#         414
  C:4512H         LINE#         415
  C:451BH         LINE#         416
  C:451BH         LINE#         417
  C:4523H         LINE#         418
  C:4529H         LINE#         419
  C:452BH         LINE#         420
  C:4541H         LINE#         421
  C:454BH         LINE#         422
  C:4554H         LINE#         423
  C:4554H         LINE#         424
  C:455CH         LINE#         425
  C:4562H         LINE#         426
  C:4564H         LINE#         427
  C:457AH         LINE#         428
  C:4584H         LINE#         429
  C:458DH         LINE#         430
  C:458DH         LINE#         431
  C:4595H         LINE#         432
  C:459BH         LINE#         433
  C:459DH         LINE#         434
  C:45B3H         LINE#         435
  C:45BDH         LINE#         436
  C:45D0H         LINE#         437
  C:45DAH         LINE#         438
  -------         ENDPROC       _TWO_BYTEHEX_DECIMAL
  -------         PROC          _BLOCK_READ_CLOCK_ASCII
  X:0051H         SYMBOL        datos_clock
  -------         DO            
  D:0007H         SYMBOL        dato
  -------         ENDDO         
  C:5BCEH         LINE#         444
  C:5BD1H         LINE#         445
  C:5BD1H         LINE#         451
  C:5BD4H         LINE#         452
  C:5BECH         LINE#         453
  C:5BF6H         LINE#         454
  C:5C0BH         LINE#         455
  C:5C15H         LINE#         458
  C:5C1AH         LINE#         459
  C:5C32H         LINE#         460
  C:5C3CH         LINE#         461
  C:5C51H         LINE#         462
  C:5C5BH         LINE#         465
  C:5C60H         LINE#         466
  C:5C78H         LINE#         467
  C:5C82H         LINE#         468
  C:5C97H         LINE#         469
  C:5CA1H         LINE#         473
  C:5CA6H         LINE#         474
BL51 BANKED LINKER/LOCATER V6.22.2.0                                                  11/04/2020  14:53:46  PAGE 38


  C:5CBEH         LINE#         475
  C:5CC8H         LINE#         476
  C:5CDDH         LINE#         477
  C:5CE7H         LINE#         480
  C:5CECH         LINE#         481
  C:5D04H         LINE#         482
  C:5D0EH         LINE#         483
  C:5D23H         LINE#         484
  C:5D2DH         LINE#         485
  -------         ENDPROC       _BLOCK_READ_CLOCK_ASCII
  -------         PROC          _BLOCK_READ_CLOCK_HEX
  X:00AEH         SYMBOL        datos_clock
  C:918DH         LINE#         489
  C:9190H         LINE#         490
  C:9190H         LINE#         493
  C:91A5H         LINE#         494
  C:91AFH         LINE#         496
  C:91C6H         LINE#         497
  C:91D0H         LINE#         499
  C:91E7H         LINE#         500
  C:91F1H         LINE#         502
  C:9208H         LINE#         503
  C:9212H         LINE#         505
  C:9229H         LINE#         506
  -------         ENDPROC       _BLOCK_READ_CLOCK_HEX
  -------         PROC          _BLOCK_READ_CLOCK
  X:001DH         SYMBOL        datos_clock
  C:8610H         LINE#         533
  C:8613H         LINE#         534
  C:8613H         LINE#         536
  C:8625H         LINE#         537
  C:862FH         LINE#         539
  C:8643H         LINE#         540
  C:864DH         LINE#         542
  C:8661H         LINE#         543
  C:866BH         LINE#         545
  C:867FH         LINE#         546
  C:8689H         LINE#         548
  C:869DH         LINE#         549
  C:86A7H         LINE#         551
  C:86BBH         LINE#         552
  C:86C5H         LINE#         553
  -------         ENDPROC       _BLOCK_READ_CLOCK
  -------         PROC          COND_INI_CLOCK
  C:B64BH         LINE#         556
  C:B64BH         LINE#         557
  C:B64BH         LINE#         558
  C:B64DH         LINE#         559
  C:B64FH         LINE#         560
  C:B651H         LINE#         561
  -------         ENDPROC       COND_INI_CLOCK
  -------         PROC          _CHECK_FECHAOUT
  X:009CH         SYMBOL        buffer
  -------         DO            
  X:009FH         SYMBOL        fecha_inicio
  X:00A3H         SYMBOL        fecha_fin
  X:00A7H         SYMBOL        datos_clk
BL51 BANKED LINKER/LOCATER V6.22.2.0                                                  11/04/2020  14:53:46  PAGE 39


  X:00ADH         SYMBOL        temp
  -------         ENDDO         
  C:8547H         LINE#         571
  C:8552H         LINE#         572
  C:8552H         LINE#         578
  C:855BH         LINE#         579
  C:858AH         LINE#         580
  C:85DDH         LINE#         583
  C:85FDH         LINE#         584
  C:85FDH         LINE#         585
  C:8603H         LINE#         586
  C:8605H         LINE#         588
  C:8605H         LINE#         589
  C:860AH         LINE#         590
  C:860AH         LINE#         594
  C:860FH         LINE#         595
  -------         ENDPROC       _CHECK_FECHAOUT
  -------         ENDMOD        CLOCK

  -------         MODULE        DELAY
  C:0000H         SYMBOL        _ICE_DUMMY_
  C:B0A9H         PUBLIC        _Delay_10ms
  C:B59AH         PUBLIC        _Delay_20us
  C:B4FBH         PUBLIC        _Delay_1ms
  C:B69EH         PUBLIC        Delay
  -------         PROC          _DELAY_20US
  D:0006H         SYMBOL        cntd_us
  -------         DO            
  D:0004H         SYMBOL        i
  -------         ENDDO         
  C:B59AH         LINE#         20
  C:B59AH         LINE#         21
  C:B59AH         LINE#         24
  C:B5A4H         LINE#         26
  C:B5ABH         LINE#         27
  -------         ENDPROC       _DELAY_20US
  -------         PROC          _DELAY_1MS
  D:0002H         SYMBOL        cntd_ms
  -------         DO            
  D:0082H         SYMBOL        i
  -------         ENDDO         
  C:B4FBH         LINE#         38
  C:B4FFH         LINE#         39
  C:B4FFH         LINE#         41
  C:B515H         LINE#         42
  -------         ENDPROC       _DELAY_1MS
  -------         PROC          _DELAY_10MS
  X:0008H         SYMBOL        cntd_10ms
  -------         DO            
  X:000AH         SYMBOL        i
  -------         ENDDO         
  C:B0A9H         LINE#         54
  C:B0B1H         LINE#         55
  C:B0B1H         LINE#         57
  C:B0E2H         LINE#         58
  -------         ENDPROC       _DELAY_10MS
  -------         PROC          DELAY
BL51 BANKED LINKER/LOCATER V6.22.2.0                                                  11/04/2020  14:53:46  PAGE 40


  C:B69EH         LINE#         60
  C:B69EH         LINE#         62
  -------         ENDPROC       DELAY
  -------         ENDMOD        DELAY

  -------         MODULE        EEPROM
  C:0000H         SYMBOL        _ICE_DUMMY_
  D:0090H         PUBLIC        P1
  C:7A51H         PUBLIC        _Write_EEprom_Ticket
  C:A50AH         PUBLIC        _EscribirMemoria
  X:025EH         PUBLIC        l_chr
  C:B462H         PUBLIC        ackd
  B:0021H.5       PUBLIC        memory_flag
  B:00D0H.7       PUBLIC        CY
  C:B683H         PUBLIC        p_me
  C:B5B4H         PUBLIC        start
  B:0090H.2       PUBLIC        sda
  C:B482H         PUBLIC        ack_lect
  B:0090H.3       PUBLIC        scl
  C:AF46H         PUBLIC        _rd_eeprom
  C:B639H         PUBLIC        stop
  X:025FH         PUBLIC        l_data_eeprom
  C:A94EH         PUBLIC        _wr_eeprom
  C:A5E4H         PUBLIC        _LeerMemoria
  C:B187H         PUBLIC        Incremente_Ticket
  X:0260H         PUBLIC        byte_rd
  C:847DH         PUBLIC        Read_EEprom_Ticket
  C:B43DH         PUBLIC        _e_d_m
  C:82E6H         PUBLIC        _graba_serie
  C:AA75H         PUBLIC        Lee_No_Ticket
  C:AA28H         PUBLIC        l_d_m
  -------         PROC          L?0057
  -------         ENDPROC       L?0057
  -------         PROC          ACKD
  -------         DO            
  D:0006H         SYMBOL        i
  -------         ENDDO         
  C:B462H         LINE#         35
  C:B462H         LINE#         36
  C:B462H         LINE#         38
  C:B464H         LINE#         39
  C:B466H         LINE#         40
  C:B468H         LINE#         41
  C:B46BH         LINE#         42
  C:B46BH         LINE#         43
  C:B46EH         LINE#         44
  C:B46EH         LINE#         45
  C:B470H         LINE#         46
  C:B472H         LINE#         48
  C:B473H         LINE#         49
  C:B473H         LINE#         50
  C:B47EH         LINE#         52
  C:B47EH         LINE#         53
  C:B47EH         LINE#         55
  C:B47EH         LINE#         56
  -------         ENDPROC       ACKD
  -------         PROC          L?0061
BL51 BANKED LINKER/LOCATER V6.22.2.0                                                  11/04/2020  14:53:46  PAGE 41


  -------         ENDPROC       L?0061
  -------         PROC          ACK_LECT
  -------         DO            
  D:0006H         SYMBOL        i
  -------         ENDDO         
  C:B482H         LINE#         59
  C:B482H         LINE#         60
  C:B482H         LINE#         62
  C:B484H         LINE#         63
  C:B486H         LINE#         64
  C:B488H         LINE#         65
  C:B48BH         LINE#         66
  C:B48BH         LINE#         67
  C:B48EH         LINE#         68
  C:B48EH         LINE#         69
  C:B490H         LINE#         70
  C:B492H         LINE#         71
  C:B493H         LINE#         72
  C:B493H         LINE#         73
  C:B49EH         LINE#         74
  -------         ENDPROC       ACK_LECT
  -------         PROC          P_ME
  C:B683H         LINE#         76
  C:B683H         LINE#         77
  C:B683H         LINE#         78
  C:B685H         LINE#         79
  C:B686H         LINE#         80
  C:B688H         LINE#         81
  -------         ENDPROC       P_ME
  -------         PROC          _E_D_M
  D:0007H         SYMBOL        a_serial_eeprom
  -------         DO            
  D:0006H         SYMBOL        nbits
  -------         ENDDO         
  C:B43DH         LINE#         83
  C:B43DH         LINE#         84
  C:B43DH         LINE#         86
  C:B449H         LINE#         87
  C:B449H         LINE#         88
  C:B44DH         LINE#         89
  C:B450H         LINE#         90
  C:B450H         LINE#         91
  C:B452H         LINE#         92
  C:B454H         LINE#         94
  C:B454H         LINE#         95
  C:B456H         LINE#         96
  C:B456H         LINE#         97
  C:B458H         LINE#         98
  C:B45BH         LINE#         99
  C:B45EH         LINE#         101
  -------         ENDPROC       _E_D_M
  -------         PROC          L?0058
  -------         ENDPROC       L?0058
  -------         PROC          START
  C:B5B4H         LINE#         103
  C:B5B4H         LINE#         104
  C:B5B4H         LINE#         105
BL51 BANKED LINKER/LOCATER V6.22.2.0                                                  11/04/2020  14:53:46  PAGE 42


  C:B5B6H         LINE#         106
  C:B5B8H         LINE#         107
  C:B5B9H         LINE#         108
  C:B5BBH         LINE#         109
  C:B5BDH         LINE#         111
  -------         ENDPROC       START
  -------         PROC          STOP
  C:B639H         LINE#         113
  C:B639H         LINE#         114
  C:B639H         LINE#         115
  C:B63BH         LINE#         116
  C:B63DH         LINE#         117
  C:B63FH         LINE#         118
  C:B641H         LINE#         120
  -------         ENDPROC       STOP
  -------         PROC          L_D_M
  -------         DO            
  D:0003H         SYMBOL        nbits
  -------         ENDDO         
  C:AA28H         LINE#         122
  C:AA28H         LINE#         123
  C:AA28H         LINE#         125
  C:AA35H         LINE#         126
  C:AA35H         LINE#         127
  C:AA37H         LINE#         128
  C:AA3AH         LINE#         129
  C:AA3AH         LINE#         130
  C:AA41H         LINE#         131
  C:AA4AH         LINE#         132
  C:AA4AH         LINE#         133
  C:AA4EH         LINE#         134
  C:AA50H         LINE#         135
  C:AA50H         LINE#         136
  C:AA50H         LINE#         137
  C:AA53H         LINE#         138
  C:AA53H         LINE#         139
  C:AA5AH         LINE#         140
  C:AA64H         LINE#         141
  C:AA64H         LINE#         142
  C:AA68H         LINE#         143
  C:AA6AH         LINE#         144
  C:AA6AH         LINE#         145
  C:AA6AH         LINE#         146
  C:AA6DH         LINE#         147
  C:AA6FH         LINE#         148
  C:AA74H         LINE#         149
  -------         ENDPROC       L_D_M
  -------         PROC          L?0056
  -------         ENDPROC       L?0056
  -------         PROC          _WR_EEPROM
  D:0002H         SYMBOL        control
  D:0004H         SYMBOL        Dir
  D:0003H         SYMBOL        data_eeprom
  -------         DO            
  D:0005H         SYMBOL        dir_h
  D:0001H         SYMBOL        dir_l
  -------         ENDDO         
BL51 BANKED LINKER/LOCATER V6.22.2.0                                                  11/04/2020  14:53:46  PAGE 43


  C:A94EH         LINE#         155
  C:A950H         LINE#         156
  C:A950H         LINE#         158
  C:A954H         LINE#         159
  C:A954H         LINE#         160
  C:A954H         LINE#         163
  C:A954H         LINE#         164
  C:A954H         LINE#         166
  C:A957H         LINE#         167
  C:A959H         LINE#         168
  C:A95CH         LINE#         169
  C:A95EH         LINE#         170
  C:A961H         LINE#         171
  C:A966H         LINE#         172
  C:A969H         LINE#         173
  C:A96EH         LINE#         174
  C:A971H         LINE#         175
  C:A974H         LINE#         176
  C:A97BH         LINE#         178
  C:A97DH         LINE#         179
  C:A97FH         LINE#         180
  C:A986H         LINE#         181
  -------         ENDPROC       _WR_EEPROM
  C:AF42H         SYMBOL        L?0060
  -------         PROC          L?0059
  -------         ENDPROC       L?0059
  C:AF42H         SYMBOL        L?0060
  -------         PROC          _RD_EEPROM
  D:0003H         SYMBOL        control
  D:0004H         SYMBOL        Dir
  -------         DO            
  D:0005H         SYMBOL        dir_h
  D:0002H         SYMBOL        dir_l
  -------         ENDDO         
  C:AF46H         LINE#         219
  C:AF48H         LINE#         220
  C:AF48H         LINE#         223
  C:AF4CH         LINE#         224
  C:AF4CH         LINE#         225
  C:AF4CH         LINE#         227
  C:AF4CH         LINE#         228
  C:AF4CH         LINE#         230
  C:AF4FH         LINE#         231
  C:AF51H         LINE#         232
  C:AF54H         LINE#         233
  C:AF56H         LINE#         234
  C:AF59H         LINE#         235
  C:AF5EH         LINE#         236
  C:AF61H         LINE#         237
  C:AF64H         LINE#         238
  C:AF6AH         LINE#         239
  C:AF6DH         LINE#         240
  C:AF6FH         LINE#         241
  C:AF72H         LINE#         242
  C:AF75H         LINE#         243
  C:AF77H         LINE#         244
  C:AF79H         LINE#         245
BL51 BANKED LINKER/LOCATER V6.22.2.0                                                  11/04/2020  14:53:46  PAGE 44


  C:AF7EH         LINE#         246
  -------         ENDPROC       _RD_EEPROM
  -------         PROC          _GRABA_SERIE
  X:0010H         SYMBOL        buffer
  -------         DO            
  X:0013H         SYMBOL        j
  X:0014H         SYMBOL        error
  -------         ENDDO         
  C:82E6H         LINE#         253
  C:82F1H         LINE#         254
  C:82F1H         LINE#         257
  C:82F6H         LINE#         262
  C:8308H         LINE#         264
  C:831BH         LINE#         265
  C:831BH         LINE#         266
  C:8344H         LINE#         267
  C:8344H         LINE#         268
  C:834AH         LINE#         270
  C:8353H         LINE#         271
  C:8361H         LINE#         272
  C:836AH         LINE#         273
  C:836AH         LINE#         275
  C:8372H         LINE#         279
  C:8378H         LINE#         280
  C:8378H         LINE#         281
  C:8386H         LINE#         283
  C:8386H         LINE#         285
  C:8386H         LINE#         286
  C:8390H         LINE#         287
  C:839BH         LINE#         288
  C:83A6H         LINE#         289
  C:83B1H         LINE#         291
  C:83B1H         LINE#         292
  -------         ENDPROC       _GRABA_SERIE
  -------         PROC          _WRITE_EEPROM_TICKET
  X:0015H         SYMBOL        buffer
  -------         DO            
  X:0018H         SYMBOL        cod_3
  X:0019H         SYMBOL        cod_2
  X:001AH         SYMBOL        cod_1
  X:001BH         SYMBOL        cod_0
  X:001CH         SYMBOL        Noticket
  D:0004H         SYMBOL        Bnoticket
  -------         ENDDO         
  C:7A51H         LINE#         293
  C:7A5CH         LINE#         294
  C:7A5CH         LINE#         296
  C:7A64H         LINE#         297
  C:7A6DH         LINE#         298
  C:7A7BH         LINE#         299
  C:7A84H         LINE#         300
  C:7A98H         LINE#         302
  C:7AA1H         LINE#         303
  C:7AB4H         LINE#         304
  C:7AB9H         LINE#         305
  C:7ABCH         LINE#         307
  C:7ACFH         LINE#         308
BL51 BANKED LINKER/LOCATER V6.22.2.0                                                  11/04/2020  14:53:46  PAGE 45


  C:7AD4H         LINE#         309
  C:7AD7H         LINE#         311
  C:7AEAH         LINE#         312
  C:7AEFH         LINE#         313
  C:7AF2H         LINE#         315
  C:7AFEH         LINE#         316
  C:7B01H         LINE#         317
  C:7B0AH         LINE#         319
  C:7B18H         LINE#         320
  C:7B26H         LINE#         321
  C:7B34H         LINE#         322
  -------         ENDPROC       _WRITE_EEPROM_TICKET
  -------         PROC          LEE_NO_TICKET
  -------         DO            
  D:0004H         SYMBOL        Noticket
  X:001DH         SYMBOL        Lee_No_Ticket
  D:0007H         SYMBOL        num_chr
  -------         ENDDO         
  C:AA75H         LINE#         327
  C:AA75H         LINE#         328
  C:AA75H         LINE#         332
  C:AA78H         LINE#         333
  C:AA93H         LINE#         334
  C:AA9CH         LINE#         335
  C:AAA8H         LINE#         336
  C:AAB1H         LINE#         337
  C:AABAH         LINE#         338
  C:AAC0H         LINE#         339
  -------         ENDPROC       LEE_NO_TICKET
  -------         PROC          READ_EEPROM_TICKET
  -------         DO            
  D:0001H         SYMBOL        cod3
  X:0028H         SYMBOL        cod2
  X:0029H         SYMBOL        cod1
  X:002AH         SYMBOL        cod0
  X:002BH         SYMBOL        Noticket
  -------         ENDDO         
  C:847DH         LINE#         343
  C:847DH         LINE#         344
  C:847DH         LINE#         346
  C:8487H         LINE#         347
  C:848EH         LINE#         348
  C:8498H         LINE#         349
  C:84A6H         LINE#         350
  C:84B0H         LINE#         352
  C:84D0H         LINE#         353
  C:84F5H         LINE#         354
  C:851AH         LINE#         355
  C:8538H         LINE#         356
  C:8546H         LINE#         357
  -------         ENDPROC       READ_EEPROM_TICKET
  -------         PROC          INCREMENTE_TICKET
  -------         DO            
  D:0004H         SYMBOL        Noticket
  X:0006H         SYMBOL        Lee_No_Ticket
  -------         ENDDO         
  C:B187H         LINE#         361
BL51 BANKED LINKER/LOCATER V6.22.2.0                                                  11/04/2020  14:53:46  PAGE 46


  C:B187H         LINE#         362
  C:B187H         LINE#         366
  C:B18AH         LINE#         367
  C:B197H         LINE#         368
  C:B1B2H         LINE#         369
  -------         ENDPROC       INCREMENTE_TICKET
  -------         PROC          _LEERMEMORIA
  X:009CH         SYMBOL        addres
  X:009EH         SYMBOL        res
  -------         DO            
  D:0007H         SYMBOL        i
  -------         ENDDO         
  C:A5E4H         LINE#         375
  C:A5F5H         LINE#         376
  C:A5F5H         LINE#         378
  C:A5F5H         LINE#         379
  C:A611H         LINE#         380
  C:A620H         LINE#         381
  C:A62EH         LINE#         382
  C:A638H         LINE#         383
  C:A63BH         LINE#         384
  -------         ENDPROC       _LEERMEMORIA
  -------         PROC          _ESCRIBIRMEMORIA
  X:005DH         SYMBOL        addres
  X:005FH         SYMBOL        res
  C:A50AH         LINE#         386
  C:A51BH         LINE#         387
  C:A51BH         LINE#         390
  C:A52BH         LINE#         391
  C:A532H         LINE#         392
  C:A535H         LINE#         394
  C:A543H         LINE#         395
  C:A54DH         LINE#         396
  C:A54FH         LINE#         397
  C:A552H         LINE#         398
  C:A560H         LINE#         399
  C:A56AH         LINE#         400
  -------         ENDPROC       _ESCRIBIRMEMORIA
  -------         ENDMOD        EEPROM

  -------         MODULE        IO_SENSORES
  C:0000H         SYMBOL        _ICE_DUMMY_
  D:0090H         PUBLIC        P1
  D:00B0H         PUBLIC        P3
  C:AD41H         PUBLIC        Dir_board
  C:B660H         PUBLIC        sel_Pulsa
  B:0090H.1       PUBLIC        DataIn
  C:B55CH         PUBLIC        Dir_Board_Monitor
  C:B659H         PUBLIC        sel_Auto
  C:B0E3H         PUBLIC        ValidaSensoresPaso
  B:00B0H.3       PUBLIC        busy
  C:B49FH         PUBLIC        ValidaSensor
  C:B66EH         PUBLIC        sel_Sensor1
  C:B667H         PUBLIC        sel_Sensor2
  C:A887H         PUBLIC        Valida_Sensor1_Auto
  B:00B0H.5       PUBLIC        sel_A
  B:00B0H.6       PUBLIC        sel_B
BL51 BANKED LINKER/LOCATER V6.22.2.0                                                  11/04/2020  14:53:46  PAGE 47


  B:00B0H.7       PUBLIC        sel_C
  C:9FC2H         PUBLIC        msj_lcd_informativo
  C:B675H         PUBLIC        sel_Dir1
  C:B67CH         PUBLIC        sel_Dir2
  C:B652H         PUBLIC        sel_Funcion
  -------         PROC          SEL_FUNCION
  C:B652H         LINE#         31
  C:B652H         LINE#         32
  C:B652H         LINE#         33
  C:B654H         LINE#         34
  C:B656H         LINE#         35
  C:B658H         LINE#         36
  -------         ENDPROC       SEL_FUNCION
  -------         PROC          SEL_AUTO
  C:B659H         LINE#         38
  C:B659H         LINE#         39
  C:B659H         LINE#         40
  C:B65BH         LINE#         41
  C:B65DH         LINE#         42
  C:B65FH         LINE#         43
  -------         ENDPROC       SEL_AUTO
  -------         PROC          SEL_PULSA
  C:B660H         LINE#         45
  C:B660H         LINE#         46
  C:B660H         LINE#         47
  C:B662H         LINE#         48
  C:B664H         LINE#         49
  C:B666H         LINE#         50
  -------         ENDPROC       SEL_PULSA
  -------         PROC          SEL_SENSOR2
  C:B667H         LINE#         53
  C:B667H         LINE#         54
  C:B667H         LINE#         55
  C:B669H         LINE#         56
  C:B66BH         LINE#         57
  C:B66DH         LINE#         58
  -------         ENDPROC       SEL_SENSOR2
  -------         PROC          SEL_SENSOR1
  C:B66EH         LINE#         60
  C:B66EH         LINE#         61
  C:B66EH         LINE#         62
  C:B670H         LINE#         63
  C:B672H         LINE#         64
  C:B674H         LINE#         65
  -------         ENDPROC       SEL_SENSOR1
  -------         PROC          SEL_DIR1
  C:B675H         LINE#         67
  C:B675H         LINE#         68
  C:B675H         LINE#         69
  C:B677H         LINE#         70
  C:B679H         LINE#         71
  C:B67BH         LINE#         72
  -------         ENDPROC       SEL_DIR1
  -------         PROC          SEL_DIR2
  C:B67CH         LINE#         74
  C:B67CH         LINE#         75
  C:B67CH         LINE#         76
BL51 BANKED LINKER/LOCATER V6.22.2.0                                                  11/04/2020  14:53:46  PAGE 48


  C:B67EH         LINE#         77
  C:B680H         LINE#         78
  C:B682H         LINE#         79
  -------         ENDPROC       SEL_DIR2
  -------         PROC          VALIDASENSOR
  -------         DO            
  D:0007H         SYMBOL        Valido
  D:0004H         SYMBOL        Tmin
  -------         ENDDO         
  C:B49FH         LINE#         81
  C:B49FH         LINE#         82
  C:B49FH         LINE#         84
  C:B4A1H         LINE#         85
  C:B4A5H         LINE#         86
  C:B4B0H         LINE#         87
  C:B4B0H         LINE#         88
  C:B4B5H         LINE#         89
  C:B4B9H         LINE#         90
  C:B4B9H         LINE#         91
  C:B4BBH         LINE#         92
  C:B4BBH         LINE#         93
  C:B4BDH         LINE#         94
  C:B4BDH         LINE#         95
  -------         ENDPROC       VALIDASENSOR
  -------         PROC          DIR_BOARD
  -------         DO            
  X:0032H         SYMBOL        Board
  D:0007H         SYMBOL        Board_High
  -------         ENDDO         
  C:AD41H         LINE#         99
  C:AD41H         LINE#         100
  C:AD41H         LINE#         101
  C:AD47H         LINE#         103
  C:AD4AH         LINE#         104
  C:AD4DH         LINE#         105
  C:AD4DH         LINE#         106
  C:AD50H         LINE#         107
  C:AD50H         LINE#         108
  C:AD53H         LINE#         109
  C:AD56H         LINE#         110
  C:AD56H         LINE#         111
  C:AD5DH         LINE#         112
  C:AD5DH         LINE#         113
  C:AD65H         LINE#         114
  C:AD65H         LINE#         115
  C:AD6DH         LINE#         117
  C:AD70H         LINE#         118
  C:AD70H         LINE#         119
  C:AD76H         LINE#         120
  C:AD76H         LINE#         121
  C:AD78H         LINE#         122
  C:AD7AH         LINE#         123
  C:AD7CH         LINE#         124
  C:AD7CH         LINE#         126
  C:AD7CH         LINE#         127
  C:AD83H         LINE#         128
  -------         ENDPROC       DIR_BOARD
BL51 BANKED LINKER/LOCATER V6.22.2.0                                                  11/04/2020  14:53:46  PAGE 49


  -------         PROC          DIR_BOARD_MONITOR
  -------         DO            
  D:0007H         SYMBOL        Board_High
  -------         ENDDO         
  C:B55CH         LINE#         129
  C:B55CH         LINE#         130
  C:B55CH         LINE#         133
  C:B565H         LINE#         134
  C:B568H         LINE#         135
  C:B568H         LINE#         136
  C:B56BH         LINE#         137
  C:B56BH         LINE#         138
  C:B56DH         LINE#         139
  C:B56DH         LINE#         140
  C:B56DH         LINE#         141
  C:B571H         LINE#         142
  -------         ENDPROC       DIR_BOARD_MONITOR
  -------         PROC          VALIDA_SENSOR1_AUTO
  -------         DO            
  X:0011H         SYMBOL        sensor
  -------         ENDDO         
  C:A887H         LINE#         146
  C:A887H         LINE#         147
  C:A887H         LINE#         149
  C:A88AH         LINE#         150
  C:A88DH         LINE#         151
  C:A890H         LINE#         152
  C:A895H         LINE#         153
  C:A895H         LINE#         154
  C:A89CH         LINE#         155
  C:A8A0H         LINE#         156
  C:A8A0H         LINE#         158
  C:A8A2H         LINE#         160
  C:A8A2H         LINE#         161
  C:A8A9H         LINE#         162
  C:A8AEH         LINE#         163
  C:A8AEH         LINE#         164
  C:A8AEH         LINE#         167
  C:A8B0H         LINE#         169
  C:A8B3H         LINE#         170
  C:A8B8H         LINE#         171
  C:A8B8H         LINE#         173
  C:A8BFH         LINE#         174
  C:A8C5H         LINE#         175
  C:A8CBH         LINE#         176
  C:A8CDH         LINE#         178
  C:A8CDH         LINE#         179
  C:A8D4H         LINE#         180
  C:A8D9H         LINE#         181
  C:A8D9H         LINE#         184
  C:A8D9H         LINE#         185
  C:A8DEH         LINE#         186
  -------         ENDPROC       VALIDA_SENSOR1_AUTO
  -------         PROC          VALIDASENSORESPASO
  -------         DO            
  X:0010H         SYMBOL        sensor
  -------         ENDDO         
BL51 BANKED LINKER/LOCATER V6.22.2.0                                                  11/04/2020  14:53:46  PAGE 50


  C:B0E3H         LINE#         191
  C:B0E3H         LINE#         192
  C:B0E3H         LINE#         194
  C:B0E6H         LINE#         195
  C:B0E9H         LINE#         196
  C:B0E9H         LINE#         197
  C:B0F7H         LINE#         198
  C:B0F7H         LINE#         199
  C:B0FFH         LINE#         201
  C:B101H         LINE#         203
  C:B101H         LINE#         204
  C:B107H         LINE#         205
  C:B109H         LINE#         206
  C:B109H         LINE#         207
  C:B109H         LINE#         208
  C:B109H         LINE#         209
  C:B112H         LINE#         210
  C:B115H         LINE#         211
  C:B115H         LINE#         212
  C:B11AH         LINE#         213
  -------         ENDPROC       VALIDASENSORESPASO
  -------         PROC          MSJ_LCD_INFORMATIVO
  -------         DO            
  X:0001H         SYMBOL        info
  X:0269H         SYMBOL        toggle
  -------         ENDDO         
  C:9FC2H         LINE#         223
  C:9FC2H         LINE#         224
  C:9FC2H         LINE#         225
  C:9FC7H         LINE#         227
  C:9FCAH         LINE#         228
  C:9FCDH         LINE#         229
  C:9FCDH         LINE#         230
  C:9FD9H         LINE#         231
  C:9FD9H         LINE#         232
  C:9FDCH         LINE#         233
  C:9FDCH         LINE#         234
  C:9FDEH         LINE#         235
  C:9FE1H         LINE#         236
  C:9FE7H         LINE#         237
  C:9FE7H         LINE#         238
  C:9FE9H         LINE#         239
  C:9FF7H         LINE#         240
  C:9FF7H         LINE#         241
  C:9FFAH         LINE#         242
  C:9FFAH         LINE#         243
  C:9FFCH         LINE#         244
  C:9FFFH         LINE#         245
  C:A005H         LINE#         246
  C:A005H         LINE#         247
  C:A007H         LINE#         248
  C:A015H         LINE#         249
  C:A015H         LINE#         250
  C:A018H         LINE#         251
  C:A018H         LINE#         252
  C:A01AH         LINE#         253
  C:A028H         LINE#         254
BL51 BANKED LINKER/LOCATER V6.22.2.0                                                  11/04/2020  14:53:46  PAGE 51


  C:A028H         LINE#         255
  C:A02AH         LINE#         256
  C:A031H         LINE#         258
  C:A036H         LINE#         259
  C:A036H         LINE#         261
  C:A036H         LINE#         263
  C:A036H         LINE#         265
  C:A039H         LINE#         266
  C:A03CH         LINE#         267
  C:A03CH         LINE#         268
  C:A041H         LINE#         269
  C:A041H         LINE#         271
  -------         ENDPROC       MSJ_LCD_INFORMATIVO
  -------         ENDMOD        IO_SENSORES

  -------         MODULE        PANTALLAS
  C:0000H         SYMBOL        _ICE_DUMMY_
  D:0080H         PUBLIC        P0
  C:A98DH         PUBLIC        Reloj_Pantalla_Lcd
  C:2646H         PUBLIC        _PantallaLCD
  C:AD05H         PUBLIC        _LCD_txt
  C:9C29H         PUBLIC        _Raspberry_data
  C:B38AH         PUBLIC        _tx_chrlcd
  C:3377H         SYMBOL        _?ix1000
  C:337DH         SYMBOL        _?ix1001
  C:3383H         SYMBOL        _?ix1002
  C:AC71H         PUBLIC        _LCD_txt_num_char
  X:0206H         PUBLIC        malloc_memoria
  C:48A0H         PUBLIC        _PantallaLCD_LINEA_2
  B:0098H.4       PUBLIC        REN
  B:0080H.7       PUBLIC        sel_com
  -------         PROC          _PANTALLALCD
  X:002AH         SYMBOL        cod_msg
  -------         DO            
  X:002BH         SYMBOL        Ini_LCD_Line_one
  X:0031H         SYMBOL        num_chr
  X:0032H         SYMBOL        msjpantalla
  -------         ENDDO         
  C:2646H         LINE#         90
  C:264BH         LINE#         91
  C:264BH         LINE#         93
  C:265EH         LINE#         100
  C:2669H         LINE#         101
  C:2678H         LINE#         102
  C:267AH         LINE#         104
  C:2683H         LINE#         105
  C:2683H         LINE#         106
  C:268DH         LINE#         108
  C:26E9H         LINE#         109
  C:26E9H         LINE#         111
  C:26E9H         LINE#         112
  C:26F7H         LINE#         113
  C:26FDH         LINE#         114
  C:2700H         LINE#         115
  C:2706H         LINE#         116
  C:2709H         LINE#         118
  C:2709H         LINE#         120
BL51 BANKED LINKER/LOCATER V6.22.2.0                                                  11/04/2020  14:53:46  PAGE 52


  C:2717H         LINE#         121
  C:271DH         LINE#         122
  C:2720H         LINE#         123
  C:2726H         LINE#         124
  C:2729H         LINE#         126
  C:2729H         LINE#         128
  C:2737H         LINE#         129
  C:273DH         LINE#         130
  C:2740H         LINE#         131
  C:2746H         LINE#         132
  C:2749H         LINE#         133
  C:2749H         LINE#         134
  C:2757H         LINE#         135
  C:275DH         LINE#         136
  C:2760H         LINE#         137
  C:2766H         LINE#         138
  C:2769H         LINE#         139
  C:2769H         LINE#         140
  C:2777H         LINE#         141
  C:277DH         LINE#         142
  C:2780H         LINE#         143
  C:2786H         LINE#         144
  C:2789H         LINE#         145
  C:2789H         LINE#         146
  C:2797H         LINE#         147
  C:279DH         LINE#         148
  C:27A0H         LINE#         149
  C:27A6H         LINE#         150
  C:27A9H         LINE#         151
  C:27A9H         LINE#         153
  C:27B7H         LINE#         154
  C:27BDH         LINE#         155
  C:27C0H         LINE#         156
  C:27C6H         LINE#         157
  C:27C9H         LINE#         158
  C:27C9H         LINE#         164
  C:27C9H         LINE#         165
  C:27D7H         LINE#         166
  C:27DDH         LINE#         167
  C:27E0H         LINE#         168
  C:27E6H         LINE#         169
  C:27E9H         LINE#         170
  C:27E9H         LINE#         171
  C:27F7H         LINE#         172
  C:27FDH         LINE#         173
  C:2800H         LINE#         174
  C:2806H         LINE#         175
  C:2809H         LINE#         177
  C:2809H         LINE#         178
  C:2817H         LINE#         179
  C:281DH         LINE#         180
  C:2820H         LINE#         181
  C:2826H         LINE#         182
  C:2829H         LINE#         184
  C:2829H         LINE#         185
  C:2837H         LINE#         186
  C:283DH         LINE#         187
BL51 BANKED LINKER/LOCATER V6.22.2.0                                                  11/04/2020  14:53:46  PAGE 53


  C:2840H         LINE#         188
  C:2846H         LINE#         189
  C:2849H         LINE#         194
  C:2849H         LINE#         196
  C:2857H         LINE#         197
  C:285DH         LINE#         198
  C:2860H         LINE#         199
  C:2866H         LINE#         200
  C:2869H         LINE#         202
  C:2869H         LINE#         204
  C:2877H         LINE#         205
  C:287DH         LINE#         206
  C:2880H         LINE#         207
  C:2886H         LINE#         208
  C:2889H         LINE#         210
  C:2889H         LINE#         211
  C:2897H         LINE#         212
  C:289DH         LINE#         213
  C:28A0H         LINE#         214
  C:28A6H         LINE#         215
  C:28A9H         LINE#         217
  C:28A9H         LINE#         219
  C:28B7H         LINE#         220
  C:28BDH         LINE#         221
  C:28C0H         LINE#         222
  C:28C6H         LINE#         223
  C:28C9H         LINE#         225
  C:28C9H         LINE#         227
  C:28D7H         LINE#         228
  C:28DDH         LINE#         229
  C:28E0H         LINE#         230
  C:28E6H         LINE#         231
  C:28E9H         LINE#         233
  C:28E9H         LINE#         234
  C:28F7H         LINE#         235
  C:28FDH         LINE#         236
  C:2900H         LINE#         237
  C:2906H         LINE#         238
  C:2909H         LINE#         240
  C:2909H         LINE#         241
  C:2917H         LINE#         242
  C:291DH         LINE#         243
  C:2920H         LINE#         244
  C:2926H         LINE#         245
  C:2929H         LINE#         247
  C:2929H         LINE#         249
  C:2937H         LINE#         250
  C:293DH         LINE#         251
  C:2940H         LINE#         252
  C:2946H         LINE#         253
  C:2949H         LINE#         255
  C:2949H         LINE#         256
  C:2957H         LINE#         257
  C:295DH         LINE#         258
  C:2960H         LINE#         259
  C:2966H         LINE#         260
  C:2969H         LINE#         261
BL51 BANKED LINKER/LOCATER V6.22.2.0                                                  11/04/2020  14:53:46  PAGE 54


  C:2969H         LINE#         262
  C:2977H         LINE#         263
  C:297DH         LINE#         264
  C:2980H         LINE#         265
  C:2986H         LINE#         266
  C:2989H         LINE#         267
  C:2989H         LINE#         268
  C:2997H         LINE#         269
  C:299DH         LINE#         270
  C:29A0H         LINE#         271
  C:29A6H         LINE#         272
  C:29A9H         LINE#         273
  C:29A9H         LINE#         274
  C:29B7H         LINE#         275
  C:29BAH         LINE#         276
  C:29C0H         LINE#         277
  C:29C2H         LINE#         281
  C:29C2H         LINE#         282
  C:29D0H         LINE#         283
  C:29D6H         LINE#         284
  C:29D9H         LINE#         285
  C:29DFH         LINE#         286
  C:29E1H         LINE#         287
  C:29E1H         LINE#         288
  C:29EFH         LINE#         289
  C:29F5H         LINE#         290
  C:29F8H         LINE#         291
  C:29FEH         LINE#         292
  C:2A00H         LINE#         293
  C:2A00H         LINE#         294
  C:2A0EH         LINE#         295
  C:2A14H         LINE#         296
  C:2A17H         LINE#         297
  C:2A22H         LINE#         298
  C:2A22H         LINE#         307
  C:2A22H         LINE#         309
  C:2A22H         LINE#         310
  C:2A22H         LINE#         311
  C:2A24H         LINE#         313
  C:2A25H         LINE#         315
  C:2A25H         LINE#         316
  C:2A27H         LINE#         317
  C:2A89H         LINE#         318
  C:2A89H         LINE#         321
  C:2A89H         LINE#         322
  C:2A9DH         LINE#         323
  C:2A9DH         LINE#         325
  C:2AA0H         LINE#         326
  C:2AA0H         LINE#         329
  C:2AB4H         LINE#         330
  C:2AB4H         LINE#         331
  C:2AB7H         LINE#         333
  C:2AB7H         LINE#         334
  C:2ACBH         LINE#         335
  C:2ACBH         LINE#         337
  C:2ACEH         LINE#         338
  C:2ACEH         LINE#         339
BL51 BANKED LINKER/LOCATER V6.22.2.0                                                  11/04/2020  14:53:46  PAGE 55


  C:2AE2H         LINE#         340
  C:2AE2H         LINE#         342
  C:2AE5H         LINE#         343
  C:2AE5H         LINE#         344
  C:2AF9H         LINE#         345
  C:2AF9H         LINE#         347
  C:2AFCH         LINE#         348
  C:2AFCH         LINE#         349
  C:2B10H         LINE#         350
  C:2B10H         LINE#         352
  C:2B13H         LINE#         353
  C:2B13H         LINE#         354
  C:2B27H         LINE#         355
  C:2B27H         LINE#         357
  C:2B2AH         LINE#         358
  C:2B2AH         LINE#         359
  C:2B3EH         LINE#         360
  C:2B3EH         LINE#         362
  C:2B41H         LINE#         364
  C:2B41H         LINE#         365
  C:2B55H         LINE#         366
  C:2B55H         LINE#         368
  C:2B58H         LINE#         370
  C:2B58H         LINE#         371
  C:2B6CH         LINE#         372
  C:2B6CH         LINE#         374
  C:2B6FH         LINE#         376
  C:2B6FH         LINE#         377
  C:2B83H         LINE#         378
  C:2B83H         LINE#         380
  C:2B86H         LINE#         382
  C:2B86H         LINE#         383
  C:2B9AH         LINE#         384
  C:2B9AH         LINE#         386
  C:2B9DH         LINE#         390
  C:2B9DH         LINE#         391
  C:2BB1H         LINE#         392
  C:2BB1H         LINE#         394
  C:2BB4H         LINE#         396
  C:2BB4H         LINE#         397
  C:2BC8H         LINE#         398
  C:2BC8H         LINE#         400
  C:2BCBH         LINE#         402
  C:2BCBH         LINE#         403
  C:2BDFH         LINE#         404
  C:2BDFH         LINE#         410
  C:2BE2H         LINE#         411
  C:2BE2H         LINE#         412
  C:2BF6H         LINE#         413
  C:2BF6H         LINE#         415
  C:2BF9H         LINE#         416
  C:2BF9H         LINE#         417
  C:2C0DH         LINE#         418
  C:2C0DH         LINE#         420
  C:2C10H         LINE#         421
  C:2C10H         LINE#         422
  C:2C24H         LINE#         423
BL51 BANKED LINKER/LOCATER V6.22.2.0                                                  11/04/2020  14:53:46  PAGE 56


  C:2C24H         LINE#         425
  C:2C27H         LINE#         426
  C:2C27H         LINE#         427
  C:2C3BH         LINE#         428
  C:2C3BH         LINE#         430
  C:2C3EH         LINE#         432
  C:2C3EH         LINE#         433
  C:2C52H         LINE#         434
  C:2C52H         LINE#         436
  C:2C55H         LINE#         438
  C:2C55H         LINE#         439
  C:2C69H         LINE#         440
  C:2C69H         LINE#         442
  C:2C6CH         LINE#         443
  C:2C6CH         LINE#         444
  C:2C80H         LINE#         445
  C:2C80H         LINE#         447
  C:2C83H         LINE#         448
  C:2C83H         LINE#         449
  C:2C97H         LINE#         450
  C:2C97H         LINE#         452
  C:2C9AH         LINE#         453
  C:2C9AH         LINE#         454
  C:2CAEH         LINE#         455
  C:2CAEH         LINE#         457
  C:2CB0H         LINE#         459
  C:2CB0H         LINE#         460
  C:2CC4H         LINE#         461
  C:2CC4H         LINE#         463
  C:2CC6H         LINE#         464
  C:2CC6H         LINE#         465
  C:2CDAH         LINE#         466
  C:2CDAH         LINE#         468
  C:2CDCH         LINE#         469
  C:2CDCH         LINE#         470
  C:2CF0H         LINE#         471
  C:2CF0H         LINE#         473
  C:2CF2H         LINE#         478
  C:2CF2H         LINE#         479
  C:2D06H         LINE#         480
  C:2D06H         LINE#         482
  C:2D08H         LINE#         483
  C:2D08H         LINE#         484
  C:2D1FH         LINE#         485
  C:2D25H         LINE#         487
  C:2D25H         LINE#         495
  C:2D25H         LINE#         496
  C:2D25H         LINE#         497
  C:2D25H         LINE#         498
  C:2D30H         LINE#         499
  C:2D37H         LINE#         500
  C:2D39H         LINE#         501
  C:2D39H         LINE#         505
  -------         ENDPROC       _PANTALLALCD
  -------         PROC          _PANTALLALCD_LINEA_2
  X:0010H         SYMBOL        cod_msg
  X:0011H         SYMBOL        buffer
BL51 BANKED LINKER/LOCATER V6.22.2.0                                                  11/04/2020  14:53:46  PAGE 57


  -------         DO            
  X:0014H         SYMBOL        Ini_LCD_Line_one
  X:001AH         SYMBOL        num_chr
  X:001BH         SYMBOL        msjpantalla
  -------         ENDDO         
  C:48A0H         LINE#         506
  C:48AEH         LINE#         507
  C:48AEH         LINE#         509
  C:48C1H         LINE#         513
  C:48CCH         LINE#         514
  C:48DBH         LINE#         518
  C:48DDH         LINE#         520
  C:48E6H         LINE#         521
  C:48E6H         LINE#         524
  C:48F4H         LINE#         525
  C:48F4H         LINE#         527
  C:48F4H         LINE#         528
  C:48F7H         LINE#         529
  C:4905H         LINE#         530
  C:491AH         LINE#         531
  C:4920H         LINE#         532
  C:4926H         LINE#         533
  C:492CH         LINE#         534
  C:492CH         LINE#         535
  C:492EH         LINE#         536
  C:492EH         LINE#         537
  C:4931H         LINE#         538
  C:493FH         LINE#         539
  C:4954H         LINE#         540
  C:495AH         LINE#         541
  C:4960H         LINE#         542
  C:496BH         LINE#         543
  C:497BH         LINE#         544
  C:497BH         LINE#         548
  C:497BH         LINE#         550
  C:497BH         LINE#         552
  C:497BH         LINE#         553
  C:497DH         LINE#         554
  C:497EH         LINE#         556
  C:497EH         LINE#         557
  C:4980H         LINE#         558
  C:499AH         LINE#         559
  C:499AH         LINE#         560
  C:499AH         LINE#         562
  C:49B1H         LINE#         563
  C:49B1H         LINE#         564
  C:49B1H         LINE#         565
  C:49B1H         LINE#         568
  C:49B4H         LINE#         570
  C:49B4H         LINE#         571
  C:49CBH         LINE#         572
  C:49DEH         LINE#         573
  C:49F8H         LINE#         574
  C:49F8H         LINE#         575
  C:49F8H         LINE#         576
  C:49F8H         LINE#         578
  C:49FBH         LINE#         579
BL51 BANKED LINKER/LOCATER V6.22.2.0                                                  11/04/2020  14:53:46  PAGE 58


  C:49FBH         LINE#         581
  C:4A0FH         LINE#         582
  C:4A12H         LINE#         583
  C:4A15H         LINE#         584
  C:4A15H         LINE#         586
  C:4A2AH         LINE#         588
  C:4A2AH         LINE#         589
  C:4A2CH         LINE#         591
  C:4A2CH         LINE#         593
  C:4A45H         LINE#         595
  C:4A48H         LINE#         597
  C:4A48H         LINE#         598
  C:4A5BH         LINE#         599
  C:4A5BH         LINE#         600
  C:4A62H         LINE#         602
  C:4A83H         LINE#         604
  C:4AA0H         LINE#         605
  C:4AA3H         LINE#         607
  C:4AA3H         LINE#         608
  C:4AAAH         LINE#         610
  C:4AAAH         LINE#         611
  C:4AAAH         LINE#         614
  C:4AADH         LINE#         616
  C:4AADH         LINE#         617
  C:4AC4H         LINE#         618
  C:4AD7H         LINE#         619
  C:4AF1H         LINE#         620
  C:4B1DH         LINE#         621
  C:4B3AH         LINE#         622
  C:4B3DH         LINE#         624
  C:4B3DH         LINE#         626
  C:4B3DH         LINE#         628
  C:4B3DH         LINE#         629
  C:4B3DH         LINE#         630
  C:4B48H         LINE#         631
  C:4B4FH         LINE#         632
  C:4B51H         LINE#         633
  C:4B51H         LINE#         634
  -------         ENDPROC       _PANTALLALCD_LINEA_2
  C:B381H         SYMBOL        L?0164
  C:B384H         SYMBOL        L?0165
  C:B385H         SYMBOL        L?0166
  -------         PROC          L?0163
  -------         ENDPROC       L?0163
  C:B381H         SYMBOL        L?0164
  C:B384H         SYMBOL        L?0165
  C:B385H         SYMBOL        L?0166
  -------         PROC          _TX_CHRLCD
  D:0007H         SYMBOL        data_com
  X:0039H         SYMBOL        enable_char_add
  -------         DO            
  X:003AH         SYMBOL        d
  -------         ENDDO         
  C:B38AH         LINE#         640
  C:B38FH         LINE#         641
  C:B38FH         LINE#         643
  C:B397H         LINE#         644
BL51 BANKED LINKER/LOCATER V6.22.2.0                                                  11/04/2020  14:53:46  PAGE 59


  C:B3A7H         LINE#         646
  -------         ENDPROC       _TX_CHRLCD
  -------         PROC          L?0170
  -------         ENDPROC       L?0170
  -------         PROC          _LCD_TXT
  X:0034H         SYMBOL        msg
  X:0037H         SYMBOL        enable_char_add
  -------         DO            
  X:0038H         SYMBOL        i
  -------         ENDDO         
  C:AD05H         LINE#         653
  C:AD13H         LINE#         654
  C:AD13H         LINE#         657
  C:AD30H         LINE#         658
  C:AD30H         LINE#         659
  C:AD38H         LINE#         660
  C:AD40H         LINE#         661
  -------         ENDPROC       _LCD_TXT
  -------         PROC          _LCD_TXT_NUM_CHAR
  X:001DH         SYMBOL        msg
  X:0020H         SYMBOL        length_char
  X:0021H         SYMBOL        enable_char_add
  -------         DO            
  X:0022H         SYMBOL        i
  -------         ENDDO         
  C:AC71H         LINE#         668
  C:AC7FH         LINE#         669
  C:AC7FH         LINE#         672
  C:AC92H         LINE#         673
  C:AC92H         LINE#         674
  C:ACAEH         LINE#         675
  C:ACB6H         LINE#         676
  -------         ENDPROC       _LCD_TXT_NUM_CHAR
  C:9C1DH         SYMBOL        L?0168
  C:9C20H         SYMBOL        L?0169
  -------         PROC          L?0167
  -------         ENDPROC       L?0167
  C:9C1DH         SYMBOL        L?0168
  C:9C20H         SYMBOL        L?0169
  -------         PROC          _RASPBERRY_DATA
  X:0034H         SYMBOL        msjpantalla
  -------         DO            
  X:0037H         SYMBOL        i
  X:0038H         SYMBOL        lenth_cadena
  X:0039H         SYMBOL        d
  -------         ENDDO         
  C:9C29H         LINE#         678
  C:9C34H         LINE#         679
  C:9C34H         LINE#         684
  C:9C3CH         LINE#         686
  C:9C4EH         LINE#         687
  C:9C4EH         LINE#         689
  C:9C60H         LINE#         690
  C:9C60H         LINE#         691
  C:9C65H         LINE#         692
  C:9C83H         LINE#         694
  C:9C8BH         LINE#         697
BL51 BANKED LINKER/LOCATER V6.22.2.0                                                  11/04/2020  14:53:46  PAGE 60


  C:9C9DH         LINE#         698
  C:9C9DH         LINE#         700
  C:9CA2H         LINE#         702
  -------         ENDPROC       _RASPBERRY_DATA
  -------         PROC          RELOJ_PANTALLA_LCD
  -------         DO            
  X:0010H         SYMBOL        Ini_Clock_LCD
  -------         ENDDO         
  C:A98DH         LINE#         710
  C:A98DH         LINE#         711
  C:A98DH         LINE#         713
  C:A9A0H         LINE#         714
  C:A9A6H         LINE#         715
  C:A9A6H         LINE#         716
  C:A9A8H         LINE#         717
  C:A9B1H         LINE#         721
  C:A9B3H         LINE#         722
  C:A9C3H         LINE#         724
  C:A9C5H         LINE#         725
  C:A9C7H         LINE#         727
  C:A9C8H         LINE#         729
  C:A9C8H         LINE#         730
  C:A9CAH         LINE#         731
  C:A9CFH         LINE#         732
  C:A9D8H         LINE#         736
  C:A9DAH         LINE#         737
  C:A9DAH         LINE#         738
  -------         ENDPROC       RELOJ_PANTALLA_LCD
  -------         ENDMOD        PANTALLAS

  -------         MODULE        PROG
  C:0000H         SYMBOL        _ICE_DUMMY_
  C:5180H         PUBLIC        Prog_fecha_vencimiento
  C:63BCH         PUBLIC        Prog_Sin_Cobro
  C:6D21H         PUBLIC        _Ver_Horario_Desde_Hasta
  C:736DH         PUBLIC        Prog_debug
  C:7661H         PUBLIC        Prog_AntiPassBack
  C:9966H         PUBLIC        _GetOption
  X:01B1H         PUBLIC        validacion
  C:7859H         PUBLIC        Prog_Validar_Tipo_Vehiculo_Mensual
  X:01BCH         PUBLIC        cursor
  C:6C07H         PUBLIC        _Prog_Horarios_on_off
  C:9543H         PUBLIC        Show
  C:3C7FH         PUBLIC        Ver_Prog
  C:B1BBH         PUBLIC        Addr_Horarios
  C:8CD0H         PUBLIC        prog_id_cliente
  C:AD8CH         PUBLIC        _ValidarClave
  C:4B52H         PUBLIC        menu
  C:7469H         PUBLIC        Prog_Use_Lpr
  C:A6B0H         PUBLIC        _ListaComandos
  C:12F7H         SYMBOL        _?ix1000
  C:1302H         SYMBOL        _?ix1001
  C:1312H         SYMBOL        _?ix1002
  C:1322H         SYMBOL        _?ix1003
  C:1326H         SYMBOL        _?ix1004
  C:5FF6H         PUBLIC        Prog_Horarios
  C:132AH         SYMBOL        _?ix1005
BL51 BANKED LINKER/LOCATER V6.22.2.0                                                  11/04/2020  14:53:46  PAGE 61


  C:7955H         PUBLIC        Prog_Apb_Mensual
  C:885BH         PUBLIC        Prog_tarjeta_automatica_o_boton
  C:4D7EH         PUBLIC        _hash_id
  C:45E9H         PUBLIC        _Prog_Horario_dias
  C:8B59H         PUBLIC        Prog_tiempo_gracia
  C:A04AH         PUBLIC        _IngresaDato
  X:01D0H         PUBLIC        comandos
  C:AB55H         PUBLIC        First_Clave
  C:B52EH         PUBLIC        DisplayCursor
  C:775DH         PUBLIC        Prog_Placa
  C:8A9CH         PUBLIC        prog_cod_park
  C:6638H         PUBLIC        Ver_Horario
  C:69C3H         PUBLIC        _Ver_Horario_dias
  C:4F86H         PUBLIC        _Prog_Horario_Desde_Hasta
  C:7565H         PUBLIC        tipo_pantalla
  C:7D10H         PUBLIC        Prog_Address_High_Board
  C:AE4EH         PUBLIC        _GetCMD
  -------         PROC          _HASH_ID
  X:005DH         SYMBOL        clave
  -------         DO            
  X:0060H         SYMBOL        len_clave
  X:0061H         SYMBOL        i
  X:01ADH         SYMBOL        temp
  X:01AFH         SYMBOL        temp1
  X:0062H         SYMBOL        aleatorio
  X:006DH         SYMBOL        suma
  X:007DH         SYMBOL        xxor
  X:008DH         SYMBOL        usuario1
  X:0098H         SYMBOL        vencimiento_password
  -------         ENDDO         
  C:4D7EH         LINE#         121
  C:4D89H         LINE#         122
  C:4D89H         LINE#         125
  C:4D9CH         LINE#         127
  C:4DAFH         LINE#         128
  C:4DC2H         LINE#         132
  C:4DCFH         LINE#         133
  C:4DEBH         LINE#         135
  C:4DEBH         LINE#         136
  C:4DEFH         LINE#         137
  C:4DF1H         LINE#         139
  C:4DF1H         LINE#         140
  C:4DF8H         LINE#         141
  C:4DF8H         LINE#         142
  C:4E0BH         LINE#         143
  C:4E1FH         LINE#         144
  C:4E1FH         LINE#         145
  C:4E4BH         LINE#         146
  C:4E56H         LINE#         147
  C:4E63H         LINE#         148
  C:4E81H         LINE#         149
  C:4E8CH         LINE#         150
  C:4E99H         LINE#         151
  C:4EBDH         LINE#         152
  C:4EC5H         LINE#         153
  C:4EC5H         LINE#         154
  C:4ECAH         LINE#         155
BL51 BANKED LINKER/LOCATER V6.22.2.0                                                  11/04/2020  14:53:46  PAGE 62


  C:4ECAH         LINE#         156
  C:4EE3H         LINE#         157
  C:4EE3H         LINE#         158
  C:4EEFH         LINE#         160
  C:4EEFH         LINE#         161
  C:4EFEH         LINE#         162
  C:4EFEH         LINE#         163
  C:4F0AH         LINE#         164
  C:4F0AH         LINE#         165
  C:4F23H         LINE#         166
  C:4F23H         LINE#         167
  C:4F2EH         LINE#         168
  C:4F2EH         LINE#         169
  C:4F47H         LINE#         170
  C:4F47H         LINE#         171
  C:4F52H         LINE#         172
  C:4F52H         LINE#         173
  C:4F67H         LINE#         175
  C:4F70H         LINE#         176
  C:4F7FH         LINE#         178
  C:4F85H         LINE#         179
  -------         ENDPROC       _HASH_ID
  -------         PROC          _LISTACOMANDOS
  X:0046H         SYMBOL        cmd
  -------         DO            
  X:0049H         SYMBOL        buf
  X:004CH         SYMBOL        i
  -------         ENDDO         
  C:A6B0H         LINE#         186
  C:A6BBH         LINE#         187
  C:A6BBH         LINE#         191
  C:A6CEH         LINE#         192
  C:A6CEH         LINE#         193
  C:A6E6H         LINE#         194
  C:A701H         LINE#         195
  C:A707H         LINE#         196
  C:A70FH         LINE#         198
  C:A711H         LINE#         199
  -------         ENDPROC       _LISTACOMANDOS
  -------         PROC          L?0274
  -------         ENDPROC       L?0274
  -------         PROC          _VALIDARCLAVE
  X:005DH         SYMBOL        buffer
  -------         DO            
  X:0060H         SYMBOL        buf
  -------         ENDDO         
  C:AD8CH         LINE#         205
  C:AD97H         LINE#         206
  C:AD97H         LINE#         209
  C:ADA6H         LINE#         210
  C:ADC1H         LINE#         211
  C:ADC3H         LINE#         214
  C:ADC5H         LINE#         215
  -------         ENDPROC       _VALIDARCLAVE
  -------         PROC          L?0275
  -------         ENDPROC       L?0275
  -------         PROC          _GETCMD
BL51 BANKED LINKER/LOCATER V6.22.2.0                                                  11/04/2020  14:53:46  PAGE 63


  X:005DH         SYMBOL        in
  -------         DO            
  X:0060H         SYMBOL        tokens
  -------         ENDDO         
  C:AE4EH         LINE#         222
  C:AE59H         LINE#         223
  C:AE59H         LINE#         224
  C:AE6CH         LINE#         225
  -------         ENDPROC       _GETCMD
  -------         PROC          L?0273
  -------         ENDPROC       L?0273
  -------         PROC          _GETOPTION
  X:0046H         SYMBOL        in
  -------         DO            
  X:0049H         SYMBOL        tokensSpace
  X:004DH         SYMBOL        tokensQuote
  -------         ENDDO         
  C:9966H         LINE#         231
  C:9971H         LINE#         232
  C:9971H         LINE#         233
  C:9984H         LINE#         234
  C:9997H         LINE#         237
  C:99A9H         LINE#         238
  C:99B5H         LINE#         241
  C:99BCH         LINE#         242
  C:99C9H         LINE#         244
  C:99E2H         LINE#         245
  -------         ENDPROC       _GETOPTION
  -------         PROC          DISPLAYCURSOR
  C:B52EH         LINE#         250
  C:B52EH         LINE#         251
  C:B52EH         LINE#         252
  -------         ENDPROC       DISPLAYCURSOR
  C:A046H         SYMBOL        L?0272
  -------         PROC          L?0271
  -------         ENDPROC       L?0271
  C:A046H         SYMBOL        L?0272
  -------         PROC          _INGRESADATO
  X:0071H         SYMBOL        buffer
  X:0074H         SYMBOL        modo
  -------         DO            
  D:0006H         SYMBOL        i
  -------         ENDDO         
  C:A04AH         LINE#         259
  C:A058H         LINE#         260
  C:A058H         LINE#         265
  C:A058H         LINE#         266
  C:A06AH         LINE#         267
  C:A070H         LINE#         268
  C:A070H         LINE#         269
  C:A08BH         LINE#         270
  C:A08DH         LINE#         272
  C:A08DH         LINE#         273
  C:A092H         LINE#         274
  C:A092H         LINE#         275
  C:A0A3H         LINE#         276
  C:A0ADH         LINE#         277
BL51 BANKED LINKER/LOCATER V6.22.2.0                                                  11/04/2020  14:53:46  PAGE 64


  C:A0BCH         LINE#         279
  C:A0C1H         LINE#         283
  -------         ENDPROC       _INGRESADATO
  -------         PROC          PROG_ID_CLIENTE
  -------         DO            
  X:0046H         SYMBOL        buffer
  X:0050H         SYMBOL        dataee
  -------         ENDDO         
  C:8CD0H         LINE#         300
  C:8CD0H         LINE#         301
  C:8CD0H         LINE#         305
  C:8CE2H         LINE#         306
  C:8CFFH         LINE#         308
  C:8D16H         LINE#         310
  C:8D1FH         LINE#         311
  C:8D26H         LINE#         312
  C:8D37H         LINE#         313
  C:8D40H         LINE#         315
  C:8D52H         LINE#         316
  C:8D6FH         LINE#         317
  -------         ENDPROC       PROG_ID_CLIENTE
  -------         PROC          PROG_COD_PARK
  -------         DO            
  X:0046H         SYMBOL        buffer
  X:0050H         SYMBOL        dataee
  -------         ENDDO         
  C:8A9CH         LINE#         322
  C:8A9CH         LINE#         323
  C:8A9CH         LINE#         327
  C:8AAFH         LINE#         328
  C:8ACCH         LINE#         330
  C:8AE3H         LINE#         332
  C:8AECH         LINE#         333
  C:8AF7H         LINE#         334
  C:8B08H         LINE#         335
  C:8B12H         LINE#         337
  C:8B25H         LINE#         338
  C:8B42H         LINE#         339
  -------         ENDPROC       PROG_COD_PARK
  -------         PROC          PROG_TIEMPO_GRACIA
  -------         DO            
  X:0046H         SYMBOL        buffer
  X:0050H         SYMBOL        dataee
  -------         ENDDO         
  C:8B59H         LINE#         344
  C:8B59H         LINE#         345
  C:8B59H         LINE#         349
  C:8B6CH         LINE#         350
  C:8B89H         LINE#         352
  C:8BA0H         LINE#         354
  C:8BA9H         LINE#         355
  C:8BB4H         LINE#         356
  C:8BC5H         LINE#         357
  C:8BCFH         LINE#         359
  C:8BE2H         LINE#         360
  C:8BFFH         LINE#         361
  -------         ENDPROC       PROG_TIEMPO_GRACIA
BL51 BANKED LINKER/LOCATER V6.22.2.0                                                  11/04/2020  14:53:46  PAGE 65


  -------         PROC          PROG_SIN_COBRO
  -------         DO            
  X:0046H         SYMBOL        buffer
  X:0050H         SYMBOL        dataee
  -------         ENDDO         
  C:63BCH         LINE#         367
  C:63BCH         LINE#         368
  C:63BCH         LINE#         374
  C:63CFH         LINE#         375
  C:63ECH         LINE#         376
  C:63F6H         LINE#         377
  C:63F6H         LINE#         378
  C:6409H         LINE#         379
  C:640BH         LINE#         380
  C:6417H         LINE#         381
  C:6417H         LINE#         382
  C:642AH         LINE#         383
  C:642CH         LINE#         385
  C:642CH         LINE#         386
  C:6443H         LINE#         387
  C:6443H         LINE#         389
  C:644CH         LINE#         390
  C:6457H         LINE#         391
  C:6468H         LINE#         392
  C:6472H         LINE#         394
  C:6485H         LINE#         395
  C:64A2H         LINE#         396
  C:64ACH         LINE#         397
  C:64ACH         LINE#         398
  C:64BFH         LINE#         399
  C:64C1H         LINE#         400
  C:64CDH         LINE#         401
  C:64CDH         LINE#         402
  C:64E0H         LINE#         403
  C:64E2H         LINE#         405
  C:64E2H         LINE#         406
  C:64F9H         LINE#         407
  C:64F9H         LINE#         409
  -------         ENDPROC       PROG_SIN_COBRO
  -------         PROC          PROG_DEBUG
  -------         DO            
  X:0046H         SYMBOL        buffer
  X:0050H         SYMBOL        dataee
  -------         ENDDO         
  C:736DH         LINE#         415
  C:736DH         LINE#         416
  C:736DH         LINE#         421
  C:7380H         LINE#         422
  C:739DH         LINE#         423
  C:73A7H         LINE#         424
  C:73A7H         LINE#         425
  C:73BAH         LINE#         426
  C:73BCH         LINE#         428
  C:73BCH         LINE#         429
  C:73D3H         LINE#         430
  C:73D3H         LINE#         432
  C:73DCH         LINE#         433
BL51 BANKED LINKER/LOCATER V6.22.2.0                                                  11/04/2020  14:53:46  PAGE 66


  C:73E7H         LINE#         434
  C:73F8H         LINE#         435
  C:7402H         LINE#         437
  C:7415H         LINE#         438
  C:7432H         LINE#         439
  C:743CH         LINE#         440
  C:743CH         LINE#         441
  C:744FH         LINE#         442
  C:7451H         LINE#         444
  C:7451H         LINE#         445
  C:7468H         LINE#         446
  C:7468H         LINE#         447
  -------         ENDPROC       PROG_DEBUG
  -------         PROC          PROG_USE_LPR
  -------         DO            
  X:0046H         SYMBOL        buffer
  X:0050H         SYMBOL        dataee
  -------         ENDDO         
  C:7469H         LINE#         452
  C:7469H         LINE#         453
  C:7469H         LINE#         458
  C:747CH         LINE#         459
  C:7499H         LINE#         460
  C:74A3H         LINE#         461
  C:74A3H         LINE#         462
  C:74B6H         LINE#         463
  C:74B8H         LINE#         465
  C:74B8H         LINE#         466
  C:74CFH         LINE#         467
  C:74CFH         LINE#         469
  C:74D8H         LINE#         470
  C:74E3H         LINE#         471
  C:74F4H         LINE#         472
  C:74FEH         LINE#         474
  C:7511H         LINE#         475
  C:752EH         LINE#         476
  C:7538H         LINE#         477
  C:7538H         LINE#         478
  C:754BH         LINE#         479
  C:754DH         LINE#         481
  C:754DH         LINE#         482
  C:7564H         LINE#         483
  C:7564H         LINE#         484
  -------         ENDPROC       PROG_USE_LPR
  -------         PROC          TIPO_PANTALLA
  -------         DO            
  X:0046H         SYMBOL        buffer
  X:0050H         SYMBOL        dataee
  -------         ENDDO         
  C:7565H         LINE#         491
  C:7565H         LINE#         492
  C:7565H         LINE#         497
  C:7578H         LINE#         498
  C:7595H         LINE#         499
  C:759FH         LINE#         500
  C:759FH         LINE#         501
  C:75B2H         LINE#         502
BL51 BANKED LINKER/LOCATER V6.22.2.0                                                  11/04/2020  14:53:46  PAGE 67


  C:75B4H         LINE#         504
  C:75B4H         LINE#         505
  C:75CBH         LINE#         506
  C:75CBH         LINE#         508
  C:75D4H         LINE#         509
  C:75DFH         LINE#         510
  C:75F0H         LINE#         511
  C:75FAH         LINE#         513
  C:760DH         LINE#         514
  C:762AH         LINE#         515
  C:7634H         LINE#         516
  C:7634H         LINE#         517
  C:7647H         LINE#         518
  C:7649H         LINE#         520
  C:7649H         LINE#         521
  C:7660H         LINE#         522
  C:7660H         LINE#         524
  -------         ENDPROC       TIPO_PANTALLA
  -------         PROC          PROG_TARJETA_AUTOMATICA_O_BOTON
  -------         DO            
  X:0046H         SYMBOL        buffer
  X:0050H         SYMBOL        dataee
  -------         ENDDO         
  C:885BH         LINE#         525
  C:885BH         LINE#         526
  C:885BH         LINE#         531
  C:886EH         LINE#         532
  C:888BH         LINE#         533
  C:8897H         LINE#         534
  C:8897H         LINE#         535
  C:889BH         LINE#         536
  C:889DH         LINE#         538
  C:889DH         LINE#         539
  C:88A4H         LINE#         540
  C:88A4H         LINE#         542
  C:88ADH         LINE#         543
  C:88B8H         LINE#         544
  C:88C9H         LINE#         545
  C:88D3H         LINE#         547
  C:88E6H         LINE#         548
  C:8903H         LINE#         549
  C:890FH         LINE#         550
  C:890FH         LINE#         551
  C:8913H         LINE#         552
  C:8915H         LINE#         554
  C:8915H         LINE#         555
  C:891CH         LINE#         556
  C:891CH         LINE#         557
  -------         ENDPROC       PROG_TARJETA_AUTOMATICA_O_BOTON
  -------         PROC          PROG_ANTIPASSBACK
  -------         DO            
  X:0046H         SYMBOL        buffer
  X:0050H         SYMBOL        dataee
  -------         ENDDO         
  C:7661H         LINE#         558
  C:7661H         LINE#         559
  C:7661H         LINE#         564
BL51 BANKED LINKER/LOCATER V6.22.2.0                                                  11/04/2020  14:53:46  PAGE 68


  C:7674H         LINE#         565
  C:7691H         LINE#         566
  C:769BH         LINE#         567
  C:769BH         LINE#         568
  C:76AEH         LINE#         569
  C:76B0H         LINE#         571
  C:76B0H         LINE#         572
  C:76C7H         LINE#         573
  C:76C7H         LINE#         575
  C:76D0H         LINE#         576
  C:76DBH         LINE#         577
  C:76ECH         LINE#         578
  C:76F6H         LINE#         580
  C:7709H         LINE#         581
  C:7726H         LINE#         582
  C:7730H         LINE#         583
  C:7730H         LINE#         584
  C:7743H         LINE#         585
  C:7745H         LINE#         587
  C:7745H         LINE#         588
  C:775CH         LINE#         589
  C:775CH         LINE#         590
  -------         ENDPROC       PROG_ANTIPASSBACK
  -------         PROC          PROG_PLACA
  -------         DO            
  X:0046H         SYMBOL        buffer
  X:0050H         SYMBOL        dataee
  -------         ENDDO         
  C:775DH         LINE#         591
  C:775DH         LINE#         592
  C:775DH         LINE#         597
  C:7770H         LINE#         598
  C:778DH         LINE#         599
  C:7797H         LINE#         600
  C:7797H         LINE#         601
  C:77AAH         LINE#         602
  C:77ACH         LINE#         604
  C:77ACH         LINE#         605
  C:77C3H         LINE#         606
  C:77C3H         LINE#         608
  C:77CCH         LINE#         609
  C:77D7H         LINE#         610
  C:77E8H         LINE#         611
  C:77F2H         LINE#         613
  C:7805H         LINE#         614
  C:7822H         LINE#         615
  C:782CH         LINE#         616
  C:782CH         LINE#         617
  C:783FH         LINE#         618
  C:7841H         LINE#         620
  C:7841H         LINE#         621
  C:7858H         LINE#         622
  C:7858H         LINE#         623
  -------         ENDPROC       PROG_PLACA
  -------         PROC          PROG_ADDRESS_HIGH_BOARD
  -------         DO            
  X:0046H         SYMBOL        buffer
BL51 BANKED LINKER/LOCATER V6.22.2.0                                                  11/04/2020  14:53:46  PAGE 69


  X:0050H         SYMBOL        dataee
  -------         ENDDO         
  C:7D10H         LINE#         624
  C:7D10H         LINE#         625
  C:7D10H         LINE#         630
  C:7D23H         LINE#         631
  C:7D40H         LINE#         632
  C:7D4AH         LINE#         633
  C:7D4AH         LINE#         634
  C:7D4EH         LINE#         635
  C:7D50H         LINE#         637
  C:7D50H         LINE#         638
  C:7D67H         LINE#         639
  C:7D67H         LINE#         641
  C:7D70H         LINE#         642
  C:7D7BH         LINE#         643
  C:7D8CH         LINE#         644
  C:7D96H         LINE#         646
  C:7DA9H         LINE#         647
  C:7DC6H         LINE#         648
  C:7DD0H         LINE#         649
  C:7DD0H         LINE#         650
  C:7DD4H         LINE#         651
  C:7DD6H         LINE#         653
  C:7DD6H         LINE#         654
  C:7DEDH         LINE#         655
  C:7DEDH         LINE#         656
  -------         ENDPROC       PROG_ADDRESS_HIGH_BOARD
  -------         PROC          ADDR_HORARIOS
  -------         DO            
  X:0074H         SYMBOL        ee_addr_horario
  -------         ENDDO         
  C:B1BBH         LINE#         658
  C:B1BBH         LINE#         659
  C:B1BBH         LINE#         662
  C:B1C1H         LINE#         663
  C:B1C5H         LINE#         664
  C:B1C9H         LINE#         665
  C:B1CDH         LINE#         666
  C:B1D1H         LINE#         667
  C:B1D5H         LINE#         668
  C:B1D9H         LINE#         669
  C:B1DDH         LINE#         670
  C:B1E1H         LINE#         671
  C:B1E5H         LINE#         672
  C:B1E8H         LINE#         673
  C:B1EEH         LINE#         674
  -------         ENDPROC       ADDR_HORARIOS
  -------         PROC          _PROG_HORARIOS_ON_OFF
  X:0061H         SYMBOL        addr
  -------         DO            
  X:0063H         SYMBOL        buffer
  X:006DH         SYMBOL        dataee
  X:006FH         SYMBOL        habilitado
  -------         ENDDO         
  C:6C07H         LINE#         675
  C:6C11H         LINE#         676
BL51 BANKED LINKER/LOCATER V6.22.2.0                                                  11/04/2020  14:53:46  PAGE 70


  C:6C11H         LINE#         679
  C:6C20H         LINE#         680
  C:6C3DH         LINE#         681
  C:6C47H         LINE#         682
  C:6C47H         LINE#         683
  C:6C5AH         LINE#         684
  C:6C5CH         LINE#         686
  C:6C5CH         LINE#         687
  C:6C73H         LINE#         688
  C:6C73H         LINE#         689
  C:6C7CH         LINE#         690
  C:6C87H         LINE#         691
  C:6C98H         LINE#         692
  C:6CA7H         LINE#         694
  C:6CBEH         LINE#         695
  C:6CDBH         LINE#         696
  C:6CE8H         LINE#         697
  C:6CE8H         LINE#         698
  C:6CEBH         LINE#         699
  C:6CFEH         LINE#         700
  C:6D00H         LINE#         702
  C:6D00H         LINE#         703
  C:6D05H         LINE#         704
  C:6D1AH         LINE#         705
  C:6D1AH         LINE#         706
  C:6D20H         LINE#         707
  -------         ENDPROC       _PROG_HORARIOS_ON_OFF
  -------         PROC          _PROG_HORARIO_DESDE_HASTA
  X:0061H         SYMBOL        addr
  -------         DO            
  X:0063H         SYMBOL        buffer
  D:0007H         SYMBOL        dataee
  -------         ENDDO         
  C:4F86H         LINE#         708
  C:4F8EH         LINE#         709
  C:4F8EH         LINE#         714
  C:4F97H         LINE#         715
  C:4F9AH         LINE#         716
  C:4FA3H         LINE#         717
  C:4FBBH         LINE#         718
  C:4FCEH         LINE#         719
  C:4FDCH         LINE#         720
  C:4FF4H         LINE#         721
  C:5007H         LINE#         722
  C:5015H         LINE#         723
  C:502DH         LINE#         724
  C:5040H         LINE#         725
  C:504EH         LINE#         726
  C:5066H         LINE#         727
  C:5079H         LINE#         728
  C:5087H         LINE#         732
  C:5090H         LINE#         733
  C:5093H         LINE#         735
  C:509CH         LINE#         737
  C:50B4H         LINE#         738
  C:50C7H         LINE#         739
  C:50D5H         LINE#         740
BL51 BANKED LINKER/LOCATER V6.22.2.0                                                  11/04/2020  14:53:46  PAGE 71


  C:50EDH         LINE#         741
  C:5100H         LINE#         742
  C:510EH         LINE#         743
  C:5126H         LINE#         744
  C:5139H         LINE#         745
  C:5147H         LINE#         746
  C:515FH         LINE#         747
  C:5172H         LINE#         748
  -------         ENDPROC       _PROG_HORARIO_DESDE_HASTA
  -------         PROC          _VER_HORARIO_DESDE_HASTA
  X:0074H         SYMBOL        addr
  -------         DO            
  D:0007H         SYMBOL        dataee
  -------         ENDDO         
  C:6D21H         LINE#         750
  C:6D29H         LINE#         751
  C:6D29H         LINE#         753
  C:6D32H         LINE#         754
  C:6D45H         LINE#         755
  C:6D53H         LINE#         756
  C:6D66H         LINE#         757
  C:6D74H         LINE#         758
  C:6D87H         LINE#         759
  C:6D95H         LINE#         760
  C:6DA8H         LINE#         761
  C:6DB6H         LINE#         763
  C:6DC9H         LINE#         764
  C:6DD7H         LINE#         766
  C:6DEAH         LINE#         767
  C:6DF8H         LINE#         769
  C:6E0BH         LINE#         770
  C:6E19H         LINE#         772
  C:6E2CH         LINE#         773
  -------         ENDPROC       _VER_HORARIO_DESDE_HASTA
  -------         PROC          _PROG_HORARIO_DIAS
  X:0061H         SYMBOL        addr
  -------         DO            
  X:0063H         SYMBOL        buffer
  X:006DH         SYMBOL        dataee
  X:006EH         SYMBOL        j
  X:006FH         SYMBOL        temp
  -------         ENDDO         
  C:45E9H         LINE#         775
  C:45F1H         LINE#         776
  C:45F1H         LINE#         780
  C:45FAH         LINE#         781
  C:4603H         LINE#         782
  C:460CH         LINE#         783
  C:4617H         LINE#         786
  C:4620H         LINE#         788
  C:4636H         LINE#         789
  C:4636H         LINE#         791
  C:4649H         LINE#         792
  C:4649H         LINE#         793
  C:4652H         LINE#         795
  C:4667H         LINE#         796
  C:467FH         LINE#         797
BL51 BANKED LINKER/LOCATER V6.22.2.0                                                  11/04/2020  14:53:46  PAGE 72


  C:468CH         LINE#         798
  C:468CH         LINE#         800
  C:46A2H         LINE#         801
  C:46A2H         LINE#         802
  C:46ABH         LINE#         803
  C:46C0H         LINE#         804
  C:46D8H         LINE#         805
  C:46E5H         LINE#         806
  C:46E5H         LINE#         808
  C:46FBH         LINE#         809
  C:46FBH         LINE#         810
  C:4704H         LINE#         811
  C:4719H         LINE#         812
  C:4731H         LINE#         813
  C:473EH         LINE#         814
  C:473EH         LINE#         816
  C:4754H         LINE#         817
  C:4754H         LINE#         818
  C:475DH         LINE#         819
  C:4772H         LINE#         820
  C:478AH         LINE#         821
  C:4797H         LINE#         822
  C:4797H         LINE#         824
  C:47ADH         LINE#         825
  C:47ADH         LINE#         826
  C:47B6H         LINE#         827
  C:47CBH         LINE#         828
  C:47E3H         LINE#         829
  C:47F0H         LINE#         830
  C:47F0H         LINE#         832
  C:4806H         LINE#         833
  C:4806H         LINE#         834
  C:480FH         LINE#         835
  C:4824H         LINE#         836
  C:483CH         LINE#         837
  C:4849H         LINE#         838
  C:4849H         LINE#         840
  C:485FH         LINE#         841
  C:485FH         LINE#         842
  C:4868H         LINE#         843
  C:4877H         LINE#         844
  C:4889H         LINE#         845
  C:4896H         LINE#         846
  C:4896H         LINE#         847
  C:489FH         LINE#         849
  -------         ENDPROC       _PROG_HORARIO_DIAS
  -------         PROC          _VER_HORARIO_DIAS
  X:0074H         SYMBOL        addr
  -------         DO            
  X:0076H         SYMBOL        dataee
  -------         ENDDO         
  C:69C3H         LINE#         850
  C:69CBH         LINE#         851
  C:69CBH         LINE#         854
  C:69DBH         LINE#         855
  C:69E1H         LINE#         856
  C:69E1H         LINE#         857
BL51 BANKED LINKER/LOCATER V6.22.2.0                                                  11/04/2020  14:53:46  PAGE 73


  C:69E5H         LINE#         858
  C:69E7H         LINE#         860
  C:69E7H         LINE#         861
  C:69EEH         LINE#         862
  C:69EEH         LINE#         865
  C:6A06H         LINE#         866
  C:6A0CH         LINE#         867
  C:6A0CH         LINE#         868
  C:6A10H         LINE#         869
  C:6A12H         LINE#         871
  C:6A12H         LINE#         872
  C:6A19H         LINE#         873
  C:6A19H         LINE#         876
  C:6A31H         LINE#         877
  C:6A37H         LINE#         878
  C:6A37H         LINE#         879
  C:6A3BH         LINE#         880
  C:6A3DH         LINE#         882
  C:6A3DH         LINE#         883
  C:6A44H         LINE#         884
  C:6A44H         LINE#         886
  C:6A5CH         LINE#         887
  C:6A62H         LINE#         888
  C:6A62H         LINE#         889
  C:6A66H         LINE#         890
  C:6A68H         LINE#         892
  C:6A68H         LINE#         893
  C:6A6FH         LINE#         894
  C:6A6FH         LINE#         896
  C:6A87H         LINE#         897
  C:6A8DH         LINE#         898
  C:6A8DH         LINE#         899
  C:6A91H         LINE#         900
  C:6A93H         LINE#         902
  C:6A93H         LINE#         903
  C:6A9AH         LINE#         904
  C:6A9AH         LINE#         907
  C:6AB2H         LINE#         908
  C:6AB8H         LINE#         909
  C:6AB8H         LINE#         910
  C:6ABCH         LINE#         911
  C:6ABEH         LINE#         913
  C:6ABEH         LINE#         914
  C:6AC5H         LINE#         915
  C:6AC5H         LINE#         917
  C:6AD7H         LINE#         918
  C:6ADDH         LINE#         919
  C:6ADDH         LINE#         920
  C:6AE1H         LINE#         921
  C:6AE3H         LINE#         923
  C:6AE3H         LINE#         924
  C:6AEAH         LINE#         925
  C:6AEAH         LINE#         926
  -------         ENDPROC       _VER_HORARIO_DIAS
  -------         PROC          PROG_HORARIOS
  -------         DO            
  X:0046H         SYMBOL        buffer
BL51 BANKED LINKER/LOCATER V6.22.2.0                                                  11/04/2020  14:53:46  PAGE 74


  X:0050H         SYMBOL        ee_addr_horario
  X:005BH         SYMBOL        addr
  X:005DH         SYMBOL        temp
  X:005FH         SYMBOL        dataee
  X:0060H         SYMBOL        j
  -------         ENDDO         
  C:5FF6H         LINE#         927
  C:5FF6H         LINE#         928
  C:5FF6H         LINE#         937
  C:6002H         LINE#         941
  C:600BH         LINE#         942
  C:6016H         LINE#         944
  C:6025H         LINE#         948
  C:603BH         LINE#         949
  C:6041H         LINE#         953
  C:604FH         LINE#         954
  C:6057H         LINE#         955
  C:6057H         LINE#         957
  C:6066H         LINE#         958
  C:607AH         LINE#         959
  C:607AH         LINE#         960
  C:608EH         LINE#         961
  C:6096H         LINE#         963
  C:60A6H         LINE#         966
  C:60A9H         LINE#         970
  C:60B4H         LINE#         973
  C:60BDH         LINE#         974
  C:60C8H         LINE#         975
  C:60D7H         LINE#         976
  C:60EAH         LINE#         978
  C:6102H         LINE#         979
  C:611CH         LINE#         980
  C:6124H         LINE#         981
  C:6124H         LINE#         983
  C:6132H         LINE#         984
  C:613AH         LINE#         985
  C:613AH         LINE#         986
  C:613AH         LINE#         988
  -------         ENDPROC       PROG_HORARIOS
  -------         PROC          PROG_VALIDAR_TIPO_VEHICULO_MENSUAL
  -------         DO            
  X:0046H         SYMBOL        buffer
  X:0050H         SYMBOL        dataee
  -------         ENDDO         
  C:7859H         LINE#         989
  C:7859H         LINE#         990
  C:7859H         LINE#         995
  C:786CH         LINE#         996
  C:7889H         LINE#         997
  C:7893H         LINE#         998
  C:7893H         LINE#         999
  C:78A6H         LINE#         1000
  C:78A8H         LINE#         1002
  C:78A8H         LINE#         1003
  C:78BFH         LINE#         1004
  C:78BFH         LINE#         1006
  C:78C8H         LINE#         1007
BL51 BANKED LINKER/LOCATER V6.22.2.0                                                  11/04/2020  14:53:46  PAGE 75


  C:78D3H         LINE#         1008
  C:78E4H         LINE#         1009
  C:78EEH         LINE#         1011
  C:7901H         LINE#         1012
  C:791EH         LINE#         1013
  C:7928H         LINE#         1014
  C:7928H         LINE#         1015
  C:793BH         LINE#         1016
  C:793DH         LINE#         1018
  C:793DH         LINE#         1019
  C:7954H         LINE#         1020
  C:7954H         LINE#         1021
  -------         ENDPROC       PROG_VALIDAR_TIPO_VEHICULO_MENSUAL
  -------         PROC          PROG_APB_MENSUAL
  -------         DO            
  X:0046H         SYMBOL        buffer
  X:0050H         SYMBOL        dataee
  -------         ENDDO         
  C:7955H         LINE#         1022
  C:7955H         LINE#         1023
  C:7955H         LINE#         1028
  C:7968H         LINE#         1029
  C:7985H         LINE#         1030
  C:798FH         LINE#         1031
  C:798FH         LINE#         1032
  C:79A2H         LINE#         1033
  C:79A4H         LINE#         1035
  C:79A4H         LINE#         1036
  C:79BBH         LINE#         1037
  C:79BBH         LINE#         1039
  C:79C4H         LINE#         1040
  C:79CFH         LINE#         1041
  C:79E0H         LINE#         1042
  C:79EAH         LINE#         1044
  C:79FDH         LINE#         1045
  C:7A1AH         LINE#         1046
  C:7A24H         LINE#         1047
  C:7A24H         LINE#         1048
  C:7A37H         LINE#         1049
  C:7A39H         LINE#         1051
  C:7A39H         LINE#         1052
  C:7A50H         LINE#         1053
  C:7A50H         LINE#         1054
  -------         ENDPROC       PROG_APB_MENSUAL
  -------         PROC          PROG_FECHA_VENCIMIENTO
  -------         DO            
  X:0046H         SYMBOL        buffer
  X:0051H         SYMBOL        cmd
  X:0054H         SYMBOL        fecha
  X:005BH         SYMBOL        dataee
  -------         ENDDO         
  C:5180H         LINE#         1056
  C:5180H         LINE#         1057
  C:5180H         LINE#         1064
  C:518DH         LINE#         1065
  C:51A4H         LINE#         1068
  C:51BBH         LINE#         1070
BL51 BANKED LINKER/LOCATER V6.22.2.0                                                  11/04/2020  14:53:46  PAGE 76


  C:51BBH         LINE#         1071
  C:51C4H         LINE#         1072
  C:51D1H         LINE#         1073
  C:51E8H         LINE#         1074
  C:51FAH         LINE#         1075
  C:5203H         LINE#         1080
  C:520EH         LINE#         1081
  C:5222H         LINE#         1082
  C:522FH         LINE#         1084
  C:5238H         LINE#         1087
  C:5241H         LINE#         1088
  C:524CH         LINE#         1089
  C:5263H         LINE#         1091
  C:526BH         LINE#         1092
  C:5273H         LINE#         1093
  C:5276H         LINE#         1095
  C:5287H         LINE#         1096
  C:5298H         LINE#         1098
  C:52A7H         LINE#         1099
  C:52AFH         LINE#         1100
  C:52B7H         LINE#         1101
  C:52BAH         LINE#         1102
  C:52CBH         LINE#         1103
  C:52DCH         LINE#         1104
  C:52EBH         LINE#         1105
  C:52F3H         LINE#         1106
  C:52FBH         LINE#         1107
  C:52FEH         LINE#         1108
  C:530FH         LINE#         1109
  C:5320H         LINE#         1110
  C:532FH         LINE#         1111
  C:533AH         LINE#         1113
  C:5347H         LINE#         1115
  C:535EH         LINE#         1116
  -------         ENDPROC       PROG_FECHA_VENCIMIENTO
  -------         PROC          VER_HORARIO
  -------         DO            
  X:0059H         SYMBOL        buffer
  X:0063H         SYMBOL        ee_addr_horario
  X:006EH         SYMBOL        conta
  X:006FH         SYMBOL        addr
  X:0071H         SYMBOL        temp
  X:0073H         SYMBOL        dataee
  -------         ENDDO         
  C:6638H         LINE#         1119
  C:6638H         LINE#         1120
  C:6638H         LINE#         1129
  C:6644H         LINE#         1130
  C:665AH         LINE#         1131
  C:665AH         LINE#         1133
  C:666AH         LINE#         1136
  C:6683H         LINE#         1137
  C:6689H         LINE#         1140
  C:6697H         LINE#         1141
  C:66A6H         LINE#         1142
  C:66C0H         LINE#         1143
  C:66CBH         LINE#         1144
BL51 BANKED LINKER/LOCATER V6.22.2.0                                                  11/04/2020  14:53:46  PAGE 77


  C:66CBH         LINE#         1145
  C:66D4H         LINE#         1147
  C:66DDH         LINE#         1148
  C:66EDH         LINE#         1149
  C:66F0H         LINE#         1151
  C:66FBH         LINE#         1152
  C:6713H         LINE#         1153
  C:672DH         LINE#         1154
  C:6737H         LINE#         1155
  C:6737H         LINE#         1156
  C:673EH         LINE#         1158
  C:674CH         LINE#         1159
  C:6754H         LINE#         1160
  C:6756H         LINE#         1162
  C:6756H         LINE#         1163
  C:675AH         LINE#         1164
  C:675AH         LINE#         1165
  C:675CH         LINE#         1167
  C:675CH         LINE#         1168
  C:6765H         LINE#         1169
  C:6765H         LINE#         1171
  C:676EH         LINE#         1174
  -------         ENDPROC       VER_HORARIO
  -------         PROC          VER_PROG
  -------         DO            
  X:0046H         SYMBOL        buffer
  X:0050H         SYMBOL        dataee
  X:0052H         SYMBOL        fecha
  -------         ENDDO         
  C:3C7FH         LINE#         1175
  C:3C7FH         LINE#         1176
  C:3C7FH         LINE#         1182
  C:3C91H         LINE#         1183
  C:3CAEH         LINE#         1185
  C:3CC5H         LINE#         1187
  C:3CD8H         LINE#         1188
  C:3CF5H         LINE#         1190
  C:3D0CH         LINE#         1192
  C:3D1FH         LINE#         1193
  C:3D3CH         LINE#         1194
  C:3D4AH         LINE#         1195
  C:3D4AH         LINE#         1196
  C:3D4EH         LINE#         1197
  C:3D50H         LINE#         1199
  C:3D50H         LINE#         1200
  C:3D57H         LINE#         1201
  C:3D57H         LINE#         1203
  C:3D6AH         LINE#         1204
  C:3D87H         LINE#         1205
  C:3D93H         LINE#         1206
  C:3D93H         LINE#         1207
  C:3D97H         LINE#         1208
  C:3D99H         LINE#         1210
  C:3D99H         LINE#         1211
  C:3DA0H         LINE#         1212
  C:3DA0H         LINE#         1214
  C:3DB3H         LINE#         1215
BL51 BANKED LINKER/LOCATER V6.22.2.0                                                  11/04/2020  14:53:46  PAGE 78


  C:3DD0H         LINE#         1216
  C:3DDCH         LINE#         1217
  C:3DDCH         LINE#         1218
  C:3DE0H         LINE#         1219
  C:3DE2H         LINE#         1221
  C:3DE2H         LINE#         1222
  C:3DE9H         LINE#         1223
  C:3DE9H         LINE#         1225
  C:3DFCH         LINE#         1226
  C:3E19H         LINE#         1227
  C:3E25H         LINE#         1228
  C:3E25H         LINE#         1229
  C:3E29H         LINE#         1230
  C:3E2BH         LINE#         1232
  C:3E2BH         LINE#         1233
  C:3E32H         LINE#         1234
  C:3E32H         LINE#         1236
  C:3E45H         LINE#         1237
  C:3E62H         LINE#         1238
  C:3E6EH         LINE#         1239
  C:3E6EH         LINE#         1240
  C:3E72H         LINE#         1241
  C:3E74H         LINE#         1243
  C:3E74H         LINE#         1244
  C:3E7BH         LINE#         1245
  C:3E7BH         LINE#         1247
  C:3E8EH         LINE#         1248
  C:3EABH         LINE#         1249
  C:3EB7H         LINE#         1250
  C:3EB7H         LINE#         1251
  C:3EBBH         LINE#         1252
  C:3EBDH         LINE#         1254
  C:3EBDH         LINE#         1255
  C:3EC4H         LINE#         1256
  C:3EC4H         LINE#         1259
  C:3ED7H         LINE#         1260
  C:3EF4H         LINE#         1262
  C:3F0BH         LINE#         1264
  C:3F0EH         LINE#         1268
  C:3F21H         LINE#         1269
  C:3F3EH         LINE#         1270
  C:3F4AH         LINE#         1271
  C:3F4AH         LINE#         1272
  C:3F4EH         LINE#         1273
  C:3F50H         LINE#         1275
  C:3F50H         LINE#         1276
  C:3F57H         LINE#         1277
  C:3F57H         LINE#         1279
  C:3F6AH         LINE#         1280
  C:3F87H         LINE#         1281
  C:3F93H         LINE#         1282
  C:3F93H         LINE#         1283
  C:3F97H         LINE#         1284
  C:3F99H         LINE#         1286
  C:3F99H         LINE#         1287
  C:3FA0H         LINE#         1288
  C:3FA0H         LINE#         1290
BL51 BANKED LINKER/LOCATER V6.22.2.0                                                  11/04/2020  14:53:46  PAGE 79


  C:3FADH         LINE#         1292
  C:3FC4H         LINE#         1293
  -------         ENDPROC       VER_PROG
  -------         PROC          SHOW
  C:9543H         LINE#         1299
  C:9543H         LINE#         1300
  C:9543H         LINE#         1301
  C:954CH         LINE#         1302
  C:9555H         LINE#         1303
  C:955EH         LINE#         1304
  C:9567H         LINE#         1305
  C:9570H         LINE#         1306
  C:9579H         LINE#         1307
  C:9582H         LINE#         1308
  C:958BH         LINE#         1309
  C:9594H         LINE#         1310
  C:959DH         LINE#         1311
  C:95A6H         LINE#         1312
  C:95AFH         LINE#         1313
  C:95B8H         LINE#         1314
  C:95C1H         LINE#         1315
  C:95CAH         LINE#         1316
  C:95D3H         LINE#         1317
  -------         ENDPROC       SHOW
  -------         PROC          FIRST_CLAVE
  -------         DO            
  X:0046H         SYMBOL        clave
  -------         ENDDO         
  C:AB55H         LINE#         1324
  C:AB55H         LINE#         1325
  C:AB55H         LINE#         1329
  C:AB5EH         LINE#         1330
  C:AB63H         LINE#         1331
  C:AB75H         LINE#         1332
  C:AB82H         LINE#         1333
  C:AB88H         LINE#         1334
  C:AB8BH         LINE#         1335
  C:AB8EH         LINE#         1336
  C:AB90H         LINE#         1338
  -------         ENDPROC       FIRST_CLAVE
  -------         PROC          MENU
  -------         DO            
  X:0001H         SYMBOL        cmd
  X:0004H         SYMBOL        option1
  X:0007H         SYMBOL        option2
  X:000AH         SYMBOL        opt_buffer
  X:0032H         SYMBOL        buffer
  -------         ENDDO         
  C:4B52H         LINE#         1342
  C:4B52H         LINE#         1343
  C:4B52H         LINE#         1352
  C:4B5BH         LINE#         1357
  C:4B67H         LINE#         1358
  C:4B67H         LINE#         1359
  C:4B6AH         LINE#         1360
  C:4B74H         LINE#         1363
  C:4B74H         LINE#         1365
BL51 BANKED LINKER/LOCATER V6.22.2.0                                                  11/04/2020  14:53:46  PAGE 80


  C:4B74H         LINE#         1366
  C:4B7DH         LINE#         1367
  C:4B8AH         LINE#         1368
  C:4B8FH         LINE#         1369
  C:4BA5H         LINE#         1370
  C:4BB7H         LINE#         1371
  C:4BC0H         LINE#         1376
  C:4BCBH         LINE#         1377
  C:4BD9H         LINE#         1378
  C:4BE6H         LINE#         1380
  C:4BEFH         LINE#         1384
  C:4BF2H         LINE#         1385
  C:4BF2H         LINE#         1386
  C:4BF2H         LINE#         1387
  C:4BF5H         LINE#         1390
  C:4C00H         LINE#         1391
  C:4C0EH         LINE#         1392
  C:4C22H         LINE#         1393
  C:4C36H         LINE#         1398
  C:4C4CH         LINE#         1399
  C:4C4CH         LINE#         1401
  C:4C5BH         LINE#         1402
  C:4C5DH         LINE#         1403
  C:4C6DH         LINE#         1404
  C:4C6DH         LINE#         1406
  C:4C7CH         LINE#         1407
  C:4C9AH         LINE#         1408
  C:4C9AH         LINE#         1414
  C:4CADH         LINE#         1415
  C:4CADH         LINE#         1416
  C:4CF6H         LINE#         1417
  C:4CF6H         LINE#         1418
  C:4CF6H         LINE#         1419
  C:4CF9H         LINE#         1421
  C:4CFCH         LINE#         1423
  C:4CFCH         LINE#         1424
  C:4CFFH         LINE#         1425
  C:4D02H         LINE#         1426
  C:4D02H         LINE#         1427
  C:4D05H         LINE#         1428
  C:4D08H         LINE#         1429
  C:4D08H         LINE#         1430
  C:4D0BH         LINE#         1431
  C:4D0EH         LINE#         1432
  C:4D0EH         LINE#         1433
  C:4D11H         LINE#         1434
  C:4D14H         LINE#         1435
  C:4D14H         LINE#         1436
  C:4D17H         LINE#         1437
  C:4D1AH         LINE#         1438
  C:4D1AH         LINE#         1439
  C:4D1DH         LINE#         1440
  C:4D20H         LINE#         1441
  C:4D20H         LINE#         1442
  C:4D23H         LINE#         1443
  C:4D26H         LINE#         1444
  C:4D26H         LINE#         1445
BL51 BANKED LINKER/LOCATER V6.22.2.0                                                  11/04/2020  14:53:46  PAGE 81


  C:4D29H         LINE#         1446
  C:4D2CH         LINE#         1447
  C:4D2CH         LINE#         1448
  C:4D2FH         LINE#         1449
  C:4D32H         LINE#         1450
  C:4D32H         LINE#         1451
  C:4D35H         LINE#         1452
  C:4D38H         LINE#         1453
  C:4D38H         LINE#         1454
  C:4D3BH         LINE#         1455
  C:4D3EH         LINE#         1456
  C:4D3EH         LINE#         1457
  C:4D41H         LINE#         1458
  C:4D44H         LINE#         1459
  C:4D44H         LINE#         1460
  C:4D47H         LINE#         1461
  C:4D4AH         LINE#         1462
  C:4D4AH         LINE#         1463
  C:4D4DH         LINE#         1464
  C:4D50H         LINE#         1465
  C:4D50H         LINE#         1466
  C:4D53H         LINE#         1467
  C:4D56H         LINE#         1468
  C:4D56H         LINE#         1470
  C:4D56H         LINE#         1471
  C:4D56H         LINE#         1472
  C:4D59H         LINE#         1473
  C:4D5CH         LINE#         1476
  C:4D5CH         LINE#         1477
  C:4D7AH         LINE#         1478
  C:4D7DH         LINE#         1479
  C:4D7DH         LINE#         1480
  C:4D7DH         LINE#         1481
  C:4D7DH         LINE#         1482
  -------         ENDPROC       MENU
  -------         ENDMOD        PROG

  -------         MODULE        PTO_PARALELO
  C:0000H         SYMBOL        _ICE_DUMMY_
  D:0080H         PUBLIC        P0
  D:00A0H         PUBLIC        P2
  D:00B0H         PUBLIC        P3
  B:0080H.2       PUBLIC        led_err_imp
  C:6AEBH         PUBLIC        load_and_send_id_cod
  C:95DCH         PUBLIC        _recibe_port
  B:00B0H.2       PUBLIC        ready
  B:0080H.6       PUBLIC        rx_in_data
  C:B5BEH         PUBLIC        Pulso_Bus
  C:9CA3H         PUBLIC        _send_portERR
  B:00B0H.3       PUBLIC        busy
  C:B2B3H         PUBLIC        load_and_send_info_reloj
  C:8D86H         PUBLIC        _send_port
  B:00B0H.4       PUBLIC        port_clk
  C:B62FH         PUBLIC        cond_ini_pto
  -------         PROC          _RECIBE_PORT
  X:0001H         SYMBOL        buffer_port
  -------         DO            
BL51 BANKED LINKER/LOCATER V6.22.2.0                                                  11/04/2020  14:53:46  PAGE 82


  D:0006H         SYMBOL        count
  X:0004H         SYMBOL        time_out
  X:0005H         SYMBOL        num_data
  X:0006H         SYMBOL        T_ANCHO
  X:0008H         SYMBOL        data_temp
  -------         ENDDO         
  C:95DCH         LINE#         48
  C:95E7H         LINE#         49
  C:95E7H         LINE#         53
  C:95F0H         LINE#         54
  C:95F3H         LINE#         57
  C:95F6H         LINE#         58
  C:95F6H         LINE#         60
  C:95F9H         LINE#         61
  C:95FEH         LINE#         62
  C:9600H         LINE#         63
  C:9604H         LINE#         64
  C:9606H         LINE#         67
  C:960BH         LINE#         68
  C:9614H         LINE#         69
  C:9614H         LINE#         70
  C:9617H         LINE#         71
  C:9617H         LINE#         73
  C:961CH         LINE#         74
  C:9620H         LINE#         75
  C:9620H         LINE#         76
  C:9622H         LINE#         77
  C:9624H         LINE#         78
  C:9624H         LINE#         79
  C:9624H         LINE#         81
  C:9624H         LINE#         82
  C:9631H         LINE#         83
  C:9631H         LINE#         85
  C:9634H         LINE#         86
  C:9634H         LINE#         88
  C:963AH         LINE#         90
  C:963CH         LINE#         91
  C:9650H         LINE#         92
  C:965AH         LINE#         93
  C:9660H         LINE#         94
  C:9666H         LINE#         95
  C:9668H         LINE#         96
  C:9668H         LINE#         97
  C:9668H         LINE#         98
  C:9668H         LINE#         101
  C:966AH         LINE#         102
  C:966CH         LINE#         103
  C:966CH         LINE#         104
  C:966FH         LINE#         106
  C:9674H         LINE#         107
  -------         ENDPROC       _RECIBE_PORT
  -------         PROC          _SEND_PORT
  X:0015H         SYMBOL        buffer_port
  X:0018H         SYMBOL        length_char
  -------         DO            
  X:0019H         SYMBOL        cont
  X:001DH         SYMBOL        timeOut
BL51 BANKED LINKER/LOCATER V6.22.2.0                                                  11/04/2020  14:53:46  PAGE 83


  X:001EH         SYMBOL        length
  -------         ENDDO         
  C:8D86H         LINE#         114
  C:8D94H         LINE#         115
  C:8D94H         LINE#         120
  C:8D98H         LINE#         122
  C:8D9AH         LINE#         123
  C:8D9CH         LINE#         124
  C:8D9EH         LINE#         125
  C:8DA3H         LINE#         126
  C:8DA5H         LINE#         127
  C:8DAFH         LINE#         129
  C:8DB8H         LINE#         130
  C:8DB8H         LINE#         131
  C:8DBAH         LINE#         132
  C:8DBCH         LINE#         133
  C:8DE0H         LINE#         134
  C:8DF4H         LINE#         135
  C:8DF4H         LINE#         136
  C:8DF7H         LINE#         137
  C:8DF9H         LINE#         138
  C:8DF9H         LINE#         139
  C:8DFBH         LINE#         140
  C:8E04H         LINE#         141
  C:8E04H         LINE#         145
  C:8E04H         LINE#         147
  C:8E14H         LINE#         148
  C:8E17H         LINE#         149
  C:8E21H         LINE#         151
  C:8E27H         LINE#         152
  C:8E2AH         LINE#         154
  C:8E2AH         LINE#         156
  C:8E2DH         LINE#         157
  C:8E2FH         LINE#         158
  C:8E31H         LINE#         159
  C:8E33H         LINE#         160
  -------         ENDPROC       _SEND_PORT
  -------         PROC          PULSO_BUS
  C:B5BEH         LINE#         435
  C:B5BEH         LINE#         436
  C:B5BEH         LINE#         437
  C:B5C0H         LINE#         438
  C:B5C7H         LINE#         439
  C:B5C9H         LINE#         440
  -------         ENDPROC       PULSO_BUS
  -------         PROC          _SEND_PORTERR
  X:002AH         SYMBOL        cod_err
  -------         DO            
  X:002BH         SYMBOL        timeOut
  X:002CH         SYMBOL        cont
  -------         ENDDO         
  C:9CA3H         LINE#         445
  C:9CA9H         LINE#         446
  C:9CA9H         LINE#         450
  C:9CABH         LINE#         451
  C:9CADH         LINE#         452
  C:9CB0H         LINE#         453
BL51 BANKED LINKER/LOCATER V6.22.2.0                                                  11/04/2020  14:53:46  PAGE 84


  C:9CB8H         LINE#         455
  C:9CBAH         LINE#         456
  C:9CBCH         LINE#         457
  C:9CC5H         LINE#         458
  C:9CC5H         LINE#         459
  C:9CE7H         LINE#         460
  C:9CFBH         LINE#         461
  C:9CFBH         LINE#         462
  C:9D00H         LINE#         463
  C:9D00H         LINE#         464
  C:9D02H         LINE#         465
  C:9D0BH         LINE#         466
  C:9D0BH         LINE#         467
  C:9D11H         LINE#         468
  C:9D14H         LINE#         469
  C:9D14H         LINE#         470
  C:9D16H         LINE#         471
  C:9D18H         LINE#         472
  C:9D1AH         LINE#         474
  C:9D1DH         LINE#         476
  C:9D24H         LINE#         477
  -------         ENDPROC       _SEND_PORTERR
  -------         PROC          COND_INI_PTO
  C:B62FH         LINE#         483
  C:B62FH         LINE#         484
  C:B62FH         LINE#         486
  C:B631H         LINE#         487
  C:B633H         LINE#         488
  C:B635H         LINE#         489
  C:B638H         LINE#         490
  -------         ENDPROC       COND_INI_PTO
  -------         PROC          LOAD_AND_SEND_INFO_RELOJ
  -------         DO            
  X:0002H         SYMBOL        buffer_info
  -------         ENDDO         
  C:B2B3H         LINE#         495
  C:B2B3H         LINE#         496
  C:B2B3H         LINE#         499
  C:B2B9H         LINE#         501
  C:B2BDH         LINE#         503
  C:B2C6H         LINE#         504
  C:B2D0H         LINE#         505
  C:B2D4H         LINE#         509
  -------         ENDPROC       LOAD_AND_SEND_INFO_RELOJ
  -------         PROC          LOAD_AND_SEND_ID_COD
  -------         DO            
  X:0002H         SYMBOL        buffer_info
  X:000DH         SYMBOL        buf
  X:0011H         SYMBOL        i
  X:0012H         SYMBOL        k
  X:0013H         SYMBOL        ID_CLIENTE
  X:0014H         SYMBOL        COD_PARK
  -------         ENDDO         
  C:6AEBH         LINE#         516
  C:6AEBH         LINE#         517
  C:6AEBH         LINE#         523
  C:6AF0H         LINE#         524
BL51 BANKED LINKER/LOCATER V6.22.2.0                                                  11/04/2020  14:53:46  PAGE 85


  C:6AFCH         LINE#         525
  C:6B0AH         LINE#         526
  C:6B10H         LINE#         527
  C:6B14H         LINE#         528
  C:6B33H         LINE#         529
  C:6B39H         LINE#         530
  C:6B39H         LINE#         531
  C:6B4AH         LINE#         532
  C:6B4AH         LINE#         533
  C:6B59H         LINE#         534
  C:6B5FH         LINE#         535
  C:6B61H         LINE#         536
  C:6B79H         LINE#         538
  C:6B81H         LINE#         541
  C:6BA0H         LINE#         543
  C:6BA5H         LINE#         544
  C:6BA5H         LINE#         545
  C:6BB6H         LINE#         546
  C:6BB6H         LINE#         547
  C:6BC5H         LINE#         548
  C:6BCBH         LINE#         549
  C:6BE5H         LINE#         550
  C:6BEDH         LINE#         553
  C:6BFEH         LINE#         554
  -------         ENDPROC       LOAD_AND_SEND_ID_COD
  -------         ENDMOD        PTO_PARALELO

  -------         MODULE        TIBBO
  C:0000H         SYMBOL        _ICE_DUMMY_
  C:ACB7H         PUBLIC        _Debug_HexDec
  C:AB17H         PUBLIC        _Debug_txt_Tibbo
  D:0080H         PUBLIC        P0
  D:0090H         PUBLIC        P1
  B:0090H.0       PUBLIC        txd2
  B:00A8H.7       PUBLIC        EA
  C:AAC4H         PUBLIC        _tx_aux
  B:0080H.0       PUBLIC        rx_ip
  C:B57DH         PUBLIC        Debug_Dividir_texto
  C:B693H         PUBLIC        cond_ini_tibbo
  C:B545H         PUBLIC        time_mbit
  C:9D2BH         PUBLIC        rx_Data
  C:B4C4H         PUBLIC        time_bit
  C:B033H         PUBLIC        _Debug_pto_paralelo
  C:B222H         PUBLIC        _Debug_monitor
  C:A426H         PUBLIC        _DebugBufferMF
  C:AB9DH         PUBLIC        _Debug_chr_Tibbo
  C:B4BEH         SYMBOL        L?0066
  -------         PROC          L?0065
  -------         ENDPROC       L?0065
  C:B4BEH         SYMBOL        L?0066
  -------         PROC          TIME_BIT
  -------         DO            
  D:0007H         SYMBOL        j
  -------         ENDDO         
  C:B4C4H         LINE#         19
  C:B4C4H         LINE#         20
  C:B4C4H         LINE#         23
BL51 BANKED LINKER/LOCATER V6.22.2.0                                                  11/04/2020  14:53:46  PAGE 86


  C:B4D0H         LINE#         24
  C:B4D0H         LINE#         25
  C:B4D1H         LINE#         26
  C:B4D2H         LINE#         27
  C:B4D3H         LINE#         28
  C:B4D4H         LINE#         29
  C:B4D5H         LINE#         30
  C:B4D6H         LINE#         31
  C:B4D7H         LINE#         32
  C:B4D8H         LINE#         33
  C:B4D9H         LINE#         38
  C:B4DCH         LINE#         39
  -------         ENDPROC       TIME_BIT
  -------         PROC          TIME_MBIT
  -------         DO            
  D:0007H         SYMBOL        j
  -------         ENDDO         
  C:B545H         LINE#         42
  C:B545H         LINE#         43
  C:B545H         LINE#         45
  C:B551H         LINE#         46
  C:B551H         LINE#         47
  C:B552H         LINE#         48
  C:B553H         LINE#         49
  C:B554H         LINE#         50
  C:B555H         LINE#         51
  C:B556H         LINE#         52
  C:B557H         LINE#         53
  C:B558H         LINE#         54
  C:B55BH         LINE#         56
  -------         ENDPROC       TIME_MBIT
  -------         PROC          L?0070
  -------         ENDPROC       L?0070
  -------         PROC          _TX_AUX
  D:0006H         SYMBOL        caracter
  -------         DO            
  D:0004H         SYMBOL        j
  D:0005H         SYMBOL        temporal
  D:0006H         SYMBOL        bitTX
  -------         ENDDO         
  C:AAC4H         LINE#         61
  C:AAC6H         LINE#         62
  C:AAC6H         LINE#         65
  C:AAC8H         LINE#         66
  C:AACAH         LINE#         67
  C:AACDH         LINE#         68
  C:AACEH         LINE#         69
  C:AACFH         LINE#         70
  C:AAD1H         LINE#         71
  C:AAD5H         LINE#         72
  C:AAD7H         LINE#         73
  C:AAD7H         LINE#         74
  C:AAD9H         LINE#         75
  C:AADBH         LINE#         77
  C:AADBH         LINE#         78
  C:AADDH         LINE#         79
  C:AADDH         LINE#         80
BL51 BANKED LINKER/LOCATER V6.22.2.0                                                  11/04/2020  14:53:46  PAGE 87


  C:AAE0H         LINE#         81
  C:AAECH         LINE#         82
  C:AAECH         LINE#         83
  C:AAF0H         LINE#         84
  C:AAF3H         LINE#         85
  C:AAF5H         LINE#         86
  C:AAF5H         LINE#         87
  C:AAF7H         LINE#         88
  C:AAF9H         LINE#         90
  C:AAF9H         LINE#         91
  C:AAFBH         LINE#         92
  C:AAFBH         LINE#         93
  C:AAFEH         LINE#         94
  C:AB01H         LINE#         95
  C:AB03H         LINE#         96
  C:AB06H         LINE#         97
  C:AB09H         LINE#         99
  C:AB0BH         LINE#         100
  -------         ENDPROC       _TX_AUX
  -------         PROC          _DEBUG_HEXDEC
  D:0007H         SYMBOL        xfc
  -------         DO            
  X:0018H         SYMBOL        valor
  D:0006H         SYMBOL        centena
  D:0003H         SYMBOL        decena
  D:0002H         SYMBOL        unidad
  -------         ENDDO         
  C:ACB7H         LINE#         103
  C:ACB7H         LINE#         104
  C:ACB7H         LINE#         107
  C:ACBEH         LINE#         109
  C:ACBFH         LINE#         110
  C:ACC0H         LINE#         111
  C:ACC1H         LINE#         112
  C:ACC9H         LINE#         113
  C:ACC9H         LINE#         114
  C:ACD3H         LINE#         115
  C:ACD3H         LINE#         116
  C:ACD7H         LINE#         117
  C:ACD8H         LINE#         118
  C:ACDAH         LINE#         119
  C:ACE4H         LINE#         120
  C:ACE4H         LINE#         121
  C:ACE8H         LINE#         122
  C:ACE9H         LINE#         123
  C:ACEBH         LINE#         124
  C:ACEDH         LINE#         125
  C:ACF1H         LINE#         126
  C:ACF5H         LINE#         127
  C:ACFCH         LINE#         129
  C:ACFCH         LINE#         130
  -------         ENDPROC       _DEBUG_HEXDEC
  -------         PROC          _DEBUG_CHR_TIBBO
  D:0003H         SYMBOL        Dat
  -------         DO            
  D:0007H         SYMBOL        temp
  -------         ENDDO         
BL51 BANKED LINKER/LOCATER V6.22.2.0                                                  11/04/2020  14:53:46  PAGE 88


  C:AB9DH         LINE#         135
  C:AB9FH         LINE#         136
  C:AB9FH         LINE#         138
  C:ABA7H         LINE#         139
  C:ABA7H         LINE#         140
  C:ABAEH         LINE#         141
  C:ABC1H         LINE#         143
  C:ABC4H         LINE#         145
  C:ABC8H         LINE#         146
  C:ABDBH         LINE#         147
  C:ABDEH         LINE#         148
  C:ABE3H         LINE#         150
  C:ABE3H         LINE#         151
  -------         ENDPROC       _DEBUG_CHR_TIBBO
  -------         PROC          _DEBUGBUFFERMF
  X:0027H         SYMBOL        str
  X:002AH         SYMBOL        num_char
  X:002BH         SYMBOL        io
  -------         DO            
  X:002CH         SYMBOL        j
  -------         ENDDO         
  C:A426H         LINE#         158
  C:A434H         LINE#         159
  C:A434H         LINE#         163
  C:A43CH         LINE#         164
  C:A43CH         LINE#         165
  C:A44BH         LINE#         166
  C:A44BH         LINE#         167
  C:A44FH         LINE#         168
  C:A458H         LINE#         169
  C:A46AH         LINE#         170
  C:A46AH         LINE#         171
  C:A47CH         LINE#         172
  C:A486H         LINE#         173
  C:A48EH         LINE#         174
  C:A493H         LINE#         175
  C:A498H         LINE#         176
  C:A498H         LINE#         178
  -------         ENDPROC       _DEBUGBUFFERMF
  C:AB11H         SYMBOL        L?0068
  -------         PROC          L?0067
  -------         ENDPROC       L?0067
  C:AB11H         SYMBOL        L?0068
  -------         PROC          _DEBUG_TXT_TIBBO
  X:0037H         SYMBOL        str
  -------         DO            
  X:003AH         SYMBOL        i
  -------         ENDDO         
  C:AB17H         LINE#         183
  C:AB22H         LINE#         184
  C:AB22H         LINE#         186
  C:AB25H         LINE#         188
  C:AB2DH         LINE#         189
  C:AB2DH         LINE#         190
  C:AB49H         LINE#         191
  C:AB49H         LINE#         192
  C:AB4CH         LINE#         193
BL51 BANKED LINKER/LOCATER V6.22.2.0                                                  11/04/2020  14:53:46  PAGE 89


  C:AB54H         LINE#         195
  C:AB54H         LINE#         196
  -------         ENDPROC       _DEBUG_TXT_TIBBO
  -------         PROC          L?0069
  -------         ENDPROC       L?0069
  -------         PROC          DEBUG_DIVIDIR_TEXTO
  C:B57DH         LINE#         198
  C:B57DH         LINE#         199
  C:B57DH         LINE#         200
  -------         ENDPROC       DEBUG_DIVIDIR_TEXTO
  -------         PROC          RX_DATA
  -------         DO            
  D:0006H         SYMBOL        temporal
  -------         ENDDO         
  C:9D2BH         LINE#         206
  C:9D2BH         LINE#         207
  C:9D2BH         LINE#         210
  C:9D2DH         LINE#         211
  C:9D30H         LINE#         213
  C:9D33H         LINE#         215
  C:9D3FH         LINE#         216
  C:9D3FH         LINE#         218
  C:9D42H         LINE#         220
  C:9D4EH         LINE#         221
  C:9D4EH         LINE#         223
  C:9D51H         LINE#         225
  C:9D5DH         LINE#         226
  C:9D5DH         LINE#         228
  C:9D60H         LINE#         230
  C:9D6CH         LINE#         231
  C:9D6CH         LINE#         233
  C:9D6FH         LINE#         235
  C:9D7BH         LINE#         236
  C:9D7BH         LINE#         238
  C:9D7EH         LINE#         240
  C:9D8AH         LINE#         241
  C:9D8AH         LINE#         243
  C:9D8DH         LINE#         245
  C:9D99H         LINE#         246
  C:9D99H         LINE#         248
  C:9D9CH         LINE#         249
  C:9DAAH         LINE#         251
  C:9DADH         LINE#         252
  C:9DB0H         LINE#         253
  C:9DB0H         LINE#         254
  C:9DB0H         LINE#         257
  C:9DB2H         LINE#         259
  -------         ENDPROC       RX_DATA
  -------         PROC          COND_INI_TIBBO
  C:B693H         LINE#         277
  C:B693H         LINE#         278
  C:B693H         LINE#         280
  C:B695H         LINE#         281
  C:B697H         LINE#         282
  -------         ENDPROC       COND_INI_TIBBO
  -------         PROC          _DEBUG_PTO_PARALELO
  X:0001H         SYMBOL        buffer
BL51 BANKED LINKER/LOCATER V6.22.2.0                                                  11/04/2020  14:53:46  PAGE 90


  X:0004H         SYMBOL        Length_trama
  C:B033H         LINE#         283
  C:B036H         LINE#         284
  C:B036H         LINE#         285
  C:B039H         LINE#         286
  C:B042H         LINE#         287
  C:B059H         LINE#         288
  C:B05CH         LINE#         289
  C:B065H         LINE#         290
  C:B068H         LINE#         291
  C:B06BH         LINE#         292
  -------         ENDPROC       _DEBUG_PTO_PARALELO
  -------         PROC          _DEBUG_MONITOR
  X:0016H         SYMBOL        buffer
  X:0019H         SYMBOL        Length_trama
  C:B222H         LINE#         295
  C:B225H         LINE#         296
  C:B225H         LINE#         297
  C:B228H         LINE#         298
  C:B231H         LINE#         299
  C:B23FH         LINE#         300
  C:B242H         LINE#         301
  C:B24BH         LINE#         302
  C:B24EH         LINE#         303
  C:B251H         LINE#         304
  -------         ENDPROC       _DEBUG_MONITOR
  -------         ENDMOD        TIBBO

  -------         MODULE        UART
  C:0000H         SYMBOL        _ICE_DUMMY_
  C:B3A8H         PUBLIC        com_getchar
  C:B5D0H         PUBLIC        com_rbuflen
  C:B5E2H         PUBLIC        com_tbuflen
  B:00A8H.4       PUBLIC        ES
  B:0098H.0       PUBLIC        RI
  C:B06EH         PUBLIC        _com_putchar
  B:0098H.1       PUBLIC        TI
  B:0021H.3       PUBLIC        aSk
  B:00B8H.4       PUBLIC        PS
  D:000DH         SYMBOL        r_in
  D:000EH         SYMBOL        r_out
  D:000FH         SYMBOL        t_in
  D:0010H         SYMBOL        t_out
  D:0099H         PUBLIC        SBUF
  D:0087H         PUBLIC        PCON
  D:0089H         PUBLIC        TMOD
  B:0021H.4       SYMBOL        ti_restart
  B:00A8H.3       PUBLIC        ET1
  D:008DH         PUBLIC        TH1
  B:0098H.7       PUBLIC        SM0
  B:0098H.6       PUBLIC        SM1
  D:008BH         PUBLIC        TL1
  B:0098H.5       PUBLIC        SM2
  B:0088H.6       PUBLIC        TR1
  C:B2DFH         PUBLIC        com_initialize
  X:0263H         PUBLIC        cnt__ask_off
  B:0098H.4       PUBLIC        REN
BL51 BANKED LINKER/LOCATER V6.22.2.0                                                  11/04/2020  14:53:46  PAGE 91


  C:B331H         PUBLIC        com_baudrate
  C:5554H         SYMBOL        com_isr
  -------         PROC          COM_ISR
  -------         DO            
  X:0261H         SYMBOL        cDatoRx
  D:0006H         SYMBOL        k
  D:0007H         SYMBOL        bcc
  X:0262H         SYMBOL        num_datos
  -------         ENDDO         
  C:5554H         LINE#         96
  C:5569H         LINE#         104
  C:556FH         LINE#         105
  C:556FH         LINE#         107
  C:5571H         LINE#         108
  C:5577H         LINE#         109
  C:5587H         LINE#         110
  C:5587H         LINE#         111
  C:5592H         LINE#         112
  C:5594H         LINE#         114
  C:5594H         LINE#         115
  C:55A4H         LINE#         116
  C:55A4H         LINE#         117
  C:55A9H         LINE#         118
  C:55A9H         LINE#         119
  C:55C0H         LINE#         120
  C:55C0H         LINE#         124
  C:55C0H         LINE#         127
  C:55CFH         LINE#         128
  C:55CFH         LINE#         129
  C:55D1H         LINE#         130
  C:55D9H         LINE#         131
  C:55DEH         LINE#         133
  C:55DEH         LINE#         134
  C:55E1H         LINE#         138
  C:55E1H         LINE#         139
  C:55E1H         LINE#         140
  C:55F9H         LINE#         141
  C:5608H         LINE#         142
  C:5608H         LINE#         143
  C:5608H         LINE#         144
  C:560AH         LINE#         146
  C:560AH         LINE#         147
  C:560CH         LINE#         148
  C:560CH         LINE#         149
  C:560CH         LINE#         150
  C:560FH         LINE#         154
  C:560FH         LINE#         156
  C:5618H         LINE#         157
  C:5618H         LINE#         159
  C:561EH         LINE#         160
  C:5631H         LINE#         161
  C:5631H         LINE#         162
  C:5634H         LINE#         164
  C:5634H         LINE#         165
  C:5649H         LINE#         166
  C:564FH         LINE#         167
  C:564FH         LINE#         169
BL51 BANKED LINKER/LOCATER V6.22.2.0                                                  11/04/2020  14:53:46  PAGE 92


  C:5652H         LINE#         173
  C:5652H         LINE#         175
  C:566AH         LINE#         176
  C:5670H         LINE#         177
  C:5673H         LINE#         178
  C:5673H         LINE#         179
  C:568BH         LINE#         180
  C:568BH         LINE#         181
  C:568CH         LINE#         182
  C:5699H         LINE#         183
  C:5699H         LINE#         184
  C:56A6H         LINE#         185
  C:56A9H         LINE#         186
  C:56B7H         LINE#         187
  C:56B7H         LINE#         188
  C:56B9H         LINE#         189
  C:56BEH         LINE#         190
  C:56C0H         LINE#         191
  C:56C4H         LINE#         193
  C:56C6H         LINE#         195
  C:56C6H         LINE#         196
  C:56C6H         LINE#         197
  C:56C6H         LINE#         198
  C:56C8H         LINE#         200
  C:56C8H         LINE#         201
  C:56C8H         LINE#         202
  C:56C8H         LINE#         204
  C:56CAH         LINE#         206
  C:56CAH         LINE#         207
  C:56D0H         LINE#         208
  C:56D0H         LINE#         210
  C:56D2H         LINE#         215
  C:56D2H         LINE#         216
  C:56D7H         LINE#         217
  C:56D7H         LINE#         218
  C:56D7H         LINE#         219
  C:56D7H         LINE#         224
  C:56DAH         LINE#         225
  C:56DAH         LINE#         226
  C:56DCH         LINE#         228
  C:56E2H         LINE#         229
  C:56E2H         LINE#         230
  C:56ECH         LINE#         232
  C:56EEH         LINE#         233
  C:56F0H         LINE#         234
  C:56F2H         LINE#         236
  C:56F2H         LINE#         237
  C:56F4H         LINE#         238
  C:56F4H         LINE#         239
  C:56F4H         LINE#         241
  -------         ENDPROC       COM_ISR
  -------         PROC          COM_INITIALIZE
  C:B2DFH         LINE#         257
  C:B2E6H         LINE#         258
  C:B2E6H         LINE#         262
  C:B2E9H         LINE#         267
  C:B2ECH         LINE#         268
BL51 BANKED LINKER/LOCATER V6.22.2.0                                                  11/04/2020  14:53:46  PAGE 93


  C:B2EEH         LINE#         270
  C:B2F0H         LINE#         271
  C:B2F2H         LINE#         276
  C:B2F6H         LINE#         277
  C:B2F8H         LINE#         278
  C:B2FAH         LINE#         280
  C:B2FCH         LINE#         281
  C:B2FEH         LINE#         282
  C:B300H         LINE#         284
  C:B302H         LINE#         285
  C:B304H         LINE#         286
  -------         ENDPROC       COM_INITIALIZE
  -------         PROC          COM_BAUDRATE
  C:B331H         LINE#         292
  C:B338H         LINE#         294
  C:B338H         LINE#         298
  C:B33AH         LINE#         299
  C:B33DH         LINE#         300
  C:B33FH         LINE#         305
  C:B341H         LINE#         306
  C:B343H         LINE#         308
  C:B346H         LINE#         310
  C:B349H         LINE#         311
  C:B34CH         LINE#         313
  C:B34FH         LINE#         314
  C:B352H         LINE#         315
  C:B354H         LINE#         316
  -------         ENDPROC       COM_BAUDRATE
  -------         PROC          _COM_PUTCHAR
  X:00AAH         SYMBOL        c
  C:B06EH         LINE#         322
  C:B07AH         LINE#         323
  C:B07AH         LINE#         327
  C:B087H         LINE#         328
  C:B08BH         LINE#         334
  C:B099H         LINE#         336
  C:B09BH         LINE#         338
  C:B09EH         LINE#         339
  C:B09EH         LINE#         340
  C:B0A0H         LINE#         341
  C:B0A2H         LINE#         342
  C:B0A2H         LINE#         344
  C:B0A4H         LINE#         345
  -------         ENDPROC       _COM_PUTCHAR
  -------         PROC          COM_GETCHAR
  C:B3A8H         LINE#         351
  C:B3AFH         LINE#         352
  C:B3AFH         LINE#         353
  C:B3B5H         LINE#         354
  C:B3BBH         LINE#         356
  C:B3C9H         LINE#         357
  -------         ENDPROC       COM_GETCHAR
  -------         PROC          COM_RBUFLEN
  C:B5D0H         LINE#         363
  C:B5D7H         LINE#         364
  C:B5D7H         LINE#         365
  C:B5DDH         LINE#         366
BL51 BANKED LINKER/LOCATER V6.22.2.0                                                  11/04/2020  14:53:46  PAGE 94


  -------         ENDPROC       COM_RBUFLEN
  -------         PROC          COM_TBUFLEN
  C:B5E2H         LINE#         372
  C:B5E9H         LINE#         373
  C:B5E9H         LINE#         374
  C:B5EFH         LINE#         375
  -------         ENDPROC       COM_TBUFLEN
  -------         ENDMOD        UART

  -------         MODULE        LINTECH
  C:0000H         SYMBOL        _ICE_DUMMY_
  C:92D7H         PUBLIC        _Inicializa
  C:8798H         PUBLIC        _RD_MF
  C:903DH         PUBLIC        Dwload_EEprom
  C:9832H         PUBLIC        _Card_Insercion
  C:7B42H         PUBLIC        _Mov_Card
  C:726DH         PUBLIC        _WR_MF
  C:9B01H         PUBLIC        LoadVerify_EEprom
  C:9DB3H         PUBLIC        Unique_Identifier_UID
  C:A142H         PUBLIC        Power_off
  C:A23EH         PUBLIC        _Check_Status
  C:8F93H         PUBLIC        Clave_Seguridad_S2
  C:A0C2H         PUBLIC        Aut_Card_check_Status
  -------         PROC          _INICIALIZA
  X:0002H         SYMBOL        TipoMovimiento
  -------         DO            
  D:0003H         SYMBOL        j
  X:0003H         SYMBOL        bcc
  X:0004H         SYMBOL        g_scArrTxComSoft
  -------         ENDDO         
  C:92D7H         LINE#         66
  C:92DCH         LINE#         67
  C:92DCH         LINE#         70
  C:92DFH         LINE#         71
  C:92F5H         LINE#         72
  C:92F5H         LINE#         74
  C:92FEH         LINE#         76
  C:9304H         LINE#         77
  C:9307H         LINE#         78
  C:9309H         LINE#         79
  C:930DH         LINE#         80
  C:9311H         LINE#         81
  C:9315H         LINE#         82
  C:931DH         LINE#         83
  C:9321H         LINE#         84
  C:932DH         LINE#         85
  C:932DH         LINE#         86
  C:9341H         LINE#         87
  C:9344H         LINE#         88
  C:934CH         LINE#         89
  C:934EH         LINE#         90
  C:9353H         LINE#         91
  C:9362H         LINE#         92
  C:936DH         LINE#         93
  C:9373H         LINE#         94
  C:9373H         LINE#         95
  -------         ENDPROC       _INICIALIZA
BL51 BANKED LINKER/LOCATER V6.22.2.0                                                  11/04/2020  14:53:46  PAGE 95


  -------         PROC          _CHECK_STATUS
  X:0002H         SYMBOL        Detalle
  -------         DO            
  D:0006H         SYMBOL        j
  D:0007H         SYMBOL        bcc
  X:0003H         SYMBOL        g_scArrTxComSoft
  -------         ENDDO         
  C:A23EH         LINE#         107
  C:A243H         LINE#         108
  C:A243H         LINE#         111
  C:A24CH         LINE#         113
  C:A24EH         LINE#         115
  C:A254H         LINE#         116
  C:A257H         LINE#         117
  C:A259H         LINE#         118
  C:A25DH         LINE#         119
  C:A261H         LINE#         120
  C:A265H         LINE#         121
  C:A26DH         LINE#         122
  C:A271H         LINE#         123
  C:A27DH         LINE#         124
  C:A27DH         LINE#         125
  C:A28AH         LINE#         126
  C:A28DH         LINE#         127
  C:A292H         LINE#         128
  C:A294H         LINE#         129
  C:A299H         LINE#         130
  C:A2A8H         LINE#         131
  C:A2B3H         LINE#         132
  C:A2B9H         LINE#         133
  -------         ENDPROC       _CHECK_STATUS
  -------         PROC          _CARD_INSERCION
  D:0007H         SYMBOL        Tipo
  -------         DO            
  D:0006H         SYMBOL        j
  D:0007H         SYMBOL        bcc
  X:0002H         SYMBOL        g_scArrTxComSoft
  -------         ENDDO         
  C:9832H         LINE#         143
  C:9832H         LINE#         144
  C:9832H         LINE#         147
  C:983FH         LINE#         148
  C:983FH         LINE#         149
  C:9846H         LINE#         150
  C:984CH         LINE#         151
  C:984EH         LINE#         153
  C:984EH         LINE#         155
  C:9855H         LINE#         156
  C:985BH         LINE#         158
  C:985BH         LINE#         160
  C:985DH         LINE#         162
  C:9863H         LINE#         163
  C:9866H         LINE#         164
  C:9868H         LINE#         165
  C:986CH         LINE#         166
  C:9870H         LINE#         167
  C:9874H         LINE#         169
BL51 BANKED LINKER/LOCATER V6.22.2.0                                                  11/04/2020  14:53:46  PAGE 96


  C:987AH         LINE#         170
  C:9886H         LINE#         171
  C:9886H         LINE#         172
  C:9893H         LINE#         173
  C:9896H         LINE#         175
  C:989BH         LINE#         177
  C:989DH         LINE#         178
  C:98A2H         LINE#         179
  C:98B1H         LINE#         180
  C:98BCH         LINE#         181
  C:98C2H         LINE#         182
  -------         ENDPROC       _CARD_INSERCION
  -------         PROC          _MOV_CARD
  X:0002H         SYMBOL        Posicion
  -------         DO            
  D:0003H         SYMBOL        j
  X:0003H         SYMBOL        bcc
  X:0004H         SYMBOL        g_scArrTxComSoft
  -------         ENDDO         
  C:7B42H         LINE#         193
  C:7B47H         LINE#         194
  C:7B47H         LINE#         197
  C:7B4AH         LINE#         199
  C:7B6AH         LINE#         200
  C:7B6AH         LINE#         201
  C:7B71H         LINE#         202
  C:7B71H         LINE#         203
  C:7B77H         LINE#         204
  C:7B79H         LINE#         205
  C:7B80H         LINE#         206
  C:7B80H         LINE#         207
  C:7B86H         LINE#         208
  C:7B88H         LINE#         209
  C:7B8FH         LINE#         210
  C:7B8FH         LINE#         211
  C:7B95H         LINE#         212
  C:7B97H         LINE#         213
  C:7B9EH         LINE#         214
  C:7B9EH         LINE#         215
  C:7BA4H         LINE#         216
  C:7BA6H         LINE#         217
  C:7BADH         LINE#         218
  C:7BADH         LINE#         219
  C:7BB6H         LINE#         220
  C:7BB6H         LINE#         222
  C:7BBCH         LINE#         223
  C:7BBFH         LINE#         224
  C:7BC1H         LINE#         225
  C:7BC5H         LINE#         226
  C:7BC9H         LINE#         227
  C:7BCDH         LINE#         228
  C:7BD5H         LINE#         229
  C:7BD9H         LINE#         230
  C:7BE5H         LINE#         231
  C:7BE5H         LINE#         232
  C:7BF9H         LINE#         233
  C:7BFCH         LINE#         234
BL51 BANKED LINKER/LOCATER V6.22.2.0                                                  11/04/2020  14:53:46  PAGE 97


  C:7C04H         LINE#         235
  C:7C06H         LINE#         236
  C:7C0BH         LINE#         237
  C:7C1AH         LINE#         238
  C:7C25H         LINE#         239
  C:7C2BH         LINE#         240
  C:7C2BH         LINE#         242
  -------         ENDPROC       _MOV_CARD
  -------         PROC          AUT_CARD_CHECK_STATUS
  -------         DO            
  D:0003H         SYMBOL        j
  X:0002H         SYMBOL        bcc
  X:0003H         SYMBOL        g_scArrTxComSoft
  -------         ENDDO         
  C:A0C2H         LINE#         248
  C:A0C2H         LINE#         249
  C:A0C2H         LINE#         252
  C:A0C7H         LINE#         254
  C:A0D0H         LINE#         256
  C:A0D6H         LINE#         257
  C:A0D9H         LINE#         258
  C:A0DBH         LINE#         259
  C:A0DFH         LINE#         260
  C:A0E3H         LINE#         261
  C:A0E7H         LINE#         262
  C:A0EBH         LINE#         263
  C:A0EFH         LINE#         264
  C:A0FBH         LINE#         265
  C:A0FBH         LINE#         266
  C:A10FH         LINE#         267
  C:A112H         LINE#         268
  C:A11AH         LINE#         269
  C:A11CH         LINE#         270
  C:A121H         LINE#         271
  C:A130H         LINE#         272
  C:A13BH         LINE#         273
  C:A141H         LINE#         274
  -------         ENDPROC       AUT_CARD_CHECK_STATUS
  -------         PROC          CLAVE_SEGURIDAD_S2
  -------         DO            
  D:0003H         SYMBOL        j
  X:0002H         SYMBOL        bcc
  X:0003H         SYMBOL        g_scArrTxComSoft
  -------         ENDDO         
  C:8F93H         LINE#         277
  C:8F93H         LINE#         278
  C:8F93H         LINE#         281
  C:8F98H         LINE#         282
  C:8FA1H         LINE#         285
  C:8FA7H         LINE#         286
  C:8FAAH         LINE#         287
  C:8FACH         LINE#         288
  C:8FB0H         LINE#         289
  C:8FB4H         LINE#         290
  C:8FB8H         LINE#         291
  C:8FBCH         LINE#         292
  C:8FBFH         LINE#         293
BL51 BANKED LINKER/LOCATER V6.22.2.0                                                  11/04/2020  14:53:46  PAGE 98


  C:8FC3H         LINE#         294
  C:8FC6H         LINE#         295
  C:8FCAH         LINE#         297
  C:8FCEH         LINE#         299
  C:8FD2H         LINE#         300
  C:8FD6H         LINE#         301
  C:8FDAH         LINE#         302
  C:8FDEH         LINE#         303
  C:8FE2H         LINE#         304
  C:8FE6H         LINE#         307
  C:8FEAH         LINE#         309
  C:8FF6H         LINE#         310
  C:8FF6H         LINE#         311
  C:900AH         LINE#         312
  C:900DH         LINE#         313
  C:9015H         LINE#         314
  C:9017H         LINE#         315
  C:901CH         LINE#         316
  C:902BH         LINE#         317
  C:9036H         LINE#         318
  C:903CH         LINE#         321
  -------         ENDPROC       CLAVE_SEGURIDAD_S2
  -------         PROC          DWLOAD_EEPROM
  -------         DO            
  D:0003H         SYMBOL        j
  X:0002H         SYMBOL        bcc
  X:0003H         SYMBOL        g_scArrTxComSoft
  -------         ENDDO         
  C:903DH         LINE#         326
  C:903DH         LINE#         327
  C:903DH         LINE#         330
  C:9042H         LINE#         331
  C:904BH         LINE#         333
  C:9051H         LINE#         334
  C:9054H         LINE#         335
  C:9056H         LINE#         336
  C:905AH         LINE#         337
  C:905EH         LINE#         338
  C:9062H         LINE#         339
  C:9066H         LINE#         340
  C:9069H         LINE#         341
  C:906DH         LINE#         342
  C:9070H         LINE#         343
  C:9073H         LINE#         344
  C:9077H         LINE#         345
  C:907BH         LINE#         346
  C:907FH         LINE#         347
  C:9083H         LINE#         348
  C:9087H         LINE#         349
  C:908BH         LINE#         350
  C:908FH         LINE#         351
  C:9093H         LINE#         353
  C:909FH         LINE#         354
  C:909FH         LINE#         355
  C:90B3H         LINE#         356
  C:90B6H         LINE#         357
  C:90BEH         LINE#         358
BL51 BANKED LINKER/LOCATER V6.22.2.0                                                  11/04/2020  14:53:46  PAGE 99


  C:90C0H         LINE#         359
  C:90C5H         LINE#         360
  C:90D4H         LINE#         361
  C:90DFH         LINE#         362
  C:90E5H         LINE#         363
  -------         ENDPROC       DWLOAD_EEPROM
  -------         PROC          LOADVERIFY_EEPROM
  -------         DO            
  D:0003H         SYMBOL        j
  X:0002H         SYMBOL        bcc
  X:0003H         SYMBOL        g_scArrTxComSoft
  -------         ENDDO         
  C:9B01H         LINE#         369
  C:9B01H         LINE#         370
  C:9B01H         LINE#         373
  C:9B06H         LINE#         374
  C:9B0FH         LINE#         377
  C:9B15H         LINE#         378
  C:9B18H         LINE#         379
  C:9B1AH         LINE#         380
  C:9B1EH         LINE#         381
  C:9B22H         LINE#         382
  C:9B26H         LINE#         383
  C:9B2AH         LINE#         384
  C:9B2DH         LINE#         385
  C:9B31H         LINE#         386
  C:9B34H         LINE#         387
  C:9B37H         LINE#         388
  C:9B3BH         LINE#         393
  C:9B47H         LINE#         394
  C:9B47H         LINE#         395
  C:9B5BH         LINE#         396
  C:9B5EH         LINE#         397
  C:9B66H         LINE#         398
  C:9B68H         LINE#         399
  C:9B6DH         LINE#         400
  C:9B7CH         LINE#         401
  C:9B87H         LINE#         402
  C:9B8DH         LINE#         404
  -------         ENDPROC       LOADVERIFY_EEPROM
  -------         PROC          _RD_MF
  X:0002H         SYMBOL        Sector
  X:0003H         SYMBOL        Bloque
  -------         DO            
  D:0003H         SYMBOL        j
  X:0004H         SYMBOL        bcc
  X:0005H         SYMBOL        g_scArrTxComSoft
  -------         ENDDO         
  C:8798H         LINE#         410
  C:87A0H         LINE#         411
  C:87A0H         LINE#         415
  C:87A3H         LINE#         417
  C:87ACH         LINE#         418
  C:87B4H         LINE#         420
  C:87BDH         LINE#         421
  C:87C5H         LINE#         422
  C:87CEH         LINE#         425
BL51 BANKED LINKER/LOCATER V6.22.2.0                                                  11/04/2020  14:53:46  PAGE 100


  C:87D4H         LINE#         426
  C:87D7H         LINE#         427
  C:87D9H         LINE#         428
  C:87DDH         LINE#         429
  C:87E1H         LINE#         430
  C:87E5H         LINE#         431
  C:87E9H         LINE#         432
  C:87ECH         LINE#         433
  C:87F0H         LINE#         434
  C:87F8H         LINE#         435
  C:8800H         LINE#         436
  C:8804H         LINE#         437
  C:8808H         LINE#         439
  C:8814H         LINE#         440
  C:8814H         LINE#         441
  C:8828H         LINE#         442
  C:882BH         LINE#         443
  C:8833H         LINE#         446
  C:8835H         LINE#         447
  C:883AH         LINE#         448
  C:8849H         LINE#         449
  C:8854H         LINE#         450
  C:885AH         LINE#         452
  -------         ENDPROC       _RD_MF
  -------         PROC          _WR_MF
  X:0002H         SYMBOL        Sector
  X:0003H         SYMBOL        Bloque
  X:0004H         SYMBOL        buffer
  -------         DO            
  D:0005H         SYMBOL        j
  X:0007H         SYMBOL        bcc
  X:0008H         SYMBOL        g_scArrTxComSoft
  -------         ENDDO         
  C:726DH         LINE#         459
  C:727EH         LINE#         461
  C:727EH         LINE#         464
  C:7281H         LINE#         466
  C:728AH         LINE#         467
  C:7292H         LINE#         469
  C:729BH         LINE#         470
  C:72A3H         LINE#         471
  C:72ACH         LINE#         473
  C:72B2H         LINE#         474
  C:72B5H         LINE#         475
  C:72B7H         LINE#         476
  C:72BBH         LINE#         478
  C:72BFH         LINE#         479
  C:72C3H         LINE#         480
  C:72C7H         LINE#         481
  C:72CAH         LINE#         482
  C:72CEH         LINE#         483
  C:72D6H         LINE#         484
  C:72DEH         LINE#         485
  C:72E2H         LINE#         487
  C:72EEH         LINE#         488
  C:72EEH         LINE#         489
  C:730EH         LINE#         490
BL51 BANKED LINKER/LOCATER V6.22.2.0                                                  11/04/2020  14:53:46  PAGE 101


  C:7311H         LINE#         492
  C:7317H         LINE#         494
  C:7323H         LINE#         495
  C:7323H         LINE#         496
  C:733AH         LINE#         497
  C:733DH         LINE#         498
  C:7345H         LINE#         501
  C:7347H         LINE#         502
  C:734CH         LINE#         503
  C:735BH         LINE#         504
  C:7366H         LINE#         505
  C:736CH         LINE#         507
  -------         ENDPROC       _WR_MF
  -------         PROC          UNIQUE_IDENTIFIER_UID
  -------         DO            
  D:0003H         SYMBOL        j
  X:0002H         SYMBOL        bcc
  X:0003H         SYMBOL        g_scArrTxComSoft
  -------         ENDDO         
  C:9DB3H         LINE#         512
  C:9DB3H         LINE#         513
  C:9DB3H         LINE#         516
  C:9DB8H         LINE#         518
  C:9DC1H         LINE#         520
  C:9DC7H         LINE#         521
  C:9DCAH         LINE#         522
  C:9DCCH         LINE#         523
  C:9DD0H         LINE#         524
  C:9DD4H         LINE#         525
  C:9DD8H         LINE#         526
  C:9DDCH         LINE#         527
  C:9DE0H         LINE#         528
  C:9DE4H         LINE#         529
  C:9DE8H         LINE#         530
  C:9DF4H         LINE#         531
  C:9DF4H         LINE#         532
  C:9E08H         LINE#         533
  C:9E0BH         LINE#         534
  C:9E13H         LINE#         535
  C:9E15H         LINE#         536
  C:9E1AH         LINE#         537
  C:9E29H         LINE#         538
  C:9E34H         LINE#         539
  C:9E3AH         LINE#         540
  -------         ENDPROC       UNIQUE_IDENTIFIER_UID
  -------         PROC          POWER_OFF
  -------         DO            
  D:0003H         SYMBOL        j
  X:0002H         SYMBOL        bcc
  X:0003H         SYMBOL        g_scArrTxComSoft
  -------         ENDDO         
  C:A142H         LINE#         541
  C:A142H         LINE#         542
  C:A142H         LINE#         545
  C:A147H         LINE#         547
  C:A150H         LINE#         549
  C:A156H         LINE#         550
BL51 BANKED LINKER/LOCATER V6.22.2.0                                                  11/04/2020  14:53:46  PAGE 102


  C:A159H         LINE#         551
  C:A15BH         LINE#         552
  C:A15FH         LINE#         553
  C:A163H         LINE#         554
  C:A167H         LINE#         555
  C:A16BH         LINE#         556
  C:A16FH         LINE#         557
  C:A17BH         LINE#         558
  C:A17BH         LINE#         559
  C:A18FH         LINE#         560
  C:A192H         LINE#         561
  C:A19AH         LINE#         562
  C:A19CH         LINE#         563
  C:A1A1H         LINE#         564
  C:A1B0H         LINE#         565
  C:A1BBH         LINE#         566
  C:A1C1H         LINE#         569
  -------         ENDPROC       POWER_OFF
  -------         ENDMOD        LINTECH

  -------         MODULE        VERIFICADOR
  C:0000H         SYMBOL        _ICE_DUMMY_
  D:0080H         PUBLIC        P0
  C:B3CEH         PUBLIC        Analiza_Presencia_Mensual
  C:A82EH         PUBLIC        Ingreso_Vehiculo
  D:0090H         PUBLIC        P1
  C:B359H         PUBLIC        _Armar_Trama_Tarjeta_Sector1_Bloque0
  D:00B0H         PUBLIC        P3
  C:58B0H         PUBLIC        _Valida_Tipo_Tarjeta
  C:AF9BH         PUBLIC        _Load_Secuencia_Expedidor
  C:613BH         PUBLIC        _Armar_Trama_Tarjeta_Sector1_Bloque2
  C:5707H         PUBLIC        _Armar_Trama_Pto_Paralelo_Expedidor
  C:86D4H         PUBLIC        _Tarjeta_Mensual
  C:B41AH         PUBLIC        Analiza_Presencia_rotacion
  C:A64AH         PUBLIC        _Disparo_Lock_Entrada_Vehiculo
  C:9675H         PUBLIC        _Valida_Vehiculo_Card_Mensual
  C:A8DFH         PUBLIC        _Armar_Trama_Placa
  C:83B2H         PUBLIC        _rta_cmd_transporte
  C:B642H         PUBLIC        Captura_Expulsa
  C:5EA2H         PUBLIC        _Armar_Trama_Monitor
  C:64FAH         PUBLIC        Secuencia_inicio_expedidor
  C:7EC9H         PUBLIC        _Analiza_Uid_Card
  B:0080H.0       PUBLIC        rx_ip
  C:716AH         PUBLIC        _Bloque_Horario
  B:0090H.7       PUBLIC        lock
  C:9233H         PUBLIC        _Armar_Trama_Tarjeta_Sector1_Bloque1_Camcel
  C:940FH         PUBLIC        _Responde_Lectura_Tarjeta_Sector1_Bloque0
  C:89DEH         PUBLIC        error_rx_pto
  C:5375H         PUBLIC        _Responde_Lectura_Tarjeta_Sector1_Bloque1
  C:676FH         PUBLIC        _Responde_Lectura_Tarjeta_Sector1_Bloque2
  C:970DH         PUBLIC        _Respuesta_Placa_Cancel
  B:0090H.1       PUBLIC        DataIn
  C:9EBFH         PUBLIC        _Send_Pto_Paralelo
  C:B1EFH         PUBLIC        Trama_Validacion_P_N
  B:0021H.6       PUBLIC        MenSual
  C:8076H         PUBLIC        _Armar_Trama_Pto_Paralelo_Expedidor_Mensual
  B:0080H.3       PUBLIC        Rele_Atasco
BL51 BANKED LINKER/LOCATER V6.22.2.0                                                  11/04/2020  14:53:46  PAGE 103


  C:6F4FH         PUBLIC        _Horarios
  C:8EE7H         PUBLIC        _Hora_Maxima
  C:3813H         PUBLIC        _SecuenciaExpedidorMF
  C:A712H         PUBLIC        _Pregunta_Lpr
  C:90E6H         PUBLIC        _Wait_Placa
  C:A2BAH         PUBLIC        Responde_Estado_Sensores_Transporte
  C:A336H         PUBLIC        Entrega_Card_Captura
  C:A7D1H         PUBLIC        _Respuesta_Segunda_clave
  X:0140H         SYMBOL        Estado
  C:B151H         PUBLIC        _Responde_Write_Tarjeta_Sector1_Bloque0
  C:B11BH         PUBLIC        _Responde_Write_Tarjeta_Sector1_Bloque1
  C:ABE4H         PUBLIC        _Responde_Write_Tarjeta_Sector2_Bloque0
  C:9A72H         PUBLIC        _Responde_Write_Tarjeta_Sector1_Bloque2
  C:A499H         PUBLIC        _En_Horario
  C:A3AFH         PUBLIC        Responde_Tipo_Tarjeta
  C:B254H         PUBLIC        _Tarjeta_Rotacion
  -------         PROC          CAPTURA_EXPULSA
  -------         DO            
  D:0007H         SYMBOL        Estado_expedidor
  -------         ENDDO         
  C:B642H         LINE#         526
  C:B642H         LINE#         527
  C:B642H         LINE#         531
  C:B645H         LINE#         532
  C:B645H         LINE#         533
  C:B647H         LINE#         534
  C:B648H         LINE#         536
  C:B648H         LINE#         538
  C:B64AH         LINE#         539
  C:B64AH         LINE#         542
  C:B64AH         LINE#         543
  -------         ENDPROC       CAPTURA_EXPULSA
  -------         PROC          TRAMA_VALIDACION_P_N
  -------         DO            
  D:0007H         SYMBOL        Trama_Validacion_P_N
  -------         ENDDO         
  C:B1EFH         LINE#         554
  C:B1EFH         LINE#         555
  C:B1EFH         LINE#         556
  C:B1F1H         LINE#         558
  C:B1FCH         LINE#         559
  C:B1FCH         LINE#         560
  C:B1FFH         LINE#         561
  C:B1FFH         LINE#         562
  C:B201H         LINE#         565
  C:B209H         LINE#         566
  C:B209H         LINE#         568
  C:B20BH         LINE#         570
  C:B20CH         LINE#         571
  C:B210H         LINE#         572
  C:B210H         LINE#         574
  C:B212H         LINE#         576
  C:B213H         LINE#         578
  C:B213H         LINE#         579
  C:B21CH         LINE#         580
  C:B21EH         LINE#         582
  C:B21EH         LINE#         583
BL51 BANKED LINKER/LOCATER V6.22.2.0                                                  11/04/2020  14:53:46  PAGE 104


  C:B21FH         LINE#         585
  C:B21FH         LINE#         587
  C:B221H         LINE#         589
  C:B221H         LINE#         591
  C:B221H         LINE#         593
  C:B221H         LINE#         594
  -------         ENDPROC       TRAMA_VALIDACION_P_N
  -------         PROC          ERROR_RX_PTO
  -------         DO            
  X:00B7H         SYMBOL        cnt_espera_ask_on
  X:0007H         SYMBOL        error_rx_pto
  -------         ENDDO         
  C:89DEH         LINE#         618
  C:89DEH         LINE#         619
  C:89DEH         LINE#         622
  C:89E4H         LINE#         626
  C:89EDH         LINE#         627
  C:89F5H         LINE#         628
  C:89FEH         LINE#         629
  C:8A06H         LINE#         630
  C:8A0FH         LINE#         631
  C:8A12H         LINE#         633
  C:8A12H         LINE#         634
  C:8A18H         LINE#         635
  C:8A22H         LINE#         636
  C:8A22H         LINE#         637
  C:8A2BH         LINE#         638
  C:8A2DH         LINE#         639
  C:8A34H         LINE#         640
  C:8A39H         LINE#         641
  C:8A3FH         LINE#         642
  C:8A44H         LINE#         643
  C:8A46H         LINE#         644
  C:8A4DH         LINE#         645
  C:8A53H         LINE#         646
  C:8A53H         LINE#         648
  C:8A53H         LINE#         649
  C:8A58H         LINE#         650
  C:8A58H         LINE#         651
  C:8A58H         LINE#         652
  C:8A5AH         LINE#         654
  C:8A5AH         LINE#         655
  C:8A68H         LINE#         656
  C:8A7BH         LINE#         657
  C:8A7BH         LINE#         658
  C:8A7CH         LINE#         660
  C:8A82H         LINE#         661
  C:8A86H         LINE#         662
  C:8A88H         LINE#         663
  C:8A88H         LINE#         664
  C:8A8AH         LINE#         666
  C:8A8AH         LINE#         667
  C:8A8BH         LINE#         668
  C:8A90H         LINE#         669
  C:8A96H         LINE#         670
  C:8A96H         LINE#         671
  C:8A96H         LINE#         672
BL51 BANKED LINKER/LOCATER V6.22.2.0                                                  11/04/2020  14:53:46  PAGE 105


  C:8A9BH         LINE#         673
  -------         ENDPROC       ERROR_RX_PTO
  -------         PROC          _RTA_CMD_TRANSPORTE
  X:0002H         SYMBOL        secuencia_Expedidor
  -------         DO            
  X:0005H         SYMBOL        temp
  X:0006H         SYMBOL        EstadoComSeqMF
  -------         ENDDO         
  C:83B2H         LINE#         689
  C:83BDH         LINE#         690
  C:83BDH         LINE#         696
  C:83CAH         LINE#         697
  C:83CAH         LINE#         698
  C:83D2H         LINE#         699
  C:83D2H         LINE#         700
  C:83E0H         LINE#         701
  C:83E3H         LINE#         702
  C:83E9H         LINE#         703
  C:83E9H         LINE#         704
  C:83F2H         LINE#         705
  C:8406H         LINE#         706
  C:8417H         LINE#         708
  C:8419H         LINE#         710
  C:8419H         LINE#         713
  C:8431H         LINE#         714
  C:8431H         LINE#         715
  C:843CH         LINE#         716
  C:843EH         LINE#         718
  C:843EH         LINE#         719
  C:844CH         LINE#         720
  C:844CH         LINE#         721
  C:844CH         LINE#         722
  C:844EH         LINE#         724
  C:844EH         LINE#         726
  C:8462H         LINE#         727
  C:8477H         LINE#         728
  C:8477H         LINE#         729
  C:847CH         LINE#         730
  -------         ENDPROC       _RTA_CMD_TRANSPORTE
  -------         PROC          ANALIZA_PRESENCIA_MENSUAL
  -------         DO            
  X:0002H         SYMBOL        Estado_expedidor
  -------         ENDDO         
  C:B3CEH         LINE#         734
  C:B3CEH         LINE#         735
  C:B3CEH         LINE#         737
  C:B3D4H         LINE#         738
  C:B3D4H         LINE#         739
  C:B3D6H         LINE#         740
  C:B3DCH         LINE#         741
  C:B3DEH         LINE#         743
  C:B3DEH         LINE#         745
  C:B3E3H         LINE#         746
  C:B3E8H         LINE#         747
  C:B3EEH         LINE#         749
  C:B3EEH         LINE#         750
  C:B3F3H         LINE#         751
BL51 BANKED LINKER/LOCATER V6.22.2.0                                                  11/04/2020  14:53:46  PAGE 106


  -------         ENDPROC       ANALIZA_PRESENCIA_MENSUAL
  -------         PROC          ANALIZA_PRESENCIA_ROTACION
  -------         DO            
  X:0002H         SYMBOL        Estado_expedidor
  -------         ENDDO         
  C:B41AH         LINE#         752
  C:B41AH         LINE#         753
  C:B41AH         LINE#         755
  C:B420H         LINE#         756
  C:B420H         LINE#         758
  C:B426H         LINE#         759
  C:B428H         LINE#         761
  C:B428H         LINE#         763
  C:B42DH         LINE#         764
  C:B432H         LINE#         765
  C:B437H         LINE#         767
  C:B437H         LINE#         768
  C:B43CH         LINE#         769
  -------         ENDPROC       ANALIZA_PRESENCIA_ROTACION
  -------         PROC          _ANALIZA_UID_CARD
  X:0002H         SYMBOL        Atributos_Expedidor
  -------         DO            
  X:0005H         SYMBOL        Estado_expedidor
  D:0007H         SYMBOL        temp
  X:0006H         SYMBOL        buffer_UID
  -------         ENDDO         
  C:7EC9H         LINE#         773
  C:7ED4H         LINE#         774
  C:7ED4H         LINE#         778
  C:7EE4H         LINE#         779
  C:7EE4H         LINE#         781
  C:7EF0H         LINE#         782
  C:7EF0H         LINE#         783
  C:7F08H         LINE#         785
  C:7F0BH         LINE#         787
  C:7F14H         LINE#         788
  C:7F25H         LINE#         791
  C:7F2EH         LINE#         792
  C:7F36H         LINE#         793
  C:7F3EH         LINE#         794
  C:7F46H         LINE#         795
  C:7F4EH         LINE#         796
  C:7F57H         LINE#         798
  C:7F6EH         LINE#         799
  C:7F78H         LINE#         800
  C:7F82H         LINE#         801
  C:7F8CH         LINE#         802
  C:7F92H         LINE#         803
  C:7F94H         LINE#         805
  C:7F94H         LINE#         806
  C:7F9AH         LINE#         807
  C:7F9AH         LINE#         808
  C:7F9FH         LINE#         809
  -------         ENDPROC       _ANALIZA_UID_CARD
  -------         PROC          INGRESO_VEHICULO
  -------         DO            
  D:0007H         SYMBOL        CardAutomatic
BL51 BANKED LINKER/LOCATER V6.22.2.0                                                  11/04/2020  14:53:46  PAGE 107


  X:00B9H         SYMBOL        pulseboton
  -------         ENDDO         
  C:A82EH         LINE#         813
  C:A82EH         LINE#         814
  C:A82EH         LINE#         818
  C:A834H         LINE#         819
  C:A834H         LINE#         820
  C:A83DH         LINE#         822
  C:A842H         LINE#         823
  C:A842H         LINE#         824
  C:A84BH         LINE#         826
  C:A84BH         LINE#         827
  C:A84DH         LINE#         829
  C:A84DH         LINE#         830
  C:A853H         LINE#         831
  C:A858H         LINE#         832
  C:A85AH         LINE#         834
  C:A85AH         LINE#         835
  C:A860H         LINE#         838
  C:A860H         LINE#         839
  C:A863H         LINE#         840
  C:A866H         LINE#         841
  C:A866H         LINE#         842
  C:A86FH         LINE#         843
  C:A874H         LINE#         844
  C:A87AH         LINE#         845
  C:A87CH         LINE#         854
  C:A87CH         LINE#         856
  C:A881H         LINE#         857
  C:A881H         LINE#         858
  C:A886H         LINE#         859
  -------         ENDPROC       INGRESO_VEHICULO
  -------         PROC          RESPONDE_ESTADO_SENSORES_TRANSPORTE
  -------         DO            
  X:0002H         SYMBOL        Estado_expedidor
  -------         ENDDO         
  C:A2BAH         LINE#         866
  C:A2BAH         LINE#         867
  C:A2BAH         LINE#         870
  C:A2C3H         LINE#         872
  C:A2CBH         LINE#         873
  C:A2CBH         LINE#         875
  C:A2D6H         LINE#         876
  C:A2D6H         LINE#         877
  C:A2DAH         LINE#         878
  C:A2DAH         LINE#         879
  C:A2E3H         LINE#         880
  C:A2E8H         LINE#         882
  C:A2E8H         LINE#         883
  C:A2EAH         LINE#         885
  C:A2EAH         LINE#         887
  C:A2F2H         LINE#         889
  C:A2F2H         LINE#         890
  C:A2F4H         LINE#         892
  C:A2F4H         LINE#         894
  C:A2FDH         LINE#         896
  C:A302H         LINE#         899
BL51 BANKED LINKER/LOCATER V6.22.2.0                                                  11/04/2020  14:53:46  PAGE 108


  C:A302H         LINE#         900
  C:A302H         LINE#         901
  C:A304H         LINE#         902
  C:A30BH         LINE#         903
  C:A30BH         LINE#         905
  C:A311H         LINE#         907
  C:A311H         LINE#         908
  C:A313H         LINE#         909
  C:A31AH         LINE#         911
  C:A31AH         LINE#         912
  C:A323H         LINE#         913
  C:A329H         LINE#         914
  C:A32BH         LINE#         916
  C:A32BH         LINE#         917
  C:A330H         LINE#         918
  C:A330H         LINE#         919
  C:A335H         LINE#         920
  -------         ENDPROC       RESPONDE_ESTADO_SENSORES_TRANSPORTE
  -------         PROC          RESPONDE_TIPO_TARJETA
  -------         DO            
  X:0002H         SYMBOL        Estado_expedidor
  -------         ENDDO         
  C:A3AFH         LINE#         936
  C:A3AFH         LINE#         937
  C:A3AFH         LINE#         940
  C:A3B8H         LINE#         942
  C:A3C0H         LINE#         943
  C:A3C0H         LINE#         944
  C:A3CBH         LINE#         945
  C:A3CBH         LINE#         946
  C:A3D4H         LINE#         947
  C:A3DAH         LINE#         948
  C:A3DAH         LINE#         949
  C:A3DDH         LINE#         950
  C:A3DFH         LINE#         952
  C:A3DFH         LINE#         953
  C:A3E2H         LINE#         954
  C:A3E2H         LINE#         955
  C:A3E4H         LINE#         957
  C:A3E4H         LINE#         958
  C:A3EBH         LINE#         959
  C:A3EBH         LINE#         961
  C:A3F1H         LINE#         963
  C:A3F1H         LINE#         964
  C:A3F1H         LINE#         966
  C:A3F1H         LINE#         968
  C:A3F3H         LINE#         970
  C:A3F3H         LINE#         971
  C:A3F3H         LINE#         972
  C:A3F3H         LINE#         973
  C:A3F3H         LINE#         974
  C:A3F3H         LINE#         975
  C:A3F5H         LINE#         977
  C:A3F5H         LINE#         978
  C:A3FCH         LINE#         979
  C:A3FCH         LINE#         982
  C:A405H         LINE#         984
BL51 BANKED LINKER/LOCATER V6.22.2.0                                                  11/04/2020  14:53:46  PAGE 109


  C:A40AH         LINE#         985
  C:A40FH         LINE#         987
  C:A417H         LINE#         990
  C:A419H         LINE#         992
  C:A419H         LINE#         993
  C:A41BH         LINE#         994
  C:A420H         LINE#         995
  C:A420H         LINE#         996
  C:A420H         LINE#         998
  C:A425H         LINE#         999
  -------         ENDPROC       RESPONDE_TIPO_TARJETA
  -------         PROC          _RESPONDE_LECTURA_TARJETA_SECTOR1_BLOQUE1
  X:0002H         SYMBOL        Atributos_Expedidor
  -------         DO            
  D:0007H         SYMBOL        temp
  X:0005H         SYMBOL        Estado_expedidor
  X:0006H         SYMBOL        buffer_S1_B1
  X:0017H         SYMBOL        ID_CLIENTE
  D:0007H         SYMBOL        COD_PARK
  X:00BAH         SYMBOL        falla
  -------         ENDDO         
  C:5375H         LINE#         1011
  C:5380H         LINE#         1012
  C:5380H         LINE#         1019
  C:5389H         LINE#         1023
  C:5399H         LINE#         1024
  C:5399H         LINE#         1026
  C:53A5H         LINE#         1027
  C:53A5H         LINE#         1028
  C:53BDH         LINE#         1030
  C:53C0H         LINE#         1033
  C:53C9H         LINE#         1034
  C:53DAH         LINE#         1035
  C:53E7H         LINE#         1036
  C:53F0H         LINE#         1039
  C:540FH         LINE#         1040
  C:540FH         LINE#         1042
  C:5418H         LINE#         1043
  C:5420H         LINE#         1044
  C:5429H         LINE#         1046
  C:5432H         LINE#         1047
  C:543AH         LINE#         1048
  C:5443H         LINE#         1050
  C:544CH         LINE#         1051
  C:5454H         LINE#         1052
  C:545DH         LINE#         1054
  C:5466H         LINE#         1055
  C:546EH         LINE#         1056
  C:5477H         LINE#         1058
  C:5480H         LINE#         1059
  C:5488H         LINE#         1060
  C:5491H         LINE#         1062
  C:54A8H         LINE#         1064
  C:54B2H         LINE#         1065
  C:54BCH         LINE#         1066
  C:54C6H         LINE#         1068
  C:54CBH         LINE#         1069
BL51 BANKED LINKER/LOCATER V6.22.2.0                                                  11/04/2020  14:53:46  PAGE 110


  C:54DEH         LINE#         1070
  C:54E3H         LINE#         1071
  C:54E9H         LINE#         1073
  C:54EBH         LINE#         1075
  C:54EBH         LINE#         1076
  C:54F0H         LINE#         1077
  C:54F9H         LINE#         1078
  C:54FEH         LINE#         1079
  C:5500H         LINE#         1080
  C:5500H         LINE#         1081
  C:5500H         LINE#         1082
  C:5502H         LINE#         1084
  C:5502H         LINE#         1086
  C:550AH         LINE#         1087
  C:550AH         LINE#         1088
  C:5510H         LINE#         1089
  C:5510H         LINE#         1090
  C:551DH         LINE#         1092
  C:551DH         LINE#         1093
  C:5526H         LINE#         1094
  C:552CH         LINE#         1096
  C:552EH         LINE#         1098
  C:552EH         LINE#         1099
  C:5533H         LINE#         1100
  C:553CH         LINE#         1101
  C:5541H         LINE#         1102
  C:5546H         LINE#         1103
  C:554EH         LINE#         1104
  C:554EH         LINE#         1105
  C:554EH         LINE#         1107
  C:5553H         LINE#         1108
  -------         ENDPROC       _RESPONDE_LECTURA_TARJETA_SECTOR1_BLOQUE1
  -------         PROC          _RESPONDE_LECTURA_TARJETA_SECTOR1_BLOQUE2
  X:0002H         SYMBOL        Atributos_Expedidor
  -------         DO            
  D:0007H         SYMBOL        temp
  X:0005H         SYMBOL        Estado_expedidor
  X:0006H         SYMBOL        buffer_S1_B2
  -------         ENDDO         
  C:676FH         LINE#         1113
  C:677AH         LINE#         1114
  C:677AH         LINE#         1120
  C:6783H         LINE#         1124
  C:6793H         LINE#         1125
  C:6793H         LINE#         1127
  C:679FH         LINE#         1128
  C:679FH         LINE#         1129
  C:67B7H         LINE#         1130
  C:67BAH         LINE#         1131
  C:67C3H         LINE#         1132
  C:67D4H         LINE#         1136
  C:67DDH         LINE#         1137
  C:67EAH         LINE#         1138
  C:6806H         LINE#         1139
  C:680FH         LINE#         1141
  C:6818H         LINE#         1143
  C:6834H         LINE#         1144
BL51 BANKED LINKER/LOCATER V6.22.2.0                                                  11/04/2020  14:53:46  PAGE 111


  C:683EH         LINE#         1145
  C:6847H         LINE#         1148
  C:6850H         LINE#         1149
  C:6858H         LINE#         1150
  C:6861H         LINE#         1154
  C:6878H         LINE#         1157
  C:6884H         LINE#         1158
  C:688AH         LINE#         1161
  C:688CH         LINE#         1163
  C:688CH         LINE#         1164
  C:6894H         LINE#         1165
  C:6894H         LINE#         1166
  C:6899H         LINE#         1167
  -------         ENDPROC       _RESPONDE_LECTURA_TARJETA_SECTOR1_BLOQUE2
  -------         PROC          _RESPONDE_LECTURA_TARJETA_SECTOR1_BLOQUE0
  X:0002H         SYMBOL        Nombre_Mensual
  -------         DO            
  D:0007H         SYMBOL        temp
  X:0005H         SYMBOL        Estado_expedidor
  -------         ENDDO         
  C:940FH         LINE#         1169
  C:941AH         LINE#         1170
  C:941AH         LINE#         1176
  C:9423H         LINE#         1180
  C:9430H         LINE#         1181
  C:9430H         LINE#         1183
  C:943CH         LINE#         1184
  C:943CH         LINE#         1185
  C:945CH         LINE#         1186
  C:945FH         LINE#         1187
  C:9473H         LINE#         1188
  C:947CH         LINE#         1189
  C:948AH         LINE#         1190
  C:9493H         LINE#         1191
  C:9499H         LINE#         1194
  C:949BH         LINE#         1196
  C:949BH         LINE#         1197
  C:94A3H         LINE#         1198
  C:94A3H         LINE#         1199
  C:94A8H         LINE#         1200
  -------         ENDPROC       _RESPONDE_LECTURA_TARJETA_SECTOR1_BLOQUE0
  -------         PROC          _RESPONDE_WRITE_TARJETA_SECTOR1_BLOQUE1
  X:0002H         SYMBOL        Buffer_Write_MF
  -------         DO            
  D:0007H         SYMBOL        Estado_expedidor
  -------         ENDDO         
  C:B11BH         LINE#         1201
  C:B126H         LINE#         1202
  C:B126H         LINE#         1204
  C:B12FH         LINE#         1205
  C:B138H         LINE#         1206
  C:B14EH         LINE#         1207
  C:B150H         LINE#         1208
  C:B150H         LINE#         1209
  -------         ENDPROC       _RESPONDE_WRITE_TARJETA_SECTOR1_BLOQUE1
  -------         PROC          _RESPONDE_WRITE_TARJETA_SECTOR1_BLOQUE2
  X:0002H         SYMBOL        Atributos_Expedidor
BL51 BANKED LINKER/LOCATER V6.22.2.0                                                  11/04/2020  14:53:46  PAGE 112


  X:0005H         SYMBOL        Buffer_Write_MF
  -------         DO            
  X:0008H         SYMBOL        Estado_expedidor
  -------         ENDDO         
  C:9A72H         LINE#         1210
  C:9A7DH         LINE#         1211
  C:9A7DH         LINE#         1213
  C:9A86H         LINE#         1214
  C:9A8FH         LINE#         1215
  C:9AA5H         LINE#         1216
  C:9AB5H         LINE#         1217
  C:9AB5H         LINE#         1218
  C:9AB8H         LINE#         1219
  C:9ACAH         LINE#         1220
  C:9AD8H         LINE#         1221
  C:9ADEH         LINE#         1222
  C:9AE0H         LINE#         1224
  C:9AE0H         LINE#         1225
  C:9AE3H         LINE#         1226
  C:9AF5H         LINE#         1227
  C:9AFBH         LINE#         1229
  C:9AFBH         LINE#         1230
  C:9B00H         LINE#         1231
  -------         ENDPROC       _RESPONDE_WRITE_TARJETA_SECTOR1_BLOQUE2
  -------         PROC          _RESPONDE_WRITE_TARJETA_SECTOR1_BLOQUE0
  X:0002H         SYMBOL        Buffer_Write_MF
  C:B151H         LINE#         1234
  C:B15CH         LINE#         1235
  C:B15CH         LINE#         1237
  C:B165H         LINE#         1238
  C:B16EH         LINE#         1239
  C:B184H         LINE#         1241
  C:B186H         LINE#         1242
  -------         ENDPROC       _RESPONDE_WRITE_TARJETA_SECTOR1_BLOQUE0
  -------         PROC          _PREGUNTA_LPR
  X:0002H         SYMBOL        Atributos_Expedidor
  -------         DO            
  X:0005H         SYMBOL        Estado_expedidor
  -------         ENDDO         
  C:A712H         LINE#         1245
  C:A71DH         LINE#         1246
  C:A71DH         LINE#         1248
  C:A72BH         LINE#         1249
  C:A72BH         LINE#         1251
  C:A73CH         LINE#         1252
  C:A748H         LINE#         1253
  C:A748H         LINE#         1254
  C:A74CH         LINE#         1255
  C:A74CH         LINE#         1256
  C:A74CH         LINE#         1258
  C:A75BH         LINE#         1259
  C:A75BH         LINE#         1261
  C:A75EH         LINE#         1262
  C:A763H         LINE#         1263
  C:A768H         LINE#         1264
  C:A76AH         LINE#         1266
  C:A76AH         LINE#         1267
BL51 BANKED LINKER/LOCATER V6.22.2.0                                                  11/04/2020  14:53:46  PAGE 113


  C:A76DH         LINE#         1268
  C:A76DH         LINE#         1269
  C:A772H         LINE#         1270
  -------         ENDPROC       _PREGUNTA_LPR
  -------         PROC          _RESPONDE_WRITE_TARJETA_SECTOR2_BLOQUE0
  X:0002H         SYMBOL        Buffer_Write_MF
  C:ABE4H         LINE#         1273
  C:ABEFH         LINE#         1274
  C:ABEFH         LINE#         1276
  C:ABF8H         LINE#         1277
  C:AC01H         LINE#         1278
  C:AC0AH         LINE#         1279
  C:AC13H         LINE#         1280
  C:AC28H         LINE#         1281
  C:AC2AH         LINE#         1282
  -------         ENDPROC       _RESPONDE_WRITE_TARJETA_SECTOR2_BLOQUE0
  -------         PROC          _RESPUESTA_SEGUNDA_CLAVE
  X:0002H         SYMBOL        Atributos_Expedidor
  X:0005H         SYMBOL        Buffer_Write_MF
  C:A7D1H         LINE#         1283
  C:A7DCH         LINE#         1284
  C:A7DCH         LINE#         1286
  C:A7E5H         LINE#         1287
  C:A7FBH         LINE#         1290
  C:A80BH         LINE#         1291
  C:A81DH         LINE#         1292
  C:A82BH         LINE#         1294
  C:A82DH         LINE#         1295
  -------         ENDPROC       _RESPUESTA_SEGUNDA_CLAVE
  -------         PROC          _RESPUESTA_PLACA_CANCEL
  X:0009H         SYMBOL        Atributos_Expedidor
  X:000CH         SYMBOL        Buffer_Write_MF
  -------         DO            
  X:000FH         SYMBOL        Estado_expedidor
  X:0010H         SYMBOL        Cancel
  -------         ENDDO         
  C:970DH         LINE#         1296
  C:9718H         LINE#         1297
  C:9718H         LINE#         1299
  C:9726H         LINE#         1300
  C:972FH         LINE#         1301
  C:9738H         LINE#         1302
  C:9741H         LINE#         1303
  C:975CH         LINE#         1304
  C:975CH         LINE#         1305
  C:976CH         LINE#         1306
  C:977FH         LINE#         1307
  C:978DH         LINE#         1308
  C:9793H         LINE#         1309
  C:9795H         LINE#         1311
  C:9795H         LINE#         1313
  C:979BH         LINE#         1314
  C:979BH         LINE#         1315
  C:97A0H         LINE#         1316
  -------         ENDPROC       _RESPUESTA_PLACA_CANCEL
  -------         PROC          _ARMAR_TRAMA_TARJETA_SECTOR1_BLOQUE1_CAMCEL
  X:0013H         SYMBOL        Buffer_Write_MF
BL51 BANKED LINKER/LOCATER V6.22.2.0                                                  11/04/2020  14:53:46  PAGE 114


  -------         DO            
  X:0016H         SYMBOL        ID_CLIENTE
  D:0007H         SYMBOL        COD_PARK
  -------         ENDDO         
  C:9233H         LINE#         1319
  C:923EH         LINE#         1320
  C:923EH         LINE#         1324
  C:9241H         LINE#         1325
  C:924EH         LINE#         1326
  C:9257H         LINE#         1328
  C:9267H         LINE#         1329
  C:9279H         LINE#         1330
  C:9280H         LINE#         1331
  C:928AH         LINE#         1332
  C:9291H         LINE#         1333
  C:9298H         LINE#         1334
  C:929FH         LINE#         1335
  C:92A6H         LINE#         1336
  C:92ADH         LINE#         1337
  C:92B4H         LINE#         1338
  C:92BBH         LINE#         1339
  C:92C2H         LINE#         1340
  C:92C9H         LINE#         1341
  C:92D0H         LINE#         1342
  -------         ENDPROC       _ARMAR_TRAMA_TARJETA_SECTOR1_BLOQUE1_CAMCEL
  -------         PROC          _ARMAR_TRAMA_TARJETA_SECTOR1_BLOQUE2
  X:0010H         SYMBOL        Atributos_Expedidor
  X:0013H         SYMBOL        Buffer_Write_MF
  C:613BH         LINE#         1348
  C:6146H         LINE#         1349
  C:6146H         LINE#         1353
  C:6152H         LINE#         1357
  C:6164H         LINE#         1358
  C:616BH         LINE#         1359
  C:6172H         LINE#         1361
  C:6187H         LINE#         1362
  C:6187H         LINE#         1363
  C:619EH         LINE#         1364
  C:61B7H         LINE#         1365
  C:61B7H         LINE#         1366
  C:61BAH         LINE#         1370
  C:61BAH         LINE#         1372
  C:61E9H         LINE#         1373
  C:6218H         LINE#         1375
  C:6230H         LINE#         1376
  C:6230H         LINE#         1377
  C:623DH         LINE#         1378
  C:623FH         LINE#         1380
  C:623FH         LINE#         1381
  C:624FH         LINE#         1382
  C:624FH         LINE#         1383
  C:624FH         LINE#         1385
  C:6261H         LINE#         1386
  C:6268H         LINE#         1387
  C:626FH         LINE#         1388
  C:6276H         LINE#         1389
  -------         ENDPROC       _ARMAR_TRAMA_TARJETA_SECTOR1_BLOQUE2
BL51 BANKED LINKER/LOCATER V6.22.2.0                                                  11/04/2020  14:53:46  PAGE 115


  -------         PROC          _ARMAR_TRAMA_TARJETA_SECTOR1_BLOQUE0
  X:0009H         SYMBOL        Buffer_Write_MF
  C:B359H         LINE#         1391
  C:B364H         LINE#         1392
  C:B364H         LINE#         1394
  -------         ENDPROC       _ARMAR_TRAMA_TARJETA_SECTOR1_BLOQUE0
  -------         PROC          _ARMAR_TRAMA_PTO_PARALELO_EXPEDIDOR
  X:0006H         SYMBOL        h
  -------         DO            
  X:00BBH         SYMBOL        buffer
  X:0009H         SYMBOL        ticket
  X:0014H         SYMBOL        j
  -------         ENDDO         
  C:5707H         LINE#         1396
  C:5712H         LINE#         1397
  C:5712H         LINE#         1404
  C:5718H         LINE#         1405
  C:571CH         LINE#         1406
  C:571FH         LINE#         1407
  C:572BH         LINE#         1408
  C:5742H         LINE#         1409
  C:5750H         LINE#         1411
  C:5761H         LINE#         1413
  C:5771H         LINE#         1414
  C:5783H         LINE#         1415
  C:5791H         LINE#         1416
  C:579FH         LINE#         1417
  C:57ADH         LINE#         1418
  C:57BBH         LINE#         1419
  C:57C8H         LINE#         1421
  C:57D7H         LINE#         1422
  C:57D7H         LINE#         1423
  C:57DAH         LINE#         1424
  C:57DAH         LINE#         1425
  C:57EEH         LINE#         1426
  C:57FDH         LINE#         1427
  C:580CH         LINE#         1428
  C:581BH         LINE#         1429
  C:582AH         LINE#         1430
  C:5839H         LINE#         1431
  C:5841H         LINE#         1432
  C:5843H         LINE#         1434
  C:5843H         LINE#         1435
  C:5854H         LINE#         1436
  C:585CH         LINE#         1437
  C:585CH         LINE#         1438
  C:585EH         LINE#         1440
  C:585EH         LINE#         1441
  C:586FH         LINE#         1442
  C:587BH         LINE#         1443
  C:587BH         LINE#         1444
  C:5889H         LINE#         1445
  C:5897H         LINE#         1446
  C:58A9H         LINE#         1448
  C:58AFH         LINE#         1449
  -------         ENDPROC       _ARMAR_TRAMA_PTO_PARALELO_EXPEDIDOR
  -------         PROC          _ARMAR_TRAMA_PTO_PARALELO_EXPEDIDOR_MENSUAL
BL51 BANKED LINKER/LOCATER V6.22.2.0                                                  11/04/2020  14:53:46  PAGE 116


  X:0006H         SYMBOL        Atributos_Expedidor
  X:0009H         SYMBOL        j
  -------         DO            
  X:00D7H         SYMBOL        buffer
  -------         ENDDO         
  C:8076H         LINE#         1450
  C:8081H         LINE#         1451
  C:8081H         LINE#         1457
  C:8087H         LINE#         1458
  C:808BH         LINE#         1459
  C:80A0H         LINE#         1460
  C:80AAH         LINE#         1461
  C:80B4H         LINE#         1462
  C:80BEH         LINE#         1465
  C:80C7H         LINE#         1466
  C:80CEH         LINE#         1467
  C:80D3H         LINE#         1468
  C:80D8H         LINE#         1469
  C:80DDH         LINE#         1470
  C:80E2H         LINE#         1473
  C:80EEH         LINE#         1474
  C:80EEH         LINE#         1476
  C:80F5H         LINE#         1477
  C:80F9H         LINE#         1478
  C:80FDH         LINE#         1479
  C:8101H         LINE#         1480
  C:8105H         LINE#         1481
  C:8109H         LINE#         1483
  C:8109H         LINE#         1485
  C:811FH         LINE#         1486
  C:811FH         LINE#         1487
  C:8122H         LINE#         1488
  C:8124H         LINE#         1490
  C:8124H         LINE#         1491
  C:8127H         LINE#         1492
  C:8127H         LINE#         1494
  C:812DH         LINE#         1495
  C:8130H         LINE#         1496
  C:8140H         LINE#         1497
  C:8146H         LINE#         1498
  -------         ENDPROC       _ARMAR_TRAMA_PTO_PARALELO_EXPEDIDOR_MENSUAL
  -------         PROC          _ARMAR_TRAMA_MONITOR
  X:0006H         SYMBOL        Atributos_Expedidor
  -------         DO            
  X:00F3H         SYMBOL        buffer
  X:0009H         SYMBOL        ticket
  X:0014H         SYMBOL        j
  -------         ENDDO         
  C:5EA2H         LINE#         1499
  C:5EADH         LINE#         1500
  C:5EADH         LINE#         1506
  C:5EB2H         LINE#         1507
  C:5EB8H         LINE#         1508
  C:5EC0H         LINE#         1509
  C:5EC4H         LINE#         1510
  C:5ECDH         LINE#         1511
  C:5ECDH         LINE#         1512
BL51 BANKED LINKER/LOCATER V6.22.2.0                                                  11/04/2020  14:53:46  PAGE 117


  C:5ED0H         LINE#         1513
  C:5ED2H         LINE#         1515
  C:5ED2H         LINE#         1516
  C:5ED5H         LINE#         1517
  C:5ED5H         LINE#         1520
  C:5ED8H         LINE#         1521
  C:5ED8H         LINE#         1522
  C:5EDDH         LINE#         1523
  C:5EE9H         LINE#         1524
  C:5F00H         LINE#         1525
  C:5F03H         LINE#         1527
  C:5F03H         LINE#         1528
  C:5F1EH         LINE#         1529
  C:5F2CH         LINE#         1530
  C:5F3AH         LINE#         1531
  C:5F46H         LINE#         1532
  C:5F54H         LINE#         1533
  C:5F8DH         LINE#         1535
  C:5F8DH         LINE#         1536
  C:5F9BH         LINE#         1537
  C:5FA9H         LINE#         1540
  C:5FB6H         LINE#         1541
  C:5FC4H         LINE#         1543
  C:5FD2H         LINE#         1544
  C:5FDFH         LINE#         1545
  C:5FEBH         LINE#         1546
  C:5FF0H         LINE#         1547
  C:5FF5H         LINE#         1548
  -------         ENDPROC       _ARMAR_TRAMA_MONITOR
  -------         PROC          _ARMAR_TRAMA_PLACA
  X:0008H         SYMBOL        Buffer_Write_MF
  -------         DO            
  D:0007H         SYMBOL        j
  -------         ENDDO         
  C:A8DFH         LINE#         1549
  C:A8EAH         LINE#         1550
  C:A8EAH         LINE#         1553
  C:A8F6H         LINE#         1554
  C:A8F6H         LINE#         1555
  C:A910H         LINE#         1556
  C:A913H         LINE#         1557
  C:A91FH         LINE#         1558
  C:A91FH         LINE#         1559
  C:A933H         LINE#         1560
  C:A936H         LINE#         1561
  -------         ENDPROC       _ARMAR_TRAMA_PLACA
  C:AF7FH         SYMBOL        L?0371
  -------         PROC          L?0370
  -------         ENDPROC       L?0370
  C:AF7FH         SYMBOL        L?0371
  -------         PROC          _LOAD_SECUENCIA_EXPEDIDOR
  D:0001H         SYMBOL        Secuencia_Expedidor
  D:0004H         SYMBOL        estadoactivo
  X:0007H         SYMBOL        estadoactual
  X:0009H         SYMBOL        estadofuturo
  C:AF9BH         LINE#         1562
  C:AF9BH         LINE#         1563
BL51 BANKED LINKER/LOCATER V6.22.2.0                                                  11/04/2020  14:53:46  PAGE 118


  C:AF9BH         LINE#         1564
  C:AFA2H         LINE#         1565
  C:AFAAH         LINE#         1566
  C:AFB5H         LINE#         1567
  C:AFBBH         LINE#         1568
  -------         ENDPROC       _LOAD_SECUENCIA_EXPEDIDOR
  -------         PROC          _DISPARO_LOCK_ENTRADA_VEHICULO
  X:0002H         SYMBOL        Nombre_Mensual
  -------         DO            
  X:0005H         SYMBOL        Estado_expedidor
  -------         ENDDO         
  C:A64AH         LINE#         1569
  C:A655H         LINE#         1570
  C:A655H         LINE#         1572
  C:A65EH         LINE#         1574
  C:A663H         LINE#         1576
  C:A66AH         LINE#         1577
  C:A66AH         LINE#         1578
  C:A673H         LINE#         1579
  C:A675H         LINE#         1580
  C:A67AH         LINE#         1581
  C:A68AH         LINE#         1582
  C:A690H         LINE#         1585
  C:A692H         LINE#         1586
  C:A699H         LINE#         1587
  C:A699H         LINE#         1588
  C:A6A2H         LINE#         1589
  C:A6A2H         LINE#         1590
  C:A6A5H         LINE#         1591
  C:A6A7H         LINE#         1593
  C:A6A7H         LINE#         1594
  C:A6AAH         LINE#         1595
  C:A6AAH         LINE#         1597
  C:A6AAH         LINE#         1598
  C:A6AFH         LINE#         1599
  -------         ENDPROC       _DISPARO_LOCK_ENTRADA_VEHICULO
  -------         PROC          _SEND_PTO_PARALELO
  D:0001H         SYMBOL        Atributos_Expedidor
  -------         DO            
  X:0002H         SYMBOL        Trama_Expedidor
  X:0005H         SYMBOL        leng_trama_pto
  -------         ENDDO         
  C:9EBFH         LINE#         1600
  C:9EBFH         LINE#         1601
  C:9EBFH         LINE#         1604
  C:9EC2H         LINE#         1605
  C:9EC2H         LINE#         1606
  C:9EDEH         LINE#         1607
  C:9EE0H         LINE#         1609
  C:9EE0H         LINE#         1610
  C:9EF4H         LINE#         1611
  C:9EF7H         LINE#         1612
  C:9EF7H         LINE#         1614
  C:9F08H         LINE#         1615
  C:9F11H         LINE#         1616
  C:9F27H         LINE#         1617
  C:9F30H         LINE#         1620
BL51 BANKED LINKER/LOCATER V6.22.2.0                                                  11/04/2020  14:53:46  PAGE 119


  C:9F33H         LINE#         1621
  C:9F39H         LINE#         1622
  C:9F3EH         LINE#         1623
  C:9F40H         LINE#         1624
  -------         ENDPROC       _SEND_PTO_PARALELO
  -------         PROC          ENTREGA_CARD_CAPTURA
  -------         DO            
  X:0002H         SYMBOL        Estado_expedidor
  -------         ENDDO         
  C:A336H         LINE#         1628
  C:A336H         LINE#         1629
  C:A336H         LINE#         1633
  C:A33FH         LINE#         1634
  C:A342H         LINE#         1635
  C:A345H         LINE#         1636
  C:A345H         LINE#         1637
  C:A34FH         LINE#         1638
  C:A34FH         LINE#         1639
  C:A351H         LINE#         1640
  C:A35AH         LINE#         1641
  C:A35AH         LINE#         1642
  C:A35AH         LINE#         1644
  C:A35CH         LINE#         1646
  C:A35CH         LINE#         1647
  C:A362H         LINE#         1648
  C:A362H         LINE#         1650
  C:A368H         LINE#         1652
  C:A37BH         LINE#         1653
  C:A37BH         LINE#         1654
  C:A38BH         LINE#         1655
  C:A38BH         LINE#         1656
  C:A38DH         LINE#         1657
  C:A38DH         LINE#         1658
  C:A38FH         LINE#         1659
  C:A39AH         LINE#         1660
  C:A39AH         LINE#         1661
  C:A3A0H         LINE#         1662
  C:A3A0H         LINE#         1663
  C:A3A0H         LINE#         1665
  C:A3A2H         LINE#         1667
  C:A3A2H         LINE#         1668
  C:A3A4H         LINE#         1669
  C:A3A9H         LINE#         1670
  C:A3A9H         LINE#         1671
  C:A3A9H         LINE#         1673
  C:A3AEH         LINE#         1674
  -------         ENDPROC       ENTREGA_CARD_CAPTURA
  -------         PROC          _WAIT_PLACA
  X:0002H         SYMBOL        Atributos_Expedidor
  X:0005H         SYMBOL        Buffer_Write_MF
  -------         DO            
  X:0008H         SYMBOL        Estado_expedidor
  -------         ENDDO         
  C:90E6H         LINE#         1675
  C:90F1H         LINE#         1676
  C:90F1H         LINE#         1679
  C:90FAH         LINE#         1681
BL51 BANKED LINKER/LOCATER V6.22.2.0                                                  11/04/2020  14:53:46  PAGE 120


  C:9110H         LINE#         1682
  C:9110H         LINE#         1683
  C:9113H         LINE#         1684
  C:9113H         LINE#         1686
  C:9116H         LINE#         1687
  C:9116H         LINE#         1688
  C:9118H         LINE#         1690
  C:911BH         LINE#         1691
  C:911BH         LINE#         1692
  C:9143H         LINE#         1693
  C:9145H         LINE#         1696
  C:9145H         LINE#         1697
  C:914BH         LINE#         1698
  C:915EH         LINE#         1699
  C:915EH         LINE#         1700
  C:916EH         LINE#         1701
  C:916EH         LINE#         1702
  C:9174H         LINE#         1703
  C:9176H         LINE#         1704
  C:9181H         LINE#         1705
  C:9181H         LINE#         1706
  C:9187H         LINE#         1707
  C:9187H         LINE#         1708
  C:9187H         LINE#         1709
  C:9187H         LINE#         1710
  C:918CH         LINE#         1711
  -------         ENDPROC       _WAIT_PLACA
  -------         PROC          _VALIDA_VEHICULO_CARD_MENSUAL
  X:0010H         SYMBOL        Atributos_Expedidor
  -------         DO            
  X:0013H         SYMBOL        Estado_expedidor
  -------         ENDDO         
  C:9675H         LINE#         1712
  C:9680H         LINE#         1713
  C:9680H         LINE#         1716
  C:9689H         LINE#         1717
  C:969EH         LINE#         1718
  C:969EH         LINE#         1719
  C:96A2H         LINE#         1720
  C:96A4H         LINE#         1722
  C:96A4H         LINE#         1723
  C:96ABH         LINE#         1724
  C:96ABH         LINE#         1726
  C:96B4H         LINE#         1727
  C:96C2H         LINE#         1728
  C:96C2H         LINE#         1729
  C:96DBH         LINE#         1730
  C:96DBH         LINE#         1731
  C:96E1H         LINE#         1732
  C:96E1H         LINE#         1733
  C:96E3H         LINE#         1736
  C:96E3H         LINE#         1737
  C:96E8H         LINE#         1738
  C:96F1H         LINE#         1739
  C:96F6H         LINE#         1740
  C:96F6H         LINE#         1741
  C:96F8H         LINE#         1743
BL51 BANKED LINKER/LOCATER V6.22.2.0                                                  11/04/2020  14:53:46  PAGE 121


  C:96F8H         LINE#         1744
  C:9701H         LINE#         1745
  C:9707H         LINE#         1746
  C:9707H         LINE#         1747
  C:970CH         LINE#         1748
  -------         ENDPROC       _VALIDA_VEHICULO_CARD_MENSUAL
  -------         PROC          _TARJETA_MENSUAL
  X:0009H         SYMBOL        Atributos_Expedidor
  X:000CH         SYMBOL        Buffer_Write_MF
  -------         DO            
  X:000FH         SYMBOL        Estado_expedidor
  -------         ENDDO         
  C:86D4H         LINE#         1749
  C:86DFH         LINE#         1750
  C:86DFH         LINE#         1755
  C:86EAH         LINE#         1756
  C:86EAH         LINE#         1757
  C:8708H         LINE#         1758
  C:8708H         LINE#         1760
  C:8719H         LINE#         1761
  C:8719H         LINE#         1762
  C:8721H         LINE#         1763
  C:8723H         LINE#         1765
  C:8723H         LINE#         1766
  C:872CH         LINE#         1767
  C:873CH         LINE#         1768
  C:874FH         LINE#         1769
  C:876FH         LINE#         1770
  C:8775H         LINE#         1771
  C:8775H         LINE#         1772
  C:8777H         LINE#         1774
  C:8777H         LINE#         1775
  C:877CH         LINE#         1777
  C:8781H         LINE#         1778
  C:878AH         LINE#         1779
  C:878AH         LINE#         1780
  C:878AH         LINE#         1781
  C:878CH         LINE#         1783
  C:878CH         LINE#         1785
  C:8792H         LINE#         1786
  C:8792H         LINE#         1787
  C:8797H         LINE#         1788
  -------         ENDPROC       _TARJETA_MENSUAL
  -------         PROC          _TARJETA_ROTACION
  D:0001H         SYMBOL        Atributos_Expedidor
  X:000CH         SYMBOL        Buffer_Write_MF
  C:B254H         LINE#         1789
  C:B254H         LINE#         1790
  C:B254H         LINE#         1791
  C:B259H         LINE#         1792
  C:B262H         LINE#         1793
  C:B282H         LINE#         1794
  C:B284H         LINE#         1797
  -------         ENDPROC       _TARJETA_ROTACION
  -------         PROC          _VALIDA_TIPO_TARJETA
  X:0002H         SYMBOL        Atributos_Expedidor
  X:0005H         SYMBOL        Buffer_Write_MF
BL51 BANKED LINKER/LOCATER V6.22.2.0                                                  11/04/2020  14:53:46  PAGE 122


  -------         DO            
  X:0008H         SYMBOL        Estado_expedidor
  -------         ENDDO         
  C:58B0H         LINE#         1798
  C:58BBH         LINE#         1799
  C:58BBH         LINE#         1801
  C:58C8H         LINE#         1802
  C:58C8H         LINE#         1803
  C:58D1H         LINE#         1804
  C:58D7H         LINE#         1805
  C:58D7H         LINE#         1809
  C:58E5H         LINE#         1810
  C:58E5H         LINE#         1813
  C:5902H         LINE#         1814
  C:5902H         LINE#         1815
  C:591FH         LINE#         1817
  C:5921H         LINE#         1819
  C:5921H         LINE#         1820
  C:592AH         LINE#         1821
  C:592CH         LINE#         1822
  C:592CH         LINE#         1823
  C:592CH         LINE#         1824
  C:592FH         LINE#         1827
  C:592FH         LINE#         1828
  C:5938H         LINE#         1830
  C:595BH         LINE#         1831
  C:595BH         LINE#         1832
  C:595EH         LINE#         1834
  C:595EH         LINE#         1835
  C:5963H         LINE#         1836
  C:5968H         LINE#         1837
  C:596BH         LINE#         1838
  C:596BH         LINE#         1839
  C:596EH         LINE#         1840
  C:5986H         LINE#         1841
  C:5986H         LINE#         1843
  C:598FH         LINE#         1844
  C:5995H         LINE#         1845
  C:5995H         LINE#         1846
  C:59A1H         LINE#         1847
  C:59A1H         LINE#         1848
  C:59BEH         LINE#         1850
  C:59BEH         LINE#         1851
  C:59DEH         LINE#         1852
  C:59E0H         LINE#         1854
  C:59E0H         LINE#         1855
  C:59E9H         LINE#         1856
  C:59EEH         LINE#         1857
  C:59F3H         LINE#         1858
  C:59F6H         LINE#         1859
  C:59F6H         LINE#         1860
  C:59F8H         LINE#         1862
  C:59F8H         LINE#         1863
  C:5A01H         LINE#         1864
  C:5A24H         LINE#         1865
  C:5A24H         LINE#         1866
  C:5A26H         LINE#         1868
BL51 BANKED LINKER/LOCATER V6.22.2.0                                                  11/04/2020  14:53:46  PAGE 123


  C:5A26H         LINE#         1870
  C:5A2BH         LINE#         1871
  C:5A30H         LINE#         1872
  C:5A36H         LINE#         1873
  C:5A36H         LINE#         1874
  C:5A38H         LINE#         1876
  C:5A38H         LINE#         1877
  C:5A41H         LINE#         1878
  C:5A46H         LINE#         1880
  C:5A4EH         LINE#         1881
  C:5A4EH         LINE#         1883
  C:5A53H         LINE#         1884
  -------         ENDPROC       _VALIDA_TIPO_TARJETA
  -------         PROC          _HORARIOS
  X:0010H         SYMBOL        Atributos_Expedidor
  -------         DO            
  X:0013H         SYMBOL        Estado_Horario
  X:0014H         SYMBOL        Addr_horarios
  X:001FH         SYMBOL        dia_semana
  X:0020H         SYMBOL        EE_dia_semana
  X:0021H         SYMBOL        addr
  -------         ENDDO         
  C:6F4FH         LINE#         1978
  C:6F5AH         LINE#         1979
  C:6F5AH         LINE#         1985
  C:6F65H         LINE#         1986
  C:6F65H         LINE#         1988
  C:6F71H         LINE#         1990
  C:6F97H         LINE#         1994
  C:6FAAH         LINE#         1995
  C:6FAAH         LINE#         1997
  C:6FB4H         LINE#         1998
  C:6FBDH         LINE#         1999
  C:6FC5H         LINE#         2000
  C:6FCEH         LINE#         2003
  C:6FF3H         LINE#         2004
  C:6FFCH         LINE#         2005
  C:7004H         LINE#         2006
  C:700DH         LINE#         2008
  C:7017H         LINE#         2009
  C:7017H         LINE#         2011
  C:7025H         LINE#         2012
  C:7027H         LINE#         2014
  C:7027H         LINE#         2016
  C:7030H         LINE#         2017
  C:7035H         LINE#         2018
  C:7035H         LINE#         2019
  C:7037H         LINE#         2021
  C:7037H         LINE#         2023
  C:703CH         LINE#         2024
  C:7041H         LINE#         2025
  C:7047H         LINE#         2027
  C:7047H         LINE#         2029
  C:7049H         LINE#         2031
  C:7049H         LINE#         2032
  C:704FH         LINE#         2034
  C:7058H         LINE#         2035
BL51 BANKED LINKER/LOCATER V6.22.2.0                                                  11/04/2020  14:53:46  PAGE 124


  C:7058H         LINE#         2036
  C:705DH         LINE#         2037
  -------         ENDPROC       _HORARIOS
  -------         PROC          _HORA_MAXIMA
  X:002FH         SYMBOL        addr
  -------         DO            
  X:0031H         SYMBOL        Hora_High
  X:0032H         SYMBOL        Minuto_High
  X:0033H         SYMBOL        HoraIni
  X:0034H         SYMBOL        MinutoIni
  X:0035H         SYMBOL        Hora_Prog
  -------         ENDDO         
  C:8EE7H         LINE#         2038
  C:8EEFH         LINE#         2039
  C:8EEFH         LINE#         2044
  C:8F04H         LINE#         2045
  C:8F24H         LINE#         2046
  C:8F41H         LINE#         2047
  C:8F61H         LINE#         2048
  C:8F69H         LINE#         2049
  C:8F71H         LINE#         2050
  C:8F7AH         LINE#         2052
  C:8F92H         LINE#         2053
  -------         ENDPROC       _HORA_MAXIMA
  -------         PROC          _EN_HORARIO
  X:002AH         SYMBOL        HoraNow
  D:0004H         SYMBOL        Hora_Prog
  X:002CH         SYMBOL        addr
  -------         DO            
  X:002EH         SYMBOL        Estado_Horario
  -------         ENDDO         
  C:A499H         LINE#         2054
  C:A4A7H         LINE#         2055
  C:A4A7H         LINE#         2058
  C:A4B4H         LINE#         2059
  C:A4B4H         LINE#         2062
  C:A4BDH         LINE#         2063
  C:A4D2H         LINE#         2066
  C:A4E1H         LINE#         2067
  C:A4E1H         LINE#         2069
  C:A4E8H         LINE#         2070
  C:A4EEH         LINE#         2071
  C:A4F0H         LINE#         2073
  C:A4F0H         LINE#         2076
  C:A4F4H         LINE#         2077
  C:A4F4H         LINE#         2078
  C:A4F4H         LINE#         2080
  C:A4F6H         LINE#         2082
  C:A4F6H         LINE#         2085
  C:A4FFH         LINE#         2086
  C:A504H         LINE#         2088
  C:A504H         LINE#         2089
  C:A509H         LINE#         2090
  -------         ENDPROC       _EN_HORARIO
  -------         PROC          _BLOQUE_HORARIO
  X:0023H         SYMBOL        addr
  -------         DO            
BL51 BANKED LINKER/LOCATER V6.22.2.0                                                  11/04/2020  14:53:46  PAGE 125


  X:0025H         SYMBOL        Estado_Horario
  X:0026H         SYMBOL        HoraNow
  X:0028H         SYMBOL        Hora_Prog
  -------         ENDDO         
  C:716AH         LINE#         2092
  C:7172H         LINE#         2093
  C:7172H         LINE#         2099
  C:717BH         LINE#         2100
  C:7183H         LINE#         2101
  C:718BH         LINE#         2102
  C:7194H         LINE#         2103
  C:71C2H         LINE#         2108
  C:71CBH         LINE#         2109
  C:71E0H         LINE#         2110
  C:71F8H         LINE#         2111
  C:71FAH         LINE#         2112
  C:71FAH         LINE#         2115
  C:7212H         LINE#         2116
  C:7212H         LINE#         2117
  C:721BH         LINE#         2118
  C:7236H         LINE#         2119
  C:7254H         LINE#         2120
  C:7256H         LINE#         2122
  C:7256H         LINE#         2123
  C:725BH         LINE#         2124
  C:7260H         LINE#         2125
  C:7265H         LINE#         2126
  C:7265H         LINE#         2127
  C:7265H         LINE#         2129
  C:726CH         LINE#         2130
  -------         ENDPROC       _BLOQUE_HORARIO
  -------         PROC          SECUENCIA_INICIO_EXPEDIDOR
  -------         DO            
  X:0001H         SYMBOL        temp
  -------         ENDDO         
  C:64FAH         LINE#         2139
  C:64FAH         LINE#         2140
  C:64FAH         LINE#         2142
  C:651AH         LINE#         2143
  C:651AH         LINE#         2144
  C:651AH         LINE#         2147
  C:651FH         LINE#         2148
  C:6525H         LINE#         2151
  C:6527H         LINE#         2152
  C:6527H         LINE#         2163
  C:6527H         LINE#         2165
  C:6535H         LINE#         2166
  C:6535H         LINE#         2167
  C:6541H         LINE#         2168
  C:6541H         LINE#         2169
  C:6547H         LINE#         2170
  C:654AH         LINE#         2171
  C:6552H         LINE#         2172
  C:6552H         LINE#         2173
  C:6559H         LINE#         2174
  C:656DH         LINE#         2175
  C:656DH         LINE#         2176
BL51 BANKED LINKER/LOCATER V6.22.2.0                                                  11/04/2020  14:53:46  PAGE 126


  C:656FH         LINE#         2178
  C:656FH         LINE#         2179
  C:6576H         LINE#         2180
  C:657CH         LINE#         2181
  C:657CH         LINE#         2182
  C:657FH         LINE#         2184
  C:657FH         LINE#         2185
  C:6588H         LINE#         2186
  C:659CH         LINE#         2187
  C:65A2H         LINE#         2188
  C:65A2H         LINE#         2189
  C:65A5H         LINE#         2190
  C:65A5H         LINE#         2196
  C:65A5H         LINE#         2198
  C:65A8H         LINE#         2199
  C:65AEH         LINE#         2203
  C:65B0H         LINE#         2204
  C:65B0H         LINE#         2214
  C:65B0H         LINE#         2216
  C:65BEH         LINE#         2217
  C:65BEH         LINE#         2218
  C:65CAH         LINE#         2219
  C:65CAH         LINE#         2220
  C:65D0H         LINE#         2221
  C:65D2H         LINE#         2222
  C:65DAH         LINE#         2223
  C:65DAH         LINE#         2224
  C:65E1H         LINE#         2225
  C:65F5H         LINE#         2226
  C:65F5H         LINE#         2227
  C:65F7H         LINE#         2229
  C:65F7H         LINE#         2230
  C:65FEH         LINE#         2231
  C:6604H         LINE#         2232
  C:6604H         LINE#         2233
  C:6606H         LINE#         2235
  C:6606H         LINE#         2236
  C:660FH         LINE#         2237
  C:6623H         LINE#         2238
  C:6628H         LINE#         2239
  C:6628H         LINE#         2241
  C:662AH         LINE#         2242
  C:662AH         LINE#         2248
  C:662AH         LINE#         2250
  C:6630H         LINE#         2251
  C:6630H         LINE#         2254
  C:6630H         LINE#         2255
  C:6637H         LINE#         2256
  C:6637H         LINE#         2257
  C:6637H         LINE#         2258
  -------         ENDPROC       SECUENCIA_INICIO_EXPEDIDOR
  -------         PROC          _SECUENCIAEXPEDIDORMF
  X:0001H         SYMBOL        EstadoActivo
  -------         DO            
  X:010BH         SYMBOL        Buffer_Write_MF
  X:011CH         SYMBOL        Atributos_Expedidor
  X:012BH         SYMBOL        Secuencia_Expedidor
BL51 BANKED LINKER/LOCATER V6.22.2.0                                                  11/04/2020  14:53:46  PAGE 127


  X:012FH         SYMBOL        Nombre_Mensual
  -------         ENDDO         
  C:3813H         LINE#         2268
  C:3818H         LINE#         2269
  C:3818H         LINE#         2275
  C:3872H         LINE#         2276
  C:3872H         LINE#         2279
  C:3872H         LINE#         2281
  C:3888H         LINE#         2282
  C:3888H         LINE#         2283
  C:388AH         LINE#         2284
  C:388CH         LINE#         2285
  C:3891H         LINE#         2286
  C:3899H         LINE#         2287
  C:389EH         LINE#         2288
  C:389EH         LINE#         2289
  C:38A1H         LINE#         2290
  C:38A1H         LINE#         2292
  C:38AAH         LINE#         2293
  C:38ADH         LINE#         2294
  C:38ADH         LINE#         2295
  C:38B2H         LINE#         2296
  C:38D2H         LINE#         2297
  C:38D5H         LINE#         2298
  C:38D5H         LINE#         2299
  C:38DAH         LINE#         2300
  C:38E2H         LINE#         2301
  C:38E8H         LINE#         2302
  C:38EBH         LINE#         2303
  C:38EBH         LINE#         2304
  C:38EEH         LINE#         2305
  C:38F6H         LINE#         2306
  C:38FCH         LINE#         2307
  C:38FFH         LINE#         2308
  C:38FFH         LINE#         2309
  C:3902H         LINE#         2310
  C:3927H         LINE#         2311
  C:392DH         LINE#         2312
  C:392FH         LINE#         2313
  C:3932H         LINE#         2314
  C:3932H         LINE#         2315
  C:393DH         LINE#         2316
  C:3945H         LINE#         2317
  C:394BH         LINE#         2318
  C:394EH         LINE#         2319
  C:394EH         LINE#         2320
  C:395FH         LINE#         2321
  C:3967H         LINE#         2322
  C:396DH         LINE#         2323
  C:3970H         LINE#         2324
  C:3970H         LINE#         2325
  C:3975H         LINE#         2326
  C:3993H         LINE#         2327
  C:3996H         LINE#         2328
  C:3996H         LINE#         2329
  C:399BH         LINE#         2330
  C:39BBH         LINE#         2331
BL51 BANKED LINKER/LOCATER V6.22.2.0                                                  11/04/2020  14:53:46  PAGE 128


  C:39BEH         LINE#         2332
  C:39BEH         LINE#         2333
  C:39C3H         LINE#         2334
  C:39C5H         LINE#         2335
  C:39E3H         LINE#         2336
  C:39E6H         LINE#         2337
  C:39E6H         LINE#         2338
  C:39EBH         LINE#         2339
  C:3A0BH         LINE#         2340
  C:3A0EH         LINE#         2341
  C:3A0EH         LINE#         2342
  C:3A13H         LINE#         2343
  C:3A1BH         LINE#         2344
  C:3A21H         LINE#         2345
  C:3A24H         LINE#         2346
  C:3A24H         LINE#         2347
  C:3A27H         LINE#         2348
  C:3A47H         LINE#         2349
  C:3A4AH         LINE#         2350
  C:3A4AH         LINE#         2351
  C:3A4CH         LINE#         2352
  C:3A4FH         LINE#         2353
  C:3A52H         LINE#         2354
  C:3A52H         LINE#         2355
  C:3A5BH         LINE#         2357
  C:3A5EH         LINE#         2358
  C:3A5EH         LINE#         2359
  C:3A75H         LINE#         2360
  C:3A78H         LINE#         2361
  C:3A78H         LINE#         2362
  C:3A7BH         LINE#         2363
  C:3A83H         LINE#         2364
  C:3A89H         LINE#         2365
  C:3A8CH         LINE#         2366
  C:3A8CH         LINE#         2367
  C:3A95H         LINE#         2368
  C:3A98H         LINE#         2369
  C:3A98H         LINE#         2370
  C:3AAFH         LINE#         2371
  C:3AB2H         LINE#         2372
  C:3AB2H         LINE#         2373
  C:3AB7H         LINE#         2374
  C:3ABFH         LINE#         2375
  C:3AC5H         LINE#         2376
  C:3AC8H         LINE#         2377
  C:3AC8H         LINE#         2378
  C:3ACBH         LINE#         2379
  C:3AEBH         LINE#         2380
  C:3AEEH         LINE#         2381
  C:3AEEH         LINE#         2382
  C:3AF1H         LINE#         2383
  C:3B11H         LINE#         2384
  C:3B14H         LINE#         2385
  C:3B14H         LINE#         2386
  C:3B17H         LINE#         2387
  C:3B1FH         LINE#         2388
  C:3B25H         LINE#         2389
BL51 BANKED LINKER/LOCATER V6.22.2.0                                                  11/04/2020  14:53:46  PAGE 129


  C:3B28H         LINE#         2393
  C:3B28H         LINE#         2394
  C:3B2EH         LINE#         2395
  C:3B34H         LINE#         2396
  C:3B34H         LINE#         2397
  C:3B3CH         LINE#         2398
  C:3B42H         LINE#         2400
  C:3B45H         LINE#         2401
  C:3B4DH         LINE#         2402
  C:3B4DH         LINE#         2404
  C:3B50H         LINE#         2405
  C:3B53H         LINE#         2406
  C:3B5BH         LINE#         2407
  C:3B5BH         LINE#         2408
  C:3B69H         LINE#         2409
  C:3B69H         LINE#         2410
  C:3B72H         LINE#         2411
  C:3B75H         LINE#         2412
  C:3B81H         LINE#         2413
  C:3B81H         LINE#         2414
  C:3B8AH         LINE#         2415
  C:3B8DH         LINE#         2417
  C:3B8DH         LINE#         2418
  C:3B96H         LINE#         2419
  C:3B96H         LINE#         2420
  C:3B99H         LINE#         2421
  C:3BA1H         LINE#         2422
  C:3BA1H         LINE#         2423
  C:3BAFH         LINE#         2424
  C:3BAFH         LINE#         2425
  C:3BC5H         LINE#         2426
  C:3BC8H         LINE#         2427
  C:3BD4H         LINE#         2428
  C:3BD4H         LINE#         2429
  C:3BDDH         LINE#         2430
  C:3BE0H         LINE#         2431
  C:3BEEH         LINE#         2432
  C:3BEEH         LINE#         2433
  C:3BF7H         LINE#         2434
  C:3BF9H         LINE#         2436
  C:3BF9H         LINE#         2437
  C:3C02H         LINE#         2438
  C:3C02H         LINE#         2439
  C:3C04H         LINE#         2440
  C:3C0CH         LINE#         2441
  C:3C0CH         LINE#         2442
  C:3C15H         LINE#         2443
  C:3C17H         LINE#         2444
  C:3C1FH         LINE#         2445
  C:3C1FH         LINE#         2446
  C:3C35H         LINE#         2447
  C:3C37H         LINE#         2448
  C:3C3FH         LINE#         2449
  C:3C3FH         LINE#         2450
  C:3C42H         LINE#         2451
  C:3C44H         LINE#         2453
  C:3C4CH         LINE#         2454
BL51 BANKED LINKER/LOCATER V6.22.2.0                                                  11/04/2020  14:53:46  PAGE 130


  C:3C4CH         LINE#         2455
  C:3C55H         LINE#         2456
  C:3C57H         LINE#         2459
  C:3C5FH         LINE#         2460
  C:3C5FH         LINE#         2461
  C:3C67H         LINE#         2462
  C:3C69H         LINE#         2464
  C:3C69H         LINE#         2465
  C:3C72H         LINE#         2466
  C:3C72H         LINE#         2467
  C:3C74H         LINE#         2468
  C:3C74H         LINE#         2469
  C:3C79H         LINE#         2470
  C:3C79H         LINE#         2472
  C:3C79H         LINE#         2473
  C:3C7EH         LINE#         2474
  -------         ENDPROC       _SECUENCIAEXPEDIDORMF
  -------         ENDMOD        VERIFICADOR

  -------         MODULE        MONITOR
  C:0000H         SYMBOL        _ICE_DUMMY_
  D:0080H         PUBLIC        P0
  D:0090H         PUBLIC        P1
  I:0011H         PUBLIC        placa
  C:B3F4H         PUBLIC        Rx_Monitor
  B:0080H.0       PUBLIC        rx_ip
  B:0090H.7       PUBLIC        lock
  C:891DH         PUBLIC        _recibe_cmd_Monitor
  C:B516H         PUBLIC        clear_placa
  C:9374H         PUBLIC        _Valida_Trama_Monitor
  -------         PROC          _RECIBE_CMD_MONITOR
  X:0016H         SYMBOL        buffer_cmd
  -------         DO            
  X:0019H         SYMBOL        j
  X:001AH         SYMBOL        NumDatos
  X:001BH         SYMBOL        time_out
  X:001CH         SYMBOL        MaxChrRx
  X:001DH         SYMBOL        contador
  -------         ENDDO         
  C:891DH         LINE#         44
  C:8928H         LINE#         45
  C:8928H         LINE#         49
  C:892DH         LINE#         50
  C:8933H         LINE#         52
  C:893EH         LINE#         53
  C:893EH         LINE#         54
  C:894FH         LINE#         55
  C:894FH         LINE#         56
  C:8956H         LINE#         57
  C:895AH         LINE#         58
  C:8963H         LINE#         59
  C:8963H         LINE#         60
  C:8971H         LINE#         61
  C:8988H         LINE#         62
  C:8988H         LINE#         63
  C:898EH         LINE#         64
  C:8994H         LINE#         65
BL51 BANKED LINKER/LOCATER V6.22.2.0                                                  11/04/2020  14:53:46  PAGE 131


  C:8994H         LINE#         66
  C:8996H         LINE#         67
  C:899EH         LINE#         68
  C:89A4H         LINE#         69
  C:89B6H         LINE#         70
  C:89C0H         LINE#         71
  C:89C9H         LINE#         73
  C:89D8H         LINE#         76
  C:89D8H         LINE#         77
  C:89DDH         LINE#         78
  -------         ENDPROC       _RECIBE_CMD_MONITOR
  -------         PROC          _VALIDA_TRAMA_MONITOR
  X:0016H         SYMBOL        buffer
  D:0005H         SYMBOL        length_trama
  -------         DO            
  D:0007H         SYMBOL        j
  D:0006H         SYMBOL        p
  -------         ENDDO         
  C:9374H         LINE#         83
  C:937FH         LINE#         84
  C:937FH         LINE#         85
  C:9381H         LINE#         86
  C:9383H         LINE#         87
  C:9383H         LINE#         89
  C:93A1H         LINE#         90
  C:93A1H         LINE#         91
  C:93A3H         LINE#         92
  C:93A8H         LINE#         93
  C:93A9H         LINE#         95
  C:93C4H         LINE#         96
  C:93C4H         LINE#         99
  C:93C4H         LINE#         100
  C:93DEH         LINE#         101
  C:93DFH         LINE#         102
  C:93E0H         LINE#         103
  C:93ECH         LINE#         104
  C:9400H         LINE#         105
  C:9406H         LINE#         106
  C:9408H         LINE#         107
  C:940EH         LINE#         110
  C:940EH         LINE#         113
  -------         ENDPROC       _VALIDA_TRAMA_MONITOR
  -------         PROC          CLEAR_PLACA
  -------         DO            
  D:0007H         SYMBOL        i
  -------         ENDDO         
  C:B516H         LINE#         114
  C:B516H         LINE#         115
  C:B516H         LINE#         117
  C:B522H         LINE#         118
  C:B522H         LINE#         119
  C:B528H         LINE#         120
  C:B52BH         LINE#         121
  C:B52DH         LINE#         122
  -------         ENDPROC       CLEAR_PLACA
  -------         PROC          RX_MONITOR
  -------         DO            
BL51 BANKED LINKER/LOCATER V6.22.2.0                                                  11/04/2020  14:53:46  PAGE 132


  X:0009H         SYMBOL        Length_trama
  X:000AH         SYMBOL        buffer1
  -------         ENDDO         
  C:B3F4H         LINE#         123
  C:B3F4H         LINE#         124
  C:B3F4H         LINE#         127
  C:B403H         LINE#         128
  C:B40CH         LINE#         129
  -------         ENDPROC       RX_MONITOR
  -------         ENDMOD        MONITOR

  -------         MODULE        ?C?FPADD
  C:1335H         PUBLIC        ?C?FPADD
  C:1331H         PUBLIC        ?C?FPSUB
  -------         ENDMOD        ?C?FPADD

  -------         MODULE        ?C?FPMUL
  C:1426H         PUBLIC        ?C?FPMUL
  -------         ENDMOD        ?C?FPMUL

  -------         MODULE        ?C?FCAST
  C:1536H         PUBLIC        ?C?FCASTC
  C:1531H         PUBLIC        ?C?FCASTI
  C:152CH         PUBLIC        ?C?FCASTL
  -------         ENDMOD        ?C?FCAST

  -------         MODULE        ?C?CASTF
  C:156AH         PUBLIC        ?C?CASTF
  -------         ENDMOD        ?C?CASTF

  -------         MODULE        PRINTF
  X:0077H         PUBLIC        ?_PRINTF?BYTE
  X:0077H         PUBLIC        ?_SPRINTF?BYTE
  C:33FBH         PUBLIC        _PRINTF
  C:33F5H         PUBLIC        _SPRINTF
  -------         ENDMOD        PRINTF

  -------         MODULE        POW
  X:0021H         PUBLIC        ?_pow?BYTE
  C:5D3CH         PUBLIC        _pow
  -------         ENDMOD        POW

  -------         MODULE        ?C?CHKFLOAT
  C:15EBH         PUBLIC        ?C?CHKFLOAT
  -------         ENDMOD        ?C?CHKFLOAT

  -------         MODULE        ?C?FPCMP
  C:1607H         PUBLIC        ?C?FPCMP
  C:1605H         PUBLIC        ?C?FPCMP3
  -------         ENDMOD        ?C?FPCMP

  -------         MODULE        ?C?FPNEG
  C:167EH         PUBLIC        ?C?FPNEG
  -------         ENDMOD        ?C?FPNEG

  -------         MODULE        ?C?FPROUND
  C:168FH         PUBLIC        ?C?FPROUND
BL51 BANKED LINKER/LOCATER V6.22.2.0                                                  11/04/2020  14:53:46  PAGE 133


  -------         ENDMOD        ?C?FPROUND

  -------         MODULE        ?C?FPCONVERT
  C:16CCH         PUBLIC        ?C?FPCONVERT
  -------         ENDMOD        ?C?FPCONVERT

  -------         MODULE        EXP
  C:94E1H         PUBLIC        _EXP
  -------         ENDMOD        EXP

  -------         MODULE        LOG
  C:68CEH         PUBLIC        _LOG
  C:68CAH         PUBLIC        _LOG10
  -------         ENDMOD        LOG

  -------         MODULE        ?C?FPDIV
  C:17D4H         PUBLIC        ?C?FPDIV
  -------         ENDMOD        ?C?FPDIV

  -------         MODULE        ?C?FTNPWR
  C:18A1H         PUBLIC        ?C?FTNPWR
  -------         ENDMOD        ?C?FTNPWR

  -------         MODULE        ?C?COPY
  C:19FEH         PUBLIC        ?C?COPY
  -------         ENDMOD        ?C?COPY

  -------         MODULE        ?C?CLDPTR
  C:1A24H         PUBLIC        ?C?CLDPTR
  -------         ENDMOD        ?C?CLDPTR

  -------         MODULE        ?C?CLDOPTR
  C:1A3DH         PUBLIC        ?C?CLDOPTR
  -------         ENDMOD        ?C?CLDOPTR

  -------         MODULE        ?C?CSTPTR
  C:1A6AH         PUBLIC        ?C?CSTPTR
  -------         ENDMOD        ?C?CSTPTR

  -------         MODULE        ?C?CSTOPTR
  C:1A7CH         PUBLIC        ?C?CSTOPTR
  -------         ENDMOD        ?C?CSTOPTR

  -------         MODULE        ?C?IMUL
  C:1A9EH         PUBLIC        ?C?IMUL
  -------         ENDMOD        ?C?IMUL

  -------         MODULE        ?C?IILDX
  C:1AB0H         PUBLIC        ?C?IILDX
  -------         ENDMOD        ?C?IILDX

  -------         MODULE        ?C?LNEG
  C:1AC6H         PUBLIC        ?C?LNEG
  -------         ENDMOD        ?C?LNEG

  -------         MODULE        ?C?SLCMP
  C:1AD4H         PUBLIC        ?C?SLCMP
BL51 BANKED LINKER/LOCATER V6.22.2.0                                                  11/04/2020  14:53:46  PAGE 134


  -------         ENDMOD        ?C?SLCMP

  -------         MODULE        ?C?ULCMP
  C:1AEAH         PUBLIC        ?C?ULCMP
  -------         ENDMOD        ?C?ULCMP

  -------         MODULE        ?C?ULSHR
  C:1AFBH         PUBLIC        ?C?ULSHR
  -------         ENDMOD        ?C?ULSHR

  -------         MODULE        ?C?LSHL
  C:1B0EH         PUBLIC        ?C?LSHL
  -------         ENDMOD        ?C?LSHL

  -------         MODULE        ?C?LLDCODE
  C:1B21H         PUBLIC        ?C?LLDCODE
  -------         ENDMOD        ?C?LLDCODE

  -------         MODULE        ?C?LLDXDATA0
  C:1B31H         PUBLIC        ?C?LLDXDATA0
  -------         ENDMOD        ?C?LLDXDATA0

  -------         MODULE        ?C?LLDCODE0
  C:1B3DH         PUBLIC        ?C?LLDCODE0
  -------         ENDMOD        ?C?LLDCODE0

  -------         MODULE        ?C?LSTXDATA
  C:1B4DH         PUBLIC        ?C?LSTXDATA
  -------         ENDMOD        ?C?LSTXDATA

  -------         MODULE        ?C?LSTKXDATA
  C:1B59H         PUBLIC        ?C?LSTKXDATA
  -------         ENDMOD        ?C?LSTKXDATA

  -------         MODULE        ?C?PLDIXDATA
  C:1B8AH         PUBLIC        ?C?PLDIXDATA
  -------         ENDMOD        ?C?PLDIXDATA

  -------         MODULE        ?C?PSTXDATA
  C:1BA1H         PUBLIC        ?C?PSTXDATA
  -------         ENDMOD        ?C?PSTXDATA

  -------         MODULE        ?C?CCASE
  C:1BAAH         PUBLIC        ?C?CCASE
  -------         ENDMOD        ?C?CCASE

  -------         MODULE        STRCAT
  X:0046H         PUBLIC        ?_strcat?BYTE
  C:A579H         PUBLIC        _strcat
  -------         ENDMOD        STRCAT

  -------         MODULE        ?C?STRCMP
  C:1D4EH         PUBLIC        ?C?STRCMP
  -------         ENDMOD        ?C?STRCMP

  -------         MODULE        ?C?STRCPY
  C:1E37H         PUBLIC        ?C?STRCPY
BL51 BANKED LINKER/LOCATER V6.22.2.0                                                  11/04/2020  14:53:46  PAGE 135


  -------         ENDMOD        ?C?STRCPY

  -------         MODULE        STRLEN
  C:000EH         PUBLIC        _STRLEN
  -------         ENDMOD        STRLEN

  -------         MODULE        STRTOK
  X:0064H         PUBLIC        ?_strtok?BYTE
  C:7C2CH         PUBLIC        _strtok
  -------         ENDMOD        STRTOK

  -------         MODULE        ATOL
  C:705EH         PUBLIC        _atol
  -------         ENDMOD        ATOL

  -------         MODULE        ATOI
  C:7DEEH         PUBLIC        _atoi
  -------         ENDMOD        ATOI

  -------         MODULE        MALLOC
  C:8147H         PUBLIC        _malloc
  -------         ENDMOD        MALLOC

  -------         MODULE        INIT_MEM
  X:0256H         PUBLIC        __mem_avail__
  C:AFBCH         PUBLIC        _init_mempool
  -------         ENDMOD        INIT_MEM

  -------         MODULE        FREE
  C:627DH         PUBLIC        _free
  -------         ENDMOD        FREE

  -------         MODULE        ?C?ILDIX
  C:1E54H         PUBLIC        ?C?ILDIX
  -------         ENDMOD        ?C?ILDIX

  -------         MODULE        ?C?LMUL
  C:1E6AH         PUBLIC        ?C?LMUL
  -------         ENDMOD        ?C?LMUL

  -------         MODULE        ISDIGIT
  C:B614H         PUBLIC        _isdigit
  -------         ENDMOD        ISDIGIT

  -------         MODULE        ISSPACE
  C:B586H         PUBLIC        _isspace
  -------         ENDMOD        ISSPACE

  -------         MODULE        STRSPN
  X:006AH         PUBLIC        ?_strspn?BYTE
  C:9E3BH         PUBLIC        _strspn
  -------         ENDMOD        STRSPN

  -------         MODULE        STRPBRK
  X:006AH         PUBLIC        ?_strpbrk?BYTE
  C:9F41H         PUBLIC        _strpbrk
  -------         ENDMOD        STRPBRK
BL51 BANKED LINKER/LOCATER V6.22.2.0                                                  11/04/2020  14:53:46  PAGE 136



Program Size: data=98.7 xdata=618 code=46751
LINK/LOCATE RUN COMPLETE.  0 WARNING(S),  0 ERROR(S)
