BL51 BANKED LINKER/LOCATER V6.22.2.0                                                    05/25/2021  12:30:00  PAGE 1


BL51 BANKED LINKER/LOCATER V6.22.2.0, INVOKED BY:
C:\KEIL_V5\C51\BIN\BL51.EXE .\Objects\main.obj, .\Objects\Accescan.obj, .\Objects\Clock.obj, .\Objects\delay.obj, .\Obje
>> cts\eeprom.obj, .\Objects\io_sensores.obj, .\Objects\pantallas.obj, .\Objects\prog.obj, .\Objects\pto_paralelo.obj, .
>> \Objects\tibbo.obj, .\Objects\uart.obj, .\Objects\lintech.obj, .\Objects\verificador.obj, .\Objects\Monitor.obj TO .\
>> Objects\expedidor_v_01_raspberry PRINT (.\Listings\expedidor_v_01_raspberry.m51) RAMSIZE (256)


MEMORY MODEL: LARGE WITH FLOATING POINT ARITHMETIC


INPUT MODULES INCLUDED:
  .\Objects\main.obj (MAIN)
  .\Objects\Accescan.obj (ACCESCAN)
  .\Objects\Clock.obj (CLOCK)
  .\Objects\delay.obj (DELAY)
  .\Objects\eeprom.obj (EEPROM)
  .\Objects\io_sensores.obj (IO_SENSORES)
  .\Objects\pantallas.obj (PANTALLAS)
  .\Objects\prog.obj (PROG)
  .\Objects\pto_paralelo.obj (PTO_PARALELO)
  .\Objects\tibbo.obj (TIBBO)
  .\Objects\uart.obj (UART)
  .\Objects\lintech.obj (LINTECH)
  .\Objects\verificador.obj (VERIFICADOR)
  .\Objects\Monitor.obj (MONITOR)
  C:\KEIL_V5\C51\LIB\C51FPL.LIB (?C?FPADD)
  C:\KEIL_V5\C51\LIB\C51FPL.LIB (?C?FPMUL)
  C:\KEIL_V5\C51\LIB\C51FPL.LIB (?C?FCAST)
  C:\KEIL_V5\C51\LIB\C51FPL.LIB (?C?CASTF)
  C:\KEIL_V5\C51\LIB\C51FPL.LIB (PRINTF)
  C:\KEIL_V5\C51\LIB\C51FPL.LIB (POW)
  C:\KEIL_V5\C51\LIB\C51FPL.LIB (?C?FPGETOPN)
  C:\KEIL_V5\C51\LIB\C51FPL.LIB (?C?CHKFLOAT)
  C:\KEIL_V5\C51\LIB\C51FPL.LIB (?C?FPCMP)
  C:\KEIL_V5\C51\LIB\C51FPL.LIB (?C?FPNEG)
  C:\KEIL_V5\C51\LIB\C51FPL.LIB (?C?FPROUND)
  C:\KEIL_V5\C51\LIB\C51FPL.LIB (?C?FPCONVERT)
  C:\KEIL_V5\C51\LIB\C51FPL.LIB (EXP)
  C:\KEIL_V5\C51\LIB\C51FPL.LIB (LOG)
  C:\KEIL_V5\C51\LIB\C51FPL.LIB (?C?FPDIV)
  C:\KEIL_V5\C51\LIB\C51FPL.LIB (?C?FTNPWR)
  C:\KEIL_V5\C51\LIB\C51FPL.LIB (?C?FPSERIES)
  C:\KEIL_V5\C51\LIB\C51L.LIB (?C_STARTUP)
  C:\KEIL_V5\C51\LIB\C51L.LIB (?C?COPY)
  C:\KEIL_V5\C51\LIB\C51L.LIB (?C?CLDPTR)
  C:\KEIL_V5\C51\LIB\C51L.LIB (?C?CLDOPTR)
  C:\KEIL_V5\C51\LIB\C51L.LIB (?C?CSTPTR)
  C:\KEIL_V5\C51\LIB\C51L.LIB (?C?CSTOPTR)
  C:\KEIL_V5\C51\LIB\C51L.LIB (?C?IMUL)
  C:\KEIL_V5\C51\LIB\C51L.LIB (?C?IILDX)
  C:\KEIL_V5\C51\LIB\C51L.LIB (?C?LNEG)
  C:\KEIL_V5\C51\LIB\C51L.LIB (?C?SLCMP)
  C:\KEIL_V5\C51\LIB\C51L.LIB (?C?ULCMP)
  C:\KEIL_V5\C51\LIB\C51L.LIB (?C?ULSHR)
  C:\KEIL_V5\C51\LIB\C51L.LIB (?C?LSHL)
  C:\KEIL_V5\C51\LIB\C51L.LIB (?C?LLDCODE)
  C:\KEIL_V5\C51\LIB\C51L.LIB (?C?LLDXDATA0)
  C:\KEIL_V5\C51\LIB\C51L.LIB (?C?LLDCODE0)
BL51 BANKED LINKER/LOCATER V6.22.2.0                                                  05/25/2021  12:30:00  PAGE 2


  C:\KEIL_V5\C51\LIB\C51L.LIB (?C?LSTXDATA)
  C:\KEIL_V5\C51\LIB\C51L.LIB (?C?LSTKXDATA)
  C:\KEIL_V5\C51\LIB\C51L.LIB (?C?PLDIXDATA)
  C:\KEIL_V5\C51\LIB\C51L.LIB (?C?PSTXDATA)
  C:\KEIL_V5\C51\LIB\C51L.LIB (?C?CCASE)
  C:\KEIL_V5\C51\LIB\C51L.LIB (STRCAT)
  C:\KEIL_V5\C51\LIB\C51L.LIB (?C?STRCMP)
  C:\KEIL_V5\C51\LIB\C51L.LIB (?C?STRCPY)
  C:\KEIL_V5\C51\LIB\C51L.LIB (STRLEN)
  C:\KEIL_V5\C51\LIB\C51L.LIB (STRTOK)
  C:\KEIL_V5\C51\LIB\C51L.LIB (ATOL)
  C:\KEIL_V5\C51\LIB\C51L.LIB (ATOI)
  C:\KEIL_V5\C51\LIB\C51L.LIB (?C_INIT)
  C:\KEIL_V5\C51\LIB\C51L.LIB (?C?ILDIX)
  C:\KEIL_V5\C51\LIB\C51L.LIB (?C?LMUL)
  C:\KEIL_V5\C51\LIB\C51L.LIB (ISDIGIT)
  C:\KEIL_V5\C51\LIB\C51L.LIB (ISSPACE)
  C:\KEIL_V5\C51\LIB\C51L.LIB (STRSPN)
  C:\KEIL_V5\C51\LIB\C51L.LIB (STRPBRK)


LINK MAP OF MODULE:  .\Objects\expedidor_v_01_raspberry (MAIN)


            TYPE    BASE      LENGTH    RELOCATION   SEGMENT NAME
            -----------------------------------------------------

            * * * * * * *   D A T A   M E M O R Y   * * * * * * *
            REG     0000H     0008H     ABSOLUTE     "REG BANK 0"
            DATA    0008H     0005H     UNIT         _DATA_GROUP_
            DATA    000DH     0004H     UNIT         ?DT?UART
            IDATA   0011H     0009H     UNIT         ?ID?MONITOR
                    001AH     0006H                  *** GAP ***
            BIT     0020H.0   0001H.1   UNIT         _BIT_GROUP_
            BIT     0021H.1   0000H.3   UNIT         ?BI?MAIN
            BIT     0021H.4   0000H.2   UNIT         ?BI?UART
            BIT     0021H.6   0000H.1   UNIT         ?BI?EEPROM
            BIT     0021H.7   0000H.1   UNIT         ?BI?IO_SENSORES
            BIT     0022H.0   0000H.1   UNIT         ?BI?VERIFICADOR
                    0022H.1   0000H.7                *** GAP ***
            IDATA   0023H     0046H     UNIT         ?ID?MAIN
            IDATA   0069H     0001H     UNIT         ?STACK

            * * * * * * *  X D A T A   M E M O R Y  * * * * * * *
            XDATA   0000H     00B7H     UNIT         _XDATA_GROUP_
            XDATA   00B7H     008CH     UNIT         ?XD?VERIFICADOR
            XDATA   0143H     006CH     UNIT         ?XD?MAIN
            XDATA   01AFH     0059H     UNIT         ?XD?PROG
            XDATA   0208H     0003H     UNIT         ?XD?EEPROM
            XDATA   020BH     0003H     UNIT         ?XD?UART
            XDATA   020EH     0003H     UNIT         ?XD?STRTOK
            XDATA   0211H     0002H     UNIT         ?XD?IO_SENSORES
            XDATA   0213H     0001H     UNIT         ?XD?ACCESCAN
            XDATA   0214H     0001H     UNIT         ?XD?CLOCK

            * * * * * * *   C O D E   M E M O R Y   * * * * * * *
            CODE    0000H     0003H     ABSOLUTE     
BL51 BANKED LINKER/LOCATER V6.22.2.0                                                  05/25/2021  12:30:00  PAGE 3


            CODE    0003H     0008H     UNIT         ?PR?P_CK?CLOCK
            CODE    000BH     0003H     ABSOLUTE     
            CODE    000EH     0015H     UNIT         ?PR?_STRLEN?STRLEN
            CODE    0023H     0003H     ABSOLUTE     
            CODE    0026H     1308H     UNIT         ?CO?PROG
            CODE    132EH     0B8BH     UNIT         ?C?LIB_CODE
            CODE    1EB9H     08BDH     UNIT         ?CO?VERIFICADOR
            CODE    2776H     0747H     UNIT         ?PR?_PANTALLALCD?PANTALLAS
            CODE    2EBDH     06EFH     UNIT         ?CO?PANTALLAS
            CODE    35ACH     04DAH     UNIT         ?PR?_SECUENCIAEXPEDIDORMF?VERIFICADOR
            CODE    3A86H     0483H     UNIT         ?PR?PRINTF?PRINTF
            CODE    3F09H     0437H     UNIT         ?PR?_VALIDA_TRAMA_PTO?ACCESCAN
            CODE    4340H     035CH     UNIT         ?PR?VER_PROG?PROG
            CODE    469CH     02D0H     UNIT         ?PR?_TWO_BYTEHEX_DECIMAL?CLOCK
            CODE    496CH     02B7H     UNIT         ?PR?_PROG_HORARIO_DIAS?PROG
            CODE    4C23H     02A5H     UNIT         ?PR?_PANTALLALCD_LINEA_2?PANTALLAS
            CODE    4EC8H     022CH     UNIT         ?PR?MENU?PROG
            CODE    50F4H     0208H     UNIT         ?PR?_HASH_ID?PROG
            CODE    52FCH     01FAH     UNIT         ?PR?_PROG_HORARIO_DESDE_HASTA?PROG
            CODE    54F6H     01F5H     UNIT         ?PR?PROG_FECHA_VENCIMIENTO?PROG
            CODE    56EBH     01DFH     UNIT         ?PR?_RESPONDE_LECTURA_TARJETA_SECTOR1_BLOQUE1?VERIFICADOR
            CODE    58CAH     01CFH     UNIT         ?PR?_BLOCK_READ_CLOCK_ASCII_RASBERRY?CLOCK
            CODE    5A99H     01B3H     UNIT         ?PR?COM_ISR?UART
            CODE    5C4CH     01A9H     UNIT         ?PR?_ARMAR_TRAMA_PTO_PARALELO_EXPEDIDOR?VERIFICADOR
            CODE    5DF5H     01A4H     UNIT         ?PR?_VALIDA_TIPO_TARJETA?VERIFICADOR
            CODE    5F99H     01A3H     UNIT         ?CO?LINTECH
            CODE    613CH     016FH     UNIT         ?PR?_BLOCK_READ_CLOCK_ASCII?CLOCK
            CODE    62ABH     0166H     UNIT         ?PR?_POW?POW
            CODE    6411H     0157H     UNIT         ?PR?_RESPONDE_REELECTURA_TARJETA_SECTOR1_BLOQUE2?VERIFICADOR
            CODE    6568H     0154H     UNIT         ?PR?_ARMAR_TRAMA_MONITOR?VERIFICADOR
            CODE    66BCH     0145H     UNIT         ?PR?PROG_HORARIOS?PROG
            CODE    6801H     0142H     UNIT         ?PR?_ARMAR_TRAMA_TARJETA_SECTOR1_BLOQUE2?VERIFICADOR
            CODE    6943H     013EH     UNIT         ?PR?PROG_SIN_COBRO?PROG
            CODE    6A81H     013EH     UNIT         ?PR?SECUENCIA_INICIO_EXPEDIDOR?VERIFICADOR
            CODE    6BBFH     013CH     UNIT         ?PR?LOAD_AND_SEND_ID_COD?PTO_PARALELO
            CODE    6CFBH     0137H     UNIT         ?PR?VER_HORARIO?PROG
            CODE    6E32H     012BH     UNIT         ?PR?_RESPONDE_LECTURA_TARJETA_SECTOR1_BLOQUE2?VERIFICADOR
            CODE    6F5DH     0129H     UNIT         ?PR?LOG?LOG
            CODE    7086H     0128H     UNIT         ?PR?_VER_HORARIO_DIAS?PROG
            CODE    71AEH     011AH     UNIT         ?PR?_PROG_HORARIOS_ON_OFF?PROG
            CODE    72C8H     0119H     UNIT         ?PR?_VER_HORARIO_DESDE_HASTA?PROG
            CODE    73E1H     0115H     UNIT         ?PR?_VALIDAR_CLK?CLOCK
            CODE    74F6H     010FH     UNIT         ?PR?_HORARIOS?VERIFICADOR
            CODE    7605H     010CH     UNIT         ?PR?_ATOL?ATOL
            CODE    7711H     0103H     UNIT         ?PR?_BLOQUE_HORARIO?VERIFICADOR
            CODE    7814H     0100H     UNIT         ?PR?_WR_MF?LINTECH
            CODE    7914H     00FCH     UNIT         ?PR?PROG_DEBUG?PROG
            CODE    7A10H     00FCH     UNIT         ?PR?PROG_USE_LPR?PROG
            CODE    7B0CH     00FCH     UNIT         ?PR?TIPO_PANTALLA?PROG
            CODE    7C08H     00FCH     UNIT         ?PR?PROG_ANTIPASSBACK?PROG
            CODE    7D04H     00FCH     UNIT         ?PR?PROG_PLACA?PROG
            CODE    7E00H     00FCH     UNIT         ?PR?PROG_VALIDAR_TIPO_VEHICULO_MENSUAL?PROG
            CODE    7EFCH     00FCH     UNIT         ?PR?PROG_APB_MENSUAL?PROG
            CODE    7FF8H     00F1H     UNIT         ?PR?_WRITE_EEPROM_TICKET?EEPROM
            CODE    80E9H     00EAH     UNIT         ?PR?_MOV_CARD?LINTECH
            CODE    81D3H     00E4H     UNIT         ?PR?_STRTOK?STRTOK
            CODE    82B7H     00DEH     UNIT         ?PR?PROG_ADDRESS_HIGH_BOARD?PROG
BL51 BANKED LINKER/LOCATER V6.22.2.0                                                  05/25/2021  12:30:00  PAGE 4


            CODE    8395H     00DBH     UNIT         ?PR?_ATOI?ATOI
            CODE    8470H     00D7H     UNIT         ?PR?_ANALIZA_UID_CARD?VERIFICADOR
            CODE    8547H     00D6H     UNIT         ?PR?_CMD_LPR_SALIDA_WIEGAND?ACCESCAN
            CODE    861DH     00D3H     UNIT         ?C_INITSEG
            CODE    86F0H     00D1H     UNIT         ?PR?_ARMAR_TRAMA_PTO_PARALELO_EXPEDIDOR_MENSUAL?VERIFICADOR
            CODE    87C1H     00CCH     UNIT         ?PR?_GRABA_SERIE?EEPROM
            CODE    888DH     00CBH     UNIT         ?PR?_RTA_CMD_TRANSPORTE?VERIFICADOR
            CODE    8958H     00CAH     UNIT         ?PR?READ_EEPROM_TICKET?EEPROM
            CODE    8A22H     00C9H     UNIT         ?PR?_CHECK_FECHAOUT?CLOCK
            CODE    8AEBH     00C5H     UNIT         ?PR?_BLOCK_READ_CLOCK?CLOCK
            CODE    8BB0H     00C4H     UNIT         ?PR?_TARJETA_MENSUAL?VERIFICADOR
            CODE    8C74H     00C3H     UNIT         ?PR?_RD_MF?LINTECH
            CODE    8D37H     00C2H     UNIT         ?PR?PROG_TARJETA_AUTOMATICA_O_BOTON?PROG
            CODE    8DF9H     00C1H     UNIT         ?PR?_RECIBE_CMD_MONITOR?MONITOR
            CODE    8EBAH     00BFH     UNIT         ?CO?IO_SENSORES
            CODE    8F79H     00BEH     UNIT         ?PR?ERROR_RX_PTO?VERIFICADOR
            CODE    9037H     00BDH     UNIT         ?PR?PROG_COD_PARK?PROG
            CODE    90F4H     00BDH     UNIT         ?PR?PROG_TIEMPO_GRACIA?PROG
            CODE    91B1H     00BBH     UNIT         ?PR?_VALIDA_TRAMA_MONITOR?MONITOR
            CODE    926CH     00B9H     UNIT         ?CO?TIBBO
            CODE    9325H     00B6H     UNIT         ?PR?PROG_ID_CLIENTE?PROG
            CODE    93DBH     00B5H     UNIT         ?PR?_WAIT_PLACA?VERIFICADOR
            CODE    9490H     00B4H     UNIT         ?PR?_SEND_PORT?PTO_PARALELO
            CODE    9544H     00ACH     UNIT         ?PR?_HORA_MAXIMA?VERIFICADOR
            CODE    95F0H     00AAH     UNIT         ?PR?CLAVE_SEGURIDAD_S2?LINTECH
            CODE    969AH     00A9H     UNIT         ?PR?DWLOAD_EEPROM?LINTECH
            CODE    9743H     00A7H     UNIT         ?PR?_BLOCK_READ_CLOCK_HEX?CLOCK
            CODE    97EAH     00A4H     UNIT         ?PR?_ARMAR_TRAMA_TARJETA_SECTOR1_BLOQUE1_CAMCEL?VERIFICADOR
            CODE    988EH     00A1H     UNIT         ?PR?_BLOCK_WRITE_CLOCK_ASCII?CLOCK
            CODE    992FH     009DH     UNIT         ?PR?_INICIALIZA?LINTECH
            CODE    99CCH     009CH     UNIT         ?PR?_RESPUESTA_PLACA_CANCEL?VERIFICADOR
            CODE    9A68H     009AH     UNIT         ?PR?_RESPONDE_LECTURA_TARJETA_SECTOR1_BLOQUE0?VERIFICADOR
            CODE    9B02H     009AH     UNIT         ?PR?EXP?EXP
            CODE    9B9CH     0099H     UNIT         ?PR?SHOW?PROG
            CODE    9C35H     0099H     UNIT         ?PR?_RECIBE_PORT?PTO_PARALELO
            CODE    9CCEH     0098H     UNIT         ?PR?_VALIDA_VEHICULO_CARD_MENSUAL?VERIFICADOR
            CODE    9D66H     0091H     UNIT         ?PR?_HEX_ASCII?CLOCK
            CODE    9DF7H     0091H     UNIT         ?PR?_CARD_INSERCION?LINTECH
            CODE    9E88H     0090H     UNIT         ?PR?_GETOPTION?PROG
            CODE    9F18H     0090H     UNIT         ?PR?_DISPARO_LOCK_ENTRADA_VEHICULO?VERIFICADOR
            CODE    9FA8H     0090H     UNIT         ?PR?ENTREGA_CARD_CAPTURA?VERIFICADOR
            CODE    A038H     008FH     UNIT         ?PR?_LEE_CLK?CLOCK
            CODE    A0C7H     008DH     UNIT         ?PR?LOADVERIFY_EEPROM?LINTECH
            CODE    A154H     008CH     UNIT         ?C_C51STARTUP
            CODE    A1E0H     0088H     UNIT         ?PR?_SEND_PORTERR?PTO_PARALELO
            CODE    A268H     0088H     UNIT         ?PR?RX_DATA?TIBBO
            CODE    A2F0H     0088H     UNIT         ?PR?UNIQUE_IDENTIFIER_UID?LINTECH
            CODE    A378H     0086H     UNIT         ?PR?_CHECK_STATUS?LINTECH
            CODE    A3FEH     0084H     UNIT         ?PR?MSJ_LCD_INFORMATIVO?IO_SENSORES
            CODE    A482H     0084H     UNIT         ?PR?_DEBUGBUFFERMF?TIBBO
            CODE    A506H     0084H     UNIT         ?PR?_STRSPN?STRSPN
            CODE    A58AH     0083H     UNIT         ?PR?_RASPBERRY_DATA?PANTALLAS
            CODE    A60DH     0081H     UNIT         ?PR?_STRPBRK?STRPBRK
            CODE    A68EH     0080H     UNIT         ?PR?_INGRESADATO?PROG
            CODE    A70EH     0080H     UNIT         ?PR?AUT_CARD_CHECK_STATUS?LINTECH
            CODE    A78EH     0080H     UNIT         ?PR?POWER_OFF?LINTECH
            CODE    A80EH     007FH     UNIT         ?PR?MAIN?MAIN
BL51 BANKED LINKER/LOCATER V6.22.2.0                                                  05/25/2021  12:30:00  PAGE 5


            CODE    A88DH     007DH     UNIT         ?PR?RELOJ_PANTALLA_LCD?PANTALLAS
            CODE    A90AH     007CH     UNIT         ?PR?RESPONDE_ESTADO_SENSORES_TRANSPORTE?VERIFICADOR
            CODE    A986H     007CH     UNIT         ?PR?_SEND_PTO_PARALELO?VERIFICADOR
            CODE    AA02H     0077H     UNIT         ?PR?RESPONDE_TIPO_TARJETA?VERIFICADOR
            CODE    AA79H     0071H     UNIT         ?PR?_EN_HORARIO?VERIFICADOR
            CODE    AAEAH     006FH     UNIT         ?PR?_ESCRIBIRMEMORIA?EEPROM
            CODE    AB59H     006CH     UNIT         ?PR?_RESPONDE_WRITE_TARJETA_SECTOR1_BLOQUE2?VERIFICADOR
            CODE    ABC5H     006BH     UNIT         ?PR?INGRESO_VEHICULO?VERIFICADOR
            CODE    AC30H     006BH     UNIT         ?PR?_STRCAT?STRCAT
            CODE    AC9BH     0066H     UNIT         ?PR?_LEERMEMORIA?EEPROM
            CODE    AD01H     0062H     UNIT         ?PR?_LISTACOMANDOS?PROG
            CODE    AD63H     005EH     UNIT         ?PR?_BYTEHEX_DECIMAL?CLOCK
            CODE    ADC1H     005DH     UNIT         ?PR?_RESPUESTA_SEGUNDA_CLAVE?VERIFICADOR
            CODE    AE1EH     005CH     UNIT         ?PR?_ARMAR_TRAMA_PLACA?VERIFICADOR
            CODE    AE7AH     005BH     UNIT         ?PR?VALIDA_SENSOR1_AUTO?IO_SENSORES
            CODE    AED5H     0056H     UNIT         ?PR?_WR_EEPROM?EEPROM
            CODE    AF2BH     004DH     UNIT         ?PR?VARIABLE_INICIO?MAIN
            CODE    AF78H     004DH     UNIT         ?PR?L_D_M?EEPROM
            CODE    AFC5H     004CH     UNIT         ?PR?LEE_NO_TICKET?EEPROM
            CODE    B011H     004CH     UNIT         ?PR?LOAD_AND_SEND_INFO_RELOJ?PTO_PARALELO
            CODE    B05DH     004BH     UNIT         ?PR?_TX_AUX?TIBBO
            CODE    B0A8H     0049H     UNIT         ?PR?_DEBUG_TXT_TIBBO?TIBBO
            CODE    B0F1H     0048H     UNIT         ?PR?FIRST_CLAVE?PROG
            CODE    B139H     0047H     UNIT         ?PR?_DEBUG_CHR_TIBBO?TIBBO
            CODE    B180H     0047H     UNIT         ?PR?_RESPONDE_WRITE_TARJETA_SECTOR2_BLOQUE0?VERIFICADOR
            CODE    B1C7H     0046H     UNIT         ?PR?_ESCRIBIRCADENASOFT_BUFFER?MAIN
            CODE    B20DH     0046H     UNIT         ?PR?_LCD_TXT_NUM_CHAR?PANTALLAS
            CODE    B253H     0046H     UNIT         ?PR?_DEBUG_HEXDEC?TIBBO
            CODE    B299H     0046H     UNIT         ?PR?_PREGUNTA_LPR?VERIFICADOR
            CODE    B2DFH     0044H     UNIT         ?PR?_LCD_TXT?PANTALLAS
            CODE    B323H     0043H     UNIT         ?PR?DIR_BOARD?IO_SENSORES
            CODE    B366H     0042H     UNIT         ?PR?_VALIDARCLAVE?PROG
            CODE    B3A8H     0041H     UNIT         ?PR?_MONITOR_CHR?ACCESCAN
            CODE    B3E9H     0041H     UNIT         ?PR?_TWO_ONE?CLOCK
            CODE    B42AH     0040H     UNIT         ?PR?_GETCMD?PROG
            CODE    B46AH     0040H     UNIT         ?PR?_DEBUG_PTO_PARALELO?TIBBO
            CODE    B4AAH     003FH     UNIT         ?PR?_EB_CLK?CLOCK
            CODE    B4E9H     003EH     UNIT         ?PR?_PUTCHAR?MAIN
            CODE    B527H     003EH     UNIT         ?PR?TRAMA_VALIDACION_P_N?VERIFICADOR
            CODE    B565H     003DH     UNIT         ?PR?_HEX_BCD?CLOCK
            CODE    B5A2H     003DH     UNIT         ?PR?_RD_EEPROM?EEPROM
            CODE    B5DFH     003DH     UNIT         ?PR?_DEBUG_MONITOR?TIBBO
            CODE    B61CH     003DH     UNIT         ?PR?_LOAD_SECUENCIA_EXPEDIDOR?VERIFICADOR
            CODE    B659H     003BH     UNIT         ?CO?EEPROM
            CODE    B694H     003BH     UNIT         ?PR?_COM_PUTCHAR?UART
            CODE    B6CFH     003AH     UNIT         ?PR?_DELAY_10MS?DELAY
            CODE    B709H     003AH     UNIT         ?PR?ANALIZA_CARD_MOUNT_RF?VERIFICADOR
            CODE    B743H     0038H     UNIT         ?PR?VALIDASENSORESPASO?IO_SENSORES
            CODE    B77BH     0036H     UNIT         ?PR?_RESPONDE_WRITE_TARJETA_SECTOR1_BLOQUE1?VERIFICADOR
            CODE    B7B1H     0036H     UNIT         ?PR?_RESPONDE_WRITE_TARJETA_SECTOR1_BLOQUE0?VERIFICADOR
            CODE    B7E7H     0034H     UNIT         ?PR?INCREMENTE_TICKET?EEPROM
            CODE    B81BH     0034H     UNIT         ?PR?ADDR_HORARIOS?PROG
            CODE    B84FH     0031H     UNIT         ?PR?_TARJETA_ROTACION?VERIFICADOR
            CODE    B880H     0030H     UNIT         ?PR?PREGUNTA_PLACA?VERIFICADOR
            CODE    B8B0H     002EH     UNIT         ?PR?TIMER0_INT?MAIN
            CODE    B8DEH     002AH     UNIT         ?PR?COM_INITIALIZE?UART
            CODE    B908H     0028H     UNIT         ?PR?_WR_CLK?CLOCK
BL51 BANKED LINKER/LOCATER V6.22.2.0                                                  05/25/2021  12:30:00  PAGE 6


            CODE    B930H     0028H     UNIT         ?PR?COM_BAUDRATE?UART
            CODE    B958H     0028H     UNIT         ?PR?_ARMAR_TRAMA_TARJETA_SECTOR1_BLOQUE0?VERIFICADOR
            CODE    B980H     0027H     UNIT         ?PR?_TX_CHRLCD?PANTALLAS
            CODE    B9A7H     0026H     UNIT         ?PR?COM_GETCHAR?UART
            CODE    B9CDH     0026H     UNIT         ?PR?ANALIZA_PRESENCIA_MENSUAL?VERIFICADOR
            CODE    B9F3H     0026H     UNIT         ?PR?RX_MONITOR?MONITOR
            CODE    BA19H     0023H     UNIT         ?PR?ANALIZA_PRESENCIA_ROTACION?VERIFICADOR
            CODE    BA3CH     0022H     UNIT         ?PR?_E_D_M?EEPROM
            CODE    BA5EH     0022H     UNIT         ?PR?VALIDASENSOR_CERO?IO_SENSORES
            CODE    BA80H     0021H     UNIT         ?CO?PTO_PARALELO
            CODE    BAA1H     0020H     UNIT         ?PR?ACKD?EEPROM
            CODE    BAC1H     0020H     UNIT         ?PR?ACK_LECT?EEPROM
            CODE    BAE1H     001FH     UNIT         ?PR?VALIDASENSOR?IO_SENSORES
            CODE    BB00H     001FH     UNIT         ?PR?TIME_BIT?TIBBO
            CODE    BB1FH     001EH     UNIT         ?PR?_BCD_HEX?CLOCK
            CODE    BB3DH     001BH     UNIT         ?PR?_DELAY_1MS?DELAY
            CODE    BB58H     0018H     UNIT         ?PR?CLEAR_PLACA?MONITOR
            CODE    BB70H     0017H     UNIT         ?PR?DISPLAYCURSOR?PROG
            CODE    BB87H     0017H     UNIT         ?PR?TIME_MBIT?TIBBO
            CODE    BB9EH     0016H     UNIT         ?PR?DIR_BOARD_MONITOR?IO_SENSORES
            CODE    BBB4H     0014H     UNIT         ?CO?CLOCK
            CODE    BBC8H     0014H     UNIT         ?PR?_ISSPACE?ISSPACE
            CODE    BBDCH     0012H     UNIT         ?PR?_DELAY_20US?DELAY
            CODE    BBEEH     0012H     UNIT         ?PR?START?EEPROM
            CODE    BC00H     0012H     UNIT         ?PR?BOTTON?IO_SENSORES
            CODE    BC12H     0012H     UNIT         ?PR?PULSO_BUS?PTO_PARALELO
            CODE    BC24H     0012H     UNIT         ?PR?COM_RBUFLEN?UART
            CODE    BC36H     0012H     UNIT         ?PR?COM_TBUFLEN?UART
            CODE    BC48H     0010H     UNIT         ?PR?INI_TIMER?MAIN
            CODE    BC58H     0010H     UNIT         ?PR?INICIA_BOARD?MAIN
            CODE    BC68H     000FH     UNIT         ?PR?_ISDIGIT?ISDIGIT
            CODE    BC77H     000CH     UNIT         ?PR?_GETKEY?MAIN
            CODE    BC83H     000AH     UNIT         ?PR?STOP?EEPROM
            CODE    BC8DH     000AH     UNIT         ?PR?COND_INI_PTO?PTO_PARALELO
            CODE    BC97H     0009H     UNIT         ?PR?DEBUG_DIVIDIR_TEXTO?TIBBO
            CODE    BCA0H     0009H     UNIT         ?PR?CAPTURA_EXPULSA?VERIFICADOR
            CODE    BCA9H     0007H     UNIT         ?PR?COND_INI_CLOCK?CLOCK
            CODE    BCB0H     0007H     UNIT         ?PR?SEL_FUNCION?IO_SENSORES
            CODE    BCB7H     0007H     UNIT         ?PR?SEL_AUTO?IO_SENSORES
            CODE    BCBEH     0007H     UNIT         ?PR?SEL_PULSA?IO_SENSORES
            CODE    BCC5H     0007H     UNIT         ?PR?SEL_SENSOR2?IO_SENSORES
            CODE    BCCCH     0007H     UNIT         ?PR?SEL_SENSOR1?IO_SENSORES
            CODE    BCD3H     0007H     UNIT         ?PR?SEL_DIR1?IO_SENSORES
            CODE    BCDAH     0007H     UNIT         ?PR?SEL_DIR2?IO_SENSORES
            CODE    BCE1H     0006H     UNIT         ?PR?P_ME?EEPROM
            CODE    BCE7H     0005H     UNIT         ?PR?ON_TIMER0_INTERRUP?MAIN
            CODE    BCECH     0005H     UNIT         ?CO?ACCESCAN
            CODE    BCF1H     0005H     UNIT         ?PR?COND_INI_TIBBO?TIBBO
            CODE    BCF6H     0003H     UNIT         ?PR?OFF_TIMER0_INTERRUP?MAIN
            CODE    BCF9H     0001H     UNIT         ?PR?DELAY?DELAY



OVERLAY MAP OF MODULE:   .\Objects\expedidor_v_01_raspberry (MAIN)


SEGMENT                                             BIT_GROUP          DATA_GROUP          XDATA_GROUP
BL51 BANKED LINKER/LOCATER V6.22.2.0                                                  05/25/2021  12:30:00  PAGE 7


  +--> CALLED SEGMENT                            START    LENGTH     START    LENGTH     START    LENGTH
--------------------------------------------------------------------------------------------------------
?C_C51STARTUP                                    -----    -----      -----    -----      -----    -----
  +--> ?PR?MAIN?MAIN
  +--> ?C_INITSEG

?PR?MAIN?MAIN                                    -----    -----      -----    -----      0000H    0001H
  +--> ?PR?INI_TIMER?MAIN
  +--> ?PR?ON_TIMER0_INTERRUP?MAIN
  +--> ?PR?COM_INITIALIZE?UART
  +--> ?PR?COM_BAUDRATE?UART
  +--> ?PR?INICIA_BOARD?MAIN
  +--> ?PR?TIME_BIT?TIBBO
  +--> ?PR?_DELAY_20US?DELAY
  +--> ?PR?TIME_MBIT?TIBBO
  +--> ?PR?_TX_AUX?TIBBO
  +--> ?PR?SEL_FUNCION?IO_SENSORES
  +--> ?PR?MENU?PROG
  +--> ?PR?VARIABLE_INICIO?MAIN
  +--> ?PR?SECUENCIA_INICIO_EXPEDIDOR?VERIFI...
  +--> ?PR?RX_MONITOR?MONITOR
  +--> ?PR?_SECUENCIAEXPEDIDORMF?VERIFICADOR
  +--> ?PR?_RECIBE_PORT?PTO_PARALELO
  +--> ?PR?_DEBUG_PTO_PARALELO?TIBBO
  +--> ?PR?_VALIDA_TRAMA_PTO?ACCESCAN
  +--> ?PR?MSJ_LCD_INFORMATIVO?IO_SENSORES

?PR?COM_INITIALIZE?UART                          -----    -----      -----    -----      -----    -----
  +--> ?PR?COM_BAUDRATE?UART

?PR?INICIA_BOARD?MAIN                            -----    -----      -----    -----      -----    -----
  +--> ?PR?COND_INI_TIBBO?TIBBO
  +--> ?PR?COND_INI_CLOCK?CLOCK
  +--> ?PR?COND_INI_PTO?PTO_PARALELO

?PR?_TX_AUX?TIBBO                                -----    -----      -----    -----      -----    -----
  +--> ?PR?TIME_BIT?TIBBO

?PR?MENU?PROG                                    -----    -----      -----    -----      0001H    0045H
  +--> ?CO?PROG
  +--> ?PR?PRINTF?PRINTF
  +--> ?PR?_RD_EEPROM?EEPROM
  +--> ?PR?FIRST_CLAVE?PROG
  +--> ?PR?_WR_EEPROM?EEPROM
  +--> ?PR?_LEERMEMORIA?EEPROM
  +--> ?PR?_HASH_ID?PROG
  +--> ?PR?_INGRESADATO?PROG
  +--> ?PR?_GETCMD?PROG
  +--> ?PR?_ESCRIBIRMEMORIA?EEPROM
  +--> ?PR?_VALIDARCLAVE?PROG
  +--> ?PR?DISPLAYCURSOR?PROG
  +--> ?PR?_STRLEN?STRLEN
  +--> ?PR?_GETOPTION?PROG
  +--> ?PR?_STRCAT?STRCAT
  +--> ?PR?_LISTACOMANDOS?PROG
  +--> ?PR?PROG_ID_CLIENTE?PROG
  +--> ?PR?PROG_COD_PARK?PROG
BL51 BANKED LINKER/LOCATER V6.22.2.0                                                  05/25/2021  12:30:00  PAGE 8


  +--> ?PR?PROG_TIEMPO_GRACIA?PROG
  +--> ?PR?PROG_SIN_COBRO?PROG
  +--> ?PR?PROG_DEBUG?PROG
  +--> ?PR?PROG_USE_LPR?PROG
  +--> ?PR?TIPO_PANTALLA?PROG
  +--> ?PR?PROG_TARJETA_AUTOMATICA_O_BOTON?PROG
  +--> ?PR?PROG_ANTIPASSBACK?PROG
  +--> ?PR?PROG_PLACA?PROG
  +--> ?PR?PROG_ADDRESS_HIGH_BOARD?PROG
  +--> ?PR?PROG_HORARIOS?PROG
  +--> ?PR?PROG_VALIDAR_TIPO_VEHICULO_MENSUA...
  +--> ?PR?PROG_APB_MENSUAL?PROG
  +--> ?PR?VER_PROG?PROG
  +--> ?PR?SHOW?PROG
  +--> ?PR?PROG_FECHA_VENCIMIENTO?PROG

?PR?PRINTF?PRINTF                                0020H.0  0001H.1    0008H    0005H      0077H    0030H
  +--> ?PR?_PUTCHAR?MAIN

?PR?_PUTCHAR?MAIN                                -----    -----      -----    -----      00A7H    0003H
  +--> ?PR?_COM_PUTCHAR?UART

?PR?_COM_PUTCHAR?UART                            -----    -----      -----    -----      00AAH    0001H
  +--> ?PR?COM_TBUFLEN?UART

?PR?_RD_EEPROM?EEPROM                            -----    -----      -----    -----      -----    -----
  +--> ?PR?START?EEPROM
  +--> ?PR?ACK_LECT?EEPROM
  +--> ?PR?_E_D_M?EEPROM
  +--> ?PR?ACKD?EEPROM
  +--> ?PR?L_D_M?EEPROM
  +--> ?PR?STOP?EEPROM

?PR?ACK_LECT?EEPROM                              -----    -----      -----    -----      -----    -----
  +--> ?PR?_E_D_M?EEPROM

?PR?_E_D_M?EEPROM                                -----    -----      -----    -----      -----    -----
  +--> ?PR?P_ME?EEPROM

?PR?ACKD?EEPROM                                  -----    -----      -----    -----      -----    -----
  +--> ?PR?_E_D_M?EEPROM

?PR?FIRST_CLAVE?PROG                             -----    -----      -----    -----      0046H    000BH
  +--> ?PR?_BLOCK_READ_CLOCK_ASCII?CLOCK
  +--> ?PR?_HASH_ID?PROG
  +--> ?PR?_ESCRIBIRMEMORIA?EEPROM

?PR?_BLOCK_READ_CLOCK_ASCII?CLOCK                -----    -----      -----    -----      0051H    0003H
  +--> ?PR?_LEE_CLK?CLOCK

?PR?_LEE_CLK?CLOCK                               -----    -----      -----    -----      00B1H    0003H
  +--> ?PR?_DELAY_20US?DELAY
  +--> ?PR?_EB_CLK?CLOCK
  +--> ?PR?P_CK?CLOCK

?PR?_EB_CLK?CLOCK                                -----    -----      -----    -----      00B4H    0003H
  +--> ?PR?P_CK?CLOCK
BL51 BANKED LINKER/LOCATER V6.22.2.0                                                  05/25/2021  12:30:00  PAGE 9



?PR?P_CK?CLOCK                                   -----    -----      -----    -----      -----    -----
  +--> ?PR?DELAY?DELAY

?PR?_HASH_ID?PROG                                -----    -----      -----    -----      005DH    003FH
  +--> ?CO?PROG
  +--> ?PR?_LEERMEMORIA?EEPROM
  +--> ?PR?_CHECK_FECHAOUT?CLOCK
  +--> ?PR?_STRLEN?STRLEN

?PR?_LEERMEMORIA?EEPROM                          -----    -----      -----    -----      009CH    0005H
  +--> ?PR?_RD_EEPROM?EEPROM

?PR?_CHECK_FECHAOUT?CLOCK                        -----    -----      -----    -----      009CH    0012H
  +--> ?PR?_BLOCK_READ_CLOCK_HEX?CLOCK

?PR?_BLOCK_READ_CLOCK_HEX?CLOCK                  -----    -----      -----    -----      00AEH    0003H
  +--> ?PR?_LEE_CLK?CLOCK
  +--> ?PR?_BCD_HEX?CLOCK

?PR?_ESCRIBIRMEMORIA?EEPROM                      -----    -----      -----    -----      005DH    0005H
  +--> ?PR?_WR_EEPROM?EEPROM

?PR?_WR_EEPROM?EEPROM                            -----    -----      -----    -----      -----    -----
  +--> ?PR?START?EEPROM
  +--> ?PR?ACKD?EEPROM
  +--> ?PR?_E_D_M?EEPROM
  +--> ?PR?STOP?EEPROM
  +--> ?PR?_DELAY_1MS?DELAY
  +--> ?PR?_DELAY_20US?DELAY

?PR?_DELAY_1MS?DELAY                             -----    -----      -----    -----      -----    -----
  +--> ?PR?_DELAY_20US?DELAY

?PR?_INGRESADATO?PROG                            -----    -----      -----    -----      0071H    0004H
  +--> ?PR?_GETKEY?MAIN
  +--> ?CO?PROG
  +--> ?PR?PRINTF?PRINTF
  +--> ?PR?_PUTCHAR?MAIN

?PR?_GETKEY?MAIN                                 -----    -----      -----    -----      -----    -----
  +--> ?PR?COM_GETCHAR?UART

?PR?COM_GETCHAR?UART                             -----    -----      -----    -----      -----    -----
  +--> ?PR?COM_RBUFLEN?UART

?PR?_GETCMD?PROG                                 -----    -----      -----    -----      005DH    0007H
  +--> ?CO?PROG
  +--> ?PR?_STRTOK?STRTOK

?PR?_STRTOK?STRTOK                               -----    -----      -----    -----      0064H    0006H
  +--> ?PR?_STRSPN?STRSPN
  +--> ?PR?_STRPBRK?STRPBRK

?PR?_STRSPN?STRSPN                               -----    -----      -----    -----      006AH    0008H

?PR?_STRPBRK?STRPBRK                             -----    -----      -----    -----      006AH    0009H
BL51 BANKED LINKER/LOCATER V6.22.2.0                                                  05/25/2021  12:30:00  PAGE 10



?PR?_VALIDARCLAVE?PROG                           -----    -----      -----    -----      005DH    000EH

?PR?DISPLAYCURSOR?PROG                           -----    -----      -----    -----      -----    -----
  +--> ?CO?PROG
  +--> ?PR?PRINTF?PRINTF

?PR?_GETOPTION?PROG                              -----    -----      -----    -----      0046H    000BH
  +--> ?CO?PROG
  +--> ?PR?_STRTOK?STRTOK

?PR?_STRCAT?STRCAT                               -----    -----      -----    -----      0046H    0009H

?PR?_LISTACOMANDOS?PROG                          -----    -----      -----    -----      0046H    0007H

?PR?PROG_ID_CLIENTE?PROG                         -----    -----      -----    -----      0046H    000CH
  +--> ?PR?_RD_EEPROM?EEPROM
  +--> ?CO?PROG
  +--> ?PR?PRINTF?PRINTF
  +--> ?PR?_INGRESADATO?PROG
  +--> ?PR?_ATOI?ATOI
  +--> ?PR?_WR_EEPROM?EEPROM

?PR?_ATOI?ATOI                                   0020H.0  0000H.1    -----    -----      0071H    0005H
  +--> ?PR?_ISSPACE?ISSPACE
  +--> ?PR?_ISDIGIT?ISDIGIT

?PR?PROG_COD_PARK?PROG                           -----    -----      -----    -----      0046H    000CH
  +--> ?PR?_RD_EEPROM?EEPROM
  +--> ?CO?PROG
  +--> ?PR?PRINTF?PRINTF
  +--> ?PR?_INGRESADATO?PROG
  +--> ?PR?_ATOI?ATOI
  +--> ?PR?_WR_EEPROM?EEPROM

?PR?PROG_TIEMPO_GRACIA?PROG                      -----    -----      -----    -----      0046H    000CH
  +--> ?PR?_RD_EEPROM?EEPROM
  +--> ?CO?PROG
  +--> ?PR?PRINTF?PRINTF
  +--> ?PR?_INGRESADATO?PROG
  +--> ?PR?_ATOI?ATOI
  +--> ?PR?_WR_EEPROM?EEPROM

?PR?PROG_SIN_COBRO?PROG                          -----    -----      -----    -----      0046H    000CH
  +--> ?PR?_RD_EEPROM?EEPROM
  +--> ?CO?PROG
  +--> ?PR?PRINTF?PRINTF
  +--> ?PR?_INGRESADATO?PROG
  +--> ?PR?_ATOI?ATOI
  +--> ?PR?_WR_EEPROM?EEPROM

?PR?PROG_DEBUG?PROG                              -----    -----      -----    -----      0046H    000CH
  +--> ?PR?_RD_EEPROM?EEPROM
  +--> ?CO?PROG
  +--> ?PR?PRINTF?PRINTF
  +--> ?PR?_INGRESADATO?PROG
  +--> ?PR?_ATOI?ATOI
BL51 BANKED LINKER/LOCATER V6.22.2.0                                                  05/25/2021  12:30:00  PAGE 11


  +--> ?PR?_WR_EEPROM?EEPROM

?PR?PROG_USE_LPR?PROG                            -----    -----      -----    -----      0046H    000CH
  +--> ?PR?_RD_EEPROM?EEPROM
  +--> ?CO?PROG
  +--> ?PR?PRINTF?PRINTF
  +--> ?PR?_INGRESADATO?PROG
  +--> ?PR?_ATOI?ATOI
  +--> ?PR?_WR_EEPROM?EEPROM

?PR?TIPO_PANTALLA?PROG                           -----    -----      -----    -----      0046H    000CH
  +--> ?PR?_RD_EEPROM?EEPROM
  +--> ?CO?PROG
  +--> ?PR?PRINTF?PRINTF
  +--> ?PR?_INGRESADATO?PROG
  +--> ?PR?_ATOI?ATOI
  +--> ?PR?_WR_EEPROM?EEPROM

?PR?PROG_TARJETA_AUTOMATICA_O_BOTON?PROG         -----    -----      -----    -----      0046H    000CH
  +--> ?PR?_RD_EEPROM?EEPROM
  +--> ?CO?PROG
  +--> ?PR?PRINTF?PRINTF
  +--> ?PR?_INGRESADATO?PROG
  +--> ?PR?_ATOI?ATOI
  +--> ?PR?_WR_EEPROM?EEPROM

?PR?PROG_ANTIPASSBACK?PROG                       -----    -----      -----    -----      0046H    000CH
  +--> ?PR?_RD_EEPROM?EEPROM
  +--> ?CO?PROG
  +--> ?PR?PRINTF?PRINTF
  +--> ?PR?_INGRESADATO?PROG
  +--> ?PR?_ATOI?ATOI
  +--> ?PR?_WR_EEPROM?EEPROM

?PR?PROG_PLACA?PROG                              -----    -----      -----    -----      0046H    000CH
  +--> ?PR?_RD_EEPROM?EEPROM
  +--> ?CO?PROG
  +--> ?PR?PRINTF?PRINTF
  +--> ?PR?_INGRESADATO?PROG
  +--> ?PR?_ATOI?ATOI
  +--> ?PR?_WR_EEPROM?EEPROM

?PR?PROG_ADDRESS_HIGH_BOARD?PROG                 -----    -----      -----    -----      0046H    000CH
  +--> ?PR?_RD_EEPROM?EEPROM
  +--> ?CO?PROG
  +--> ?PR?PRINTF?PRINTF
  +--> ?PR?_INGRESADATO?PROG
  +--> ?PR?_ATOI?ATOI
  +--> ?PR?_WR_EEPROM?EEPROM

?PR?PROG_HORARIOS?PROG                           -----    -----      -----    -----      0046H    001BH
  +--> ?PR?ADDR_HORARIOS?PROG
  +--> ?CO?PROG
  +--> ?PR?PRINTF?PRINTF
  +--> ?PR?_INGRESADATO?PROG
  +--> ?PR?_ATOI?ATOI
  +--> ?PR?_PROG_HORARIOS_ON_OFF?PROG
BL51 BANKED LINKER/LOCATER V6.22.2.0                                                  05/25/2021  12:30:00  PAGE 12


  +--> ?PR?_WR_EEPROM?EEPROM
  +--> ?PR?_PROG_HORARIO_DIAS?PROG
  +--> ?PR?_PROG_HORARIO_DESDE_HASTA?PROG
  +--> ?PR?_RD_EEPROM?EEPROM

?PR?ADDR_HORARIOS?PROG                           -----    -----      -----    -----      0074H    000BH

?PR?_PROG_HORARIOS_ON_OFF?PROG                   -----    -----      -----    -----      0061H    0010H
  +--> ?PR?_RD_EEPROM?EEPROM
  +--> ?CO?PROG
  +--> ?PR?PRINTF?PRINTF
  +--> ?PR?_INGRESADATO?PROG
  +--> ?PR?_ATOI?ATOI
  +--> ?PR?_WR_EEPROM?EEPROM

?PR?_PROG_HORARIO_DIAS?PROG                      -----    -----      -----    -----      0061H    000FH
  +--> ?CO?PROG
  +--> ?PR?PRINTF?PRINTF
  +--> ?PR?_INGRESADATO?PROG
  +--> ?PR?_WR_EEPROM?EEPROM
  +--> ?PR?_RD_EEPROM?EEPROM

?PR?_PROG_HORARIO_DESDE_HASTA?PROG               -----    -----      -----    -----      0061H    000CH
  +--> ?CO?PROG
  +--> ?PR?PRINTF?PRINTF
  +--> ?PR?_INGRESADATO?PROG
  +--> ?PR?_WR_EEPROM?EEPROM
  +--> ?PR?_RD_EEPROM?EEPROM

?PR?PROG_VALIDAR_TIPO_VEHICULO_MENSUA...         -----    -----      -----    -----      0046H    000CH
  +--> ?PR?_RD_EEPROM?EEPROM
  +--> ?CO?PROG
  +--> ?PR?PRINTF?PRINTF
  +--> ?PR?_INGRESADATO?PROG
  +--> ?PR?_ATOI?ATOI
  +--> ?PR?_WR_EEPROM?EEPROM

?PR?PROG_APB_MENSUAL?PROG                        -----    -----      -----    -----      0046H    000CH
  +--> ?PR?_RD_EEPROM?EEPROM
  +--> ?CO?PROG
  +--> ?PR?PRINTF?PRINTF
  +--> ?PR?_INGRESADATO?PROG
  +--> ?PR?_ATOI?ATOI
  +--> ?PR?_WR_EEPROM?EEPROM

?PR?VER_PROG?PROG                                -----    -----      -----    -----      0046H    0013H
  +--> ?PR?_RD_EEPROM?EEPROM
  +--> ?CO?PROG
  +--> ?PR?PRINTF?PRINTF
  +--> ?PR?VER_HORARIO?PROG
  +--> ?PR?_LEERMEMORIA?EEPROM
  +--> ?PR?_HEX_ASCII?CLOCK

?PR?VER_HORARIO?PROG                             -----    -----      -----    -----      0059H    001BH
  +--> ?PR?ADDR_HORARIOS?PROG
  +--> ?CO?PROG
  +--> ?PR?PRINTF?PRINTF
BL51 BANKED LINKER/LOCATER V6.22.2.0                                                  05/25/2021  12:30:00  PAGE 13


  +--> ?PR?_RD_EEPROM?EEPROM
  +--> ?PR?_VER_HORARIO_DIAS?PROG
  +--> ?PR?_VER_HORARIO_DESDE_HASTA?PROG

?PR?_VER_HORARIO_DIAS?PROG                       -----    -----      -----    -----      0074H    0003H
  +--> ?PR?_RD_EEPROM?EEPROM
  +--> ?CO?PROG
  +--> ?PR?PRINTF?PRINTF

?PR?_VER_HORARIO_DESDE_HASTA?PROG                -----    -----      -----    -----      0074H    0002H
  +--> ?CO?PROG
  +--> ?PR?PRINTF?PRINTF
  +--> ?PR?_RD_EEPROM?EEPROM

?PR?_HEX_ASCII?CLOCK                             -----    -----      -----    -----      005DH    0006H
  +--> ?PR?_HEX_BCD?CLOCK

?PR?SHOW?PROG                                    -----    -----      -----    -----      -----    -----
  +--> ?CO?PROG
  +--> ?PR?PRINTF?PRINTF

?PR?PROG_FECHA_VENCIMIENTO?PROG                  -----    -----      -----    -----      0046H    0017H
  +--> ?PR?_LEERMEMORIA?EEPROM
  +--> ?PR?_HEX_ASCII?CLOCK
  +--> ?CO?PROG
  +--> ?PR?PRINTF?PRINTF
  +--> ?PR?_HASH_ID?PROG
  +--> ?PR?_INGRESADATO?PROG
  +--> ?PR?_GETCMD?PROG
  +--> ?PR?_ESCRIBIRMEMORIA?EEPROM
  +--> ?PR?_VALIDARCLAVE?PROG
  +--> ?PR?_ATOI?ATOI
  +--> ?PR?_WR_EEPROM?EEPROM

?PR?VARIABLE_INICIO?MAIN                         -----    -----      -----    -----      -----    -----
  +--> ?PR?_RD_EEPROM?EEPROM

?PR?SECUENCIA_INICIO_EXPEDIDOR?VERIFI...         -----    -----      -----    -----      0001H    0001H
  +--> ?PR?_INICIALIZA?LINTECH
  +--> ?PR?TRAMA_VALIDACION_P_N?VERIFICADOR
  +--> ?CO?VERIFICADOR
  +--> ?PR?_DEBUG_TXT_TIBBO?TIBBO
  +--> ?PR?_DEBUGBUFFERMF?TIBBO
  +--> ?PR?DWLOAD_EEPROM?LINTECH

?PR?_INICIALIZA?LINTECH                          -----    -----      -----    -----      0002H    000CH
  +--> ?CO?LINTECH
  +--> ?PR?_DEBUG_TXT_TIBBO?TIBBO
  +--> ?PR?_DEBUGBUFFERMF?TIBBO
  +--> ?PR?_ESCRIBIRCADENASOFT_BUFFER?MAIN

?PR?_DEBUG_TXT_TIBBO?TIBBO                       -----    -----      -----    -----      004EH    0004H
  +--> ?PR?_DEBUG_CHR_TIBBO?TIBBO
  +--> ?CO?TIBBO
  +--> ?PR?_TX_AUX?TIBBO

?PR?_DEBUG_CHR_TIBBO?TIBBO                       -----    -----      -----    -----      -----    -----
BL51 BANKED LINKER/LOCATER V6.22.2.0                                                  05/25/2021  12:30:00  PAGE 14


  +--> ?PR?_TX_AUX?TIBBO

?PR?_DEBUGBUFFERMF?TIBBO                         -----    -----      -----    -----      0027H    0006H
  +--> ?CO?TIBBO
  +--> ?PR?_DEBUG_TXT_TIBBO?TIBBO
  +--> ?PR?_DEBUG_CHR_TIBBO?TIBBO
  +--> ?PR?_TX_AUX?TIBBO

?PR?_ESCRIBIRCADENASOFT_BUFFER?MAIN              -----    -----      -----    -----      0027H    0006H
  +--> ?PR?_PUTCHAR?MAIN

?PR?TRAMA_VALIDACION_P_N?VERIFICADOR             -----    -----      -----    -----      -----    -----
  +--> ?CO?VERIFICADOR
  +--> ?PR?_DEBUG_TXT_TIBBO?TIBBO

?PR?DWLOAD_EEPROM?LINTECH                        -----    -----      -----    -----      0002H    0016H
  +--> ?CO?LINTECH
  +--> ?PR?_DEBUG_TXT_TIBBO?TIBBO
  +--> ?PR?_DEBUGBUFFERMF?TIBBO
  +--> ?PR?_ESCRIBIRCADENASOFT_BUFFER?MAIN

?PR?RX_MONITOR?MONITOR                           -----    -----      -----    -----      0009H    000DH
  +--> ?PR?_RECIBE_CMD_MONITOR?MONITOR
  +--> ?PR?_DEBUG_MONITOR?TIBBO
  +--> ?PR?_VALIDA_TRAMA_MONITOR?MONITOR

?PR?_RECIBE_CMD_MONITOR?MONITOR                  -----    -----      -----    -----      0016H    0009H
  +--> ?PR?RX_DATA?TIBBO

?PR?RX_DATA?TIBBO                                -----    -----      -----    -----      -----    -----
  +--> ?PR?TIME_MBIT?TIBBO
  +--> ?PR?TIME_BIT?TIBBO

?PR?_DEBUG_MONITOR?TIBBO                         -----    -----      -----    -----      0016H    0004H
  +--> ?PR?DEBUG_DIVIDIR_TEXTO?TIBBO
  +--> ?CO?TIBBO
  +--> ?PR?_DEBUG_TXT_TIBBO?TIBBO

?PR?DEBUG_DIVIDIR_TEXTO?TIBBO                    -----    -----      -----    -----      -----    -----
  +--> ?CO?TIBBO
  +--> ?PR?_DEBUG_TXT_TIBBO?TIBBO

?PR?_VALIDA_TRAMA_MONITOR?MONITOR                -----    -----      -----    -----      0016H    0006H
  +--> ?PR?_DELAY_10MS?DELAY
  +--> ?PR?_TX_AUX?TIBBO

?PR?_DELAY_10MS?DELAY                            -----    -----      -----    -----      001CH    0004H
  +--> ?PR?_DELAY_1MS?DELAY

?PR?_SECUENCIAEXPEDIDORMF?VERIFICADOR            -----    -----      -----    -----      0001H    0001H
  +--> ?PR?_CHECK_STATUS?LINTECH
  +--> ?PR?_LOAD_SECUENCIA_EXPEDIDOR?VERIFIC...
  +--> ?PR?RX_MONITOR?MONITOR
  +--> ?PR?_RTA_CMD_TRANSPORTE?VERIFICADOR
  +--> ?PR?_MOV_CARD?LINTECH
  +--> ?PR?_CARD_INSERCION?LINTECH
  +--> ?PR?AUT_CARD_CHECK_STATUS?LINTECH
BL51 BANKED LINKER/LOCATER V6.22.2.0                                                  05/25/2021  12:30:00  PAGE 15


  +--> ?PR?LOADVERIFY_EEPROM?LINTECH
  +--> ?PR?_RD_MF?LINTECH
  +--> ?PR?_WR_MF?LINTECH
  +--> ?PR?ANALIZA_CARD_MOUNT_RF?VERIFICADOR
  +--> ?PR?DWLOAD_EEPROM?LINTECH
  +--> ?PR?ENTREGA_CARD_CAPTURA?VERIFICADOR
  +--> ?PR?_SEND_PTO_PARALELO?VERIFICADOR
  +--> ?PR?_WAIT_PLACA?VERIFICADOR
  +--> ?PR?UNIQUE_IDENTIFIER_UID?LINTECH
  +--> ?PR?_PREGUNTA_LPR?VERIFICADOR
  +--> ?PR?PREGUNTA_PLACA?VERIFICADOR
  +--> ?PR?_VALIDA_TIPO_TARJETA?VERIFICADOR
  +--> ?PR?POWER_OFF?LINTECH
  +--> ?PR?CLAVE_SEGURIDAD_S2?LINTECH
  +--> ?PR?_RESPONDE_REELECTURA_TARJETA_SECT...
  +--> ?PR?RESPONDE_ESTADO_SENSORES_TRANSPOR...
  +--> ?PR?RESPONDE_TIPO_TARJETA?VERIFICADOR
  +--> ?PR?_RESPONDE_LECTURA_TARJETA_SECTOR1...
  +--> ?PR?_RESPONDE_LECTURA_TARJETA_SECTOR1...
  +--> ?PR?_RESPONDE_LECTURA_TARJETA_SECTOR1...
  +--> ?PR?_RESPONDE_WRITE_TARJETA_SECTOR1_B...
  +--> ?PR?_RESPONDE_WRITE_TARJETA_SECTOR2_B...
  +--> ?PR?_RESPONDE_WRITE_TARJETA_SECTOR1_B...
  +--> ?PR?_RESPONDE_WRITE_TARJETA_SECTOR1_B...
  +--> ?PR?_DISPARO_LOCK_ENTRADA_VEHICULO?VE...
  +--> ?PR?_RESPUESTA_SEGUNDA_CLAVE?VERIFICADOR
  +--> ?PR?ANALIZA_PRESENCIA_MENSUAL?VERIFIC...
  +--> ?PR?_ANALIZA_UID_CARD?VERIFICADOR
  +--> ?PR?ANALIZA_PRESENCIA_ROTACION?VERIFI...
  +--> ?CO?VERIFICADOR
  +--> ?PR?_DEBUG_TXT_TIBBO?TIBBO

?PR?_CHECK_STATUS?LINTECH                        -----    -----      -----    -----      0002H    000BH
  +--> ?CO?LINTECH
  +--> ?PR?_DEBUG_TXT_TIBBO?TIBBO
  +--> ?PR?_DEBUGBUFFERMF?TIBBO
  +--> ?PR?_ESCRIBIRCADENASOFT_BUFFER?MAIN

?PR?_LOAD_SECUENCIA_EXPEDIDOR?VERIFIC...         -----    -----      -----    -----      0002H    0009H

?PR?_RTA_CMD_TRANSPORTE?VERIFICADOR              -----    -----      -----    -----      0002H    0005H
  +--> ?PR?TRAMA_VALIDACION_P_N?VERIFICADOR
  +--> ?CO?VERIFICADOR
  +--> ?PR?_DEBUG_TXT_TIBBO?TIBBO
  +--> ?PR?_DEBUGBUFFERMF?TIBBO
  +--> ?PR?ERROR_RX_PTO?VERIFICADOR

?PR?ERROR_RX_PTO?VERIFICADOR                     -----    -----      -----    -----      0007H    0001H
  +--> ?CO?VERIFICADOR
  +--> ?PR?_DEBUG_TXT_TIBBO?TIBBO
  +--> ?PR?_DEBUG_CHR_TIBBO?TIBBO
  +--> ?PR?_DELAY_10MS?DELAY

?PR?_MOV_CARD?LINTECH                            -----    -----      -----    -----      0002H    000CH
  +--> ?CO?LINTECH
  +--> ?PR?_DEBUG_TXT_TIBBO?TIBBO
  +--> ?PR?_DEBUGBUFFERMF?TIBBO
BL51 BANKED LINKER/LOCATER V6.22.2.0                                                  05/25/2021  12:30:00  PAGE 16


  +--> ?PR?_ESCRIBIRCADENASOFT_BUFFER?MAIN

?PR?_CARD_INSERCION?LINTECH                      -----    -----      -----    -----      0002H    000AH
  +--> ?CO?LINTECH
  +--> ?PR?_DEBUG_TXT_TIBBO?TIBBO
  +--> ?PR?_DEBUGBUFFERMF?TIBBO
  +--> ?PR?_ESCRIBIRCADENASOFT_BUFFER?MAIN

?PR?AUT_CARD_CHECK_STATUS?LINTECH                -----    -----      -----    -----      0002H    000BH
  +--> ?CO?LINTECH
  +--> ?PR?_DEBUG_TXT_TIBBO?TIBBO
  +--> ?PR?_DEBUGBUFFERMF?TIBBO
  +--> ?PR?_ESCRIBIRCADENASOFT_BUFFER?MAIN

?PR?LOADVERIFY_EEPROM?LINTECH                    -----    -----      -----    -----      0002H    0010H
  +--> ?CO?LINTECH
  +--> ?PR?_DEBUG_TXT_TIBBO?TIBBO
  +--> ?PR?_DEBUGBUFFERMF?TIBBO
  +--> ?PR?_ESCRIBIRCADENASOFT_BUFFER?MAIN

?PR?_RD_MF?LINTECH                               -----    -----      -----    -----      0002H    0012H
  +--> ?CO?LINTECH
  +--> ?PR?_DEBUG_TXT_TIBBO?TIBBO
  +--> ?PR?_DEBUG_CHR_TIBBO?TIBBO
  +--> ?PR?_DEBUGBUFFERMF?TIBBO
  +--> ?PR?_ESCRIBIRCADENASOFT_BUFFER?MAIN

?PR?_WR_MF?LINTECH                               -----    -----      -----    -----      0002H    0025H
  +--> ?CO?LINTECH
  +--> ?PR?_DEBUG_TXT_TIBBO?TIBBO
  +--> ?PR?_DEBUG_CHR_TIBBO?TIBBO
  +--> ?PR?_DEBUGBUFFERMF?TIBBO
  +--> ?PR?_ESCRIBIRCADENASOFT_BUFFER?MAIN

?PR?ANALIZA_CARD_MOUNT_RF?VERIFICADOR            -----    -----      -----    -----      0002H    0001H
  +--> ?CO?VERIFICADOR
  +--> ?PR?_DEBUG_TXT_TIBBO?TIBBO

?PR?ENTREGA_CARD_CAPTURA?VERIFICADOR             -----    -----      -----    -----      0002H    0001H
  +--> ?CO?VERIFICADOR
  +--> ?PR?_DEBUG_TXT_TIBBO?TIBBO
  +--> ?PR?SEL_SENSOR2?IO_SENSORES
  +--> ?PR?VALIDASENSOR?IO_SENSORES
  +--> ?PR?VALIDA_SENSOR1_AUTO?IO_SENSORES

?PR?VALIDA_SENSOR1_AUTO?IO_SENSORES              -----    -----      -----    -----      0011H    0001H
  +--> ?PR?SEL_SENSOR1?IO_SENSORES
  +--> ?PR?SEL_AUTO?IO_SENSORES
  +--> ?CO?IO_SENSORES
  +--> ?PR?_DEBUG_TXT_TIBBO?TIBBO
  +--> ?PR?BOTTON?IO_SENSORES

?PR?BOTTON?IO_SENSORES                           -----    -----      -----    -----      -----    -----
  +--> ?PR?SEL_PULSA?IO_SENSORES
  +--> ?CO?IO_SENSORES
  +--> ?PR?_DEBUG_TXT_TIBBO?TIBBO

BL51 BANKED LINKER/LOCATER V6.22.2.0                                                  05/25/2021  12:30:00  PAGE 17


?PR?_SEND_PTO_PARALELO?VERIFICADOR               -----    -----      -----    -----      0002H    0004H
  +--> ?PR?_ARMAR_TRAMA_PTO_PARALELO_EXPEDID...
  +--> ?PR?_ARMAR_TRAMA_PTO_PARALELO_EXPEDID...
  +--> ?PR?INCREMENTE_TICKET?EEPROM
  +--> ?PR?_SEND_PORT?PTO_PARALELO
  +--> ?CO?VERIFICADOR
  +--> ?PR?_DEBUG_TXT_TIBBO?TIBBO
  +--> ?PR?_DEBUGBUFFERMF?TIBBO
  +--> ?PR?CLEAR_PLACA?MONITOR

?PR?_ARMAR_TRAMA_PTO_PARALELO_EXPEDID...         -----    -----      -----    -----      0006H    0006H
  +--> ?PR?_BLOCK_READ_CLOCK_HEX?CLOCK
  +--> ?PR?_RD_EEPROM?EEPROM

?PR?_ARMAR_TRAMA_PTO_PARALELO_EXPEDID...         -----    -----      -----    -----      0006H    000FH
  +--> ?PR?LEE_NO_TICKET?EEPROM
  +--> ?PR?_STRCAT?STRCAT
  +--> ?PR?_STRLEN?STRLEN
  +--> ?PR?_BLOCK_READ_CLOCK_HEX?CLOCK
  +--> ?PR?_RD_EEPROM?EEPROM

?PR?LEE_NO_TICKET?EEPROM                         -----    -----      -----    -----      0043H    000BH
  +--> ?PR?READ_EEPROM_TICKET?EEPROM
  +--> ?CO?EEPROM
  +--> ?PR?PRINTF?PRINTF
  +--> ?PR?_STRLEN?STRLEN
  +--> ?PR?_DEBUG_TXT_TIBBO?TIBBO

?PR?READ_EEPROM_TICKET?EEPROM                    -----    -----      -----    -----      004EH    0007H
  +--> ?PR?_RD_EEPROM?EEPROM

?PR?INCREMENTE_TICKET?EEPROM                     -----    -----      -----    -----      0006H    000BH
  +--> ?PR?READ_EEPROM_TICKET?EEPROM
  +--> ?CO?EEPROM
  +--> ?PR?PRINTF?PRINTF
  +--> ?PR?_WRITE_EEPROM_TICKET?EEPROM

?PR?_WRITE_EEPROM_TICKET?EEPROM                  -----    -----      -----    -----      0015H    000BH
  +--> ?CO?EEPROM
  +--> ?PR?_DEBUG_TXT_TIBBO?TIBBO
  +--> ?PR?_ATOL?ATOL
  +--> ?PR?_DEBUG_CHR_TIBBO?TIBBO
  +--> ?PR?_WR_EEPROM?EEPROM

?PR?_ATOL?ATOL                                   0020H.0  0000H.1    -----    -----      0020H    0007H
  +--> ?PR?_ISSPACE?ISSPACE
  +--> ?PR?_ISDIGIT?ISDIGIT

?PR?_SEND_PORT?PTO_PARALELO                      -----    -----      -----    -----      0016H    000AH
  +--> ?PR?PULSO_BUS?PTO_PARALELO
  +--> ?PR?_DELAY_20US?DELAY

?PR?PULSO_BUS?PTO_PARALELO                       -----    -----      -----    -----      -----    -----
  +--> ?PR?_DELAY_20US?DELAY

?PR?_WAIT_PLACA?VERIFICADOR                      -----    -----      -----    -----      0002H    0007H
  +--> ?CO?VERIFICADOR
BL51 BANKED LINKER/LOCATER V6.22.2.0                                                  05/25/2021  12:30:00  PAGE 18


  +--> ?PR?_DEBUG_TXT_TIBBO?TIBBO
  +--> ?PR?RX_MONITOR?MONITOR
  +--> ?PR?_RESPUESTA_PLACA_CANCEL?VERIFICADOR

?PR?_RESPUESTA_PLACA_CANCEL?VERIFICADOR          -----    -----      -----    -----      0009H    000AH
  +--> ?CO?VERIFICADOR
  +--> ?PR?_DEBUG_TXT_TIBBO?TIBBO
  +--> ?PR?_ARMAR_TRAMA_TARJETA_SECTOR1_BLOQ...

?PR?_ARMAR_TRAMA_TARJETA_SECTOR1_BLOQ...         -----    -----      -----    -----      0013H    0004H
  +--> ?PR?CLEAR_PLACA?MONITOR
  +--> ?PR?_RD_EEPROM?EEPROM

?PR?UNIQUE_IDENTIFIER_UID?LINTECH                -----    -----      -----    -----      0002H    000BH
  +--> ?CO?LINTECH
  +--> ?PR?_DEBUG_TXT_TIBBO?TIBBO
  +--> ?PR?_DEBUGBUFFERMF?TIBBO
  +--> ?PR?_ESCRIBIRCADENASOFT_BUFFER?MAIN

?PR?_PREGUNTA_LPR?VERIFICADOR                    -----    -----      -----    -----      0002H    0003H
  +--> ?CO?VERIFICADOR
  +--> ?PR?_DEBUG_TXT_TIBBO?TIBBO
  +--> ?PR?_RD_EEPROM?EEPROM
  +--> ?PR?_ARMAR_TRAMA_MONITOR?VERIFICADOR

?PR?_ARMAR_TRAMA_MONITOR?VERIFICADOR             -----    -----      -----    -----      0005H    000FH
  +--> ?PR?DIR_BOARD_MONITOR?IO_SENSORES
  +--> ?PR?LEE_NO_TICKET?EEPROM
  +--> ?PR?_STRCAT?STRCAT
  +--> ?PR?_BYTEHEX_DECIMAL?CLOCK
  +--> ?PR?_STRLEN?STRLEN
  +--> ?PR?_TWO_BYTEHEX_DECIMAL?CLOCK
  +--> ?PR?_BLOCK_READ_CLOCK_ASCII?CLOCK

?PR?DIR_BOARD_MONITOR?IO_SENSORES                -----    -----      -----    -----      -----    -----
  +--> ?PR?_RD_EEPROM?EEPROM

?PR?_BYTEHEX_DECIMAL?CLOCK                       -----    -----      -----    -----      0014H    0001H

?PR?_TWO_BYTEHEX_DECIMAL?CLOCK                   -----    -----      -----    -----      0014H    000CH
  +--> ?PR?_POW?POW

?PR?_POW?POW                                     -----    -----      -----    -----      0020H    000AH
  +--> ?PR?LOG?LOG
  +--> ?PR?EXP?EXP

?PR?LOG?LOG                                      0020H.0  0000H.1    -----    -----      002AH    0004H

?PR?PREGUNTA_PLACA?VERIFICADOR                   -----    -----      -----    -----      0002H    0001H
  +--> ?CO?VERIFICADOR
  +--> ?PR?_DEBUG_TXT_TIBBO?TIBBO
  +--> ?PR?_RD_EEPROM?EEPROM

?PR?_VALIDA_TIPO_TARJETA?VERIFICADOR             -----    -----      -----    -----      0002H    0007H
  +--> ?CO?VERIFICADOR
  +--> ?PR?_DEBUG_TXT_TIBBO?TIBBO
  +--> ?PR?_RD_EEPROM?EEPROM
BL51 BANKED LINKER/LOCATER V6.22.2.0                                                  05/25/2021  12:30:00  PAGE 19


  +--> ?PR?_TARJETA_MENSUAL?VERIFICADOR
  +--> ?PR?_SEND_PORTERR?PTO_PARALELO
  +--> ?PR?_PANTALLALCD?PANTALLAS
  +--> ?PR?CAPTURA_EXPULSA?VERIFICADOR
  +--> ?PR?_TARJETA_ROTACION?VERIFICADOR

?PR?_TARJETA_MENSUAL?VERIFICADOR                 -----    -----      -----    -----      0009H    0007H
  +--> ?PR?_HORARIOS?VERIFICADOR
  +--> ?PR?_CHECK_FECHAOUT?CLOCK
  +--> ?PR?_VALIDA_VEHICULO_CARD_MENSUAL?VER...
  +--> ?PR?CAPTURA_EXPULSA?VERIFICADOR
  +--> ?CO?VERIFICADOR
  +--> ?PR?_DEBUG_TXT_TIBBO?TIBBO
  +--> ?PR?_ARMAR_TRAMA_TARJETA_SECTOR1_BLOQ...
  +--> ?PR?_SEND_PORTERR?PTO_PARALELO
  +--> ?PR?_PANTALLALCD?PANTALLAS

?PR?_HORARIOS?VERIFICADOR                        -----    -----      -----    -----      0010H    0013H
  +--> ?PR?ADDR_HORARIOS?PROG
  +--> ?PR?_RD_EEPROM?EEPROM
  +--> ?PR?_LEE_CLK?CLOCK
  +--> ?CO?VERIFICADOR
  +--> ?PR?_DEBUG_TXT_TIBBO?TIBBO
  +--> ?PR?_DEBUG_CHR_TIBBO?TIBBO
  +--> ?PR?_BLOQUE_HORARIO?VERIFICADOR
  +--> ?PR?_PANTALLALCD?PANTALLAS

?PR?_BLOQUE_HORARIO?VERIFICADOR                  -----    -----      -----    -----      0023H    0007H
  +--> ?CO?VERIFICADOR
  +--> ?PR?_DEBUG_TXT_TIBBO?TIBBO
  +--> ?PR?_LEE_CLK?CLOCK
  +--> ?PR?_DEBUG_CHR_TIBBO?TIBBO
  +--> ?PR?_HORA_MAXIMA?VERIFICADOR
  +--> ?PR?_EN_HORARIO?VERIFICADOR
  +--> ?PR?_RD_EEPROM?EEPROM
  +--> ?PR?_SEND_PORTERR?PTO_PARALELO
  +--> ?PR?_PANTALLALCD?PANTALLAS

?PR?_HORA_MAXIMA?VERIFICADOR                     -----    -----      -----    -----      002FH    0008H
  +--> ?PR?_RD_EEPROM?EEPROM
  +--> ?PR?_DEBUG_CHR_TIBBO?TIBBO
  +--> ?CO?VERIFICADOR
  +--> ?PR?_DEBUG_TXT_TIBBO?TIBBO

?PR?_EN_HORARIO?VERIFICADOR                      -----    -----      -----    -----      002AH    0005H
  +--> ?CO?VERIFICADOR
  +--> ?PR?_DEBUG_TXT_TIBBO?TIBBO
  +--> ?PR?_HORA_MAXIMA?VERIFICADOR

?PR?_SEND_PORTERR?PTO_PARALELO                   -----    -----      -----    -----      002AH    0006H
  +--> ?PR?PULSO_BUS?PTO_PARALELO
  +--> ?PR?_DELAY_20US?DELAY

?PR?_PANTALLALCD?PANTALLAS                       -----    -----      -----    -----      002AH    000AH
  +--> ?CO?PANTALLAS
  +--> ?PR?_LCD_TXT?PANTALLAS
  +--> ?PR?_STRLEN?STRLEN
BL51 BANKED LINKER/LOCATER V6.22.2.0                                                  05/25/2021  12:30:00  PAGE 20


  +--> ?PR?_TX_CHRLCD?PANTALLAS
  +--> ?PR?_RASPBERRY_DATA?PANTALLAS

?PR?_LCD_TXT?PANTALLAS                           -----    -----      -----    -----      0043H    0005H
  +--> ?PR?_TX_CHRLCD?PANTALLAS

?PR?_TX_CHRLCD?PANTALLAS                         -----    -----      -----    -----      0048H    0002H
  +--> ?PR?_PUTCHAR?MAIN

?PR?_RASPBERRY_DATA?PANTALLAS                    -----    -----      -----    -----      0043H    0006H
  +--> ?PR?_STRLEN?STRLEN
  +--> ?PR?_PUTCHAR?MAIN

?PR?_VALIDA_VEHICULO_CARD_MENSUAL?VER...         -----    -----      -----    -----      0010H    0004H
  +--> ?CO?VERIFICADOR
  +--> ?PR?_DEBUG_TXT_TIBBO?TIBBO
  +--> ?PR?_RD_EEPROM?EEPROM
  +--> ?PR?_SEND_PORTERR?PTO_PARALELO

?PR?_ARMAR_TRAMA_TARJETA_SECTOR1_BLOQ...         -----    -----      -----    -----      0010H    0006H
  +--> ?PR?_BLOCK_READ_CLOCK_HEX?CLOCK
  +--> ?PR?DIR_BOARD?IO_SENSORES

?PR?DIR_BOARD?IO_SENSORES                        -----    -----      -----    -----      0032H    0001H
  +--> ?PR?SEL_DIR1?IO_SENSORES
  +--> ?PR?SEL_DIR2?IO_SENSORES
  +--> ?PR?_RD_EEPROM?EEPROM

?PR?_TARJETA_ROTACION?VERIFICADOR                -----    -----      -----    -----      0009H    0006H
  +--> ?PR?_ARMAR_TRAMA_TARJETA_SECTOR1_BLOQ...

?PR?POWER_OFF?LINTECH                            -----    -----      -----    -----      0002H    000BH
  +--> ?CO?LINTECH
  +--> ?PR?_DEBUG_TXT_TIBBO?TIBBO
  +--> ?PR?_DEBUGBUFFERMF?TIBBO
  +--> ?PR?_ESCRIBIRCADENASOFT_BUFFER?MAIN

?PR?CLAVE_SEGURIDAD_S2?LINTECH                   -----    -----      -----    -----      0002H    0016H
  +--> ?CO?LINTECH
  +--> ?PR?_DEBUG_TXT_TIBBO?TIBBO
  +--> ?PR?_DEBUGBUFFERMF?TIBBO
  +--> ?PR?_ESCRIBIRCADENASOFT_BUFFER?MAIN

?PR?_RESPONDE_REELECTURA_TARJETA_SECT...         -----    -----      -----    -----      0002H    000AH
  +--> ?CO?VERIFICADOR
  +--> ?PR?_DEBUG_TXT_TIBBO?TIBBO
  +--> ?PR?_DEBUGBUFFERMF?TIBBO
  +--> ?PR?_ARMAR_TRAMA_TARJETA_SECTOR1_BLOQ...

?PR?_ARMAR_TRAMA_TARJETA_SECTOR1_BLOQ...         -----    -----      -----    -----      000CH    0003H
  +--> ?PR?LEE_NO_TICKET?EEPROM

?PR?RESPONDE_ESTADO_SENSORES_TRANSPOR...         -----    -----      -----    -----      0002H    0001H
  +--> ?CO?VERIFICADOR
  +--> ?PR?_DEBUG_TXT_TIBBO?TIBBO
  +--> ?PR?_SEND_PORTERR?PTO_PARALELO
  +--> ?PR?INGRESO_VEHICULO?VERIFICADOR
BL51 BANKED LINKER/LOCATER V6.22.2.0                                                  05/25/2021  12:30:00  PAGE 21



?PR?INGRESO_VEHICULO?VERIFICADOR                 -----    -----      -----    -----      -----    -----
  +--> ?PR?VALIDASENSORESPASO?IO_SENSORES
  +--> ?PR?_RD_EEPROM?EEPROM
  +--> ?CO?VERIFICADOR
  +--> ?PR?_DEBUG_TXT_TIBBO?TIBBO
  +--> ?PR?_PANTALLALCD?PANTALLAS
  +--> ?PR?BOTTON?IO_SENSORES

?PR?VALIDASENSORESPASO?IO_SENSORES               -----    -----      -----    -----      0010H    0001H
  +--> ?PR?SEL_SENSOR2?IO_SENSORES
  +--> ?PR?VALIDASENSOR?IO_SENSORES
  +--> ?PR?VALIDA_SENSOR1_AUTO?IO_SENSORES
  +--> ?CO?IO_SENSORES
  +--> ?PR?_DEBUG_TXT_TIBBO?TIBBO

?PR?RESPONDE_TIPO_TARJETA?VERIFICADOR            -----    -----      -----    -----      0002H    0001H
  +--> ?CO?VERIFICADOR
  +--> ?PR?_DEBUG_TXT_TIBBO?TIBBO
  +--> ?PR?_SEND_PORTERR?PTO_PARALELO
  +--> ?PR?_PANTALLALCD?PANTALLAS
  +--> ?PR?CAPTURA_EXPULSA?VERIFICADOR

?PR?_RESPONDE_LECTURA_TARJETA_SECTOR1...         -----    -----      -----    -----      0002H    0016H
  +--> ?CO?VERIFICADOR
  +--> ?PR?_DEBUG_TXT_TIBBO?TIBBO
  +--> ?PR?_DEBUGBUFFERMF?TIBBO
  +--> ?PR?_RD_EEPROM?EEPROM
  +--> ?PR?_DEBUG_HEXDEC?TIBBO
  +--> ?PR?_DEBUG_CHR_TIBBO?TIBBO
  +--> ?PR?_SEND_PORTERR?PTO_PARALELO
  +--> ?PR?_PANTALLALCD?PANTALLAS
  +--> ?PR?CAPTURA_EXPULSA?VERIFICADOR

?PR?_DEBUG_HEXDEC?TIBBO                          -----    -----      -----    -----      0018H    0002H
  +--> ?PR?_TX_AUX?TIBBO

?PR?_RESPONDE_LECTURA_TARJETA_SECTOR1...         -----    -----      -----    -----      0002H    0004H
  +--> ?CO?VERIFICADOR
  +--> ?PR?_DEBUG_TXT_TIBBO?TIBBO
  +--> ?PR?CAPTURA_EXPULSA?VERIFICADOR

?PR?_RESPONDE_LECTURA_TARJETA_SECTOR1...         -----    -----      -----    -----      0002H    0015H
  +--> ?CO?VERIFICADOR
  +--> ?PR?_DEBUG_TXT_TIBBO?TIBBO
  +--> ?PR?_DEBUGBUFFERMF?TIBBO
  +--> ?PR?_DEBUG_CHR_TIBBO?TIBBO
  +--> ?PR?CAPTURA_EXPULSA?VERIFICADOR

?PR?_RESPONDE_WRITE_TARJETA_SECTOR1_B...         -----    -----      -----    -----      0002H    0007H
  +--> ?CO?VERIFICADOR
  +--> ?PR?_DEBUG_TXT_TIBBO?TIBBO
  +--> ?PR?_DEBUGBUFFERMF?TIBBO

?PR?_RESPONDE_WRITE_TARJETA_SECTOR2_B...         -----    -----      -----    -----      0002H    0003H
  +--> ?CO?VERIFICADOR
  +--> ?PR?_DEBUG_TXT_TIBBO?TIBBO
BL51 BANKED LINKER/LOCATER V6.22.2.0                                                  05/25/2021  12:30:00  PAGE 22


  +--> ?PR?_DEBUGBUFFERMF?TIBBO

?PR?_RESPONDE_WRITE_TARJETA_SECTOR1_B...         -----    -----      -----    -----      0002H    0003H
  +--> ?CO?VERIFICADOR
  +--> ?PR?_DEBUG_TXT_TIBBO?TIBBO
  +--> ?PR?_DEBUGBUFFERMF?TIBBO

?PR?_RESPONDE_WRITE_TARJETA_SECTOR1_B...         -----    -----      -----    -----      0002H    0003H
  +--> ?CO?VERIFICADOR
  +--> ?PR?_DEBUG_TXT_TIBBO?TIBBO
  +--> ?PR?_DEBUGBUFFERMF?TIBBO

?PR?_DISPARO_LOCK_ENTRADA_VEHICULO?VE...         -----    -----      -----    -----      0002H    0004H
  +--> ?CO?VERIFICADOR
  +--> ?PR?_DEBUG_TXT_TIBBO?TIBBO
  +--> ?PR?_SEND_PORTERR?PTO_PARALELO
  +--> ?PR?_PANTALLALCD_LINEA_2?PANTALLAS
  +--> ?PR?VALIDA_SENSOR1_AUTO?IO_SENSORES
  +--> ?PR?_PANTALLALCD?PANTALLAS

?PR?_PANTALLALCD_LINEA_2?PANTALLAS               -----    -----      -----    -----      0010H    0033H
  +--> ?CO?PANTALLAS
  +--> ?PR?_LCD_TXT?PANTALLAS
  +--> ?PR?_STRLEN?STRLEN
  +--> ?PR?_TX_CHRLCD?PANTALLAS
  +--> ?PR?_RASPBERRY_DATA?PANTALLAS
  +--> ?PR?LEE_NO_TICKET?EEPROM
  +--> ?PR?_STRCAT?STRCAT

?PR?_RESPUESTA_SEGUNDA_CLAVE?VERIFICADOR         -----    -----      -----    -----      0002H    0006H
  +--> ?CO?VERIFICADOR
  +--> ?PR?_DEBUG_TXT_TIBBO?TIBBO
  +--> ?PR?_DEBUGBUFFERMF?TIBBO
  +--> ?PR?_ARMAR_TRAMA_PLACA?VERIFICADOR

?PR?_ARMAR_TRAMA_PLACA?VERIFICADOR               -----    -----      -----    -----      0008H    0003H
  +--> ?PR?_STRLEN?STRLEN

?PR?ANALIZA_PRESENCIA_MENSUAL?VERIFIC...         -----    -----      -----    -----      0002H    0001H
  +--> ?PR?VALIDASENSORESPASO?IO_SENSORES
  +--> ?PR?_SEND_PORTERR?PTO_PARALELO
  +--> ?PR?_PANTALLALCD?PANTALLAS

?PR?_ANALIZA_UID_CARD?VERIFICADOR                -----    -----      -----    -----      0002H    0015H
  +--> ?CO?VERIFICADOR
  +--> ?PR?_DEBUG_TXT_TIBBO?TIBBO
  +--> ?PR?_DEBUGBUFFERMF?TIBBO
  +--> ?PR?_DEBUG_CHR_TIBBO?TIBBO

?PR?ANALIZA_PRESENCIA_ROTACION?VERIFI...         -----    -----      -----    -----      0002H    0001H
  +--> ?PR?VALIDASENSORESPASO?IO_SENSORES
  +--> ?PR?_SEND_PORTERR?PTO_PARALELO
  +--> ?PR?_PANTALLALCD?PANTALLAS

?PR?_RECIBE_PORT?PTO_PARALELO                    -----    -----      -----    -----      0001H    0008H
  +--> ?PR?OFF_TIMER0_INTERRUP?MAIN
  +--> ?PR?ON_TIMER0_INTERRUP?MAIN
BL51 BANKED LINKER/LOCATER V6.22.2.0                                                  05/25/2021  12:30:00  PAGE 23



?PR?_DEBUG_PTO_PARALELO?TIBBO                    -----    -----      -----    -----      0001H    0004H
  +--> ?CO?TIBBO
  +--> ?PR?_DEBUG_TXT_TIBBO?TIBBO
  +--> ?PR?_DEBUGBUFFERMF?TIBBO
  +--> ?PR?DEBUG_DIVIDIR_TEXTO?TIBBO

?PR?_VALIDA_TRAMA_PTO?ACCESCAN                   -----    -----      -----    -----      0001H    000FH
  +--> ?PR?_VALIDAR_CLK?CLOCK
  +--> ?PR?_BLOCK_WRITE_CLOCK_ASCII?CLOCK
  +--> ?PR?RELOJ_PANTALLA_LCD?PANTALLAS
  +--> ?PR?_PANTALLALCD?PANTALLAS
  +--> ?CO?ACCESCAN
  +--> ?PR?_DEBUG_TXT_TIBBO?TIBBO
  +--> ?PR?_BYTEHEX_DECIMAL?CLOCK
  +--> ?PR?_TWO_BYTEHEX_DECIMAL?CLOCK
  +--> ?PR?VALIDASENSORESPASO?IO_SENSORES
  +--> ?PR?_CMD_LPR_SALIDA_WIEGAND?ACCESCAN
  +--> ?PR?_PANTALLALCD_LINEA_2?PANTALLAS
  +--> ?PR?_GRABA_SERIE?EEPROM

?PR?_BLOCK_WRITE_CLOCK_ASCII?CLOCK               -----    -----      -----    -----      0010H    0003H
  +--> ?CO?CLOCK
  +--> ?PR?_DEBUG_TXT_TIBBO?TIBBO
  +--> ?PR?_TWO_ONE?CLOCK
  +--> ?PR?_WR_CLK?CLOCK

?PR?_WR_CLK?CLOCK                                -----    -----      -----    -----      0013H    0002H
  +--> ?PR?_DELAY_20US?DELAY
  +--> ?PR?_EB_CLK?CLOCK

?PR?RELOJ_PANTALLA_LCD?PANTALLAS                 -----    -----      -----    -----      0010H    000DH
  +--> ?CO?PANTALLAS
  +--> ?PR?_BLOCK_READ_CLOCK?CLOCK
  +--> ?PR?_LCD_TXT_NUM_CHAR?PANTALLAS
  +--> ?PR?_BLOCK_READ_CLOCK_ASCII_RASBERRY?...
  +--> ?PR?_STRCAT?STRCAT
  +--> ?PR?_RASPBERRY_DATA?PANTALLAS

?PR?_BLOCK_READ_CLOCK?CLOCK                      -----    -----      -----    -----      001DH    0003H
  +--> ?PR?_LEE_CLK?CLOCK

?PR?_LCD_TXT_NUM_CHAR?PANTALLAS                  -----    -----      -----    -----      001DH    0006H
  +--> ?PR?_TX_CHRLCD?PANTALLAS

?PR?_BLOCK_READ_CLOCK_ASCII_RASBERRY?...         -----    -----      -----    -----      001DH    0003H
  +--> ?PR?_LEE_CLK?CLOCK

?PR?_CMD_LPR_SALIDA_WIEGAND?ACCESCAN             -----    -----      -----    -----      0010H    0022H
  +--> ?PR?DIR_BOARD?IO_SENSORES
  +--> ?PR?_BLOCK_READ_CLOCK_ASCII?CLOCK
  +--> ?PR?_MONITOR_CHR?ACCESCAN

?PR?_MONITOR_CHR?ACCESCAN                        -----    -----      -----    -----      0032H    0005H
  +--> ?PR?_TX_AUX?TIBBO

?PR?_GRABA_SERIE?EEPROM                          -----    -----      -----    -----      0010H    0005H
BL51 BANKED LINKER/LOCATER V6.22.2.0                                                  05/25/2021  12:30:00  PAGE 24


  +--> ?CO?EEPROM
  +--> ?PR?_DEBUG_TXT_TIBBO?TIBBO
  +--> ?PR?_WRITE_EEPROM_TICKET?EEPROM
  +--> ?PR?_WR_EEPROM?EEPROM

?PR?MSJ_LCD_INFORMATIVO?IO_SENSORES              -----    -----      -----    -----      0001H    0001H
  +--> ?PR?SEL_FUNCION?IO_SENSORES
  +--> ?PR?VALIDASENSOR_CERO?IO_SENSORES
  +--> ?PR?LOAD_AND_SEND_INFO_RELOJ?PTO_PARA...
  +--> ?PR?VALIDASENSOR?IO_SENSORES
  +--> ?PR?_DELAY_10MS?DELAY
  +--> ?PR?LOAD_AND_SEND_ID_COD?PTO_PARALELO

?PR?LOAD_AND_SEND_INFO_RELOJ?PTO_PARA...         -----    -----      -----    -----      0002H    000BH
  +--> ?PR?_BLOCK_READ_CLOCK?CLOCK
  +--> ?PR?_LEE_CLK?CLOCK
  +--> ?CO?PTO_PARALELO
  +--> ?PR?_DEBUG_TXT_TIBBO?TIBBO
  +--> ?PR?_DEBUGBUFFERMF?TIBBO
  +--> ?PR?DEBUG_DIVIDIR_TEXTO?TIBBO
  +--> ?PR?_SEND_PORT?PTO_PARALELO

?PR?LOAD_AND_SEND_ID_COD?PTO_PARALELO            -----    -----      -----    -----      0002H    0014H
  +--> ?PR?_RD_EEPROM?EEPROM
  +--> ?CO?PTO_PARALELO
  +--> ?PR?PRINTF?PRINTF
  +--> ?PR?_STRCAT?STRCAT
  +--> ?PR?_STRLEN?STRLEN
  +--> ?PR?_DEBUG_TXT_TIBBO?TIBBO
  +--> ?PR?_DEBUGBUFFERMF?TIBBO
  +--> ?PR?DEBUG_DIVIDIR_TEXTO?TIBBO
  +--> ?PR?_SEND_PORT?PTO_PARALELO



SYMBOL TABLE OF MODULE:  .\Objects\expedidor_v_01_raspberry (MAIN)

  VALUE           TYPE          NAME
  ----------------------------------

  -------         MODULE        MAIN
  C:0000H         SYMBOL        _ICE_DUMMY_
  D:0080H         PUBLIC        P0
  D:0090H         PUBLIC        P1
  C:B8B0H         PUBLIC        timer0_int
  D:00B0H         PUBLIC        P3
  B:00A8H.7       PUBLIC        EA
  C:BCF6H         PUBLIC        off_Timer0_Interrup
  X:016CH         PUBLIC        ValTimeOutCom
  X:016DH         PUBLIC        Buffer_Rta_Lintech
  X:019FH         PUBLIC        Timer_wait
  B:0021H.1       PUBLIC        pto_paraleo
  X:01A0H         PUBLIC        g_cContByteRx
  B:0080H.0       PUBLIC        rx_ip
  C:A80EH         PUBLIC        main
  X:01A1H         PUBLIC        Timer_tivo
  B:0080H.3       PUBLIC        Atascado_GP0_PIN_3
BL51 BANKED LINKER/LOCATER V6.22.2.0                                                  05/25/2021  12:30:00  PAGE 25


  C:AF2BH         PUBLIC        variable_inicio
  B:0090H.7       PUBLIC        lock
  I:0023H         PUBLIC        rbuf
  C:BCE7H         PUBLIC        on_Timer0_Interrup
  I:0055H         PUBLIC        tbuf
  B:0090H.1       PUBLIC        DataIn
  D:0089H         PUBLIC        TMOD
  X:01A3H         PUBLIC        USE_LPR
  X:01A4H         PUBLIC        Debug_Tibbo
  X:01A5H         PUBLIC        Raspberry
  X:01A6H         PUBLIC        SIN_COBRO
  X:01A8H         PUBLIC        Tipo_Vehiculo
  B:00B0H.3       PUBLIC        busy
  C:BC48H         PUBLIC        ini_timer
  B:00A8H.1       PUBLIC        ET0
  B:0088H.5       PUBLIC        TF0
  D:008CH         PUBLIC        TH0
  X:01A9H         PUBLIC        ACK
  X:01AAH         PUBLIC        g_cEstadoComSoft
  D:008AH         PUBLIC        TL0
  B:0088H.4       PUBLIC        TR0
  C:BC58H         PUBLIC        inicia_board
  X:01ABH         PUBLIC        T_GRACIA
  B:0080H.7       PUBLIC        sel_com
  X:01ADH         PUBLIC        STX_LINTECH
  C:BC77H         PUBLIC        _getkey
  X:01AEH         PUBLIC        ETX
  C:B1C7H         PUBLIC        _EscribirCadenaSoft_buffer
  B:0021H.2       PUBLIC        buffer_ready
  C:B4E9H         PUBLIC        _putchar
  B:0021H.3       PUBLIC        placa_ready
  -------         PROC          TIMER0_INT
  C:B8B0H         LINE#         16
  C:B8B6H         LINE#         19
  C:B8BCH         LINE#         20
  C:B8C1H         LINE#         21
  C:B8C1H         LINE#         22
  C:B8C7H         LINE#         23
  C:B8C7H         LINE#         25
  C:B8D5H         LINE#         26
  C:B8D7H         LINE#         28
  -------         ENDPROC       TIMER0_INT
  -------         PROC          INI_TIMER
  C:BC48H         LINE#         31
  C:BC48H         LINE#         32
  C:BC48H         LINE#         34
  C:BC50H         LINE#         36
  C:BC53H         LINE#         37
  C:BC55H         LINE#         38
  C:BC57H         LINE#         40
  -------         ENDPROC       INI_TIMER
  -------         PROC          ON_TIMER0_INTERRUP
  C:BCE7H         LINE#         43
  C:BCE7H         LINE#         44
  C:BCE7H         LINE#         45
  C:BCE9H         LINE#         46
  C:BCEBH         LINE#         48
BL51 BANKED LINKER/LOCATER V6.22.2.0                                                  05/25/2021  12:30:00  PAGE 26


  -------         ENDPROC       ON_TIMER0_INTERRUP
  -------         PROC          OFF_TIMER0_INTERRUP
  C:BCF6H         LINE#         51
  C:BCF6H         LINE#         52
  C:BCF6H         LINE#         53
  C:BCF8H         LINE#         55
  -------         ENDPROC       OFF_TIMER0_INTERRUP
  -------         PROC          _GETKEY
  -------         DO            
  D:0006H         SYMBOL        k
  -------         ENDDO         
  C:BC77H         LINE#         63
  C:BC77H         LINE#         64
  C:BC77H         LINE#         68
  C:BC77H         LINE#         69
  C:BC7AH         LINE#         70
  C:BC7AH         LINE#         71
  C:BC82H         LINE#         73
  C:BC82H         LINE#         74
  -------         ENDPROC       _GETKEY
  -------         PROC          _PUTCHAR
  X:00A7H         SYMBOL        c
  -------         DO            
  X:00A8H         SYMBOL        i
  -------         ENDDO         
  C:B4E9H         LINE#         78
  C:B4EEH         LINE#         79
  C:B4EEH         LINE#         82
  C:B4FDH         LINE#         83
  C:B4FDH         LINE#         84
  C:B513H         LINE#         85
  C:B513H         LINE#         87
  C:B521H         LINE#         88
  C:B521H         LINE#         90
  C:B526H         LINE#         91
  -------         ENDPROC       _PUTCHAR
  -------         PROC          _ESCRIBIRCADENASOFT_BUFFER
  X:0027H         SYMBOL        buffer
  X:002AH         SYMBOL        tamano_cadena
  -------         DO            
  X:002BH         SYMBOL        i
  X:002CH         SYMBOL        d
  -------         ENDDO         
  C:B1C7H         LINE#         95
  C:B1D5H         LINE#         96
  C:B1D5H         LINE#         98
  C:B1E3H         LINE#         99
  C:B1E3H         LINE#         100
  C:B1FAH         LINE#         101
  C:B204H         LINE#         102
  C:B20CH         LINE#         103
  -------         ENDPROC       _ESCRIBIRCADENASOFT_BUFFER
  -------         PROC          INICIA_BOARD
  C:BC58H         LINE#         108
  C:BC58H         LINE#         109
  C:BC58H         LINE#         110
  C:BC5BH         LINE#         111
BL51 BANKED LINKER/LOCATER V6.22.2.0                                                  05/25/2021  12:30:00  PAGE 27


  C:BC5EH         LINE#         112
  C:BC61H         LINE#         113
  C:BC63H         LINE#         114
  C:BC65H         LINE#         115
  C:BC67H         LINE#         117
  -------         ENDPROC       INICIA_BOARD
  -------         PROC          VARIABLE_INICIO
  C:AF2BH         LINE#         122
  C:AF2BH         LINE#         123
  C:AF2BH         LINE#         126
  C:AF3CH         LINE#         127
  C:AF4DH         LINE#         128
  C:AF5BH         LINE#         129
  C:AF69H         LINE#         130
  C:AF77H         LINE#         132
  -------         ENDPROC       VARIABLE_INICIO
  -------         PROC          MAIN
  -------         DO            
  X:0143H         SYMBOL        buffer
  X:016BH         SYMBOL        Estado_Comunicacion_Secuencia_MF
  X:0000H         SYMBOL        Length_trama
  -------         ENDDO         
  C:A80EH         LINE#         140
  C:A80EH         LINE#         141
  C:A80EH         LINE#         148
  C:A811H         LINE#         149
  C:A814H         LINE#         150
  C:A817H         LINE#         151
  C:A81AH         LINE#         152
  C:A81DH         LINE#         153
  C:A81FH         LINE#         155
  C:A822H         LINE#         156
  C:A829H         LINE#         157
  C:A82CH         LINE#         159
  C:A831H         LINE#         161
  C:A834H         LINE#         163
  C:A837H         LINE#         164
  C:A837H         LINE#         165
  C:A83AH         LINE#         166
  C:A83AH         LINE#         169
  C:A83DH         LINE#         170
  C:A843H         LINE#         171
  C:A849H         LINE#         173
  C:A849H         LINE#         174
  C:A849H         LINE#         177
  C:A84CH         LINE#         178
  C:A84CH         LINE#         179
  C:A84FH         LINE#         180
  C:A84FH         LINE#         184
  C:A85CH         LINE#         189
  C:A862H         LINE#         190
  C:A862H         LINE#         192
  C:A871H         LINE#         195
  C:A87AH         LINE#         196
  C:A888H         LINE#         201
  C:A888H         LINE#         202
  C:A88BH         LINE#         206
BL51 BANKED LINKER/LOCATER V6.22.2.0                                                  05/25/2021  12:30:00  PAGE 28


  -------         ENDPROC       MAIN
  -------         ENDMOD        MAIN

  -------         MODULE        ACCESCAN
  C:0000H         SYMBOL        _ICE_DUMMY_
  D:0080H         PUBLIC        P0
  D:0090H         PUBLIC        P1
  B:0080H.2       PUBLIC        led_err_imp
  C:B3A8H         PUBLIC        _Monitor_chr
  B:0080H.3       PUBLIC        Atascado_GP0_PIN_3
  B:0090H.7       PUBLIC        lock
  C:3F09H         PUBLIC        _Valida_Trama_Pto
  C:8547H         PUBLIC        _Cmd_LPR_Salida_wiegand
  -------         PROC          _VALIDA_TRAMA_PTO
  X:0001H         SYMBOL        buffer
  X:0004H         SYMBOL        length_trama
  -------         DO            
  X:0213H         SYMBOL        cont
  X:0005H         SYMBOL        buff
  -------         ENDDO         
  C:3F09H         LINE#         106
  C:3F17H         LINE#         107
  C:3F17H         LINE#         113
  C:3F4DH         LINE#         114
  C:3F4DH         LINE#         115
  C:3F62H         LINE#         116
  C:3F62H         LINE#         117
  C:3F75H         LINE#         119
  C:3F78H         LINE#         121
  C:3F78H         LINE#         123
  C:3F78H         LINE#         126
  C:3F8AH         LINE#         127
  C:3F8AH         LINE#         128
  C:3F8CH         LINE#         129
  C:3F8FH         LINE#         131
  C:3FA1H         LINE#         132
  C:3FA1H         LINE#         133
  C:3FA3H         LINE#         134
  C:3FA6H         LINE#         136
  C:3FB8H         LINE#         137
  C:3FB8H         LINE#         138
  C:3FBAH         LINE#         139
  C:3FBDH         LINE#         141
  C:3FD7H         LINE#         142
  C:3FD7H         LINE#         143
  C:3FD9H         LINE#         144
  C:3FDCH         LINE#         146
  C:3FF6H         LINE#         147
  C:3FF6H         LINE#         148
  C:3FF8H         LINE#         149
  C:3FFBH         LINE#         151
  C:400DH         LINE#         152
  C:400DH         LINE#         153
  C:4013H         LINE#         154
  C:4020H         LINE#         155
  C:4020H         LINE#         156
  C:4025H         LINE#         157
BL51 BANKED LINKER/LOCATER V6.22.2.0                                                  05/25/2021  12:30:00  PAGE 29


  C:4027H         LINE#         158
  C:402CH         LINE#         159
  C:402EH         LINE#         160
  C:4030H         LINE#         161
  C:4034H         LINE#         162
  C:4034H         LINE#         163
  C:4035H         LINE#         165
  C:404DH         LINE#         166
  C:404DH         LINE#         168
  C:405AH         LINE#         169
  C:405AH         LINE#         170
  C:405CH         LINE#         171
  C:405EH         LINE#         172
  C:4060H         LINE#         173
  C:4062H         LINE#         174
  C:4062H         LINE#         176
  C:4088H         LINE#         177
  C:4088H         LINE#         178
  C:408CH         LINE#         179
  C:4091H         LINE#         180
  C:409AH         LINE#         181
  C:409FH         LINE#         182
  C:409FH         LINE#         185
  C:40A0H         LINE#         187
  C:40BAH         LINE#         188
  C:40BAH         LINE#         189
  C:40BCH         LINE#         190
  C:40BFH         LINE#         192
  C:40D9H         LINE#         193
  C:40D9H         LINE#         194
  C:40DBH         LINE#         195
  C:40DEH         LINE#         197
  C:40F8H         LINE#         198
  C:40F8H         LINE#         199
  C:40FAH         LINE#         200
  C:40FCH         LINE#         202
  C:4116H         LINE#         203
  C:4116H         LINE#         204
  C:4118H         LINE#         205
  C:411AH         LINE#         208
  C:4134H         LINE#         209
  C:4134H         LINE#         210
  C:4136H         LINE#         211
  C:4138H         LINE#         215
  C:4152H         LINE#         216
  C:4152H         LINE#         217
  C:4154H         LINE#         218
  C:4156H         LINE#         221
  C:4170H         LINE#         222
  C:4170H         LINE#         223
  C:4175H         LINE#         224
  C:4175H         LINE#         227
  C:41A6H         LINE#         228
  C:41A6H         LINE#         229
  C:41AEH         LINE#         230
  C:41B7H         LINE#         231
  C:41BAH         LINE#         234
BL51 BANKED LINKER/LOCATER V6.22.2.0                                                  05/25/2021  12:30:00  PAGE 30


  C:41EBH         LINE#         235
  C:41EBH         LINE#         237
  C:41F3H         LINE#         238
  C:41FCH         LINE#         239
  C:41FFH         LINE#         242
  C:423FH         LINE#         243
  C:423FH         LINE#         245
  C:4254H         LINE#         246
  C:425AH         LINE#         247
  C:4284H         LINE#         250
  C:428CH         LINE#         251
  C:428CH         LINE#         254
  C:4293H         LINE#         255
  C:4293H         LINE#         256
  C:4298H         LINE#         257
  C:4298H         LINE#         258
  C:429AH         LINE#         260
  C:429AH         LINE#         261
  C:42A3H         LINE#         262
  C:42ABH         LINE#         263
  C:42ABH         LINE#         267
  C:42ADH         LINE#         270
  C:42ADH         LINE#         278
  C:42B5H         LINE#         282
  C:42B5H         LINE#         283
  C:42B7H         LINE#         285
  C:42EFH         LINE#         286
  C:42EFH         LINE#         287
  C:42F7H         LINE#         288
  C:4303H         LINE#         289
  C:4303H         LINE#         291
  C:4330H         LINE#         292
  C:4330H         LINE#         293
  C:433FH         LINE#         295
  C:433FH         LINE#         297
  -------         ENDPROC       _VALIDA_TRAMA_PTO
  -------         PROC          _MONITOR_CHR
  X:0032H         SYMBOL        str
  X:0035H         SYMBOL        num_char
  -------         DO            
  X:0036H         SYMBOL        j
  -------         ENDDO         
  C:B3A8H         LINE#         452
  C:B3B6H         LINE#         453
  C:B3B6H         LINE#         455
  C:B3C4H         LINE#         456
  C:B3C4H         LINE#         457
  C:B3D6H         LINE#         458
  C:B3E0H         LINE#         459
  C:B3E8H         LINE#         460
  -------         ENDPROC       _MONITOR_CHR
  -------         PROC          _CMD_LPR_SALIDA_WIEGAND
  X:0010H         SYMBOL        buffer
  -------         DO            
  X:0013H         SYMBOL        Buffer_Lpr
  X:0031H         SYMBOL        j
  -------         ENDDO         
BL51 BANKED LINKER/LOCATER V6.22.2.0                                                  05/25/2021  12:30:00  PAGE 31


  C:8547H         LINE#         465
  C:8552H         LINE#         466
  C:8552H         LINE#         468
  C:8558H         LINE#         469
  C:855DH         LINE#         470
  C:8565H         LINE#         471
  C:8569H         LINE#         472
  C:8572H         LINE#         473
  C:8572H         LINE#         474
  C:8583H         LINE#         475
  C:8585H         LINE#         477
  C:8585H         LINE#         478
  C:8596H         LINE#         479
  C:8596H         LINE#         483
  C:85ADH         LINE#         484
  C:85ADH         LINE#         485
  C:85BCH         LINE#         486
  C:85C6H         LINE#         488
  C:85CEH         LINE#         489
  C:85E2H         LINE#         491
  C:85F2H         LINE#         492
  C:8603H         LINE#         493
  C:8610H         LINE#         497
  -------         ENDPROC       _CMD_LPR_SALIDA_WIEGAND
  -------         ENDMOD        ACCESCAN

  -------         MODULE        CLOCK
  C:0000H         SYMBOL        _ICE_DUMMY_
  C:B41DH         PUBLIC        _two_one
  D:0090H         PUBLIC        P1
  C:73E1H         PUBLIC        _validar_clk
  C:B908H         PUBLIC        _wr_clk
  C:8A22H         PUBLIC        _check_fechaOut
  C:58CAH         PUBLIC        _Block_read_clock_ascii_rasberry
  B:00D0H.7       PUBLIC        CY
  C:0003H         PUBLIC        p_ck
  C:9D66H         PUBLIC        _hex_ascii
  X:0214H         PUBLIC        data_clk
  C:BCA9H         PUBLIC        cond_ini_clock
  C:8AEBH         PUBLIC        _Block_read_Clock
  B:0090H.4       PUBLIC        sck
  C:9743H         PUBLIC        _Block_read_Clock_Hex
  C:613CH         PUBLIC        _Block_read_clock_ascii
  C:B581H         PUBLIC        _hex_bcd
  C:BB1FH         PUBLIC        _bcd_hex
  C:AD63H         PUBLIC        _ByteHex_Decimal
  C:A041H         PUBLIC        _lee_clk
  B:0090H.5       PUBLIC        io
  C:988EH         PUBLIC        _Block_write_clock_ascii
  B:0090H.6       PUBLIC        rst
  C:B4AAH         PUBLIC        _eb_clk
  C:469CH         PUBLIC        _Two_ByteHex_Decimal
  -------         PROC          P_CK
  C:0003H         LINE#         48
  C:0003H         LINE#         49
  C:0003H         LINE#         50
  C:0005H         LINE#         51
BL51 BANKED LINKER/LOCATER V6.22.2.0                                                  05/25/2021  12:30:00  PAGE 32


  C:0008H         LINE#         52
  C:000AH         LINE#         53
  -------         ENDPROC       P_CK
  -------         PROC          _EB_CLK
  X:00B4H         SYMBOL        dir_clk
  -------         DO            
  X:00B5H         SYMBOL        nbits
  -------         ENDDO         
  C:B4AAH         LINE#         55
  C:B4AFH         LINE#         57
  C:B4B4H         LINE#         58
  C:B4B4H         LINE#         59
  C:B4BDH         LINE#         60
  C:B4C0H         LINE#         61
  C:B4C0H         LINE#         62
  C:B4C2H         LINE#         63
  C:B4C4H         LINE#         65
  C:B4C4H         LINE#         66
  C:B4C6H         LINE#         67
  C:B4C6H         LINE#         68
  C:B4C9H         LINE#         69
  C:B4E8H         LINE#         70
  -------         ENDPROC       _EB_CLK
  C:A038H         SYMBOL        L?0083
  -------         PROC          L?0082
  -------         ENDPROC       L?0082
  C:A038H         SYMBOL        L?0083
  -------         PROC          _LEE_CLK
  X:00B1H         SYMBOL        dir_clk
  -------         DO            
  X:00B2H         SYMBOL        nbits
  -------         ENDDO         
  C:A041H         LINE#         72
  C:A046H         LINE#         74
  C:A048H         LINE#         75
  C:A04FH         LINE#         76
  C:A057H         LINE#         77
  C:A070H         LINE#         78
  C:A070H         LINE#         79
  C:A073H         LINE#         80
  C:A073H         LINE#         81
  C:A07AH         LINE#         82
  C:A084H         LINE#         83
  C:A089H         LINE#         84
  C:A089H         LINE#         85
  C:A089H         LINE#         86
  C:A08CH         LINE#         87
  C:A08CH         LINE#         88
  C:A093H         LINE#         89
  C:A0A4H         LINE#         90
  C:A0A4H         LINE#         91
  C:A0ACH         LINE#         92
  C:A0ACH         LINE#         93
  C:A0ACH         LINE#         94
  C:A0AFH         LINE#         95
  C:A0BFH         LINE#         96
  C:A0C1H         LINE#         97
BL51 BANKED LINKER/LOCATER V6.22.2.0                                                  05/25/2021  12:30:00  PAGE 33


  C:A0C6H         LINE#         98
  -------         ENDPROC       _LEE_CLK
  -------         PROC          _WR_CLK
  X:0013H         SYMBOL        dir_clk
  X:0014H         SYMBOL        byte
  C:B908H         LINE#         100
  C:B910H         LINE#         101
  C:B912H         LINE#         102
  C:B919H         LINE#         103
  C:B921H         LINE#         104
  C:B92AH         LINE#         105
  C:B92DH         LINE#         106
  C:B92FH         LINE#         108
  -------         ENDPROC       _WR_CLK
  C:B3E9H         SYMBOL        L?0078
  C:B407H         SYMBOL        L?0079
  -------         PROC          L?0077
  -------         ENDPROC       L?0077
  C:B3E9H         SYMBOL        L?0078
  C:B407H         SYMBOL        L?0079
  -------         PROC          _TWO_ONE
  D:0007H         SYMBOL        byte_h
  D:0005H         SYMBOL        byte_l
  -------         DO            
  D:0007H         SYMBOL        byte_out
  -------         ENDDO         
  C:B41DH         LINE#         110
  C:B41DH         LINE#         111
  C:B41DH         LINE#         113
  C:B420H         LINE#         114
  C:B424H         LINE#         115
  C:B427H         LINE#         116
  C:B429H         LINE#         117
  C:B429H         LINE#         118
  -------         ENDPROC       _TWO_ONE
  -------         PROC          _VALIDAR_CLK
  D:0001H         SYMBOL        datos_clock
  -------         DO            
  D:0007H         SYMBOL        validador
  -------         ENDDO         
  C:73E1H         LINE#         122
  C:73E1H         LINE#         123
  C:73E1H         LINE#         124
  C:73E3H         LINE#         127
  C:73F8H         LINE#         128
  C:73F8H         LINE#         130
  C:7410H         LINE#         131
  C:7410H         LINE#         133
  C:7428H         LINE#         134
  C:7428H         LINE#         135
  C:7440H         LINE#         136
  C:7440H         LINE#         137
  C:7458H         LINE#         138
  C:7458H         LINE#         139
  C:746DH         LINE#         140
  C:746DH         LINE#         141
  C:747FH         LINE#         142
BL51 BANKED LINKER/LOCATER V6.22.2.0                                                  05/25/2021  12:30:00  PAGE 34


  C:747FH         LINE#         143
  C:7491H         LINE#         144
  C:7491H         LINE#         145
  C:74A3H         LINE#         146
  C:74A3H         LINE#         147
  C:74B5H         LINE#         148
  C:74B5H         LINE#         149
  C:74C7H         LINE#         150
  C:74C7H         LINE#         151
  C:74D7H         LINE#         152
  C:74D7H         LINE#         153
  C:74D7H         LINE#         154
  C:74D7H         LINE#         155
  C:74D8H         LINE#         157
  C:74D8H         LINE#         158
  C:74DAH         LINE#         159
  C:74DAH         LINE#         160
  C:74DBH         LINE#         162
  C:74DBH         LINE#         163
  C:74DDH         LINE#         165
  C:74DDH         LINE#         166
  C:74DEH         LINE#         168
  C:74DEH         LINE#         169
  C:74E0H         LINE#         171
  C:74E0H         LINE#         173
  C:74E1H         LINE#         175
  C:74E1H         LINE#         176
  C:74E3H         LINE#         178
  C:74E3H         LINE#         179
  C:74E4H         LINE#         181
  C:74E4H         LINE#         182
  C:74E6H         LINE#         184
  C:74E6H         LINE#         185
  C:74E7H         LINE#         187
  C:74E7H         LINE#         188
  C:74E9H         LINE#         190
  C:74E9H         LINE#         191
  C:74EAH         LINE#         193
  C:74EAH         LINE#         194
  C:74ECH         LINE#         196
  C:74ECH         LINE#         197
  C:74ECH         LINE#         199
  C:74EDH         LINE#         201
  C:74EDH         LINE#         202
  C:74EFH         LINE#         204
  C:74EFH         LINE#         206
  C:74F0H         LINE#         209
  C:74F0H         LINE#         210
  C:74F2H         LINE#         212
  C:74F2H         LINE#         214
  C:74F3H         LINE#         217
  C:74F3H         LINE#         218
  C:74F5H         LINE#         220
  C:74F5H         LINE#         222
  C:74F5H         LINE#         224
  -------         ENDPROC       _VALIDAR_CLK
  -------         PROC          _BLOCK_WRITE_CLOCK_ASCII
BL51 BANKED LINKER/LOCATER V6.22.2.0                                                  05/25/2021  12:30:00  PAGE 35


  X:0010H         SYMBOL        datos_clock
  -------         DO            
  D:0007H         SYMBOL        temp
  -------         ENDDO         
  C:988EH         LINE#         230
  C:9899H         LINE#         232
  C:9899H         LINE#         235
  C:98A2H         LINE#         236
  C:98ABH         LINE#         238
  C:98B5H         LINE#         239
  C:98B5H         LINE#         240
  C:98B5H         LINE#         241
  C:98B5H         LINE#         243
  C:98BFH         LINE#         244
  C:98C9H         LINE#         245
  C:98D3H         LINE#         246
  C:98D3H         LINE#         247
  C:98D3H         LINE#         248
  C:98D3H         LINE#         250
  C:98DDH         LINE#         251
  C:98DDH         LINE#         252
  C:98DDH         LINE#         253
  C:98DDH         LINE#         255
  C:98E7H         LINE#         256
  C:98E7H         LINE#         257
  C:98E7H         LINE#         258
  C:98E7H         LINE#         260
  C:98F1H         LINE#         261
  C:98F1H         LINE#         262
  C:98F1H         LINE#         263
  C:98F1H         LINE#         265
  C:98FBH         LINE#         266
  C:9905H         LINE#         267
  C:990FH         LINE#         268
  C:9919H         LINE#         270
  C:9929H         LINE#         271
  -------         ENDPROC       _BLOCK_WRITE_CLOCK_ASCII
  -------         PROC          _BCD_HEX
  D:0007H         SYMBOL        l_data
  -------         DO            
  D:0006H         SYMBOL        temp
  D:0005H         SYMBOL        j
  -------         ENDDO         
  C:BB1FH         LINE#         277
  C:BB1FH         LINE#         278
  C:BB1FH         LINE#         280
  C:BB21H         LINE#         281
  C:BB25H         LINE#         282
  C:BB28H         LINE#         283
  C:BB2AH         LINE#         284
  C:BB2AH         LINE#         285
  C:BB2EH         LINE#         286
  C:BB35H         LINE#         287
  C:BB35H         LINE#         288
  C:BB39H         LINE#         289
  C:BB3CH         LINE#         290
  C:BB3CH         LINE#         291
BL51 BANKED LINKER/LOCATER V6.22.2.0                                                  05/25/2021  12:30:00  PAGE 36


  C:BB3CH         LINE#         292
  -------         ENDPROC       _BCD_HEX
  C:B572H         SYMBOL        L?0081
  -------         PROC          L?0080
  -------         ENDPROC       L?0080
  C:B572H         SYMBOL        L?0081
  -------         PROC          _HEX_BCD
  D:0007H         SYMBOL        byte
  -------         DO            
  D:0006H         SYMBOL        nibble_h
  D:0005H         SYMBOL        nibble_l
  D:0004H         SYMBOL        k
  D:0007H         SYMBOL        byte_out
  -------         ENDDO         
  C:B581H         LINE#         296
  C:B581H         LINE#         297
  C:B581H         LINE#         302
  C:B583H         LINE#         303
  C:B584H         LINE#         305
  C:B58AH         LINE#         306
  C:B58AH         LINE#         307
  C:B58BH         LINE#         308
  C:B590H         LINE#         309
  C:B590H         LINE#         310
  C:B591H         LINE#         311
  C:B592H         LINE#         312
  C:B592H         LINE#         313
  C:B595H         LINE#         314
  C:B599H         LINE#         315
  C:B59CH         LINE#         316
  C:B59FH         LINE#         317
  C:B5A1H         LINE#         318
  C:B5A1H         LINE#         320
  -------         ENDPROC       _HEX_BCD
  -------         PROC          _HEX_ASCII
  X:005DH         SYMBOL        datos
  X:0060H         SYMBOL        fecha_asii
  -------         DO            
  D:0007H         SYMBOL        dato
  -------         ENDDO         
  C:9D66H         LINE#         321
  C:9D71H         LINE#         322
  C:9D71H         LINE#         326
  C:9D74H         LINE#         327
  C:9D8CH         LINE#         328
  C:9DA1H         LINE#         329
  C:9DA1H         LINE#         331
  C:9DA4H         LINE#         332
  C:9DBFH         LINE#         333
  C:9DC7H         LINE#         334
  C:9DC7H         LINE#         336
  C:9DCAH         LINE#         337
  C:9DE5H         LINE#         338
  C:9DF0H         LINE#         340
  -------         ENDPROC       _HEX_ASCII
  -------         PROC          _BYTEHEX_DECIMAL
  D:0001H         SYMBOL        buffer
BL51 BANKED LINKER/LOCATER V6.22.2.0                                                  05/25/2021  12:30:00  PAGE 37


  D:0005H         SYMBOL        valorhex
  -------         DO            
  X:0014H         SYMBOL        numero
  D:0007H         SYMBOL        centena
  D:0006H         SYMBOL        decena
  -------         ENDDO         
  C:AD63H         LINE#         348
  C:AD63H         LINE#         349
  C:AD63H         LINE#         352
  C:AD65H         LINE#         353
  C:AD66H         LINE#         354
  C:AD6BH         LINE#         356
  C:AD78H         LINE#         357
  C:AD78H         LINE#         358
  C:AD7CH         LINE#         359
  C:AD7DH         LINE#         360
  C:AD7FH         LINE#         361
  C:AD85H         LINE#         362
  C:AD8CH         LINE#         363
  C:AD99H         LINE#         364
  C:AD99H         LINE#         365
  C:AD9DH         LINE#         366
  C:AD9EH         LINE#         367
  C:ADA0H         LINE#         368
  C:ADA6H         LINE#         369
  C:ADADH         LINE#         370
  C:ADB6H         LINE#         371
  C:ADBDH         LINE#         372
  -------         ENDPROC       _BYTEHEX_DECIMAL
  -------         PROC          _TWO_BYTEHEX_DECIMAL
  X:0014H         SYMBOL        buffer
  X:0017H         SYMBOL        id_h
  X:0018H         SYMBOL        id_l
  -------         DO            
  X:0019H         SYMBOL        valor
  D:0006H         SYMBOL        numero
  X:001BH         SYMBOL        temp
  X:001CH         SYMBOL        dmil
  X:001DH         SYMBOL        mil
  X:001EH         SYMBOL        centena
  X:001FH         SYMBOL        decena
  -------         ENDDO         
  C:469CH         LINE#         379
  C:46AAH         LINE#         380
  C:46AAH         LINE#         384
  C:46B1H         LINE#         385
  C:46B5H         LINE#         386
  C:46B7H         LINE#         387
  C:46B9H         LINE#         388
  C:46BBH         LINE#         391
  C:46C0H         LINE#         392
  C:46C3H         LINE#         393
  C:46C9H         LINE#         395
  C:4724H         LINE#         396
  C:472CH         LINE#         397
  C:472FH         LINE#         398
  C:478AH         LINE#         400
BL51 BANKED LINKER/LOCATER V6.22.2.0                                                  05/25/2021  12:30:00  PAGE 38


  C:4792H         LINE#         401
  C:4795H         LINE#         402
  C:479BH         LINE#         403
  C:47F6H         LINE#         404
  C:47FEH         LINE#         405
  C:4801H         LINE#         406
  C:485CH         LINE#         407
  C:485CH         LINE#         409
  C:4865H         LINE#         410
  C:4865H         LINE#         411
  C:486DH         LINE#         412
  C:4873H         LINE#         413
  C:4875H         LINE#         414
  C:488BH         LINE#         415
  C:4895H         LINE#         416
  C:489EH         LINE#         417
  C:489EH         LINE#         418
  C:48A6H         LINE#         419
  C:48ACH         LINE#         420
  C:48AEH         LINE#         421
  C:48C4H         LINE#         422
  C:48CEH         LINE#         423
  C:48D7H         LINE#         424
  C:48D7H         LINE#         425
  C:48DFH         LINE#         426
  C:48E5H         LINE#         427
  C:48E7H         LINE#         428
  C:48FDH         LINE#         429
  C:4907H         LINE#         430
  C:4910H         LINE#         431
  C:4910H         LINE#         432
  C:4918H         LINE#         433
  C:491EH         LINE#         434
  C:4920H         LINE#         435
  C:4936H         LINE#         436
  C:4940H         LINE#         437
  C:4953H         LINE#         438
  C:495DH         LINE#         439
  -------         ENDPROC       _TWO_BYTEHEX_DECIMAL
  -------         PROC          _BLOCK_READ_CLOCK_ASCII
  X:0051H         SYMBOL        datos_clock
  -------         DO            
  D:0007H         SYMBOL        dato
  -------         ENDDO         
  C:613CH         LINE#         445
  C:6147H         LINE#         446
  C:6147H         LINE#         452
  C:614CH         LINE#         453
  C:6164H         LINE#         454
  C:616EH         LINE#         455
  C:6183H         LINE#         456
  C:618DH         LINE#         459
  C:6192H         LINE#         460
  C:61AAH         LINE#         461
  C:61B4H         LINE#         462
  C:61C9H         LINE#         463
  C:61CCH         LINE#         466
BL51 BANKED LINKER/LOCATER V6.22.2.0                                                  05/25/2021  12:30:00  PAGE 39


  C:61CFH         LINE#         467
  C:61E7H         LINE#         468
  C:61F1H         LINE#         469
  C:6206H         LINE#         470
  C:6210H         LINE#         474
  C:6215H         LINE#         475
  C:622DH         LINE#         476
  C:6237H         LINE#         477
  C:624CH         LINE#         478
  C:6256H         LINE#         481
  C:625BH         LINE#         482
  C:6273H         LINE#         483
  C:627DH         LINE#         484
  C:6292H         LINE#         485
  C:629CH         LINE#         486
  -------         ENDPROC       _BLOCK_READ_CLOCK_ASCII
  -------         PROC          _BLOCK_READ_CLOCK_ASCII_RASBERRY
  X:001DH         SYMBOL        datos_clock
  -------         DO            
  D:0007H         SYMBOL        dato
  -------         ENDDO         
  C:58CAH         LINE#         489
  C:58D5H         LINE#         490
  C:58D5H         LINE#         495
  C:58DAH         LINE#         496
  C:58F2H         LINE#         497
  C:58FCH         LINE#         498
  C:5911H         LINE#         499
  C:5914H         LINE#         502
  C:5917H         LINE#         503
  C:592FH         LINE#         504
  C:5939H         LINE#         505
  C:594EH         LINE#         506
  C:5958H         LINE#         510
  C:595DH         LINE#         511
  C:5975H         LINE#         512
  C:597FH         LINE#         513
  C:5994H         LINE#         514
  C:599EH         LINE#         519
  C:59A3H         LINE#         520
  C:59BBH         LINE#         521
  C:59C5H         LINE#         522
  C:59DAH         LINE#         523
  C:59E4H         LINE#         526
  C:59E9H         LINE#         527
  C:5A01H         LINE#         528
  C:5A0BH         LINE#         529
  C:5A20H         LINE#         530
  C:5A2AH         LINE#         531
  C:5A3AH         LINE#         532
  C:5A44H         LINE#         535
  C:5A49H         LINE#         536
  C:5A61H         LINE#         537
  C:5A6BH         LINE#         538
  C:5A80H         LINE#         540
  C:5A8AH         LINE#         541
  -------         ENDPROC       _BLOCK_READ_CLOCK_ASCII_RASBERRY
BL51 BANKED LINKER/LOCATER V6.22.2.0                                                  05/25/2021  12:30:00  PAGE 40


  -------         PROC          _BLOCK_READ_CLOCK_HEX
  X:00AEH         SYMBOL        datos_clock
  C:9743H         LINE#         545
  C:974EH         LINE#         546
  C:974EH         LINE#         549
  C:9765H         LINE#         550
  C:976FH         LINE#         552
  C:9786H         LINE#         553
  C:9789H         LINE#         555
  C:979EH         LINE#         556
  C:97A8H         LINE#         558
  C:97BFH         LINE#         559
  C:97C9H         LINE#         561
  C:97E0H         LINE#         562
  -------         ENDPROC       _BLOCK_READ_CLOCK_HEX
  -------         PROC          _BLOCK_READ_CLOCK
  X:001DH         SYMBOL        datos_clock
  C:8AEBH         LINE#         569
  C:8AF6H         LINE#         570
  C:8AF6H         LINE#         572
  C:8B0AH         LINE#         573
  C:8B14H         LINE#         575
  C:8B28H         LINE#         576
  C:8B2BH         LINE#         578
  C:8B3DH         LINE#         579
  C:8B47H         LINE#         581
  C:8B5BH         LINE#         582
  C:8B65H         LINE#         584
  C:8B79H         LINE#         585
  C:8B83H         LINE#         587
  C:8B97H         LINE#         588
  C:8BA1H         LINE#         589
  -------         ENDPROC       _BLOCK_READ_CLOCK
  -------         PROC          COND_INI_CLOCK
  C:BCA9H         LINE#         592
  C:BCA9H         LINE#         593
  C:BCA9H         LINE#         594
  C:BCABH         LINE#         595
  C:BCADH         LINE#         596
  C:BCAFH         LINE#         597
  -------         ENDPROC       COND_INI_CLOCK
  -------         PROC          _CHECK_FECHAOUT
  X:009CH         SYMBOL        buffer
  -------         DO            
  X:009FH         SYMBOL        fecha_inicio
  X:00A3H         SYMBOL        fecha_fin
  X:00A7H         SYMBOL        datos_clk
  X:00ADH         SYMBOL        temp
  -------         ENDDO         
  C:8A22H         LINE#         607
  C:8A2DH         LINE#         608
  C:8A2DH         LINE#         614
  C:8A36H         LINE#         615
  C:8A65H         LINE#         616
  C:8AB8H         LINE#         619
  C:8AD8H         LINE#         620
  C:8AD8H         LINE#         621
BL51 BANKED LINKER/LOCATER V6.22.2.0                                                  05/25/2021  12:30:00  PAGE 41


  C:8ADEH         LINE#         622
  C:8AE0H         LINE#         624
  C:8AE0H         LINE#         625
  C:8AE5H         LINE#         626
  C:8AE5H         LINE#         630
  C:8AEAH         LINE#         631
  -------         ENDPROC       _CHECK_FECHAOUT
  -------         ENDMOD        CLOCK

  -------         MODULE        DELAY
  C:0000H         SYMBOL        _ICE_DUMMY_
  C:B6CFH         PUBLIC        _Delay_10ms
  C:BBDCH         PUBLIC        _Delay_20us
  C:BB3DH         PUBLIC        _Delay_1ms
  C:BCF9H         PUBLIC        Delay
  -------         PROC          _DELAY_20US
  D:0006H         SYMBOL        cntd_us
  -------         DO            
  D:0004H         SYMBOL        i
  -------         ENDDO         
  C:BBDCH         LINE#         20
  C:BBDCH         LINE#         21
  C:BBDCH         LINE#         24
  C:BBE6H         LINE#         26
  C:BBEDH         LINE#         27
  -------         ENDPROC       _DELAY_20US
  -------         PROC          _DELAY_1MS
  D:0002H         SYMBOL        cntd_ms
  -------         DO            
  D:0082H         SYMBOL        i
  -------         ENDDO         
  C:BB3DH         LINE#         38
  C:BB41H         LINE#         39
  C:BB41H         LINE#         41
  C:BB57H         LINE#         42
  -------         ENDPROC       _DELAY_1MS
  -------         PROC          _DELAY_10MS
  X:001CH         SYMBOL        cntd_10ms
  -------         DO            
  X:001EH         SYMBOL        i
  -------         ENDDO         
  C:B6CFH         LINE#         54
  C:B6D7H         LINE#         55
  C:B6D7H         LINE#         57
  C:B708H         LINE#         58
  -------         ENDPROC       _DELAY_10MS
  -------         PROC          DELAY
  C:BCF9H         LINE#         60
  C:BCF9H         LINE#         62
  -------         ENDPROC       DELAY
  -------         ENDMOD        DELAY

  -------         MODULE        EEPROM
  C:0000H         SYMBOL        _ICE_DUMMY_
  D:0090H         PUBLIC        P1
  C:7FF8H         PUBLIC        _Write_EEprom_Ticket
  C:AAEAH         PUBLIC        _EscribirMemoria
BL51 BANKED LINKER/LOCATER V6.22.2.0                                                  05/25/2021  12:30:00  PAGE 42


  X:0208H         PUBLIC        l_chr
  C:BAA4H         PUBLIC        ackd
  B:0021H.6       PUBLIC        memory_flag
  B:00D0H.7       PUBLIC        CY
  C:BCE1H         PUBLIC        p_me
  C:BBF6H         PUBLIC        start
  B:0090H.2       PUBLIC        sda
  C:BAC4H         PUBLIC        ack_lect
  B:0090H.3       PUBLIC        scl
  C:B5A6H         PUBLIC        _rd_eeprom
  C:BC83H         PUBLIC        stop
  X:0209H         PUBLIC        l_data_eeprom
  C:AEECH         PUBLIC        _wr_eeprom
  C:AC9BH         PUBLIC        _LeerMemoria
  C:B7E7H         PUBLIC        Incremente_Ticket
  X:020AH         PUBLIC        byte_rd
  C:8958H         PUBLIC        Read_EEprom_Ticket
  C:BA3CH         PUBLIC        _e_d_m
  C:87C1H         PUBLIC        _graba_serie
  C:AFC5H         PUBLIC        Lee_No_Ticket
  C:AF78H         PUBLIC        l_d_m
  -------         PROC          L?0057
  -------         ENDPROC       L?0057
  -------         PROC          ACKD
  -------         DO            
  D:0006H         SYMBOL        i
  -------         ENDDO         
  C:BAA4H         LINE#         35
  C:BAA4H         LINE#         36
  C:BAA4H         LINE#         38
  C:BAA6H         LINE#         39
  C:BAA8H         LINE#         40
  C:BAAAH         LINE#         41
  C:BAADH         LINE#         42
  C:BAADH         LINE#         43
  C:BAB0H         LINE#         44
  C:BAB0H         LINE#         45
  C:BAB2H         LINE#         46
  C:BAB4H         LINE#         48
  C:BAB5H         LINE#         49
  C:BAB5H         LINE#         50
  C:BAC0H         LINE#         52
  C:BAC0H         LINE#         53
  C:BAC0H         LINE#         55
  C:BAC0H         LINE#         56
  -------         ENDPROC       ACKD
  -------         PROC          L?0061
  -------         ENDPROC       L?0061
  -------         PROC          ACK_LECT
  -------         DO            
  D:0006H         SYMBOL        i
  -------         ENDDO         
  C:BAC4H         LINE#         59
  C:BAC4H         LINE#         60
  C:BAC4H         LINE#         62
  C:BAC6H         LINE#         63
  C:BAC8H         LINE#         64
BL51 BANKED LINKER/LOCATER V6.22.2.0                                                  05/25/2021  12:30:00  PAGE 43


  C:BACAH         LINE#         65
  C:BACDH         LINE#         66
  C:BACDH         LINE#         67
  C:BAD0H         LINE#         68
  C:BAD0H         LINE#         69
  C:BAD2H         LINE#         70
  C:BAD4H         LINE#         71
  C:BAD5H         LINE#         72
  C:BAD5H         LINE#         73
  C:BAE0H         LINE#         74
  -------         ENDPROC       ACK_LECT
  -------         PROC          P_ME
  C:BCE1H         LINE#         76
  C:BCE1H         LINE#         77
  C:BCE1H         LINE#         78
  C:BCE3H         LINE#         79
  C:BCE4H         LINE#         80
  C:BCE6H         LINE#         81
  -------         ENDPROC       P_ME
  -------         PROC          _E_D_M
  D:0007H         SYMBOL        a_serial_eeprom
  -------         DO            
  D:0006H         SYMBOL        nbits
  -------         ENDDO         
  C:BA3CH         LINE#         83
  C:BA3CH         LINE#         84
  C:BA3CH         LINE#         86
  C:BA48H         LINE#         87
  C:BA48H         LINE#         88
  C:BA4CH         LINE#         89
  C:BA4FH         LINE#         90
  C:BA4FH         LINE#         91
  C:BA51H         LINE#         92
  C:BA53H         LINE#         94
  C:BA53H         LINE#         95
  C:BA55H         LINE#         96
  C:BA55H         LINE#         97
  C:BA57H         LINE#         98
  C:BA5AH         LINE#         99
  C:BA5DH         LINE#         101
  -------         ENDPROC       _E_D_M
  -------         PROC          L?0058
  -------         ENDPROC       L?0058
  -------         PROC          START
  C:BBF6H         LINE#         103
  C:BBF6H         LINE#         104
  C:BBF6H         LINE#         105
  C:BBF8H         LINE#         106
  C:BBFAH         LINE#         107
  C:BBFBH         LINE#         108
  C:BBFDH         LINE#         109
  C:BBFFH         LINE#         111
  -------         ENDPROC       START
  -------         PROC          STOP
  C:BC83H         LINE#         113
  C:BC83H         LINE#         114
  C:BC83H         LINE#         115
BL51 BANKED LINKER/LOCATER V6.22.2.0                                                  05/25/2021  12:30:00  PAGE 44


  C:BC85H         LINE#         116
  C:BC87H         LINE#         117
  C:BC88H         LINE#         118
  C:BC8AH         LINE#         119
  C:BC8CH         LINE#         121
  -------         ENDPROC       STOP
  -------         PROC          L_D_M
  -------         DO            
  D:0003H         SYMBOL        nbits
  -------         ENDDO         
  C:AF78H         LINE#         123
  C:AF78H         LINE#         124
  C:AF78H         LINE#         126
  C:AF85H         LINE#         127
  C:AF85H         LINE#         128
  C:AF87H         LINE#         129
  C:AF8AH         LINE#         130
  C:AF8AH         LINE#         131
  C:AF91H         LINE#         132
  C:AF9AH         LINE#         133
  C:AF9AH         LINE#         134
  C:AF9EH         LINE#         135
  C:AFA0H         LINE#         136
  C:AFA0H         LINE#         137
  C:AFA0H         LINE#         138
  C:AFA3H         LINE#         139
  C:AFA3H         LINE#         140
  C:AFAAH         LINE#         141
  C:AFB4H         LINE#         142
  C:AFB4H         LINE#         143
  C:AFB8H         LINE#         144
  C:AFBAH         LINE#         145
  C:AFBAH         LINE#         146
  C:AFBAH         LINE#         147
  C:AFBDH         LINE#         148
  C:AFBFH         LINE#         149
  C:AFC4H         LINE#         150
  -------         ENDPROC       L_D_M
  -------         PROC          L?0056
  -------         ENDPROC       L?0056
  -------         PROC          _WR_EEPROM
  D:0002H         SYMBOL        control
  D:0004H         SYMBOL        Dir
  D:0003H         SYMBOL        data_eeprom
  -------         DO            
  D:0005H         SYMBOL        dir_h
  D:0001H         SYMBOL        dir_l
  -------         ENDDO         
  C:AEECH         LINE#         156
  C:AEEEH         LINE#         157
  C:AEEEH         LINE#         159
  C:AEF2H         LINE#         160
  C:AEF2H         LINE#         161
  C:AEF2H         LINE#         164
  C:AEF2H         LINE#         165
  C:AEF2H         LINE#         167
  C:AEF5H         LINE#         168
BL51 BANKED LINKER/LOCATER V6.22.2.0                                                  05/25/2021  12:30:00  PAGE 45


  C:AEF7H         LINE#         169
  C:AEFAH         LINE#         170
  C:AEFCH         LINE#         171
  C:AEFFH         LINE#         172
  C:AF04H         LINE#         173
  C:AF07H         LINE#         174
  C:AF0CH         LINE#         175
  C:AF0FH         LINE#         176
  C:AF12H         LINE#         177
  C:AF19H         LINE#         179
  C:AF1BH         LINE#         180
  C:AF1DH         LINE#         181
  C:AF24H         LINE#         182
  -------         ENDPROC       _WR_EEPROM
  C:B5A2H         SYMBOL        L?0060
  -------         PROC          L?0059
  -------         ENDPROC       L?0059
  C:B5A2H         SYMBOL        L?0060
  -------         PROC          _RD_EEPROM
  D:0003H         SYMBOL        control
  D:0004H         SYMBOL        Dir
  -------         DO            
  D:0005H         SYMBOL        dir_h
  D:0002H         SYMBOL        dir_l
  -------         ENDDO         
  C:B5A6H         LINE#         220
  C:B5A8H         LINE#         221
  C:B5A8H         LINE#         224
  C:B5ACH         LINE#         225
  C:B5ACH         LINE#         226
  C:B5ACH         LINE#         228
  C:B5ACH         LINE#         229
  C:B5ACH         LINE#         231
  C:B5AFH         LINE#         232
  C:B5B1H         LINE#         233
  C:B5B4H         LINE#         234
  C:B5B6H         LINE#         235
  C:B5B9H         LINE#         236
  C:B5BEH         LINE#         237
  C:B5C1H         LINE#         238
  C:B5C4H         LINE#         239
  C:B5CAH         LINE#         240
  C:B5CDH         LINE#         241
  C:B5CFH         LINE#         242
  C:B5D2H         LINE#         243
  C:B5D5H         LINE#         244
  C:B5D7H         LINE#         245
  C:B5D9H         LINE#         246
  C:B5DEH         LINE#         247
  -------         ENDPROC       _RD_EEPROM
  -------         PROC          _GRABA_SERIE
  X:0010H         SYMBOL        buffer
  -------         DO            
  X:0013H         SYMBOL        j
  X:0014H         SYMBOL        error
  -------         ENDDO         
  C:87C1H         LINE#         254
BL51 BANKED LINKER/LOCATER V6.22.2.0                                                  05/25/2021  12:30:00  PAGE 46


  C:87CCH         LINE#         255
  C:87CCH         LINE#         258
  C:87D1H         LINE#         263
  C:87E3H         LINE#         265
  C:87F6H         LINE#         266
  C:87F6H         LINE#         267
  C:881FH         LINE#         268
  C:881FH         LINE#         269
  C:8825H         LINE#         271
  C:882EH         LINE#         272
  C:883CH         LINE#         273
  C:8845H         LINE#         274
  C:8845H         LINE#         276
  C:884DH         LINE#         280
  C:8853H         LINE#         281
  C:8853H         LINE#         282
  C:8861H         LINE#         284
  C:8861H         LINE#         286
  C:8861H         LINE#         287
  C:886BH         LINE#         288
  C:8876H         LINE#         289
  C:8881H         LINE#         290
  C:888CH         LINE#         292
  C:888CH         LINE#         293
  -------         ENDPROC       _GRABA_SERIE
  -------         PROC          _WRITE_EEPROM_TICKET
  X:0015H         SYMBOL        buffer
  -------         DO            
  X:0018H         SYMBOL        cod_3
  X:0019H         SYMBOL        cod_2
  X:001AH         SYMBOL        cod_1
  X:001BH         SYMBOL        cod_0
  X:001CH         SYMBOL        Noticket
  D:0004H         SYMBOL        Bnoticket
  -------         ENDDO         
  C:7FF8H         LINE#         294
  C:8003H         LINE#         295
  C:8003H         LINE#         297
  C:800BH         LINE#         298
  C:8014H         LINE#         299
  C:8022H         LINE#         300
  C:802BH         LINE#         301
  C:803FH         LINE#         303
  C:8048H         LINE#         304
  C:805BH         LINE#         305
  C:8060H         LINE#         306
  C:8063H         LINE#         308
  C:8076H         LINE#         309
  C:807BH         LINE#         310
  C:807EH         LINE#         312
  C:8091H         LINE#         313
  C:8096H         LINE#         314
  C:8099H         LINE#         316
  C:80A5H         LINE#         317
  C:80A8H         LINE#         318
  C:80B1H         LINE#         320
  C:80BFH         LINE#         321
BL51 BANKED LINKER/LOCATER V6.22.2.0                                                  05/25/2021  12:30:00  PAGE 47


  C:80CDH         LINE#         322
  C:80DBH         LINE#         323
  -------         ENDPROC       _WRITE_EEPROM_TICKET
  -------         PROC          LEE_NO_TICKET
  -------         DO            
  D:0004H         SYMBOL        Noticket
  X:0043H         SYMBOL        Lee_No_Ticket
  D:0007H         SYMBOL        num_chr
  -------         ENDDO         
  C:AFC5H         LINE#         328
  C:AFC5H         LINE#         329
  C:AFC5H         LINE#         333
  C:AFC8H         LINE#         334
  C:AFE3H         LINE#         335
  C:AFECH         LINE#         336
  C:AFF8H         LINE#         337
  C:B001H         LINE#         338
  C:B00AH         LINE#         339
  C:B010H         LINE#         340
  -------         ENDPROC       LEE_NO_TICKET
  -------         PROC          READ_EEPROM_TICKET
  -------         DO            
  D:0001H         SYMBOL        cod3
  X:004EH         SYMBOL        cod2
  X:004FH         SYMBOL        cod1
  X:0050H         SYMBOL        cod0
  X:0051H         SYMBOL        Noticket
  -------         ENDDO         
  C:8958H         LINE#         344
  C:8958H         LINE#         345
  C:8958H         LINE#         347
  C:8962H         LINE#         348
  C:8969H         LINE#         349
  C:8973H         LINE#         350
  C:8981H         LINE#         351
  C:898BH         LINE#         353
  C:89ABH         LINE#         354
  C:89D0H         LINE#         355
  C:89F5H         LINE#         356
  C:8A13H         LINE#         357
  C:8A21H         LINE#         358
  -------         ENDPROC       READ_EEPROM_TICKET
  -------         PROC          INCREMENTE_TICKET
  -------         DO            
  D:0004H         SYMBOL        Noticket
  X:0006H         SYMBOL        Lee_No_Ticket
  -------         ENDDO         
  C:B7E7H         LINE#         362
  C:B7E7H         LINE#         363
  C:B7E7H         LINE#         367
  C:B7EAH         LINE#         368
  C:B7F7H         LINE#         369
  C:B812H         LINE#         370
  -------         ENDPROC       INCREMENTE_TICKET
  -------         PROC          _LEERMEMORIA
  X:009CH         SYMBOL        addres
  X:009EH         SYMBOL        res
BL51 BANKED LINKER/LOCATER V6.22.2.0                                                  05/25/2021  12:30:00  PAGE 48


  -------         DO            
  D:0007H         SYMBOL        i
  -------         ENDDO         
  C:AC9BH         LINE#         376
  C:ACACH         LINE#         377
  C:ACACH         LINE#         379
  C:ACACH         LINE#         380
  C:ACC8H         LINE#         381
  C:ACD7H         LINE#         382
  C:ACE5H         LINE#         383
  C:ACEFH         LINE#         384
  C:ACF2H         LINE#         385
  -------         ENDPROC       _LEERMEMORIA
  -------         PROC          _ESCRIBIRMEMORIA
  X:005DH         SYMBOL        addres
  X:005FH         SYMBOL        res
  C:AAEAH         LINE#         387
  C:AAFBH         LINE#         388
  C:AAFBH         LINE#         391
  C:AB0BH         LINE#         392
  C:AB12H         LINE#         393
  C:AB15H         LINE#         395
  C:AB23H         LINE#         396
  C:AB2DH         LINE#         397
  C:AB2FH         LINE#         398
  C:AB32H         LINE#         399
  C:AB40H         LINE#         400
  C:AB4AH         LINE#         401
  -------         ENDPROC       _ESCRIBIRMEMORIA
  -------         ENDMOD        EEPROM

  -------         MODULE        IO_SENSORES
  C:0000H         SYMBOL        _ICE_DUMMY_
  D:0090H         PUBLIC        P1
  D:00B0H         PUBLIC        P3
  C:B323H         PUBLIC        Dir_board
  B:0021H.7       PUBLIC        PULSADOR_BOTTON
  C:BCBEH         PUBLIC        sel_Pulsa
  B:0090H.1       PUBLIC        DataIn
  C:BB9EH         PUBLIC        Dir_Board_Monitor
  C:BCB7H         PUBLIC        sel_Auto
  C:B743H         PUBLIC        ValidaSensoresPaso
  B:00B0H.3       PUBLIC        busy
  C:BAE1H         PUBLIC        ValidaSensor
  C:BCCCH         PUBLIC        sel_Sensor1
  C:BCC5H         PUBLIC        sel_Sensor2
  C:BA5EH         PUBLIC        ValidaSensor_cero
  C:AE7AH         PUBLIC        Valida_Sensor1_Auto
  B:00B0H.5       PUBLIC        sel_A
  B:00B0H.6       PUBLIC        sel_B
  B:00B0H.7       PUBLIC        sel_C
  C:A3FEH         PUBLIC        msj_lcd_informativo
  C:BCD3H         PUBLIC        sel_Dir1
  C:BCDAH         PUBLIC        sel_Dir2
  C:BC00H         PUBLIC        Botton
  C:BCB0H         PUBLIC        sel_Funcion
  -------         PROC          SEL_FUNCION
BL51 BANKED LINKER/LOCATER V6.22.2.0                                                  05/25/2021  12:30:00  PAGE 49


  C:BCB0H         LINE#         33
  C:BCB0H         LINE#         34
  C:BCB0H         LINE#         35
  C:BCB2H         LINE#         36
  C:BCB4H         LINE#         37
  C:BCB6H         LINE#         38
  -------         ENDPROC       SEL_FUNCION
  -------         PROC          SEL_AUTO
  C:BCB7H         LINE#         40
  C:BCB7H         LINE#         41
  C:BCB7H         LINE#         42
  C:BCB9H         LINE#         43
  C:BCBBH         LINE#         44
  C:BCBDH         LINE#         45
  -------         ENDPROC       SEL_AUTO
  -------         PROC          SEL_PULSA
  C:BCBEH         LINE#         47
  C:BCBEH         LINE#         48
  C:BCBEH         LINE#         49
  C:BCC0H         LINE#         50
  C:BCC2H         LINE#         51
  C:BCC4H         LINE#         52
  -------         ENDPROC       SEL_PULSA
  -------         PROC          SEL_SENSOR2
  C:BCC5H         LINE#         55
  C:BCC5H         LINE#         56
  C:BCC5H         LINE#         57
  C:BCC7H         LINE#         58
  C:BCC9H         LINE#         59
  C:BCCBH         LINE#         60
  -------         ENDPROC       SEL_SENSOR2
  -------         PROC          SEL_SENSOR1
  C:BCCCH         LINE#         62
  C:BCCCH         LINE#         63
  C:BCCCH         LINE#         64
  C:BCCEH         LINE#         65
  C:BCD0H         LINE#         66
  C:BCD2H         LINE#         67
  -------         ENDPROC       SEL_SENSOR1
  -------         PROC          SEL_DIR1
  C:BCD3H         LINE#         69
  C:BCD3H         LINE#         70
  C:BCD3H         LINE#         71
  C:BCD5H         LINE#         72
  C:BCD7H         LINE#         73
  C:BCD9H         LINE#         74
  -------         ENDPROC       SEL_DIR1
  -------         PROC          SEL_DIR2
  C:BCDAH         LINE#         76
  C:BCDAH         LINE#         77
  C:BCDAH         LINE#         78
  C:BCDCH         LINE#         79
  C:BCDEH         LINE#         80
  C:BCE0H         LINE#         81
  -------         ENDPROC       SEL_DIR2
  -------         PROC          BOTTON
  C:BC00H         LINE#         82
BL51 BANKED LINKER/LOCATER V6.22.2.0                                                  05/25/2021  12:30:00  PAGE 50


  C:BC00H         LINE#         83
  C:BC00H         LINE#         84
  C:BC03H         LINE#         85
  C:BC06H         LINE#         86
  C:BC06H         LINE#         87
  C:BC0FH         LINE#         88
  C:BC11H         LINE#         89
  C:BC11H         LINE#         91
  -------         ENDPROC       BOTTON
  -------         PROC          VALIDASENSOR
  -------         DO            
  D:0007H         SYMBOL        Valido
  D:0004H         SYMBOL        Tmin
  -------         ENDDO         
  C:BAE1H         LINE#         93
  C:BAE1H         LINE#         94
  C:BAE1H         LINE#         96
  C:BAE3H         LINE#         97
  C:BAE7H         LINE#         98
  C:BAF2H         LINE#         99
  C:BAF2H         LINE#         100
  C:BAF7H         LINE#         101
  C:BAFBH         LINE#         102
  C:BAFBH         LINE#         103
  C:BAFDH         LINE#         104
  C:BAFDH         LINE#         105
  C:BAFFH         LINE#         106
  C:BAFFH         LINE#         107
  -------         ENDPROC       VALIDASENSOR
  -------         PROC          VALIDASENSOR_CERO
  -------         DO            
  D:0007H         SYMBOL        Valido
  D:0004H         SYMBOL        Tmin
  -------         ENDDO         
  C:BA5EH         LINE#         108
  C:BA5EH         LINE#         109
  C:BA5EH         LINE#         111
  C:BA60H         LINE#         112
  C:BA64H         LINE#         113
  C:BA73H         LINE#         114
  C:BA73H         LINE#         115
  C:BA78H         LINE#         116
  C:BA7CH         LINE#         117
  C:BA7CH         LINE#         118
  C:BA7DH         LINE#         119
  C:BA7DH         LINE#         120
  C:BA7FH         LINE#         121
  C:BA7FH         LINE#         122
  -------         ENDPROC       VALIDASENSOR_CERO
  -------         PROC          DIR_BOARD
  -------         DO            
  X:0032H         SYMBOL        Board
  D:0007H         SYMBOL        Board_High
  -------         ENDDO         
  C:B323H         LINE#         126
  C:B323H         LINE#         127
  C:B323H         LINE#         128
BL51 BANKED LINKER/LOCATER V6.22.2.0                                                  05/25/2021  12:30:00  PAGE 51


  C:B329H         LINE#         130
  C:B32CH         LINE#         131
  C:B32FH         LINE#         132
  C:B32FH         LINE#         133
  C:B332H         LINE#         134
  C:B332H         LINE#         135
  C:B335H         LINE#         136
  C:B338H         LINE#         137
  C:B338H         LINE#         138
  C:B33FH         LINE#         139
  C:B33FH         LINE#         140
  C:B347H         LINE#         141
  C:B347H         LINE#         142
  C:B34FH         LINE#         144
  C:B352H         LINE#         145
  C:B352H         LINE#         146
  C:B358H         LINE#         147
  C:B358H         LINE#         148
  C:B35AH         LINE#         149
  C:B35CH         LINE#         150
  C:B35EH         LINE#         151
  C:B35EH         LINE#         153
  C:B35EH         LINE#         154
  C:B365H         LINE#         155
  -------         ENDPROC       DIR_BOARD
  -------         PROC          DIR_BOARD_MONITOR
  -------         DO            
  D:0007H         SYMBOL        Board_High
  -------         ENDDO         
  C:BB9EH         LINE#         156
  C:BB9EH         LINE#         157
  C:BB9EH         LINE#         160
  C:BBA7H         LINE#         161
  C:BBAAH         LINE#         162
  C:BBAAH         LINE#         163
  C:BBADH         LINE#         164
  C:BBADH         LINE#         165
  C:BBAFH         LINE#         166
  C:BBAFH         LINE#         167
  C:BBAFH         LINE#         168
  C:BBB3H         LINE#         169
  -------         ENDPROC       DIR_BOARD_MONITOR
  -------         PROC          VALIDA_SENSOR1_AUTO
  -------         DO            
  X:0011H         SYMBOL        sensor
  -------         ENDDO         
  C:AE7AH         LINE#         173
  C:AE7AH         LINE#         174
  C:AE7AH         LINE#         176
  C:AE7DH         LINE#         177
  C:AE80H         LINE#         178
  C:AE83H         LINE#         179
  C:AE88H         LINE#         180
  C:AE88H         LINE#         181
  C:AE8FH         LINE#         182
  C:AE93H         LINE#         183
  C:AE93H         LINE#         184
BL51 BANKED LINKER/LOCATER V6.22.2.0                                                  05/25/2021  12:30:00  PAGE 52


  C:AE93H         LINE#         185
  C:AE95H         LINE#         187
  C:AE95H         LINE#         188
  C:AE9CH         LINE#         189
  C:AEA1H         LINE#         190
  C:AEA1H         LINE#         191
  C:AEA1H         LINE#         192
  C:AEA1H         LINE#         195
  C:AEA3H         LINE#         197
  C:AEA6H         LINE#         198
  C:AEABH         LINE#         199
  C:AEABH         LINE#         201
  C:AEB2H         LINE#         202
  C:AEB8H         LINE#         203
  C:AEBEH         LINE#         204
  C:AEC1H         LINE#         205
  C:AEC3H         LINE#         207
  C:AEC3H         LINE#         208
  C:AECAH         LINE#         209
  C:AECFH         LINE#         210
  C:AECFH         LINE#         213
  C:AECFH         LINE#         215
  C:AED4H         LINE#         216
  -------         ENDPROC       VALIDA_SENSOR1_AUTO
  -------         PROC          VALIDASENSORESPASO
  -------         DO            
  X:0010H         SYMBOL        sensor
  -------         ENDDO         
  C:B743H         LINE#         221
  C:B743H         LINE#         222
  C:B743H         LINE#         224
  C:B746H         LINE#         225
  C:B749H         LINE#         226
  C:B749H         LINE#         227
  C:B757H         LINE#         228
  C:B757H         LINE#         229
  C:B75FH         LINE#         231
  C:B761H         LINE#         233
  C:B761H         LINE#         234
  C:B767H         LINE#         235
  C:B769H         LINE#         236
  C:B769H         LINE#         237
  C:B769H         LINE#         238
  C:B769H         LINE#         239
  C:B772H         LINE#         240
  C:B775H         LINE#         241
  C:B775H         LINE#         242
  C:B77AH         LINE#         243
  -------         ENDPROC       VALIDASENSORESPASO
  -------         PROC          MSJ_LCD_INFORMATIVO
  -------         DO            
  X:0211H         SYMBOL        contador
  X:0001H         SYMBOL        info
  X:0212H         SYMBOL        toggle
  -------         ENDDO         
  C:A3FEH         LINE#         253
  C:A3FEH         LINE#         254
BL51 BANKED LINKER/LOCATER V6.22.2.0                                                  05/25/2021  12:30:00  PAGE 53


  C:A3FEH         LINE#         256
  C:A403H         LINE#         258
  C:A409H         LINE#         259
  C:A413H         LINE#         260
  C:A413H         LINE#         261
  C:A415H         LINE#         262
  C:A418H         LINE#         263
  C:A421H         LINE#         264
  C:A421H         LINE#         265
  C:A42BH         LINE#         266
  C:A42BH         LINE#         267
  C:A437H         LINE#         268
  C:A437H         LINE#         269
  C:A43AH         LINE#         270
  C:A43AH         LINE#         271
  C:A43CH         LINE#         272
  C:A43FH         LINE#         273
  C:A445H         LINE#         274
  C:A445H         LINE#         275
  C:A453H         LINE#         276
  C:A453H         LINE#         277
  C:A459H         LINE#         278
  C:A459H         LINE#         279
  C:A45BH         LINE#         280
  C:A469H         LINE#         281
  C:A469H         LINE#         282
  C:A46CH         LINE#         283
  C:A46CH         LINE#         284
  C:A46EH         LINE#         285
  C:A471H         LINE#         286
  C:A476H         LINE#         287
  C:A476H         LINE#         288
  C:A476H         LINE#         289
  C:A476H         LINE#         290
  C:A476H         LINE#         291
  C:A479H         LINE#         292
  C:A47CH         LINE#         293
  C:A47CH         LINE#         294
  C:A481H         LINE#         295
  C:A481H         LINE#         296
  C:A481H         LINE#         297
  -------         ENDPROC       MSJ_LCD_INFORMATIVO
  -------         ENDMOD        IO_SENSORES

  -------         MODULE        PANTALLAS
  C:0000H         SYMBOL        _ICE_DUMMY_
  D:0080H         PUBLIC        P0
  C:A88DH         PUBLIC        Reloj_Pantalla_Lcd
  C:2776H         PUBLIC        _PantallaLCD
  C:B2E7H         PUBLIC        _LCD_txt
  C:A593H         PUBLIC        _Raspberry_data
  C:B989H         PUBLIC        _tx_chrlcd
  C:356BH         SYMBOL        _?ix1000
  C:3571H         SYMBOL        _?ix1001
  C:3577H         SYMBOL        _?ix1002
  C:359FH         SYMBOL        _?ix1003
  C:B20DH         PUBLIC        _LCD_txt_num_char
BL51 BANKED LINKER/LOCATER V6.22.2.0                                                  05/25/2021  12:30:00  PAGE 54


  C:4C23H         PUBLIC        _PantallaLCD_LINEA_2
  B:0098H.4       PUBLIC        REN
  B:0080H.7       PUBLIC        sel_com
  -------         PROC          _PANTALLALCD
  X:002AH         SYMBOL        cod_msg
  -------         DO            
  X:002BH         SYMBOL        Ini_LCD_Line_one
  X:0031H         SYMBOL        num_chr
  X:0032H         SYMBOL        msjpantalla
  -------         ENDDO         
  C:2776H         LINE#         96
  C:277BH         LINE#         97
  C:277BH         LINE#         99
  C:278EH         LINE#         104
  C:2795H         LINE#         108
  C:2797H         LINE#         110
  C:27A0H         LINE#         111
  C:27A0H         LINE#         112
  C:27AAH         LINE#         114
  C:2806H         LINE#         115
  C:2806H         LINE#         117
  C:2806H         LINE#         118
  C:2814H         LINE#         119
  C:281AH         LINE#         120
  C:281DH         LINE#         121
  C:2823H         LINE#         122
  C:2826H         LINE#         124
  C:2826H         LINE#         126
  C:2834H         LINE#         127
  C:283AH         LINE#         128
  C:283DH         LINE#         129
  C:2843H         LINE#         130
  C:2846H         LINE#         132
  C:2846H         LINE#         134
  C:2854H         LINE#         135
  C:285AH         LINE#         136
  C:285DH         LINE#         137
  C:2863H         LINE#         138
  C:2866H         LINE#         139
  C:2866H         LINE#         140
  C:2874H         LINE#         141
  C:287AH         LINE#         142
  C:287DH         LINE#         143
  C:2883H         LINE#         144
  C:2886H         LINE#         145
  C:2886H         LINE#         146
  C:2894H         LINE#         147
  C:289AH         LINE#         148
  C:289DH         LINE#         149
  C:28A3H         LINE#         150
  C:28A6H         LINE#         151
  C:28A6H         LINE#         152
  C:28B4H         LINE#         153
  C:28BAH         LINE#         154
  C:28BDH         LINE#         155
  C:28C3H         LINE#         156
  C:28C6H         LINE#         157
BL51 BANKED LINKER/LOCATER V6.22.2.0                                                  05/25/2021  12:30:00  PAGE 55


  C:28C6H         LINE#         159
  C:28D4H         LINE#         160
  C:28DAH         LINE#         161
  C:28DDH         LINE#         162
  C:28E3H         LINE#         163
  C:28E6H         LINE#         164
  C:28E6H         LINE#         170
  C:28E6H         LINE#         171
  C:28F4H         LINE#         172
  C:28FAH         LINE#         173
  C:28FDH         LINE#         174
  C:2903H         LINE#         175
  C:2906H         LINE#         176
  C:2906H         LINE#         177
  C:2914H         LINE#         178
  C:291AH         LINE#         179
  C:291DH         LINE#         180
  C:2923H         LINE#         181
  C:2926H         LINE#         183
  C:2926H         LINE#         184
  C:2934H         LINE#         185
  C:293AH         LINE#         186
  C:293DH         LINE#         187
  C:2943H         LINE#         188
  C:2946H         LINE#         190
  C:2946H         LINE#         191
  C:2954H         LINE#         192
  C:295AH         LINE#         193
  C:295DH         LINE#         194
  C:2963H         LINE#         195
  C:2966H         LINE#         200
  C:2966H         LINE#         202
  C:2974H         LINE#         203
  C:297AH         LINE#         204
  C:297DH         LINE#         205
  C:2983H         LINE#         206
  C:2986H         LINE#         208
  C:2986H         LINE#         210
  C:2994H         LINE#         211
  C:299AH         LINE#         212
  C:299DH         LINE#         213
  C:29A3H         LINE#         214
  C:29A6H         LINE#         216
  C:29A6H         LINE#         217
  C:29B4H         LINE#         218
  C:29BAH         LINE#         219
  C:29BDH         LINE#         220
  C:29C3H         LINE#         221
  C:29C6H         LINE#         223
  C:29C6H         LINE#         225
  C:29D4H         LINE#         226
  C:29DAH         LINE#         227
  C:29DDH         LINE#         228
  C:29E3H         LINE#         229
  C:29E6H         LINE#         231
  C:29E6H         LINE#         233
  C:29F4H         LINE#         234
BL51 BANKED LINKER/LOCATER V6.22.2.0                                                  05/25/2021  12:30:00  PAGE 56


  C:29FAH         LINE#         235
  C:29FDH         LINE#         236
  C:2A03H         LINE#         237
  C:2A06H         LINE#         239
  C:2A06H         LINE#         240
  C:2A14H         LINE#         241
  C:2A1AH         LINE#         242
  C:2A1DH         LINE#         243
  C:2A23H         LINE#         244
  C:2A26H         LINE#         246
  C:2A26H         LINE#         247
  C:2A34H         LINE#         248
  C:2A3AH         LINE#         249
  C:2A3DH         LINE#         250
  C:2A43H         LINE#         251
  C:2A46H         LINE#         253
  C:2A46H         LINE#         255
  C:2A54H         LINE#         256
  C:2A5AH         LINE#         257
  C:2A5DH         LINE#         258
  C:2A63H         LINE#         259
  C:2A66H         LINE#         261
  C:2A66H         LINE#         262
  C:2A74H         LINE#         263
  C:2A7AH         LINE#         264
  C:2A7DH         LINE#         265
  C:2A83H         LINE#         266
  C:2A86H         LINE#         267
  C:2A86H         LINE#         268
  C:2A94H         LINE#         269
  C:2A9AH         LINE#         270
  C:2A9DH         LINE#         271
  C:2AA3H         LINE#         272
  C:2AA6H         LINE#         273
  C:2AA6H         LINE#         274
  C:2AB4H         LINE#         275
  C:2ABAH         LINE#         276
  C:2ABDH         LINE#         277
  C:2AC3H         LINE#         278
  C:2AC6H         LINE#         279
  C:2AC6H         LINE#         280
  C:2AD4H         LINE#         281
  C:2AD7H         LINE#         282
  C:2ADDH         LINE#         283
  C:2ADFH         LINE#         287
  C:2ADFH         LINE#         288
  C:2AEDH         LINE#         289
  C:2AF3H         LINE#         290
  C:2AF6H         LINE#         291
  C:2AFCH         LINE#         292
  C:2AFEH         LINE#         293
  C:2AFEH         LINE#         294
  C:2B0CH         LINE#         295
  C:2B12H         LINE#         296
  C:2B15H         LINE#         297
  C:2B1BH         LINE#         298
  C:2B1DH         LINE#         299
BL51 BANKED LINKER/LOCATER V6.22.2.0                                                  05/25/2021  12:30:00  PAGE 57


  C:2B1DH         LINE#         300
  C:2B2BH         LINE#         301
  C:2B31H         LINE#         302
  C:2B34H         LINE#         303
  C:2B3FH         LINE#         304
  C:2B3FH         LINE#         313
  C:2B3FH         LINE#         315
  C:2B3FH         LINE#         316
  C:2B3FH         LINE#         317
  C:2B41H         LINE#         319
  C:2B42H         LINE#         321
  C:2B42H         LINE#         322
  C:2B44H         LINE#         323
  C:2BB2H         LINE#         324
  C:2BB2H         LINE#         327
  C:2BB2H         LINE#         328
  C:2BC6H         LINE#         329
  C:2BC6H         LINE#         331
  C:2BC9H         LINE#         332
  C:2BC9H         LINE#         335
  C:2BDDH         LINE#         336
  C:2BDDH         LINE#         337
  C:2BE0H         LINE#         339
  C:2BE0H         LINE#         340
  C:2BF4H         LINE#         341
  C:2BF4H         LINE#         343
  C:2BF7H         LINE#         344
  C:2BF7H         LINE#         345
  C:2C0BH         LINE#         346
  C:2C0BH         LINE#         348
  C:2C0EH         LINE#         349
  C:2C0EH         LINE#         350
  C:2C22H         LINE#         351
  C:2C22H         LINE#         353
  C:2C25H         LINE#         354
  C:2C25H         LINE#         355
  C:2C39H         LINE#         356
  C:2C39H         LINE#         358
  C:2C3CH         LINE#         359
  C:2C3CH         LINE#         360
  C:2C50H         LINE#         361
  C:2C50H         LINE#         363
  C:2C53H         LINE#         364
  C:2C53H         LINE#         365
  C:2C67H         LINE#         366
  C:2C67H         LINE#         368
  C:2C6AH         LINE#         369
  C:2C6AH         LINE#         370
  C:2C7EH         LINE#         371
  C:2C7EH         LINE#         373
  C:2C81H         LINE#         374
  C:2C81H         LINE#         375
  C:2C95H         LINE#         376
  C:2C95H         LINE#         378
  C:2C98H         LINE#         380
  C:2C98H         LINE#         381
  C:2CACH         LINE#         382
BL51 BANKED LINKER/LOCATER V6.22.2.0                                                  05/25/2021  12:30:00  PAGE 58


  C:2CACH         LINE#         384
  C:2CAFH         LINE#         386
  C:2CAFH         LINE#         387
  C:2CC3H         LINE#         388
  C:2CC3H         LINE#         390
  C:2CC6H         LINE#         392
  C:2CC6H         LINE#         393
  C:2CDAH         LINE#         394
  C:2CDAH         LINE#         396
  C:2CDDH         LINE#         400
  C:2CDDH         LINE#         401
  C:2CF1H         LINE#         402
  C:2CF1H         LINE#         404
  C:2CF4H         LINE#         406
  C:2CF4H         LINE#         407
  C:2D08H         LINE#         408
  C:2D08H         LINE#         410
  C:2D0BH         LINE#         412
  C:2D0BH         LINE#         413
  C:2D1FH         LINE#         414
  C:2D1FH         LINE#         417
  C:2D22H         LINE#         418
  C:2D22H         LINE#         419
  C:2D36H         LINE#         420
  C:2D36H         LINE#         422
  C:2D39H         LINE#         423
  C:2D39H         LINE#         424
  C:2D4DH         LINE#         425
  C:2D4DH         LINE#         427
  C:2D50H         LINE#         428
  C:2D50H         LINE#         429
  C:2D64H         LINE#         430
  C:2D64H         LINE#         432
  C:2D67H         LINE#         433
  C:2D67H         LINE#         434
  C:2D7BH         LINE#         435
  C:2D7BH         LINE#         437
  C:2D7EH         LINE#         439
  C:2D7EH         LINE#         440
  C:2D92H         LINE#         441
  C:2D92H         LINE#         443
  C:2D95H         LINE#         445
  C:2D95H         LINE#         446
  C:2DA9H         LINE#         447
  C:2DA9H         LINE#         449
  C:2DACH         LINE#         450
  C:2DACH         LINE#         451
  C:2DC0H         LINE#         452
  C:2DC0H         LINE#         454
  C:2DC3H         LINE#         455
  C:2DC3H         LINE#         456
  C:2DD7H         LINE#         457
  C:2DD7H         LINE#         459
  C:2DDAH         LINE#         460
  C:2DDAH         LINE#         461
  C:2DEEH         LINE#         462
  C:2DEEH         LINE#         464
BL51 BANKED LINKER/LOCATER V6.22.2.0                                                  05/25/2021  12:30:00  PAGE 59


  C:2DF1H         LINE#         466
  C:2DF1H         LINE#         467
  C:2E05H         LINE#         468
  C:2E05H         LINE#         470
  C:2E08H         LINE#         471
  C:2E08H         LINE#         472
  C:2E1CH         LINE#         473
  C:2E1CH         LINE#         475
  C:2E1FH         LINE#         476
  C:2E1FH         LINE#         477
  C:2E33H         LINE#         478
  C:2E33H         LINE#         480
  C:2E35H         LINE#         482
  C:2E35H         LINE#         483
  C:2E49H         LINE#         484
  C:2E49H         LINE#         486
  C:2E4BH         LINE#         489
  C:2E4BH         LINE#         490
  C:2E5FH         LINE#         491
  C:2E5FH         LINE#         493
  C:2E61H         LINE#         494
  C:2E61H         LINE#         495
  C:2E75H         LINE#         496
  C:2E75H         LINE#         498
  C:2E77H         LINE#         499
  C:2E77H         LINE#         500
  C:2E8BH         LINE#         501
  C:2E8BH         LINE#         502
  C:2E8DH         LINE#         504
  C:2E8DH         LINE#         505
  C:2EA4H         LINE#         506
  C:2EB3H         LINE#         507
  C:2EB3H         LINE#         512
  C:2EB3H         LINE#         513
  C:2EB3H         LINE#         514
  C:2EB3H         LINE#         516
  C:2EBAH         LINE#         517
  C:2EBCH         LINE#         518
  C:2EBCH         LINE#         522
  -------         ENDPROC       _PANTALLALCD
  -------         PROC          _PANTALLALCD_LINEA_2
  X:0010H         SYMBOL        cod_msg
  X:0011H         SYMBOL        buffer
  -------         DO            
  X:0014H         SYMBOL        Ini_LCD_Line_one
  X:001AH         SYMBOL        num_chr
  X:001BH         SYMBOL        msjpantalla
  -------         ENDDO         
  C:4C23H         LINE#         523
  C:4C31H         LINE#         524
  C:4C31H         LINE#         526
  C:4C44H         LINE#         528
  C:4C57H         LINE#         535
  C:4C59H         LINE#         537
  C:4C62H         LINE#         538
  C:4C62H         LINE#         541
  C:4C70H         LINE#         542
BL51 BANKED LINKER/LOCATER V6.22.2.0                                                  05/25/2021  12:30:00  PAGE 60


  C:4C70H         LINE#         544
  C:4C70H         LINE#         545
  C:4C73H         LINE#         546
  C:4C81H         LINE#         547
  C:4C96H         LINE#         548
  C:4C9CH         LINE#         549
  C:4CA2H         LINE#         550
  C:4CA8H         LINE#         551
  C:4CA8H         LINE#         552
  C:4CAAH         LINE#         553
  C:4CAAH         LINE#         554
  C:4CADH         LINE#         555
  C:4CBBH         LINE#         556
  C:4CD0H         LINE#         557
  C:4CD6H         LINE#         558
  C:4CDCH         LINE#         559
  C:4CE7H         LINE#         560
  C:4CF7H         LINE#         561
  C:4CF7H         LINE#         565
  C:4CF7H         LINE#         567
  C:4CF7H         LINE#         569
  C:4CF7H         LINE#         570
  C:4CF9H         LINE#         571
  C:4CFAH         LINE#         573
  C:4CFAH         LINE#         574
  C:4CFCH         LINE#         576
  C:4D24H         LINE#         577
  C:4D24H         LINE#         578
  C:4D24H         LINE#         581
  C:4D30H         LINE#         583
  C:4D30H         LINE#         585
  C:4D30H         LINE#         588
  C:4D30H         LINE#         591
  C:4D33H         LINE#         593
  C:4D33H         LINE#         594
  C:4D3FH         LINE#         595
  C:4D3FH         LINE#         596
  C:4D3FH         LINE#         597
  C:4D3FH         LINE#         598
  C:4D3FH         LINE#         599
  C:4D3FH         LINE#         601
  C:4D42H         LINE#         602
  C:4D42H         LINE#         604
  C:4D4EH         LINE#         605
  C:4D51H         LINE#         606
  C:4D54H         LINE#         607
  C:4D54H         LINE#         609
  C:4D5DH         LINE#         611
  C:4D5DH         LINE#         612
  C:4D5FH         LINE#         614
  C:4D5FH         LINE#         616
  C:4D70H         LINE#         618
  C:4D73H         LINE#         620
  C:4D73H         LINE#         621
  C:4D7EH         LINE#         622
  C:4D7EH         LINE#         623
  C:4D85H         LINE#         625
BL51 BANKED LINKER/LOCATER V6.22.2.0                                                  05/25/2021  12:30:00  PAGE 61


  C:4D9BH         LINE#         627
  C:4DB2H         LINE#         628
  C:4DB5H         LINE#         630
  C:4DB5H         LINE#         631
  C:4DBCH         LINE#         633
  C:4DBCH         LINE#         634
  C:4DBCH         LINE#         637
  C:4DBFH         LINE#         638
  C:4DBFH         LINE#         639
  C:4DCEH         LINE#         640
  C:4DECH         LINE#         641
  C:4E03H         LINE#         643
  C:4E03H         LINE#         645
  C:4E06H         LINE#         646
  C:4E06H         LINE#         647
  C:4E15H         LINE#         648
  C:4E28H         LINE#         649
  C:4E42H         LINE#         650
  C:4E60H         LINE#         651
  C:4E77H         LINE#         652
  C:4E77H         LINE#         654
  C:4E79H         LINE#         655
  C:4E79H         LINE#         656
  C:4E88H         LINE#         657
  C:4EA6H         LINE#         658
  C:4EBDH         LINE#         659
  C:4EC0H         LINE#         660
  C:4EC0H         LINE#         661
  C:4EC0H         LINE#         663
  C:4EC0H         LINE#         664
  C:4EC0H         LINE#         666
  C:4EC5H         LINE#         667
  C:4EC7H         LINE#         668
  C:4EC7H         LINE#         669
  -------         ENDPROC       _PANTALLALCD_LINEA_2
  C:B980H         SYMBOL        L?0176
  C:B983H         SYMBOL        L?0177
  C:B984H         SYMBOL        L?0178
  -------         PROC          L?0175
  -------         ENDPROC       L?0175
  C:B980H         SYMBOL        L?0176
  C:B983H         SYMBOL        L?0177
  C:B984H         SYMBOL        L?0178
  -------         PROC          _TX_CHRLCD
  D:0007H         SYMBOL        data_com
  X:0048H         SYMBOL        enable_char_add
  -------         DO            
  X:0049H         SYMBOL        d
  -------         ENDDO         
  C:B989H         LINE#         675
  C:B98EH         LINE#         676
  C:B98EH         LINE#         678
  C:B996H         LINE#         679
  C:B9A6H         LINE#         681
  -------         ENDPROC       _TX_CHRLCD
  -------         PROC          L?0181
  -------         ENDPROC       L?0181
BL51 BANKED LINKER/LOCATER V6.22.2.0                                                  05/25/2021  12:30:00  PAGE 62


  -------         PROC          _LCD_TXT
  X:0043H         SYMBOL        msg
  X:0046H         SYMBOL        enable_char_add
  -------         DO            
  X:0047H         SYMBOL        i
  -------         ENDDO         
  C:B2E7H         LINE#         688
  C:B2F5H         LINE#         689
  C:B2F5H         LINE#         692
  C:B312H         LINE#         693
  C:B312H         LINE#         694
  C:B31AH         LINE#         695
  C:B322H         LINE#         696
  -------         ENDPROC       _LCD_TXT
  -------         PROC          _LCD_TXT_NUM_CHAR
  X:001DH         SYMBOL        msg
  X:0020H         SYMBOL        length_char
  X:0021H         SYMBOL        enable_char_add
  -------         DO            
  X:0022H         SYMBOL        i
  -------         ENDDO         
  C:B20DH         LINE#         703
  C:B21BH         LINE#         704
  C:B21BH         LINE#         707
  C:B22EH         LINE#         708
  C:B22EH         LINE#         709
  C:B24AH         LINE#         710
  C:B252H         LINE#         711
  -------         ENDPROC       _LCD_TXT_NUM_CHAR
  C:A58DH         SYMBOL        L?0180
  -------         PROC          L?0179
  -------         ENDPROC       L?0179
  C:A58DH         SYMBOL        L?0180
  -------         PROC          _RASPBERRY_DATA
  X:0043H         SYMBOL        msjpantalla
  -------         DO            
  X:0046H         SYMBOL        i
  X:0047H         SYMBOL        lenth_cadena
  X:0048H         SYMBOL        d
  -------         ENDDO         
  C:A593H         LINE#         713
  C:A59EH         LINE#         714
  C:A59EH         LINE#         721
  C:A5A6H         LINE#         723
  C:A5B8H         LINE#         724
  C:A5B8H         LINE#         726
  C:A5CAH         LINE#         727
  C:A5CAH         LINE#         728
  C:A5CFH         LINE#         729
  C:A5EDH         LINE#         731
  C:A5F5H         LINE#         734
  C:A607H         LINE#         735
  C:A607H         LINE#         737
  C:A60CH         LINE#         739
  -------         ENDPROC       _RASPBERRY_DATA
  -------         PROC          RELOJ_PANTALLA_LCD
  -------         DO            
BL51 BANKED LINKER/LOCATER V6.22.2.0                                                  05/25/2021  12:30:00  PAGE 63


  X:0010H         SYMBOL        Ini_Clock_LCD
  -------         ENDDO         
  C:A88DH         LINE#         747
  C:A88DH         LINE#         748
  C:A88DH         LINE#         750
  C:A8A0H         LINE#         752
  C:A8A6H         LINE#         753
  C:A8A6H         LINE#         754
  C:A8A8H         LINE#         755
  C:A8B1H         LINE#         759
  C:A8B3H         LINE#         760
  C:A8C3H         LINE#         762
  C:A8C5H         LINE#         763
  C:A8C7H         LINE#         765
  C:A8C8H         LINE#         767
  C:A8C8H         LINE#         768
  C:A8CAH         LINE#         769
  C:A8CFH         LINE#         770
  C:A8DEH         LINE#         772
  C:A8E7H         LINE#         773
  C:A8FEH         LINE#         774
  C:A907H         LINE#         777
  C:A909H         LINE#         778
  C:A909H         LINE#         779
  -------         ENDPROC       RELOJ_PANTALLA_LCD
  -------         ENDMOD        PANTALLAS

  -------         MODULE        PROG
  C:0000H         SYMBOL        _ICE_DUMMY_
  C:54F6H         PUBLIC        Prog_fecha_vencimiento
  C:6943H         PUBLIC        Prog_Sin_Cobro
  C:72C8H         PUBLIC        _Ver_Horario_Desde_Hasta
  C:7914H         PUBLIC        Prog_debug
  C:7C08H         PUBLIC        Prog_AntiPassBack
  C:9E9BH         PUBLIC        _GetOption
  X:01B3H         PUBLIC        validacion
  C:7E00H         PUBLIC        Prog_Validar_Tipo_Vehiculo_Mensual
  X:01BEH         PUBLIC        cursor
  C:71AEH         PUBLIC        _Prog_Horarios_on_off
  C:9B9CH         PUBLIC        Show
  C:4340H         PUBLIC        Ver_Prog
  C:B81BH         PUBLIC        Addr_Horarios
  C:9325H         PUBLIC        prog_id_cliente
  C:B36EH         PUBLIC        _ValidarClave
  C:4EC8H         PUBLIC        menu
  C:7A10H         PUBLIC        Prog_Use_Lpr
  C:AD01H         PUBLIC        _ListaComandos
  C:12F7H         SYMBOL        _?ix1000
  C:1302H         SYMBOL        _?ix1001
  C:1312H         SYMBOL        _?ix1002
  C:1322H         SYMBOL        _?ix1003
  C:1326H         SYMBOL        _?ix1004
  C:66BCH         PUBLIC        Prog_Horarios
  C:132AH         SYMBOL        _?ix1005
  C:7EFCH         PUBLIC        Prog_Apb_Mensual
  C:8D37H         PUBLIC        Prog_tarjeta_automatica_o_boton
  C:50F4H         PUBLIC        _hash_id
BL51 BANKED LINKER/LOCATER V6.22.2.0                                                  05/25/2021  12:30:00  PAGE 64


  C:496CH         PUBLIC        _Prog_Horario_dias
  C:90F4H         PUBLIC        Prog_tiempo_gracia
  C:A696H         PUBLIC        _IngresaDato
  X:01D2H         PUBLIC        comandos
  C:B0F1H         PUBLIC        First_Clave
  C:BB70H         PUBLIC        DisplayCursor
  C:7D04H         PUBLIC        Prog_Placa
  C:9037H         PUBLIC        prog_cod_park
  C:6CFBH         PUBLIC        Ver_Horario
  C:7086H         PUBLIC        _Ver_Horario_dias
  C:52FCH         PUBLIC        _Prog_Horario_Desde_Hasta
  C:7B0CH         PUBLIC        tipo_pantalla
  C:82B7H         PUBLIC        Prog_Address_High_Board
  C:B430H         PUBLIC        _GetCMD
  -------         PROC          _HASH_ID
  X:005DH         SYMBOL        clave
  -------         DO            
  X:0060H         SYMBOL        len_clave
  X:0061H         SYMBOL        i
  X:01AFH         SYMBOL        temp
  X:01B1H         SYMBOL        temp1
  X:0062H         SYMBOL        aleatorio
  X:006DH         SYMBOL        suma
  X:007DH         SYMBOL        xxor
  X:008DH         SYMBOL        usuario1
  X:0098H         SYMBOL        vencimiento_password
  -------         ENDDO         
  C:50F4H         LINE#         121
  C:50FFH         LINE#         122
  C:50FFH         LINE#         125
  C:5112H         LINE#         127
  C:5125H         LINE#         128
  C:5138H         LINE#         132
  C:5145H         LINE#         133
  C:5161H         LINE#         135
  C:5161H         LINE#         136
  C:5165H         LINE#         137
  C:5167H         LINE#         139
  C:5167H         LINE#         140
  C:516EH         LINE#         141
  C:516EH         LINE#         142
  C:5181H         LINE#         143
  C:5195H         LINE#         144
  C:5195H         LINE#         145
  C:51C1H         LINE#         146
  C:51CCH         LINE#         147
  C:51D9H         LINE#         148
  C:51F7H         LINE#         149
  C:5202H         LINE#         150
  C:520FH         LINE#         151
  C:5233H         LINE#         152
  C:523BH         LINE#         153
  C:523BH         LINE#         154
  C:5240H         LINE#         155
  C:5240H         LINE#         156
  C:5259H         LINE#         157
  C:5259H         LINE#         158
BL51 BANKED LINKER/LOCATER V6.22.2.0                                                  05/25/2021  12:30:00  PAGE 65


  C:5265H         LINE#         160
  C:5265H         LINE#         161
  C:5274H         LINE#         162
  C:5274H         LINE#         163
  C:5280H         LINE#         164
  C:5280H         LINE#         165
  C:5299H         LINE#         166
  C:5299H         LINE#         167
  C:52A4H         LINE#         168
  C:52A4H         LINE#         169
  C:52BDH         LINE#         170
  C:52BDH         LINE#         171
  C:52C8H         LINE#         172
  C:52C8H         LINE#         173
  C:52DDH         LINE#         175
  C:52E6H         LINE#         176
  C:52F5H         LINE#         178
  C:52FBH         LINE#         179
  -------         ENDPROC       _HASH_ID
  -------         PROC          _LISTACOMANDOS
  X:0046H         SYMBOL        cmd
  -------         DO            
  X:0049H         SYMBOL        buf
  X:004CH         SYMBOL        i
  -------         ENDDO         
  C:AD01H         LINE#         186
  C:AD0CH         LINE#         187
  C:AD0CH         LINE#         191
  C:AD1FH         LINE#         192
  C:AD1FH         LINE#         193
  C:AD37H         LINE#         194
  C:AD52H         LINE#         195
  C:AD58H         LINE#         196
  C:AD60H         LINE#         198
  C:AD62H         LINE#         199
  -------         ENDPROC       _LISTACOMANDOS
  -------         PROC          L?0274
  -------         ENDPROC       L?0274
  -------         PROC          _VALIDARCLAVE
  X:005DH         SYMBOL        buffer
  -------         DO            
  X:0060H         SYMBOL        buf
  -------         ENDDO         
  C:B36EH         LINE#         205
  C:B379H         LINE#         206
  C:B379H         LINE#         209
  C:B388H         LINE#         210
  C:B3A3H         LINE#         211
  C:B3A5H         LINE#         214
  C:B3A7H         LINE#         215
  -------         ENDPROC       _VALIDARCLAVE
  -------         PROC          L?0275
  -------         ENDPROC       L?0275
  -------         PROC          _GETCMD
  X:005DH         SYMBOL        in
  -------         DO            
  X:0060H         SYMBOL        tokens
BL51 BANKED LINKER/LOCATER V6.22.2.0                                                  05/25/2021  12:30:00  PAGE 66


  -------         ENDDO         
  C:B430H         LINE#         222
  C:B43BH         LINE#         223
  C:B43BH         LINE#         224
  C:B44EH         LINE#         225
  -------         ENDPROC       _GETCMD
  -------         PROC          L?0273
  -------         ENDPROC       L?0273
  -------         PROC          _GETOPTION
  X:0046H         SYMBOL        in
  -------         DO            
  X:0049H         SYMBOL        tokensSpace
  X:004DH         SYMBOL        tokensQuote
  -------         ENDDO         
  C:9E9BH         LINE#         231
  C:9EA6H         LINE#         232
  C:9EA6H         LINE#         233
  C:9EB9H         LINE#         234
  C:9ECCH         LINE#         237
  C:9EDEH         LINE#         238
  C:9EEAH         LINE#         241
  C:9EF1H         LINE#         242
  C:9EFEH         LINE#         244
  C:9F17H         LINE#         245
  -------         ENDPROC       _GETOPTION
  -------         PROC          DISPLAYCURSOR
  C:BB70H         LINE#         250
  C:BB70H         LINE#         251
  C:BB70H         LINE#         252
  -------         ENDPROC       DISPLAYCURSOR
  C:A692H         SYMBOL        L?0272
  -------         PROC          L?0271
  -------         ENDPROC       L?0271
  C:A692H         SYMBOL        L?0272
  -------         PROC          _INGRESADATO
  X:0071H         SYMBOL        buffer
  X:0074H         SYMBOL        modo
  -------         DO            
  D:0006H         SYMBOL        i
  -------         ENDDO         
  C:A696H         LINE#         259
  C:A6A4H         LINE#         260
  C:A6A4H         LINE#         265
  C:A6A4H         LINE#         266
  C:A6B6H         LINE#         267
  C:A6BCH         LINE#         268
  C:A6BCH         LINE#         269
  C:A6D7H         LINE#         270
  C:A6D9H         LINE#         272
  C:A6D9H         LINE#         273
  C:A6DEH         LINE#         274
  C:A6DEH         LINE#         275
  C:A6EFH         LINE#         276
  C:A6F9H         LINE#         277
  C:A708H         LINE#         279
  C:A70DH         LINE#         283
  -------         ENDPROC       _INGRESADATO
BL51 BANKED LINKER/LOCATER V6.22.2.0                                                  05/25/2021  12:30:00  PAGE 67


  -------         PROC          PROG_ID_CLIENTE
  -------         DO            
  X:0046H         SYMBOL        buffer
  X:0050H         SYMBOL        dataee
  -------         ENDDO         
  C:9325H         LINE#         300
  C:9325H         LINE#         301
  C:9325H         LINE#         305
  C:9337H         LINE#         306
  C:9354H         LINE#         308
  C:936BH         LINE#         310
  C:9374H         LINE#         311
  C:937BH         LINE#         312
  C:938CH         LINE#         313
  C:9395H         LINE#         315
  C:93A7H         LINE#         316
  C:93C4H         LINE#         317
  -------         ENDPROC       PROG_ID_CLIENTE
  -------         PROC          PROG_COD_PARK
  -------         DO            
  X:0046H         SYMBOL        buffer
  X:0050H         SYMBOL        dataee
  -------         ENDDO         
  C:9037H         LINE#         322
  C:9037H         LINE#         323
  C:9037H         LINE#         327
  C:904AH         LINE#         328
  C:9067H         LINE#         330
  C:907EH         LINE#         332
  C:9087H         LINE#         333
  C:9092H         LINE#         334
  C:90A3H         LINE#         335
  C:90ADH         LINE#         337
  C:90C0H         LINE#         338
  C:90DDH         LINE#         339
  -------         ENDPROC       PROG_COD_PARK
  -------         PROC          PROG_TIEMPO_GRACIA
  -------         DO            
  X:0046H         SYMBOL        buffer
  X:0050H         SYMBOL        dataee
  -------         ENDDO         
  C:90F4H         LINE#         344
  C:90F4H         LINE#         345
  C:90F4H         LINE#         349
  C:9107H         LINE#         350
  C:9124H         LINE#         352
  C:913BH         LINE#         354
  C:9144H         LINE#         355
  C:914FH         LINE#         356
  C:9160H         LINE#         357
  C:916AH         LINE#         359
  C:917DH         LINE#         360
  C:919AH         LINE#         361
  -------         ENDPROC       PROG_TIEMPO_GRACIA
  -------         PROC          PROG_SIN_COBRO
  -------         DO            
  X:0046H         SYMBOL        buffer
BL51 BANKED LINKER/LOCATER V6.22.2.0                                                  05/25/2021  12:30:00  PAGE 68


  X:0050H         SYMBOL        dataee
  -------         ENDDO         
  C:6943H         LINE#         367
  C:6943H         LINE#         368
  C:6943H         LINE#         374
  C:6956H         LINE#         375
  C:6973H         LINE#         376
  C:697DH         LINE#         377
  C:697DH         LINE#         378
  C:6990H         LINE#         379
  C:6992H         LINE#         380
  C:699EH         LINE#         381
  C:699EH         LINE#         382
  C:69B1H         LINE#         383
  C:69B3H         LINE#         385
  C:69B3H         LINE#         386
  C:69CAH         LINE#         387
  C:69CAH         LINE#         389
  C:69D3H         LINE#         390
  C:69DEH         LINE#         391
  C:69EFH         LINE#         392
  C:69F9H         LINE#         394
  C:6A0CH         LINE#         395
  C:6A29H         LINE#         396
  C:6A33H         LINE#         397
  C:6A33H         LINE#         398
  C:6A46H         LINE#         399
  C:6A48H         LINE#         400
  C:6A54H         LINE#         401
  C:6A54H         LINE#         402
  C:6A67H         LINE#         403
  C:6A69H         LINE#         405
  C:6A69H         LINE#         406
  C:6A80H         LINE#         407
  C:6A80H         LINE#         409
  -------         ENDPROC       PROG_SIN_COBRO
  -------         PROC          PROG_DEBUG
  -------         DO            
  X:0046H         SYMBOL        buffer
  X:0050H         SYMBOL        dataee
  -------         ENDDO         
  C:7914H         LINE#         415
  C:7914H         LINE#         416
  C:7914H         LINE#         421
  C:7927H         LINE#         422
  C:7944H         LINE#         423
  C:794EH         LINE#         424
  C:794EH         LINE#         425
  C:7961H         LINE#         426
  C:7963H         LINE#         428
  C:7963H         LINE#         429
  C:797AH         LINE#         430
  C:797AH         LINE#         432
  C:7983H         LINE#         433
  C:798EH         LINE#         434
  C:799FH         LINE#         435
  C:79A9H         LINE#         437
BL51 BANKED LINKER/LOCATER V6.22.2.0                                                  05/25/2021  12:30:00  PAGE 69


  C:79BCH         LINE#         438
  C:79D9H         LINE#         439
  C:79E3H         LINE#         440
  C:79E3H         LINE#         441
  C:79F6H         LINE#         442
  C:79F8H         LINE#         444
  C:79F8H         LINE#         445
  C:7A0FH         LINE#         446
  C:7A0FH         LINE#         447
  -------         ENDPROC       PROG_DEBUG
  -------         PROC          PROG_USE_LPR
  -------         DO            
  X:0046H         SYMBOL        buffer
  X:0050H         SYMBOL        dataee
  -------         ENDDO         
  C:7A10H         LINE#         452
  C:7A10H         LINE#         453
  C:7A10H         LINE#         458
  C:7A23H         LINE#         459
  C:7A40H         LINE#         460
  C:7A4AH         LINE#         461
  C:7A4AH         LINE#         462
  C:7A5DH         LINE#         463
  C:7A5FH         LINE#         465
  C:7A5FH         LINE#         466
  C:7A76H         LINE#         467
  C:7A76H         LINE#         469
  C:7A7FH         LINE#         470
  C:7A8AH         LINE#         471
  C:7A9BH         LINE#         472
  C:7AA5H         LINE#         474
  C:7AB8H         LINE#         475
  C:7AD5H         LINE#         476
  C:7ADFH         LINE#         477
  C:7ADFH         LINE#         478
  C:7AF2H         LINE#         479
  C:7AF4H         LINE#         481
  C:7AF4H         LINE#         482
  C:7B0BH         LINE#         483
  C:7B0BH         LINE#         484
  -------         ENDPROC       PROG_USE_LPR
  -------         PROC          TIPO_PANTALLA
  -------         DO            
  X:0046H         SYMBOL        buffer
  X:0050H         SYMBOL        dataee
  -------         ENDDO         
  C:7B0CH         LINE#         491
  C:7B0CH         LINE#         492
  C:7B0CH         LINE#         497
  C:7B1FH         LINE#         498
  C:7B3CH         LINE#         499
  C:7B46H         LINE#         500
  C:7B46H         LINE#         501
  C:7B59H         LINE#         502
  C:7B5BH         LINE#         504
  C:7B5BH         LINE#         505
  C:7B72H         LINE#         506
BL51 BANKED LINKER/LOCATER V6.22.2.0                                                  05/25/2021  12:30:00  PAGE 70


  C:7B72H         LINE#         508
  C:7B7BH         LINE#         509
  C:7B86H         LINE#         510
  C:7B97H         LINE#         511
  C:7BA1H         LINE#         513
  C:7BB4H         LINE#         514
  C:7BD1H         LINE#         515
  C:7BDBH         LINE#         516
  C:7BDBH         LINE#         517
  C:7BEEH         LINE#         518
  C:7BF0H         LINE#         520
  C:7BF0H         LINE#         521
  C:7C07H         LINE#         522
  C:7C07H         LINE#         524
  -------         ENDPROC       TIPO_PANTALLA
  -------         PROC          PROG_TARJETA_AUTOMATICA_O_BOTON
  -------         DO            
  X:0046H         SYMBOL        buffer
  X:0050H         SYMBOL        dataee
  -------         ENDDO         
  C:8D37H         LINE#         525
  C:8D37H         LINE#         526
  C:8D37H         LINE#         531
  C:8D4AH         LINE#         532
  C:8D67H         LINE#         533
  C:8D73H         LINE#         534
  C:8D73H         LINE#         535
  C:8D77H         LINE#         536
  C:8D79H         LINE#         538
  C:8D79H         LINE#         539
  C:8D80H         LINE#         540
  C:8D80H         LINE#         542
  C:8D89H         LINE#         543
  C:8D94H         LINE#         544
  C:8DA5H         LINE#         545
  C:8DAFH         LINE#         547
  C:8DC2H         LINE#         548
  C:8DDFH         LINE#         549
  C:8DEBH         LINE#         550
  C:8DEBH         LINE#         551
  C:8DEFH         LINE#         552
  C:8DF1H         LINE#         554
  C:8DF1H         LINE#         555
  C:8DF8H         LINE#         556
  C:8DF8H         LINE#         557
  -------         ENDPROC       PROG_TARJETA_AUTOMATICA_O_BOTON
  -------         PROC          PROG_ANTIPASSBACK
  -------         DO            
  X:0046H         SYMBOL        buffer
  X:0050H         SYMBOL        dataee
  -------         ENDDO         
  C:7C08H         LINE#         558
  C:7C08H         LINE#         559
  C:7C08H         LINE#         564
  C:7C1BH         LINE#         565
  C:7C38H         LINE#         566
  C:7C42H         LINE#         567
BL51 BANKED LINKER/LOCATER V6.22.2.0                                                  05/25/2021  12:30:00  PAGE 71


  C:7C42H         LINE#         568
  C:7C55H         LINE#         569
  C:7C57H         LINE#         571
  C:7C57H         LINE#         572
  C:7C6EH         LINE#         573
  C:7C6EH         LINE#         575
  C:7C77H         LINE#         576
  C:7C82H         LINE#         577
  C:7C93H         LINE#         578
  C:7C9DH         LINE#         580
  C:7CB0H         LINE#         581
  C:7CCDH         LINE#         582
  C:7CD7H         LINE#         583
  C:7CD7H         LINE#         584
  C:7CEAH         LINE#         585
  C:7CECH         LINE#         587
  C:7CECH         LINE#         588
  C:7D03H         LINE#         589
  C:7D03H         LINE#         590
  -------         ENDPROC       PROG_ANTIPASSBACK
  -------         PROC          PROG_PLACA
  -------         DO            
  X:0046H         SYMBOL        buffer
  X:0050H         SYMBOL        dataee
  -------         ENDDO         
  C:7D04H         LINE#         591
  C:7D04H         LINE#         592
  C:7D04H         LINE#         597
  C:7D17H         LINE#         598
  C:7D34H         LINE#         599
  C:7D3EH         LINE#         600
  C:7D3EH         LINE#         601
  C:7D51H         LINE#         602
  C:7D53H         LINE#         604
  C:7D53H         LINE#         605
  C:7D6AH         LINE#         606
  C:7D6AH         LINE#         608
  C:7D73H         LINE#         609
  C:7D7EH         LINE#         610
  C:7D8FH         LINE#         611
  C:7D99H         LINE#         613
  C:7DACH         LINE#         614
  C:7DC9H         LINE#         615
  C:7DD3H         LINE#         616
  C:7DD3H         LINE#         617
  C:7DE6H         LINE#         618
  C:7DE8H         LINE#         620
  C:7DE8H         LINE#         621
  C:7DFFH         LINE#         622
  C:7DFFH         LINE#         623
  -------         ENDPROC       PROG_PLACA
  -------         PROC          PROG_ADDRESS_HIGH_BOARD
  -------         DO            
  X:0046H         SYMBOL        buffer
  X:0050H         SYMBOL        dataee
  -------         ENDDO         
  C:82B7H         LINE#         624
BL51 BANKED LINKER/LOCATER V6.22.2.0                                                  05/25/2021  12:30:00  PAGE 72


  C:82B7H         LINE#         625
  C:82B7H         LINE#         630
  C:82CAH         LINE#         631
  C:82E7H         LINE#         632
  C:82F1H         LINE#         633
  C:82F1H         LINE#         634
  C:82F5H         LINE#         635
  C:82F7H         LINE#         637
  C:82F7H         LINE#         638
  C:830EH         LINE#         639
  C:830EH         LINE#         641
  C:8317H         LINE#         642
  C:8322H         LINE#         643
  C:8333H         LINE#         644
  C:833DH         LINE#         646
  C:8350H         LINE#         647
  C:836DH         LINE#         648
  C:8377H         LINE#         649
  C:8377H         LINE#         650
  C:837BH         LINE#         651
  C:837DH         LINE#         653
  C:837DH         LINE#         654
  C:8394H         LINE#         655
  C:8394H         LINE#         656
  -------         ENDPROC       PROG_ADDRESS_HIGH_BOARD
  -------         PROC          ADDR_HORARIOS
  -------         DO            
  X:0074H         SYMBOL        ee_addr_horario
  -------         ENDDO         
  C:B81BH         LINE#         658
  C:B81BH         LINE#         659
  C:B81BH         LINE#         662
  C:B821H         LINE#         663
  C:B825H         LINE#         664
  C:B829H         LINE#         665
  C:B82DH         LINE#         666
  C:B831H         LINE#         667
  C:B835H         LINE#         668
  C:B839H         LINE#         669
  C:B83DH         LINE#         670
  C:B841H         LINE#         671
  C:B845H         LINE#         672
  C:B848H         LINE#         673
  C:B84EH         LINE#         674
  -------         ENDPROC       ADDR_HORARIOS
  -------         PROC          _PROG_HORARIOS_ON_OFF
  X:0061H         SYMBOL        addr
  -------         DO            
  X:0063H         SYMBOL        buffer
  X:006DH         SYMBOL        dataee
  X:006FH         SYMBOL        habilitado
  -------         ENDDO         
  C:71AEH         LINE#         675
  C:71B8H         LINE#         676
  C:71B8H         LINE#         679
  C:71C7H         LINE#         680
  C:71E4H         LINE#         681
BL51 BANKED LINKER/LOCATER V6.22.2.0                                                  05/25/2021  12:30:00  PAGE 73


  C:71EEH         LINE#         682
  C:71EEH         LINE#         683
  C:7201H         LINE#         684
  C:7203H         LINE#         686
  C:7203H         LINE#         687
  C:721AH         LINE#         688
  C:721AH         LINE#         689
  C:7223H         LINE#         690
  C:722EH         LINE#         691
  C:723FH         LINE#         692
  C:724EH         LINE#         694
  C:7265H         LINE#         695
  C:7282H         LINE#         696
  C:728FH         LINE#         697
  C:728FH         LINE#         698
  C:7292H         LINE#         699
  C:72A5H         LINE#         700
  C:72A7H         LINE#         702
  C:72A7H         LINE#         703
  C:72ACH         LINE#         704
  C:72C1H         LINE#         705
  C:72C1H         LINE#         706
  C:72C7H         LINE#         707
  -------         ENDPROC       _PROG_HORARIOS_ON_OFF
  -------         PROC          _PROG_HORARIO_DESDE_HASTA
  X:0061H         SYMBOL        addr
  -------         DO            
  X:0063H         SYMBOL        buffer
  D:0007H         SYMBOL        dataee
  -------         ENDDO         
  C:52FCH         LINE#         708
  C:5304H         LINE#         709
  C:5304H         LINE#         714
  C:530DH         LINE#         715
  C:5310H         LINE#         716
  C:5319H         LINE#         717
  C:5331H         LINE#         718
  C:5344H         LINE#         719
  C:5352H         LINE#         720
  C:536AH         LINE#         721
  C:537DH         LINE#         722
  C:538BH         LINE#         723
  C:53A3H         LINE#         724
  C:53B6H         LINE#         725
  C:53C4H         LINE#         726
  C:53DCH         LINE#         727
  C:53EFH         LINE#         728
  C:53FDH         LINE#         732
  C:5406H         LINE#         733
  C:5409H         LINE#         735
  C:5412H         LINE#         737
  C:542AH         LINE#         738
  C:543DH         LINE#         739
  C:544BH         LINE#         740
  C:5463H         LINE#         741
  C:5476H         LINE#         742
  C:5484H         LINE#         743
BL51 BANKED LINKER/LOCATER V6.22.2.0                                                  05/25/2021  12:30:00  PAGE 74


  C:549CH         LINE#         744
  C:54AFH         LINE#         745
  C:54BDH         LINE#         746
  C:54D5H         LINE#         747
  C:54E8H         LINE#         748
  -------         ENDPROC       _PROG_HORARIO_DESDE_HASTA
  -------         PROC          _VER_HORARIO_DESDE_HASTA
  X:0074H         SYMBOL        addr
  -------         DO            
  D:0007H         SYMBOL        dataee
  -------         ENDDO         
  C:72C8H         LINE#         750
  C:72D0H         LINE#         751
  C:72D0H         LINE#         753
  C:72D9H         LINE#         754
  C:72ECH         LINE#         755
  C:72FAH         LINE#         756
  C:730DH         LINE#         757
  C:731BH         LINE#         758
  C:732EH         LINE#         759
  C:733CH         LINE#         760
  C:734FH         LINE#         761
  C:735DH         LINE#         763
  C:7370H         LINE#         764
  C:737EH         LINE#         766
  C:7391H         LINE#         767
  C:739FH         LINE#         769
  C:73B2H         LINE#         770
  C:73C0H         LINE#         772
  C:73D3H         LINE#         773
  -------         ENDPROC       _VER_HORARIO_DESDE_HASTA
  -------         PROC          _PROG_HORARIO_DIAS
  X:0061H         SYMBOL        addr
  -------         DO            
  X:0063H         SYMBOL        buffer
  X:006DH         SYMBOL        dataee
  X:006EH         SYMBOL        j
  X:006FH         SYMBOL        temp
  -------         ENDDO         
  C:496CH         LINE#         775
  C:4974H         LINE#         776
  C:4974H         LINE#         780
  C:497DH         LINE#         781
  C:4986H         LINE#         782
  C:498FH         LINE#         783
  C:499AH         LINE#         786
  C:49A3H         LINE#         788
  C:49B9H         LINE#         789
  C:49B9H         LINE#         791
  C:49CCH         LINE#         792
  C:49CCH         LINE#         793
  C:49D5H         LINE#         795
  C:49EAH         LINE#         796
  C:4A02H         LINE#         797
  C:4A0FH         LINE#         798
  C:4A0FH         LINE#         800
  C:4A25H         LINE#         801
BL51 BANKED LINKER/LOCATER V6.22.2.0                                                  05/25/2021  12:30:00  PAGE 75


  C:4A25H         LINE#         802
  C:4A2EH         LINE#         803
  C:4A43H         LINE#         804
  C:4A5BH         LINE#         805
  C:4A68H         LINE#         806
  C:4A68H         LINE#         808
  C:4A7EH         LINE#         809
  C:4A7EH         LINE#         810
  C:4A87H         LINE#         811
  C:4A9CH         LINE#         812
  C:4AB4H         LINE#         813
  C:4AC1H         LINE#         814
  C:4AC1H         LINE#         816
  C:4AD7H         LINE#         817
  C:4AD7H         LINE#         818
  C:4AE0H         LINE#         819
  C:4AF5H         LINE#         820
  C:4B0DH         LINE#         821
  C:4B1AH         LINE#         822
  C:4B1AH         LINE#         824
  C:4B30H         LINE#         825
  C:4B30H         LINE#         826
  C:4B39H         LINE#         827
  C:4B4EH         LINE#         828
  C:4B66H         LINE#         829
  C:4B73H         LINE#         830
  C:4B73H         LINE#         832
  C:4B89H         LINE#         833
  C:4B89H         LINE#         834
  C:4B92H         LINE#         835
  C:4BA7H         LINE#         836
  C:4BBFH         LINE#         837
  C:4BCCH         LINE#         838
  C:4BCCH         LINE#         840
  C:4BE2H         LINE#         841
  C:4BE2H         LINE#         842
  C:4BEBH         LINE#         843
  C:4BFAH         LINE#         844
  C:4C0CH         LINE#         845
  C:4C19H         LINE#         846
  C:4C19H         LINE#         847
  C:4C22H         LINE#         849
  -------         ENDPROC       _PROG_HORARIO_DIAS
  -------         PROC          _VER_HORARIO_DIAS
  X:0074H         SYMBOL        addr
  -------         DO            
  X:0076H         SYMBOL        dataee
  -------         ENDDO         
  C:7086H         LINE#         850
  C:708EH         LINE#         851
  C:708EH         LINE#         854
  C:709EH         LINE#         855
  C:70A4H         LINE#         856
  C:70A4H         LINE#         857
  C:70A8H         LINE#         858
  C:70AAH         LINE#         860
  C:70AAH         LINE#         861
BL51 BANKED LINKER/LOCATER V6.22.2.0                                                  05/25/2021  12:30:00  PAGE 76


  C:70B1H         LINE#         862
  C:70B1H         LINE#         865
  C:70C9H         LINE#         866
  C:70CFH         LINE#         867
  C:70CFH         LINE#         868
  C:70D3H         LINE#         869
  C:70D5H         LINE#         871
  C:70D5H         LINE#         872
  C:70DCH         LINE#         873
  C:70DCH         LINE#         876
  C:70F4H         LINE#         877
  C:70FAH         LINE#         878
  C:70FAH         LINE#         879
  C:70FEH         LINE#         880
  C:7100H         LINE#         882
  C:7100H         LINE#         883
  C:7107H         LINE#         884
  C:7107H         LINE#         886
  C:711FH         LINE#         887
  C:7125H         LINE#         888
  C:7125H         LINE#         889
  C:7129H         LINE#         890
  C:712BH         LINE#         892
  C:712BH         LINE#         893
  C:7132H         LINE#         894
  C:7132H         LINE#         896
  C:714AH         LINE#         897
  C:7150H         LINE#         898
  C:7150H         LINE#         899
  C:7154H         LINE#         900
  C:7156H         LINE#         902
  C:7156H         LINE#         903
  C:715DH         LINE#         904
  C:715DH         LINE#         907
  C:7175H         LINE#         908
  C:717BH         LINE#         909
  C:717BH         LINE#         910
  C:717FH         LINE#         911
  C:7181H         LINE#         913
  C:7181H         LINE#         914
  C:7188H         LINE#         915
  C:7188H         LINE#         917
  C:719AH         LINE#         918
  C:71A0H         LINE#         919
  C:71A0H         LINE#         920
  C:71A4H         LINE#         921
  C:71A6H         LINE#         923
  C:71A6H         LINE#         924
  C:71ADH         LINE#         925
  C:71ADH         LINE#         926
  -------         ENDPROC       _VER_HORARIO_DIAS
  -------         PROC          PROG_HORARIOS
  -------         DO            
  X:0046H         SYMBOL        buffer
  X:0050H         SYMBOL        ee_addr_horario
  X:005BH         SYMBOL        addr
  X:005DH         SYMBOL        temp
BL51 BANKED LINKER/LOCATER V6.22.2.0                                                  05/25/2021  12:30:00  PAGE 77


  X:005FH         SYMBOL        dataee
  X:0060H         SYMBOL        j
  -------         ENDDO         
  C:66BCH         LINE#         927
  C:66BCH         LINE#         928
  C:66BCH         LINE#         937
  C:66C8H         LINE#         941
  C:66D1H         LINE#         942
  C:66DCH         LINE#         944
  C:66EBH         LINE#         948
  C:6701H         LINE#         949
  C:6707H         LINE#         953
  C:6715H         LINE#         954
  C:671DH         LINE#         955
  C:671DH         LINE#         957
  C:672CH         LINE#         958
  C:6740H         LINE#         959
  C:6740H         LINE#         960
  C:6754H         LINE#         961
  C:675CH         LINE#         963
  C:676CH         LINE#         966
  C:676FH         LINE#         970
  C:677AH         LINE#         973
  C:6783H         LINE#         974
  C:678EH         LINE#         975
  C:679DH         LINE#         976
  C:67B0H         LINE#         978
  C:67C8H         LINE#         979
  C:67E2H         LINE#         980
  C:67EAH         LINE#         981
  C:67EAH         LINE#         983
  C:67F8H         LINE#         984
  C:6800H         LINE#         985
  C:6800H         LINE#         986
  C:6800H         LINE#         988
  -------         ENDPROC       PROG_HORARIOS
  -------         PROC          PROG_VALIDAR_TIPO_VEHICULO_MENSUAL
  -------         DO            
  X:0046H         SYMBOL        buffer
  X:0050H         SYMBOL        dataee
  -------         ENDDO         
  C:7E00H         LINE#         989
  C:7E00H         LINE#         990
  C:7E00H         LINE#         995
  C:7E13H         LINE#         996
  C:7E30H         LINE#         997
  C:7E3AH         LINE#         998
  C:7E3AH         LINE#         999
  C:7E4DH         LINE#         1000
  C:7E4FH         LINE#         1002
  C:7E4FH         LINE#         1003
  C:7E66H         LINE#         1004
  C:7E66H         LINE#         1006
  C:7E6FH         LINE#         1007
  C:7E7AH         LINE#         1008
  C:7E8BH         LINE#         1009
  C:7E95H         LINE#         1011
BL51 BANKED LINKER/LOCATER V6.22.2.0                                                  05/25/2021  12:30:00  PAGE 78


  C:7EA8H         LINE#         1012
  C:7EC5H         LINE#         1013
  C:7ECFH         LINE#         1014
  C:7ECFH         LINE#         1015
  C:7EE2H         LINE#         1016
  C:7EE4H         LINE#         1018
  C:7EE4H         LINE#         1019
  C:7EFBH         LINE#         1020
  C:7EFBH         LINE#         1021
  -------         ENDPROC       PROG_VALIDAR_TIPO_VEHICULO_MENSUAL
  -------         PROC          PROG_APB_MENSUAL
  -------         DO            
  X:0046H         SYMBOL        buffer
  X:0050H         SYMBOL        dataee
  -------         ENDDO         
  C:7EFCH         LINE#         1022
  C:7EFCH         LINE#         1023
  C:7EFCH         LINE#         1028
  C:7F0FH         LINE#         1029
  C:7F2CH         LINE#         1030
  C:7F36H         LINE#         1031
  C:7F36H         LINE#         1032
  C:7F49H         LINE#         1033
  C:7F4BH         LINE#         1035
  C:7F4BH         LINE#         1036
  C:7F62H         LINE#         1037
  C:7F62H         LINE#         1039
  C:7F6BH         LINE#         1040
  C:7F76H         LINE#         1041
  C:7F87H         LINE#         1042
  C:7F91H         LINE#         1044
  C:7FA4H         LINE#         1045
  C:7FC1H         LINE#         1046
  C:7FCBH         LINE#         1047
  C:7FCBH         LINE#         1048
  C:7FDEH         LINE#         1049
  C:7FE0H         LINE#         1051
  C:7FE0H         LINE#         1052
  C:7FF7H         LINE#         1053
  C:7FF7H         LINE#         1054
  -------         ENDPROC       PROG_APB_MENSUAL
  -------         PROC          PROG_FECHA_VENCIMIENTO
  -------         DO            
  X:0046H         SYMBOL        buffer
  X:0051H         SYMBOL        cmd
  X:0054H         SYMBOL        fecha
  X:005BH         SYMBOL        dataee
  -------         ENDDO         
  C:54F6H         LINE#         1056
  C:54F6H         LINE#         1057
  C:54F6H         LINE#         1064
  C:5503H         LINE#         1065
  C:551AH         LINE#         1068
  C:5531H         LINE#         1070
  C:5531H         LINE#         1071
  C:553AH         LINE#         1072
  C:5547H         LINE#         1073
BL51 BANKED LINKER/LOCATER V6.22.2.0                                                  05/25/2021  12:30:00  PAGE 79


  C:555EH         LINE#         1074
  C:5570H         LINE#         1075
  C:5579H         LINE#         1080
  C:5584H         LINE#         1081
  C:5598H         LINE#         1082
  C:55A5H         LINE#         1084
  C:55AEH         LINE#         1087
  C:55B7H         LINE#         1088
  C:55C2H         LINE#         1089
  C:55D9H         LINE#         1091
  C:55E1H         LINE#         1092
  C:55E9H         LINE#         1093
  C:55ECH         LINE#         1095
  C:55FDH         LINE#         1096
  C:560EH         LINE#         1098
  C:561DH         LINE#         1099
  C:5625H         LINE#         1100
  C:562DH         LINE#         1101
  C:5630H         LINE#         1102
  C:5641H         LINE#         1103
  C:5652H         LINE#         1104
  C:5661H         LINE#         1105
  C:5669H         LINE#         1106
  C:5671H         LINE#         1107
  C:5674H         LINE#         1108
  C:5685H         LINE#         1109
  C:5696H         LINE#         1110
  C:56A5H         LINE#         1111
  C:56B0H         LINE#         1113
  C:56BDH         LINE#         1115
  C:56D4H         LINE#         1116
  -------         ENDPROC       PROG_FECHA_VENCIMIENTO
  -------         PROC          VER_HORARIO
  -------         DO            
  X:0059H         SYMBOL        buffer
  X:0063H         SYMBOL        ee_addr_horario
  X:006EH         SYMBOL        conta
  X:006FH         SYMBOL        addr
  X:0071H         SYMBOL        temp
  X:0073H         SYMBOL        dataee
  -------         ENDDO         
  C:6CFBH         LINE#         1119
  C:6CFBH         LINE#         1120
  C:6CFBH         LINE#         1129
  C:6D07H         LINE#         1130
  C:6D1DH         LINE#         1131
  C:6D1DH         LINE#         1133
  C:6D2DH         LINE#         1136
  C:6D46H         LINE#         1137
  C:6D4CH         LINE#         1140
  C:6D5AH         LINE#         1141
  C:6D69H         LINE#         1142
  C:6D83H         LINE#         1143
  C:6D8EH         LINE#         1144
  C:6D8EH         LINE#         1145
  C:6D97H         LINE#         1147
  C:6DA0H         LINE#         1148
BL51 BANKED LINKER/LOCATER V6.22.2.0                                                  05/25/2021  12:30:00  PAGE 80


  C:6DB0H         LINE#         1149
  C:6DB3H         LINE#         1151
  C:6DBEH         LINE#         1152
  C:6DD6H         LINE#         1153
  C:6DF0H         LINE#         1154
  C:6DFAH         LINE#         1155
  C:6DFAH         LINE#         1156
  C:6E01H         LINE#         1158
  C:6E0FH         LINE#         1159
  C:6E17H         LINE#         1160
  C:6E19H         LINE#         1162
  C:6E19H         LINE#         1163
  C:6E1DH         LINE#         1164
  C:6E1DH         LINE#         1165
  C:6E1FH         LINE#         1167
  C:6E1FH         LINE#         1168
  C:6E28H         LINE#         1169
  C:6E28H         LINE#         1171
  C:6E31H         LINE#         1174
  -------         ENDPROC       VER_HORARIO
  -------         PROC          VER_PROG
  -------         DO            
  X:0046H         SYMBOL        buffer
  X:0050H         SYMBOL        dataee
  X:0052H         SYMBOL        fecha
  -------         ENDDO         
  C:4340H         LINE#         1175
  C:4340H         LINE#         1176
  C:4340H         LINE#         1182
  C:4352H         LINE#         1183
  C:436FH         LINE#         1185
  C:4386H         LINE#         1187
  C:4399H         LINE#         1188
  C:43B6H         LINE#         1190
  C:43CDH         LINE#         1192
  C:43E0H         LINE#         1193
  C:43FDH         LINE#         1194
  C:440BH         LINE#         1195
  C:440BH         LINE#         1196
  C:440FH         LINE#         1197
  C:4411H         LINE#         1199
  C:4411H         LINE#         1200
  C:4418H         LINE#         1201
  C:4418H         LINE#         1203
  C:442BH         LINE#         1204
  C:4448H         LINE#         1205
  C:4454H         LINE#         1206
  C:4454H         LINE#         1207
  C:4458H         LINE#         1208
  C:445AH         LINE#         1210
  C:445AH         LINE#         1211
  C:4461H         LINE#         1212
  C:4461H         LINE#         1214
  C:4474H         LINE#         1215
  C:4491H         LINE#         1216
  C:449DH         LINE#         1217
  C:449DH         LINE#         1218
BL51 BANKED LINKER/LOCATER V6.22.2.0                                                  05/25/2021  12:30:00  PAGE 81


  C:44A1H         LINE#         1219
  C:44A3H         LINE#         1221
  C:44A3H         LINE#         1222
  C:44AAH         LINE#         1223
  C:44AAH         LINE#         1225
  C:44BDH         LINE#         1226
  C:44DAH         LINE#         1227
  C:44E6H         LINE#         1228
  C:44E6H         LINE#         1229
  C:44EAH         LINE#         1230
  C:44ECH         LINE#         1232
  C:44ECH         LINE#         1233
  C:44F3H         LINE#         1234
  C:44F3H         LINE#         1236
  C:4506H         LINE#         1237
  C:4523H         LINE#         1238
  C:452FH         LINE#         1239
  C:452FH         LINE#         1240
  C:4533H         LINE#         1241
  C:4535H         LINE#         1243
  C:4535H         LINE#         1244
  C:453CH         LINE#         1245
  C:453CH         LINE#         1247
  C:454FH         LINE#         1248
  C:456CH         LINE#         1249
  C:4578H         LINE#         1250
  C:4578H         LINE#         1251
  C:457CH         LINE#         1252
  C:457EH         LINE#         1254
  C:457EH         LINE#         1255
  C:4585H         LINE#         1256
  C:4585H         LINE#         1259
  C:4598H         LINE#         1260
  C:45B5H         LINE#         1262
  C:45CCH         LINE#         1264
  C:45CFH         LINE#         1268
  C:45E2H         LINE#         1269
  C:45FFH         LINE#         1270
  C:460BH         LINE#         1271
  C:460BH         LINE#         1272
  C:460FH         LINE#         1273
  C:4611H         LINE#         1275
  C:4611H         LINE#         1276
  C:4618H         LINE#         1277
  C:4618H         LINE#         1279
  C:462BH         LINE#         1280
  C:4648H         LINE#         1281
  C:4654H         LINE#         1282
  C:4654H         LINE#         1283
  C:4658H         LINE#         1284
  C:465AH         LINE#         1286
  C:465AH         LINE#         1287
  C:4661H         LINE#         1288
  C:4661H         LINE#         1290
  C:466EH         LINE#         1292
  C:4685H         LINE#         1293
  -------         ENDPROC       VER_PROG
BL51 BANKED LINKER/LOCATER V6.22.2.0                                                  05/25/2021  12:30:00  PAGE 82


  -------         PROC          SHOW
  C:9B9CH         LINE#         1299
  C:9B9CH         LINE#         1300
  C:9B9CH         LINE#         1301
  C:9BA5H         LINE#         1302
  C:9BAEH         LINE#         1303
  C:9BB7H         LINE#         1304
  C:9BC0H         LINE#         1305
  C:9BC9H         LINE#         1306
  C:9BD2H         LINE#         1307
  C:9BDBH         LINE#         1308
  C:9BE4H         LINE#         1309
  C:9BEDH         LINE#         1310
  C:9BF6H         LINE#         1311
  C:9BFFH         LINE#         1312
  C:9C08H         LINE#         1313
  C:9C11H         LINE#         1314
  C:9C1AH         LINE#         1315
  C:9C23H         LINE#         1316
  C:9C2CH         LINE#         1317
  -------         ENDPROC       SHOW
  -------         PROC          FIRST_CLAVE
  -------         DO            
  X:0046H         SYMBOL        clave
  -------         ENDDO         
  C:B0F1H         LINE#         1324
  C:B0F1H         LINE#         1325
  C:B0F1H         LINE#         1329
  C:B0FAH         LINE#         1330
  C:B0FFH         LINE#         1331
  C:B111H         LINE#         1332
  C:B11EH         LINE#         1333
  C:B124H         LINE#         1334
  C:B127H         LINE#         1335
  C:B12AH         LINE#         1336
  C:B12CH         LINE#         1338
  -------         ENDPROC       FIRST_CLAVE
  -------         PROC          MENU
  -------         DO            
  X:0001H         SYMBOL        cmd
  X:0004H         SYMBOL        option1
  X:0007H         SYMBOL        option2
  X:000AH         SYMBOL        opt_buffer
  X:0032H         SYMBOL        buffer
  -------         ENDDO         
  C:4EC8H         LINE#         1342
  C:4EC8H         LINE#         1343
  C:4EC8H         LINE#         1352
  C:4ED1H         LINE#         1357
  C:4EDDH         LINE#         1358
  C:4EDDH         LINE#         1359
  C:4EE0H         LINE#         1360
  C:4EEAH         LINE#         1363
  C:4EEAH         LINE#         1365
  C:4EEAH         LINE#         1366
  C:4EF3H         LINE#         1367
  C:4F00H         LINE#         1368
BL51 BANKED LINKER/LOCATER V6.22.2.0                                                  05/25/2021  12:30:00  PAGE 83


  C:4F05H         LINE#         1369
  C:4F1BH         LINE#         1370
  C:4F2DH         LINE#         1371
  C:4F36H         LINE#         1376
  C:4F41H         LINE#         1377
  C:4F4FH         LINE#         1378
  C:4F5CH         LINE#         1380
  C:4F65H         LINE#         1384
  C:4F68H         LINE#         1385
  C:4F68H         LINE#         1386
  C:4F68H         LINE#         1387
  C:4F6BH         LINE#         1390
  C:4F76H         LINE#         1391
  C:4F84H         LINE#         1392
  C:4F98H         LINE#         1393
  C:4FACH         LINE#         1398
  C:4FC2H         LINE#         1399
  C:4FC2H         LINE#         1401
  C:4FD1H         LINE#         1402
  C:4FD3H         LINE#         1403
  C:4FE3H         LINE#         1404
  C:4FE3H         LINE#         1406
  C:4FF2H         LINE#         1407
  C:5010H         LINE#         1408
  C:5010H         LINE#         1414
  C:5023H         LINE#         1415
  C:5023H         LINE#         1416
  C:506CH         LINE#         1417
  C:506CH         LINE#         1418
  C:506CH         LINE#         1419
  C:506FH         LINE#         1421
  C:5072H         LINE#         1423
  C:5072H         LINE#         1424
  C:5075H         LINE#         1425
  C:5078H         LINE#         1426
  C:5078H         LINE#         1427
  C:507BH         LINE#         1428
  C:507EH         LINE#         1429
  C:507EH         LINE#         1430
  C:5081H         LINE#         1431
  C:5084H         LINE#         1432
  C:5084H         LINE#         1433
  C:5087H         LINE#         1434
  C:508AH         LINE#         1435
  C:508AH         LINE#         1436
  C:508DH         LINE#         1437
  C:5090H         LINE#         1438
  C:5090H         LINE#         1439
  C:5093H         LINE#         1440
  C:5096H         LINE#         1441
  C:5096H         LINE#         1442
  C:5099H         LINE#         1443
  C:509CH         LINE#         1444
  C:509CH         LINE#         1445
  C:509FH         LINE#         1446
  C:50A2H         LINE#         1447
  C:50A2H         LINE#         1448
BL51 BANKED LINKER/LOCATER V6.22.2.0                                                  05/25/2021  12:30:00  PAGE 84


  C:50A5H         LINE#         1449
  C:50A8H         LINE#         1450
  C:50A8H         LINE#         1451
  C:50ABH         LINE#         1452
  C:50AEH         LINE#         1453
  C:50AEH         LINE#         1454
  C:50B1H         LINE#         1455
  C:50B4H         LINE#         1456
  C:50B4H         LINE#         1457
  C:50B7H         LINE#         1458
  C:50BAH         LINE#         1459
  C:50BAH         LINE#         1460
  C:50BDH         LINE#         1461
  C:50C0H         LINE#         1462
  C:50C0H         LINE#         1463
  C:50C3H         LINE#         1464
  C:50C6H         LINE#         1465
  C:50C6H         LINE#         1466
  C:50C9H         LINE#         1467
  C:50CCH         LINE#         1468
  C:50CCH         LINE#         1470
  C:50CCH         LINE#         1471
  C:50CCH         LINE#         1472
  C:50CFH         LINE#         1473
  C:50D2H         LINE#         1476
  C:50D2H         LINE#         1477
  C:50F0H         LINE#         1478
  C:50F3H         LINE#         1479
  C:50F3H         LINE#         1480
  C:50F3H         LINE#         1481
  C:50F3H         LINE#         1482
  -------         ENDPROC       MENU
  -------         ENDMOD        PROG

  -------         MODULE        PTO_PARALELO
  C:0000H         SYMBOL        _ICE_DUMMY_
  D:0080H         PUBLIC        P0
  D:00A0H         PUBLIC        P2
  D:00B0H         PUBLIC        P3
  B:0080H.2       PUBLIC        led_err_imp
  C:6BBFH         PUBLIC        load_and_send_id_cod
  C:9C35H         PUBLIC        _recibe_port
  B:00B0H.2       PUBLIC        ready
  B:0080H.6       PUBLIC        rx_in_data
  C:BC12H         PUBLIC        Pulso_Bus
  C:A1E0H         PUBLIC        _send_portERR
  B:00B0H.3       PUBLIC        busy
  C:B011H         PUBLIC        load_and_send_info_reloj
  C:9490H         PUBLIC        _send_port
  B:00B0H.4       PUBLIC        port_clk
  C:BC8DH         PUBLIC        cond_ini_pto
  -------         PROC          _RECIBE_PORT
  X:0001H         SYMBOL        buffer_port
  -------         DO            
  D:0006H         SYMBOL        count
  X:0004H         SYMBOL        time_out
  X:0005H         SYMBOL        num_data
BL51 BANKED LINKER/LOCATER V6.22.2.0                                                  05/25/2021  12:30:00  PAGE 85


  X:0006H         SYMBOL        T_ANCHO
  X:0008H         SYMBOL        data_temp
  -------         ENDDO         
  C:9C35H         LINE#         60
  C:9C40H         LINE#         61
  C:9C40H         LINE#         65
  C:9C49H         LINE#         66
  C:9C4CH         LINE#         69
  C:9C4FH         LINE#         70
  C:9C4FH         LINE#         72
  C:9C52H         LINE#         73
  C:9C57H         LINE#         74
  C:9C59H         LINE#         75
  C:9C5DH         LINE#         76
  C:9C5FH         LINE#         79
  C:9C64H         LINE#         80
  C:9C6DH         LINE#         81
  C:9C6DH         LINE#         82
  C:9C70H         LINE#         83
  C:9C70H         LINE#         85
  C:9C75H         LINE#         86
  C:9C79H         LINE#         87
  C:9C79H         LINE#         88
  C:9C7BH         LINE#         89
  C:9C7DH         LINE#         90
  C:9C7DH         LINE#         91
  C:9C7DH         LINE#         93
  C:9C7DH         LINE#         94
  C:9C8AH         LINE#         95
  C:9C8AH         LINE#         97
  C:9C8DH         LINE#         98
  C:9C8DH         LINE#         100
  C:9C93H         LINE#         102
  C:9C95H         LINE#         103
  C:9CA9H         LINE#         104
  C:9CB3H         LINE#         105
  C:9CB9H         LINE#         106
  C:9CBFH         LINE#         107
  C:9CC1H         LINE#         108
  C:9CC1H         LINE#         109
  C:9CC1H         LINE#         110
  C:9CC1H         LINE#         113
  C:9CC3H         LINE#         114
  C:9CC5H         LINE#         115
  C:9CC5H         LINE#         116
  C:9CC8H         LINE#         118
  C:9CCDH         LINE#         119
  -------         ENDPROC       _RECIBE_PORT
  -------         PROC          _SEND_PORT
  X:0016H         SYMBOL        buffer_port
  X:0019H         SYMBOL        length_char
  -------         DO            
  X:001AH         SYMBOL        cont
  X:001EH         SYMBOL        timeOut
  X:001FH         SYMBOL        length
  -------         ENDDO         
  C:9490H         LINE#         126
BL51 BANKED LINKER/LOCATER V6.22.2.0                                                  05/25/2021  12:30:00  PAGE 86


  C:949EH         LINE#         127
  C:949EH         LINE#         132
  C:94A2H         LINE#         134
  C:94A4H         LINE#         135
  C:94A6H         LINE#         136
  C:94A8H         LINE#         137
  C:94ADH         LINE#         138
  C:94AFH         LINE#         139
  C:94B9H         LINE#         141
  C:94C2H         LINE#         142
  C:94C2H         LINE#         143
  C:94C4H         LINE#         144
  C:94C6H         LINE#         145
  C:94EAH         LINE#         146
  C:94FEH         LINE#         147
  C:94FEH         LINE#         148
  C:9501H         LINE#         149
  C:9503H         LINE#         150
  C:9503H         LINE#         151
  C:9505H         LINE#         152
  C:950EH         LINE#         153
  C:950EH         LINE#         157
  C:950EH         LINE#         159
  C:951EH         LINE#         160
  C:9521H         LINE#         161
  C:952BH         LINE#         163
  C:9531H         LINE#         164
  C:9534H         LINE#         166
  C:9534H         LINE#         168
  C:9537H         LINE#         169
  C:9539H         LINE#         170
  C:953BH         LINE#         171
  C:953DH         LINE#         172
  -------         ENDPROC       _SEND_PORT
  -------         PROC          PULSO_BUS
  C:BC12H         LINE#         180
  C:BC12H         LINE#         181
  C:BC12H         LINE#         182
  C:BC14H         LINE#         183
  C:BC1BH         LINE#         184
  C:BC1DH         LINE#         185
  -------         ENDPROC       PULSO_BUS
  -------         PROC          _SEND_PORTERR
  X:002AH         SYMBOL        cod_err
  -------         DO            
  X:002BH         SYMBOL        timeOut
  X:002CH         SYMBOL        cont
  -------         ENDDO         
  C:A1E0H         LINE#         190
  C:A1E6H         LINE#         191
  C:A1E6H         LINE#         195
  C:A1E8H         LINE#         196
  C:A1EAH         LINE#         197
  C:A1EDH         LINE#         198
  C:A1F5H         LINE#         200
  C:A1F7H         LINE#         201
  C:A1F9H         LINE#         202
BL51 BANKED LINKER/LOCATER V6.22.2.0                                                  05/25/2021  12:30:00  PAGE 87


  C:A202H         LINE#         203
  C:A202H         LINE#         204
  C:A224H         LINE#         205
  C:A238H         LINE#         206
  C:A238H         LINE#         207
  C:A23DH         LINE#         208
  C:A23DH         LINE#         209
  C:A23FH         LINE#         210
  C:A248H         LINE#         211
  C:A248H         LINE#         212
  C:A24EH         LINE#         213
  C:A251H         LINE#         214
  C:A251H         LINE#         215
  C:A253H         LINE#         216
  C:A255H         LINE#         217
  C:A257H         LINE#         219
  C:A25AH         LINE#         221
  C:A261H         LINE#         222
  -------         ENDPROC       _SEND_PORTERR
  -------         PROC          COND_INI_PTO
  C:BC8DH         LINE#         228
  C:BC8DH         LINE#         229
  C:BC8DH         LINE#         231
  C:BC8FH         LINE#         232
  C:BC91H         LINE#         233
  C:BC93H         LINE#         234
  C:BC96H         LINE#         235
  -------         ENDPROC       COND_INI_PTO
  -------         PROC          LOAD_AND_SEND_INFO_RELOJ
  -------         DO            
  X:0002H         SYMBOL        buffer_info
  -------         ENDDO         
  C:B011H         LINE#         240
  C:B011H         LINE#         241
  C:B011H         LINE#         244
  C:B017H         LINE#         246
  C:B01BH         LINE#         249
  C:B024H         LINE#         251
  C:B02EH         LINE#         252
  C:B032H         LINE#         253
  C:B035H         LINE#         254
  C:B03EH         LINE#         255
  C:B04FH         LINE#         256
  C:B052H         LINE#         257
  -------         ENDPROC       LOAD_AND_SEND_INFO_RELOJ
  -------         PROC          LOAD_AND_SEND_ID_COD
  -------         DO            
  X:0002H         SYMBOL        buffer_info
  X:000DH         SYMBOL        buf
  X:0011H         SYMBOL        i
  X:0012H         SYMBOL        ID_CLIENTE
  X:0014H         SYMBOL        COD_PARK
  -------         ENDDO         
  C:6BBFH         LINE#         264
  C:6BBFH         LINE#         265
  C:6BBFH         LINE#         273
  C:6BCFH         LINE#         275
BL51 BANKED LINKER/LOCATER V6.22.2.0                                                  05/25/2021  12:30:00  PAGE 88


  C:6BE0H         LINE#         277
  C:6BE6H         LINE#         278
  C:6BEAH         LINE#         279
  C:6BEDH         LINE#         281
  C:6C13H         LINE#         282
  C:6C2AH         LINE#         285
  C:6C41H         LINE#         288
  C:6C67H         LINE#         289
  C:6C7EH         LINE#         291
  C:6C95H         LINE#         292
  C:6CA3H         LINE#         293
  C:6CB4H         LINE#         294
  C:6CC7H         LINE#         295
  C:6CCDH         LINE#         296
  C:6CD6H         LINE#         297
  C:6CEAH         LINE#         298
  C:6CEDH         LINE#         299
  -------         ENDPROC       LOAD_AND_SEND_ID_COD
  -------         ENDMOD        PTO_PARALELO

  -------         MODULE        TIBBO
  C:0000H         SYMBOL        _ICE_DUMMY_
  C:B253H         PUBLIC        _Debug_HexDec
  C:B0B3H         PUBLIC        _Debug_txt_Tibbo
  D:0080H         PUBLIC        P0
  D:0090H         PUBLIC        P1
  B:0090H.0       PUBLIC        txd2
  B:00A8H.7       PUBLIC        EA
  C:B060H         PUBLIC        _tx_aux
  B:0080H.0       PUBLIC        rx_ip
  C:BC97H         PUBLIC        Debug_Dividir_texto
  C:BCF1H         PUBLIC        cond_ini_tibbo
  C:BB87H         PUBLIC        time_mbit
  C:A268H         PUBLIC        rx_Data
  C:BB06H         PUBLIC        time_bit
  C:B46AH         PUBLIC        _Debug_pto_paralelo
  C:B5DFH         PUBLIC        _Debug_monitor
  C:A482H         PUBLIC        _DebugBufferMF
  C:B139H         PUBLIC        _Debug_chr_Tibbo
  C:BB00H         SYMBOL        L?0067
  -------         PROC          L?0066
  -------         ENDPROC       L?0066
  C:BB00H         SYMBOL        L?0067
  -------         PROC          TIME_BIT
  -------         DO            
  D:0007H         SYMBOL        j
  -------         ENDDO         
  C:BB06H         LINE#         20
  C:BB06H         LINE#         21
  C:BB06H         LINE#         24
  C:BB12H         LINE#         25
  C:BB12H         LINE#         26
  C:BB13H         LINE#         27
  C:BB14H         LINE#         28
  C:BB15H         LINE#         29
  C:BB16H         LINE#         30
  C:BB17H         LINE#         31
BL51 BANKED LINKER/LOCATER V6.22.2.0                                                  05/25/2021  12:30:00  PAGE 89


  C:BB18H         LINE#         32
  C:BB19H         LINE#         33
  C:BB1AH         LINE#         34
  C:BB1BH         LINE#         39
  C:BB1EH         LINE#         40
  -------         ENDPROC       TIME_BIT
  -------         PROC          TIME_MBIT
  -------         DO            
  D:0007H         SYMBOL        j
  -------         ENDDO         
  C:BB87H         LINE#         43
  C:BB87H         LINE#         44
  C:BB87H         LINE#         46
  C:BB93H         LINE#         47
  C:BB93H         LINE#         48
  C:BB94H         LINE#         49
  C:BB95H         LINE#         50
  C:BB96H         LINE#         51
  C:BB97H         LINE#         52
  C:BB98H         LINE#         53
  C:BB99H         LINE#         54
  C:BB9AH         LINE#         55
  C:BB9DH         LINE#         57
  -------         ENDPROC       TIME_MBIT
  -------         PROC          L?0070
  -------         ENDPROC       L?0070
  -------         PROC          _TX_AUX
  D:0006H         SYMBOL        caracter
  -------         DO            
  D:0004H         SYMBOL        j
  D:0005H         SYMBOL        temporal
  D:0006H         SYMBOL        bitTX
  -------         ENDDO         
  C:B060H         LINE#         62
  C:B062H         LINE#         63
  C:B062H         LINE#         66
  C:B064H         LINE#         67
  C:B066H         LINE#         68
  C:B069H         LINE#         69
  C:B06AH         LINE#         70
  C:B06BH         LINE#         71
  C:B06DH         LINE#         72
  C:B071H         LINE#         73
  C:B073H         LINE#         74
  C:B073H         LINE#         75
  C:B075H         LINE#         76
  C:B077H         LINE#         78
  C:B077H         LINE#         79
  C:B079H         LINE#         80
  C:B079H         LINE#         81
  C:B07CH         LINE#         82
  C:B088H         LINE#         83
  C:B088H         LINE#         84
  C:B08CH         LINE#         85
  C:B08FH         LINE#         86
  C:B091H         LINE#         87
  C:B091H         LINE#         88
BL51 BANKED LINKER/LOCATER V6.22.2.0                                                  05/25/2021  12:30:00  PAGE 90


  C:B093H         LINE#         89
  C:B095H         LINE#         91
  C:B095H         LINE#         92
  C:B097H         LINE#         93
  C:B097H         LINE#         94
  C:B09AH         LINE#         95
  C:B09DH         LINE#         96
  C:B09FH         LINE#         97
  C:B0A2H         LINE#         98
  C:B0A5H         LINE#         100
  C:B0A7H         LINE#         101
  -------         ENDPROC       _TX_AUX
  -------         PROC          _DEBUG_HEXDEC
  D:0007H         SYMBOL        xfc
  -------         DO            
  X:0018H         SYMBOL        valor
  D:0006H         SYMBOL        centena
  D:0003H         SYMBOL        decena
  D:0002H         SYMBOL        unidad
  -------         ENDDO         
  C:B253H         LINE#         104
  C:B253H         LINE#         105
  C:B253H         LINE#         108
  C:B25AH         LINE#         110
  C:B25BH         LINE#         111
  C:B25CH         LINE#         112
  C:B25DH         LINE#         113
  C:B265H         LINE#         114
  C:B265H         LINE#         115
  C:B26FH         LINE#         116
  C:B26FH         LINE#         117
  C:B273H         LINE#         118
  C:B274H         LINE#         119
  C:B276H         LINE#         120
  C:B280H         LINE#         121
  C:B280H         LINE#         122
  C:B284H         LINE#         123
  C:B285H         LINE#         124
  C:B287H         LINE#         125
  C:B289H         LINE#         126
  C:B28DH         LINE#         127
  C:B291H         LINE#         128
  C:B298H         LINE#         130
  C:B298H         LINE#         131
  -------         ENDPROC       _DEBUG_HEXDEC
  -------         PROC          _DEBUG_CHR_TIBBO
  D:0003H         SYMBOL        Dat
  -------         DO            
  D:0007H         SYMBOL        temp
  -------         ENDDO         
  C:B139H         LINE#         136
  C:B13BH         LINE#         137
  C:B13BH         LINE#         139
  C:B143H         LINE#         140
  C:B143H         LINE#         141
  C:B14AH         LINE#         142
  C:B15DH         LINE#         144
BL51 BANKED LINKER/LOCATER V6.22.2.0                                                  05/25/2021  12:30:00  PAGE 91


  C:B160H         LINE#         146
  C:B164H         LINE#         147
  C:B177H         LINE#         148
  C:B17AH         LINE#         149
  C:B17FH         LINE#         151
  C:B17FH         LINE#         152
  -------         ENDPROC       _DEBUG_CHR_TIBBO
  -------         PROC          _DEBUGBUFFERMF
  X:0027H         SYMBOL        str
  X:002AH         SYMBOL        num_char
  X:002BH         SYMBOL        io
  -------         DO            
  X:002CH         SYMBOL        j
  -------         ENDDO         
  C:A482H         LINE#         160
  C:A490H         LINE#         161
  C:A490H         LINE#         165
  C:A498H         LINE#         166
  C:A498H         LINE#         167
  C:A4A7H         LINE#         168
  C:A4A7H         LINE#         169
  C:A4ADH         LINE#         170
  C:A4AFH         LINE#         171
  C:A4BCH         LINE#         172
  C:A4BCH         LINE#         173
  C:A4C5H         LINE#         174
  C:A4C5H         LINE#         176
  C:A4D7H         LINE#         177
  C:A4D7H         LINE#         178
  C:A4E9H         LINE#         179
  C:A4F3H         LINE#         180
  C:A4FBH         LINE#         181
  C:A500H         LINE#         182
  C:A505H         LINE#         183
  C:A505H         LINE#         185
  -------         ENDPROC       _DEBUGBUFFERMF
  C:B0ADH         SYMBOL        L?0069
  -------         PROC          L?0068
  -------         ENDPROC       L?0068
  C:B0ADH         SYMBOL        L?0069
  -------         PROC          _DEBUG_TXT_TIBBO
  X:004EH         SYMBOL        str
  -------         DO            
  X:0051H         SYMBOL        i
  -------         ENDDO         
  C:B0B3H         LINE#         190
  C:B0BEH         LINE#         191
  C:B0BEH         LINE#         193
  C:B0C1H         LINE#         195
  C:B0C9H         LINE#         196
  C:B0C9H         LINE#         197
  C:B0E5H         LINE#         198
  C:B0E5H         LINE#         199
  C:B0E8H         LINE#         200
  C:B0F0H         LINE#         202
  C:B0F0H         LINE#         203
  -------         ENDPROC       _DEBUG_TXT_TIBBO
BL51 BANKED LINKER/LOCATER V6.22.2.0                                                  05/25/2021  12:30:00  PAGE 92


  -------         PROC          DEBUG_DIVIDIR_TEXTO
  C:BC97H         LINE#         205
  C:BC97H         LINE#         206
  C:BC97H         LINE#         207
  -------         ENDPROC       DEBUG_DIVIDIR_TEXTO
  -------         PROC          RX_DATA
  -------         DO            
  D:0006H         SYMBOL        temporal
  -------         ENDDO         
  C:A268H         LINE#         213
  C:A268H         LINE#         214
  C:A268H         LINE#         217
  C:A26AH         LINE#         218
  C:A26DH         LINE#         220
  C:A270H         LINE#         222
  C:A27CH         LINE#         223
  C:A27CH         LINE#         225
  C:A27FH         LINE#         227
  C:A28BH         LINE#         228
  C:A28BH         LINE#         230
  C:A28EH         LINE#         232
  C:A29AH         LINE#         233
  C:A29AH         LINE#         235
  C:A29DH         LINE#         237
  C:A2A9H         LINE#         238
  C:A2A9H         LINE#         240
  C:A2ACH         LINE#         242
  C:A2B8H         LINE#         243
  C:A2B8H         LINE#         245
  C:A2BBH         LINE#         247
  C:A2C7H         LINE#         248
  C:A2C7H         LINE#         250
  C:A2CAH         LINE#         252
  C:A2D6H         LINE#         253
  C:A2D6H         LINE#         255
  C:A2D9H         LINE#         256
  C:A2E7H         LINE#         258
  C:A2EAH         LINE#         259
  C:A2EDH         LINE#         260
  C:A2EDH         LINE#         261
  C:A2EDH         LINE#         264
  C:A2EFH         LINE#         266
  -------         ENDPROC       RX_DATA
  -------         PROC          COND_INI_TIBBO
  C:BCF1H         LINE#         284
  C:BCF1H         LINE#         285
  C:BCF1H         LINE#         287
  C:BCF3H         LINE#         288
  C:BCF5H         LINE#         289
  -------         ENDPROC       COND_INI_TIBBO
  -------         PROC          _DEBUG_PTO_PARALELO
  X:0001H         SYMBOL        buffer
  X:0004H         SYMBOL        Length_trama
  C:B46AH         LINE#         290
  C:B478H         LINE#         291
  C:B478H         LINE#         293
  C:B481H         LINE#         294
BL51 BANKED LINKER/LOCATER V6.22.2.0                                                  05/25/2021  12:30:00  PAGE 93


  C:B498H         LINE#         295
  C:B4A1H         LINE#         296
  C:B4A4H         LINE#         297
  C:B4A7H         LINE#         298
  -------         ENDPROC       _DEBUG_PTO_PARALELO
  -------         PROC          _DEBUG_MONITOR
  X:0016H         SYMBOL        buffer
  X:0019H         SYMBOL        Length_trama
  C:B5DFH         LINE#         301
  C:B5EDH         LINE#         302
  C:B5EDH         LINE#         303
  C:B5F0H         LINE#         304
  C:B5F9H         LINE#         305
  C:B607H         LINE#         306
  C:B60AH         LINE#         307
  C:B613H         LINE#         308
  C:B616H         LINE#         309
  C:B619H         LINE#         310
  -------         ENDPROC       _DEBUG_MONITOR
  -------         ENDMOD        TIBBO

  -------         MODULE        UART
  C:0000H         SYMBOL        _ICE_DUMMY_
  C:B9A7H         PUBLIC        com_getchar
  C:BC24H         PUBLIC        com_rbuflen
  C:BC36H         PUBLIC        com_tbuflen
  B:00A8H.4       PUBLIC        ES
  B:0098H.0       PUBLIC        RI
  C:B694H         PUBLIC        _com_putchar
  B:0098H.1       PUBLIC        TI
  B:0021H.4       PUBLIC        aSk
  B:00B8H.4       PUBLIC        PS
  D:000DH         SYMBOL        r_in
  D:000EH         SYMBOL        r_out
  D:000FH         SYMBOL        t_in
  D:0010H         SYMBOL        t_out
  D:0099H         PUBLIC        SBUF
  D:0087H         PUBLIC        PCON
  D:0089H         PUBLIC        TMOD
  B:0021H.5       SYMBOL        ti_restart
  B:00A8H.3       PUBLIC        ET1
  D:008DH         PUBLIC        TH1
  B:0098H.7       PUBLIC        SM0
  B:0098H.6       PUBLIC        SM1
  D:008BH         PUBLIC        TL1
  B:0098H.5       PUBLIC        SM2
  B:0088H.6       PUBLIC        TR1
  C:B8DEH         PUBLIC        com_initialize
  X:020DH         PUBLIC        cnt__ask_off
  B:0098H.4       PUBLIC        REN
  C:B930H         PUBLIC        com_baudrate
  C:5A99H         SYMBOL        com_isr
  -------         PROC          COM_ISR
  -------         DO            
  X:020BH         SYMBOL        cDatoRx
  D:0006H         SYMBOL        k
  D:0007H         SYMBOL        bcc
BL51 BANKED LINKER/LOCATER V6.22.2.0                                                  05/25/2021  12:30:00  PAGE 94


  X:020CH         SYMBOL        num_datos
  -------         ENDDO         
  C:5A99H         LINE#         95
  C:5AAEH         LINE#         103
  C:5AB4H         LINE#         104
  C:5AB4H         LINE#         106
  C:5AB6H         LINE#         107
  C:5ABCH         LINE#         108
  C:5ACCH         LINE#         109
  C:5ACCH         LINE#         110
  C:5AD7H         LINE#         111
  C:5AD9H         LINE#         113
  C:5AD9H         LINE#         114
  C:5AE9H         LINE#         115
  C:5AE9H         LINE#         116
  C:5AEEH         LINE#         117
  C:5AEEH         LINE#         118
  C:5B05H         LINE#         119
  C:5B05H         LINE#         123
  C:5B05H         LINE#         126
  C:5B14H         LINE#         127
  C:5B14H         LINE#         128
  C:5B16H         LINE#         129
  C:5B1EH         LINE#         130
  C:5B23H         LINE#         132
  C:5B23H         LINE#         133
  C:5B26H         LINE#         137
  C:5B26H         LINE#         138
  C:5B26H         LINE#         139
  C:5B3EH         LINE#         140
  C:5B4DH         LINE#         141
  C:5B4DH         LINE#         142
  C:5B4DH         LINE#         143
  C:5B4FH         LINE#         145
  C:5B4FH         LINE#         146
  C:5B51H         LINE#         147
  C:5B51H         LINE#         148
  C:5B51H         LINE#         149
  C:5B54H         LINE#         153
  C:5B54H         LINE#         155
  C:5B5DH         LINE#         156
  C:5B5DH         LINE#         158
  C:5B63H         LINE#         159
  C:5B76H         LINE#         160
  C:5B76H         LINE#         161
  C:5B79H         LINE#         163
  C:5B79H         LINE#         164
  C:5B8EH         LINE#         165
  C:5B94H         LINE#         166
  C:5B94H         LINE#         168
  C:5B97H         LINE#         172
  C:5B97H         LINE#         174
  C:5BAFH         LINE#         175
  C:5BB5H         LINE#         176
  C:5BB8H         LINE#         177
  C:5BB8H         LINE#         178
  C:5BD0H         LINE#         179
BL51 BANKED LINKER/LOCATER V6.22.2.0                                                  05/25/2021  12:30:00  PAGE 95


  C:5BD0H         LINE#         180
  C:5BD1H         LINE#         181
  C:5BDEH         LINE#         182
  C:5BDEH         LINE#         183
  C:5BEBH         LINE#         184
  C:5BEEH         LINE#         185
  C:5BFCH         LINE#         186
  C:5BFCH         LINE#         187
  C:5BFEH         LINE#         188
  C:5C03H         LINE#         189
  C:5C05H         LINE#         190
  C:5C09H         LINE#         192
  C:5C0BH         LINE#         194
  C:5C0BH         LINE#         195
  C:5C0BH         LINE#         196
  C:5C0BH         LINE#         197
  C:5C0DH         LINE#         199
  C:5C0DH         LINE#         200
  C:5C0DH         LINE#         201
  C:5C0DH         LINE#         203
  C:5C0FH         LINE#         205
  C:5C0FH         LINE#         206
  C:5C15H         LINE#         207
  C:5C15H         LINE#         209
  C:5C17H         LINE#         214
  C:5C17H         LINE#         215
  C:5C1CH         LINE#         216
  C:5C1CH         LINE#         217
  C:5C1CH         LINE#         218
  C:5C1CH         LINE#         223
  C:5C1FH         LINE#         224
  C:5C1FH         LINE#         225
  C:5C21H         LINE#         227
  C:5C27H         LINE#         228
  C:5C27H         LINE#         229
  C:5C31H         LINE#         231
  C:5C33H         LINE#         232
  C:5C35H         LINE#         233
  C:5C37H         LINE#         235
  C:5C37H         LINE#         236
  C:5C39H         LINE#         237
  C:5C39H         LINE#         238
  C:5C39H         LINE#         240
  -------         ENDPROC       COM_ISR
  -------         PROC          COM_INITIALIZE
  C:B8DEH         LINE#         256
  C:B8E5H         LINE#         257
  C:B8E5H         LINE#         261
  C:B8E8H         LINE#         266
  C:B8EBH         LINE#         267
  C:B8EDH         LINE#         269
  C:B8EFH         LINE#         270
  C:B8F1H         LINE#         275
  C:B8F5H         LINE#         276
  C:B8F7H         LINE#         277
  C:B8F9H         LINE#         279
  C:B8FBH         LINE#         280
BL51 BANKED LINKER/LOCATER V6.22.2.0                                                  05/25/2021  12:30:00  PAGE 96


  C:B8FDH         LINE#         281
  C:B8FFH         LINE#         283
  C:B901H         LINE#         284
  C:B903H         LINE#         285
  -------         ENDPROC       COM_INITIALIZE
  -------         PROC          COM_BAUDRATE
  C:B930H         LINE#         291
  C:B937H         LINE#         293
  C:B937H         LINE#         297
  C:B939H         LINE#         298
  C:B93CH         LINE#         299
  C:B93EH         LINE#         304
  C:B940H         LINE#         305
  C:B942H         LINE#         307
  C:B945H         LINE#         309
  C:B948H         LINE#         310
  C:B94BH         LINE#         312
  C:B94EH         LINE#         313
  C:B951H         LINE#         314
  C:B953H         LINE#         315
  -------         ENDPROC       COM_BAUDRATE
  -------         PROC          _COM_PUTCHAR
  X:00AAH         SYMBOL        c
  C:B694H         LINE#         321
  C:B6A0H         LINE#         322
  C:B6A0H         LINE#         326
  C:B6ADH         LINE#         327
  C:B6B1H         LINE#         333
  C:B6BFH         LINE#         335
  C:B6C1H         LINE#         337
  C:B6C4H         LINE#         338
  C:B6C4H         LINE#         339
  C:B6C6H         LINE#         340
  C:B6C8H         LINE#         341
  C:B6C8H         LINE#         343
  C:B6CAH         LINE#         344
  -------         ENDPROC       _COM_PUTCHAR
  -------         PROC          COM_GETCHAR
  C:B9A7H         LINE#         350
  C:B9AEH         LINE#         351
  C:B9AEH         LINE#         352
  C:B9B4H         LINE#         353
  C:B9BAH         LINE#         355
  C:B9C8H         LINE#         356
  -------         ENDPROC       COM_GETCHAR
  -------         PROC          COM_RBUFLEN
  C:BC24H         LINE#         362
  C:BC2BH         LINE#         363
  C:BC2BH         LINE#         364
  C:BC31H         LINE#         365
  -------         ENDPROC       COM_RBUFLEN
  -------         PROC          COM_TBUFLEN
  C:BC36H         LINE#         371
  C:BC3DH         LINE#         372
  C:BC3DH         LINE#         373
  C:BC43H         LINE#         374
  -------         ENDPROC       COM_TBUFLEN
BL51 BANKED LINKER/LOCATER V6.22.2.0                                                  05/25/2021  12:30:00  PAGE 97


  -------         ENDMOD        UART

  -------         MODULE        LINTECH
  C:0000H         SYMBOL        _ICE_DUMMY_
  C:992FH         PUBLIC        _Inicializa
  C:8C74H         PUBLIC        _RD_MF
  C:969AH         PUBLIC        Dwload_EEprom
  C:9DF7H         PUBLIC        _Card_Insercion
  C:80E9H         PUBLIC        _Mov_Card
  C:7814H         PUBLIC        _WR_MF
  C:A0C7H         PUBLIC        LoadVerify_EEprom
  C:A2F0H         PUBLIC        Unique_Identifier_UID
  C:A78EH         PUBLIC        Power_off
  C:A378H         PUBLIC        _Check_Status
  C:95F0H         PUBLIC        Clave_Seguridad_S2
  C:A70EH         PUBLIC        Aut_Card_check_Status
  -------         PROC          _INICIALIZA
  X:0002H         SYMBOL        TipoMovimiento
  -------         DO            
  D:0003H         SYMBOL        j
  X:0003H         SYMBOL        bcc
  X:0004H         SYMBOL        g_scArrTxComSoft
  -------         ENDDO         
  C:992FH         LINE#         68
  C:9934H         LINE#         69
  C:9934H         LINE#         72
  C:9937H         LINE#         73
  C:994DH         LINE#         74
  C:994DH         LINE#         76
  C:9956H         LINE#         78
  C:995CH         LINE#         79
  C:995FH         LINE#         80
  C:9961H         LINE#         81
  C:9965H         LINE#         82
  C:9969H         LINE#         83
  C:996DH         LINE#         84
  C:9975H         LINE#         85
  C:9979H         LINE#         86
  C:9985H         LINE#         87
  C:9985H         LINE#         88
  C:9999H         LINE#         89
  C:999CH         LINE#         90
  C:99A4H         LINE#         91
  C:99A6H         LINE#         92
  C:99ABH         LINE#         93
  C:99BAH         LINE#         94
  C:99C5H         LINE#         95
  C:99CBH         LINE#         96
  C:99CBH         LINE#         97
  -------         ENDPROC       _INICIALIZA
  -------         PROC          _CHECK_STATUS
  X:0002H         SYMBOL        Detalle
  -------         DO            
  D:0006H         SYMBOL        j
  D:0007H         SYMBOL        bcc
  X:0003H         SYMBOL        g_scArrTxComSoft
  -------         ENDDO         
BL51 BANKED LINKER/LOCATER V6.22.2.0                                                  05/25/2021  12:30:00  PAGE 98


  C:A378H         LINE#         109
  C:A37DH         LINE#         110
  C:A37DH         LINE#         114
  C:A383H         LINE#         115
  C:A383H         LINE#         116
  C:A387H         LINE#         117
  C:A389H         LINE#         119
  C:A389H         LINE#         120
  C:A390H         LINE#         121
  C:A390H         LINE#         122
  C:A392H         LINE#         124
  C:A398H         LINE#         125
  C:A39BH         LINE#         126
  C:A39DH         LINE#         127
  C:A3A1H         LINE#         128
  C:A3A5H         LINE#         129
  C:A3A9H         LINE#         130
  C:A3B1H         LINE#         131
  C:A3B5H         LINE#         132
  C:A3C1H         LINE#         133
  C:A3C1H         LINE#         134
  C:A3CEH         LINE#         135
  C:A3D1H         LINE#         136
  C:A3D6H         LINE#         137
  C:A3D8H         LINE#         138
  C:A3DDH         LINE#         139
  C:A3ECH         LINE#         140
  C:A3F7H         LINE#         141
  C:A3FDH         LINE#         142
  -------         ENDPROC       _CHECK_STATUS
  -------         PROC          _CARD_INSERCION
  D:0007H         SYMBOL        Tipo
  -------         DO            
  D:0006H         SYMBOL        j
  D:0007H         SYMBOL        bcc
  X:0002H         SYMBOL        g_scArrTxComSoft
  -------         ENDDO         
  C:9DF7H         LINE#         152
  C:9DF7H         LINE#         153
  C:9DF7H         LINE#         156
  C:9E04H         LINE#         157
  C:9E04H         LINE#         158
  C:9E0BH         LINE#         159
  C:9E11H         LINE#         160
  C:9E13H         LINE#         162
  C:9E13H         LINE#         164
  C:9E1AH         LINE#         165
  C:9E20H         LINE#         167
  C:9E20H         LINE#         169
  C:9E22H         LINE#         171
  C:9E28H         LINE#         172
  C:9E2BH         LINE#         173
  C:9E2DH         LINE#         174
  C:9E31H         LINE#         175
  C:9E35H         LINE#         176
  C:9E39H         LINE#         178
  C:9E3FH         LINE#         179
BL51 BANKED LINKER/LOCATER V6.22.2.0                                                  05/25/2021  12:30:00  PAGE 99


  C:9E4BH         LINE#         180
  C:9E4BH         LINE#         181
  C:9E58H         LINE#         182
  C:9E5BH         LINE#         184
  C:9E60H         LINE#         186
  C:9E62H         LINE#         187
  C:9E67H         LINE#         188
  C:9E76H         LINE#         189
  C:9E81H         LINE#         190
  C:9E87H         LINE#         191
  -------         ENDPROC       _CARD_INSERCION
  -------         PROC          _MOV_CARD
  X:0002H         SYMBOL        Posicion
  -------         DO            
  D:0003H         SYMBOL        j
  X:0003H         SYMBOL        bcc
  X:0004H         SYMBOL        g_scArrTxComSoft
  -------         ENDDO         
  C:80E9H         LINE#         202
  C:80EEH         LINE#         203
  C:80EEH         LINE#         206
  C:80F1H         LINE#         208
  C:8111H         LINE#         209
  C:8111H         LINE#         210
  C:8118H         LINE#         211
  C:8118H         LINE#         212
  C:811EH         LINE#         213
  C:8120H         LINE#         214
  C:8127H         LINE#         215
  C:8127H         LINE#         216
  C:812DH         LINE#         217
  C:812FH         LINE#         218
  C:8136H         LINE#         219
  C:8136H         LINE#         220
  C:813CH         LINE#         221
  C:813EH         LINE#         222
  C:8145H         LINE#         223
  C:8145H         LINE#         224
  C:814BH         LINE#         225
  C:814DH         LINE#         226
  C:8154H         LINE#         227
  C:8154H         LINE#         228
  C:815DH         LINE#         229
  C:815DH         LINE#         231
  C:8163H         LINE#         232
  C:8166H         LINE#         233
  C:8168H         LINE#         234
  C:816CH         LINE#         235
  C:8170H         LINE#         236
  C:8174H         LINE#         237
  C:817CH         LINE#         238
  C:8180H         LINE#         239
  C:818CH         LINE#         240
  C:818CH         LINE#         241
  C:81A0H         LINE#         242
  C:81A3H         LINE#         243
  C:81ABH         LINE#         244
BL51 BANKED LINKER/LOCATER V6.22.2.0                                                  05/25/2021  12:30:00  PAGE 100


  C:81ADH         LINE#         245
  C:81B2H         LINE#         246
  C:81C1H         LINE#         247
  C:81CCH         LINE#         248
  C:81D2H         LINE#         249
  C:81D2H         LINE#         251
  -------         ENDPROC       _MOV_CARD
  -------         PROC          AUT_CARD_CHECK_STATUS
  -------         DO            
  D:0003H         SYMBOL        j
  X:0002H         SYMBOL        bcc
  X:0003H         SYMBOL        g_scArrTxComSoft
  -------         ENDDO         
  C:A70EH         LINE#         257
  C:A70EH         LINE#         258
  C:A70EH         LINE#         261
  C:A713H         LINE#         263
  C:A71CH         LINE#         265
  C:A722H         LINE#         266
  C:A725H         LINE#         267
  C:A727H         LINE#         268
  C:A72BH         LINE#         269
  C:A72FH         LINE#         270
  C:A733H         LINE#         271
  C:A737H         LINE#         272
  C:A73BH         LINE#         273
  C:A747H         LINE#         274
  C:A747H         LINE#         275
  C:A75BH         LINE#         276
  C:A75EH         LINE#         277
  C:A766H         LINE#         278
  C:A768H         LINE#         279
  C:A76DH         LINE#         280
  C:A77CH         LINE#         281
  C:A787H         LINE#         282
  C:A78DH         LINE#         283
  -------         ENDPROC       AUT_CARD_CHECK_STATUS
  -------         PROC          CLAVE_SEGURIDAD_S2
  -------         DO            
  D:0003H         SYMBOL        j
  X:0002H         SYMBOL        bcc
  X:0003H         SYMBOL        g_scArrTxComSoft
  -------         ENDDO         
  C:95F0H         LINE#         286
  C:95F0H         LINE#         287
  C:95F0H         LINE#         290
  C:95F5H         LINE#         291
  C:95FEH         LINE#         294
  C:9604H         LINE#         295
  C:9607H         LINE#         296
  C:9609H         LINE#         297
  C:960DH         LINE#         298
  C:9611H         LINE#         299
  C:9615H         LINE#         300
  C:9619H         LINE#         301
  C:961CH         LINE#         302
  C:9620H         LINE#         303
BL51 BANKED LINKER/LOCATER V6.22.2.0                                                  05/25/2021  12:30:00  PAGE 101


  C:9623H         LINE#         304
  C:9627H         LINE#         306
  C:962BH         LINE#         308
  C:962FH         LINE#         309
  C:9633H         LINE#         310
  C:9637H         LINE#         311
  C:963BH         LINE#         312
  C:963FH         LINE#         313
  C:9643H         LINE#         316
  C:9647H         LINE#         318
  C:9653H         LINE#         319
  C:9653H         LINE#         320
  C:9667H         LINE#         321
  C:966AH         LINE#         322
  C:9672H         LINE#         323
  C:9674H         LINE#         324
  C:9679H         LINE#         325
  C:9688H         LINE#         326
  C:9693H         LINE#         327
  C:9699H         LINE#         330
  -------         ENDPROC       CLAVE_SEGURIDAD_S2
  -------         PROC          DWLOAD_EEPROM
  -------         DO            
  D:0003H         SYMBOL        j
  X:0002H         SYMBOL        bcc
  X:0003H         SYMBOL        g_scArrTxComSoft
  -------         ENDDO         
  C:969AH         LINE#         335
  C:969AH         LINE#         336
  C:969AH         LINE#         339
  C:969FH         LINE#         340
  C:96A8H         LINE#         342
  C:96AEH         LINE#         343
  C:96B1H         LINE#         344
  C:96B3H         LINE#         345
  C:96B7H         LINE#         346
  C:96BBH         LINE#         347
  C:96BFH         LINE#         348
  C:96C3H         LINE#         349
  C:96C6H         LINE#         350
  C:96CAH         LINE#         351
  C:96CDH         LINE#         352
  C:96D0H         LINE#         353
  C:96D4H         LINE#         354
  C:96D8H         LINE#         355
  C:96DCH         LINE#         356
  C:96E0H         LINE#         357
  C:96E4H         LINE#         358
  C:96E8H         LINE#         359
  C:96ECH         LINE#         360
  C:96F0H         LINE#         362
  C:96FCH         LINE#         363
  C:96FCH         LINE#         364
  C:9710H         LINE#         365
  C:9713H         LINE#         366
  C:971BH         LINE#         367
  C:971DH         LINE#         368
BL51 BANKED LINKER/LOCATER V6.22.2.0                                                  05/25/2021  12:30:00  PAGE 102


  C:9722H         LINE#         369
  C:9731H         LINE#         370
  C:973CH         LINE#         371
  C:9742H         LINE#         372
  -------         ENDPROC       DWLOAD_EEPROM
  -------         PROC          LOADVERIFY_EEPROM
  -------         DO            
  D:0003H         SYMBOL        j
  X:0002H         SYMBOL        bcc
  X:0003H         SYMBOL        g_scArrTxComSoft
  -------         ENDDO         
  C:A0C7H         LINE#         378
  C:A0C7H         LINE#         379
  C:A0C7H         LINE#         382
  C:A0CCH         LINE#         383
  C:A0D5H         LINE#         386
  C:A0DBH         LINE#         387
  C:A0DEH         LINE#         388
  C:A0E0H         LINE#         389
  C:A0E4H         LINE#         390
  C:A0E8H         LINE#         391
  C:A0ECH         LINE#         392
  C:A0F0H         LINE#         393
  C:A0F3H         LINE#         394
  C:A0F7H         LINE#         395
  C:A0FAH         LINE#         396
  C:A0FDH         LINE#         397
  C:A101H         LINE#         402
  C:A10DH         LINE#         403
  C:A10DH         LINE#         404
  C:A121H         LINE#         405
  C:A124H         LINE#         406
  C:A12CH         LINE#         407
  C:A12EH         LINE#         408
  C:A133H         LINE#         409
  C:A142H         LINE#         410
  C:A14DH         LINE#         411
  C:A153H         LINE#         413
  -------         ENDPROC       LOADVERIFY_EEPROM
  -------         PROC          _RD_MF
  X:0002H         SYMBOL        Sector
  X:0003H         SYMBOL        Bloque
  -------         DO            
  D:0003H         SYMBOL        j
  X:0004H         SYMBOL        bcc
  X:0005H         SYMBOL        g_scArrTxComSoft
  -------         ENDDO         
  C:8C74H         LINE#         419
  C:8C7CH         LINE#         420
  C:8C7CH         LINE#         424
  C:8C7FH         LINE#         426
  C:8C88H         LINE#         427
  C:8C90H         LINE#         429
  C:8C99H         LINE#         430
  C:8CA1H         LINE#         431
  C:8CAAH         LINE#         434
  C:8CB0H         LINE#         435
BL51 BANKED LINKER/LOCATER V6.22.2.0                                                  05/25/2021  12:30:00  PAGE 103


  C:8CB3H         LINE#         436
  C:8CB5H         LINE#         437
  C:8CB9H         LINE#         438
  C:8CBDH         LINE#         439
  C:8CC1H         LINE#         440
  C:8CC5H         LINE#         441
  C:8CC8H         LINE#         442
  C:8CCCH         LINE#         443
  C:8CD4H         LINE#         444
  C:8CDCH         LINE#         445
  C:8CE0H         LINE#         446
  C:8CE4H         LINE#         448
  C:8CF0H         LINE#         449
  C:8CF0H         LINE#         450
  C:8D04H         LINE#         451
  C:8D07H         LINE#         452
  C:8D0FH         LINE#         455
  C:8D11H         LINE#         456
  C:8D16H         LINE#         457
  C:8D25H         LINE#         458
  C:8D30H         LINE#         459
  C:8D36H         LINE#         461
  -------         ENDPROC       _RD_MF
  -------         PROC          _WR_MF
  X:0002H         SYMBOL        Sector
  X:0003H         SYMBOL        Bloque
  X:0004H         SYMBOL        buffer
  -------         DO            
  D:0005H         SYMBOL        j
  X:0007H         SYMBOL        bcc
  X:0008H         SYMBOL        g_scArrTxComSoft
  -------         ENDDO         
  C:7814H         LINE#         468
  C:7825H         LINE#         470
  C:7825H         LINE#         473
  C:7828H         LINE#         475
  C:7831H         LINE#         476
  C:7839H         LINE#         478
  C:7842H         LINE#         479
  C:784AH         LINE#         480
  C:7853H         LINE#         482
  C:7859H         LINE#         483
  C:785CH         LINE#         484
  C:785EH         LINE#         485
  C:7862H         LINE#         487
  C:7866H         LINE#         488
  C:786AH         LINE#         489
  C:786EH         LINE#         490
  C:7871H         LINE#         491
  C:7875H         LINE#         492
  C:787DH         LINE#         493
  C:7885H         LINE#         494
  C:7889H         LINE#         496
  C:7895H         LINE#         497
  C:7895H         LINE#         498
  C:78B5H         LINE#         499
  C:78B8H         LINE#         501
BL51 BANKED LINKER/LOCATER V6.22.2.0                                                  05/25/2021  12:30:00  PAGE 104


  C:78BEH         LINE#         503
  C:78CAH         LINE#         504
  C:78CAH         LINE#         505
  C:78E1H         LINE#         506
  C:78E4H         LINE#         507
  C:78ECH         LINE#         510
  C:78EEH         LINE#         511
  C:78F3H         LINE#         512
  C:7902H         LINE#         513
  C:790DH         LINE#         514
  C:7913H         LINE#         516
  -------         ENDPROC       _WR_MF
  -------         PROC          UNIQUE_IDENTIFIER_UID
  -------         DO            
  D:0003H         SYMBOL        j
  X:0002H         SYMBOL        bcc
  X:0003H         SYMBOL        g_scArrTxComSoft
  -------         ENDDO         
  C:A2F0H         LINE#         521
  C:A2F0H         LINE#         522
  C:A2F0H         LINE#         525
  C:A2F5H         LINE#         527
  C:A2FEH         LINE#         529
  C:A304H         LINE#         530
  C:A307H         LINE#         531
  C:A309H         LINE#         532
  C:A30DH         LINE#         533
  C:A311H         LINE#         534
  C:A315H         LINE#         535
  C:A319H         LINE#         536
  C:A31DH         LINE#         537
  C:A321H         LINE#         538
  C:A325H         LINE#         539
  C:A331H         LINE#         540
  C:A331H         LINE#         541
  C:A345H         LINE#         542
  C:A348H         LINE#         543
  C:A350H         LINE#         544
  C:A352H         LINE#         545
  C:A357H         LINE#         546
  C:A366H         LINE#         547
  C:A371H         LINE#         548
  C:A377H         LINE#         549
  -------         ENDPROC       UNIQUE_IDENTIFIER_UID
  -------         PROC          POWER_OFF
  -------         DO            
  D:0003H         SYMBOL        j
  X:0002H         SYMBOL        bcc
  X:0003H         SYMBOL        g_scArrTxComSoft
  -------         ENDDO         
  C:A78EH         LINE#         550
  C:A78EH         LINE#         551
  C:A78EH         LINE#         554
  C:A793H         LINE#         556
  C:A79CH         LINE#         558
  C:A7A2H         LINE#         559
  C:A7A5H         LINE#         560
BL51 BANKED LINKER/LOCATER V6.22.2.0                                                  05/25/2021  12:30:00  PAGE 105


  C:A7A7H         LINE#         561
  C:A7ABH         LINE#         562
  C:A7AFH         LINE#         563
  C:A7B3H         LINE#         564
  C:A7B7H         LINE#         565
  C:A7BBH         LINE#         566
  C:A7C7H         LINE#         567
  C:A7C7H         LINE#         568
  C:A7DBH         LINE#         569
  C:A7DEH         LINE#         570
  C:A7E6H         LINE#         571
  C:A7E8H         LINE#         572
  C:A7EDH         LINE#         573
  C:A7FCH         LINE#         574
  C:A807H         LINE#         575
  C:A80DH         LINE#         578
  -------         ENDPROC       POWER_OFF
  -------         ENDMOD        LINTECH

  -------         MODULE        VERIFICADOR
  C:0000H         SYMBOL        _ICE_DUMMY_
  D:0080H         PUBLIC        P0
  C:B9CDH         PUBLIC        Analiza_Presencia_Mensual
  C:ABC5H         PUBLIC        Ingreso_Vehiculo
  D:0090H         PUBLIC        P1
  C:B958H         PUBLIC        _Armar_Trama_Tarjeta_Sector1_Bloque0
  D:00B0H         PUBLIC        P3
  C:5DF5H         PUBLIC        _Valida_Tipo_Tarjeta
  C:B638H         PUBLIC        _Load_Secuencia_Expedidor
  C:6801H         PUBLIC        _Armar_Trama_Tarjeta_Sector1_Bloque2
  C:5C4CH         PUBLIC        _Armar_Trama_Pto_Paralelo_Expedidor
  C:8BB0H         PUBLIC        _Tarjeta_Mensual
  C:BA19H         PUBLIC        Analiza_Presencia_rotacion
  C:9F18H         PUBLIC        _Disparo_Lock_Entrada_Vehiculo
  C:B880H         PUBLIC        Pregunta_Placa
  C:9CCEH         PUBLIC        _Valida_Vehiculo_Card_Mensual
  C:B709H         PUBLIC        Analiza_card_mount_rf
  C:AE1EH         PUBLIC        _Armar_Trama_Placa
  C:888DH         PUBLIC        _rta_cmd_transporte
  C:BCA0H         PUBLIC        Captura_Expulsa
  C:6568H         PUBLIC        _Armar_Trama_Monitor
  C:6A81H         PUBLIC        Secuencia_inicio_expedidor
  C:8470H         PUBLIC        _Analiza_Uid_Card
  B:0080H.0       PUBLIC        rx_ip
  C:7711H         PUBLIC        _Bloque_Horario
  B:0080H.3       PUBLIC        Atascado_GP0_PIN_3
  B:0090H.7       PUBLIC        lock
  C:97EAH         PUBLIC        _Armar_Trama_Tarjeta_Sector1_Bloque1_Camcel
  C:9A68H         PUBLIC        _Responde_Lectura_Tarjeta_Sector1_Bloque0
  C:8F79H         PUBLIC        error_rx_pto
  C:56EBH         PUBLIC        _Responde_Lectura_Tarjeta_Sector1_Bloque1
  C:6E32H         PUBLIC        _Responde_Lectura_Tarjeta_Sector1_Bloque2
  C:99CCH         PUBLIC        _Respuesta_Placa_Cancel
  B:0090H.1       PUBLIC        DataIn
  C:A986H         PUBLIC        _Send_Pto_Paralelo
  C:B527H         PUBLIC        Trama_Validacion_P_N
  B:0022H.0       PUBLIC        MenSual
BL51 BANKED LINKER/LOCATER V6.22.2.0                                                  05/25/2021  12:30:00  PAGE 106


  C:86F0H         PUBLIC        _Armar_Trama_Pto_Paralelo_Expedidor_Mensual
  C:74F6H         PUBLIC        _Horarios
  C:9544H         PUBLIC        _Hora_Maxima
  C:6411H         PUBLIC        _Responde_ReeLectura_Tarjeta_Sector1_Bloque2
  C:35ACH         PUBLIC        _SecuenciaExpedidorMF
  C:B299H         PUBLIC        _Pregunta_Lpr
  C:93DBH         PUBLIC        _Wait_Placa
  C:A90AH         PUBLIC        Responde_Estado_Sensores_Transporte
  C:9FA8H         PUBLIC        Entrega_Card_Captura
  C:ADC1H         PUBLIC        _Respuesta_Segunda_clave
  X:0142H         SYMBOL        Estado
  C:B7B1H         PUBLIC        _Responde_Write_Tarjeta_Sector1_Bloque0
  C:B77BH         PUBLIC        _Responde_Write_Tarjeta_Sector1_Bloque1
  C:B180H         PUBLIC        _Responde_Write_Tarjeta_Sector2_Bloque0
  C:AB59H         PUBLIC        _Responde_Write_Tarjeta_Sector1_Bloque2
  C:AA79H         PUBLIC        _En_Horario
  C:AA02H         PUBLIC        Responde_Tipo_Tarjeta
  C:B84FH         PUBLIC        _Tarjeta_Rotacion
  -------         PROC          CAPTURA_EXPULSA
  -------         DO            
  D:0007H         SYMBOL        Estado_expedidor
  -------         ENDDO         
  C:BCA0H         LINE#         535
  C:BCA0H         LINE#         536
  C:BCA0H         LINE#         540
  C:BCA3H         LINE#         541
  C:BCA3H         LINE#         542
  C:BCA5H         LINE#         543
  C:BCA6H         LINE#         545
  C:BCA6H         LINE#         547
  C:BCA8H         LINE#         548
  C:BCA8H         LINE#         551
  C:BCA8H         LINE#         552
  -------         ENDPROC       CAPTURA_EXPULSA
  -------         PROC          TRAMA_VALIDACION_P_N
  -------         DO            
  D:0007H         SYMBOL        Trama_Validacion_P_N
  -------         ENDDO         
  C:B527H         LINE#         563
  C:B527H         LINE#         564
  C:B527H         LINE#         565
  C:B529H         LINE#         567
  C:B53FH         LINE#         568
  C:B53FH         LINE#         569
  C:B542H         LINE#         570
  C:B542H         LINE#         571
  C:B544H         LINE#         574
  C:B54CH         LINE#         575
  C:B54CH         LINE#         577
  C:B54EH         LINE#         579
  C:B54FH         LINE#         580
  C:B553H         LINE#         581
  C:B553H         LINE#         583
  C:B555H         LINE#         585
  C:B556H         LINE#         587
  C:B556H         LINE#         588
  C:B55FH         LINE#         589
BL51 BANKED LINKER/LOCATER V6.22.2.0                                                  05/25/2021  12:30:00  PAGE 107


  C:B561H         LINE#         591
  C:B561H         LINE#         592
  C:B562H         LINE#         594
  C:B562H         LINE#         596
  C:B564H         LINE#         598
  C:B564H         LINE#         600
  C:B564H         LINE#         602
  C:B564H         LINE#         603
  -------         ENDPROC       TRAMA_VALIDACION_P_N
  -------         PROC          ERROR_RX_PTO
  -------         DO            
  X:00B7H         SYMBOL        cnt_espera_ask_on
  X:0007H         SYMBOL        error_rx_pto
  -------         ENDDO         
  C:8F79H         LINE#         627
  C:8F79H         LINE#         628
  C:8F79H         LINE#         631
  C:8F7FH         LINE#         635
  C:8F88H         LINE#         636
  C:8F90H         LINE#         637
  C:8F99H         LINE#         638
  C:8FA1H         LINE#         639
  C:8FAAH         LINE#         640
  C:8FADH         LINE#         642
  C:8FADH         LINE#         643
  C:8FB3H         LINE#         644
  C:8FBDH         LINE#         645
  C:8FBDH         LINE#         646
  C:8FC6H         LINE#         647
  C:8FC8H         LINE#         648
  C:8FCFH         LINE#         649
  C:8FD4H         LINE#         650
  C:8FDAH         LINE#         651
  C:8FDFH         LINE#         652
  C:8FE1H         LINE#         653
  C:8FE8H         LINE#         654
  C:8FEEH         LINE#         655
  C:8FEEH         LINE#         657
  C:8FEEH         LINE#         658
  C:8FF3H         LINE#         659
  C:8FF3H         LINE#         660
  C:8FF3H         LINE#         661
  C:8FF5H         LINE#         663
  C:8FF5H         LINE#         664
  C:9003H         LINE#         665
  C:9016H         LINE#         666
  C:9016H         LINE#         667
  C:9017H         LINE#         669
  C:901DH         LINE#         670
  C:9021H         LINE#         671
  C:9023H         LINE#         672
  C:9023H         LINE#         673
  C:9025H         LINE#         675
  C:9025H         LINE#         676
  C:9026H         LINE#         677
  C:902BH         LINE#         678
  C:9031H         LINE#         679
BL51 BANKED LINKER/LOCATER V6.22.2.0                                                  05/25/2021  12:30:00  PAGE 108


  C:9031H         LINE#         680
  C:9031H         LINE#         681
  C:9036H         LINE#         682
  -------         ENDPROC       ERROR_RX_PTO
  -------         PROC          _RTA_CMD_TRANSPORTE
  X:0002H         SYMBOL        secuencia_Expedidor
  -------         DO            
  X:0005H         SYMBOL        temp
  X:0006H         SYMBOL        EstadoComSeqMF
  -------         ENDDO         
  C:888DH         LINE#         698
  C:8898H         LINE#         699
  C:8898H         LINE#         705
  C:88A5H         LINE#         706
  C:88A5H         LINE#         707
  C:88ADH         LINE#         708
  C:88ADH         LINE#         709
  C:88BBH         LINE#         710
  C:88BEH         LINE#         711
  C:88C4H         LINE#         712
  C:88C4H         LINE#         713
  C:88CDH         LINE#         714
  C:88E1H         LINE#         715
  C:88F2H         LINE#         717
  C:88F4H         LINE#         719
  C:88F4H         LINE#         722
  C:890CH         LINE#         723
  C:890CH         LINE#         724
  C:8917H         LINE#         725
  C:8919H         LINE#         727
  C:8919H         LINE#         728
  C:8927H         LINE#         729
  C:8927H         LINE#         730
  C:8927H         LINE#         731
  C:8929H         LINE#         733
  C:8929H         LINE#         735
  C:893DH         LINE#         736
  C:8952H         LINE#         737
  C:8952H         LINE#         738
  C:8957H         LINE#         739
  -------         ENDPROC       _RTA_CMD_TRANSPORTE
  -------         PROC          ANALIZA_PRESENCIA_MENSUAL
  -------         DO            
  X:0002H         SYMBOL        Estado_expedidor
  -------         ENDDO         
  C:B9CDH         LINE#         743
  C:B9CDH         LINE#         744
  C:B9CDH         LINE#         748
  C:B9D3H         LINE#         749
  C:B9D3H         LINE#         750
  C:B9D5H         LINE#         751
  C:B9DBH         LINE#         752
  C:B9DDH         LINE#         754
  C:B9DDH         LINE#         756
  C:B9E2H         LINE#         757
  C:B9E7H         LINE#         758
  C:B9EDH         LINE#         759
BL51 BANKED LINKER/LOCATER V6.22.2.0                                                  05/25/2021  12:30:00  PAGE 109


  C:B9EDH         LINE#         760
  C:B9F2H         LINE#         761
  -------         ENDPROC       ANALIZA_PRESENCIA_MENSUAL
  -------         PROC          ANALIZA_CARD_MOUNT_RF
  -------         DO            
  X:0002H         SYMBOL        Estado_expedidor
  -------         ENDDO         
  C:B709H         LINE#         765
  C:B709H         LINE#         766
  C:B709H         LINE#         768
  C:B70FH         LINE#         769
  C:B716H         LINE#         770
  C:B716H         LINE#         772
  C:B71FH         LINE#         774
  C:B725H         LINE#         775
  C:B727H         LINE#         776
  C:B72EH         LINE#         778
  C:B72EH         LINE#         779
  C:B737H         LINE#         780
  C:B73DH         LINE#         781
  C:B73DH         LINE#         784
  C:B742H         LINE#         785
  -------         ENDPROC       ANALIZA_CARD_MOUNT_RF
  -------         PROC          ANALIZA_PRESENCIA_ROTACION
  -------         DO            
  X:0002H         SYMBOL        Estado_expedidor
  -------         ENDDO         
  C:BA19H         LINE#         789
  C:BA19H         LINE#         790
  C:BA19H         LINE#         792
  C:BA1FH         LINE#         793
  C:BA1FH         LINE#         795
  C:BA25H         LINE#         796
  C:BA27H         LINE#         798
  C:BA27H         LINE#         800
  C:BA2CH         LINE#         801
  C:BA31H         LINE#         802
  C:BA36H         LINE#         804
  C:BA36H         LINE#         805
  C:BA3BH         LINE#         806
  -------         ENDPROC       ANALIZA_PRESENCIA_ROTACION
  -------         PROC          _ANALIZA_UID_CARD
  X:0002H         SYMBOL        Atributos_Expedidor
  -------         DO            
  X:0005H         SYMBOL        Estado_expedidor
  D:0007H         SYMBOL        temp
  X:0006H         SYMBOL        buffer_UID
  -------         ENDDO         
  C:8470H         LINE#         810
  C:847BH         LINE#         811
  C:847BH         LINE#         815
  C:848BH         LINE#         816
  C:848BH         LINE#         818
  C:8497H         LINE#         819
  C:8497H         LINE#         820
  C:84AFH         LINE#         822
  C:84B2H         LINE#         824
BL51 BANKED LINKER/LOCATER V6.22.2.0                                                  05/25/2021  12:30:00  PAGE 110


  C:84BBH         LINE#         825
  C:84CCH         LINE#         828
  C:84D5H         LINE#         829
  C:84DDH         LINE#         830
  C:84E5H         LINE#         831
  C:84EDH         LINE#         832
  C:84F5H         LINE#         833
  C:84FEH         LINE#         835
  C:8515H         LINE#         836
  C:851FH         LINE#         837
  C:8529H         LINE#         838
  C:8533H         LINE#         839
  C:8539H         LINE#         840
  C:853BH         LINE#         842
  C:853BH         LINE#         843
  C:8541H         LINE#         844
  C:8541H         LINE#         845
  C:8546H         LINE#         846
  -------         ENDPROC       _ANALIZA_UID_CARD
  -------         PROC          INGRESO_VEHICULO
  -------         DO            
  D:0007H         SYMBOL        CardAutomatic
  X:00B9H         SYMBOL        pulseboton
  -------         ENDDO         
  C:ABC5H         LINE#         850
  C:ABC5H         LINE#         851
  C:ABC5H         LINE#         856
  C:ABCBH         LINE#         857
  C:ABCBH         LINE#         858
  C:ABD4H         LINE#         860
  C:ABD9H         LINE#         861
  C:ABD9H         LINE#         862
  C:ABE2H         LINE#         864
  C:ABE2H         LINE#         865
  C:ABE4H         LINE#         867
  C:ABE4H         LINE#         869
  C:ABF1H         LINE#         870
  C:ABF6H         LINE#         871
  C:ABFBH         LINE#         872
  C:ABFDH         LINE#         874
  C:ABFDH         LINE#         875
  C:AC03H         LINE#         878
  C:AC03H         LINE#         879
  C:AC06H         LINE#         880
  C:AC09H         LINE#         881
  C:AC09H         LINE#         882
  C:AC0BH         LINE#         883
  C:AC10H         LINE#         884
  C:AC16H         LINE#         885
  C:AC18H         LINE#         887
  C:AC18H         LINE#         888
  C:AC1DH         LINE#         889
  C:AC23H         LINE#         890
  C:AC23H         LINE#         893
  C:AC23H         LINE#         894
  C:AC25H         LINE#         896
  C:AC25H         LINE#         898
BL51 BANKED LINKER/LOCATER V6.22.2.0                                                  05/25/2021  12:30:00  PAGE 111


  C:AC2AH         LINE#         899
  C:AC2AH         LINE#         900
  C:AC2FH         LINE#         901
  -------         ENDPROC       INGRESO_VEHICULO
  -------         PROC          RESPONDE_ESTADO_SENSORES_TRANSPORTE
  -------         DO            
  X:0002H         SYMBOL        Estado_expedidor
  -------         ENDDO         
  C:A90AH         LINE#         908
  C:A90AH         LINE#         909
  C:A90AH         LINE#         912
  C:A913H         LINE#         914
  C:A91BH         LINE#         915
  C:A91BH         LINE#         917
  C:A926H         LINE#         918
  C:A926H         LINE#         919
  C:A92AH         LINE#         920
  C:A92AH         LINE#         921
  C:A933H         LINE#         922
  C:A938H         LINE#         924
  C:A938H         LINE#         925
  C:A93AH         LINE#         927
  C:A93AH         LINE#         929
  C:A942H         LINE#         931
  C:A942H         LINE#         932
  C:A944H         LINE#         934
  C:A944H         LINE#         936
  C:A94DH         LINE#         938
  C:A952H         LINE#         941
  C:A952H         LINE#         942
  C:A952H         LINE#         943
  C:A954H         LINE#         944
  C:A95BH         LINE#         945
  C:A95BH         LINE#         947
  C:A961H         LINE#         949
  C:A961H         LINE#         950
  C:A963H         LINE#         951
  C:A96AH         LINE#         953
  C:A96AH         LINE#         954
  C:A973H         LINE#         955
  C:A979H         LINE#         956
  C:A97BH         LINE#         958
  C:A97BH         LINE#         959
  C:A980H         LINE#         960
  C:A980H         LINE#         961
  C:A985H         LINE#         962
  -------         ENDPROC       RESPONDE_ESTADO_SENSORES_TRANSPORTE
  -------         PROC          RESPONDE_TIPO_TARJETA
  -------         DO            
  X:0002H         SYMBOL        Estado_expedidor
  -------         ENDDO         
  C:AA02H         LINE#         978
  C:AA02H         LINE#         979
  C:AA02H         LINE#         982
  C:AA0BH         LINE#         984
  C:AA13H         LINE#         985
  C:AA13H         LINE#         986
BL51 BANKED LINKER/LOCATER V6.22.2.0                                                  05/25/2021  12:30:00  PAGE 112


  C:AA1EH         LINE#         987
  C:AA1EH         LINE#         988
  C:AA27H         LINE#         989
  C:AA2DH         LINE#         990
  C:AA2DH         LINE#         991
  C:AA30H         LINE#         992
  C:AA32H         LINE#         994
  C:AA32H         LINE#         995
  C:AA35H         LINE#         996
  C:AA35H         LINE#         997
  C:AA37H         LINE#         999
  C:AA37H         LINE#         1000
  C:AA3EH         LINE#         1001
  C:AA3EH         LINE#         1003
  C:AA44H         LINE#         1005
  C:AA44H         LINE#         1006
  C:AA44H         LINE#         1008
  C:AA44H         LINE#         1010
  C:AA46H         LINE#         1012
  C:AA46H         LINE#         1013
  C:AA46H         LINE#         1014
  C:AA46H         LINE#         1015
  C:AA46H         LINE#         1016
  C:AA46H         LINE#         1017
  C:AA48H         LINE#         1019
  C:AA48H         LINE#         1020
  C:AA4FH         LINE#         1021
  C:AA4FH         LINE#         1024
  C:AA58H         LINE#         1026
  C:AA5DH         LINE#         1027
  C:AA62H         LINE#         1029
  C:AA6AH         LINE#         1032
  C:AA6CH         LINE#         1034
  C:AA6CH         LINE#         1035
  C:AA6EH         LINE#         1036
  C:AA73H         LINE#         1037
  C:AA73H         LINE#         1038
  C:AA73H         LINE#         1040
  C:AA78H         LINE#         1041
  -------         ENDPROC       RESPONDE_TIPO_TARJETA
  -------         PROC          _RESPONDE_LECTURA_TARJETA_SECTOR1_BLOQUE1
  X:0002H         SYMBOL        Atributos_Expedidor
  -------         DO            
  D:0007H         SYMBOL        temp
  X:0005H         SYMBOL        Estado_expedidor
  X:0006H         SYMBOL        buffer_S1_B1
  X:0017H         SYMBOL        ID_CLIENTE
  D:0007H         SYMBOL        COD_PARK
  X:00BAH         SYMBOL        falla
  -------         ENDDO         
  C:56EBH         LINE#         1053
  C:56F6H         LINE#         1054
  C:56F6H         LINE#         1061
  C:56FFH         LINE#         1065
  C:570FH         LINE#         1066
  C:570FH         LINE#         1068
  C:571BH         LINE#         1069
BL51 BANKED LINKER/LOCATER V6.22.2.0                                                  05/25/2021  12:30:00  PAGE 113


  C:571BH         LINE#         1070
  C:5733H         LINE#         1072
  C:5736H         LINE#         1075
  C:573FH         LINE#         1076
  C:5750H         LINE#         1077
  C:575DH         LINE#         1078
  C:5766H         LINE#         1081
  C:5785H         LINE#         1082
  C:5785H         LINE#         1084
  C:578EH         LINE#         1085
  C:5796H         LINE#         1086
  C:579FH         LINE#         1088
  C:57A8H         LINE#         1089
  C:57B0H         LINE#         1090
  C:57B9H         LINE#         1092
  C:57C2H         LINE#         1093
  C:57CAH         LINE#         1094
  C:57D3H         LINE#         1096
  C:57DCH         LINE#         1097
  C:57E4H         LINE#         1098
  C:57EDH         LINE#         1100
  C:57F6H         LINE#         1101
  C:57FEH         LINE#         1102
  C:5807H         LINE#         1104
  C:581EH         LINE#         1106
  C:5828H         LINE#         1107
  C:5832H         LINE#         1108
  C:583CH         LINE#         1110
  C:5841H         LINE#         1111
  C:5854H         LINE#         1112
  C:5859H         LINE#         1113
  C:585FH         LINE#         1115
  C:5861H         LINE#         1117
  C:5861H         LINE#         1118
  C:5866H         LINE#         1119
  C:586FH         LINE#         1120
  C:5874H         LINE#         1121
  C:5876H         LINE#         1122
  C:5876H         LINE#         1123
  C:5876H         LINE#         1124
  C:5878H         LINE#         1126
  C:5878H         LINE#         1128
  C:5880H         LINE#         1129
  C:5880H         LINE#         1130
  C:5886H         LINE#         1131
  C:5886H         LINE#         1132
  C:5893H         LINE#         1134
  C:5893H         LINE#         1135
  C:589CH         LINE#         1136
  C:58A2H         LINE#         1138
  C:58A4H         LINE#         1140
  C:58A4H         LINE#         1141
  C:58A9H         LINE#         1142
  C:58B2H         LINE#         1143
  C:58B7H         LINE#         1144
  C:58BCH         LINE#         1145
  C:58C4H         LINE#         1146
BL51 BANKED LINKER/LOCATER V6.22.2.0                                                  05/25/2021  12:30:00  PAGE 114


  C:58C4H         LINE#         1147
  C:58C4H         LINE#         1149
  C:58C9H         LINE#         1150
  -------         ENDPROC       _RESPONDE_LECTURA_TARJETA_SECTOR1_BLOQUE1
  -------         PROC          _RESPONDE_LECTURA_TARJETA_SECTOR1_BLOQUE2
  X:0002H         SYMBOL        Atributos_Expedidor
  -------         DO            
  D:0007H         SYMBOL        temp
  X:0005H         SYMBOL        Estado_expedidor
  X:0006H         SYMBOL        buffer_S1_B2
  -------         ENDDO         
  C:6E32H         LINE#         1155
  C:6E3DH         LINE#         1156
  C:6E3DH         LINE#         1162
  C:6E46H         LINE#         1166
  C:6E56H         LINE#         1167
  C:6E56H         LINE#         1169
  C:6E62H         LINE#         1170
  C:6E62H         LINE#         1171
  C:6E7AH         LINE#         1172
  C:6E7DH         LINE#         1173
  C:6E86H         LINE#         1174
  C:6E97H         LINE#         1178
  C:6EA0H         LINE#         1179
  C:6EADH         LINE#         1180
  C:6EC9H         LINE#         1181
  C:6ED2H         LINE#         1183
  C:6EDBH         LINE#         1185
  C:6EF7H         LINE#         1186
  C:6F01H         LINE#         1187
  C:6F0AH         LINE#         1190
  C:6F13H         LINE#         1191
  C:6F1BH         LINE#         1192
  C:6F24H         LINE#         1196
  C:6F3BH         LINE#         1199
  C:6F47H         LINE#         1200
  C:6F4DH         LINE#         1203
  C:6F4FH         LINE#         1205
  C:6F4FH         LINE#         1206
  C:6F57H         LINE#         1207
  C:6F57H         LINE#         1208
  C:6F5CH         LINE#         1209
  -------         ENDPROC       _RESPONDE_LECTURA_TARJETA_SECTOR1_BLOQUE2
  -------         PROC          _RESPONDE_LECTURA_TARJETA_SECTOR1_BLOQUE0
  X:0002H         SYMBOL        Nombre_Mensual
  -------         DO            
  D:0007H         SYMBOL        temp
  X:0005H         SYMBOL        Estado_expedidor
  -------         ENDDO         
  C:9A68H         LINE#         1211
  C:9A73H         LINE#         1212
  C:9A73H         LINE#         1218
  C:9A7CH         LINE#         1222
  C:9A89H         LINE#         1223
  C:9A89H         LINE#         1225
  C:9A95H         LINE#         1226
  C:9A95H         LINE#         1227
BL51 BANKED LINKER/LOCATER V6.22.2.0                                                  05/25/2021  12:30:00  PAGE 115


  C:9AB5H         LINE#         1228
  C:9AB8H         LINE#         1229
  C:9ACCH         LINE#         1230
  C:9AD5H         LINE#         1231
  C:9AE3H         LINE#         1232
  C:9AECH         LINE#         1233
  C:9AF2H         LINE#         1236
  C:9AF4H         LINE#         1238
  C:9AF4H         LINE#         1239
  C:9AFCH         LINE#         1240
  C:9AFCH         LINE#         1241
  C:9B01H         LINE#         1242
  -------         ENDPROC       _RESPONDE_LECTURA_TARJETA_SECTOR1_BLOQUE0
  -------         PROC          _RESPONDE_REELECTURA_TARJETA_SECTOR1_BLOQUE2
  X:0002H         SYMBOL        lectura_anterior
  X:0005H         SYMBOL        Atributos_Expedidor
  -------         DO            
  D:0007H         SYMBOL        temp
  X:0008H         SYMBOL        Estado_expedidor
  X:0009H         SYMBOL        reelectura
  X:00BBH         SYMBOL        error_lectura
  -------         ENDDO         
  C:6411H         LINE#         1243
  C:641CH         LINE#         1244
  C:641CH         LINE#         1250
  C:6425H         LINE#         1253
  C:6435H         LINE#         1254
  C:6435H         LINE#         1256
  C:6441H         LINE#         1257
  C:6441H         LINE#         1258
  C:6461H         LINE#         1259
  C:6464H         LINE#         1260
  C:6478H         LINE#         1261
  C:6481H         LINE#         1262
  C:6497H         LINE#         1263
  C:64A0H         LINE#         1265
  C:64C4H         LINE#         1266
  C:64C4H         LINE#         1267
  C:64C8H         LINE#         1268
  C:64D1H         LINE#         1269
  C:64DAH         LINE#         1270
  C:64EAH         LINE#         1271
  C:64FCH         LINE#         1272
  C:650AH         LINE#         1273
  C:650AH         LINE#         1274
  C:650CH         LINE#         1276
  C:650CH         LINE#         1277
  C:6512H         LINE#         1278
  C:6522H         LINE#         1279
  C:6522H         LINE#         1280
  C:6525H         LINE#         1281
  C:652BH         LINE#         1283
  C:652DH         LINE#         1285
  C:652DH         LINE#         1286
  C:6530H         LINE#         1287
  C:6539H         LINE#         1288
  C:6549H         LINE#         1289
BL51 BANKED LINKER/LOCATER V6.22.2.0                                                  05/25/2021  12:30:00  PAGE 116


  C:655CH         LINE#         1290
  C:6562H         LINE#         1292
  C:6562H         LINE#         1293
  C:6562H         LINE#         1295
  C:6562H         LINE#         1296
  C:6567H         LINE#         1297
  -------         ENDPROC       _RESPONDE_REELECTURA_TARJETA_SECTOR1_BLOQUE2
  -------         PROC          _RESPONDE_WRITE_TARJETA_SECTOR1_BLOQUE1
  X:0002H         SYMBOL        Buffer_Write_MF
  -------         DO            
  D:0007H         SYMBOL        Estado_expedidor
  -------         ENDDO         
  C:B77BH         LINE#         1298
  C:B786H         LINE#         1299
  C:B786H         LINE#         1301
  C:B78FH         LINE#         1302
  C:B798H         LINE#         1303
  C:B7AEH         LINE#         1304
  C:B7B0H         LINE#         1305
  C:B7B0H         LINE#         1306
  -------         ENDPROC       _RESPONDE_WRITE_TARJETA_SECTOR1_BLOQUE1
  -------         PROC          _RESPONDE_WRITE_TARJETA_SECTOR1_BLOQUE2
  X:0002H         SYMBOL        Atributos_Expedidor
  X:0005H         SYMBOL        Buffer_Write_MF
  -------         DO            
  X:0008H         SYMBOL        Estado_expedidor
  -------         ENDDO         
  C:AB59H         LINE#         1307
  C:AB64H         LINE#         1308
  C:AB64H         LINE#         1310
  C:AB6DH         LINE#         1311
  C:AB76H         LINE#         1312
  C:AB8CH         LINE#         1313
  C:AB8FH         LINE#         1314
  C:AB8FH         LINE#         1315
  C:AB95H         LINE#         1321
  C:AB97H         LINE#         1323
  C:AB97H         LINE#         1324
  C:ABA7H         LINE#         1325
  C:ABB9H         LINE#         1326
  C:ABBFH         LINE#         1328
  C:ABBFH         LINE#         1329
  C:ABC4H         LINE#         1330
  -------         ENDPROC       _RESPONDE_WRITE_TARJETA_SECTOR1_BLOQUE2
  -------         PROC          _RESPONDE_WRITE_TARJETA_SECTOR1_BLOQUE0
  X:0002H         SYMBOL        Buffer_Write_MF
  C:B7B1H         LINE#         1333
  C:B7BCH         LINE#         1334
  C:B7BCH         LINE#         1336
  C:B7C5H         LINE#         1337
  C:B7CEH         LINE#         1338
  C:B7E4H         LINE#         1340
  C:B7E6H         LINE#         1341
  -------         ENDPROC       _RESPONDE_WRITE_TARJETA_SECTOR1_BLOQUE0
  -------         PROC          _RESPONDE_WRITE_TARJETA_SECTOR2_BLOQUE0
  X:0002H         SYMBOL        Buffer_Write_MF
  C:B180H         LINE#         1344
BL51 BANKED LINKER/LOCATER V6.22.2.0                                                  05/25/2021  12:30:00  PAGE 117


  C:B18BH         LINE#         1345
  C:B18BH         LINE#         1347
  C:B194H         LINE#         1348
  C:B19DH         LINE#         1349
  C:B1A6H         LINE#         1350
  C:B1AFH         LINE#         1351
  C:B1C4H         LINE#         1352
  C:B1C6H         LINE#         1353
  -------         ENDPROC       _RESPONDE_WRITE_TARJETA_SECTOR2_BLOQUE0
  -------         PROC          _PREGUNTA_LPR
  X:0002H         SYMBOL        Atributos_Expedidor
  -------         DO            
  D:0007H         SYMBOL        Estado_expedidor
  -------         ENDDO         
  C:B299H         LINE#         1357
  C:B2A4H         LINE#         1358
  C:B2A4H         LINE#         1360
  C:B2ADH         LINE#         1361
  C:B2BBH         LINE#         1362
  C:B2BBH         LINE#         1364
  C:B2CCH         LINE#         1365
  C:B2D8H         LINE#         1366
  C:B2D8H         LINE#         1367
  C:B2DCH         LINE#         1368
  C:B2DCH         LINE#         1369
  C:B2DCH         LINE#         1372
  C:B2DEH         LINE#         1374
  C:B2DEH         LINE#         1375
  -------         ENDPROC       _PREGUNTA_LPR
  -------         PROC          PREGUNTA_PLACA
  -------         DO            
  X:0002H         SYMBOL        Estado_expedidor
  -------         ENDDO         
  C:B880H         LINE#         1376
  C:B880H         LINE#         1377
  C:B880H         LINE#         1379
  C:B889H         LINE#         1380
  C:B898H         LINE#         1381
  C:B898H         LINE#         1383
  C:B89BH         LINE#         1384
  C:B8A0H         LINE#         1385
  C:B8A5H         LINE#         1386
  C:B8A7H         LINE#         1388
  C:B8A7H         LINE#         1389
  C:B8AAH         LINE#         1390
  C:B8AAH         LINE#         1391
  C:B8AFH         LINE#         1392
  -------         ENDPROC       PREGUNTA_PLACA
  -------         PROC          _RESPUESTA_SEGUNDA_CLAVE
  X:0002H         SYMBOL        Atributos_Expedidor
  X:0005H         SYMBOL        Buffer_Write_MF
  C:ADC1H         LINE#         1393
  C:ADCCH         LINE#         1394
  C:ADCCH         LINE#         1396
  C:ADD5H         LINE#         1397
  C:ADEBH         LINE#         1400
  C:ADFBH         LINE#         1401
BL51 BANKED LINKER/LOCATER V6.22.2.0                                                  05/25/2021  12:30:00  PAGE 118


  C:AE0DH         LINE#         1402
  C:AE1BH         LINE#         1404
  C:AE1DH         LINE#         1405
  -------         ENDPROC       _RESPUESTA_SEGUNDA_CLAVE
  -------         PROC          _RESPUESTA_PLACA_CANCEL
  X:0009H         SYMBOL        Atributos_Expedidor
  X:000CH         SYMBOL        Buffer_Write_MF
  -------         DO            
  X:000FH         SYMBOL        Estado_expedidor
  X:0010H         SYMBOL        Cancel
  -------         ENDDO         
  C:99CCH         LINE#         1406
  C:99D7H         LINE#         1407
  C:99D7H         LINE#         1409
  C:99E5H         LINE#         1410
  C:99EEH         LINE#         1411
  C:99F7H         LINE#         1412
  C:9A00H         LINE#         1414
  C:9A1BH         LINE#         1415
  C:9A1BH         LINE#         1416
  C:9A2BH         LINE#         1417
  C:9A3EH         LINE#         1418
  C:9A4CH         LINE#         1419
  C:9A52H         LINE#         1420
  C:9A54H         LINE#         1422
  C:9A54H         LINE#         1423
  C:9A5AH         LINE#         1424
  C:9A5AH         LINE#         1425
  C:9A5DH         LINE#         1426
  C:9A5FH         LINE#         1428
  C:9A5FH         LINE#         1430
  C:9A62H         LINE#         1431
  C:9A62H         LINE#         1432
  C:9A62H         LINE#         1433
  C:9A67H         LINE#         1434
  -------         ENDPROC       _RESPUESTA_PLACA_CANCEL
  -------         PROC          _ARMAR_TRAMA_TARJETA_SECTOR1_BLOQUE1_CAMCEL
  X:0013H         SYMBOL        Buffer_Write_MF
  -------         DO            
  X:0016H         SYMBOL        ID_CLIENTE
  D:0007H         SYMBOL        COD_PARK
  -------         ENDDO         
  C:97EAH         LINE#         1437
  C:97F5H         LINE#         1438
  C:97F5H         LINE#         1442
  C:97F8H         LINE#         1443
  C:9805H         LINE#         1444
  C:980EH         LINE#         1446
  C:981EH         LINE#         1447
  C:9830H         LINE#         1448
  C:9837H         LINE#         1449
  C:9841H         LINE#         1450
  C:9848H         LINE#         1451
  C:984FH         LINE#         1452
  C:9856H         LINE#         1453
  C:985DH         LINE#         1454
  C:9864H         LINE#         1455
BL51 BANKED LINKER/LOCATER V6.22.2.0                                                  05/25/2021  12:30:00  PAGE 119


  C:986BH         LINE#         1456
  C:9872H         LINE#         1457
  C:9879H         LINE#         1458
  C:9880H         LINE#         1459
  C:9887H         LINE#         1460
  -------         ENDPROC       _ARMAR_TRAMA_TARJETA_SECTOR1_BLOQUE1_CAMCEL
  -------         PROC          _ARMAR_TRAMA_TARJETA_SECTOR1_BLOQUE2
  X:0010H         SYMBOL        Atributos_Expedidor
  X:0013H         SYMBOL        Buffer_Write_MF
  C:6801H         LINE#         1466
  C:680CH         LINE#         1467
  C:680CH         LINE#         1471
  C:6818H         LINE#         1475
  C:682AH         LINE#         1476
  C:6831H         LINE#         1477
  C:6838H         LINE#         1479
  C:684DH         LINE#         1480
  C:684DH         LINE#         1481
  C:6864H         LINE#         1482
  C:687DH         LINE#         1483
  C:687DH         LINE#         1484
  C:6880H         LINE#         1488
  C:6880H         LINE#         1490
  C:68AFH         LINE#         1491
  C:68DEH         LINE#         1493
  C:68F6H         LINE#         1494
  C:68F6H         LINE#         1495
  C:6903H         LINE#         1496
  C:6905H         LINE#         1498
  C:6905H         LINE#         1499
  C:6915H         LINE#         1500
  C:6915H         LINE#         1501
  C:6915H         LINE#         1503
  C:6927H         LINE#         1504
  C:692EH         LINE#         1505
  C:6935H         LINE#         1506
  C:693CH         LINE#         1507
  -------         ENDPROC       _ARMAR_TRAMA_TARJETA_SECTOR1_BLOQUE2
  -------         PROC          _ARMAR_TRAMA_TARJETA_SECTOR1_BLOQUE0
  X:000CH         SYMBOL        Buffer_Write_MF
  C:B958H         LINE#         1509
  C:B963H         LINE#         1510
  C:B963H         LINE#         1512
  -------         ENDPROC       _ARMAR_TRAMA_TARJETA_SECTOR1_BLOQUE0
  -------         PROC          _ARMAR_TRAMA_PTO_PARALELO_EXPEDIDOR
  X:0006H         SYMBOL        h
  -------         DO            
  X:00BCH         SYMBOL        buffer
  X:0009H         SYMBOL        ticket
  X:0014H         SYMBOL        j
  -------         ENDDO         
  C:5C4CH         LINE#         1514
  C:5C57H         LINE#         1515
  C:5C57H         LINE#         1522
  C:5C5DH         LINE#         1523
  C:5C61H         LINE#         1524
  C:5C64H         LINE#         1525
BL51 BANKED LINKER/LOCATER V6.22.2.0                                                  05/25/2021  12:30:00  PAGE 120


  C:5C70H         LINE#         1526
  C:5C87H         LINE#         1527
  C:5C95H         LINE#         1529
  C:5CA6H         LINE#         1531
  C:5CB6H         LINE#         1532
  C:5CC8H         LINE#         1533
  C:5CD6H         LINE#         1534
  C:5CE4H         LINE#         1535
  C:5CF2H         LINE#         1536
  C:5D00H         LINE#         1537
  C:5D0DH         LINE#         1539
  C:5D1CH         LINE#         1540
  C:5D1CH         LINE#         1541
  C:5D1FH         LINE#         1542
  C:5D1FH         LINE#         1543
  C:5D33H         LINE#         1544
  C:5D42H         LINE#         1545
  C:5D51H         LINE#         1546
  C:5D60H         LINE#         1547
  C:5D6FH         LINE#         1548
  C:5D7EH         LINE#         1549
  C:5D86H         LINE#         1550
  C:5D88H         LINE#         1552
  C:5D88H         LINE#         1553
  C:5D99H         LINE#         1554
  C:5DA1H         LINE#         1555
  C:5DA1H         LINE#         1556
  C:5DA3H         LINE#         1558
  C:5DA3H         LINE#         1559
  C:5DB4H         LINE#         1560
  C:5DC0H         LINE#         1561
  C:5DC0H         LINE#         1562
  C:5DCEH         LINE#         1563
  C:5DDCH         LINE#         1564
  C:5DEEH         LINE#         1566
  C:5DF4H         LINE#         1567
  -------         ENDPROC       _ARMAR_TRAMA_PTO_PARALELO_EXPEDIDOR
  -------         PROC          _ARMAR_TRAMA_PTO_PARALELO_EXPEDIDOR_MENSUAL
  X:0006H         SYMBOL        Atributos_Expedidor
  X:0009H         SYMBOL        j
  -------         DO            
  X:00D8H         SYMBOL        buffer
  -------         ENDDO         
  C:86F0H         LINE#         1568
  C:86FBH         LINE#         1569
  C:86FBH         LINE#         1575
  C:8701H         LINE#         1576
  C:8705H         LINE#         1577
  C:871AH         LINE#         1578
  C:8724H         LINE#         1579
  C:872EH         LINE#         1580
  C:8738H         LINE#         1583
  C:8741H         LINE#         1584
  C:8748H         LINE#         1585
  C:874DH         LINE#         1586
  C:8752H         LINE#         1587
  C:8757H         LINE#         1588
BL51 BANKED LINKER/LOCATER V6.22.2.0                                                  05/25/2021  12:30:00  PAGE 121


  C:875CH         LINE#         1591
  C:8768H         LINE#         1592
  C:8768H         LINE#         1594
  C:876FH         LINE#         1595
  C:8773H         LINE#         1596
  C:8777H         LINE#         1597
  C:877BH         LINE#         1598
  C:877FH         LINE#         1599
  C:8783H         LINE#         1601
  C:8783H         LINE#         1603
  C:8799H         LINE#         1604
  C:8799H         LINE#         1605
  C:879CH         LINE#         1606
  C:879EH         LINE#         1608
  C:879EH         LINE#         1609
  C:87A1H         LINE#         1610
  C:87A1H         LINE#         1612
  C:87A7H         LINE#         1613
  C:87AAH         LINE#         1614
  C:87BAH         LINE#         1615
  C:87C0H         LINE#         1616
  -------         ENDPROC       _ARMAR_TRAMA_PTO_PARALELO_EXPEDIDOR_MENSUAL
  -------         PROC          _ARMAR_TRAMA_MONITOR
  X:0005H         SYMBOL        Atributos_Expedidor
  -------         DO            
  X:00F4H         SYMBOL        buffer
  X:0008H         SYMBOL        ticket
  X:0013H         SYMBOL        j
  -------         ENDDO         
  C:6568H         LINE#         1617
  C:6573H         LINE#         1618
  C:6573H         LINE#         1624
  C:6578H         LINE#         1625
  C:657EH         LINE#         1626
  C:6586H         LINE#         1627
  C:658AH         LINE#         1628
  C:6593H         LINE#         1629
  C:6593H         LINE#         1630
  C:6596H         LINE#         1631
  C:6598H         LINE#         1633
  C:6598H         LINE#         1634
  C:659BH         LINE#         1635
  C:659BH         LINE#         1638
  C:659EH         LINE#         1639
  C:659EH         LINE#         1640
  C:65A3H         LINE#         1641
  C:65AFH         LINE#         1642
  C:65C6H         LINE#         1643
  C:65C9H         LINE#         1645
  C:65C9H         LINE#         1646
  C:65E4H         LINE#         1647
  C:65F2H         LINE#         1648
  C:6600H         LINE#         1649
  C:660CH         LINE#         1650
  C:661AH         LINE#         1651
  C:6653H         LINE#         1653
  C:6653H         LINE#         1654
BL51 BANKED LINKER/LOCATER V6.22.2.0                                                  05/25/2021  12:30:00  PAGE 122


  C:6661H         LINE#         1655
  C:666FH         LINE#         1658
  C:667CH         LINE#         1659
  C:668AH         LINE#         1661
  C:6698H         LINE#         1662
  C:66A5H         LINE#         1663
  C:66B1H         LINE#         1664
  C:66B6H         LINE#         1665
  C:66BBH         LINE#         1666
  -------         ENDPROC       _ARMAR_TRAMA_MONITOR
  -------         PROC          _ARMAR_TRAMA_PLACA
  X:0008H         SYMBOL        Buffer_Write_MF
  -------         DO            
  D:0006H         SYMBOL        j
  D:0007H         SYMBOL        len_placa
  -------         ENDDO         
  C:AE1EH         LINE#         1667
  C:AE29H         LINE#         1668
  C:AE29H         LINE#         1671
  C:AE32H         LINE#         1672
  C:AE39H         LINE#         1673
  C:AE39H         LINE#         1674
  C:AE53H         LINE#         1675
  C:AE56H         LINE#         1676
  C:AE62H         LINE#         1677
  C:AE62H         LINE#         1678
  C:AE76H         LINE#         1679
  C:AE79H         LINE#         1680
  -------         ENDPROC       _ARMAR_TRAMA_PLACA
  C:B61CH         SYMBOL        L?0402
  -------         PROC          L?0401
  -------         ENDPROC       L?0401
  C:B61CH         SYMBOL        L?0402
  -------         PROC          _LOAD_SECUENCIA_EXPEDIDOR
  D:0001H         SYMBOL        Secuencia_Expedidor
  D:0004H         SYMBOL        estadoactivo
  X:0007H         SYMBOL        estadoactual
  X:0009H         SYMBOL        estadofuturo
  C:B638H         LINE#         1681
  C:B638H         LINE#         1682
  C:B638H         LINE#         1683
  C:B63FH         LINE#         1684
  C:B647H         LINE#         1685
  C:B652H         LINE#         1686
  C:B658H         LINE#         1687
  -------         ENDPROC       _LOAD_SECUENCIA_EXPEDIDOR
  -------         PROC          _DISPARO_LOCK_ENTRADA_VEHICULO
  X:0002H         SYMBOL        Nombre_Mensual
  -------         DO            
  X:0005H         SYMBOL        Estado_expedidor
  X:010CH         SYMBOL        take_card
  -------         ENDDO         
  C:9F18H         LINE#         1688
  C:9F23H         LINE#         1689
  C:9F23H         LINE#         1694
  C:9F2CH         LINE#         1698
  C:9F33H         LINE#         1699
BL51 BANKED LINKER/LOCATER V6.22.2.0                                                  05/25/2021  12:30:00  PAGE 123


  C:9F33H         LINE#         1701
  C:9F3CH         LINE#         1703
  C:9F42H         LINE#         1704
  C:9F44H         LINE#         1705
  C:9F49H         LINE#         1706
  C:9F59H         LINE#         1707
  C:9F5FH         LINE#         1710
  C:9F61H         LINE#         1711
  C:9F69H         LINE#         1712
  C:9F69H         LINE#         1713
  C:9F6FH         LINE#         1714
  C:9F6FH         LINE#         1715
  C:9F7CH         LINE#         1716
  C:9F81H         LINE#         1717
  C:9F86H         LINE#         1718
  C:9F88H         LINE#         1720
  C:9F88H         LINE#         1721
  C:9F8EH         LINE#         1723
  C:9F8EH         LINE#         1725
  C:9F94H         LINE#         1726
  C:9F9AH         LINE#         1728
  C:9F9CH         LINE#         1730
  C:9F9CH         LINE#         1731
  C:9FA2H         LINE#         1732
  C:9FA2H         LINE#         1734
  C:9FA2H         LINE#         1739
  C:9FA7H         LINE#         1740
  -------         ENDPROC       _DISPARO_LOCK_ENTRADA_VEHICULO
  -------         PROC          _SEND_PTO_PARALELO
  D:0001H         SYMBOL        Atributos_Expedidor
  -------         DO            
  X:0002H         SYMBOL        Trama_Expedidor
  X:0005H         SYMBOL        leng_trama_pto
  -------         ENDDO         
  C:A986H         LINE#         1741
  C:A986H         LINE#         1742
  C:A986H         LINE#         1745
  C:A989H         LINE#         1746
  C:A989H         LINE#         1747
  C:A9A5H         LINE#         1748
  C:A9A7H         LINE#         1750
  C:A9A7H         LINE#         1751
  C:A9BBH         LINE#         1752
  C:A9BEH         LINE#         1753
  C:A9BEH         LINE#         1755
  C:A9CFH         LINE#         1756
  C:A9D8H         LINE#         1757
  C:A9EFH         LINE#         1761
  C:A9F2H         LINE#         1762
  C:A9F8H         LINE#         1763
  C:A9FDH         LINE#         1764
  C:A9FFH         LINE#         1765
  C:AA01H         LINE#         1766
  -------         ENDPROC       _SEND_PTO_PARALELO
  -------         PROC          ENTREGA_CARD_CAPTURA
  -------         DO            
  X:0002H         SYMBOL        Estado_expedidor
BL51 BANKED LINKER/LOCATER V6.22.2.0                                                  05/25/2021  12:30:00  PAGE 124


  -------         ENDDO         
  C:9FA8H         LINE#         1770
  C:9FA8H         LINE#         1771
  C:9FA8H         LINE#         1775
  C:9FB1H         LINE#         1776
  C:9FB4H         LINE#         1777
  C:9FB7H         LINE#         1778
  C:9FB7H         LINE#         1779
  C:9FC1H         LINE#         1780
  C:9FC1H         LINE#         1781
  C:9FC3H         LINE#         1782
  C:9FC5H         LINE#         1783
  C:9FCEH         LINE#         1784
  C:9FCEH         LINE#         1785
  C:9FCEH         LINE#         1787
  C:9FD0H         LINE#         1789
  C:9FD0H         LINE#         1790
  C:9FD6H         LINE#         1791
  C:9FD6H         LINE#         1793
  C:9FDCH         LINE#         1795
  C:9FEFH         LINE#         1796
  C:9FEFH         LINE#         1797
  C:9FFCH         LINE#         1798
  C:9FFCH         LINE#         1799
  C:9FFEH         LINE#         1800
  C:A007H         LINE#         1802
  C:A009H         LINE#         1803
  C:A009H         LINE#         1804
  C:A00BH         LINE#         1805
  C:A018H         LINE#         1806
  C:A018H         LINE#         1807
  C:A01EH         LINE#         1808
  C:A01EH         LINE#         1809
  C:A01EH         LINE#         1811
  C:A020H         LINE#         1813
  C:A020H         LINE#         1814
  C:A022H         LINE#         1815
  C:A02BH         LINE#         1816
  C:A02DH         LINE#         1817
  C:A032H         LINE#         1818
  C:A032H         LINE#         1819
  C:A032H         LINE#         1821
  C:A037H         LINE#         1822
  -------         ENDPROC       ENTREGA_CARD_CAPTURA
  -------         PROC          _WAIT_PLACA
  X:0002H         SYMBOL        Atributos_Expedidor
  X:0005H         SYMBOL        Buffer_Write_MF
  -------         DO            
  X:0008H         SYMBOL        Estado_expedidor
  -------         ENDDO         
  C:93DBH         LINE#         1823
  C:93E6H         LINE#         1824
  C:93E6H         LINE#         1827
  C:93EFH         LINE#         1829
  C:9405H         LINE#         1830
  C:9405H         LINE#         1831
  C:9408H         LINE#         1832
BL51 BANKED LINKER/LOCATER V6.22.2.0                                                  05/25/2021  12:30:00  PAGE 125


  C:9408H         LINE#         1834
  C:940BH         LINE#         1835
  C:940BH         LINE#         1836
  C:940DH         LINE#         1838
  C:9410H         LINE#         1839
  C:9410H         LINE#         1840
  C:9438H         LINE#         1841
  C:943AH         LINE#         1844
  C:943AH         LINE#         1845
  C:9440H         LINE#         1846
  C:9453H         LINE#         1847
  C:9453H         LINE#         1848
  C:9460H         LINE#         1849
  C:9460H         LINE#         1850
  C:946FH         LINE#         1851
  C:9475H         LINE#         1852
  C:9477H         LINE#         1853
  C:9484H         LINE#         1854
  C:9484H         LINE#         1855
  C:948AH         LINE#         1856
  C:948AH         LINE#         1857
  C:948AH         LINE#         1858
  C:948AH         LINE#         1859
  C:948FH         LINE#         1860
  -------         ENDPROC       _WAIT_PLACA
  -------         PROC          _VALIDA_VEHICULO_CARD_MENSUAL
  X:0010H         SYMBOL        Atributos_Expedidor
  -------         DO            
  X:0013H         SYMBOL        Estado_expedidor
  -------         ENDDO         
  C:9CCEH         LINE#         1861
  C:9CD9H         LINE#         1862
  C:9CD9H         LINE#         1865
  C:9CE2H         LINE#         1866
  C:9CF7H         LINE#         1867
  C:9CF7H         LINE#         1868
  C:9CFBH         LINE#         1869
  C:9CFDH         LINE#         1871
  C:9CFDH         LINE#         1872
  C:9D04H         LINE#         1873
  C:9D04H         LINE#         1875
  C:9D0DH         LINE#         1876
  C:9D1BH         LINE#         1877
  C:9D1BH         LINE#         1878
  C:9D34H         LINE#         1879
  C:9D34H         LINE#         1880
  C:9D3AH         LINE#         1881
  C:9D3AH         LINE#         1882
  C:9D3CH         LINE#         1885
  C:9D3CH         LINE#         1886
  C:9D41H         LINE#         1887
  C:9D4AH         LINE#         1888
  C:9D4FH         LINE#         1889
  C:9D4FH         LINE#         1890
  C:9D51H         LINE#         1892
  C:9D51H         LINE#         1893
  C:9D5AH         LINE#         1894
BL51 BANKED LINKER/LOCATER V6.22.2.0                                                  05/25/2021  12:30:00  PAGE 126


  C:9D60H         LINE#         1895
  C:9D60H         LINE#         1896
  C:9D65H         LINE#         1897
  -------         ENDPROC       _VALIDA_VEHICULO_CARD_MENSUAL
  -------         PROC          _TARJETA_MENSUAL
  X:0009H         SYMBOL        Atributos_Expedidor
  X:000CH         SYMBOL        Buffer_Write_MF
  -------         DO            
  X:000FH         SYMBOL        Estado_expedidor
  -------         ENDDO         
  C:8BB0H         LINE#         1898
  C:8BBBH         LINE#         1899
  C:8BBBH         LINE#         1904
  C:8BC6H         LINE#         1905
  C:8BC6H         LINE#         1906
  C:8BE4H         LINE#         1907
  C:8BE4H         LINE#         1909
  C:8BF5H         LINE#         1910
  C:8BF5H         LINE#         1911
  C:8BFDH         LINE#         1912
  C:8BFFH         LINE#         1914
  C:8BFFH         LINE#         1915
  C:8C08H         LINE#         1916
  C:8C18H         LINE#         1917
  C:8C2BH         LINE#         1918
  C:8C4BH         LINE#         1919
  C:8C51H         LINE#         1920
  C:8C51H         LINE#         1921
  C:8C53H         LINE#         1923
  C:8C53H         LINE#         1924
  C:8C58H         LINE#         1926
  C:8C5DH         LINE#         1927
  C:8C66H         LINE#         1928
  C:8C66H         LINE#         1929
  C:8C66H         LINE#         1930
  C:8C68H         LINE#         1932
  C:8C68H         LINE#         1934
  C:8C6EH         LINE#         1935
  C:8C6EH         LINE#         1936
  C:8C73H         LINE#         1937
  -------         ENDPROC       _TARJETA_MENSUAL
  -------         PROC          _TARJETA_ROTACION
  D:0001H         SYMBOL        Atributos_Expedidor
  X:000CH         SYMBOL        Buffer_Write_MF
  C:B84FH         LINE#         1938
  C:B84FH         LINE#         1939
  C:B84FH         LINE#         1940
  C:B854H         LINE#         1941
  C:B85DH         LINE#         1942
  C:B87DH         LINE#         1943
  C:B87FH         LINE#         1946
  -------         ENDPROC       _TARJETA_ROTACION
  -------         PROC          _VALIDA_TIPO_TARJETA
  X:0002H         SYMBOL        Atributos_Expedidor
  X:0005H         SYMBOL        Buffer_Write_MF
  -------         DO            
  X:0008H         SYMBOL        Estado_expedidor
BL51 BANKED LINKER/LOCATER V6.22.2.0                                                  05/25/2021  12:30:00  PAGE 127


  -------         ENDDO         
  C:5DF5H         LINE#         1947
  C:5E00H         LINE#         1948
  C:5E00H         LINE#         1950
  C:5E0DH         LINE#         1951
  C:5E0DH         LINE#         1952
  C:5E16H         LINE#         1953
  C:5E1CH         LINE#         1954
  C:5E1CH         LINE#         1958
  C:5E2AH         LINE#         1959
  C:5E2AH         LINE#         1962
  C:5E47H         LINE#         1963
  C:5E47H         LINE#         1964
  C:5E64H         LINE#         1966
  C:5E66H         LINE#         1968
  C:5E66H         LINE#         1969
  C:5E6FH         LINE#         1970
  C:5E71H         LINE#         1971
  C:5E71H         LINE#         1972
  C:5E71H         LINE#         1973
  C:5E74H         LINE#         1976
  C:5E74H         LINE#         1977
  C:5E7DH         LINE#         1979
  C:5EA0H         LINE#         1980
  C:5EA0H         LINE#         1981
  C:5EA3H         LINE#         1983
  C:5EA3H         LINE#         1984
  C:5EA8H         LINE#         1985
  C:5EADH         LINE#         1986
  C:5EB0H         LINE#         1987
  C:5EB0H         LINE#         1988
  C:5EB3H         LINE#         1989
  C:5ECBH         LINE#         1990
  C:5ECBH         LINE#         1992
  C:5ED4H         LINE#         1993
  C:5EDAH         LINE#         1994
  C:5EDAH         LINE#         1995
  C:5EE6H         LINE#         1996
  C:5EE6H         LINE#         1997
  C:5F03H         LINE#         1999
  C:5F03H         LINE#         2000
  C:5F23H         LINE#         2001
  C:5F25H         LINE#         2003
  C:5F25H         LINE#         2004
  C:5F2EH         LINE#         2005
  C:5F33H         LINE#         2006
  C:5F38H         LINE#         2007
  C:5F3BH         LINE#         2008
  C:5F3BH         LINE#         2009
  C:5F3DH         LINE#         2011
  C:5F3DH         LINE#         2012
  C:5F46H         LINE#         2013
  C:5F69H         LINE#         2014
  C:5F69H         LINE#         2015
  C:5F6BH         LINE#         2017
  C:5F6BH         LINE#         2019
  C:5F70H         LINE#         2020
BL51 BANKED LINKER/LOCATER V6.22.2.0                                                  05/25/2021  12:30:00  PAGE 128


  C:5F75H         LINE#         2021
  C:5F7BH         LINE#         2022
  C:5F7BH         LINE#         2023
  C:5F7DH         LINE#         2025
  C:5F7DH         LINE#         2026
  C:5F86H         LINE#         2027
  C:5F8BH         LINE#         2029
  C:5F93H         LINE#         2030
  C:5F93H         LINE#         2032
  C:5F98H         LINE#         2033
  -------         ENDPROC       _VALIDA_TIPO_TARJETA
  -------         PROC          _HORARIOS
  X:0010H         SYMBOL        Atributos_Expedidor
  -------         DO            
  X:0013H         SYMBOL        Estado_Horario
  X:0014H         SYMBOL        Addr_horarios
  X:001FH         SYMBOL        dia_semana
  X:0020H         SYMBOL        EE_dia_semana
  X:0021H         SYMBOL        addr
  -------         ENDDO         
  C:74F6H         LINE#         2127
  C:7501H         LINE#         2128
  C:7501H         LINE#         2134
  C:750CH         LINE#         2135
  C:750CH         LINE#         2137
  C:7518H         LINE#         2139
  C:753EH         LINE#         2143
  C:7551H         LINE#         2144
  C:7551H         LINE#         2146
  C:755BH         LINE#         2147
  C:7564H         LINE#         2148
  C:756CH         LINE#         2149
  C:7575H         LINE#         2152
  C:759AH         LINE#         2153
  C:75A3H         LINE#         2154
  C:75ABH         LINE#         2155
  C:75B4H         LINE#         2157
  C:75BEH         LINE#         2158
  C:75BEH         LINE#         2160
  C:75CCH         LINE#         2161
  C:75CEH         LINE#         2163
  C:75CEH         LINE#         2165
  C:75D7H         LINE#         2166
  C:75DCH         LINE#         2167
  C:75DCH         LINE#         2168
  C:75DEH         LINE#         2170
  C:75DEH         LINE#         2172
  C:75E3H         LINE#         2173
  C:75E8H         LINE#         2174
  C:75EEH         LINE#         2176
  C:75EEH         LINE#         2178
  C:75F0H         LINE#         2180
  C:75F0H         LINE#         2181
  C:75F6H         LINE#         2183
  C:75FFH         LINE#         2184
  C:75FFH         LINE#         2185
  C:7604H         LINE#         2186
BL51 BANKED LINKER/LOCATER V6.22.2.0                                                  05/25/2021  12:30:00  PAGE 129


  -------         ENDPROC       _HORARIOS
  -------         PROC          _HORA_MAXIMA
  X:002FH         SYMBOL        addr
  -------         DO            
  X:0031H         SYMBOL        Hora_High
  X:0032H         SYMBOL        Minuto_High
  X:0033H         SYMBOL        HoraIni
  X:0034H         SYMBOL        MinutoIni
  X:0035H         SYMBOL        Hora_Prog
  -------         ENDDO         
  C:9544H         LINE#         2187
  C:954CH         LINE#         2188
  C:954CH         LINE#         2193
  C:9561H         LINE#         2194
  C:9581H         LINE#         2195
  C:959EH         LINE#         2196
  C:95BEH         LINE#         2197
  C:95C6H         LINE#         2198
  C:95CEH         LINE#         2199
  C:95D7H         LINE#         2201
  C:95EFH         LINE#         2202
  -------         ENDPROC       _HORA_MAXIMA
  -------         PROC          _EN_HORARIO
  X:002AH         SYMBOL        HoraNow
  D:0004H         SYMBOL        Hora_Prog
  X:002CH         SYMBOL        addr
  -------         DO            
  X:002EH         SYMBOL        Estado_Horario
  -------         ENDDO         
  C:AA79H         LINE#         2203
  C:AA87H         LINE#         2204
  C:AA87H         LINE#         2207
  C:AA94H         LINE#         2208
  C:AA94H         LINE#         2211
  C:AA9DH         LINE#         2212
  C:AAB2H         LINE#         2215
  C:AAC1H         LINE#         2216
  C:AAC1H         LINE#         2218
  C:AAC8H         LINE#         2219
  C:AACEH         LINE#         2220
  C:AAD0H         LINE#         2222
  C:AAD0H         LINE#         2225
  C:AAD4H         LINE#         2226
  C:AAD4H         LINE#         2227
  C:AAD4H         LINE#         2229
  C:AAD6H         LINE#         2231
  C:AAD6H         LINE#         2234
  C:AADFH         LINE#         2235
  C:AAE4H         LINE#         2237
  C:AAE4H         LINE#         2238
  C:AAE9H         LINE#         2239
  -------         ENDPROC       _EN_HORARIO
  -------         PROC          _BLOQUE_HORARIO
  X:0023H         SYMBOL        addr
  -------         DO            
  X:0025H         SYMBOL        Estado_Horario
  X:0026H         SYMBOL        HoraNow
BL51 BANKED LINKER/LOCATER V6.22.2.0                                                  05/25/2021  12:30:00  PAGE 130


  X:0028H         SYMBOL        Hora_Prog
  -------         ENDDO         
  C:7711H         LINE#         2241
  C:7719H         LINE#         2242
  C:7719H         LINE#         2248
  C:7722H         LINE#         2249
  C:772AH         LINE#         2250
  C:7732H         LINE#         2251
  C:773BH         LINE#         2252
  C:7769H         LINE#         2257
  C:7772H         LINE#         2258
  C:7787H         LINE#         2259
  C:779FH         LINE#         2260
  C:77A1H         LINE#         2261
  C:77A1H         LINE#         2264
  C:77B9H         LINE#         2265
  C:77B9H         LINE#         2266
  C:77C2H         LINE#         2267
  C:77DDH         LINE#         2268
  C:77FBH         LINE#         2269
  C:77FDH         LINE#         2271
  C:77FDH         LINE#         2272
  C:7802H         LINE#         2273
  C:7807H         LINE#         2274
  C:780CH         LINE#         2275
  C:780CH         LINE#         2276
  C:780CH         LINE#         2278
  C:7813H         LINE#         2279
  -------         ENDPROC       _BLOQUE_HORARIO
  -------         PROC          SECUENCIA_INICIO_EXPEDIDOR
  -------         DO            
  X:0001H         SYMBOL        temp
  -------         ENDDO         
  C:6A81H         LINE#         2288
  C:6A81H         LINE#         2289
  C:6A81H         LINE#         2291
  C:6AA1H         LINE#         2292
  C:6AA1H         LINE#         2293
  C:6AA1H         LINE#         2296
  C:6AA6H         LINE#         2297
  C:6AACH         LINE#         2300
  C:6AAEH         LINE#         2301
  C:6AAEH         LINE#         2312
  C:6AAEH         LINE#         2314
  C:6ABCH         LINE#         2315
  C:6ABCH         LINE#         2316
  C:6AC8H         LINE#         2317
  C:6AC8H         LINE#         2318
  C:6ACEH         LINE#         2319
  C:6AD1H         LINE#         2320
  C:6AD9H         LINE#         2321
  C:6AD9H         LINE#         2322
  C:6AE0H         LINE#         2323
  C:6AF4H         LINE#         2324
  C:6AF4H         LINE#         2325
  C:6AF6H         LINE#         2327
  C:6AF6H         LINE#         2328
BL51 BANKED LINKER/LOCATER V6.22.2.0                                                  05/25/2021  12:30:00  PAGE 131


  C:6AFDH         LINE#         2329
  C:6B03H         LINE#         2330
  C:6B03H         LINE#         2331
  C:6B06H         LINE#         2333
  C:6B06H         LINE#         2334
  C:6B0FH         LINE#         2335
  C:6B23H         LINE#         2336
  C:6B29H         LINE#         2337
  C:6B29H         LINE#         2338
  C:6B2CH         LINE#         2339
  C:6B2CH         LINE#         2345
  C:6B2CH         LINE#         2347
  C:6B2FH         LINE#         2348
  C:6B35H         LINE#         2352
  C:6B37H         LINE#         2353
  C:6B37H         LINE#         2363
  C:6B37H         LINE#         2365
  C:6B45H         LINE#         2366
  C:6B45H         LINE#         2367
  C:6B51H         LINE#         2368
  C:6B51H         LINE#         2369
  C:6B57H         LINE#         2370
  C:6B59H         LINE#         2371
  C:6B61H         LINE#         2372
  C:6B61H         LINE#         2373
  C:6B68H         LINE#         2374
  C:6B7CH         LINE#         2375
  C:6B7CH         LINE#         2376
  C:6B7EH         LINE#         2378
  C:6B7EH         LINE#         2379
  C:6B85H         LINE#         2380
  C:6B8BH         LINE#         2381
  C:6B8BH         LINE#         2382
  C:6B8DH         LINE#         2384
  C:6B8DH         LINE#         2385
  C:6B96H         LINE#         2386
  C:6BAAH         LINE#         2387
  C:6BAFH         LINE#         2388
  C:6BAFH         LINE#         2390
  C:6BB1H         LINE#         2391
  C:6BB1H         LINE#         2397
  C:6BB1H         LINE#         2399
  C:6BB7H         LINE#         2400
  C:6BB7H         LINE#         2403
  C:6BB7H         LINE#         2404
  C:6BBEH         LINE#         2405
  C:6BBEH         LINE#         2406
  C:6BBEH         LINE#         2407
  -------         ENDPROC       SECUENCIA_INICIO_EXPEDIDOR
  -------         PROC          _SECUENCIAEXPEDIDORMF
  X:0001H         SYMBOL        EstadoActivo
  -------         DO            
  X:010DH         SYMBOL        Buffer_Write_MF
  X:011EH         SYMBOL        Atributos_Expedidor
  X:012DH         SYMBOL        Secuencia_Expedidor
  X:0131H         SYMBOL        Nombre_Mensual
  -------         ENDDO         
BL51 BANKED LINKER/LOCATER V6.22.2.0                                                  05/25/2021  12:30:00  PAGE 132


  C:35ACH         LINE#         2417
  C:35B1H         LINE#         2418
  C:35B1H         LINE#         2424
  C:3614H         LINE#         2425
  C:3614H         LINE#         2428
  C:3614H         LINE#         2430
  C:3624H         LINE#         2431
  C:3624H         LINE#         2434
  C:3626H         LINE#         2435
  C:3628H         LINE#         2436
  C:362DH         LINE#         2437
  C:3635H         LINE#         2438
  C:363AH         LINE#         2439
  C:363DH         LINE#         2440
  C:363DH         LINE#         2441
  C:3643H         LINE#         2442
  C:3643H         LINE#         2443
  C:3646H         LINE#         2444
  C:3646H         LINE#         2445
  C:3646H         LINE#         2447
  C:3649H         LINE#         2448
  C:3649H         LINE#         2450
  C:3652H         LINE#         2451
  C:3655H         LINE#         2452
  C:3655H         LINE#         2453
  C:365AH         LINE#         2454
  C:367AH         LINE#         2455
  C:367DH         LINE#         2456
  C:367DH         LINE#         2457
  C:3682H         LINE#         2458
  C:368AH         LINE#         2459
  C:3690H         LINE#         2460
  C:3693H         LINE#         2461
  C:3693H         LINE#         2462
  C:3696H         LINE#         2463
  C:369EH         LINE#         2464
  C:36A4H         LINE#         2465
  C:36A7H         LINE#         2466
  C:36A7H         LINE#         2467
  C:36AAH         LINE#         2468
  C:36CFH         LINE#         2469
  C:36D5H         LINE#         2470
  C:36D7H         LINE#         2471
  C:36DAH         LINE#         2472
  C:36DAH         LINE#         2473
  C:36E5H         LINE#         2474
  C:36EDH         LINE#         2475
  C:36F3H         LINE#         2476
  C:36F6H         LINE#         2477
  C:36F6H         LINE#         2478
  C:3707H         LINE#         2479
  C:370FH         LINE#         2480
  C:3715H         LINE#         2481
  C:3718H         LINE#         2482
  C:3718H         LINE#         2483
  C:371DH         LINE#         2484
  C:373BH         LINE#         2485
BL51 BANKED LINKER/LOCATER V6.22.2.0                                                  05/25/2021  12:30:00  PAGE 133


  C:373EH         LINE#         2486
  C:373EH         LINE#         2487
  C:3743H         LINE#         2488
  C:3763H         LINE#         2489
  C:3766H         LINE#         2490
  C:3766H         LINE#         2491
  C:376BH         LINE#         2492
  C:376DH         LINE#         2493
  C:378BH         LINE#         2494
  C:378EH         LINE#         2495
  C:378EH         LINE#         2496
  C:3793H         LINE#         2497
  C:37B3H         LINE#         2498
  C:37B6H         LINE#         2499
  C:37B6H         LINE#         2500
  C:37C9H         LINE#         2501
  C:37C9H         LINE#         2502
  C:37CEH         LINE#         2503
  C:37D6H         LINE#         2504
  C:37DCH         LINE#         2505
  C:37DCH         LINE#         2506
  C:37DFH         LINE#         2507
  C:37DFH         LINE#         2508
  C:37F2H         LINE#         2509
  C:37F2H         LINE#         2510
  C:37F7H         LINE#         2511
  C:37FAH         LINE#         2512
  C:37FAH         LINE#         2513
  C:37FDH         LINE#         2514
  C:37FDH         LINE#         2515
  C:3800H         LINE#         2516
  C:3820H         LINE#         2517
  C:3823H         LINE#         2518
  C:3823H         LINE#         2519
  C:3825H         LINE#         2520
  C:3828H         LINE#         2521
  C:382BH         LINE#         2522
  C:382BH         LINE#         2523
  C:3834H         LINE#         2524
  C:3837H         LINE#         2525
  C:3837H         LINE#         2526
  C:384EH         LINE#         2527
  C:3851H         LINE#         2528
  C:3851H         LINE#         2529
  C:3854H         LINE#         2530
  C:385CH         LINE#         2531
  C:3862H         LINE#         2532
  C:3865H         LINE#         2533
  C:3865H         LINE#         2534
  C:386EH         LINE#         2535
  C:3871H         LINE#         2536
  C:3871H         LINE#         2537
  C:3873H         LINE#         2538
  C:3876H         LINE#         2539
  C:3879H         LINE#         2540
  C:3879H         LINE#         2541
  C:3890H         LINE#         2542
BL51 BANKED LINKER/LOCATER V6.22.2.0                                                  05/25/2021  12:30:00  PAGE 134


  C:3893H         LINE#         2543
  C:3893H         LINE#         2544
  C:3898H         LINE#         2545
  C:38A0H         LINE#         2546
  C:38A6H         LINE#         2547
  C:38A9H         LINE#         2548
  C:38A9H         LINE#         2549
  C:38ACH         LINE#         2550
  C:38CCH         LINE#         2551
  C:38CFH         LINE#         2552
  C:38CFH         LINE#         2553
  C:38D2H         LINE#         2554
  C:38F2H         LINE#         2555
  C:38F5H         LINE#         2556
  C:38F5H         LINE#         2557
  C:38F8H         LINE#         2558
  C:3900H         LINE#         2559
  C:3903H         LINE#         2560
  C:3905H         LINE#         2561
  C:3905H         LINE#         2563
  C:3910H         LINE#         2564
  C:3918H         LINE#         2565
  C:392CH         LINE#         2566
  C:392FH         LINE#         2570
  C:392FH         LINE#         2571
  C:3935H         LINE#         2572
  C:393BH         LINE#         2573
  C:393BH         LINE#         2574
  C:3943H         LINE#         2575
  C:3949H         LINE#         2577
  C:394CH         LINE#         2578
  C:3954H         LINE#         2579
  C:3954H         LINE#         2581
  C:3957H         LINE#         2582
  C:395AH         LINE#         2583
  C:3962H         LINE#         2584
  C:3962H         LINE#         2585
  C:3970H         LINE#         2586
  C:3970H         LINE#         2587
  C:3979H         LINE#         2588
  C:397CH         LINE#         2589
  C:3988H         LINE#         2590
  C:3988H         LINE#         2591
  C:3991H         LINE#         2592
  C:3994H         LINE#         2594
  C:3994H         LINE#         2595
  C:399DH         LINE#         2596
  C:399DH         LINE#         2597
  C:39A0H         LINE#         2598
  C:39A8H         LINE#         2599
  C:39A8H         LINE#         2600
  C:39B6H         LINE#         2601
  C:39B6H         LINE#         2602
  C:39CCH         LINE#         2603
  C:39CFH         LINE#         2604
  C:39DBH         LINE#         2605
  C:39DBH         LINE#         2606
BL51 BANKED LINKER/LOCATER V6.22.2.0                                                  05/25/2021  12:30:00  PAGE 135


  C:39E4H         LINE#         2607
  C:39E7H         LINE#         2608
  C:39F5H         LINE#         2609
  C:39F5H         LINE#         2610
  C:39FEH         LINE#         2611
  C:3A00H         LINE#         2613
  C:3A00H         LINE#         2614
  C:3A09H         LINE#         2615
  C:3A09H         LINE#         2616
  C:3A0BH         LINE#         2617
  C:3A13H         LINE#         2618
  C:3A13H         LINE#         2619
  C:3A1CH         LINE#         2620
  C:3A1EH         LINE#         2621
  C:3A26H         LINE#         2622
  C:3A26H         LINE#         2623
  C:3A3CH         LINE#         2624
  C:3A3EH         LINE#         2625
  C:3A46H         LINE#         2626
  C:3A46H         LINE#         2627
  C:3A49H         LINE#         2628
  C:3A4BH         LINE#         2630
  C:3A53H         LINE#         2631
  C:3A53H         LINE#         2632
  C:3A5CH         LINE#         2633
  C:3A5EH         LINE#         2636
  C:3A66H         LINE#         2637
  C:3A66H         LINE#         2638
  C:3A6EH         LINE#         2639
  C:3A70H         LINE#         2641
  C:3A70H         LINE#         2642
  C:3A79H         LINE#         2643
  C:3A79H         LINE#         2644
  C:3A7BH         LINE#         2645
  C:3A7BH         LINE#         2646
  C:3A80H         LINE#         2647
  C:3A80H         LINE#         2649
  C:3A80H         LINE#         2650
  C:3A85H         LINE#         2651
  -------         ENDPROC       _SECUENCIAEXPEDIDORMF
  -------         ENDMOD        VERIFICADOR

  -------         MODULE        MONITOR
  C:0000H         SYMBOL        _ICE_DUMMY_
  D:0080H         PUBLIC        P0
  D:0090H         PUBLIC        P1
  I:0011H         PUBLIC        placa
  C:B9F3H         PUBLIC        Rx_Monitor
  B:0080H.0       PUBLIC        rx_ip
  B:0090H.7       PUBLIC        lock
  C:8DF9H         PUBLIC        _recibe_cmd_Monitor
  C:BB58H         PUBLIC        clear_placa
  C:91B1H         PUBLIC        _Valida_Trama_Monitor
  -------         PROC          _RECIBE_CMD_MONITOR
  X:0016H         SYMBOL        buffer_cmd
  -------         DO            
  X:0019H         SYMBOL        j
BL51 BANKED LINKER/LOCATER V6.22.2.0                                                  05/25/2021  12:30:00  PAGE 136


  X:001AH         SYMBOL        NumDatos
  X:001BH         SYMBOL        time_out
  X:001CH         SYMBOL        MaxChrRx
  X:001DH         SYMBOL        contador
  -------         ENDDO         
  C:8DF9H         LINE#         50
  C:8E04H         LINE#         51
  C:8E04H         LINE#         55
  C:8E09H         LINE#         56
  C:8E0FH         LINE#         58
  C:8E1AH         LINE#         59
  C:8E1AH         LINE#         60
  C:8E2BH         LINE#         61
  C:8E2BH         LINE#         62
  C:8E32H         LINE#         63
  C:8E36H         LINE#         64
  C:8E3FH         LINE#         65
  C:8E3FH         LINE#         66
  C:8E4DH         LINE#         67
  C:8E64H         LINE#         68
  C:8E64H         LINE#         69
  C:8E6AH         LINE#         70
  C:8E70H         LINE#         71
  C:8E70H         LINE#         72
  C:8E72H         LINE#         73
  C:8E7AH         LINE#         74
  C:8E80H         LINE#         75
  C:8E92H         LINE#         76
  C:8E9CH         LINE#         77
  C:8EA5H         LINE#         79
  C:8EB4H         LINE#         82
  C:8EB4H         LINE#         83
  C:8EB9H         LINE#         84
  -------         ENDPROC       _RECIBE_CMD_MONITOR
  -------         PROC          _VALIDA_TRAMA_MONITOR
  X:0016H         SYMBOL        buffer
  D:0005H         SYMBOL        length_trama
  -------         DO            
  X:0019H         SYMBOL        j
  X:001AH         SYMBOL        p
  X:001BH         SYMBOL        cont
  -------         ENDDO         
  C:91B1H         LINE#         89
  C:91BCH         LINE#         90
  C:91BCH         LINE#         91
  C:91BFH         LINE#         92
  C:91C3H         LINE#         93
  C:91C6H         LINE#         94
  C:91C8H         LINE#         97
  C:91DCH         LINE#         98
  C:91DCH         LINE#         100
  C:91DEH         LINE#         102
  C:91E5H         LINE#         103
  C:91EAH         LINE#         106
  C:91EAH         LINE#         108
  C:9205H         LINE#         109
  C:9205H         LINE#         112
BL51 BANKED LINKER/LOCATER V6.22.2.0                                                  05/25/2021  12:30:00  PAGE 137


  C:9205H         LINE#         113
  C:9226H         LINE#         114
  C:922AH         LINE#         115
  C:9230H         LINE#         116
  C:9242H         LINE#         117
  C:925AH         LINE#         118
  C:9263H         LINE#         119
  C:9265H         LINE#         120
  C:926BH         LINE#         123
  C:926BH         LINE#         126
  -------         ENDPROC       _VALIDA_TRAMA_MONITOR
  -------         PROC          CLEAR_PLACA
  -------         DO            
  D:0007H         SYMBOL        i
  -------         ENDDO         
  C:BB58H         LINE#         127
  C:BB58H         LINE#         128
  C:BB58H         LINE#         130
  C:BB64H         LINE#         131
  C:BB64H         LINE#         132
  C:BB6AH         LINE#         133
  C:BB6DH         LINE#         134
  C:BB6FH         LINE#         135
  -------         ENDPROC       CLEAR_PLACA
  -------         PROC          RX_MONITOR
  -------         DO            
  X:0009H         SYMBOL        Length_trama
  X:000AH         SYMBOL        buffer1
  -------         ENDDO         
  C:B9F3H         LINE#         136
  C:B9F3H         LINE#         137
  C:B9F3H         LINE#         140
  C:BA02H         LINE#         141
  C:BA0BH         LINE#         142
  -------         ENDPROC       RX_MONITOR
  -------         ENDMOD        MONITOR

  -------         MODULE        ?C?FPADD
  C:1335H         PUBLIC        ?C?FPADD
  C:1331H         PUBLIC        ?C?FPSUB
  -------         ENDMOD        ?C?FPADD

  -------         MODULE        ?C?FPMUL
  C:1426H         PUBLIC        ?C?FPMUL
  -------         ENDMOD        ?C?FPMUL

  -------         MODULE        ?C?FCAST
  C:1536H         PUBLIC        ?C?FCASTC
  C:1531H         PUBLIC        ?C?FCASTI
  C:152CH         PUBLIC        ?C?FCASTL
  -------         ENDMOD        ?C?FCAST

  -------         MODULE        ?C?CASTF
  C:156AH         PUBLIC        ?C?CASTF
  -------         ENDMOD        ?C?CASTF

  -------         MODULE        PRINTF
BL51 BANKED LINKER/LOCATER V6.22.2.0                                                  05/25/2021  12:30:00  PAGE 138


  X:0077H         PUBLIC        ?_PRINTF?BYTE
  X:0077H         PUBLIC        ?_SPRINTF?BYTE
  C:3AF1H         PUBLIC        _PRINTF
  C:3AEBH         PUBLIC        _SPRINTF
  -------         ENDMOD        PRINTF

  -------         MODULE        POW
  X:0020H         PUBLIC        ?_pow?BYTE
  C:62ABH         PUBLIC        _pow
  -------         ENDMOD        POW

  -------         MODULE        ?C?CHKFLOAT
  C:15EBH         PUBLIC        ?C?CHKFLOAT
  -------         ENDMOD        ?C?CHKFLOAT

  -------         MODULE        ?C?FPCMP
  C:1607H         PUBLIC        ?C?FPCMP
  C:1605H         PUBLIC        ?C?FPCMP3
  -------         ENDMOD        ?C?FPCMP

  -------         MODULE        ?C?FPNEG
  C:167EH         PUBLIC        ?C?FPNEG
  -------         ENDMOD        ?C?FPNEG

  -------         MODULE        ?C?FPROUND
  C:168FH         PUBLIC        ?C?FPROUND
  -------         ENDMOD        ?C?FPROUND

  -------         MODULE        ?C?FPCONVERT
  C:16CCH         PUBLIC        ?C?FPCONVERT
  -------         ENDMOD        ?C?FPCONVERT

  -------         MODULE        EXP
  C:9B3AH         PUBLIC        _EXP
  -------         ENDMOD        EXP

  -------         MODULE        LOG
  C:6F91H         PUBLIC        _LOG
  C:6F8DH         PUBLIC        _LOG10
  -------         ENDMOD        LOG

  -------         MODULE        ?C?FPDIV
  C:17D4H         PUBLIC        ?C?FPDIV
  -------         ENDMOD        ?C?FPDIV

  -------         MODULE        ?C?FTNPWR
  C:18A1H         PUBLIC        ?C?FTNPWR
  -------         ENDMOD        ?C?FTNPWR

  -------         MODULE        ?C?COPY
  C:19FEH         PUBLIC        ?C?COPY
  -------         ENDMOD        ?C?COPY

  -------         MODULE        ?C?CLDPTR
  C:1A24H         PUBLIC        ?C?CLDPTR
  -------         ENDMOD        ?C?CLDPTR

BL51 BANKED LINKER/LOCATER V6.22.2.0                                                  05/25/2021  12:30:00  PAGE 139


  -------         MODULE        ?C?CLDOPTR
  C:1A3DH         PUBLIC        ?C?CLDOPTR
  -------         ENDMOD        ?C?CLDOPTR

  -------         MODULE        ?C?CSTPTR
  C:1A6AH         PUBLIC        ?C?CSTPTR
  -------         ENDMOD        ?C?CSTPTR

  -------         MODULE        ?C?CSTOPTR
  C:1A7CH         PUBLIC        ?C?CSTOPTR
  -------         ENDMOD        ?C?CSTOPTR

  -------         MODULE        ?C?IMUL
  C:1A9EH         PUBLIC        ?C?IMUL
  -------         ENDMOD        ?C?IMUL

  -------         MODULE        ?C?IILDX
  C:1AB0H         PUBLIC        ?C?IILDX
  -------         ENDMOD        ?C?IILDX

  -------         MODULE        ?C?LNEG
  C:1AC6H         PUBLIC        ?C?LNEG
  -------         ENDMOD        ?C?LNEG

  -------         MODULE        ?C?SLCMP
  C:1AD4H         PUBLIC        ?C?SLCMP
  -------         ENDMOD        ?C?SLCMP

  -------         MODULE        ?C?ULCMP
  C:1AEAH         PUBLIC        ?C?ULCMP
  -------         ENDMOD        ?C?ULCMP

  -------         MODULE        ?C?ULSHR
  C:1AFBH         PUBLIC        ?C?ULSHR
  -------         ENDMOD        ?C?ULSHR

  -------         MODULE        ?C?LSHL
  C:1B0EH         PUBLIC        ?C?LSHL
  -------         ENDMOD        ?C?LSHL

  -------         MODULE        ?C?LLDCODE
  C:1B21H         PUBLIC        ?C?LLDCODE
  -------         ENDMOD        ?C?LLDCODE

  -------         MODULE        ?C?LLDXDATA0
  C:1B31H         PUBLIC        ?C?LLDXDATA0
  -------         ENDMOD        ?C?LLDXDATA0

  -------         MODULE        ?C?LLDCODE0
  C:1B3DH         PUBLIC        ?C?LLDCODE0
  -------         ENDMOD        ?C?LLDCODE0

  -------         MODULE        ?C?LSTXDATA
  C:1B4DH         PUBLIC        ?C?LSTXDATA
  -------         ENDMOD        ?C?LSTXDATA

  -------         MODULE        ?C?LSTKXDATA
BL51 BANKED LINKER/LOCATER V6.22.2.0                                                  05/25/2021  12:30:00  PAGE 140


  C:1B59H         PUBLIC        ?C?LSTKXDATA
  -------         ENDMOD        ?C?LSTKXDATA

  -------         MODULE        ?C?PLDIXDATA
  C:1B8AH         PUBLIC        ?C?PLDIXDATA
  -------         ENDMOD        ?C?PLDIXDATA

  -------         MODULE        ?C?PSTXDATA
  C:1BA1H         PUBLIC        ?C?PSTXDATA
  -------         ENDMOD        ?C?PSTXDATA

  -------         MODULE        ?C?CCASE
  C:1BAAH         PUBLIC        ?C?CCASE
  -------         ENDMOD        ?C?CCASE

  -------         MODULE        STRCAT
  X:0046H         PUBLIC        ?_strcat?BYTE
  C:AC30H         PUBLIC        _strcat
  -------         ENDMOD        STRCAT

  -------         MODULE        ?C?STRCMP
  C:1D4EH         PUBLIC        ?C?STRCMP
  -------         ENDMOD        ?C?STRCMP

  -------         MODULE        ?C?STRCPY
  C:1E37H         PUBLIC        ?C?STRCPY
  -------         ENDMOD        ?C?STRCPY

  -------         MODULE        STRLEN
  C:000EH         PUBLIC        _STRLEN
  -------         ENDMOD        STRLEN

  -------         MODULE        STRTOK
  X:0064H         PUBLIC        ?_strtok?BYTE
  C:81D3H         PUBLIC        _strtok
  -------         ENDMOD        STRTOK

  -------         MODULE        ATOL
  C:7605H         PUBLIC        _atol
  -------         ENDMOD        ATOL

  -------         MODULE        ATOI
  C:8395H         PUBLIC        _atoi
  -------         ENDMOD        ATOI

  -------         MODULE        ?C?ILDIX
  C:1E54H         PUBLIC        ?C?ILDIX
  -------         ENDMOD        ?C?ILDIX

  -------         MODULE        ?C?LMUL
  C:1E6AH         PUBLIC        ?C?LMUL
  -------         ENDMOD        ?C?LMUL

  -------         MODULE        ISDIGIT
  C:BC68H         PUBLIC        _isdigit
  -------         ENDMOD        ISDIGIT

BL51 BANKED LINKER/LOCATER V6.22.2.0                                                  05/25/2021  12:30:00  PAGE 141


  -------         MODULE        ISSPACE
  C:BBC8H         PUBLIC        _isspace
  -------         ENDMOD        ISSPACE

  -------         MODULE        STRSPN
  X:006AH         PUBLIC        ?_strspn?BYTE
  C:A506H         PUBLIC        _strspn
  -------         ENDMOD        STRSPN

  -------         MODULE        STRPBRK
  X:006AH         PUBLIC        ?_strpbrk?BYTE
  C:A60DH         PUBLIC        _strpbrk
  -------         ENDMOD        STRPBRK

Program Size: data=99.1 xdata=533 code=48378
LINK/LOCATE RUN COMPLETE.  0 WARNING(S),  0 ERROR(S)
