BL51 BANKED LINKER/LOCATER V6.22.2.0                                                    04/22/2020  15:25:24  PAGE 1


BL51 BANKED LINKER/LOCATER V6.22.2.0, INVOKED BY:
C:\KEIL_V5\C51\BIN\BL51.EXE .\Objects\main.obj, .\Objects\Accescan.obj, .\Objects\Clock.obj, .\Objects\delay.obj, .\Obje
>> cts\eeprom.obj, .\Objects\io_sensores.obj, .\Objects\pantallas.obj, .\Objects\prog.obj, .\Objects\pto_paralelo.obj, .
>> \Objects\tibbo.obj, .\Objects\uart.obj, .\Objects\lintech.obj, .\Objects\verificador.obj TO .\Objects\expedidor_v_01_
>> raspberry PRINT (.\Listings\expedidor_v_01_raspberry.m51) RAMSIZE (256)


MEMORY MODEL: LARGE WITH FLOATING POINT ARITHMETIC


INPUT MODULES INCLUDED:
  .\Objects\main.obj (MAIN)
  .\Objects\Accescan.obj (ACCESCAN)
  .\Objects\Clock.obj (CLOCK)
  .\Objects\delay.obj (DELAY)
  .\Objects\eeprom.obj (EEPROM)
  .\Objects\io_sensores.obj (IO_SENSORES)
  .\Objects\pantallas.obj (PANTALLAS)
  .\Objects\prog.obj (PROG)
  .\Objects\pto_paralelo.obj (PTO_PARALELO)
  .\Objects\tibbo.obj (TIBBO)
  .\Objects\uart.obj (UART)
  .\Objects\lintech.obj (LINTECH)
  .\Objects\verificador.obj (VERIFICADOR)
  C:\KEIL_V5\C51\LIB\C51FPL.LIB (?C?FPADD)
  C:\KEIL_V5\C51\LIB\C51FPL.LIB (?C?FPMUL)
  C:\KEIL_V5\C51\LIB\C51FPL.LIB (?C?FCAST)
  C:\KEIL_V5\C51\LIB\C51FPL.LIB (?C?CASTF)
  C:\KEIL_V5\C51\LIB\C51FPL.LIB (PRINTF)
  C:\KEIL_V5\C51\LIB\C51FPL.LIB (POW)
  C:\KEIL_V5\C51\LIB\C51FPL.LIB (?C?FPGETOPN)
  C:\KEIL_V5\C51\LIB\C51FPL.LIB (?C?CHKFLOAT)
  C:\KEIL_V5\C51\LIB\C51FPL.LIB (?C?FPCMP)
  C:\KEIL_V5\C51\LIB\C51FPL.LIB (?C?FPNEG)
  C:\KEIL_V5\C51\LIB\C51FPL.LIB (?C?FPROUND)
  C:\KEIL_V5\C51\LIB\C51FPL.LIB (?C?FPCONVERT)
  C:\KEIL_V5\C51\LIB\C51FPL.LIB (EXP)
  C:\KEIL_V5\C51\LIB\C51FPL.LIB (LOG)
  C:\KEIL_V5\C51\LIB\C51FPL.LIB (?C?FPDIV)
  C:\KEIL_V5\C51\LIB\C51FPL.LIB (?C?FTNPWR)
  C:\KEIL_V5\C51\LIB\C51FPL.LIB (?C?FPSERIES)
  C:\KEIL_V5\C51\LIB\C51L.LIB (?C_STARTUP)
  C:\KEIL_V5\C51\LIB\C51L.LIB (?C?COPY)
  C:\KEIL_V5\C51\LIB\C51L.LIB (?C?CLDPTR)
  C:\KEIL_V5\C51\LIB\C51L.LIB (?C?CLDOPTR)
  C:\KEIL_V5\C51\LIB\C51L.LIB (?C?CSTPTR)
  C:\KEIL_V5\C51\LIB\C51L.LIB (?C?CSTOPTR)
  C:\KEIL_V5\C51\LIB\C51L.LIB (?C?UIDIV)
  C:\KEIL_V5\C51\LIB\C51L.LIB (?C?IILDX)
  C:\KEIL_V5\C51\LIB\C51L.LIB (?C?LNEG)
  C:\KEIL_V5\C51\LIB\C51L.LIB (?C?ULSHR)
  C:\KEIL_V5\C51\LIB\C51L.LIB (?C?LSHL)
  C:\KEIL_V5\C51\LIB\C51L.LIB (?C?LLDCODE)
  C:\KEIL_V5\C51\LIB\C51L.LIB (?C?LLDXDATA0)
  C:\KEIL_V5\C51\LIB\C51L.LIB (?C?LLDCODE0)
  C:\KEIL_V5\C51\LIB\C51L.LIB (?C?LSTXDATA)
  C:\KEIL_V5\C51\LIB\C51L.LIB (?C?LSTKXDATA)
  C:\KEIL_V5\C51\LIB\C51L.LIB (?C?PLDIXDATA)
BL51 BANKED LINKER/LOCATER V6.22.2.0                                                  04/22/2020  15:25:24  PAGE 2


  C:\KEIL_V5\C51\LIB\C51L.LIB (?C?PSTXDATA)
  C:\KEIL_V5\C51\LIB\C51L.LIB (?C?CCASE)
  C:\KEIL_V5\C51\LIB\C51L.LIB (STRCAT)
  C:\KEIL_V5\C51\LIB\C51L.LIB (?C?STRCMP)
  C:\KEIL_V5\C51\LIB\C51L.LIB (?C?STRCPY)
  C:\KEIL_V5\C51\LIB\C51L.LIB (STRLEN)
  C:\KEIL_V5\C51\LIB\C51L.LIB (STRTOK)
  C:\KEIL_V5\C51\LIB\C51L.LIB (ATOL)
  C:\KEIL_V5\C51\LIB\C51L.LIB (ATOI)
  C:\KEIL_V5\C51\LIB\C51L.LIB (?C_INIT)
  C:\KEIL_V5\C51\LIB\C51L.LIB (?C?IMUL)
  C:\KEIL_V5\C51\LIB\C51L.LIB (?C?ILDIX)
  C:\KEIL_V5\C51\LIB\C51L.LIB (?C?LMUL)
  C:\KEIL_V5\C51\LIB\C51L.LIB (ISDIGIT)
  C:\KEIL_V5\C51\LIB\C51L.LIB (ISSPACE)
  C:\KEIL_V5\C51\LIB\C51L.LIB (STRSPN)
  C:\KEIL_V5\C51\LIB\C51L.LIB (STRPBRK)


LINK MAP OF MODULE:  .\Objects\expedidor_v_01_raspberry (MAIN)


            TYPE    BASE      LENGTH    RELOCATION   SEGMENT NAME
            -----------------------------------------------------

            * * * * * * *   D A T A   M E M O R Y   * * * * * * *
            REG     0000H     0008H     ABSOLUTE     "REG BANK 0"
            DATA    0008H     0005H     UNIT         _DATA_GROUP_
            DATA    000DH     0004H     UNIT         ?DT?UART
                    0011H     000FH                  *** GAP ***
            BIT     0020H.0   0001H.1   UNIT         _BIT_GROUP_
            BIT     0021H.1   0000H.2   UNIT         ?BI?_ANALIZA_TIEMPO?CLOCK
            BIT     0021H.3   0000H.2   UNIT         ?BI?UART
            BIT     0021H.5   0000H.1   UNIT         ?BI?MAIN
            BIT     0021H.6   0000H.1   UNIT         ?BI?EEPROM
                    0021H.7   0000H.1                *** GAP ***
            IDATA   0022H     0064H     UNIT         ?ID?MAIN
            IDATA   0086H     0001H     UNIT         ?STACK

            * * * * * * *  X D A T A   M E M O R Y  * * * * * * *
            XDATA   0000H     00C2H     UNIT         _XDATA_GROUP_
            XDATA   00C2H     0073H     UNIT         ?XD?MAIN
            XDATA   0135H     0035H     UNIT         ?XD?PROG
            XDATA   016AH     0026H     UNIT         ?XD?_TRAMA_PTO_PARALELO_NEW?PTO_PARALELO
            XDATA   0190H     0026H     UNIT         ?XD?_WR_MF?LINTECH
            XDATA   01B6H     0025H     UNIT         ?XD?_CMD_LPR_SALIDA?ACCESCAN
            XDATA   01DBH     001FH     UNIT         ?XD?CMD_LPR_INT?ACCESCAN
            XDATA   01FAH     001EH     UNIT         ?XD?PTO_PARALELO
            XDATA   0218H     0012H     UNIT         ?XD?LEE_NO_TICKET?EEPROM
            XDATA   022AH     0012H     UNIT         ?XD?_RD_MF?LINTECH
            XDATA   023CH     0010H     UNIT         ?XD?LOADVERIFY_EEPROM?LINTECH
            XDATA   024CH     000FH     UNIT         ?XD?_ANALIZA_TIEMPO?CLOCK
            XDATA   025BH     000BH     UNIT         ?XD?AUT_CARD_CHECK_STATUS?LINTECH
            XDATA   0266H     000AH     UNIT         ?XD?_CHECK_FECHAOUT?CLOCK
            XDATA   0270H     0008H     UNIT         ?XD?_TRAMA_PTO_PARALELO_P?PTO_PARALELO
            XDATA   0278H     0003H     UNIT         ?XD?_BLOCK_READ_CLOCK_HEX?CLOCK
            XDATA   027BH     0003H     UNIT         ?XD?EEPROM
BL51 BANKED LINKER/LOCATER V6.22.2.0                                                  04/22/2020  15:25:24  PAGE 3


            XDATA   027EH     0003H     UNIT         ?XD?_DEBUG_FECHA_ACTUAL?TIBBO
            XDATA   0281H     0003H     UNIT         ?XD?UART
            XDATA   0284H     0003H     UNIT         ?XD?VERIFICADOR
            XDATA   0287H     0003H     UNIT         ?XD?STRTOK
            XDATA   028AH     0002H     UNIT         ?XD?_DEBUG_HEXDEC?TIBBO
            XDATA   028CH     0001H     UNIT         ?XD?CLOCK
            XDATA   028DH     0001H     UNIT         ?XD?IO_SENSORES
            XDATA   028EH     0001H     UNIT         ?XD?PANTALLAS

            * * * * * * *   C O D E   M E M O R Y   * * * * * * *
            CODE    0000H     0003H     ABSOLUTE     
            CODE    0003H     0008H     UNIT         ?PR?P_CK?CLOCK
            CODE    000BH     0003H     ABSOLUTE     
            CODE    000EH     0015H     UNIT         ?PR?_STRLEN?STRLEN
            CODE    0023H     0003H     ABSOLUTE     
            CODE    0026H     0BB9H     UNIT         ?C?LIB_CODE
            CODE    0BDFH     0732H     UNIT         ?CO?PROG
            CODE    1311H     0537H     UNIT         ?PR?_ANALIZA_TIEMPO?CLOCK
            CODE    1848H     0483H     UNIT         ?PR?PRINTF?PRINTF
            CODE    1CCBH     03D6H     UNIT         ?CO?PANTALLAS
            CODE    20A1H     02D0H     UNIT         ?PR?_TWO_BYTEHEX_DECIMAL?CLOCK
            CODE    2371H     02C5H     UNIT         ?PR?_TRAMA_PTO_PARALELO_NEW?PTO_PARALELO
            CODE    2636H     02BAH     UNIT         ?PR?_PANTALLALCD?PANTALLAS
            CODE    28F0H     029EH     UNIT         ?PR?_VALIDA_TRAMA_PTO?ACCESCAN
            CODE    2B8EH     0292H     UNIT         ?PR?_CMD_LPR_SALIDA?ACCESCAN
            CODE    2E20H     01D8H     UNIT         ?PR?_BLOCK_READ_CLOCK_ASCII?CLOCK
            CODE    2FF8H     01C1H     UNIT         ?PR?_HASH_ID?PROG
            CODE    31B9H     01B3H     UNIT         ?PR?COM_ISR?UART
            CODE    336CH     01B0H     UNIT         ?PR?MENU?PROG
            CODE    351CH     01A6H     UNIT         ?PR?_GRABA_SERIE?EEPROM
            CODE    36C2H     0179H     UNIT         ?PR?_CHECK_FECHAOUT?CLOCK
            CODE    383BH     0171H     UNIT         ?CO?VERIFICADOR
            CODE    39ACH     0166H     UNIT         ?PR?_POW?POW
            CODE    3B12H     0165H     UNIT         ?CO?LINTECH
            CODE    3C77H     0149H     UNIT         ?PR?_WR_MF?LINTECH
            CODE    3DC0H     013EH     UNIT         ?PR?PROG_SIN_COBRO?PROG
            CODE    3EFEH     013EH     UNIT         ?PR?SECUENCIA_INICIO_EXPEDIDOR?VERIFICADOR
            CODE    403CH     0129H     UNIT         ?PR?LOG?LOG
            CODE    4165H     0115H     UNIT         ?PR?_VALIDAR_CLK?CLOCK
            CODE    427AH     0110H     UNIT         ?PR?LOAD_AND_SEND_ID_COD?PTO_PARALELO
            CODE    438AH     010CH     UNIT         ?PR?_ATOL?ATOL
            CODE    4496H     00FFH     UNIT         ?PR?LEE_NO_TICKET?EEPROM
            CODE    4595H     00FFH     UNIT         ?PR?_TRAMA_PTO_PARALELO_P?PTO_PARALELO
            CODE    4694H     00FCH     UNIT         ?PR?PROG_DEBUG?PROG
            CODE    4790H     00FCH     UNIT         ?PR?PROG_USE_LPR?PROG
            CODE    488CH     00FCH     UNIT         ?PR?PROG_COMPARACION_ACTIVA?PROG
            CODE    4988H     00FCH     UNIT         ?PR?TIPO_PANTALLA?PROG
            CODE    4A84H     00EAH     UNIT         ?PR?_MOV_CARD?LINTECH
            CODE    4B6EH     00E4H     UNIT         ?PR?_STRTOK?STRTOK
            CODE    4C52H     00DBH     UNIT         ?PR?_ATOI?ATOI
            CODE    4D2DH     00D7H     UNIT         ?CO?TIBBO
            CODE    4E04H     00D6H     UNIT         ?PR?_CMD_LPR_SALIDA_WIEGAND?ACCESCAN
            CODE    4EDAH     00C4H     UNIT         ?PR?_BLOCK_READ_CLOCK?CLOCK
            CODE    4F9EH     00C3H     UNIT         ?PR?_RD_MF?LINTECH
            CODE    5061H     00BDH     UNIT         ?PR?PROG_COD_PARK?PROG
            CODE    511EH     00BDH     UNIT         ?PR?PROG_TIEMPO_GRACIA?PROG
            CODE    51DBH     00BCH     UNIT         ?PR?MAIN?MAIN
BL51 BANKED LINKER/LOCATER V6.22.2.0                                                  04/22/2020  15:25:24  PAGE 4


            CODE    5297H     00B6H     UNIT         ?PR?PROG_ID_CLIENTE?PROG
            CODE    534DH     00B5H     UNIT         ?PR?ERROR_RX_PTO?VERIFICADOR
            CODE    5402H     00B4H     UNIT         ?PR?_SEND_PORT?PTO_PARALELO
            CODE    54B6H     00A9H     UNIT         ?PR?DWLOAD_EEPROM?LINTECH
            CODE    555FH     00A6H     UNIT         ?PR?_BLOCK_READ_CLOCK_HEX?CLOCK
            CODE    5605H     00A6H     UNIT         ?PR?_DEBUG_FECHA_ACTUAL?TIBBO
            CODE    56ABH     00A0H     UNIT         ?CO?IO_SENSORES
            CODE    574BH     009DH     UNIT         ?PR?_INICIALIZA?LINTECH
            CODE    57E8H     009AH     UNIT         ?PR?EXP?EXP
            CODE    5882H     0099H     UNIT         ?PR?_RECIBE_PORT?PTO_PARALELO
            CODE    591BH     0095H     UNIT         ?PR?_RECIBE_CMD_MONITOR?ACCESCAN
            CODE    59B0H     0094H     UNIT         ?PR?_SECUENCIAEXPEDIDORMF?VERIFICADOR
            CODE    5A44H     0091H     UNIT         ?PR?_CARD_INSERCION?LINTECH
            CODE    5AD5H     0091H     UNIT         ?PR?LOADVERIFY_EEPROM?LINTECH
            CODE    5B66H     0090H     UNIT         ?PR?_LEE_CLK?CLOCK
            CODE    5BF6H     0090H     UNIT         ?PR?_GETOPTION?PROG
            CODE    5C86H     008FH     UNIT         ?PR?_BLOCK_WRITE_CLOCK_ASCII?CLOCK
            CODE    5D15H     008CH     UNIT         ?C_C51STARTUP
            CODE    5DA1H     008BH     UNIT         ?C_INITSEG
            CODE    5E2CH     008BH     UNIT         ?PR?RESPONDE_ESTADO_SENSORES_TRANSPORTE?VERIFICADOR
            CODE    5EB7H     0088H     UNIT         ?PR?_SEND_PORTERR?PTO_PARALELO
            CODE    5F3FH     0088H     UNIT         ?PR?RX_DATA?TIBBO
            CODE    5FC7H     0084H     UNIT         ?PR?_STRSPN?STRSPN
            CODE    604BH     0083H     UNIT         ?PR?_PANTALLALCD_LINEA_2?PANTALLAS
            CODE    60CEH     0081H     UNIT         ?PR?_STRPBRK?STRPBRK
            CODE    614FH     0080H     UNIT         ?PR?MSJ_LCD_INFORMATIVO?IO_SENSORES
            CODE    61CFH     0080H     UNIT         ?PR?_INGRESADATO?PROG
            CODE    624FH     0080H     UNIT         ?PR?AUT_CARD_CHECK_STATUS?LINTECH
            CODE    62CFH     007CH     UNIT         ?PR?_CHECK_STATUS?LINTECH
            CODE    634BH     007CH     UNIT         ?PR?_RTA_CMD_TRANSPORTE?VERIFICADOR
            CODE    63C7H     007AH     UNIT         ?PR?VARIABLE_INICIO?MAIN
            CODE    6441H     0073H     UNIT         ?PR?_DEBUGBUFFERMF?TIBBO
            CODE    64B4H     0072H     UNIT         ?PR?_RASPBERRY_DATA?PANTALLAS
            CODE    6526H     006FH     UNIT         ?PR?VALIDASENSORESPASO?IO_SENSORES
            CODE    6595H     006BH     UNIT         ?PR?_STRCAT?STRCAT
            CODE    6600H     0062H     UNIT         ?PR?_LISTACOMANDOS?PROG
            CODE    6662H     005AH     UNIT         ?PR?SHOW?PROG
            CODE    66BCH     0057H     UNIT         ?PR?RELOJ_PANTALLA_LCD?PANTALLAS
            CODE    6713H     0053H     UNIT         ?PR?_BYTEHEX_DECIMAL?CLOCK
            CODE    6766H     004DH     UNIT         ?PR?L_D_M?EEPROM
            CODE    67B3H     004BH     UNIT         ?PR?_TX_AUX?TIBBO
            CODE    67FEH     0049H     UNIT         ?PR?_DEBUG_TXT_TIBBO?TIBBO
            CODE    6847H     0047H     UNIT         ?PR?_DEBUG_CHR_TIBBO?TIBBO
            CODE    688EH     0047H     UNIT         ?PR?INGRESO_VEHICULO?VERIFICADOR
            CODE    68D5H     0046H     UNIT         ?PR?_ESCRIBIRCADENASOFT_BUFFER?MAIN
            CODE    691BH     0046H     UNIT         ?PR?_WR_EEPROM?EEPROM
            CODE    6961H     0046H     UNIT         ?PR?_LCD_TXT_NUM_CHAR?PANTALLAS
            CODE    69A7H     0046H     UNIT         ?PR?_DEBUG_HEXDEC?TIBBO
            CODE    69EDH     0045H     UNIT         ?PR?_VALIDARCLAVE?PROG
            CODE    6A32H     0041H     UNIT         ?PR?_MONITOR_CHR?ACCESCAN
            CODE    6A73H     0041H     UNIT         ?PR?_TWO_ONE?CLOCK
            CODE    6AB4H     0040H     UNIT         ?PR?_GETCMD?PROG
            CODE    6AF4H     003FH     UNIT         ?PR?_EB_CLK?CLOCK
            CODE    6B33H     003EH     UNIT         ?PR?_PUTCHAR?MAIN
            CODE    6B71H     003DH     UNIT         ?PR?_RD_EEPROM?EEPROM
            CODE    6BAEH     003CH     UNIT         ?PR?_LCD_TXT?PANTALLAS
            CODE    6BEAH     003BH     UNIT         ?CO?EEPROM
BL51 BANKED LINKER/LOCATER V6.22.2.0                                                  04/22/2020  15:25:24  PAGE 5


            CODE    6C25H     003BH     UNIT         ?PR?_DEBUG_PTO_PARALELO?TIBBO
            CODE    6C60H     003BH     UNIT         ?PR?_COM_PUTCHAR?UART
            CODE    6C9BH     003AH     UNIT         ?PR?_DELAY_10MS?DELAY
            CODE    6CD5H     0036H     UNIT         ?PR?CMD_LPR_INT?ACCESCAN
            CODE    6D0BH     0033H     UNIT         ?PR?TRAMA_VALIDACION_P_N?VERIFICADOR
            CODE    6D3EH     0032H     UNIT         ?PR?_DEBUG_MONITOR?TIBBO
            CODE    6D70H     002CH     UNIT         ?PR?LOAD_AND_SEND_INFO_RELOJ?PTO_PARALELO
            CODE    6D9CH     002AH     UNIT         ?PR?COM_INITIALIZE?UART
            CODE    6DC6H     0029H     UNIT         ?PR?TIMER0_INT?MAIN
            CODE    6DEFH     0028H     UNIT         ?PR?_WR_CLK?CLOCK
            CODE    6E17H     0028H     UNIT         ?PR?COM_BAUDRATE?UART
            CODE    6E3FH     0027H     UNIT         ?PR?_TX_CHRLCD?PANTALLAS
            CODE    6E66H     0026H     UNIT         ?PR?COM_GETCHAR?UART
            CODE    6E8CH     0022H     UNIT         ?PR?_E_D_M?EEPROM
            CODE    6EAEH     0021H     UNIT         ?PR?_HEX_BCD?CLOCK
            CODE    6ECFH     0020H     UNIT         ?CO?MAIN
            CODE    6EEFH     0020H     UNIT         ?PR?ACKD?EEPROM
            CODE    6F0FH     0020H     UNIT         ?PR?ACK_LECT?EEPROM
            CODE    6F2FH     001FH     UNIT         ?PR?VALIDASENSOR?IO_SENSORES
            CODE    6F4EH     001FH     UNIT         ?PR?TIME_BIT?TIBBO
            CODE    6F6DH     001EH     UNIT         ?PR?_BCD_HEX?CLOCK
            CODE    6F8BH     001BH     UNIT         ?PR?_DELAY_1MS?DELAY
            CODE    6FA6H     0017H     UNIT         ?PR?DISPLAYCURSOR?PROG
            CODE    6FBDH     0017H     UNIT         ?PR?TIME_MBIT?TIBBO
            CODE    6FD4H     0014H     UNIT         ?PR?DEBUG_DIVIDIR_TEXTO?TIBBO
            CODE    6FE8H     0014H     UNIT         ?PR?_ISSPACE?ISSPACE
            CODE    6FFCH     0012H     UNIT         ?PR?_DELAY_20US?DELAY
            CODE    700EH     0012H     UNIT         ?PR?START?EEPROM
            CODE    7020H     0012H     UNIT         ?PR?DIR_BOARD?IO_SENSORES
            CODE    7032H     0012H     UNIT         ?PR?PULSO_BUS?PTO_PARALELO
            CODE    7044H     0012H     UNIT         ?PR?COM_RBUFLEN?UART
            CODE    7056H     0012H     UNIT         ?PR?COM_TBUFLEN?UART
            CODE    7068H     0010H     UNIT         ?PR?INI_TIMER?MAIN
            CODE    7078H     0010H     UNIT         ?PR?INICIA_BOARD?MAIN
            CODE    7088H     000FH     UNIT         ?PR?_ISDIGIT?ISDIGIT
            CODE    7097H     000CH     UNIT         ?PR?_GETKEY?MAIN
            CODE    70A3H     000AH     UNIT         ?PR?COND_INI_PTO?PTO_PARALELO
            CODE    70ADH     0009H     UNIT         ?PR?STOP?EEPROM
            CODE    70B6H     0007H     UNIT         ?PR?COND_INI_CLOCK?CLOCK
            CODE    70BDH     0007H     UNIT         ?PR?SEL_FUNCION?IO_SENSORES
            CODE    70C4H     0007H     UNIT         ?PR?SEL_AUTO?IO_SENSORES
            CODE    70CBH     0007H     UNIT         ?PR?SEL_PULSA?IO_SENSORES
            CODE    70D2H     0007H     UNIT         ?PR?SEL_SENSOR2?IO_SENSORES
            CODE    70D9H     0007H     UNIT         ?PR?SEL_SENSOR1?IO_SENSORES
            CODE    70E0H     0007H     UNIT         ?PR?SEL_DIR1?IO_SENSORES
            CODE    70E7H     0007H     UNIT         ?PR?SEL_DIR2?IO_SENSORES
            CODE    70EEH     0006H     UNIT         ?PR?P_ME?EEPROM
            CODE    70F4H     0005H     UNIT         ?PR?ON_TIMER0_INTERRUP?MAIN
            CODE    70F9H     0005H     UNIT         ?CO?ACCESCAN
            CODE    70FEH     0005H     UNIT         ?PR?COND_INI_TIBBO?TIBBO
            CODE    7103H     0003H     UNIT         ?PR?OFF_TIMER0_INTERRUP?MAIN
            CODE    7106H     0003H     UNIT         ?CO?PTO_PARALELO
            CODE    7109H     0001H     UNIT         ?PR?DELAY?DELAY



OVERLAY MAP OF MODULE:   .\Objects\expedidor_v_01_raspberry (MAIN)
BL51 BANKED LINKER/LOCATER V6.22.2.0                                                  04/22/2020  15:25:24  PAGE 6




SEGMENT                                             BIT_GROUP          DATA_GROUP          XDATA_GROUP
  +--> CALLED SEGMENT                            START    LENGTH     START    LENGTH     START    LENGTH
--------------------------------------------------------------------------------------------------------
?C_C51STARTUP                                    -----    -----      -----    -----      -----    -----
  +--> ?PR?MAIN?MAIN
  +--> ?C_INITSEG

?PR?MAIN?MAIN                                    -----    -----      -----    -----      0000H    0022H
  +--> ?CO?MAIN
  +--> ?PR?INI_TIMER?MAIN
  +--> ?PR?ON_TIMER0_INTERRUP?MAIN
  +--> ?PR?COM_INITIALIZE?UART
  +--> ?PR?COM_BAUDRATE?UART
  +--> ?PR?INICIA_BOARD?MAIN
  +--> ?PR?TIME_BIT?TIBBO
  +--> ?PR?_DELAY_20US?DELAY
  +--> ?PR?TIME_MBIT?TIBBO
  +--> ?PR?_TX_AUX?TIBBO
  +--> ?PR?SEL_FUNCION?IO_SENSORES
  +--> ?PR?MENU?PROG
  +--> ?PR?VARIABLE_INICIO?MAIN
  +--> ?PR?SECUENCIA_INICIO_EXPEDIDOR?VERIFI...
  +--> ?PR?_RECIBE_CMD_MONITOR?ACCESCAN
  +--> ?PR?_DEBUG_MONITOR?TIBBO
  +--> ?PR?_SECUENCIAEXPEDIDORMF?VERIFICADOR
  +--> ?PR?_RECIBE_PORT?PTO_PARALELO
  +--> ?PR?_DEBUG_PTO_PARALELO?TIBBO
  +--> ?PR?_VALIDA_TRAMA_PTO?ACCESCAN
  +--> ?PR?MSJ_LCD_INFORMATIVO?IO_SENSORES

?PR?COM_INITIALIZE?UART                          -----    -----      -----    -----      -----    -----
  +--> ?PR?COM_BAUDRATE?UART

?PR?INICIA_BOARD?MAIN                            -----    -----      -----    -----      -----    -----
  +--> ?PR?COND_INI_TIBBO?TIBBO
  +--> ?PR?COND_INI_CLOCK?CLOCK
  +--> ?PR?COND_INI_PTO?PTO_PARALELO

?PR?_TX_AUX?TIBBO                                -----    -----      -----    -----      -----    -----
  +--> ?PR?TIME_BIT?TIBBO

?PR?MENU?PROG                                    -----    -----      -----    -----      0022H    005CH
  +--> ?CO?PROG
  +--> ?PR?PRINTF?PRINTF
  +--> ?PR?_INGRESADATO?PROG
  +--> ?PR?_GETCMD?PROG
  +--> ?PR?_HASH_ID?PROG
  +--> ?PR?_VALIDARCLAVE?PROG
  +--> ?PR?DISPLAYCURSOR?PROG
  +--> ?PR?_STRLEN?STRLEN
  +--> ?PR?_GETOPTION?PROG
  +--> ?PR?_STRCAT?STRCAT
  +--> ?PR?_LISTACOMANDOS?PROG
  +--> ?PR?PROG_ID_CLIENTE?PROG
  +--> ?PR?PROG_COD_PARK?PROG
BL51 BANKED LINKER/LOCATER V6.22.2.0                                                  04/22/2020  15:25:24  PAGE 7


  +--> ?PR?PROG_TIEMPO_GRACIA?PROG
  +--> ?PR?PROG_SIN_COBRO?PROG
  +--> ?PR?PROG_DEBUG?PROG
  +--> ?PR?PROG_USE_LPR?PROG
  +--> ?PR?PROG_COMPARACION_ACTIVA?PROG
  +--> ?PR?TIPO_PANTALLA?PROG
  +--> ?PR?SHOW?PROG

?PR?PRINTF?PRINTF                                0020H.0  0001H.1    0008H    0005H      008EH    0030H
  +--> ?PR?_PUTCHAR?MAIN

?PR?_PUTCHAR?MAIN                                -----    -----      -----    -----      00BEH    0003H
  +--> ?PR?_COM_PUTCHAR?UART

?PR?_COM_PUTCHAR?UART                            -----    -----      -----    -----      00C1H    0001H
  +--> ?PR?COM_TBUFLEN?UART

?PR?_INGRESADATO?PROG                            -----    -----      -----    -----      008AH    0004H
  +--> ?PR?_GETKEY?MAIN
  +--> ?CO?PROG
  +--> ?PR?PRINTF?PRINTF
  +--> ?PR?_PUTCHAR?MAIN

?PR?_GETKEY?MAIN                                 -----    -----      -----    -----      -----    -----
  +--> ?PR?COM_GETCHAR?UART

?PR?COM_GETCHAR?UART                             -----    -----      -----    -----      -----    -----
  +--> ?PR?COM_RBUFLEN?UART

?PR?_GETCMD?PROG                                 -----    -----      -----    -----      007EH    0007H
  +--> ?CO?PROG
  +--> ?PR?_STRTOK?STRTOK

?PR?_STRTOK?STRTOK                               -----    -----      -----    -----      0089H    0006H
  +--> ?PR?_STRSPN?STRSPN
  +--> ?PR?_STRPBRK?STRPBRK

?PR?_STRSPN?STRSPN                               -----    -----      -----    -----      008FH    0008H

?PR?_STRPBRK?STRPBRK                             -----    -----      -----    -----      008FH    0009H

?PR?_HASH_ID?PROG                                -----    -----      -----    -----      007EH    0036H
  +--> ?CO?PROG
  +--> ?PR?_STRLEN?STRLEN

?PR?_VALIDARCLAVE?PROG                           -----    -----      -----    -----      007EH    000AH

?PR?DISPLAYCURSOR?PROG                           -----    -----      -----    -----      -----    -----
  +--> ?CO?PROG
  +--> ?PR?PRINTF?PRINTF

?PR?_GETOPTION?PROG                              -----    -----      -----    -----      007EH    000BH
  +--> ?CO?PROG
  +--> ?PR?_STRTOK?STRTOK

?PR?_STRCAT?STRCAT                               -----    -----      -----    -----      007EH    0009H

BL51 BANKED LINKER/LOCATER V6.22.2.0                                                  04/22/2020  15:25:24  PAGE 8


?PR?_LISTACOMANDOS?PROG                          -----    -----      -----    -----      007EH    0006H

?PR?PROG_ID_CLIENTE?PROG                         -----    -----      -----    -----      007EH    000CH
  +--> ?PR?_RD_EEPROM?EEPROM
  +--> ?CO?PROG
  +--> ?PR?PRINTF?PRINTF
  +--> ?PR?_INGRESADATO?PROG
  +--> ?PR?_ATOI?ATOI
  +--> ?PR?_WR_EEPROM?EEPROM

?PR?_RD_EEPROM?EEPROM                            -----    -----      -----    -----      -----    -----
  +--> ?PR?START?EEPROM
  +--> ?PR?ACK_LECT?EEPROM
  +--> ?PR?_E_D_M?EEPROM
  +--> ?PR?ACKD?EEPROM
  +--> ?PR?L_D_M?EEPROM
  +--> ?PR?STOP?EEPROM

?PR?ACK_LECT?EEPROM                              -----    -----      -----    -----      -----    -----
  +--> ?PR?_E_D_M?EEPROM

?PR?_E_D_M?EEPROM                                -----    -----      -----    -----      -----    -----
  +--> ?PR?P_ME?EEPROM

?PR?ACKD?EEPROM                                  -----    -----      -----    -----      -----    -----
  +--> ?PR?_E_D_M?EEPROM

?PR?_ATOI?ATOI                                   0020H.0  0000H.1    -----    -----      008AH    0005H
  +--> ?PR?_ISSPACE?ISSPACE
  +--> ?PR?_ISDIGIT?ISDIGIT

?PR?_WR_EEPROM?EEPROM                            -----    -----      -----    -----      -----    -----
  +--> ?PR?START?EEPROM
  +--> ?PR?ACKD?EEPROM
  +--> ?PR?_E_D_M?EEPROM
  +--> ?PR?STOP?EEPROM
  +--> ?PR?_DELAY_1MS?DELAY
  +--> ?PR?_DELAY_20US?DELAY

?PR?_DELAY_1MS?DELAY                             -----    -----      -----    -----      -----    -----
  +--> ?PR?_DELAY_20US?DELAY

?PR?PROG_COD_PARK?PROG                           -----    -----      -----    -----      007EH    000CH
  +--> ?PR?_RD_EEPROM?EEPROM
  +--> ?CO?PROG
  +--> ?PR?PRINTF?PRINTF
  +--> ?PR?_INGRESADATO?PROG
  +--> ?PR?_ATOI?ATOI
  +--> ?PR?_WR_EEPROM?EEPROM

?PR?PROG_TIEMPO_GRACIA?PROG                      -----    -----      -----    -----      007EH    000CH
  +--> ?PR?_RD_EEPROM?EEPROM
  +--> ?CO?PROG
  +--> ?PR?PRINTF?PRINTF
  +--> ?PR?_INGRESADATO?PROG
  +--> ?PR?_ATOI?ATOI
  +--> ?PR?_WR_EEPROM?EEPROM
BL51 BANKED LINKER/LOCATER V6.22.2.0                                                  04/22/2020  15:25:24  PAGE 9



?PR?PROG_SIN_COBRO?PROG                          -----    -----      -----    -----      007EH    000CH
  +--> ?PR?_RD_EEPROM?EEPROM
  +--> ?CO?PROG
  +--> ?PR?PRINTF?PRINTF
  +--> ?PR?_INGRESADATO?PROG
  +--> ?PR?_ATOI?ATOI
  +--> ?PR?_WR_EEPROM?EEPROM

?PR?PROG_DEBUG?PROG                              -----    -----      -----    -----      007EH    000CH
  +--> ?PR?_RD_EEPROM?EEPROM
  +--> ?CO?PROG
  +--> ?PR?PRINTF?PRINTF
  +--> ?PR?_INGRESADATO?PROG
  +--> ?PR?_ATOI?ATOI
  +--> ?PR?_WR_EEPROM?EEPROM

?PR?PROG_USE_LPR?PROG                            -----    -----      -----    -----      007EH    000CH
  +--> ?PR?_RD_EEPROM?EEPROM
  +--> ?CO?PROG
  +--> ?PR?PRINTF?PRINTF
  +--> ?PR?_INGRESADATO?PROG
  +--> ?PR?_ATOI?ATOI
  +--> ?PR?_WR_EEPROM?EEPROM

?PR?PROG_COMPARACION_ACTIVA?PROG                 -----    -----      -----    -----      007EH    000CH
  +--> ?PR?_RD_EEPROM?EEPROM
  +--> ?CO?PROG
  +--> ?PR?PRINTF?PRINTF
  +--> ?PR?_INGRESADATO?PROG
  +--> ?PR?_ATOI?ATOI
  +--> ?PR?_WR_EEPROM?EEPROM

?PR?TIPO_PANTALLA?PROG                           -----    -----      -----    -----      007EH    000CH
  +--> ?PR?_RD_EEPROM?EEPROM
  +--> ?CO?PROG
  +--> ?PR?PRINTF?PRINTF
  +--> ?PR?_INGRESADATO?PROG
  +--> ?PR?_ATOI?ATOI
  +--> ?PR?_WR_EEPROM?EEPROM

?PR?SHOW?PROG                                    -----    -----      -----    -----      -----    -----
  +--> ?CO?PROG
  +--> ?PR?PRINTF?PRINTF

?PR?VARIABLE_INICIO?MAIN                         -----    -----      -----    -----      -----    -----
  +--> ?PR?_RD_EEPROM?EEPROM

?PR?SECUENCIA_INICIO_EXPEDIDOR?VERIFI...         -----    -----      -----    -----      0022H    0001H
  +--> ?PR?_INICIALIZA?LINTECH
  +--> ?PR?TRAMA_VALIDACION_P_N?VERIFICADOR
  +--> ?CO?VERIFICADOR
  +--> ?PR?_DEBUG_TXT_TIBBO?TIBBO
  +--> ?PR?_DEBUGBUFFERMF?TIBBO
  +--> ?PR?DWLOAD_EEPROM?LINTECH

?PR?_INICIALIZA?LINTECH                          -----    -----      -----    -----      0023H    000CH
BL51 BANKED LINKER/LOCATER V6.22.2.0                                                  04/22/2020  15:25:24  PAGE 10


  +--> ?CO?LINTECH
  +--> ?PR?_DEBUG_TXT_TIBBO?TIBBO
  +--> ?PR?_DEBUGBUFFERMF?TIBBO
  +--> ?PR?_ESCRIBIRCADENASOFT_BUFFER?MAIN

?PR?_DEBUG_TXT_TIBBO?TIBBO                       -----    -----      -----    -----      0043H    0004H
  +--> ?PR?_DEBUG_CHR_TIBBO?TIBBO
  +--> ?CO?TIBBO
  +--> ?PR?_TX_AUX?TIBBO

?PR?_DEBUG_CHR_TIBBO?TIBBO                       -----    -----      -----    -----      -----    -----
  +--> ?PR?_TX_AUX?TIBBO

?PR?_DEBUGBUFFERMF?TIBBO                         -----    -----      -----    -----      0039H    0006H
  +--> ?CO?TIBBO
  +--> ?PR?_DEBUG_TXT_TIBBO?TIBBO
  +--> ?PR?_DEBUG_CHR_TIBBO?TIBBO
  +--> ?PR?_TX_AUX?TIBBO

?PR?_ESCRIBIRCADENASOFT_BUFFER?MAIN              -----    -----      -----    -----      0039H    0006H
  +--> ?PR?_PUTCHAR?MAIN

?PR?TRAMA_VALIDACION_P_N?VERIFICADOR             -----    -----      -----    -----      -----    -----
  +--> ?CO?VERIFICADOR
  +--> ?PR?_DEBUG_TXT_TIBBO?TIBBO

?PR?DWLOAD_EEPROM?LINTECH                        -----    -----      -----    -----      0023H    0016H
  +--> ?CO?LINTECH
  +--> ?PR?_DEBUG_TXT_TIBBO?TIBBO
  +--> ?PR?_DEBUGBUFFERMF?TIBBO
  +--> ?PR?_ESCRIBIRCADENASOFT_BUFFER?MAIN

?PR?_RECIBE_CMD_MONITOR?ACCESCAN                 -----    -----      -----    -----      0022H    0006H
  +--> ?PR?RX_DATA?TIBBO

?PR?RX_DATA?TIBBO                                -----    -----      -----    -----      -----    -----
  +--> ?PR?TIME_MBIT?TIBBO
  +--> ?PR?TIME_BIT?TIBBO

?PR?_DEBUG_MONITOR?TIBBO                         -----    -----      -----    -----      0022H    0004H
  +--> ?PR?DEBUG_DIVIDIR_TEXTO?TIBBO
  +--> ?CO?TIBBO
  +--> ?PR?_DEBUG_TXT_TIBBO?TIBBO

?PR?DEBUG_DIVIDIR_TEXTO?TIBBO                    -----    -----      -----    -----      -----    -----
  +--> ?CO?TIBBO
  +--> ?PR?_DEBUG_TXT_TIBBO?TIBBO

?PR?_SECUENCIAEXPEDIDORMF?VERIFICADOR            -----    -----      -----    -----      0022H    0001H
  +--> ?PR?_CHECK_STATUS?LINTECH
  +--> ?PR?_RTA_CMD_TRANSPORTE?VERIFICADOR
  +--> ?CO?VERIFICADOR
  +--> ?PR?_DEBUG_TXT_TIBBO?TIBBO
  +--> ?PR?_DEBUG_CHR_TIBBO?TIBBO
  +--> ?PR?_DEBUGBUFFERMF?TIBBO
  +--> ?PR?RESPONDE_ESTADO_SENSORES_TRANSPOR...
  +--> ?PR?_MOV_CARD?LINTECH
BL51 BANKED LINKER/LOCATER V6.22.2.0                                                  04/22/2020  15:25:24  PAGE 11



?PR?_CHECK_STATUS?LINTECH                        -----    -----      -----    -----      0023H    000BH
  +--> ?CO?LINTECH
  +--> ?PR?_DEBUG_TXT_TIBBO?TIBBO
  +--> ?PR?_DEBUGBUFFERMF?TIBBO
  +--> ?PR?_ESCRIBIRCADENASOFT_BUFFER?MAIN

?PR?_RTA_CMD_TRANSPORTE?VERIFICADOR              -----    -----      -----    -----      0023H    0006H
  +--> ?PR?TRAMA_VALIDACION_P_N?VERIFICADOR
  +--> ?CO?VERIFICADOR
  +--> ?PR?_DEBUG_TXT_TIBBO?TIBBO
  +--> ?PR?_DEBUGBUFFERMF?TIBBO
  +--> ?PR?ERROR_RX_PTO?VERIFICADOR

?PR?ERROR_RX_PTO?VERIFICADOR                     -----    -----      -----    -----      0029H    0001H
  +--> ?CO?VERIFICADOR
  +--> ?PR?_DEBUG_TXT_TIBBO?TIBBO
  +--> ?PR?_DEBUG_CHR_TIBBO?TIBBO
  +--> ?PR?_DELAY_10MS?DELAY

?PR?_DELAY_10MS?DELAY                            -----    -----      -----    -----      002AH    0004H
  +--> ?PR?_DELAY_1MS?DELAY

?PR?RESPONDE_ESTADO_SENSORES_TRANSPOR...         -----    -----      -----    -----      -----    -----
  +--> ?CO?VERIFICADOR
  +--> ?PR?_DEBUG_TXT_TIBBO?TIBBO
  +--> ?PR?_DEBUGBUFFERMF?TIBBO
  +--> ?PR?_SEND_PORTERR?PTO_PARALELO
  +--> ?PR?_PANTALLALCD?PANTALLAS
  +--> ?PR?INGRESO_VEHICULO?VERIFICADOR
  +--> ?PR?_CARD_INSERCION?LINTECH

?PR?_SEND_PORTERR?PTO_PARALELO                   -----    -----      -----    -----      0023H    0006H
  +--> ?PR?PULSO_BUS?PTO_PARALELO
  +--> ?PR?_DELAY_20US?DELAY

?PR?PULSO_BUS?PTO_PARALELO                       -----    -----      -----    -----      -----    -----
  +--> ?PR?_DELAY_20US?DELAY

?PR?_PANTALLALCD?PANTALLAS                       -----    -----      -----    -----      0031H    0008H
  +--> ?CO?PANTALLAS
  +--> ?PR?_LCD_TXT?PANTALLAS
  +--> ?PR?_STRLEN?STRLEN
  +--> ?PR?_TX_CHRLCD?PANTALLAS
  +--> ?PR?_RASPBERRY_DATA?PANTALLAS

?PR?_LCD_TXT?PANTALLAS                           -----    -----      -----    -----      003CH    0005H
  +--> ?PR?_TX_CHRLCD?PANTALLAS

?PR?_TX_CHRLCD?PANTALLAS                         -----    -----      -----    -----      0044H    0002H
  +--> ?PR?_PUTCHAR?MAIN

?PR?_RASPBERRY_DATA?PANTALLAS                    -----    -----      -----    -----      003EH    0005H
  +--> ?PR?_STRLEN?STRLEN
  +--> ?PR?_DEBUG_CHR_TIBBO?TIBBO
  +--> ?PR?DEBUG_DIVIDIR_TEXTO?TIBBO
  +--> ?PR?_DEBUG_TXT_TIBBO?TIBBO
BL51 BANKED LINKER/LOCATER V6.22.2.0                                                  04/22/2020  15:25:24  PAGE 12


  +--> ?PR?_PUTCHAR?MAIN

?PR?INGRESO_VEHICULO?VERIFICADOR                 -----    -----      -----    -----      -----    -----
  +--> ?PR?VALIDASENSORESPASO?IO_SENSORES
  +--> ?CO?VERIFICADOR
  +--> ?PR?_DEBUG_TXT_TIBBO?TIBBO
  +--> ?PR?_MOV_CARD?LINTECH
  +--> ?PR?SEL_PULSA?IO_SENSORES

?PR?VALIDASENSORESPASO?IO_SENSORES               -----    -----      -----    -----      -----    -----
  +--> ?PR?SEL_SENSOR2?IO_SENSORES
  +--> ?PR?VALIDASENSOR?IO_SENSORES
  +--> ?PR?SEL_SENSOR1?IO_SENSORES
  +--> ?PR?SEL_AUTO?IO_SENSORES
  +--> ?CO?IO_SENSORES
  +--> ?PR?_DEBUG_TXT_TIBBO?TIBBO

?PR?_MOV_CARD?LINTECH                            -----    -----      -----    -----      0023H    000CH
  +--> ?CO?LINTECH
  +--> ?PR?_DEBUG_TXT_TIBBO?TIBBO
  +--> ?PR?_DEBUGBUFFERMF?TIBBO
  +--> ?PR?_ESCRIBIRCADENASOFT_BUFFER?MAIN

?PR?_CARD_INSERCION?LINTECH                      -----    -----      -----    -----      0023H    000AH
  +--> ?CO?LINTECH
  +--> ?PR?_DEBUG_TXT_TIBBO?TIBBO
  +--> ?PR?_DEBUGBUFFERMF?TIBBO
  +--> ?PR?_ESCRIBIRCADENASOFT_BUFFER?MAIN

?PR?_RECIBE_PORT?PTO_PARALELO                    -----    -----      -----    -----      0022H    0008H
  +--> ?PR?OFF_TIMER0_INTERRUP?MAIN
  +--> ?PR?ON_TIMER0_INTERRUP?MAIN

?PR?_DEBUG_PTO_PARALELO?TIBBO                    -----    -----      -----    -----      0022H    0004H
  +--> ?PR?DEBUG_DIVIDIR_TEXTO?TIBBO
  +--> ?CO?TIBBO
  +--> ?PR?_DEBUG_TXT_TIBBO?TIBBO
  +--> ?PR?_DEBUGBUFFERMF?TIBBO

?PR?_VALIDA_TRAMA_PTO?ACCESCAN                   -----    -----      -----    -----      0022H    000FH
  +--> ?PR?_VALIDAR_CLK?CLOCK
  +--> ?PR?_BLOCK_WRITE_CLOCK_ASCII?CLOCK
  +--> ?PR?RELOJ_PANTALLA_LCD?PANTALLAS
  +--> ?PR?_PANTALLALCD?PANTALLAS
  +--> ?CO?ACCESCAN
  +--> ?PR?_DEBUG_TXT_TIBBO?TIBBO
  +--> ?PR?_BYTEHEX_DECIMAL?CLOCK
  +--> ?PR?_TWO_BYTEHEX_DECIMAL?CLOCK
  +--> ?PR?_PANTALLALCD_LINEA_2?PANTALLAS
  +--> ?PR?VALIDASENSORESPASO?IO_SENSORES
  +--> ?PR?_CMD_LPR_SALIDA_WIEGAND?ACCESCAN
  +--> ?PR?_GRABA_SERIE?EEPROM

?PR?_BLOCK_WRITE_CLOCK_ASCII?CLOCK               -----    -----      -----    -----      0031H    0003H
  +--> ?PR?_TWO_ONE?CLOCK
  +--> ?PR?_WR_CLK?CLOCK

BL51 BANKED LINKER/LOCATER V6.22.2.0                                                  04/22/2020  15:25:24  PAGE 13


?PR?_WR_CLK?CLOCK                                -----    -----      -----    -----      0034H    0002H
  +--> ?PR?_DELAY_20US?DELAY
  +--> ?PR?_EB_CLK?CLOCK

?PR?_EB_CLK?CLOCK                                -----    -----      -----    -----      0059H    0003H
  +--> ?PR?P_CK?CLOCK

?PR?P_CK?CLOCK                                   -----    -----      -----    -----      -----    -----
  +--> ?PR?DELAY?DELAY

?PR?RELOJ_PANTALLA_LCD?PANTALLAS                 -----    -----      -----    -----      0031H    000DH
  +--> ?CO?PANTALLAS
  +--> ?PR?_BLOCK_READ_CLOCK?CLOCK
  +--> ?PR?_LCD_TXT_NUM_CHAR?PANTALLAS
  +--> ?PR?_RASPBERRY_DATA?PANTALLAS

?PR?_BLOCK_READ_CLOCK?CLOCK                      -----    -----      -----    -----      003EH    0003H
  +--> ?PR?_LEE_CLK?CLOCK

?PR?_LEE_CLK?CLOCK                               -----    -----      -----    -----      0056H    0003H
  +--> ?PR?_DELAY_20US?DELAY
  +--> ?PR?_EB_CLK?CLOCK
  +--> ?PR?P_CK?CLOCK

?PR?_LCD_TXT_NUM_CHAR?PANTALLAS                  -----    -----      -----    -----      003EH    0006H
  +--> ?PR?_TX_CHRLCD?PANTALLAS

?PR?_BYTEHEX_DECIMAL?CLOCK                       -----    -----      -----    -----      0031H    0001H

?PR?_TWO_BYTEHEX_DECIMAL?CLOCK                   -----    -----      -----    -----      0031H    000CH
  +--> ?PR?_POW?POW

?PR?_POW?POW                                     -----    -----      -----    -----      003DH    000AH
  +--> ?PR?LOG?LOG
  +--> ?PR?EXP?EXP

?PR?LOG?LOG                                      0020H.0  0000H.1    -----    -----      0047H    0004H

?PR?_PANTALLALCD_LINEA_2?PANTALLAS               -----    -----      -----    -----      0031H    000BH
  +--> ?CO?PANTALLAS
  +--> ?PR?_LCD_TXT?PANTALLAS
  +--> ?PR?_STRLEN?STRLEN
  +--> ?PR?_TX_CHRLCD?PANTALLAS

?PR?_CMD_LPR_SALIDA_WIEGAND?ACCESCAN             -----    -----      -----    -----      0031H    0022H
  +--> ?PR?DIR_BOARD?IO_SENSORES
  +--> ?PR?_BLOCK_READ_CLOCK_ASCII?CLOCK
  +--> ?PR?_MONITOR_CHR?ACCESCAN

?PR?DIR_BOARD?IO_SENSORES                        -----    -----      -----    -----      -----    -----
  +--> ?PR?SEL_DIR1?IO_SENSORES
  +--> ?PR?SEL_DIR2?IO_SENSORES

?PR?_BLOCK_READ_CLOCK_ASCII?CLOCK                -----    -----      -----    -----      0053H    0003H
  +--> ?PR?_LEE_CLK?CLOCK

?PR?_MONITOR_CHR?ACCESCAN                        -----    -----      -----    -----      0053H    0005H
BL51 BANKED LINKER/LOCATER V6.22.2.0                                                  04/22/2020  15:25:24  PAGE 14


  +--> ?PR?_TX_AUX?TIBBO

?PR?_GRABA_SERIE?EEPROM                          -----    -----      -----    -----      0031H    0011H
  +--> ?CO?EEPROM
  +--> ?PR?_DEBUG_TXT_TIBBO?TIBBO
  +--> ?PR?_ATOL?ATOL
  +--> ?PR?_DEBUG_CHR_TIBBO?TIBBO
  +--> ?PR?_WR_EEPROM?EEPROM

?PR?_ATOL?ATOL                                   0020H.0  0000H.1    -----    -----      0042H    0007H
  +--> ?PR?_ISSPACE?ISSPACE
  +--> ?PR?_ISDIGIT?ISDIGIT

?PR?MSJ_LCD_INFORMATIVO?IO_SENSORES              -----    -----      -----    -----      0022H    0001H
  +--> ?PR?SEL_FUNCION?IO_SENSORES
  +--> ?PR?LOAD_AND_SEND_INFO_RELOJ?PTO_PARA...
  +--> ?PR?LOAD_AND_SEND_ID_COD?PTO_PARALELO
  +--> ?PR?_RD_EEPROM?EEPROM
  +--> ?PR?_SEND_PORTERR?PTO_PARALELO

?PR?LOAD_AND_SEND_INFO_RELOJ?PTO_PARA...         -----    -----      -----    -----      0023H    000BH
  +--> ?PR?_BLOCK_READ_CLOCK?CLOCK
  +--> ?PR?_LEE_CLK?CLOCK
  +--> ?PR?_SEND_PORT?PTO_PARALELO

?PR?_SEND_PORT?PTO_PARALELO                      -----    -----      -----    -----      0034H    000AH
  +--> ?PR?PULSO_BUS?PTO_PARALELO
  +--> ?PR?_DELAY_20US?DELAY

?PR?LOAD_AND_SEND_ID_COD?PTO_PARALELO            -----    -----      -----    -----      0023H    0011H
  +--> ?CO?PTO_PARALELO
  +--> ?PR?PRINTF?PRINTF
  +--> ?PR?_SEND_PORT?PTO_PARALELO



SYMBOL TABLE OF MODULE:  .\Objects\expedidor_v_01_raspberry (MAIN)

  VALUE           TYPE          NAME
  ----------------------------------

  -------         MODULE        MAIN
  C:0000H         SYMBOL        _ICE_DUMMY_
  D:0080H         PUBLIC        P0
  D:0090H         PUBLIC        P1
  C:6DC6H         PUBLIC        timer0_int
  D:00B0H         PUBLIC        P3
  B:00A8H.7       PUBLIC        EA
  X:00EAH         PUBLIC        Tarjeta_on
  C:7103H         PUBLIC        off_Timer0_Interrup
  X:00EBH         PUBLIC        ValTimeOutCom
  X:00ECH         PUBLIC        Buffer_Rta_Lintech
  X:011EH         PUBLIC        Timer_wait
  X:011FH         PUBLIC        g_cContByteRx
  B:0080H.0       PUBLIC        rx_ip
  B:0080H.3       PUBLIC        Atascado
  C:51DBH         PUBLIC        main
BL51 BANKED LINKER/LOCATER V6.22.2.0                                                  04/22/2020  15:25:24  PAGE 15


  X:0120H         PUBLIC        Timer_tivo
  X:0122H         PUBLIC        CardAutomatic
  C:63C7H         PUBLIC        variable_inicio
  B:0090H.7       PUBLIC        lock
  I:0022H         PUBLIC        rbuf
  C:70F4H         PUBLIC        on_Timer0_Interrup
  I:0054H         PUBLIC        tbuf
  B:0090H.1       PUBLIC        DataIn
  D:0089H         PUBLIC        TMOD
  X:0123H         PUBLIC        USE_LPR
  X:0124H         PUBLIC        Debug_Tibbo
  X:0125H         PUBLIC        Raspberry
  X:0126H         PUBLIC        SIN_COBRO
  C:6ECFH         SYMBOL        _?ix1000
  X:0128H         PUBLIC        Tipo_Vehiculo
  C:6EDFH         SYMBOL        _?ix1001
  B:00B0H.3       PUBLIC        busy
  C:7068H         PUBLIC        ini_timer
  B:00A8H.1       PUBLIC        ET0
  B:0088H.5       PUBLIC        TF0
  X:0129H         PUBLIC        COMPARACION_ACTIVA
  D:008CH         PUBLIC        TH0
  X:012AH         PUBLIC        ACK
  X:012BH         PUBLIC        g_cEstadoComSoft
  D:008AH         PUBLIC        TL0
  B:0088H.4       PUBLIC        TR0
  C:7078H         PUBLIC        inicia_board
  X:012CH         PUBLIC        T_GRACIA
  X:012EH         PUBLIC        COD_PARK
  B:0080H.7       PUBLIC        sel_com
  X:0130H         PUBLIC        STX_LINTECH
  C:7097H         PUBLIC        _getkey
  X:0131H         PUBLIC        g_cEstadoComSeqMF
  X:0132H         PUBLIC        ETX
  X:0133H         PUBLIC        ID_CLIENTE
  C:68D5H         PUBLIC        _EscribirCadenaSoft_buffer
  B:0021H.5       PUBLIC        buffer_ready
  C:6B33H         PUBLIC        _putchar
  -------         PROC          TIMER0_INT
  C:6DC6H         LINE#         12
  C:6DCCH         LINE#         15
  C:6DD2H         LINE#         16
  C:6DD8H         LINE#         17
  C:6DE6H         LINE#         18
  C:6DE8H         LINE#         20
  -------         ENDPROC       TIMER0_INT
  -------         PROC          INI_TIMER
  C:7068H         LINE#         23
  C:7068H         LINE#         24
  C:7068H         LINE#         26
  C:7070H         LINE#         28
  C:7073H         LINE#         29
  C:7075H         LINE#         30
  C:7077H         LINE#         32
  -------         ENDPROC       INI_TIMER
  -------         PROC          ON_TIMER0_INTERRUP
  C:70F4H         LINE#         35
BL51 BANKED LINKER/LOCATER V6.22.2.0                                                  04/22/2020  15:25:24  PAGE 16


  C:70F4H         LINE#         36
  C:70F4H         LINE#         37
  C:70F6H         LINE#         38
  C:70F8H         LINE#         40
  -------         ENDPROC       ON_TIMER0_INTERRUP
  -------         PROC          OFF_TIMER0_INTERRUP
  C:7103H         LINE#         43
  C:7103H         LINE#         44
  C:7103H         LINE#         45
  C:7105H         LINE#         47
  -------         ENDPROC       OFF_TIMER0_INTERRUP
  -------         PROC          _GETKEY
  -------         DO            
  D:0006H         SYMBOL        k
  -------         ENDDO         
  C:7097H         LINE#         55
  C:7097H         LINE#         56
  C:7097H         LINE#         60
  C:7097H         LINE#         61
  C:709AH         LINE#         62
  C:709AH         LINE#         63
  C:70A2H         LINE#         65
  C:70A2H         LINE#         66
  -------         ENDPROC       _GETKEY
  -------         PROC          _PUTCHAR
  X:00BEH         SYMBOL        c
  -------         DO            
  X:00BFH         SYMBOL        i
  -------         ENDDO         
  C:6B33H         LINE#         70
  C:6B38H         LINE#         71
  C:6B38H         LINE#         74
  C:6B47H         LINE#         75
  C:6B47H         LINE#         76
  C:6B5DH         LINE#         77
  C:6B5DH         LINE#         79
  C:6B6BH         LINE#         80
  C:6B6BH         LINE#         82
  C:6B70H         LINE#         83
  -------         ENDPROC       _PUTCHAR
  -------         PROC          _ESCRIBIRCADENASOFT_BUFFER
  X:0039H         SYMBOL        buffer
  X:003CH         SYMBOL        tamano_cadena
  -------         DO            
  X:003DH         SYMBOL        i
  X:003EH         SYMBOL        d
  -------         ENDDO         
  C:68D5H         LINE#         87
  C:68E3H         LINE#         88
  C:68E3H         LINE#         90
  C:68F1H         LINE#         91
  C:68F1H         LINE#         92
  C:6908H         LINE#         93
  C:6912H         LINE#         94
  C:691AH         LINE#         95
  -------         ENDPROC       _ESCRIBIRCADENASOFT_BUFFER
  -------         PROC          INICIA_BOARD
BL51 BANKED LINKER/LOCATER V6.22.2.0                                                  04/22/2020  15:25:24  PAGE 17


  C:7078H         LINE#         132
  C:7078H         LINE#         133
  C:7078H         LINE#         134
  C:707BH         LINE#         135
  C:707EH         LINE#         136
  C:7081H         LINE#         137
  C:7083H         LINE#         138
  C:7085H         LINE#         139
  C:7087H         LINE#         141
  -------         ENDPROC       INICIA_BOARD
  -------         PROC          VARIABLE_INICIO
  C:63C7H         LINE#         146
  C:63C7H         LINE#         147
  C:63C7H         LINE#         149
  C:63D7H         LINE#         150
  C:63E8H         LINE#         151
  C:63F9H         LINE#         152
  C:640AH         LINE#         153
  C:6410H         LINE#         154
  C:641EH         LINE#         155
  C:642CH         LINE#         156
  C:643AH         LINE#         157
  C:6440H         LINE#         158
  -------         ENDPROC       VARIABLE_INICIO
  -------         PROC          MAIN
  -------         DO            
  X:00C2H         SYMBOL        buffer
  X:0000H         SYMBOL        S1_B2
  X:0010H         SYMBOL        S1_B0
  X:0020H         SYMBOL        Estado_Comunicacion_Secuencia_MF
  X:0021H         SYMBOL        Length_trama
  -------         ENDDO         
  C:51DBH         LINE#         166
  C:51DBH         LINE#         167
  C:51DBH         LINE#         171
  C:51EEH         LINE#         172
  C:5201H         LINE#         173
  C:5206H         LINE#         177
  C:5209H         LINE#         178
  C:520CH         LINE#         179
  C:520FH         LINE#         180
  C:5212H         LINE#         181
  C:5215H         LINE#         182
  C:5217H         LINE#         184
  C:521AH         LINE#         185
  C:5221H         LINE#         186
  C:5224H         LINE#         187
  C:5229H         LINE#         189
  C:522CH         LINE#         191
  C:522FH         LINE#         192
  C:522FH         LINE#         193
  C:5232H         LINE#         194
  C:5232H         LINE#         195
  C:5235H         LINE#         196
  C:523BH         LINE#         197
  C:5241H         LINE#         199
  C:5241H         LINE#         200
BL51 BANKED LINKER/LOCATER V6.22.2.0                                                  04/22/2020  15:25:24  PAGE 18


  C:5241H         LINE#         208
  C:5244H         LINE#         209
  C:5244H         LINE#         211
  C:5253H         LINE#         212
  C:525CH         LINE#         213
  C:525CH         LINE#         217
  C:5269H         LINE#         222
  C:526CH         LINE#         223
  C:526CH         LINE#         225
  C:527BH         LINE#         227
  C:5284H         LINE#         229
  C:5292H         LINE#         231
  C:5292H         LINE#         232
  C:5295H         LINE#         236
  -------         ENDPROC       MAIN
  -------         ENDMOD        MAIN

  -------         MODULE        ACCESCAN
  C:0000H         SYMBOL        _ICE_DUMMY_
  D:0080H         PUBLIC        P0
  D:0090H         PUBLIC        P1
  B:0080H.2       PUBLIC        led_err_imp
  C:6A32H         PUBLIC        _Monitor_chr
  C:2B8EH         PUBLIC        _Cmd_LPR_Salida
  B:0080H.3       PUBLIC        Atascado
  B:0080H.0       PUBLIC        rx_ip
  B:0090H.7       PUBLIC        lock
  C:6CD5H         PUBLIC        Cmd_Lpr_Int
  C:28F0H         PUBLIC        _Valida_Trama_Pto
  C:591BH         PUBLIC        _recibe_cmd_Monitor
  C:4E04H         PUBLIC        _Cmd_LPR_Salida_wiegand
  -------         PROC          _VALIDA_TRAMA_PTO
  X:0022H         SYMBOL        buffer
  X:0025H         SYMBOL        length_trama
  -------         DO            
  X:0026H         SYMBOL        buff
  -------         ENDDO         
  C:28F0H         LINE#         65
  C:28FEH         LINE#         66
  C:28FEH         LINE#         69
  C:2934H         LINE#         70
  C:2934H         LINE#         71
  C:2949H         LINE#         72
  C:2949H         LINE#         73
  C:295CH         LINE#         75
  C:295FH         LINE#         77
  C:295FH         LINE#         78
  C:295FH         LINE#         80
  C:2971H         LINE#         81
  C:2971H         LINE#         82
  C:2981H         LINE#         83
  C:2981H         LINE#         84
  C:2986H         LINE#         85
  C:2988H         LINE#         86
  C:298DH         LINE#         87
  C:298FH         LINE#         88
  C:2991H         LINE#         89
BL51 BANKED LINKER/LOCATER V6.22.2.0                                                  04/22/2020  15:25:24  PAGE 19


  C:2991H         LINE#         90
  C:2992H         LINE#         92
  C:29A4H         LINE#         93
  C:29A4H         LINE#         95
  C:29B1H         LINE#         96
  C:29B1H         LINE#         97
  C:29B3H         LINE#         98
  C:29B5H         LINE#         99
  C:29B7H         LINE#         100
  C:29B9H         LINE#         101
  C:29B9H         LINE#         103
  C:29DFH         LINE#         104
  C:29DFH         LINE#         105
  C:29E3H         LINE#         106
  C:29E8H         LINE#         107
  C:29F1H         LINE#         108
  C:29F6H         LINE#         109
  C:29F6H         LINE#         112
  C:29F7H         LINE#         115
  C:2A2EH         LINE#         116
  C:2A2EH         LINE#         117
  C:2A30H         LINE#         118
  C:2A32H         LINE#         119
  C:2A4CH         LINE#         120
  C:2A4CH         LINE#         121
  C:2A51H         LINE#         122
  C:2A51H         LINE#         124
  C:2A94H         LINE#         125
  C:2A94H         LINE#         126
  C:2A9CH         LINE#         127
  C:2A9CH         LINE#         129
  C:2AB1H         LINE#         130
  C:2AB7H         LINE#         131
  C:2AE1H         LINE#         133
  C:2AECH         LINE#         137
  C:2AF2H         LINE#         139
  C:2AFBH         LINE#         140
  C:2AFBH         LINE#         143
  C:2AFBH         LINE#         145
  C:2B16H         LINE#         146
  C:2B1CH         LINE#         147
  C:2B46H         LINE#         148
  C:2B51H         LINE#         152
  C:2B51H         LINE#         153
  C:2B51H         LINE#         155
  C:2B7EH         LINE#         156
  C:2B7EH         LINE#         157
  C:2B8DH         LINE#         159
  C:2B8DH         LINE#         160
  -------         ENDPROC       _VALIDA_TRAMA_PTO
  -------         PROC          _RECIBE_CMD_MONITOR
  X:0022H         SYMBOL        buffer_cmd
  -------         DO            
  X:0025H         SYMBOL        j
  X:0026H         SYMBOL        NumDatos
  D:0005H         SYMBOL        time_out
  X:0027H         SYMBOL        MaxChrRx
BL51 BANKED LINKER/LOCATER V6.22.2.0                                                  04/22/2020  15:25:24  PAGE 20


  D:0006H         SYMBOL        contador
  -------         ENDDO         
  C:591BH         LINE#         166
  C:5926H         LINE#         167
  C:5926H         LINE#         171
  C:592BH         LINE#         172
  C:592FH         LINE#         174
  C:5937H         LINE#         175
  C:5937H         LINE#         176
  C:5948H         LINE#         177
  C:5948H         LINE#         178
  C:594BH         LINE#         179
  C:594CH         LINE#         180
  C:5952H         LINE#         181
  C:5952H         LINE#         182
  C:5957H         LINE#         183
  C:5960H         LINE#         184
  C:5960H         LINE#         185
  C:5962H         LINE#         186
  C:596AH         LINE#         187
  C:596AH         LINE#         188
  C:596CH         LINE#         189
  C:5971H         LINE#         190
  C:5977H         LINE#         191
  C:5989H         LINE#         192
  C:5993H         LINE#         193
  C:599BH         LINE#         195
  C:59AAH         LINE#         198
  C:59AAH         LINE#         199
  C:59AFH         LINE#         200
  -------         ENDPROC       _RECIBE_CMD_MONITOR
  -------         PROC          _MONITOR_CHR
  X:0053H         SYMBOL        str
  X:0056H         SYMBOL        num_char
  -------         DO            
  X:0057H         SYMBOL        j
  -------         ENDDO         
  C:6A32H         LINE#         230
  C:6A40H         LINE#         231
  C:6A40H         LINE#         233
  C:6A4EH         LINE#         234
  C:6A4EH         LINE#         235
  C:6A60H         LINE#         236
  C:6A6AH         LINE#         237
  C:6A72H         LINE#         238
  -------         ENDPROC       _MONITOR_CHR
  -------         PROC          _CMD_LPR_SALIDA_WIEGAND
  X:0031H         SYMBOL        buffer
  -------         DO            
  X:0034H         SYMBOL        Buffer_Lpr
  X:0052H         SYMBOL        j
  -------         ENDDO         
  C:4E04H         LINE#         243
  C:4E0FH         LINE#         244
  C:4E0FH         LINE#         246
  C:4E15H         LINE#         247
  C:4E1AH         LINE#         248
BL51 BANKED LINKER/LOCATER V6.22.2.0                                                  04/22/2020  15:25:24  PAGE 21


  C:4E22H         LINE#         249
  C:4E26H         LINE#         250
  C:4E2FH         LINE#         251
  C:4E2FH         LINE#         252
  C:4E40H         LINE#         253
  C:4E42H         LINE#         255
  C:4E42H         LINE#         256
  C:4E53H         LINE#         257
  C:4E53H         LINE#         261
  C:4E6AH         LINE#         262
  C:4E6AH         LINE#         263
  C:4E79H         LINE#         264
  C:4E83H         LINE#         266
  C:4E8BH         LINE#         267
  C:4E9FH         LINE#         269
  C:4EAFH         LINE#         270
  C:4EC0H         LINE#         271
  C:4ECDH         LINE#         275
  -------         ENDPROC       _CMD_LPR_SALIDA_WIEGAND
  -------         PROC          _CMD_LPR_SALIDA
  X:01B6H         SYMBOL        buffer_S1_B0
  X:01B9H         SYMBOL        buffer_S1_B2
  -------         DO            
  X:01BCH         SYMBOL        Buffer_Lpr
  D:0004H         SYMBOL        temp
  X:01DAH         SYMBOL        j
  -------         ENDDO         
  C:2B8EH         LINE#         280
  C:2B99H         LINE#         281
  C:2B99H         LINE#         286
  C:2B9FH         LINE#         287
  C:2BA4H         LINE#         288
  C:2BACH         LINE#         289
  C:2BB0H         LINE#         291
  C:2BC6H         LINE#         292
  C:2BC6H         LINE#         293
  C:2BD7H         LINE#         294
  C:2BD9H         LINE#         296
  C:2BD9H         LINE#         297
  C:2BEAH         LINE#         298
  C:2BEAH         LINE#         302
  C:2BEAH         LINE#         303
  C:2C0CH         LINE#         304
  C:2C16H         LINE#         305
  C:2C26H         LINE#         311
  C:2C3AH         LINE#         313
  C:2C50H         LINE#         314
  C:2C75H         LINE#         315
  C:2C8EH         LINE#         317
  C:2CA7H         LINE#         318
  C:2CCCH         LINE#         319
  C:2CE5H         LINE#         321
  C:2CFEH         LINE#         322
  C:2D23H         LINE#         323
  C:2D3CH         LINE#         325
  C:2D55H         LINE#         326
  C:2D7AH         LINE#         327
BL51 BANKED LINKER/LOCATER V6.22.2.0                                                  04/22/2020  15:25:24  PAGE 22


  C:2D93H         LINE#         329
  C:2DACH         LINE#         330
  C:2DD1H         LINE#         331
  C:2DEAH         LINE#         335
  C:2DFEH         LINE#         338
  C:2E12H         LINE#         340
  -------         ENDPROC       _CMD_LPR_SALIDA
  -------         PROC          CMD_LPR_INT
  -------         DO            
  X:01DBH         SYMBOL        Buffer_Lpr
  X:01F9H         SYMBOL        j
  D:0001H         SYMBOL        ticket
  -------         ENDDO         
  C:6CD5H         LINE#         342
  C:6CD5H         LINE#         343
  C:6CD5H         LINE#         345
  C:6CDBH         LINE#         347
  C:6CE0H         LINE#         348
  C:6CE8H         LINE#         349
  C:6CECH         LINE#         350
  C:6CF5H         LINE#         351
  C:6CF5H         LINE#         352
  C:6CF7H         LINE#         353
  C:6CF7H         LINE#         354
  C:6CF9H         LINE#         356
  C:6CF9H         LINE#         357
  C:6CFCH         LINE#         358
  C:6CFFH         LINE#         359
  C:6CFFH         LINE#         361
  C:6D02H         LINE#         362
  -------         ENDPROC       CMD_LPR_INT
  -------         ENDMOD        ACCESCAN

  -------         MODULE        CLOCK
  C:0000H         SYMBOL        _ICE_DUMMY_
  C:6AA7H         PUBLIC        _two_one
  D:0090H         PUBLIC        P1
  C:4165H         PUBLIC        _validar_clk
  C:6DEFH         PUBLIC        _wr_clk
  C:36C2H         PUBLIC        _check_fechaOut
  B:00D0H.7       PUBLIC        CY
  C:0003H         PUBLIC        p_ck
  X:028CH         PUBLIC        data_clk
  C:70B6H         PUBLIC        cond_ini_clock
  C:4EDAH         PUBLIC        _Block_read_Clock
  B:0090H.4       PUBLIC        sck
  C:555FH         PUBLIC        _Block_read_Clock_Hex
  C:2E20H         PUBLIC        _Block_read_clock_ascii
  C:6EAEH         PUBLIC        _hex_bcd
  C:6F6DH         PUBLIC        _bcd_hex
  C:6713H         PUBLIC        _ByteHex_Decimal
  C:5B70H         PUBLIC        _lee_clk
  C:1311H         PUBLIC        _analiza_tiempo
  B:0090H.5       PUBLIC        io
  C:5C86H         PUBLIC        _Block_write_clock_ascii
  B:0090H.6       PUBLIC        rst
  C:6AF4H         PUBLIC        _eb_clk
BL51 BANKED LINKER/LOCATER V6.22.2.0                                                  04/22/2020  15:25:24  PAGE 23


  C:20A1H         PUBLIC        _Two_ByteHex_Decimal
  -------         PROC          P_CK
  C:0003H         LINE#         37
  C:0003H         LINE#         38
  C:0003H         LINE#         39
  C:0005H         LINE#         40
  C:0008H         LINE#         41
  C:000AH         LINE#         42
  -------         ENDPROC       P_CK
  -------         PROC          _EB_CLK
  X:0059H         SYMBOL        dir_clk
  -------         DO            
  X:005AH         SYMBOL        nbits
  -------         ENDDO         
  C:6AF4H         LINE#         44
  C:6AF9H         LINE#         46
  C:6AFEH         LINE#         47
  C:6AFEH         LINE#         48
  C:6B07H         LINE#         49
  C:6B0AH         LINE#         50
  C:6B0AH         LINE#         51
  C:6B0CH         LINE#         52
  C:6B0EH         LINE#         54
  C:6B0EH         LINE#         55
  C:6B10H         LINE#         56
  C:6B10H         LINE#         57
  C:6B13H         LINE#         58
  C:6B32H         LINE#         59
  -------         ENDPROC       _EB_CLK
  C:5B66H         SYMBOL        L?0173
  -------         PROC          L?0172
  -------         ENDPROC       L?0172
  C:5B66H         SYMBOL        L?0173
  -------         PROC          _LEE_CLK
  X:0056H         SYMBOL        dir_clk
  -------         DO            
  X:0057H         SYMBOL        nbits
  -------         ENDDO         
  C:5B70H         LINE#         61
  C:5B75H         LINE#         63
  C:5B77H         LINE#         64
  C:5B7EH         LINE#         65
  C:5B86H         LINE#         66
  C:5B9FH         LINE#         67
  C:5B9FH         LINE#         68
  C:5BA2H         LINE#         69
  C:5BA2H         LINE#         70
  C:5BA9H         LINE#         71
  C:5BB3H         LINE#         72
  C:5BB8H         LINE#         73
  C:5BB8H         LINE#         74
  C:5BB8H         LINE#         75
  C:5BBBH         LINE#         76
  C:5BBBH         LINE#         77
  C:5BC2H         LINE#         78
  C:5BD3H         LINE#         79
  C:5BD3H         LINE#         80
BL51 BANKED LINKER/LOCATER V6.22.2.0                                                  04/22/2020  15:25:24  PAGE 24


  C:5BDBH         LINE#         81
  C:5BDBH         LINE#         82
  C:5BDBH         LINE#         83
  C:5BDEH         LINE#         84
  C:5BEEH         LINE#         85
  C:5BF0H         LINE#         86
  C:5BF5H         LINE#         87
  -------         ENDPROC       _LEE_CLK
  -------         PROC          _WR_CLK
  X:0034H         SYMBOL        dir_clk
  X:0035H         SYMBOL        byte
  C:6DEFH         LINE#         89
  C:6DF7H         LINE#         90
  C:6DF9H         LINE#         91
  C:6E00H         LINE#         92
  C:6E08H         LINE#         93
  C:6E11H         LINE#         94
  C:6E14H         LINE#         95
  C:6E16H         LINE#         97
  -------         ENDPROC       _WR_CLK
  C:6A73H         SYMBOL        L?0170
  C:6A91H         SYMBOL        L?0171
  -------         PROC          L?0169
  -------         ENDPROC       L?0169
  C:6A73H         SYMBOL        L?0170
  C:6A91H         SYMBOL        L?0171
  -------         PROC          _TWO_ONE
  D:0007H         SYMBOL        byte_h
  D:0005H         SYMBOL        byte_l
  -------         DO            
  D:0007H         SYMBOL        byte_out
  -------         ENDDO         
  C:6AA7H         LINE#         99
  C:6AA7H         LINE#         100
  C:6AA7H         LINE#         102
  C:6AAAH         LINE#         103
  C:6AAEH         LINE#         104
  C:6AB1H         LINE#         105
  C:6AB3H         LINE#         106
  C:6AB3H         LINE#         107
  -------         ENDPROC       _TWO_ONE
  -------         PROC          _VALIDAR_CLK
  D:0001H         SYMBOL        datos_clock
  -------         DO            
  D:0007H         SYMBOL        validador
  -------         ENDDO         
  C:4165H         LINE#         111
  C:4165H         LINE#         112
  C:4165H         LINE#         113
  C:4167H         LINE#         116
  C:417CH         LINE#         117
  C:417CH         LINE#         119
  C:4194H         LINE#         120
  C:4194H         LINE#         122
  C:41ACH         LINE#         123
  C:41ACH         LINE#         124
  C:41C4H         LINE#         125
BL51 BANKED LINKER/LOCATER V6.22.2.0                                                  04/22/2020  15:25:24  PAGE 25


  C:41C4H         LINE#         126
  C:41DCH         LINE#         127
  C:41DCH         LINE#         128
  C:41F1H         LINE#         129
  C:41F1H         LINE#         130
  C:4203H         LINE#         131
  C:4203H         LINE#         132
  C:4215H         LINE#         133
  C:4215H         LINE#         134
  C:4227H         LINE#         135
  C:4227H         LINE#         136
  C:4239H         LINE#         137
  C:4239H         LINE#         138
  C:424BH         LINE#         139
  C:424BH         LINE#         140
  C:425BH         LINE#         141
  C:425BH         LINE#         142
  C:425BH         LINE#         143
  C:425BH         LINE#         144
  C:425CH         LINE#         146
  C:425CH         LINE#         147
  C:425EH         LINE#         148
  C:425EH         LINE#         149
  C:425FH         LINE#         151
  C:425FH         LINE#         152
  C:4261H         LINE#         154
  C:4261H         LINE#         155
  C:4262H         LINE#         157
  C:4262H         LINE#         158
  C:4264H         LINE#         160
  C:4264H         LINE#         162
  C:4265H         LINE#         164
  C:4265H         LINE#         165
  C:4267H         LINE#         167
  C:4267H         LINE#         168
  C:4268H         LINE#         170
  C:4268H         LINE#         171
  C:426AH         LINE#         173
  C:426AH         LINE#         174
  C:426BH         LINE#         176
  C:426BH         LINE#         177
  C:426DH         LINE#         179
  C:426DH         LINE#         180
  C:426EH         LINE#         182
  C:426EH         LINE#         183
  C:4270H         LINE#         185
  C:4270H         LINE#         186
  C:4270H         LINE#         188
  C:4271H         LINE#         190
  C:4271H         LINE#         191
  C:4273H         LINE#         193
  C:4273H         LINE#         195
  C:4274H         LINE#         198
  C:4274H         LINE#         199
  C:4276H         LINE#         201
  C:4276H         LINE#         203
  C:4277H         LINE#         206
BL51 BANKED LINKER/LOCATER V6.22.2.0                                                  04/22/2020  15:25:24  PAGE 26


  C:4277H         LINE#         207
  C:4279H         LINE#         209
  C:4279H         LINE#         211
  C:4279H         LINE#         213
  -------         ENDPROC       _VALIDAR_CLK
  -------         PROC          _BLOCK_WRITE_CLOCK_ASCII
  X:0031H         SYMBOL        datos_clock
  C:5C86H         LINE#         219
  C:5C91H         LINE#         221
  C:5C91H         LINE#         225
  C:5C9BH         LINE#         226
  C:5C9BH         LINE#         227
  C:5C9BH         LINE#         228
  C:5C9BH         LINE#         230
  C:5CA5H         LINE#         231
  C:5CAFH         LINE#         232
  C:5CB9H         LINE#         233
  C:5CB9H         LINE#         234
  C:5CB9H         LINE#         235
  C:5CB9H         LINE#         237
  C:5CC3H         LINE#         238
  C:5CC3H         LINE#         239
  C:5CC3H         LINE#         240
  C:5CC3H         LINE#         242
  C:5CCDH         LINE#         243
  C:5CCDH         LINE#         244
  C:5CCDH         LINE#         245
  C:5CCDH         LINE#         247
  C:5CD7H         LINE#         248
  C:5CD7H         LINE#         249
  C:5CD7H         LINE#         250
  C:5CD7H         LINE#         252
  C:5CE1H         LINE#         253
  C:5CEBH         LINE#         254
  C:5CF5H         LINE#         255
  C:5CFFH         LINE#         257
  -------         ENDPROC       _BLOCK_WRITE_CLOCK_ASCII
  -------         PROC          _BCD_HEX
  D:0007H         SYMBOL        l_data
  -------         DO            
  D:0006H         SYMBOL        temp
  D:0005H         SYMBOL        j
  -------         ENDDO         
  C:6F6DH         LINE#         263
  C:6F6DH         LINE#         264
  C:6F6DH         LINE#         266
  C:6F6FH         LINE#         267
  C:6F73H         LINE#         268
  C:6F76H         LINE#         269
  C:6F78H         LINE#         270
  C:6F78H         LINE#         271
  C:6F7CH         LINE#         272
  C:6F83H         LINE#         273
  C:6F83H         LINE#         274
  C:6F87H         LINE#         275
  C:6F8AH         LINE#         276
  C:6F8AH         LINE#         277
BL51 BANKED LINKER/LOCATER V6.22.2.0                                                  04/22/2020  15:25:24  PAGE 27


  C:6F8AH         LINE#         278
  -------         ENDPROC       _BCD_HEX
  -------         PROC          _HEX_BCD
  D:0007H         SYMBOL        byte
  -------         DO            
  D:0006H         SYMBOL        nibble_h
  D:0005H         SYMBOL        nibble_l
  D:0004H         SYMBOL        k
  D:0007H         SYMBOL        byte_out
  -------         ENDDO         
  C:6EAEH         LINE#         282
  C:6EAEH         LINE#         283
  C:6EAEH         LINE#         288
  C:6EB0H         LINE#         289
  C:6EB1H         LINE#         291
  C:6EB7H         LINE#         292
  C:6EB7H         LINE#         293
  C:6EB8H         LINE#         294
  C:6EBDH         LINE#         295
  C:6EBDH         LINE#         296
  C:6EBEH         LINE#         297
  C:6EBFH         LINE#         298
  C:6EBFH         LINE#         299
  C:6EC2H         LINE#         300
  C:6EC6H         LINE#         301
  C:6EC9H         LINE#         302
  C:6ECCH         LINE#         303
  C:6ECEH         LINE#         304
  C:6ECEH         LINE#         306
  -------         ENDPROC       _HEX_BCD
  -------         PROC          _BYTEHEX_DECIMAL
  D:0001H         SYMBOL        buffer
  D:0005H         SYMBOL        valorhex
  -------         DO            
  X:0031H         SYMBOL        numero
  D:0007H         SYMBOL        centena
  D:0006H         SYMBOL        decena
  -------         ENDDO         
  C:6713H         LINE#         312
  C:6713H         LINE#         313
  C:6713H         LINE#         316
  C:6715H         LINE#         317
  C:6716H         LINE#         318
  C:671BH         LINE#         320
  C:6728H         LINE#         321
  C:6728H         LINE#         322
  C:672CH         LINE#         323
  C:672DH         LINE#         324
  C:672FH         LINE#         325
  C:6735H         LINE#         326
  C:673CH         LINE#         327
  C:6749H         LINE#         328
  C:6749H         LINE#         329
  C:674DH         LINE#         330
  C:674EH         LINE#         331
  C:6750H         LINE#         332
  C:6756H         LINE#         333
BL51 BANKED LINKER/LOCATER V6.22.2.0                                                  04/22/2020  15:25:24  PAGE 28


  C:675DH         LINE#         334
  -------         ENDPROC       _BYTEHEX_DECIMAL
  -------         PROC          _TWO_BYTEHEX_DECIMAL
  X:0031H         SYMBOL        buffer
  X:0034H         SYMBOL        id_h
  X:0035H         SYMBOL        id_l
  -------         DO            
  X:0036H         SYMBOL        valor
  D:0006H         SYMBOL        numero
  X:0038H         SYMBOL        temp
  X:0039H         SYMBOL        dmil
  X:003AH         SYMBOL        mil
  X:003BH         SYMBOL        centena
  X:003CH         SYMBOL        decena
  -------         ENDDO         
  C:20A1H         LINE#         342
  C:20AFH         LINE#         343
  C:20AFH         LINE#         347
  C:20B6H         LINE#         348
  C:20BAH         LINE#         349
  C:20BCH         LINE#         350
  C:20BEH         LINE#         351
  C:20C0H         LINE#         354
  C:20C5H         LINE#         355
  C:20C8H         LINE#         356
  C:20CEH         LINE#         358
  C:2129H         LINE#         359
  C:2131H         LINE#         360
  C:2134H         LINE#         361
  C:218FH         LINE#         363
  C:2197H         LINE#         364
  C:219AH         LINE#         365
  C:21A0H         LINE#         366
  C:21FBH         LINE#         367
  C:2203H         LINE#         368
  C:2206H         LINE#         369
  C:2261H         LINE#         370
  C:2261H         LINE#         372
  C:226AH         LINE#         373
  C:226AH         LINE#         374
  C:2272H         LINE#         375
  C:2278H         LINE#         376
  C:227AH         LINE#         377
  C:2290H         LINE#         378
  C:229AH         LINE#         379
  C:22A3H         LINE#         380
  C:22A3H         LINE#         381
  C:22ABH         LINE#         382
  C:22B1H         LINE#         383
  C:22B3H         LINE#         384
  C:22C9H         LINE#         385
  C:22D3H         LINE#         386
  C:22DCH         LINE#         387
  C:22DCH         LINE#         388
  C:22E4H         LINE#         389
  C:22EAH         LINE#         390
  C:22ECH         LINE#         391
BL51 BANKED LINKER/LOCATER V6.22.2.0                                                  04/22/2020  15:25:24  PAGE 29


  C:2302H         LINE#         392
  C:230CH         LINE#         393
  C:2315H         LINE#         394
  C:2315H         LINE#         395
  C:231DH         LINE#         396
  C:2323H         LINE#         397
  C:2325H         LINE#         398
  C:233BH         LINE#         399
  C:2345H         LINE#         400
  C:2358H         LINE#         401
  C:2362H         LINE#         402
  -------         ENDPROC       _TWO_BYTEHEX_DECIMAL
  -------         PROC          _BLOCK_READ_CLOCK_ASCII
  X:0053H         SYMBOL        datos_clock
  -------         DO            
  D:0007H         SYMBOL        dato
  -------         ENDDO         
  C:2E20H         LINE#         408
  C:2E23H         LINE#         409
  C:2E23H         LINE#         415
  C:2E26H         LINE#         416
  C:2E3EH         LINE#         417
  C:2E48H         LINE#         418
  C:2E5DH         LINE#         419
  C:2E67H         LINE#         422
  C:2E6CH         LINE#         423
  C:2E84H         LINE#         424
  C:2E8EH         LINE#         425
  C:2EA3H         LINE#         426
  C:2EADH         LINE#         429
  C:2EB2H         LINE#         430
  C:2ECAH         LINE#         431
  C:2ED4H         LINE#         432
  C:2EE9H         LINE#         433
  C:2EF3H         LINE#         437
  C:2EF8H         LINE#         438
  C:2F10H         LINE#         439
  C:2F1AH         LINE#         440
  C:2F2FH         LINE#         441
  C:2F39H         LINE#         444
  C:2F3EH         LINE#         445
  C:2F56H         LINE#         446
  C:2F60H         LINE#         447
  C:2F75H         LINE#         448
  C:2F7FH         LINE#         451
  C:2F84H         LINE#         452
  C:2F9CH         LINE#         453
  C:2FA6H         LINE#         454
  C:2FBBH         LINE#         455
  C:2FC5H         LINE#         458
  C:2FCAH         LINE#         459
  C:2FDFH         LINE#         460
  C:2FE9H         LINE#         461
  -------         ENDPROC       _BLOCK_READ_CLOCK_ASCII
  -------         PROC          _BLOCK_READ_CLOCK_HEX
  X:0278H         SYMBOL        datos_clock
  C:555FH         LINE#         464
BL51 BANKED LINKER/LOCATER V6.22.2.0                                                  04/22/2020  15:25:24  PAGE 30


  C:5562H         LINE#         465
  C:5562H         LINE#         468
  C:5577H         LINE#         469
  C:5581H         LINE#         471
  C:5598H         LINE#         472
  C:55A2H         LINE#         474
  C:55B9H         LINE#         475
  C:55C3H         LINE#         477
  C:55DAH         LINE#         478
  C:55E4H         LINE#         480
  C:55FBH         LINE#         481
  -------         ENDPROC       _BLOCK_READ_CLOCK_HEX
  -------         PROC          _BLOCK_READ_CLOCK
  X:003EH         SYMBOL        datos_clock
  C:4EDAH         LINE#         508
  C:4EDDH         LINE#         509
  C:4EDDH         LINE#         511
  C:4EEFH         LINE#         512
  C:4EF9H         LINE#         514
  C:4F0DH         LINE#         515
  C:4F17H         LINE#         517
  C:4F2BH         LINE#         518
  C:4F35H         LINE#         520
  C:4F49H         LINE#         521
  C:4F53H         LINE#         523
  C:4F67H         LINE#         524
  C:4F71H         LINE#         526
  C:4F85H         LINE#         527
  C:4F8FH         LINE#         528
  -------         ENDPROC       _BLOCK_READ_CLOCK
  -------         PROC          COND_INI_CLOCK
  C:70B6H         LINE#         531
  C:70B6H         LINE#         532
  C:70B6H         LINE#         533
  C:70B8H         LINE#         534
  C:70BAH         LINE#         535
  C:70BCH         LINE#         536
  -------         ENDPROC       COND_INI_CLOCK
  -------         PROC          _CHECK_FECHAOUT
  X:0266H         SYMBOL        buffer
  -------         DO            
  X:0269H         SYMBOL        temp
  X:026AH         SYMBOL        datos_clk
  -------         ENDDO         
  C:36C2H         LINE#         546
  C:36CDH         LINE#         547
  C:36CDH         LINE#         548
  C:36D1H         LINE#         554
  C:371AH         LINE#         555
  C:371AH         LINE#         557
  C:371FH         LINE#         559
  C:3722H         LINE#         561
  C:3722H         LINE#         563
  C:372BH         LINE#         565
  C:3733H         LINE#         566
  C:3733H         LINE#         567
  C:373CH         LINE#         569
BL51 BANKED LINKER/LOCATER V6.22.2.0                                                  04/22/2020  15:25:24  PAGE 31


  C:373CH         LINE#         572
  C:375FH         LINE#         573
  C:375FH         LINE#         574
  C:375FH         LINE#         575
  C:3762H         LINE#         576
  C:376CH         LINE#         577
  C:376CH         LINE#         578
  C:3792H         LINE#         579
  C:3792H         LINE#         580
  C:3792H         LINE#         581
  C:3795H         LINE#         582
  C:379FH         LINE#         583
  C:379FH         LINE#         584
  C:37C5H         LINE#         585
  C:37C5H         LINE#         586
  C:37C5H         LINE#         587
  C:37C7H         LINE#         588
  C:37CEH         LINE#         589
  C:37CEH         LINE#         590
  C:37F4H         LINE#         591
  C:37F4H         LINE#         592
  C:37F4H         LINE#         593
  C:37F6H         LINE#         594
  C:37FDH         LINE#         595
  C:37FDH         LINE#         596
  C:3822H         LINE#         597
  C:3822H         LINE#         598
  C:3827H         LINE#         599
  C:3829H         LINE#         607
  C:3829H         LINE#         608
  C:3829H         LINE#         609
  C:3829H         LINE#         610
  C:382BH         LINE#         612
  C:382BH         LINE#         613
  C:382BH         LINE#         614
  C:382BH         LINE#         615
  C:382DH         LINE#         617
  C:382DH         LINE#         618
  C:382DH         LINE#         619
  C:382DH         LINE#         620
  C:382FH         LINE#         622
  C:382FH         LINE#         623
  C:3835H         LINE#         625
  C:3835H         LINE#         627
  C:3835H         LINE#         628
  C:383AH         LINE#         629
  -------         ENDPROC       _CHECK_FECHAOUT
  -------         PROC          _ANALIZA_TIEMPO
  X:024CH         SYMBOL        buffer
  X:024FH         SYMBOL        Val_DctoMinutos
  -------         DO            
  X:0251H         SYMBOL        ano_inT
  B:0021H.1       SYMBOL        bisiesto
  X:0253H         SYMBOL        ano_out
  X:0254H         SYMBOL        mes_out
  X:0255H         SYMBOL        dia_out
  X:0256H         SYMBOL        hora_out
BL51 BANKED LINKER/LOCATER V6.22.2.0                                                  04/22/2020  15:25:24  PAGE 32


  X:0257H         SYMBOL        min_out
  X:0258H         SYMBOL        Horas_Dcto
  X:0259H         SYMBOL        Minutos_Dcto
  X:025AH         SYMBOL        Xtemp
  B:0021H.2       SYMBOL        Tiempo_Dcto
  -------         ENDDO         
  C:1311H         LINE#         632
  C:1324H         LINE#         633
  C:1324H         LINE#         637
  C:1326H         LINE#         642
  C:1328H         LINE#         644
  C:1383H         LINE#         645
  C:1383H         LINE#         650
  C:1395H         LINE#         651
  C:1395H         LINE#         652
  C:13A5H         LINE#         653
  C:13AFH         LINE#         655
  C:13B1H         LINE#         657
  C:13B1H         LINE#         658
  C:13B7H         LINE#         659
  C:13BCH         LINE#         660
  C:13BCH         LINE#         664
  C:13C6H         LINE#         665
  C:13C6H         LINE#         666
  C:13DEH         LINE#         667
  C:13EAH         LINE#         668
  C:13EAH         LINE#         670
  C:13F4H         LINE#         671
  C:1402H         LINE#         673
  C:140FH         LINE#         674
  C:141BH         LINE#         675
  C:141BH         LINE#         676
  C:1425H         LINE#         677
  C:1433H         LINE#         679
  C:1440H         LINE#         680
  C:1475H         LINE#         681
  C:1475H         LINE#         682
  C:1482H         LINE#         683
  C:1482H         LINE#         684
  C:1486H         LINE#         685
  C:149CH         LINE#         686
  C:14A5H         LINE#         687
  C:14A5H         LINE#         688
  C:14ADH         LINE#         689
  C:14B1H         LINE#         690
  C:14B4H         LINE#         697
  C:14B4H         LINE#         698
  C:14C9H         LINE#         699
  C:14C9H         LINE#         700
  C:14C9H         LINE#         701
  C:14CCH         LINE#         702
  C:14FAH         LINE#         703
  C:14FAH         LINE#         704
  C:1507H         LINE#         705
  C:1507H         LINE#         706
  C:150BH         LINE#         707
  C:1512H         LINE#         708
BL51 BANKED LINKER/LOCATER V6.22.2.0                                                  04/22/2020  15:25:24  PAGE 33


  C:1512H         LINE#         709
  C:1514H         LINE#         711
  C:1514H         LINE#         712
  C:151EH         LINE#         713
  C:151EH         LINE#         714
  C:151EH         LINE#         716
  C:1521H         LINE#         717
  C:1540H         LINE#         718
  C:1540H         LINE#         720
  C:1557H         LINE#         721
  C:1559H         LINE#         761
  C:1582H         LINE#         762
  C:1582H         LINE#         763
  C:1584H         LINE#         764
  C:1584H         LINE#         766
  C:1587H         LINE#         767
  C:1587H         LINE#         768
  C:15A0H         LINE#         769
  C:15A0H         LINE#         770
  C:15A7H         LINE#         771
  C:15AEH         LINE#         772
  C:15B5H         LINE#         774
  C:15B7H         LINE#         776
  C:15B7H         LINE#         777
  C:15BEH         LINE#         778
  C:15C3H         LINE#         779
  C:15CDH         LINE#         780
  C:15CDH         LINE#         781
  C:15D0H         LINE#         783
  C:15D0H         LINE#         784
  C:15DEH         LINE#         785
  C:15DEH         LINE#         786
  C:15E2H         LINE#         787
  C:15F4H         LINE#         788
  C:15F4H         LINE#         789
  C:15F6H         LINE#         791
  C:15F6H         LINE#         792
  C:15FBH         LINE#         793
  C:1610H         LINE#         794
  C:1610H         LINE#         795
  C:1610H         LINE#         796
  C:1610H         LINE#         798
  C:1613H         LINE#         800
  C:1613H         LINE#         801
  C:1618H         LINE#         802
  C:162DH         LINE#         803
  C:162DH         LINE#         804
  C:162DH         LINE#         805
  C:1630H         LINE#         807
  C:1630H         LINE#         808
  C:1645H         LINE#         809
  C:164FH         LINE#         810
  C:164FH         LINE#         811
  C:164FH         LINE#         812
  C:1651H         LINE#         814
  C:1651H         LINE#         815
  C:1666H         LINE#         816
BL51 BANKED LINKER/LOCATER V6.22.2.0                                                  04/22/2020  15:25:24  PAGE 34


  C:1670H         LINE#         817
  C:167AH         LINE#         818
  C:167AH         LINE#         819
  C:167AH         LINE#         820
  C:167CH         LINE#         822
  C:167CH         LINE#         823
  C:1691H         LINE#         824
  C:169BH         LINE#         825
  C:16A5H         LINE#         826
  C:16AFH         LINE#         827
  C:16B6H         LINE#         828
  C:16B6H         LINE#         832
  C:16C0H         LINE#         833
  C:16C0H         LINE#         834
  C:16C6H         LINE#         835
  C:16D4H         LINE#         836
  C:16D4H         LINE#         837
  C:16DDH         LINE#         838
  C:16EBH         LINE#         840
  C:16F1H         LINE#         841
  C:1718H         LINE#         842
  C:1718H         LINE#         843
  C:1728H         LINE#         844
  C:1728H         LINE#         845
  C:172CH         LINE#         846
  C:1732H         LINE#         847
  C:1740H         LINE#         848
  C:1740H         LINE#         849
  C:1742H         LINE#         850
  C:1746H         LINE#         851
  C:1749H         LINE#         853
  C:1749H         LINE#         854
  C:174AH         LINE#         855
  C:174AH         LINE#         856
  C:174AH         LINE#         857
  C:174DH         LINE#         858
  C:1765H         LINE#         859
  C:1765H         LINE#         860
  C:1772H         LINE#         861
  C:1772H         LINE#         862
  C:1776H         LINE#         863
  C:177BH         LINE#         864
  C:177BH         LINE#         865
  C:177EH         LINE#         867
  C:177EH         LINE#         868
  C:1782H         LINE#         869
  C:1782H         LINE#         870
  C:1782H         LINE#         871
  C:1784H         LINE#         872
  C:178DH         LINE#         873
  C:178DH         LINE#         875
  C:17A2H         LINE#         876
  C:17A4H         LINE#         909
  C:17C3H         LINE#         910
  C:17C3H         LINE#         911
  C:17C5H         LINE#         912
  C:17C5H         LINE#         915
BL51 BANKED LINKER/LOCATER V6.22.2.0                                                  04/22/2020  15:25:24  PAGE 35


  C:17C8H         LINE#         916
  C:17C8H         LINE#         917
  C:17D6H         LINE#         918
  C:17D6H         LINE#         919
  C:17DAH         LINE#         920
  C:17DFH         LINE#         921
  C:17DFH         LINE#         922
  C:17E1H         LINE#         924
  C:17E1H         LINE#         925
  C:17E6H         LINE#         926
  C:17EAH         LINE#         927
  C:17EAH         LINE#         928
  C:17EAH         LINE#         929
  C:17ECH         LINE#         931
  C:17ECH         LINE#         932
  C:17F9H         LINE#         933
  C:17F9H         LINE#         934
  C:17FDH         LINE#         935
  C:1803H         LINE#         936
  C:1808H         LINE#         937
  C:1808H         LINE#         938
  C:1808H         LINE#         940
  C:1808H         LINE#         942
  C:1808H         LINE#         943
  C:1808H         LINE#         946
  C:181FH         LINE#         947
  C:1829H         LINE#         948
  C:1833H         LINE#         949
  C:183DH         LINE#         950
  C:1847H         LINE#         952
  C:1847H         LINE#         955
  -------         ENDPROC       _ANALIZA_TIEMPO
  -------         ENDMOD        CLOCK

  -------         MODULE        DELAY
  C:0000H         SYMBOL        _ICE_DUMMY_
  C:6C9BH         PUBLIC        _Delay_10ms
  C:6FFCH         PUBLIC        _Delay_20us
  C:6F8BH         PUBLIC        _Delay_1ms
  C:7109H         PUBLIC        Delay
  -------         PROC          _DELAY_20US
  D:0006H         SYMBOL        cntd_us
  -------         DO            
  D:0004H         SYMBOL        i
  -------         ENDDO         
  C:6FFCH         LINE#         20
  C:6FFCH         LINE#         21
  C:6FFCH         LINE#         24
  C:7006H         LINE#         26
  C:700DH         LINE#         27
  -------         ENDPROC       _DELAY_20US
  -------         PROC          _DELAY_1MS
  D:0002H         SYMBOL        cntd_ms
  -------         DO            
  D:0082H         SYMBOL        i
  -------         ENDDO         
  C:6F8BH         LINE#         38
BL51 BANKED LINKER/LOCATER V6.22.2.0                                                  04/22/2020  15:25:24  PAGE 36


  C:6F8FH         LINE#         39
  C:6F8FH         LINE#         41
  C:6FA5H         LINE#         42
  -------         ENDPROC       _DELAY_1MS
  -------         PROC          _DELAY_10MS
  X:002AH         SYMBOL        cntd_10ms
  -------         DO            
  X:002CH         SYMBOL        i
  -------         ENDDO         
  C:6C9BH         LINE#         54
  C:6CA3H         LINE#         55
  C:6CA3H         LINE#         57
  C:6CD4H         LINE#         58
  -------         ENDPROC       _DELAY_10MS
  -------         PROC          DELAY
  C:7109H         LINE#         60
  C:7109H         LINE#         62
  -------         ENDPROC       DELAY
  -------         ENDMOD        DELAY

  -------         MODULE        EEPROM
  C:0000H         SYMBOL        _ICE_DUMMY_
  D:0090H         PUBLIC        P1
  X:027BH         PUBLIC        l_chr
  C:6EF2H         PUBLIC        ackd
  B:0021H.6       PUBLIC        memory_flag
  B:00D0H.7       PUBLIC        CY
  C:70EEH         PUBLIC        p_me
  C:7016H         PUBLIC        start
  B:0090H.2       PUBLIC        sda
  C:6F12H         PUBLIC        ack_lect
  B:0090H.3       PUBLIC        scl
  C:6B75H         PUBLIC        _rd_eeprom
  C:70ADH         PUBLIC        stop
  X:027CH         PUBLIC        l_data_eeprom
  C:6922H         PUBLIC        _wr_eeprom
  X:027DH         PUBLIC        byte_rd
  C:6E8CH         PUBLIC        _e_d_m
  C:351CH         PUBLIC        _graba_serie
  C:4496H         PUBLIC        Lee_No_Ticket
  C:6766H         PUBLIC        l_d_m
  -------         PROC          L?0046
  -------         ENDPROC       L?0046
  -------         PROC          ACKD
  -------         DO            
  D:0006H         SYMBOL        i
  -------         ENDDO         
  C:6EF2H         LINE#         35
  C:6EF2H         LINE#         36
  C:6EF2H         LINE#         38
  C:6EF4H         LINE#         39
  C:6EF6H         LINE#         40
  C:6EF8H         LINE#         41
  C:6EFBH         LINE#         42
  C:6EFBH         LINE#         43
  C:6EFEH         LINE#         44
  C:6EFEH         LINE#         45
BL51 BANKED LINKER/LOCATER V6.22.2.0                                                  04/22/2020  15:25:24  PAGE 37


  C:6F00H         LINE#         46
  C:6F02H         LINE#         48
  C:6F03H         LINE#         49
  C:6F03H         LINE#         50
  C:6F0EH         LINE#         52
  C:6F0EH         LINE#         53
  C:6F0EH         LINE#         55
  C:6F0EH         LINE#         56
  -------         ENDPROC       ACKD
  -------         PROC          L?0050
  -------         ENDPROC       L?0050
  -------         PROC          ACK_LECT
  -------         DO            
  D:0006H         SYMBOL        i
  -------         ENDDO         
  C:6F12H         LINE#         59
  C:6F12H         LINE#         60
  C:6F12H         LINE#         62
  C:6F14H         LINE#         63
  C:6F16H         LINE#         64
  C:6F18H         LINE#         65
  C:6F1BH         LINE#         66
  C:6F1BH         LINE#         67
  C:6F1EH         LINE#         68
  C:6F1EH         LINE#         69
  C:6F20H         LINE#         70
  C:6F22H         LINE#         71
  C:6F23H         LINE#         72
  C:6F23H         LINE#         73
  C:6F2EH         LINE#         74
  -------         ENDPROC       ACK_LECT
  -------         PROC          P_ME
  C:70EEH         LINE#         76
  C:70EEH         LINE#         77
  C:70EEH         LINE#         78
  C:70F0H         LINE#         79
  C:70F1H         LINE#         80
  C:70F3H         LINE#         81
  -------         ENDPROC       P_ME
  -------         PROC          _E_D_M
  D:0007H         SYMBOL        a_serial_eeprom
  -------         DO            
  D:0006H         SYMBOL        nbits
  -------         ENDDO         
  C:6E8CH         LINE#         83
  C:6E8CH         LINE#         84
  C:6E8CH         LINE#         86
  C:6E98H         LINE#         87
  C:6E98H         LINE#         88
  C:6E9CH         LINE#         89
  C:6E9FH         LINE#         90
  C:6E9FH         LINE#         91
  C:6EA1H         LINE#         92
  C:6EA3H         LINE#         94
  C:6EA3H         LINE#         95
  C:6EA5H         LINE#         96
  C:6EA5H         LINE#         97
BL51 BANKED LINKER/LOCATER V6.22.2.0                                                  04/22/2020  15:25:24  PAGE 38


  C:6EA7H         LINE#         98
  C:6EAAH         LINE#         99
  C:6EADH         LINE#         101
  -------         ENDPROC       _E_D_M
  -------         PROC          L?0047
  -------         ENDPROC       L?0047
  -------         PROC          START
  C:7016H         LINE#         103
  C:7016H         LINE#         104
  C:7016H         LINE#         105
  C:7018H         LINE#         106
  C:701AH         LINE#         107
  C:701BH         LINE#         108
  C:701DH         LINE#         109
  C:701FH         LINE#         111
  -------         ENDPROC       START
  -------         PROC          STOP
  C:70ADH         LINE#         113
  C:70ADH         LINE#         114
  C:70ADH         LINE#         115
  C:70AFH         LINE#         116
  C:70B1H         LINE#         117
  C:70B3H         LINE#         118
  C:70B5H         LINE#         120
  -------         ENDPROC       STOP
  -------         PROC          L_D_M
  -------         DO            
  D:0003H         SYMBOL        nbits
  -------         ENDDO         
  C:6766H         LINE#         122
  C:6766H         LINE#         123
  C:6766H         LINE#         125
  C:6773H         LINE#         126
  C:6773H         LINE#         127
  C:6775H         LINE#         128
  C:6778H         LINE#         129
  C:6778H         LINE#         130
  C:677FH         LINE#         131
  C:6788H         LINE#         132
  C:6788H         LINE#         133
  C:678CH         LINE#         134
  C:678EH         LINE#         135
  C:678EH         LINE#         136
  C:678EH         LINE#         137
  C:6791H         LINE#         138
  C:6791H         LINE#         139
  C:6798H         LINE#         140
  C:67A2H         LINE#         141
  C:67A2H         LINE#         142
  C:67A6H         LINE#         143
  C:67A8H         LINE#         144
  C:67A8H         LINE#         145
  C:67A8H         LINE#         146
  C:67ABH         LINE#         147
  C:67ADH         LINE#         148
  C:67B2H         LINE#         149
  -------         ENDPROC       L_D_M
BL51 BANKED LINKER/LOCATER V6.22.2.0                                                  04/22/2020  15:25:24  PAGE 39


  C:691DH         SYMBOL        L?0044
  C:691EH         SYMBOL        L?0045
  -------         PROC          L?0043
  -------         ENDPROC       L?0043
  C:691DH         SYMBOL        L?0044
  C:691EH         SYMBOL        L?0045
  -------         PROC          _WR_EEPROM
  D:0002H         SYMBOL        control
  D:0004H         SYMBOL        Dir
  D:0003H         SYMBOL        data_eeprom
  -------         DO            
  D:0005H         SYMBOL        dir_h
  D:0001H         SYMBOL        dir_l
  -------         ENDDO         
  C:6922H         LINE#         155
  C:6924H         LINE#         156
  C:6924H         LINE#         158
  C:6928H         LINE#         159
  C:6928H         LINE#         160
  C:6928H         LINE#         163
  C:6928H         LINE#         164
  C:6928H         LINE#         166
  C:692BH         LINE#         167
  C:692DH         LINE#         168
  C:6930H         LINE#         169
  C:6932H         LINE#         170
  C:6935H         LINE#         171
  C:693AH         LINE#         172
  C:693DH         LINE#         173
  C:6942H         LINE#         174
  C:6945H         LINE#         175
  C:6948H         LINE#         176
  C:694FH         LINE#         178
  C:6951H         LINE#         179
  C:6953H         LINE#         180
  C:695AH         LINE#         181
  -------         ENDPROC       _WR_EEPROM
  C:6B71H         SYMBOL        L?0049
  -------         PROC          L?0048
  -------         ENDPROC       L?0048
  C:6B71H         SYMBOL        L?0049
  -------         PROC          _RD_EEPROM
  D:0003H         SYMBOL        control
  D:0004H         SYMBOL        Dir
  -------         DO            
  D:0005H         SYMBOL        dir_h
  D:0002H         SYMBOL        dir_l
  -------         ENDDO         
  C:6B75H         LINE#         219
  C:6B77H         LINE#         220
  C:6B77H         LINE#         223
  C:6B7BH         LINE#         224
  C:6B7BH         LINE#         225
  C:6B7BH         LINE#         227
  C:6B7BH         LINE#         228
  C:6B7BH         LINE#         230
  C:6B7EH         LINE#         231
BL51 BANKED LINKER/LOCATER V6.22.2.0                                                  04/22/2020  15:25:24  PAGE 40


  C:6B80H         LINE#         232
  C:6B83H         LINE#         233
  C:6B85H         LINE#         234
  C:6B88H         LINE#         235
  C:6B8DH         LINE#         236
  C:6B90H         LINE#         237
  C:6B93H         LINE#         238
  C:6B99H         LINE#         239
  C:6B9CH         LINE#         240
  C:6B9EH         LINE#         241
  C:6BA1H         LINE#         242
  C:6BA4H         LINE#         243
  C:6BA6H         LINE#         244
  C:6BA8H         LINE#         245
  C:6BADH         LINE#         246
  -------         ENDPROC       _RD_EEPROM
  -------         PROC          _GRABA_SERIE
  X:0031H         SYMBOL        buffer
  -------         DO            
  X:0034H         SYMBOL        j
  X:0035H         SYMBOL        cod_3
  X:0036H         SYMBOL        cod_2
  X:0037H         SYMBOL        cod_1
  X:0038H         SYMBOL        cod_0
  X:0039H         SYMBOL        error
  X:003AH         SYMBOL        Noticket
  X:003EH         SYMBOL        Bnoticket
  -------         ENDDO         
  C:351CH         LINE#         253
  C:3527H         LINE#         254
  C:3527H         LINE#         257
  C:352CH         LINE#         258
  C:3536H         LINE#         261
  C:3548H         LINE#         263
  C:355BH         LINE#         264
  C:355BH         LINE#         265
  C:3584H         LINE#         266
  C:3584H         LINE#         267
  C:358AH         LINE#         269
  C:3593H         LINE#         270
  C:35A1H         LINE#         271
  C:35AAH         LINE#         272
  C:35AAH         LINE#         274
  C:35B2H         LINE#         278
  C:35BBH         LINE#         279
  C:35BBH         LINE#         280
  C:35C4H         LINE#         281
  C:35D2H         LINE#         282
  C:35DBH         LINE#         283
  C:35EFH         LINE#         285
  C:35F8H         LINE#         286
  C:360FH         LINE#         287
  C:361BH         LINE#         288
  C:361EH         LINE#         290
  C:3635H         LINE#         291
  C:3641H         LINE#         292
  C:3644H         LINE#         294
BL51 BANKED LINKER/LOCATER V6.22.2.0                                                  04/22/2020  15:25:24  PAGE 41


  C:365BH         LINE#         295
  C:3667H         LINE#         296
  C:366AH         LINE#         298
  C:3676H         LINE#         299
  C:3679H         LINE#         300
  C:3682H         LINE#         302
  C:368BH         LINE#         303
  C:3699H         LINE#         304
  C:36A0H         LINE#         305
  C:36A4H         LINE#         306
  C:36A6H         LINE#         308
  C:36A6H         LINE#         309
  C:36ACH         LINE#         310
  C:36B6H         LINE#         311
  C:36BAH         LINE#         312
  C:36C1H         LINE#         314
  C:36C1H         LINE#         315
  -------         ENDPROC       _GRABA_SERIE
  -------         PROC          LEE_NO_TICKET
  -------         DO            
  D:0001H         SYMBOL        cod_3
  X:0218H         SYMBOL        cod_2
  X:0219H         SYMBOL        cod_1
  X:021AH         SYMBOL        cod_0
  X:021BH         SYMBOL        Noticket
  X:021FH         SYMBOL        Lee_No_Ticket
  -------         ENDDO         
  C:4496H         LINE#         316
  C:4496H         LINE#         317
  C:4496H         LINE#         319
  C:44A0H         LINE#         322
  C:44A7H         LINE#         323
  C:44B5H         LINE#         324
  C:44BFH         LINE#         325
  C:44C9H         LINE#         327
  C:44E9H         LINE#         328
  C:450EH         LINE#         329
  C:4533H         LINE#         330
  C:4551H         LINE#         331
  C:457CH         LINE#         332
  C:4585H         LINE#         333
  C:458EH         LINE#         334
  C:4594H         LINE#         335
  -------         ENDPROC       LEE_NO_TICKET
  -------         ENDMOD        EEPROM

  -------         MODULE        IO_SENSORES
  C:0000H         SYMBOL        _ICE_DUMMY_
  D:0090H         PUBLIC        P1
  D:00B0H         PUBLIC        P3
  C:7020H         PUBLIC        Dir_board
  C:70CBH         PUBLIC        sel_Pulsa
  B:0090H.1       PUBLIC        DataIn
  C:70C4H         PUBLIC        sel_Auto
  C:6526H         PUBLIC        ValidaSensoresPaso
  B:00B0H.3       PUBLIC        busy
  C:6F2FH         PUBLIC        ValidaSensor
BL51 BANKED LINKER/LOCATER V6.22.2.0                                                  04/22/2020  15:25:24  PAGE 42


  C:70D9H         PUBLIC        sel_Sensor1
  C:70D2H         PUBLIC        sel_Sensor2
  B:00B0H.5       PUBLIC        sel_A
  B:00B0H.6       PUBLIC        sel_B
  B:00B0H.7       PUBLIC        sel_C
  C:614FH         PUBLIC        msj_lcd_informativo
  C:70E0H         PUBLIC        sel_Dir1
  C:70E7H         PUBLIC        sel_Dir2
  C:70BDH         PUBLIC        sel_Funcion
  -------         PROC          SEL_FUNCION
  C:70BDH         LINE#         29
  C:70BDH         LINE#         30
  C:70BDH         LINE#         31
  C:70BFH         LINE#         32
  C:70C1H         LINE#         33
  C:70C3H         LINE#         34
  -------         ENDPROC       SEL_FUNCION
  -------         PROC          SEL_AUTO
  C:70C4H         LINE#         36
  C:70C4H         LINE#         37
  C:70C4H         LINE#         38
  C:70C6H         LINE#         39
  C:70C8H         LINE#         40
  C:70CAH         LINE#         41
  -------         ENDPROC       SEL_AUTO
  -------         PROC          SEL_PULSA
  C:70CBH         LINE#         43
  C:70CBH         LINE#         44
  C:70CBH         LINE#         45
  C:70CDH         LINE#         46
  C:70CFH         LINE#         47
  C:70D1H         LINE#         48
  -------         ENDPROC       SEL_PULSA
  -------         PROC          SEL_SENSOR2
  C:70D2H         LINE#         51
  C:70D2H         LINE#         52
  C:70D2H         LINE#         53
  C:70D4H         LINE#         54
  C:70D6H         LINE#         55
  C:70D8H         LINE#         56
  -------         ENDPROC       SEL_SENSOR2
  -------         PROC          SEL_SENSOR1
  C:70D9H         LINE#         58
  C:70D9H         LINE#         59
  C:70D9H         LINE#         60
  C:70DBH         LINE#         61
  C:70DDH         LINE#         62
  C:70DFH         LINE#         63
  -------         ENDPROC       SEL_SENSOR1
  -------         PROC          SEL_DIR1
  C:70E0H         LINE#         65
  C:70E0H         LINE#         66
  C:70E0H         LINE#         67
  C:70E2H         LINE#         68
  C:70E4H         LINE#         69
  C:70E6H         LINE#         70
  -------         ENDPROC       SEL_DIR1
BL51 BANKED LINKER/LOCATER V6.22.2.0                                                  04/22/2020  15:25:24  PAGE 43


  -------         PROC          SEL_DIR2
  C:70E7H         LINE#         72
  C:70E7H         LINE#         73
  C:70E7H         LINE#         74
  C:70E9H         LINE#         75
  C:70EBH         LINE#         76
  C:70EDH         LINE#         77
  -------         ENDPROC       SEL_DIR2
  -------         PROC          VALIDASENSOR
  -------         DO            
  D:0007H         SYMBOL        Valido
  D:0004H         SYMBOL        Tmin
  -------         ENDDO         
  C:6F2FH         LINE#         79
  C:6F2FH         LINE#         80
  C:6F2FH         LINE#         82
  C:6F31H         LINE#         83
  C:6F35H         LINE#         84
  C:6F40H         LINE#         85
  C:6F40H         LINE#         86
  C:6F45H         LINE#         87
  C:6F49H         LINE#         88
  C:6F49H         LINE#         89
  C:6F4BH         LINE#         90
  C:6F4BH         LINE#         91
  C:6F4DH         LINE#         92
  C:6F4DH         LINE#         93
  -------         ENDPROC       VALIDASENSOR
  -------         PROC          DIR_BOARD
  -------         DO            
  D:0007H         SYMBOL        Board
  -------         ENDDO         
  C:7020H         LINE#         97
  C:7020H         LINE#         98
  C:7020H         LINE#         99
  C:7022H         LINE#         101
  C:7025H         LINE#         102
  C:7028H         LINE#         103
  C:7028H         LINE#         104
  C:7029H         LINE#         105
  C:7029H         LINE#         106
  C:702CH         LINE#         107
  C:702FH         LINE#         108
  C:702FH         LINE#         109
  C:7031H         LINE#         110
  C:7031H         LINE#         111
  C:7031H         LINE#         112
  -------         ENDPROC       DIR_BOARD
  -------         PROC          VALIDASENSORESPASO
  C:6526H         LINE#         117
  C:6526H         LINE#         118
  C:6526H         LINE#         120
  C:6529H         LINE#         121
  C:652CH         LINE#         122
  C:652CH         LINE#         123
  C:653AH         LINE#         124
  C:653AH         LINE#         125
BL51 BANKED LINKER/LOCATER V6.22.2.0                                                  04/22/2020  15:25:24  PAGE 44


  C:653DH         LINE#         126
  C:6540H         LINE#         127
  C:6543H         LINE#         128
  C:6548H         LINE#         129
  C:6548H         LINE#         130
  C:654FH         LINE#         131
  C:6553H         LINE#         132
  C:6555H         LINE#         134
  C:6555H         LINE#         136
  C:6555H         LINE#         137
  C:655CH         LINE#         138
  C:6561H         LINE#         139
  C:6563H         LINE#         140
  C:6563H         LINE#         143
  C:6563H         LINE#         145
  C:6566H         LINE#         146
  C:656BH         LINE#         147
  C:656BH         LINE#         149
  C:6572H         LINE#         150
  C:6578H         LINE#         151
  C:657BH         LINE#         152
  C:657BH         LINE#         154
  C:657BH         LINE#         155
  C:657FH         LINE#         156
  C:6581H         LINE#         157
  C:6581H         LINE#         160
  C:6581H         LINE#         161
  C:6581H         LINE#         163
  C:6581H         LINE#         164
  C:6587H         LINE#         165
  C:6589H         LINE#         166
  C:6589H         LINE#         167
  C:6589H         LINE#         168
  C:6589H         LINE#         169
  C:6592H         LINE#         170
  C:6594H         LINE#         171
  C:6594H         LINE#         173
  -------         ENDPROC       VALIDASENSORESPASO
  -------         PROC          MSJ_LCD_INFORMATIVO
  -------         DO            
  X:0022H         SYMBOL        info
  X:028DH         SYMBOL        toggle
  -------         ENDDO         
  C:614FH         LINE#         182
  C:614FH         LINE#         183
  C:614FH         LINE#         184
  C:6154H         LINE#         186
  C:6157H         LINE#         187
  C:615AH         LINE#         188
  C:615AH         LINE#         189
  C:6166H         LINE#         190
  C:6166H         LINE#         191
  C:6169H         LINE#         192
  C:6169H         LINE#         193
  C:616BH         LINE#         194
  C:616EH         LINE#         195
  C:6174H         LINE#         196
BL51 BANKED LINKER/LOCATER V6.22.2.0                                                  04/22/2020  15:25:24  PAGE 45


  C:6174H         LINE#         197
  C:6176H         LINE#         198
  C:6184H         LINE#         199
  C:6184H         LINE#         200
  C:6187H         LINE#         201
  C:6187H         LINE#         202
  C:6189H         LINE#         203
  C:618CH         LINE#         204
  C:6192H         LINE#         205
  C:6192H         LINE#         206
  C:6194H         LINE#         207
  C:61A2H         LINE#         208
  C:61A2H         LINE#         209
  C:61A5H         LINE#         210
  C:61A5H         LINE#         211
  C:61A7H         LINE#         212
  C:61B5H         LINE#         213
  C:61B5H         LINE#         214
  C:61B7H         LINE#         215
  C:61BEH         LINE#         217
  C:61C3H         LINE#         218
  C:61C3H         LINE#         220
  C:61C3H         LINE#         222
  C:61C3H         LINE#         224
  C:61C6H         LINE#         225
  C:61C9H         LINE#         226
  C:61C9H         LINE#         227
  C:61CEH         LINE#         228
  C:61CEH         LINE#         230
  -------         ENDPROC       MSJ_LCD_INFORMATIVO
  -------         ENDMOD        IO_SENSORES

  -------         MODULE        PANTALLAS
  C:0000H         SYMBOL        _ICE_DUMMY_
  D:0080H         PUBLIC        P0
  C:66BCH         PUBLIC        Reloj_Pantalla_Lcd
  C:2636H         PUBLIC        _PantallaLCD
  C:6BAEH         PUBLIC        _LCD_txt
  C:64B4H         PUBLIC        _Raspberry_data
  C:6E48H         PUBLIC        _tx_chrlcd
  C:2088H         SYMBOL        _?ix1000
  C:2095H         SYMBOL        _?ix1001
  C:209BH         SYMBOL        _?ix1002
  C:6961H         PUBLIC        _LCD_txt_num_char
  C:604BH         PUBLIC        _PantallaLCD_LINEA_2
  B:0098H.4       PUBLIC        REN
  B:0080H.7       PUBLIC        sel_com
  C:6E3FH         SYMBOL        L?0093
  C:6E42H         SYMBOL        L?0094
  -------         PROC          L?0092
  -------         ENDPROC       L?0092
  C:6E3FH         SYMBOL        L?0093
  C:6E42H         SYMBOL        L?0094
  -------         PROC          _TX_CHRLCD
  D:0007H         SYMBOL        data_com
  X:0044H         SYMBOL        enable_char_add
  -------         DO            
BL51 BANKED LINKER/LOCATER V6.22.2.0                                                  04/22/2020  15:25:24  PAGE 46


  X:0045H         SYMBOL        d
  -------         ENDDO         
  C:6E48H         LINE#         49
  C:6E4DH         LINE#         50
  C:6E4DH         LINE#         52
  C:6E55H         LINE#         53
  C:6E65H         LINE#         55
  -------         ENDPROC       _TX_CHRLCD
  -------         PROC          _LCD_TXT
  X:003CH         SYMBOL        msg
  X:003FH         SYMBOL        enable_char_add
  -------         DO            
  X:0040H         SYMBOL        i
  -------         ENDDO         
  C:6BAEH         LINE#         62
  C:6BBCH         LINE#         63
  C:6BBCH         LINE#         66
  C:6BD9H         LINE#         67
  C:6BD9H         LINE#         68
  C:6BE1H         LINE#         69
  C:6BE9H         LINE#         70
  -------         ENDPROC       _LCD_TXT
  -------         PROC          _LCD_TXT_NUM_CHAR
  X:003EH         SYMBOL        msg
  X:0041H         SYMBOL        length_char
  X:0042H         SYMBOL        enable_char_add
  -------         DO            
  X:0043H         SYMBOL        i
  -------         ENDDO         
  C:6961H         LINE#         77
  C:696FH         LINE#         78
  C:696FH         LINE#         81
  C:6982H         LINE#         82
  C:6982H         LINE#         83
  C:699EH         LINE#         84
  C:69A6H         LINE#         85
  -------         ENDPROC       _LCD_TXT_NUM_CHAR
  -------         PROC          _RASPBERRY_DATA
  X:003EH         SYMBOL        msg
  -------         DO            
  X:028EH         SYMBOL        i
  X:0041H         SYMBOL        lenth_cadena
  X:0042H         SYMBOL        d
  -------         ENDDO         
  C:64B4H         LINE#         90
  C:64BFH         LINE#         91
  C:64BFH         LINE#         96
  C:64C7H         LINE#         97
  C:64CAH         LINE#         98
  C:64CDH         LINE#         99
  C:64DBH         LINE#         100
  C:64DEH         LINE#         101
  C:64FCH         LINE#         102
  C:64FCH         LINE#         103
  C:6513H         LINE#         104
  C:651DH         LINE#         108
  C:6525H         LINE#         112
BL51 BANKED LINKER/LOCATER V6.22.2.0                                                  04/22/2020  15:25:24  PAGE 47


  -------         ENDPROC       _RASPBERRY_DATA
  -------         PROC          RELOJ_PANTALLA_LCD
  -------         DO            
  X:0031H         SYMBOL        Ini_Clock_LCD
  -------         ENDDO         
  C:66BCH         LINE#         121
  C:66BCH         LINE#         122
  C:66BCH         LINE#         124
  C:66CFH         LINE#         125
  C:66D5H         LINE#         126
  C:66D5H         LINE#         127
  C:66D7H         LINE#         128
  C:66E0H         LINE#         132
  C:66E2H         LINE#         133
  C:66F2H         LINE#         135
  C:66F4H         LINE#         136
  C:66F6H         LINE#         138
  C:66F7H         LINE#         140
  C:66F7H         LINE#         141
  C:66F9H         LINE#         142
  C:66FEH         LINE#         143
  C:6707H         LINE#         144
  C:6710H         LINE#         145
  C:6712H         LINE#         146
  C:6712H         LINE#         147
  -------         ENDPROC       RELOJ_PANTALLA_LCD
  -------         PROC          _PANTALLALCD
  X:0031H         SYMBOL        cod_msg
  -------         DO            
  X:0032H         SYMBOL        Ini_LCD_Line_one
  X:0038H         SYMBOL        num_chr
  -------         ENDDO         
  C:2636H         LINE#         151
  C:263BH         LINE#         152
  C:263BH         LINE#         154
  C:264EH         LINE#         161
  C:2650H         LINE#         163
  C:2659H         LINE#         164
  C:2659H         LINE#         165
  C:2663H         LINE#         167
  C:268CH         LINE#         168
  C:268CH         LINE#         170
  C:268CH         LINE#         172
  C:269AH         LINE#         173
  C:26A0H         LINE#         174
  C:26A3H         LINE#         175
  C:26A9H         LINE#         177
  C:26ACH         LINE#         179
  C:26ACH         LINE#         181
  C:26BAH         LINE#         182
  C:26C0H         LINE#         183
  C:26C3H         LINE#         184
  C:26C9H         LINE#         186
  C:26CCH         LINE#         188
  C:26CCH         LINE#         190
  C:26DAH         LINE#         191
  C:26E0H         LINE#         192
BL51 BANKED LINKER/LOCATER V6.22.2.0                                                  04/22/2020  15:25:24  PAGE 48


  C:26E3H         LINE#         193
  C:26E9H         LINE#         195
  C:26ECH         LINE#         197
  C:26ECH         LINE#         199
  C:26FAH         LINE#         200
  C:2700H         LINE#         201
  C:2703H         LINE#         202
  C:2709H         LINE#         204
  C:270CH         LINE#         206
  C:270CH         LINE#         208
  C:271AH         LINE#         209
  C:2720H         LINE#         210
  C:2723H         LINE#         211
  C:2729H         LINE#         213
  C:272CH         LINE#         215
  C:272CH         LINE#         217
  C:273AH         LINE#         218
  C:2740H         LINE#         219
  C:2743H         LINE#         220
  C:2749H         LINE#         222
  C:274CH         LINE#         224
  C:274CH         LINE#         226
  C:275AH         LINE#         227
  C:2760H         LINE#         228
  C:2763H         LINE#         229
  C:2769H         LINE#         231
  C:276BH         LINE#         233
  C:276BH         LINE#         235
  C:2779H         LINE#         236
  C:277FH         LINE#         237
  C:2782H         LINE#         238
  C:2788H         LINE#         240
  C:278AH         LINE#         242
  C:278AH         LINE#         244
  C:2798H         LINE#         245
  C:279EH         LINE#         246
  C:27A1H         LINE#         247
  C:27A7H         LINE#         249
  C:27A9H         LINE#         251
  C:27A9H         LINE#         253
  C:27B7H         LINE#         254
  C:27BDH         LINE#         255
  C:27C0H         LINE#         256
  C:27CBH         LINE#         258
  C:27CBH         LINE#         260
  C:27CBH         LINE#         261
  C:27CDH         LINE#         263
  C:27CEH         LINE#         265
  C:27CEH         LINE#         266
  C:27D0H         LINE#         267
  C:2823H         LINE#         268
  C:2823H         LINE#         270
  C:2823H         LINE#         273
  C:2829H         LINE#         274
  C:282CH         LINE#         275
  C:282CH         LINE#         277
  C:2832H         LINE#         278
BL51 BANKED LINKER/LOCATER V6.22.2.0                                                  04/22/2020  15:25:24  PAGE 49


  C:2835H         LINE#         279
  C:2835H         LINE#         281
  C:283BH         LINE#         282
  C:283EH         LINE#         283
  C:283EH         LINE#         285
  C:2844H         LINE#         287
  C:2847H         LINE#         288
  C:2847H         LINE#         290
  C:284DH         LINE#         291
  C:2850H         LINE#         292
  C:2850H         LINE#         294
  C:2856H         LINE#         295
  C:2859H         LINE#         296
  C:2859H         LINE#         300
  C:2859H         LINE#         302
  C:285FH         LINE#         303
  C:2862H         LINE#         305
  C:2862H         LINE#         307
  C:2868H         LINE#         308
  C:286BH         LINE#         309
  C:286BH         LINE#         311
  C:2871H         LINE#         312
  C:2873H         LINE#         313
  C:2873H         LINE#         315
  C:2879H         LINE#         316
  C:287BH         LINE#         317
  C:287BH         LINE#         319
  C:2881H         LINE#         320
  C:2883H         LINE#         321
  C:2883H         LINE#         323
  C:2889H         LINE#         324
  C:288BH         LINE#         325
  C:288BH         LINE#         327
  C:2894H         LINE#         328
  C:289AH         LINE#         330
  C:289CH         LINE#         331
  C:289CH         LINE#         333
  C:28A2H         LINE#         334
  C:28A4H         LINE#         335
  C:28A4H         LINE#         337
  C:28AAH         LINE#         338
  C:28ACH         LINE#         339
  C:28ACH         LINE#         342
  C:28B2H         LINE#         343
  C:28B4H         LINE#         344
  C:28B4H         LINE#         346
  C:28BAH         LINE#         347
  C:28BCH         LINE#         349
  C:28BCH         LINE#         350
  C:28C2H         LINE#         351
  C:28C4H         LINE#         352
  C:28C4H         LINE#         353
  C:28CAH         LINE#         354
  C:28CCH         LINE#         355
  C:28CCH         LINE#         356
  C:28D2H         LINE#         357
  C:28D4H         LINE#         358
BL51 BANKED LINKER/LOCATER V6.22.2.0                                                  04/22/2020  15:25:24  PAGE 50


  C:28D4H         LINE#         359
  C:28DAH         LINE#         360
  C:28DCH         LINE#         361
  C:28DCH         LINE#         362
  C:28E2H         LINE#         363
  C:28E4H         LINE#         364
  C:28E4H         LINE#         365
  C:28EDH         LINE#         366
  C:28EDH         LINE#         367
  C:28EDH         LINE#         368
  C:28EFH         LINE#         369
  C:28EFH         LINE#         373
  -------         ENDPROC       _PANTALLALCD
  -------         PROC          _PANTALLALCD_LINEA_2
  X:0031H         SYMBOL        cod_msg
  X:0032H         SYMBOL        buffer
  -------         DO            
  X:0035H         SYMBOL        Ini_LCD_Line_one
  X:003BH         SYMBOL        num_chr
  -------         ENDDO         
  C:604BH         LINE#         374
  C:6059H         LINE#         375
  C:6059H         LINE#         377
  C:606CH         LINE#         382
  C:606EH         LINE#         388
  C:6076H         LINE#         389
  C:6076H         LINE#         391
  C:6076H         LINE#         392
  C:6081H         LINE#         393
  C:608FH         LINE#         394
  C:60A4H         LINE#         395
  C:60AAH         LINE#         396
  C:60B0H         LINE#         397
  C:60BBH         LINE#         398
  C:60CBH         LINE#         403
  C:60CBH         LINE#         406
  C:60CBH         LINE#         407
  C:60CDH         LINE#         408
  -------         ENDPROC       _PANTALLALCD_LINEA_2
  -------         ENDMOD        PANTALLAS

  -------         MODULE        PROG
  C:0000H         SYMBOL        _ICE_DUMMY_
  C:3DC0H         PUBLIC        Prog_Sin_Cobro
  C:4694H         PUBLIC        Prog_debug
  C:5C09H         PUBLIC        _GetOption
  X:0139H         PUBLIC        validacion
  X:0142H         PUBLIC        cursor
  C:6662H         PUBLIC        Show
  C:488CH         PUBLIC        Prog_Comparacion_Activa
  C:5297H         PUBLIC        prog_id_cliente
  C:69F8H         PUBLIC        _ValidarClave
  C:336CH         PUBLIC        menu
  C:4790H         PUBLIC        Prog_Use_Lpr
  C:6600H         PUBLIC        _ListaComandos
  C:12DAH         SYMBOL        _?ix1000
  C:12E5H         SYMBOL        _?ix1001
BL51 BANKED LINKER/LOCATER V6.22.2.0                                                  04/22/2020  15:25:24  PAGE 51


  C:12F5H         SYMBOL        _?ix1002
  C:1305H         SYMBOL        _?ix1003
  C:1309H         SYMBOL        _?ix1004
  C:130DH         SYMBOL        _?ix1005
  C:2FF8H         PUBLIC        _hash_id
  C:511EH         PUBLIC        Prog_tiempo_gracia
  C:61D7H         PUBLIC        _IngresaDato
  X:0156H         PUBLIC        comandos
  C:6FA6H         PUBLIC        DisplayCursor
  C:5061H         PUBLIC        prog_cod_park
  C:4988H         PUBLIC        tipo_pantalla
  C:6ABAH         PUBLIC        _GetCMD
  -------         PROC          _HASH_ID
  X:007EH         SYMBOL        clave
  -------         DO            
  X:0081H         SYMBOL        len_clave
  X:0082H         SYMBOL        i
  X:0135H         SYMBOL        temp
  X:0137H         SYMBOL        temp1
  X:0083H         SYMBOL        aleatorio
  X:008EH         SYMBOL        suma
  X:009EH         SYMBOL        xxor
  X:00AEH         SYMBOL        usuario1
  -------         ENDDO         
  C:2FF8H         LINE#         61
  C:3003H         LINE#         62
  C:3003H         LINE#         65
  C:3016H         LINE#         66
  C:3029H         LINE#         67
  C:303CH         LINE#         70
  C:304FH         LINE#         71
  C:3061H         LINE#         72
  C:3061H         LINE#         73
  C:308DH         LINE#         74
  C:3098H         LINE#         75
  C:30A5H         LINE#         76
  C:30C3H         LINE#         77
  C:30CEH         LINE#         78
  C:30DBH         LINE#         79
  C:30FFH         LINE#         80
  C:3107H         LINE#         81
  C:3107H         LINE#         82
  C:310CH         LINE#         83
  C:310CH         LINE#         84
  C:3125H         LINE#         85
  C:3125H         LINE#         86
  C:3131H         LINE#         88
  C:3131H         LINE#         89
  C:3140H         LINE#         90
  C:3140H         LINE#         91
  C:314CH         LINE#         92
  C:314CH         LINE#         93
  C:3165H         LINE#         94
  C:3165H         LINE#         95
  C:3170H         LINE#         96
  C:3170H         LINE#         97
  C:3189H         LINE#         98
BL51 BANKED LINKER/LOCATER V6.22.2.0                                                  04/22/2020  15:25:24  PAGE 52


  C:3189H         LINE#         99
  C:3194H         LINE#         100
  C:3194H         LINE#         101
  C:31A9H         LINE#         103
  C:31B2H         LINE#         104
  C:31B8H         LINE#         105
  -------         ENDPROC       _HASH_ID
  -------         PROC          _LISTACOMANDOS
  X:007EH         SYMBOL        cmd
  -------         DO            
  X:0081H         SYMBOL        buf
  X:0083H         SYMBOL        i
  -------         ENDDO         
  C:6600H         LINE#         112
  C:660BH         LINE#         113
  C:660BH         LINE#         117
  C:661EH         LINE#         118
  C:661EH         LINE#         119
  C:6636H         LINE#         120
  C:6651H         LINE#         121
  C:6657H         LINE#         122
  C:665FH         LINE#         124
  C:6661H         LINE#         125
  -------         ENDPROC       _LISTACOMANDOS
  -------         PROC          L?0124
  -------         ENDPROC       L?0124
  -------         PROC          _VALIDARCLAVE
  X:007EH         SYMBOL        buffer
  -------         DO            
  X:0081H         SYMBOL        buf
  -------         ENDDO         
  C:69F8H         LINE#         131
  C:6A03H         LINE#         132
  C:6A03H         LINE#         135
  C:6A12H         LINE#         136
  C:6A2DH         LINE#         137
  C:6A2FH         LINE#         140
  C:6A31H         LINE#         141
  -------         ENDPROC       _VALIDARCLAVE
  C:6AB4H         SYMBOL        L?0123
  -------         PROC          L?0122
  -------         ENDPROC       L?0122
  C:6AB4H         SYMBOL        L?0123
  -------         PROC          _GETCMD
  X:007EH         SYMBOL        in
  -------         DO            
  X:0081H         SYMBOL        tokens
  -------         ENDDO         
  C:6ABAH         LINE#         148
  C:6AC5H         LINE#         149
  C:6AC5H         LINE#         150
  C:6AD8H         LINE#         151
  -------         ENDPROC       _GETCMD
  -------         PROC          L?0121
  -------         ENDPROC       L?0121
  -------         PROC          _GETOPTION
  X:007EH         SYMBOL        in
BL51 BANKED LINKER/LOCATER V6.22.2.0                                                  04/22/2020  15:25:24  PAGE 53


  -------         DO            
  X:0081H         SYMBOL        tokensSpace
  X:0085H         SYMBOL        tokensQuote
  -------         ENDDO         
  C:5C09H         LINE#         157
  C:5C14H         LINE#         158
  C:5C14H         LINE#         159
  C:5C27H         LINE#         160
  C:5C3AH         LINE#         163
  C:5C4CH         LINE#         164
  C:5C58H         LINE#         167
  C:5C5FH         LINE#         168
  C:5C6CH         LINE#         170
  C:5C85H         LINE#         171
  -------         ENDPROC       _GETOPTION
  -------         PROC          DISPLAYCURSOR
  C:6FA6H         LINE#         176
  C:6FA6H         LINE#         177
  C:6FA6H         LINE#         178
  -------         ENDPROC       DISPLAYCURSOR
  C:61D3H         SYMBOL        L?0120
  -------         PROC          L?0119
  -------         ENDPROC       L?0119
  C:61D3H         SYMBOL        L?0120
  -------         PROC          _INGRESADATO
  X:008AH         SYMBOL        buffer
  X:008DH         SYMBOL        modo
  -------         DO            
  D:0006H         SYMBOL        i
  -------         ENDDO         
  C:61D7H         LINE#         185
  C:61E5H         LINE#         186
  C:61E5H         LINE#         191
  C:61E5H         LINE#         192
  C:61F7H         LINE#         193
  C:61FDH         LINE#         194
  C:61FDH         LINE#         195
  C:6218H         LINE#         196
  C:621AH         LINE#         198
  C:621AH         LINE#         199
  C:621FH         LINE#         200
  C:621FH         LINE#         201
  C:6230H         LINE#         202
  C:623AH         LINE#         203
  C:6249H         LINE#         205
  C:624EH         LINE#         209
  -------         ENDPROC       _INGRESADATO
  -------         PROC          PROG_ID_CLIENTE
  -------         DO            
  X:007EH         SYMBOL        buffer
  X:0088H         SYMBOL        dataee
  -------         ENDDO         
  C:5297H         LINE#         226
  C:5297H         LINE#         227
  C:5297H         LINE#         231
  C:52A9H         LINE#         232
  C:52C6H         LINE#         234
BL51 BANKED LINKER/LOCATER V6.22.2.0                                                  04/22/2020  15:25:24  PAGE 54


  C:52DDH         LINE#         236
  C:52E6H         LINE#         237
  C:52EDH         LINE#         238
  C:52FEH         LINE#         239
  C:5307H         LINE#         241
  C:5319H         LINE#         242
  C:5336H         LINE#         243
  -------         ENDPROC       PROG_ID_CLIENTE
  -------         PROC          PROG_COD_PARK
  -------         DO            
  X:007EH         SYMBOL        buffer
  X:0088H         SYMBOL        dataee
  -------         ENDDO         
  C:5061H         LINE#         248
  C:5061H         LINE#         249
  C:5061H         LINE#         253
  C:5074H         LINE#         254
  C:5091H         LINE#         256
  C:50A8H         LINE#         258
  C:50B1H         LINE#         259
  C:50BCH         LINE#         260
  C:50CDH         LINE#         261
  C:50D7H         LINE#         263
  C:50EAH         LINE#         264
  C:5107H         LINE#         265
  -------         ENDPROC       PROG_COD_PARK
  -------         PROC          PROG_TIEMPO_GRACIA
  -------         DO            
  X:007EH         SYMBOL        buffer
  X:0088H         SYMBOL        dataee
  -------         ENDDO         
  C:511EH         LINE#         270
  C:511EH         LINE#         271
  C:511EH         LINE#         275
  C:5131H         LINE#         276
  C:514EH         LINE#         278
  C:5165H         LINE#         280
  C:516EH         LINE#         281
  C:5179H         LINE#         282
  C:518AH         LINE#         283
  C:5194H         LINE#         285
  C:51A7H         LINE#         286
  C:51C4H         LINE#         287
  -------         ENDPROC       PROG_TIEMPO_GRACIA
  -------         PROC          PROG_SIN_COBRO
  -------         DO            
  X:007EH         SYMBOL        buffer
  X:0088H         SYMBOL        dataee
  -------         ENDDO         
  C:3DC0H         LINE#         293
  C:3DC0H         LINE#         294
  C:3DC0H         LINE#         300
  C:3DD3H         LINE#         301
  C:3DF0H         LINE#         302
  C:3DFAH         LINE#         303
  C:3DFAH         LINE#         304
  C:3E0DH         LINE#         305
BL51 BANKED LINKER/LOCATER V6.22.2.0                                                  04/22/2020  15:25:24  PAGE 55


  C:3E0FH         LINE#         306
  C:3E1BH         LINE#         307
  C:3E1BH         LINE#         308
  C:3E2EH         LINE#         309
  C:3E30H         LINE#         311
  C:3E30H         LINE#         312
  C:3E47H         LINE#         313
  C:3E47H         LINE#         315
  C:3E50H         LINE#         316
  C:3E5BH         LINE#         317
  C:3E6CH         LINE#         318
  C:3E76H         LINE#         320
  C:3E89H         LINE#         321
  C:3EA6H         LINE#         322
  C:3EB0H         LINE#         323
  C:3EB0H         LINE#         324
  C:3EC3H         LINE#         325
  C:3EC5H         LINE#         326
  C:3ED1H         LINE#         327
  C:3ED1H         LINE#         328
  C:3EE4H         LINE#         329
  C:3EE6H         LINE#         331
  C:3EE6H         LINE#         332
  C:3EFDH         LINE#         333
  C:3EFDH         LINE#         335
  -------         ENDPROC       PROG_SIN_COBRO
  -------         PROC          PROG_DEBUG
  -------         DO            
  X:007EH         SYMBOL        buffer
  X:0088H         SYMBOL        dataee
  -------         ENDDO         
  C:4694H         LINE#         341
  C:4694H         LINE#         342
  C:4694H         LINE#         347
  C:46A7H         LINE#         348
  C:46C4H         LINE#         349
  C:46CEH         LINE#         350
  C:46CEH         LINE#         351
  C:46E1H         LINE#         352
  C:46E3H         LINE#         354
  C:46E3H         LINE#         355
  C:46FAH         LINE#         356
  C:46FAH         LINE#         358
  C:4703H         LINE#         359
  C:470EH         LINE#         360
  C:471FH         LINE#         361
  C:4729H         LINE#         363
  C:473CH         LINE#         364
  C:4759H         LINE#         365
  C:4763H         LINE#         366
  C:4763H         LINE#         367
  C:4776H         LINE#         368
  C:4778H         LINE#         370
  C:4778H         LINE#         371
  C:478FH         LINE#         372
  C:478FH         LINE#         373
  -------         ENDPROC       PROG_DEBUG
BL51 BANKED LINKER/LOCATER V6.22.2.0                                                  04/22/2020  15:25:24  PAGE 56


  -------         PROC          PROG_USE_LPR
  -------         DO            
  X:007EH         SYMBOL        buffer
  X:0088H         SYMBOL        dataee
  -------         ENDDO         
  C:4790H         LINE#         378
  C:4790H         LINE#         379
  C:4790H         LINE#         384
  C:47A3H         LINE#         385
  C:47C0H         LINE#         386
  C:47CAH         LINE#         387
  C:47CAH         LINE#         388
  C:47DDH         LINE#         389
  C:47DFH         LINE#         391
  C:47DFH         LINE#         392
  C:47F6H         LINE#         393
  C:47F6H         LINE#         395
  C:47FFH         LINE#         396
  C:480AH         LINE#         397
  C:481BH         LINE#         398
  C:4825H         LINE#         400
  C:4838H         LINE#         401
  C:4855H         LINE#         402
  C:485FH         LINE#         403
  C:485FH         LINE#         404
  C:4872H         LINE#         405
  C:4874H         LINE#         407
  C:4874H         LINE#         408
  C:488BH         LINE#         409
  C:488BH         LINE#         410
  -------         ENDPROC       PROG_USE_LPR
  -------         PROC          PROG_COMPARACION_ACTIVA
  -------         DO            
  X:007EH         SYMBOL        buffer
  X:0088H         SYMBOL        dataee
  -------         ENDDO         
  C:488CH         LINE#         414
  C:488CH         LINE#         415
  C:488CH         LINE#         420
  C:489FH         LINE#         421
  C:48BCH         LINE#         422
  C:48C6H         LINE#         423
  C:48C6H         LINE#         424
  C:48D9H         LINE#         425
  C:48DBH         LINE#         427
  C:48DBH         LINE#         428
  C:48F2H         LINE#         429
  C:48F2H         LINE#         431
  C:48FBH         LINE#         432
  C:4906H         LINE#         433
  C:4917H         LINE#         434
  C:4921H         LINE#         436
  C:4934H         LINE#         437
  C:4951H         LINE#         438
  C:495BH         LINE#         439
  C:495BH         LINE#         440
  C:496EH         LINE#         441
BL51 BANKED LINKER/LOCATER V6.22.2.0                                                  04/22/2020  15:25:24  PAGE 57


  C:4970H         LINE#         443
  C:4970H         LINE#         444
  C:4987H         LINE#         445
  C:4987H         LINE#         446
  -------         ENDPROC       PROG_COMPARACION_ACTIVA
  -------         PROC          TIPO_PANTALLA
  -------         DO            
  X:007EH         SYMBOL        buffer
  X:0088H         SYMBOL        dataee
  -------         ENDDO         
  C:4988H         LINE#         452
  C:4988H         LINE#         453
  C:4988H         LINE#         458
  C:499BH         LINE#         459
  C:49B8H         LINE#         460
  C:49C2H         LINE#         461
  C:49C2H         LINE#         462
  C:49D5H         LINE#         463
  C:49D7H         LINE#         465
  C:49D7H         LINE#         466
  C:49EEH         LINE#         467
  C:49EEH         LINE#         469
  C:49F7H         LINE#         470
  C:4A02H         LINE#         471
  C:4A13H         LINE#         472
  C:4A1DH         LINE#         474
  C:4A30H         LINE#         475
  C:4A4DH         LINE#         476
  C:4A57H         LINE#         477
  C:4A57H         LINE#         478
  C:4A6AH         LINE#         479
  C:4A6CH         LINE#         481
  C:4A6CH         LINE#         482
  C:4A83H         LINE#         483
  C:4A83H         LINE#         485
  -------         ENDPROC       TIPO_PANTALLA
  -------         PROC          SHOW
  C:6662H         LINE#         489
  C:6662H         LINE#         490
  C:6662H         LINE#         491
  C:666BH         LINE#         492
  C:6674H         LINE#         493
  C:667DH         LINE#         494
  C:6686H         LINE#         495
  C:668FH         LINE#         496
  C:6698H         LINE#         497
  C:66A1H         LINE#         498
  C:66AAH         LINE#         499
  C:66B3H         LINE#         500
  -------         ENDPROC       SHOW
  -------         PROC          MENU
  -------         DO            
  X:0022H         SYMBOL        cmd
  X:0025H         SYMBOL        option1
  X:0028H         SYMBOL        option2
  X:002BH         SYMBOL        usuario
  X:002EH         SYMBOL        opt_buffer
BL51 BANKED LINKER/LOCATER V6.22.2.0                                                  04/22/2020  15:25:24  PAGE 58


  X:0056H         SYMBOL        buffer
  -------         ENDDO         
  C:336CH         LINE#         508
  C:336CH         LINE#         509
  C:336CH         LINE#         518
  C:3375H         LINE#         523
  C:3375H         LINE#         524
  C:337EH         LINE#         527
  C:3381H         LINE#         528
  C:338FH         LINE#         529
  C:33A3H         LINE#         530
  C:33A9H         LINE#         533
  C:33A9H         LINE#         534
  C:33B2H         LINE#         536
  C:33BDH         LINE#         537
  C:33CBH         LINE#         538
  C:33DAH         LINE#         541
  C:33E0H         LINE#         544
  C:33E3H         LINE#         545
  C:33E3H         LINE#         546
  C:33E3H         LINE#         547
  C:33E6H         LINE#         550
  C:33E9H         LINE#         551
  C:33F7H         LINE#         552
  C:340BH         LINE#         553
  C:341FH         LINE#         558
  C:3435H         LINE#         559
  C:3435H         LINE#         561
  C:3444H         LINE#         562
  C:3446H         LINE#         563
  C:3456H         LINE#         564
  C:3456H         LINE#         566
  C:3465H         LINE#         567
  C:3483H         LINE#         568
  C:3483H         LINE#         574
  C:3496H         LINE#         575
  C:3496H         LINE#         576
  C:34C4H         LINE#         577
  C:34C4H         LINE#         578
  C:34C4H         LINE#         579
  C:34C7H         LINE#         581
  C:34CAH         LINE#         583
  C:34CAH         LINE#         584
  C:34CDH         LINE#         585
  C:34D0H         LINE#         587
  C:34D0H         LINE#         589
  C:34D3H         LINE#         591
  C:34D6H         LINE#         593
  C:34D6H         LINE#         594
  C:34D9H         LINE#         596
  C:34DCH         LINE#         598
  C:34DCH         LINE#         599
  C:34DFH         LINE#         600
  C:34E2H         LINE#         601
  C:34E2H         LINE#         602
  C:34E5H         LINE#         603
  C:34E8H         LINE#         604
BL51 BANKED LINKER/LOCATER V6.22.2.0                                                  04/22/2020  15:25:24  PAGE 59


  C:34E8H         LINE#         605
  C:34EBH         LINE#         607
  C:34EEH         LINE#         608
  C:34EEH         LINE#         609
  C:34F1H         LINE#         610
  C:34F4H         LINE#         611
  C:34F4H         LINE#         613
  C:34F7H         LINE#         614
  C:34FAH         LINE#         615
  C:34FAH         LINE#         618
  C:34FAH         LINE#         622
  C:34FAH         LINE#         623
  C:3518H         LINE#         624
  C:351BH         LINE#         625
  C:351BH         LINE#         626
  C:351BH         LINE#         627
  C:351BH         LINE#         628
  -------         ENDPROC       MENU
  -------         ENDMOD        PROG

  -------         MODULE        PTO_PARALELO
  C:0000H         SYMBOL        _ICE_DUMMY_
  D:0080H         PUBLIC        P0
  D:00A0H         PUBLIC        P2
  D:00B0H         PUBLIC        P3
  B:0080H.2       PUBLIC        led_err_imp
  C:427AH         PUBLIC        load_and_send_id_cod
  C:5882H         PUBLIC        _recibe_port
  B:00B0H.2       PUBLIC        ready
  B:0080H.6       PUBLIC        rx_in_data
  C:7032H         PUBLIC        Pulso_Bus
  C:5EB7H         PUBLIC        _send_portERR
  B:00B0H.3       PUBLIC        busy
  C:6D70H         PUBLIC        load_and_send_info_reloj
  C:5402H         PUBLIC        _send_port
  B:00B0H.4       PUBLIC        port_clk
  C:2371H         PUBLIC        _Trama_pto_Paralelo_new
  C:4595H         PUBLIC        _Trama_pto_Paralelo_P
  C:70A3H         PUBLIC        cond_ini_pto
  -------         PROC          _RECIBE_PORT
  X:0022H         SYMBOL        buffer_port
  -------         DO            
  D:0006H         SYMBOL        count
  X:0025H         SYMBOL        time_out
  X:0026H         SYMBOL        num_data
  X:0027H         SYMBOL        T_ANCHO
  X:0029H         SYMBOL        data_temp
  -------         ENDDO         
  C:5882H         LINE#         45
  C:588DH         LINE#         46
  C:588DH         LINE#         50
  C:5896H         LINE#         51
  C:5899H         LINE#         54
  C:589CH         LINE#         55
  C:589CH         LINE#         57
  C:589FH         LINE#         58
  C:58A4H         LINE#         59
BL51 BANKED LINKER/LOCATER V6.22.2.0                                                  04/22/2020  15:25:24  PAGE 60


  C:58A6H         LINE#         60
  C:58AAH         LINE#         61
  C:58ACH         LINE#         64
  C:58B1H         LINE#         65
  C:58BAH         LINE#         66
  C:58BAH         LINE#         67
  C:58BDH         LINE#         68
  C:58BDH         LINE#         70
  C:58C2H         LINE#         71
  C:58C6H         LINE#         72
  C:58C6H         LINE#         73
  C:58C8H         LINE#         74
  C:58CAH         LINE#         75
  C:58CAH         LINE#         76
  C:58CAH         LINE#         78
  C:58CAH         LINE#         79
  C:58D7H         LINE#         80
  C:58D7H         LINE#         82
  C:58DAH         LINE#         83
  C:58DAH         LINE#         85
  C:58E0H         LINE#         87
  C:58E2H         LINE#         88
  C:58F6H         LINE#         89
  C:5900H         LINE#         90
  C:5906H         LINE#         91
  C:590CH         LINE#         92
  C:590EH         LINE#         93
  C:590EH         LINE#         94
  C:590EH         LINE#         95
  C:590EH         LINE#         98
  C:5910H         LINE#         99
  C:5912H         LINE#         100
  C:5912H         LINE#         101
  C:5915H         LINE#         103
  C:591AH         LINE#         104
  -------         ENDPROC       _RECIBE_PORT
  -------         PROC          _SEND_PORT
  X:0034H         SYMBOL        buffer_port
  X:0037H         SYMBOL        length_char
  -------         DO            
  X:0038H         SYMBOL        cont
  X:003CH         SYMBOL        timeOut
  X:003DH         SYMBOL        length
  -------         ENDDO         
  C:5402H         LINE#         111
  C:5410H         LINE#         112
  C:5410H         LINE#         117
  C:5414H         LINE#         119
  C:5416H         LINE#         120
  C:5418H         LINE#         121
  C:541AH         LINE#         122
  C:541FH         LINE#         123
  C:5421H         LINE#         124
  C:542BH         LINE#         126
  C:5434H         LINE#         127
  C:5434H         LINE#         128
  C:5436H         LINE#         129
BL51 BANKED LINKER/LOCATER V6.22.2.0                                                  04/22/2020  15:25:24  PAGE 61


  C:5438H         LINE#         130
  C:545CH         LINE#         131
  C:5470H         LINE#         132
  C:5470H         LINE#         133
  C:5473H         LINE#         134
  C:5475H         LINE#         135
  C:5475H         LINE#         136
  C:5477H         LINE#         137
  C:5480H         LINE#         138
  C:5480H         LINE#         142
  C:5480H         LINE#         144
  C:5490H         LINE#         145
  C:5493H         LINE#         146
  C:549DH         LINE#         148
  C:54A3H         LINE#         149
  C:54A6H         LINE#         151
  C:54A6H         LINE#         152
  C:54A9H         LINE#         153
  C:54ABH         LINE#         154
  C:54ADH         LINE#         155
  C:54AFH         LINE#         156
  -------         ENDPROC       _SEND_PORT
  -------         PROC          _TRAMA_PTO_PARALELO_P
  D:0001H         SYMBOL        buffer_S1_B0
  X:0273H         SYMBOL        buffer_S1_B2
  X:0276H         SYMBOL        cmd
  -------         DO            
  X:01FAH         SYMBOL        Buffer_port
  X:0277H         SYMBOL        j
  -------         ENDDO         
  C:4595H         LINE#         224
  C:4595H         LINE#         225
  C:4595H         LINE#         228
  C:459BH         LINE#         229
  C:45A0H         LINE#         230
  C:45A8H         LINE#         231
  C:45ACH         LINE#         233
  C:45ACH         LINE#         234
  C:45C3H         LINE#         235
  C:45CAH         LINE#         236
  C:45CFH         LINE#         237
  C:45D9H         LINE#         238
  C:45ECH         LINE#         240
  C:45ECH         LINE#         241
  C:4600H         LINE#         242
  C:461CH         LINE#         243
  C:461CH         LINE#         256
  C:4630H         LINE#         259
  C:4646H         LINE#         260
  C:4646H         LINE#         261
  C:4657H         LINE#         262
  C:4659H         LINE#         264
  C:4659H         LINE#         265
  C:466AH         LINE#         266
  C:466AH         LINE#         269
  C:466CH         LINE#         271
  C:467AH         LINE#         272
BL51 BANKED LINKER/LOCATER V6.22.2.0                                                  04/22/2020  15:25:24  PAGE 62


  C:467DH         LINE#         274
  C:4691H         LINE#         275
  -------         ENDPROC       _TRAMA_PTO_PARALELO_P
  -------         PROC          _TRAMA_PTO_PARALELO_NEW
  D:0001H         SYMBOL        buffer_S1_B0
  X:016DH         SYMBOL        buffer_S1_B2
  X:0170H         SYMBOL        cmd
  -------         DO            
  X:0171H         SYMBOL        Buffer_port
  X:018FH         SYMBOL        j
  -------         ENDDO         
  C:2371H         LINE#         349
  C:2371H         LINE#         350
  C:2371H         LINE#         352
  C:2377H         LINE#         354
  C:237BH         LINE#         355
  C:2383H         LINE#         358
  C:2383H         LINE#         359
  C:239AH         LINE#         360
  C:23A1H         LINE#         361
  C:23A6H         LINE#         363
  C:23BCH         LINE#         365
  C:23BCH         LINE#         366
  C:23CDH         LINE#         367
  C:23E9H         LINE#         368
  C:23EBH         LINE#         370
  C:23EBH         LINE#         371
  C:23FCH         LINE#         372
  C:2410H         LINE#         373
  C:2410H         LINE#         375
  C:242AH         LINE#         376
  C:242AH         LINE#         377
  C:242DH         LINE#         378
  C:242FH         LINE#         380
  C:242FH         LINE#         381
  C:2432H         LINE#         382
  C:2432H         LINE#         384
  C:2446H         LINE#         385
  C:245FH         LINE#         386
  C:247BH         LINE#         387
  C:2497H         LINE#         388
  C:24B3H         LINE#         389
  C:24CFH         LINE#         390
  C:24E3H         LINE#         392
  C:24F3H         LINE#         394
  C:2517H         LINE#         395
  C:253BH         LINE#         396
  C:255FH         LINE#         397
  C:2583H         LINE#         398
  C:25A7H         LINE#         402
  C:25BBH         LINE#         405
  C:25D1H         LINE#         406
  C:25D1H         LINE#         407
  C:25E2H         LINE#         408
  C:25E4H         LINE#         410
  C:25E4H         LINE#         411
  C:25F5H         LINE#         412
BL51 BANKED LINKER/LOCATER V6.22.2.0                                                  04/22/2020  15:25:24  PAGE 63


  C:25F5H         LINE#         413
  C:2609H         LINE#         416
  C:260BH         LINE#         417
  C:260EH         LINE#         418
  C:261CH         LINE#         420
  C:261FH         LINE#         422
  C:2633H         LINE#         423
  -------         ENDPROC       _TRAMA_PTO_PARALELO_NEW
  -------         PROC          PULSO_BUS
  C:7032H         LINE#         431
  C:7032H         LINE#         432
  C:7032H         LINE#         433
  C:7034H         LINE#         434
  C:703BH         LINE#         435
  C:703DH         LINE#         436
  -------         ENDPROC       PULSO_BUS
  -------         PROC          _SEND_PORTERR
  X:0023H         SYMBOL        cod_err
  -------         DO            
  X:0024H         SYMBOL        timeOut
  X:0025H         SYMBOL        cont
  -------         ENDDO         
  C:5EB7H         LINE#         441
  C:5EBDH         LINE#         442
  C:5EBDH         LINE#         446
  C:5EBFH         LINE#         447
  C:5EC1H         LINE#         448
  C:5EC4H         LINE#         449
  C:5ECCH         LINE#         451
  C:5ECEH         LINE#         452
  C:5ED0H         LINE#         453
  C:5ED9H         LINE#         454
  C:5ED9H         LINE#         455
  C:5EFBH         LINE#         456
  C:5F0FH         LINE#         457
  C:5F0FH         LINE#         458
  C:5F14H         LINE#         459
  C:5F14H         LINE#         460
  C:5F16H         LINE#         461
  C:5F1FH         LINE#         462
  C:5F1FH         LINE#         463
  C:5F25H         LINE#         464
  C:5F28H         LINE#         465
  C:5F28H         LINE#         466
  C:5F2AH         LINE#         467
  C:5F2CH         LINE#         468
  C:5F2EH         LINE#         470
  C:5F31H         LINE#         472
  C:5F38H         LINE#         473
  -------         ENDPROC       _SEND_PORTERR
  -------         PROC          COND_INI_PTO
  C:70A3H         LINE#         479
  C:70A3H         LINE#         480
  C:70A3H         LINE#         482
  C:70A5H         LINE#         483
  C:70A7H         LINE#         484
  C:70A9H         LINE#         485
BL51 BANKED LINKER/LOCATER V6.22.2.0                                                  04/22/2020  15:25:24  PAGE 64


  C:70ACH         LINE#         486
  -------         ENDPROC       COND_INI_PTO
  -------         PROC          LOAD_AND_SEND_INFO_RELOJ
  -------         DO            
  X:0023H         SYMBOL        buffer_info
  -------         ENDDO         
  C:6D70H         LINE#         491
  C:6D70H         LINE#         492
  C:6D70H         LINE#         495
  C:6D76H         LINE#         497
  C:6D7AH         LINE#         499
  C:6D83H         LINE#         500
  C:6D8DH         LINE#         501
  C:6D91H         LINE#         505
  -------         ENDPROC       LOAD_AND_SEND_INFO_RELOJ
  -------         PROC          LOAD_AND_SEND_ID_COD
  -------         DO            
  X:0023H         SYMBOL        buffer_info
  X:002EH         SYMBOL        buf
  X:0032H         SYMBOL        i
  X:0033H         SYMBOL        k
  -------         ENDDO         
  C:427AH         LINE#         512
  C:427AH         LINE#         513
  C:427AH         LINE#         517
  C:427FH         LINE#         519
  C:4285H         LINE#         520
  C:4289H         LINE#         521
  C:42AFH         LINE#         522
  C:42B5H         LINE#         523
  C:42B5H         LINE#         524
  C:42C6H         LINE#         525
  C:42C6H         LINE#         526
  C:42D5H         LINE#         527
  C:42DBH         LINE#         528
  C:42DDH         LINE#         529
  C:42F5H         LINE#         531
  C:42FDH         LINE#         534
  C:4323H         LINE#         536
  C:4328H         LINE#         537
  C:4328H         LINE#         538
  C:4339H         LINE#         539
  C:4339H         LINE#         540
  C:4348H         LINE#         541
  C:434EH         LINE#         542
  C:4368H         LINE#         543
  C:4370H         LINE#         546
  C:4381H         LINE#         547
  -------         ENDPROC       LOAD_AND_SEND_ID_COD
  -------         ENDMOD        PTO_PARALELO

  -------         MODULE        TIBBO
  C:0000H         SYMBOL        _ICE_DUMMY_
  C:69A7H         PUBLIC        _Debug_HexDec
  C:6809H         PUBLIC        _Debug_txt_Tibbo
  D:0080H         PUBLIC        P0
  D:0090H         PUBLIC        P1
BL51 BANKED LINKER/LOCATER V6.22.2.0                                                  04/22/2020  15:25:24  PAGE 65


  C:5605H         PUBLIC        _Debug_Fecha_actual
  B:0090H.0       PUBLIC        txd2
  B:00A8H.7       PUBLIC        EA
  C:67B6H         PUBLIC        _tx_aux
  B:0080H.0       PUBLIC        rx_ip
  C:6FDFH         PUBLIC        Debug_Dividir_texto
  C:70FEH         PUBLIC        cond_ini_tibbo
  C:6FBDH         PUBLIC        time_mbit
  C:5F3FH         PUBLIC        rx_Data
  C:6F54H         PUBLIC        time_bit
  C:6C25H         PUBLIC        _Debug_pto_paralelo
  C:6D3EH         PUBLIC        _Debug_monitor
  C:6441H         PUBLIC        _DebugBufferMF
  C:6847H         PUBLIC        _Debug_chr_Tibbo
  C:6F4EH         SYMBOL        L?0067
  -------         PROC          L?0066
  -------         ENDPROC       L?0066
  C:6F4EH         SYMBOL        L?0067
  -------         PROC          TIME_BIT
  -------         DO            
  D:0007H         SYMBOL        j
  -------         ENDDO         
  C:6F54H         LINE#         18
  C:6F54H         LINE#         19
  C:6F54H         LINE#         22
  C:6F60H         LINE#         23
  C:6F60H         LINE#         24
  C:6F61H         LINE#         25
  C:6F62H         LINE#         26
  C:6F63H         LINE#         27
  C:6F64H         LINE#         28
  C:6F65H         LINE#         29
  C:6F66H         LINE#         30
  C:6F67H         LINE#         31
  C:6F68H         LINE#         32
  C:6F69H         LINE#         37
  C:6F6CH         LINE#         38
  -------         ENDPROC       TIME_BIT
  -------         PROC          TIME_MBIT
  -------         DO            
  D:0007H         SYMBOL        j
  -------         ENDDO         
  C:6FBDH         LINE#         41
  C:6FBDH         LINE#         42
  C:6FBDH         LINE#         44
  C:6FC9H         LINE#         45
  C:6FC9H         LINE#         46
  C:6FCAH         LINE#         47
  C:6FCBH         LINE#         48
  C:6FCCH         LINE#         49
  C:6FCDH         LINE#         50
  C:6FCEH         LINE#         51
  C:6FCFH         LINE#         52
  C:6FD0H         LINE#         53
  C:6FD3H         LINE#         55
  -------         ENDPROC       TIME_MBIT
  -------         PROC          L?0071
BL51 BANKED LINKER/LOCATER V6.22.2.0                                                  04/22/2020  15:25:24  PAGE 66


  -------         ENDPROC       L?0071
  -------         PROC          _TX_AUX
  D:0006H         SYMBOL        caracter
  -------         DO            
  D:0004H         SYMBOL        j
  D:0005H         SYMBOL        temporal
  D:0006H         SYMBOL        bitTX
  -------         ENDDO         
  C:67B6H         LINE#         60
  C:67B8H         LINE#         61
  C:67B8H         LINE#         64
  C:67BAH         LINE#         65
  C:67BCH         LINE#         66
  C:67BFH         LINE#         67
  C:67C0H         LINE#         68
  C:67C1H         LINE#         69
  C:67C3H         LINE#         70
  C:67C7H         LINE#         71
  C:67C9H         LINE#         72
  C:67C9H         LINE#         73
  C:67CBH         LINE#         74
  C:67CDH         LINE#         76
  C:67CDH         LINE#         77
  C:67CFH         LINE#         78
  C:67CFH         LINE#         79
  C:67D2H         LINE#         80
  C:67DEH         LINE#         81
  C:67DEH         LINE#         82
  C:67E2H         LINE#         83
  C:67E5H         LINE#         84
  C:67E7H         LINE#         85
  C:67E7H         LINE#         86
  C:67E9H         LINE#         87
  C:67EBH         LINE#         89
  C:67EBH         LINE#         90
  C:67EDH         LINE#         91
  C:67EDH         LINE#         92
  C:67F0H         LINE#         93
  C:67F3H         LINE#         94
  C:67F5H         LINE#         95
  C:67F8H         LINE#         96
  C:67FBH         LINE#         98
  C:67FDH         LINE#         99
  -------         ENDPROC       _TX_AUX
  -------         PROC          _DEBUG_HEXDEC
  D:0007H         SYMBOL        xfc
  -------         DO            
  X:028AH         SYMBOL        valor
  D:0006H         SYMBOL        centena
  D:0003H         SYMBOL        decena
  D:0002H         SYMBOL        unidad
  -------         ENDDO         
  C:69A7H         LINE#         102
  C:69A7H         LINE#         103
  C:69A7H         LINE#         106
  C:69AEH         LINE#         108
  C:69AFH         LINE#         109
BL51 BANKED LINKER/LOCATER V6.22.2.0                                                  04/22/2020  15:25:24  PAGE 67


  C:69B0H         LINE#         110
  C:69B1H         LINE#         111
  C:69B9H         LINE#         112
  C:69B9H         LINE#         113
  C:69C3H         LINE#         114
  C:69C3H         LINE#         115
  C:69C7H         LINE#         116
  C:69C8H         LINE#         117
  C:69CAH         LINE#         118
  C:69D4H         LINE#         119
  C:69D4H         LINE#         120
  C:69D8H         LINE#         121
  C:69D9H         LINE#         122
  C:69DBH         LINE#         123
  C:69DDH         LINE#         124
  C:69E1H         LINE#         125
  C:69E5H         LINE#         126
  C:69ECH         LINE#         128
  C:69ECH         LINE#         129
  -------         ENDPROC       _DEBUG_HEXDEC
  -------         PROC          _DEBUG_CHR_TIBBO
  D:0003H         SYMBOL        Dat
  -------         DO            
  D:0007H         SYMBOL        temp
  -------         ENDDO         
  C:6847H         LINE#         134
  C:6849H         LINE#         135
  C:6849H         LINE#         137
  C:6851H         LINE#         138
  C:6851H         LINE#         139
  C:6858H         LINE#         140
  C:686BH         LINE#         142
  C:686EH         LINE#         144
  C:6872H         LINE#         145
  C:6885H         LINE#         146
  C:6888H         LINE#         147
  C:688DH         LINE#         149
  C:688DH         LINE#         150
  -------         ENDPROC       _DEBUG_CHR_TIBBO
  -------         PROC          _DEBUGBUFFERMF
  X:0039H         SYMBOL        str
  X:003CH         SYMBOL        num_char
  X:003DH         SYMBOL        io
  -------         DO            
  X:003EH         SYMBOL        j
  -------         ENDDO         
  C:6441H         LINE#         157
  C:644FH         LINE#         158
  C:644FH         LINE#         162
  C:6457H         LINE#         163
  C:6457H         LINE#         164
  C:6466H         LINE#         165
  C:6466H         LINE#         166
  C:646AH         LINE#         167
  C:6473H         LINE#         168
  C:6485H         LINE#         169
  C:6485H         LINE#         170
BL51 BANKED LINKER/LOCATER V6.22.2.0                                                  04/22/2020  15:25:24  PAGE 68


  C:6497H         LINE#         171
  C:64A1H         LINE#         172
  C:64A9H         LINE#         173
  C:64AEH         LINE#         174
  C:64B3H         LINE#         175
  C:64B3H         LINE#         177
  -------         ENDPROC       _DEBUGBUFFERMF
  C:6803H         SYMBOL        L?0069
  -------         PROC          L?0068
  -------         ENDPROC       L?0068
  C:6803H         SYMBOL        L?0069
  -------         PROC          _DEBUG_TXT_TIBBO
  X:0043H         SYMBOL        str
  -------         DO            
  X:0046H         SYMBOL        i
  -------         ENDDO         
  C:6809H         LINE#         182
  C:6814H         LINE#         183
  C:6814H         LINE#         185
  C:6817H         LINE#         187
  C:681FH         LINE#         188
  C:681FH         LINE#         189
  C:683BH         LINE#         190
  C:683BH         LINE#         191
  C:683EH         LINE#         192
  C:6846H         LINE#         194
  C:6846H         LINE#         195
  -------         ENDPROC       _DEBUG_TXT_TIBBO
  -------         PROC          L?0070
  -------         ENDPROC       L?0070
  -------         PROC          DEBUG_DIVIDIR_TEXTO
  C:6FDFH         LINE#         197
  C:6FDFH         LINE#         198
  C:6FDFH         LINE#         199
  -------         ENDPROC       DEBUG_DIVIDIR_TEXTO
  -------         PROC          RX_DATA
  -------         DO            
  D:0006H         SYMBOL        temporal
  -------         ENDDO         
  C:5F3FH         LINE#         205
  C:5F3FH         LINE#         206
  C:5F3FH         LINE#         209
  C:5F41H         LINE#         210
  C:5F44H         LINE#         212
  C:5F47H         LINE#         214
  C:5F53H         LINE#         215
  C:5F53H         LINE#         217
  C:5F56H         LINE#         219
  C:5F62H         LINE#         220
  C:5F62H         LINE#         222
  C:5F65H         LINE#         224
  C:5F71H         LINE#         225
  C:5F71H         LINE#         227
  C:5F74H         LINE#         229
  C:5F80H         LINE#         230
  C:5F80H         LINE#         232
  C:5F83H         LINE#         234
BL51 BANKED LINKER/LOCATER V6.22.2.0                                                  04/22/2020  15:25:24  PAGE 69


  C:5F8FH         LINE#         235
  C:5F8FH         LINE#         237
  C:5F92H         LINE#         239
  C:5F9EH         LINE#         240
  C:5F9EH         LINE#         242
  C:5FA1H         LINE#         244
  C:5FADH         LINE#         245
  C:5FADH         LINE#         247
  C:5FB0H         LINE#         248
  C:5FBEH         LINE#         250
  C:5FC1H         LINE#         251
  C:5FC4H         LINE#         252
  C:5FC4H         LINE#         253
  C:5FC4H         LINE#         255
  C:5FC6H         LINE#         257
  -------         ENDPROC       RX_DATA
  -------         PROC          _DEBUG_FECHA_ACTUAL
  X:027EH         SYMBOL        buffer
  C:5605H         LINE#         258
  C:5610H         LINE#         259
  C:5610H         LINE#         260
  C:5619H         LINE#         261
  C:562EH         LINE#         262
  C:5633H         LINE#         263
  C:564BH         LINE#         264
  C:5650H         LINE#         265
  C:5668H         LINE#         266
  C:566DH         LINE#         267
  C:5685H         LINE#         268
  C:568AH         LINE#         269
  C:56A2H         LINE#         270
  -------         ENDPROC       _DEBUG_FECHA_ACTUAL
  -------         PROC          COND_INI_TIBBO
  C:70FEH         LINE#         275
  C:70FEH         LINE#         276
  C:70FEH         LINE#         278
  C:7100H         LINE#         279
  C:7102H         LINE#         280
  -------         ENDPROC       COND_INI_TIBBO
  -------         PROC          _DEBUG_PTO_PARALELO
  X:0022H         SYMBOL        buffer
  X:0025H         SYMBOL        Length_trama
  C:6C25H         LINE#         281
  C:6C28H         LINE#         282
  C:6C28H         LINE#         283
  C:6C2BH         LINE#         284
  C:6C34H         LINE#         285
  C:6C4BH         LINE#         286
  C:6C4EH         LINE#         287
  C:6C57H         LINE#         288
  C:6C5AH         LINE#         289
  C:6C5DH         LINE#         290
  -------         ENDPROC       _DEBUG_PTO_PARALELO
  -------         PROC          _DEBUG_MONITOR
  X:0022H         SYMBOL        buffer
  X:0025H         SYMBOL        Length_trama
  C:6D3EH         LINE#         293
BL51 BANKED LINKER/LOCATER V6.22.2.0                                                  04/22/2020  15:25:24  PAGE 70


  C:6D41H         LINE#         294
  C:6D41H         LINE#         295
  C:6D44H         LINE#         296
  C:6D4DH         LINE#         297
  C:6D5BH         LINE#         298
  C:6D5EH         LINE#         299
  C:6D67H         LINE#         300
  C:6D6AH         LINE#         301
  C:6D6DH         LINE#         302
  -------         ENDPROC       _DEBUG_MONITOR
  -------         ENDMOD        TIBBO

  -------         MODULE        UART
  C:0000H         SYMBOL        _ICE_DUMMY_
  C:6E66H         PUBLIC        com_getchar
  C:7044H         PUBLIC        com_rbuflen
  C:7056H         PUBLIC        com_tbuflen
  B:00A8H.4       PUBLIC        ES
  B:0098H.0       PUBLIC        RI
  C:6C60H         PUBLIC        _com_putchar
  B:0098H.1       PUBLIC        TI
  B:0021H.3       PUBLIC        aSk
  B:00B8H.4       PUBLIC        PS
  D:000DH         SYMBOL        r_in
  D:000EH         SYMBOL        r_out
  D:000FH         SYMBOL        t_in
  D:0010H         SYMBOL        t_out
  D:0099H         PUBLIC        SBUF
  D:0087H         PUBLIC        PCON
  D:0089H         PUBLIC        TMOD
  B:0021H.4       SYMBOL        ti_restart
  B:00A8H.3       PUBLIC        ET1
  D:008DH         PUBLIC        TH1
  B:0098H.7       PUBLIC        SM0
  B:0098H.6       PUBLIC        SM1
  D:008BH         PUBLIC        TL1
  B:0098H.5       PUBLIC        SM2
  B:0088H.6       PUBLIC        TR1
  C:6D9CH         PUBLIC        com_initialize
  X:0283H         PUBLIC        cnt__ask_off
  B:0098H.4       PUBLIC        REN
  C:6E17H         PUBLIC        com_baudrate
  C:31B9H         SYMBOL        com_isr
  -------         PROC          COM_ISR
  -------         DO            
  X:0281H         SYMBOL        cDatoRx
  D:0006H         SYMBOL        k
  D:0007H         SYMBOL        bcc
  X:0282H         SYMBOL        num_datos
  -------         ENDDO         
  C:31B9H         LINE#         96
  C:31CEH         LINE#         104
  C:31D4H         LINE#         105
  C:31D4H         LINE#         107
  C:31D6H         LINE#         108
  C:31DCH         LINE#         109
  C:31ECH         LINE#         110
BL51 BANKED LINKER/LOCATER V6.22.2.0                                                  04/22/2020  15:25:24  PAGE 71


  C:31ECH         LINE#         111
  C:31F7H         LINE#         112
  C:31F9H         LINE#         114
  C:31F9H         LINE#         115
  C:3209H         LINE#         116
  C:3209H         LINE#         117
  C:320EH         LINE#         118
  C:320EH         LINE#         119
  C:3225H         LINE#         120
  C:3225H         LINE#         124
  C:3225H         LINE#         127
  C:3234H         LINE#         128
  C:3234H         LINE#         129
  C:3236H         LINE#         130
  C:323EH         LINE#         131
  C:3243H         LINE#         133
  C:3243H         LINE#         134
  C:3246H         LINE#         138
  C:3246H         LINE#         139
  C:3246H         LINE#         140
  C:325EH         LINE#         141
  C:326DH         LINE#         142
  C:326DH         LINE#         143
  C:326DH         LINE#         144
  C:326FH         LINE#         146
  C:326FH         LINE#         147
  C:3271H         LINE#         148
  C:3271H         LINE#         149
  C:3271H         LINE#         150
  C:3274H         LINE#         154
  C:3274H         LINE#         156
  C:327DH         LINE#         157
  C:327DH         LINE#         159
  C:3283H         LINE#         160
  C:3296H         LINE#         161
  C:3296H         LINE#         162
  C:3299H         LINE#         164
  C:3299H         LINE#         165
  C:32AEH         LINE#         166
  C:32B4H         LINE#         167
  C:32B4H         LINE#         169
  C:32B7H         LINE#         173
  C:32B7H         LINE#         175
  C:32CFH         LINE#         176
  C:32D5H         LINE#         177
  C:32D8H         LINE#         178
  C:32D8H         LINE#         179
  C:32F0H         LINE#         180
  C:32F0H         LINE#         181
  C:32F1H         LINE#         182
  C:32FEH         LINE#         183
  C:32FEH         LINE#         184
  C:330BH         LINE#         185
  C:330EH         LINE#         186
  C:331CH         LINE#         187
  C:331CH         LINE#         188
  C:331EH         LINE#         189
BL51 BANKED LINKER/LOCATER V6.22.2.0                                                  04/22/2020  15:25:24  PAGE 72


  C:3323H         LINE#         190
  C:3325H         LINE#         191
  C:3329H         LINE#         193
  C:332BH         LINE#         195
  C:332BH         LINE#         196
  C:332BH         LINE#         197
  C:332BH         LINE#         198
  C:332DH         LINE#         200
  C:332DH         LINE#         201
  C:332DH         LINE#         202
  C:332DH         LINE#         204
  C:332FH         LINE#         206
  C:332FH         LINE#         207
  C:3335H         LINE#         208
  C:3335H         LINE#         210
  C:3337H         LINE#         215
  C:3337H         LINE#         216
  C:333CH         LINE#         217
  C:333CH         LINE#         218
  C:333CH         LINE#         219
  C:333CH         LINE#         224
  C:333FH         LINE#         225
  C:333FH         LINE#         226
  C:3341H         LINE#         228
  C:3347H         LINE#         229
  C:3347H         LINE#         230
  C:3351H         LINE#         231
  C:3353H         LINE#         232
  C:3355H         LINE#         233
  C:3357H         LINE#         235
  C:3357H         LINE#         236
  C:3359H         LINE#         237
  C:3359H         LINE#         238
  C:3359H         LINE#         240
  -------         ENDPROC       COM_ISR
  -------         PROC          COM_INITIALIZE
  C:6D9CH         LINE#         256
  C:6DA3H         LINE#         257
  C:6DA3H         LINE#         261
  C:6DA6H         LINE#         266
  C:6DA9H         LINE#         267
  C:6DABH         LINE#         269
  C:6DADH         LINE#         270
  C:6DAFH         LINE#         275
  C:6DB3H         LINE#         276
  C:6DB5H         LINE#         277
  C:6DB7H         LINE#         279
  C:6DB9H         LINE#         280
  C:6DBBH         LINE#         281
  C:6DBDH         LINE#         283
  C:6DBFH         LINE#         284
  C:6DC1H         LINE#         285
  -------         ENDPROC       COM_INITIALIZE
  -------         PROC          COM_BAUDRATE
  C:6E17H         LINE#         291
  C:6E1EH         LINE#         293
  C:6E1EH         LINE#         297
BL51 BANKED LINKER/LOCATER V6.22.2.0                                                  04/22/2020  15:25:24  PAGE 73


  C:6E20H         LINE#         298
  C:6E23H         LINE#         299
  C:6E25H         LINE#         304
  C:6E27H         LINE#         305
  C:6E29H         LINE#         307
  C:6E2CH         LINE#         309
  C:6E2FH         LINE#         310
  C:6E32H         LINE#         312
  C:6E35H         LINE#         313
  C:6E38H         LINE#         314
  C:6E3AH         LINE#         315
  -------         ENDPROC       COM_BAUDRATE
  -------         PROC          _COM_PUTCHAR
  X:00C1H         SYMBOL        c
  C:6C60H         LINE#         321
  C:6C6CH         LINE#         323
  C:6C6CH         LINE#         327
  C:6C79H         LINE#         328
  C:6C7DH         LINE#         334
  C:6C8BH         LINE#         335
  C:6C8DH         LINE#         337
  C:6C90H         LINE#         338
  C:6C90H         LINE#         339
  C:6C92H         LINE#         340
  C:6C94H         LINE#         341
  C:6C94H         LINE#         343
  C:6C96H         LINE#         344
  -------         ENDPROC       _COM_PUTCHAR
  -------         PROC          COM_GETCHAR
  C:6E66H         LINE#         350
  C:6E6DH         LINE#         351
  C:6E6DH         LINE#         352
  C:6E73H         LINE#         353
  C:6E79H         LINE#         355
  C:6E87H         LINE#         356
  -------         ENDPROC       COM_GETCHAR
  -------         PROC          COM_RBUFLEN
  C:7044H         LINE#         362
  C:704BH         LINE#         363
  C:704BH         LINE#         364
  C:7051H         LINE#         365
  -------         ENDPROC       COM_RBUFLEN
  -------         PROC          COM_TBUFLEN
  C:7056H         LINE#         371
  C:705DH         LINE#         372
  C:705DH         LINE#         373
  C:7063H         LINE#         374
  -------         ENDPROC       COM_TBUFLEN
  -------         ENDMOD        UART

  -------         MODULE        LINTECH
  C:0000H         SYMBOL        _ICE_DUMMY_
  C:574BH         PUBLIC        _Inicializa
  C:4F9EH         PUBLIC        _RD_MF
  C:54B6H         PUBLIC        Dwload_EEprom
  C:5A44H         PUBLIC        _Card_Insercion
  C:4A84H         PUBLIC        _Mov_Card
BL51 BANKED LINKER/LOCATER V6.22.2.0                                                  04/22/2020  15:25:24  PAGE 74


  C:3C77H         PUBLIC        _WR_MF
  C:5AD5H         PUBLIC        LoadVerify_EEprom
  C:62CFH         PUBLIC        _Check_Status
  C:624FH         PUBLIC        Aut_Card_check_Status
  -------         PROC          _INICIALIZA
  X:0023H         SYMBOL        TipoMovimiento
  -------         DO            
  D:0003H         SYMBOL        j
  X:0024H         SYMBOL        bcc
  X:0025H         SYMBOL        g_scArrTxComSoft
  -------         ENDDO         
  C:574BH         LINE#         66
  C:5750H         LINE#         67
  C:5750H         LINE#         70
  C:5753H         LINE#         71
  C:5769H         LINE#         72
  C:5769H         LINE#         74
  C:5772H         LINE#         76
  C:5778H         LINE#         77
  C:577BH         LINE#         78
  C:577DH         LINE#         79
  C:5781H         LINE#         80
  C:5785H         LINE#         81
  C:5789H         LINE#         82
  C:5791H         LINE#         83
  C:5795H         LINE#         84
  C:57A1H         LINE#         85
  C:57A1H         LINE#         86
  C:57B5H         LINE#         87
  C:57B8H         LINE#         88
  C:57C0H         LINE#         89
  C:57C2H         LINE#         90
  C:57C7H         LINE#         91
  C:57D6H         LINE#         92
  C:57E1H         LINE#         93
  C:57E7H         LINE#         94
  C:57E7H         LINE#         95
  -------         ENDPROC       _INICIALIZA
  -------         PROC          _CHECK_STATUS
  X:0023H         SYMBOL        Detalle
  -------         DO            
  D:0006H         SYMBOL        j
  D:0007H         SYMBOL        bcc
  X:0024H         SYMBOL        g_scArrTxComSoft
  -------         ENDDO         
  C:62CFH         LINE#         107
  C:62D4H         LINE#         108
  C:62D4H         LINE#         111
  C:62DDH         LINE#         113
  C:62DFH         LINE#         115
  C:62E5H         LINE#         116
  C:62E8H         LINE#         117
  C:62EAH         LINE#         118
  C:62EEH         LINE#         119
  C:62F2H         LINE#         120
  C:62F6H         LINE#         121
  C:62FEH         LINE#         122
BL51 BANKED LINKER/LOCATER V6.22.2.0                                                  04/22/2020  15:25:24  PAGE 75


  C:6302H         LINE#         123
  C:630EH         LINE#         124
  C:630EH         LINE#         125
  C:631BH         LINE#         126
  C:631EH         LINE#         127
  C:6323H         LINE#         128
  C:6325H         LINE#         129
  C:632AH         LINE#         130
  C:6339H         LINE#         131
  C:6344H         LINE#         132
  C:634AH         LINE#         133
  -------         ENDPROC       _CHECK_STATUS
  -------         PROC          _CARD_INSERCION
  D:0007H         SYMBOL        Tipo
  -------         DO            
  D:0006H         SYMBOL        j
  D:0007H         SYMBOL        bcc
  X:0023H         SYMBOL        g_scArrTxComSoft
  -------         ENDDO         
  C:5A44H         LINE#         143
  C:5A44H         LINE#         144
  C:5A44H         LINE#         147
  C:5A51H         LINE#         148
  C:5A51H         LINE#         149
  C:5A58H         LINE#         150
  C:5A5EH         LINE#         151
  C:5A60H         LINE#         153
  C:5A60H         LINE#         155
  C:5A67H         LINE#         156
  C:5A6DH         LINE#         158
  C:5A6DH         LINE#         160
  C:5A6FH         LINE#         162
  C:5A75H         LINE#         163
  C:5A78H         LINE#         164
  C:5A7AH         LINE#         165
  C:5A7EH         LINE#         166
  C:5A82H         LINE#         167
  C:5A86H         LINE#         169
  C:5A8CH         LINE#         170
  C:5A98H         LINE#         171
  C:5A98H         LINE#         172
  C:5AA5H         LINE#         173
  C:5AA8H         LINE#         175
  C:5AADH         LINE#         177
  C:5AAFH         LINE#         178
  C:5AB4H         LINE#         179
  C:5AC3H         LINE#         180
  C:5ACEH         LINE#         181
  C:5AD4H         LINE#         182
  -------         ENDPROC       _CARD_INSERCION
  -------         PROC          _MOV_CARD
  X:0023H         SYMBOL        Posicion
  -------         DO            
  D:0003H         SYMBOL        j
  X:0024H         SYMBOL        bcc
  X:0025H         SYMBOL        g_scArrTxComSoft
  -------         ENDDO         
BL51 BANKED LINKER/LOCATER V6.22.2.0                                                  04/22/2020  15:25:24  PAGE 76


  C:4A84H         LINE#         193
  C:4A89H         LINE#         194
  C:4A89H         LINE#         197
  C:4A8CH         LINE#         199
  C:4AACH         LINE#         200
  C:4AACH         LINE#         201
  C:4AB3H         LINE#         202
  C:4AB3H         LINE#         203
  C:4AB9H         LINE#         204
  C:4ABBH         LINE#         205
  C:4AC2H         LINE#         206
  C:4AC2H         LINE#         207
  C:4AC8H         LINE#         208
  C:4ACAH         LINE#         209
  C:4AD1H         LINE#         210
  C:4AD1H         LINE#         211
  C:4AD7H         LINE#         212
  C:4AD9H         LINE#         213
  C:4AE0H         LINE#         214
  C:4AE0H         LINE#         215
  C:4AE6H         LINE#         216
  C:4AE8H         LINE#         217
  C:4AEFH         LINE#         218
  C:4AEFH         LINE#         219
  C:4AF8H         LINE#         220
  C:4AF8H         LINE#         222
  C:4AFEH         LINE#         223
  C:4B01H         LINE#         224
  C:4B03H         LINE#         225
  C:4B07H         LINE#         226
  C:4B0BH         LINE#         227
  C:4B0FH         LINE#         228
  C:4B17H         LINE#         229
  C:4B1BH         LINE#         230
  C:4B27H         LINE#         231
  C:4B27H         LINE#         232
  C:4B3BH         LINE#         233
  C:4B3EH         LINE#         234
  C:4B46H         LINE#         235
  C:4B48H         LINE#         236
  C:4B4DH         LINE#         237
  C:4B5CH         LINE#         238
  C:4B67H         LINE#         239
  C:4B6DH         LINE#         240
  C:4B6DH         LINE#         242
  -------         ENDPROC       _MOV_CARD
  -------         PROC          AUT_CARD_CHECK_STATUS
  -------         DO            
  D:0003H         SYMBOL        j
  X:025BH         SYMBOL        bcc
  X:025CH         SYMBOL        g_scArrTxComSoft
  -------         ENDDO         
  C:624FH         LINE#         248
  C:624FH         LINE#         249
  C:624FH         LINE#         252
  C:6254H         LINE#         254
  C:625DH         LINE#         256
BL51 BANKED LINKER/LOCATER V6.22.2.0                                                  04/22/2020  15:25:24  PAGE 77


  C:6263H         LINE#         257
  C:6266H         LINE#         258
  C:6268H         LINE#         259
  C:626CH         LINE#         260
  C:6270H         LINE#         261
  C:6274H         LINE#         262
  C:6278H         LINE#         263
  C:627CH         LINE#         264
  C:6288H         LINE#         265
  C:6288H         LINE#         266
  C:629CH         LINE#         267
  C:629FH         LINE#         268
  C:62A7H         LINE#         269
  C:62A9H         LINE#         270
  C:62AEH         LINE#         271
  C:62BDH         LINE#         272
  C:62C8H         LINE#         273
  C:62CEH         LINE#         274
  -------         ENDPROC       AUT_CARD_CHECK_STATUS
  -------         PROC          DWLOAD_EEPROM
  -------         DO            
  D:0003H         SYMBOL        j
  X:0023H         SYMBOL        bcc
  X:0024H         SYMBOL        g_scArrTxComSoft
  -------         ENDDO         
  C:54B6H         LINE#         280
  C:54B6H         LINE#         281
  C:54B6H         LINE#         284
  C:54BBH         LINE#         285
  C:54C4H         LINE#         287
  C:54CAH         LINE#         288
  C:54CDH         LINE#         289
  C:54CFH         LINE#         290
  C:54D3H         LINE#         291
  C:54D7H         LINE#         292
  C:54DBH         LINE#         293
  C:54DFH         LINE#         294
  C:54E2H         LINE#         295
  C:54E6H         LINE#         296
  C:54E9H         LINE#         297
  C:54ECH         LINE#         298
  C:54F0H         LINE#         299
  C:54F4H         LINE#         300
  C:54F8H         LINE#         301
  C:54FCH         LINE#         302
  C:5500H         LINE#         303
  C:5504H         LINE#         304
  C:5508H         LINE#         305
  C:550CH         LINE#         307
  C:5518H         LINE#         308
  C:5518H         LINE#         309
  C:552CH         LINE#         310
  C:552FH         LINE#         311
  C:5537H         LINE#         312
  C:5539H         LINE#         313
  C:553EH         LINE#         314
  C:554DH         LINE#         315
BL51 BANKED LINKER/LOCATER V6.22.2.0                                                  04/22/2020  15:25:24  PAGE 78


  C:5558H         LINE#         316
  C:555EH         LINE#         317
  -------         ENDPROC       DWLOAD_EEPROM
  -------         PROC          LOADVERIFY_EEPROM
  -------         DO            
  D:0003H         SYMBOL        j
  X:023CH         SYMBOL        bcc
  X:023DH         SYMBOL        g_scArrTxComSoft
  -------         ENDDO         
  C:5AD5H         LINE#         323
  C:5AD5H         LINE#         324
  C:5AD5H         LINE#         327
  C:5ADAH         LINE#         328
  C:5AE3H         LINE#         331
  C:5AE9H         LINE#         332
  C:5AECH         LINE#         333
  C:5AEEH         LINE#         334
  C:5AF2H         LINE#         335
  C:5AF6H         LINE#         336
  C:5AFAH         LINE#         337
  C:5AFEH         LINE#         338
  C:5B01H         LINE#         339
  C:5B05H         LINE#         340
  C:5B08H         LINE#         341
  C:5B0BH         LINE#         342
  C:5B0FH         LINE#         343
  C:5B13H         LINE#         347
  C:5B1FH         LINE#         348
  C:5B1FH         LINE#         349
  C:5B33H         LINE#         350
  C:5B36H         LINE#         351
  C:5B3EH         LINE#         352
  C:5B40H         LINE#         353
  C:5B45H         LINE#         354
  C:5B54H         LINE#         355
  C:5B5FH         LINE#         356
  C:5B65H         LINE#         358
  -------         ENDPROC       LOADVERIFY_EEPROM
  -------         PROC          _RD_MF
  X:022AH         SYMBOL        Sector
  X:022BH         SYMBOL        Bloque
  -------         DO            
  D:0003H         SYMBOL        j
  X:022CH         SYMBOL        bcc
  X:022DH         SYMBOL        g_scArrTxComSoft
  -------         ENDDO         
  C:4F9EH         LINE#         364
  C:4FA6H         LINE#         365
  C:4FA6H         LINE#         369
  C:4FA9H         LINE#         371
  C:4FB2H         LINE#         372
  C:4FBAH         LINE#         374
  C:4FC3H         LINE#         375
  C:4FCBH         LINE#         376
  C:4FD4H         LINE#         379
  C:4FDAH         LINE#         380
  C:4FDDH         LINE#         381
BL51 BANKED LINKER/LOCATER V6.22.2.0                                                  04/22/2020  15:25:24  PAGE 79


  C:4FDFH         LINE#         382
  C:4FE3H         LINE#         383
  C:4FE7H         LINE#         384
  C:4FEBH         LINE#         385
  C:4FEFH         LINE#         386
  C:4FF2H         LINE#         387
  C:4FF6H         LINE#         388
  C:4FFEH         LINE#         389
  C:5006H         LINE#         390
  C:500AH         LINE#         391
  C:500EH         LINE#         393
  C:501AH         LINE#         394
  C:501AH         LINE#         395
  C:502EH         LINE#         396
  C:5031H         LINE#         397
  C:5039H         LINE#         400
  C:503BH         LINE#         401
  C:5040H         LINE#         402
  C:504FH         LINE#         403
  C:505AH         LINE#         404
  C:5060H         LINE#         406
  -------         ENDPROC       _RD_MF
  -------         PROC          _WR_MF
  X:0190H         SYMBOL        Sector
  X:0191H         SYMBOL        Bloque
  X:0192H         SYMBOL        buffer
  -------         DO            
  X:0195H         SYMBOL        j
  X:0196H         SYMBOL        bcc
  X:0197H         SYMBOL        g_scArrTxComSoft
  -------         ENDDO         
  C:3C77H         LINE#         413
  C:3C88H         LINE#         415
  C:3C88H         LINE#         418
  C:3C8DH         LINE#         420
  C:3C96H         LINE#         421
  C:3C9EH         LINE#         423
  C:3CA7H         LINE#         424
  C:3CAFH         LINE#         425
  C:3CB8H         LINE#         427
  C:3CBEH         LINE#         428
  C:3CC1H         LINE#         429
  C:3CC3H         LINE#         430
  C:3CC7H         LINE#         432
  C:3CCBH         LINE#         433
  C:3CCFH         LINE#         434
  C:3CD3H         LINE#         435
  C:3CD6H         LINE#         436
  C:3CDAH         LINE#         437
  C:3CE3H         LINE#         438
  C:3CEBH         LINE#         439
  C:3CEFH         LINE#         441
  C:3CF4H         LINE#         442
  C:3CF4H         LINE#         447
  C:3CF7H         LINE#         448
  C:3CF9H         LINE#         449
  C:3CFBH         LINE#         450
BL51 BANKED LINKER/LOCATER V6.22.2.0                                                  04/22/2020  15:25:24  PAGE 80


  C:3CFDH         LINE#         451
  C:3CFFH         LINE#         456
  C:3D01H         LINE#         457
  C:3D03H         LINE#         458
  C:3D05H         LINE#         464
  C:3D17H         LINE#         469
  C:3D21H         LINE#         474
  C:3D25H         LINE#         480
  C:3D28H         LINE#         481
  C:3D2AH         LINE#         482
  C:3D2CH         LINE#         483
  C:3D2EH         LINE#         484
  C:3D30H         LINE#         486
  C:3D32H         LINE#         488
  C:3D32H         LINE#         489
  C:3D46H         LINE#         490
  C:3D46H         LINE#         491
  C:3D52H         LINE#         492
  C:3D5AH         LINE#         493
  C:3D5AH         LINE#         498
  C:3D60H         LINE#         500
  C:3D73H         LINE#         501
  C:3D73H         LINE#         502
  C:3D88H         LINE#         503
  C:3D90H         LINE#         504
  C:3D98H         LINE#         507
  C:3D9AH         LINE#         508
  C:3D9FH         LINE#         509
  C:3DAEH         LINE#         510
  C:3DB9H         LINE#         511
  C:3DBFH         LINE#         513
  -------         ENDPROC       _WR_MF
  -------         ENDMOD        LINTECH

  -------         MODULE        VERIFICADOR
  C:0000H         SYMBOL        _ICE_DUMMY_
  D:0080H         PUBLIC        P0
  C:688EH         PUBLIC        Ingreso_Vehiculo
  D:0090H         PUBLIC        P1
  D:00B0H         PUBLIC        P3
  C:634BH         PUBLIC        _rta_cmd_transporte
  C:3EFEH         PUBLIC        Secuencia_inicio_expedidor
  C:534DH         PUBLIC        error_rx_pto
  B:0090H.1       PUBLIC        DataIn
  C:6D0BH         PUBLIC        Trama_Validacion_P_N
  B:0080H.3       PUBLIC        Rele_Atasco
  C:59B0H         PUBLIC        _SecuenciaExpedidorMF
  C:5E2CH         PUBLIC        Responde_Estado_Sensores_Transporte
  X:0286H         SYMBOL        Estado
  -------         PROC          TRAMA_VALIDACION_P_N
  -------         DO            
  D:0007H         SYMBOL        Trama_Validacion_P_N
  -------         ENDDO         
  C:6D0BH         LINE#         339
  C:6D0BH         LINE#         340
  C:6D0BH         LINE#         341
  C:6D0DH         LINE#         343
BL51 BANKED LINKER/LOCATER V6.22.2.0                                                  04/22/2020  15:25:24  PAGE 81


  C:6D18H         LINE#         344
  C:6D18H         LINE#         345
  C:6D1BH         LINE#         346
  C:6D1BH         LINE#         347
  C:6D1DH         LINE#         350
  C:6D25H         LINE#         351
  C:6D25H         LINE#         353
  C:6D27H         LINE#         355
  C:6D28H         LINE#         356
  C:6D2CH         LINE#         357
  C:6D2CH         LINE#         359
  C:6D2EH         LINE#         361
  C:6D2FH         LINE#         363
  C:6D2FH         LINE#         364
  C:6D38H         LINE#         365
  C:6D3AH         LINE#         367
  C:6D3AH         LINE#         368
  C:6D3BH         LINE#         370
  C:6D3BH         LINE#         372
  C:6D3DH         LINE#         374
  C:6D3DH         LINE#         376
  C:6D3DH         LINE#         378
  C:6D3DH         LINE#         379
  -------         ENDPROC       TRAMA_VALIDACION_P_N
  -------         PROC          ERROR_RX_PTO
  -------         DO            
  X:0284H         SYMBOL        cnt_espera_ask_on
  X:0029H         SYMBOL        error_rx_pto
  -------         ENDDO         
  C:534DH         LINE#         403
  C:534DH         LINE#         404
  C:534DH         LINE#         407
  C:5353H         LINE#         411
  C:535CH         LINE#         412
  C:5364H         LINE#         413
  C:536DH         LINE#         414
  C:5375H         LINE#         415
  C:537EH         LINE#         416
  C:5381H         LINE#         418
  C:5381H         LINE#         419
  C:5387H         LINE#         420
  C:5391H         LINE#         421
  C:5391H         LINE#         422
  C:5393H         LINE#         423
  C:539AH         LINE#         424
  C:539FH         LINE#         425
  C:53A5H         LINE#         426
  C:53AAH         LINE#         427
  C:53ACH         LINE#         428
  C:53B3H         LINE#         429
  C:53B9H         LINE#         430
  C:53B9H         LINE#         432
  C:53B9H         LINE#         433
  C:53BEH         LINE#         434
  C:53BEH         LINE#         435
  C:53BEH         LINE#         436
  C:53C0H         LINE#         438
BL51 BANKED LINKER/LOCATER V6.22.2.0                                                  04/22/2020  15:25:24  PAGE 82


  C:53C0H         LINE#         439
  C:53CEH         LINE#         440
  C:53E1H         LINE#         441
  C:53E1H         LINE#         442
  C:53E2H         LINE#         444
  C:53E8H         LINE#         445
  C:53ECH         LINE#         446
  C:53EEH         LINE#         447
  C:53EEH         LINE#         448
  C:53F0H         LINE#         450
  C:53F0H         LINE#         451
  C:53F1H         LINE#         452
  C:53F6H         LINE#         453
  C:53FCH         LINE#         454
  C:53FCH         LINE#         455
  C:53FCH         LINE#         456
  C:5401H         LINE#         457
  -------         ENDPROC       ERROR_RX_PTO
  -------         PROC          _RTA_CMD_TRANSPORTE
  X:0023H         SYMBOL        Estado_futuro
  X:0024H         SYMBOL        Estado_Error
  X:0025H         SYMBOL        Estado_Actual
  -------         DO            
  X:0027H         SYMBOL        temp
  X:0028H         SYMBOL        EstadoComSeqMF
  -------         ENDDO         
  C:634BH         LINE#         473
  C:6359H         LINE#         474
  C:6359H         LINE#         479
  C:6363H         LINE#         480
  C:6363H         LINE#         481
  C:636BH         LINE#         482
  C:636BH         LINE#         483
  C:636FH         LINE#         484
  C:6371H         LINE#         485
  C:6377H         LINE#         486
  C:6377H         LINE#         487
  C:6380H         LINE#         488
  C:6394H         LINE#         489
  C:6397H         LINE#         490
  C:6399H         LINE#         492
  C:6399H         LINE#         495
  C:63AEH         LINE#         496
  C:63AEH         LINE#         497
  C:63B2H         LINE#         498
  C:63B4H         LINE#         500
  C:63B4H         LINE#         501
  C:63B7H         LINE#         502
  C:63B7H         LINE#         503
  C:63B7H         LINE#         504
  C:63B9H         LINE#         506
  C:63B9H         LINE#         507
  C:63C1H         LINE#         508
  C:63C1H         LINE#         509
  C:63C6H         LINE#         510
  -------         ENDPROC       _RTA_CMD_TRANSPORTE
  -------         PROC          INGRESO_VEHICULO
BL51 BANKED LINKER/LOCATER V6.22.2.0                                                  04/22/2020  15:25:24  PAGE 83


  C:688EH         LINE#         512
  C:688EH         LINE#         513
  C:688EH         LINE#         514
  C:6894H         LINE#         515
  C:6894H         LINE#         516
  C:689CH         LINE#         517
  C:689CH         LINE#         518
  C:68A5H         LINE#         519
  C:68AAH         LINE#         520
  C:68AAH         LINE#         521
  C:68ACH         LINE#         523
  C:68ACH         LINE#         524
  C:68AFH         LINE#         525
  C:68B2H         LINE#         526
  C:68B2H         LINE#         527
  C:68BBH         LINE#         528
  C:68C0H         LINE#         529
  C:68C0H         LINE#         530
  C:68C2H         LINE#         532
  C:68C2H         LINE#         533
  C:68C8H         LINE#         534
  C:68C8H         LINE#         536
  C:68C8H         LINE#         537
  C:68CAH         LINE#         539
  C:68CAH         LINE#         541
  C:68CFH         LINE#         542
  C:68CFH         LINE#         543
  C:68D4H         LINE#         544
  -------         ENDPROC       INGRESO_VEHICULO
  -------         PROC          RESPONDE_ESTADO_SENSORES_TRANSPORTE
  C:5E2CH         LINE#         546
  C:5E2CH         LINE#         547
  C:5E2CH         LINE#         548
  C:5E35H         LINE#         549
  C:5E49H         LINE#         550
  C:5E51H         LINE#         551
  C:5E51H         LINE#         553
  C:5E5CH         LINE#         554
  C:5E5CH         LINE#         555
  C:5E60H         LINE#         556
  C:5E60H         LINE#         557
  C:5E69H         LINE#         558
  C:5E6EH         LINE#         559
  C:5E73H         LINE#         561
  C:5E75H         LINE#         563
  C:5E75H         LINE#         564
  C:5E7DH         LINE#         566
  C:5E7DH         LINE#         567
  C:5E7FH         LINE#         569
  C:5E7FH         LINE#         571
  C:5E88H         LINE#         573
  C:5E8DH         LINE#         574
  C:5E8DH         LINE#         575
  C:5E8DH         LINE#         576
  C:5E8FH         LINE#         577
  C:5E96H         LINE#         578
  C:5E96H         LINE#         580
BL51 BANKED LINKER/LOCATER V6.22.2.0                                                  04/22/2020  15:25:24  PAGE 84


  C:5E9FH         LINE#         581
  C:5EA4H         LINE#         582
  C:5EAAH         LINE#         583
  C:5EACH         LINE#         585
  C:5EACH         LINE#         586
  C:5EB1H         LINE#         587
  C:5EB1H         LINE#         588
  C:5EB6H         LINE#         589
  -------         ENDPROC       RESPONDE_ESTADO_SENSORES_TRANSPORTE
  -------         PROC          SECUENCIA_INICIO_EXPEDIDOR
  -------         DO            
  X:0022H         SYMBOL        temp
  -------         ENDDO         
  C:3EFEH         LINE#         596
  C:3EFEH         LINE#         597
  C:3EFEH         LINE#         599
  C:3F1EH         LINE#         600
  C:3F1EH         LINE#         601
  C:3F1EH         LINE#         604
  C:3F23H         LINE#         605
  C:3F29H         LINE#         608
  C:3F2BH         LINE#         609
  C:3F2BH         LINE#         620
  C:3F2BH         LINE#         622
  C:3F39H         LINE#         623
  C:3F39H         LINE#         624
  C:3F45H         LINE#         625
  C:3F45H         LINE#         626
  C:3F4BH         LINE#         627
  C:3F4EH         LINE#         628
  C:3F56H         LINE#         629
  C:3F56H         LINE#         630
  C:3F5DH         LINE#         631
  C:3F71H         LINE#         632
  C:3F71H         LINE#         633
  C:3F73H         LINE#         635
  C:3F73H         LINE#         636
  C:3F7AH         LINE#         637
  C:3F80H         LINE#         638
  C:3F80H         LINE#         639
  C:3F83H         LINE#         641
  C:3F83H         LINE#         642
  C:3F8CH         LINE#         643
  C:3FA0H         LINE#         644
  C:3FA6H         LINE#         645
  C:3FA6H         LINE#         646
  C:3FA9H         LINE#         647
  C:3FA9H         LINE#         653
  C:3FA9H         LINE#         655
  C:3FACH         LINE#         656
  C:3FB2H         LINE#         660
  C:3FB4H         LINE#         661
  C:3FB4H         LINE#         671
  C:3FB4H         LINE#         673
  C:3FC2H         LINE#         674
  C:3FC2H         LINE#         675
  C:3FCEH         LINE#         676
BL51 BANKED LINKER/LOCATER V6.22.2.0                                                  04/22/2020  15:25:24  PAGE 85


  C:3FCEH         LINE#         677
  C:3FD4H         LINE#         678
  C:3FD6H         LINE#         679
  C:3FDEH         LINE#         680
  C:3FDEH         LINE#         681
  C:3FE5H         LINE#         682
  C:3FF9H         LINE#         683
  C:3FF9H         LINE#         684
  C:3FFBH         LINE#         686
  C:3FFBH         LINE#         687
  C:4002H         LINE#         688
  C:4008H         LINE#         689
  C:4008H         LINE#         690
  C:400AH         LINE#         692
  C:400AH         LINE#         693
  C:4013H         LINE#         694
  C:4027H         LINE#         695
  C:402CH         LINE#         696
  C:402CH         LINE#         698
  C:402EH         LINE#         699
  C:402EH         LINE#         705
  C:402EH         LINE#         707
  C:4034H         LINE#         708
  C:4034H         LINE#         711
  C:4034H         LINE#         712
  C:403BH         LINE#         713
  C:403BH         LINE#         714
  C:403BH         LINE#         715
  -------         ENDPROC       SECUENCIA_INICIO_EXPEDIDOR
  -------         PROC          _SECUENCIAEXPEDIDORMF
  X:0022H         SYMBOL        Estado_Comunicacion_Secuencia_MF
  C:59B0H         LINE#         725
  C:59B5H         LINE#         726
  C:59B5H         LINE#         736
  C:59C2H         LINE#         737
  C:59C2H         LINE#         740
  C:59C2H         LINE#         742
  C:59CAH         LINE#         743
  C:59CAH         LINE#         745
  C:59CCH         LINE#         746
  C:59D1H         LINE#         747
  C:59D7H         LINE#         749
  C:59D7H         LINE#         751
  C:59D9H         LINE#         752
  C:59D9H         LINE#         753
  C:59E9H         LINE#         754
  C:59F2H         LINE#         755
  C:59FAH         LINE#         756
  C:5A03H         LINE#         758
  C:5A05H         LINE#         780
  C:5A05H         LINE#         781
  C:5A0EH         LINE#         782
  C:5A22H         LINE#         783
  C:5A2AH         LINE#         784
  C:5A30H         LINE#         785
  C:5A32H         LINE#         786
  C:5A32H         LINE#         787
BL51 BANKED LINKER/LOCATER V6.22.2.0                                                  04/22/2020  15:25:24  PAGE 86


  C:5A37H         LINE#         788
  C:5A39H         LINE#         881
  C:5A39H         LINE#         882
  C:5A3EH         LINE#         883
  C:5A3EH         LINE#         885
  C:5A3EH         LINE#         886
  C:5A43H         LINE#         887
  -------         ENDPROC       _SECUENCIAEXPEDIDORMF
  -------         ENDMOD        VERIFICADOR

  -------         MODULE        ?C?FPADD
  C:002DH         PUBLIC        ?C?FPADD
  C:0029H         PUBLIC        ?C?FPSUB
  -------         ENDMOD        ?C?FPADD

  -------         MODULE        ?C?FPMUL
  C:011EH         PUBLIC        ?C?FPMUL
  -------         ENDMOD        ?C?FPMUL

  -------         MODULE        ?C?FCAST
  C:022EH         PUBLIC        ?C?FCASTC
  C:0229H         PUBLIC        ?C?FCASTI
  C:0224H         PUBLIC        ?C?FCASTL
  -------         ENDMOD        ?C?FCAST

  -------         MODULE        ?C?CASTF
  C:0262H         PUBLIC        ?C?CASTF
  -------         ENDMOD        ?C?CASTF

  -------         MODULE        PRINTF
  X:008EH         PUBLIC        ?_PRINTF?BYTE
  X:008EH         PUBLIC        ?_SPRINTF?BYTE
  C:18B3H         PUBLIC        _PRINTF
  C:18ADH         PUBLIC        _SPRINTF
  -------         ENDMOD        PRINTF

  -------         MODULE        POW
  X:003DH         PUBLIC        ?_pow?BYTE
  C:39ACH         PUBLIC        _pow
  -------         ENDMOD        POW

  -------         MODULE        ?C?CHKFLOAT
  C:02E3H         PUBLIC        ?C?CHKFLOAT
  -------         ENDMOD        ?C?CHKFLOAT

  -------         MODULE        ?C?FPCMP
  C:02FFH         PUBLIC        ?C?FPCMP
  C:02FDH         PUBLIC        ?C?FPCMP3
  -------         ENDMOD        ?C?FPCMP

  -------         MODULE        ?C?FPNEG
  C:0376H         PUBLIC        ?C?FPNEG
  -------         ENDMOD        ?C?FPNEG

  -------         MODULE        ?C?FPROUND
  C:0387H         PUBLIC        ?C?FPROUND
  -------         ENDMOD        ?C?FPROUND
BL51 BANKED LINKER/LOCATER V6.22.2.0                                                  04/22/2020  15:25:24  PAGE 87



  -------         MODULE        ?C?FPCONVERT
  C:03C4H         PUBLIC        ?C?FPCONVERT
  -------         ENDMOD        ?C?FPCONVERT

  -------         MODULE        EXP
  C:5820H         PUBLIC        _EXP
  -------         ENDMOD        EXP

  -------         MODULE        LOG
  C:4070H         PUBLIC        _LOG
  C:406CH         PUBLIC        _LOG10
  -------         ENDMOD        LOG

  -------         MODULE        ?C?FPDIV
  C:04CCH         PUBLIC        ?C?FPDIV
  -------         ENDMOD        ?C?FPDIV

  -------         MODULE        ?C?FTNPWR
  C:0599H         PUBLIC        ?C?FTNPWR
  -------         ENDMOD        ?C?FTNPWR

  -------         MODULE        ?C?COPY
  C:06F6H         PUBLIC        ?C?COPY
  -------         ENDMOD        ?C?COPY

  -------         MODULE        ?C?CLDPTR
  C:071CH         PUBLIC        ?C?CLDPTR
  -------         ENDMOD        ?C?CLDPTR

  -------         MODULE        ?C?CLDOPTR
  C:0735H         PUBLIC        ?C?CLDOPTR
  -------         ENDMOD        ?C?CLDOPTR

  -------         MODULE        ?C?CSTPTR
  C:0762H         PUBLIC        ?C?CSTPTR
  -------         ENDMOD        ?C?CSTPTR

  -------         MODULE        ?C?CSTOPTR
  C:0774H         PUBLIC        ?C?CSTOPTR
  -------         ENDMOD        ?C?CSTOPTR

  -------         MODULE        ?C?UIDIV
  C:0796H         PUBLIC        ?C?UIDIV
  -------         ENDMOD        ?C?UIDIV

  -------         MODULE        ?C?IILDX
  C:07EBH         PUBLIC        ?C?IILDX
  -------         ENDMOD        ?C?IILDX

  -------         MODULE        ?C?LNEG
  C:0801H         PUBLIC        ?C?LNEG
  -------         ENDMOD        ?C?LNEG

  -------         MODULE        ?C?ULSHR
  C:080FH         PUBLIC        ?C?ULSHR
  -------         ENDMOD        ?C?ULSHR
BL51 BANKED LINKER/LOCATER V6.22.2.0                                                  04/22/2020  15:25:24  PAGE 88



  -------         MODULE        ?C?LSHL
  C:0822H         PUBLIC        ?C?LSHL
  -------         ENDMOD        ?C?LSHL

  -------         MODULE        ?C?LLDCODE
  C:0835H         PUBLIC        ?C?LLDCODE
  -------         ENDMOD        ?C?LLDCODE

  -------         MODULE        ?C?LLDXDATA0
  C:0845H         PUBLIC        ?C?LLDXDATA0
  -------         ENDMOD        ?C?LLDXDATA0

  -------         MODULE        ?C?LLDCODE0
  C:0851H         PUBLIC        ?C?LLDCODE0
  -------         ENDMOD        ?C?LLDCODE0

  -------         MODULE        ?C?LSTXDATA
  C:0861H         PUBLIC        ?C?LSTXDATA
  -------         ENDMOD        ?C?LSTXDATA

  -------         MODULE        ?C?LSTKXDATA
  C:086DH         PUBLIC        ?C?LSTKXDATA
  -------         ENDMOD        ?C?LSTKXDATA

  -------         MODULE        ?C?PLDIXDATA
  C:089EH         PUBLIC        ?C?PLDIXDATA
  -------         ENDMOD        ?C?PLDIXDATA

  -------         MODULE        ?C?PSTXDATA
  C:08B5H         PUBLIC        ?C?PSTXDATA
  -------         ENDMOD        ?C?PSTXDATA

  -------         MODULE        ?C?CCASE
  C:08BEH         PUBLIC        ?C?CCASE
  -------         ENDMOD        ?C?CCASE

  -------         MODULE        STRCAT
  X:007EH         PUBLIC        ?_strcat?BYTE
  C:6595H         PUBLIC        _strcat
  -------         ENDMOD        STRCAT

  -------         MODULE        ?C?STRCMP
  C:0A62H         PUBLIC        ?C?STRCMP
  -------         ENDMOD        ?C?STRCMP

  -------         MODULE        ?C?STRCPY
  C:0B4BH         PUBLIC        ?C?STRCPY
  -------         ENDMOD        ?C?STRCPY

  -------         MODULE        STRLEN
  C:000EH         PUBLIC        _STRLEN
  -------         ENDMOD        STRLEN

  -------         MODULE        STRTOK
  X:0089H         PUBLIC        ?_strtok?BYTE
  C:4B6EH         PUBLIC        _strtok
BL51 BANKED LINKER/LOCATER V6.22.2.0                                                  04/22/2020  15:25:24  PAGE 89


  -------         ENDMOD        STRTOK

  -------         MODULE        ATOL
  C:438AH         PUBLIC        _atol
  -------         ENDMOD        ATOL

  -------         MODULE        ATOI
  C:4C52H         PUBLIC        _atoi
  -------         ENDMOD        ATOI

  -------         MODULE        ?C?IMUL
  C:0B68H         PUBLIC        ?C?IMUL
  -------         ENDMOD        ?C?IMUL

  -------         MODULE        ?C?ILDIX
  C:0B7AH         PUBLIC        ?C?ILDIX
  -------         ENDMOD        ?C?ILDIX

  -------         MODULE        ?C?LMUL
  C:0B90H         PUBLIC        ?C?LMUL
  -------         ENDMOD        ?C?LMUL

  -------         MODULE        ISDIGIT
  C:7088H         PUBLIC        _isdigit
  -------         ENDMOD        ISDIGIT

  -------         MODULE        ISSPACE
  C:6FE8H         PUBLIC        _isspace
  -------         ENDMOD        ISSPACE

  -------         MODULE        STRSPN
  X:008FH         PUBLIC        ?_strspn?BYTE
  C:5FC7H         PUBLIC        _strspn
  -------         ENDMOD        STRSPN

  -------         MODULE        STRPBRK
  X:008FH         PUBLIC        ?_strpbrk?BYTE
  C:60CEH         PUBLIC        _strpbrk
  -------         ENDMOD        STRPBRK

*** WARNING L16: UNCALLED SEGMENT, IGNORED FOR OVERLAY PROCESS
    SEGMENT: ?PR?_CMD_LPR_SALIDA?ACCESCAN

*** WARNING L16: UNCALLED SEGMENT, IGNORED FOR OVERLAY PROCESS
    SEGMENT: ?PR?CMD_LPR_INT?ACCESCAN

*** WARNING L16: UNCALLED SEGMENT, IGNORED FOR OVERLAY PROCESS
    SEGMENT: ?PR?_CHECK_FECHAOUT?CLOCK

*** WARNING L16: UNCALLED SEGMENT, IGNORED FOR OVERLAY PROCESS
    SEGMENT: ?PR?_ANALIZA_TIEMPO?CLOCK

*** WARNING L16: UNCALLED SEGMENT, IGNORED FOR OVERLAY PROCESS
    SEGMENT: ?PR?_TRAMA_PTO_PARALELO_P?PTO_PARALELO

*** WARNING L16: UNCALLED SEGMENT, IGNORED FOR OVERLAY PROCESS
    SEGMENT: ?PR?_TRAMA_PTO_PARALELO_NEW?PTO_PARALELO
BL51 BANKED LINKER/LOCATER V6.22.2.0                                                  04/22/2020  15:25:24  PAGE 90



*** WARNING L16: UNCALLED SEGMENT, IGNORED FOR OVERLAY PROCESS
    SEGMENT: ?PR?_DEBUG_HEXDEC?TIBBO

*** WARNING L16: UNCALLED SEGMENT, IGNORED FOR OVERLAY PROCESS
    SEGMENT: ?PR?AUT_CARD_CHECK_STATUS?LINTECH

*** WARNING L16: UNCALLED SEGMENT, IGNORED FOR OVERLAY PROCESS
    SEGMENT: ?PR?LOADVERIFY_EEPROM?LINTECH

*** WARNING L16: UNCALLED SEGMENT, IGNORED FOR OVERLAY PROCESS
    SEGMENT: ?PR?_RD_MF?LINTECH

*** WARNING L16: UNCALLED SEGMENT, IGNORED FOR OVERLAY PROCESS
    SEGMENT: ?PR?_WR_MF?LINTECH

Program Size: data=119.7 xdata=655 code=28938
LINK/LOCATE RUN COMPLETE.  11 WARNING(S),  0 ERROR(S)
