BL51 BANKED LINKER/LOCATER V6.22.2.0                                                    05/27/2021  15:12:49  PAGE 1


BL51 BANKED LINKER/LOCATER V6.22.2.0, INVOKED BY:
C:\KEIL_V5\C51\BIN\BL51.EXE .\Objects\main.obj, .\Objects\Accescan.obj, .\Objects\Clock.obj, .\Objects\delay.obj, .\Obje
>> cts\eeprom.obj, .\Objects\io_sensores.obj, .\Objects\pantallas.obj, .\Objects\prog.obj, .\Objects\pto_paralelo.obj, .
>> \Objects\tibbo.obj, .\Objects\uart.obj, .\Objects\lintech.obj, .\Objects\verificador.obj, .\Objects\Monitor.obj TO .\
>> Objects\expedidor_v_01_raspberry PRINT (.\Listings\expedidor_v_01_raspberry.m51) RAMSIZE (256)


MEMORY MODEL: LARGE WITH FLOATING POINT ARITHMETIC


INPUT MODULES INCLUDED:
  .\Objects\main.obj (MAIN)
  .\Objects\Accescan.obj (ACCESCAN)
  .\Objects\Clock.obj (CLOCK)
  .\Objects\delay.obj (DELAY)
  .\Objects\eeprom.obj (EEPROM)
  .\Objects\io_sensores.obj (IO_SENSORES)
  .\Objects\pantallas.obj (PANTALLAS)
  .\Objects\prog.obj (PROG)
  .\Objects\pto_paralelo.obj (PTO_PARALELO)
  .\Objects\tibbo.obj (TIBBO)
  .\Objects\uart.obj (UART)
  .\Objects\lintech.obj (LINTECH)
  .\Objects\verificador.obj (VERIFICADOR)
  .\Objects\Monitor.obj (MONITOR)
  C:\KEIL_V5\C51\LIB\C51FPL.LIB (?C?FPADD)
  C:\KEIL_V5\C51\LIB\C51FPL.LIB (?C?FPMUL)
  C:\KEIL_V5\C51\LIB\C51FPL.LIB (?C?FCAST)
  C:\KEIL_V5\C51\LIB\C51FPL.LIB (?C?CASTF)
  C:\KEIL_V5\C51\LIB\C51FPL.LIB (PRINTF)
  C:\KEIL_V5\C51\LIB\C51FPL.LIB (POW)
  C:\KEIL_V5\C51\LIB\C51FPL.LIB (?C?FPGETOPN)
  C:\KEIL_V5\C51\LIB\C51FPL.LIB (?C?CHKFLOAT)
  C:\KEIL_V5\C51\LIB\C51FPL.LIB (?C?FPCMP)
  C:\KEIL_V5\C51\LIB\C51FPL.LIB (?C?FPNEG)
  C:\KEIL_V5\C51\LIB\C51FPL.LIB (?C?FPROUND)
  C:\KEIL_V5\C51\LIB\C51FPL.LIB (?C?FPCONVERT)
  C:\KEIL_V5\C51\LIB\C51FPL.LIB (EXP)
  C:\KEIL_V5\C51\LIB\C51FPL.LIB (LOG)
  C:\KEIL_V5\C51\LIB\C51FPL.LIB (?C?FPDIV)
  C:\KEIL_V5\C51\LIB\C51FPL.LIB (?C?FTNPWR)
  C:\KEIL_V5\C51\LIB\C51FPL.LIB (?C?FPSERIES)
  C:\KEIL_V5\C51\LIB\C51L.LIB (?C_STARTUP)
  C:\KEIL_V5\C51\LIB\C51L.LIB (?C?COPY)
  C:\KEIL_V5\C51\LIB\C51L.LIB (?C?CLDPTR)
  C:\KEIL_V5\C51\LIB\C51L.LIB (?C?CLDOPTR)
  C:\KEIL_V5\C51\LIB\C51L.LIB (?C?CSTPTR)
  C:\KEIL_V5\C51\LIB\C51L.LIB (?C?CSTOPTR)
  C:\KEIL_V5\C51\LIB\C51L.LIB (?C?IMUL)
  C:\KEIL_V5\C51\LIB\C51L.LIB (?C?IILDX)
  C:\KEIL_V5\C51\LIB\C51L.LIB (?C?LNEG)
  C:\KEIL_V5\C51\LIB\C51L.LIB (?C?SLCMP)
  C:\KEIL_V5\C51\LIB\C51L.LIB (?C?ULCMP)
  C:\KEIL_V5\C51\LIB\C51L.LIB (?C?ULSHR)
  C:\KEIL_V5\C51\LIB\C51L.LIB (?C?LSHL)
  C:\KEIL_V5\C51\LIB\C51L.LIB (?C?LLDCODE)
  C:\KEIL_V5\C51\LIB\C51L.LIB (?C?LLDXDATA0)
  C:\KEIL_V5\C51\LIB\C51L.LIB (?C?LLDCODE0)
BL51 BANKED LINKER/LOCATER V6.22.2.0                                                  05/27/2021  15:12:49  PAGE 2


  C:\KEIL_V5\C51\LIB\C51L.LIB (?C?LSTXDATA)
  C:\KEIL_V5\C51\LIB\C51L.LIB (?C?LSTKXDATA)
  C:\KEIL_V5\C51\LIB\C51L.LIB (?C?PLDIXDATA)
  C:\KEIL_V5\C51\LIB\C51L.LIB (?C?PSTXDATA)
  C:\KEIL_V5\C51\LIB\C51L.LIB (?C?CCASE)
  C:\KEIL_V5\C51\LIB\C51L.LIB (STRCAT)
  C:\KEIL_V5\C51\LIB\C51L.LIB (?C?STRCMP)
  C:\KEIL_V5\C51\LIB\C51L.LIB (?C?STRCPY)
  C:\KEIL_V5\C51\LIB\C51L.LIB (STRLEN)
  C:\KEIL_V5\C51\LIB\C51L.LIB (STRTOK)
  C:\KEIL_V5\C51\LIB\C51L.LIB (ATOL)
  C:\KEIL_V5\C51\LIB\C51L.LIB (ATOI)
  C:\KEIL_V5\C51\LIB\C51L.LIB (?C_INIT)
  C:\KEIL_V5\C51\LIB\C51L.LIB (?C?ILDIX)
  C:\KEIL_V5\C51\LIB\C51L.LIB (?C?LMUL)
  C:\KEIL_V5\C51\LIB\C51L.LIB (ISDIGIT)
  C:\KEIL_V5\C51\LIB\C51L.LIB (ISSPACE)
  C:\KEIL_V5\C51\LIB\C51L.LIB (STRSPN)
  C:\KEIL_V5\C51\LIB\C51L.LIB (STRPBRK)


LINK MAP OF MODULE:  .\Objects\expedidor_v_01_raspberry (MAIN)


            TYPE    BASE      LENGTH    RELOCATION   SEGMENT NAME
            -----------------------------------------------------

            * * * * * * *   D A T A   M E M O R Y   * * * * * * *
            REG     0000H     0008H     ABSOLUTE     "REG BANK 0"
            DATA    0008H     0005H     UNIT         _DATA_GROUP_
            DATA    000DH     0004H     UNIT         ?DT?UART
            IDATA   0011H     0009H     UNIT         ?ID?MONITOR
                    001AH     0006H                  *** GAP ***
            BIT     0020H.0   0001H.1   UNIT         _BIT_GROUP_
            BIT     0021H.1   0000H.3   UNIT         ?BI?MAIN
            BIT     0021H.4   0000H.2   UNIT         ?BI?UART
            BIT     0021H.6   0000H.1   UNIT         ?BI?EEPROM
            BIT     0021H.7   0000H.1   UNIT         ?BI?IO_SENSORES
            BIT     0022H.0   0000H.1   UNIT         ?BI?VERIFICADOR
                    0022H.1   0000H.7                *** GAP ***
            IDATA   0023H     0046H     UNIT         ?ID?MAIN
            IDATA   0069H     0001H     UNIT         ?STACK

            * * * * * * *  X D A T A   M E M O R Y  * * * * * * *
            XDATA   0000H     00B7H     UNIT         _XDATA_GROUP_
            XDATA   00B7H     008CH     UNIT         ?XD?VERIFICADOR
            XDATA   0143H     006CH     UNIT         ?XD?MAIN
            XDATA   01AFH     0059H     UNIT         ?XD?PROG
            XDATA   0208H     0003H     UNIT         ?XD?EEPROM
            XDATA   020BH     0003H     UNIT         ?XD?UART
            XDATA   020EH     0003H     UNIT         ?XD?STRTOK
            XDATA   0211H     0002H     UNIT         ?XD?IO_SENSORES
            XDATA   0213H     0001H     UNIT         ?XD?ACCESCAN
            XDATA   0214H     0001H     UNIT         ?XD?CLOCK

            * * * * * * *   C O D E   M E M O R Y   * * * * * * *
            CODE    0000H     0003H     ABSOLUTE     
BL51 BANKED LINKER/LOCATER V6.22.2.0                                                  05/27/2021  15:12:49  PAGE 3


            CODE    0003H     0008H     UNIT         ?PR?P_CK?CLOCK
            CODE    000BH     0003H     ABSOLUTE     
            CODE    000EH     0015H     UNIT         ?PR?_STRLEN?STRLEN
            CODE    0023H     0003H     ABSOLUTE     
            CODE    0026H     1308H     UNIT         ?CO?PROG
            CODE    132EH     0B8BH     UNIT         ?C?LIB_CODE
            CODE    1EB9H     08BDH     UNIT         ?CO?VERIFICADOR
            CODE    2776H     0747H     UNIT         ?PR?_PANTALLALCD?PANTALLAS
            CODE    2EBDH     06EFH     UNIT         ?CO?PANTALLAS
            CODE    35ACH     04DAH     UNIT         ?PR?_SECUENCIAEXPEDIDORMF?VERIFICADOR
            CODE    3A86H     0483H     UNIT         ?PR?PRINTF?PRINTF
            CODE    3F09H     0437H     UNIT         ?PR?_VALIDA_TRAMA_PTO?ACCESCAN
            CODE    4340H     035CH     UNIT         ?PR?VER_PROG?PROG
            CODE    469CH     02D0H     UNIT         ?PR?_TWO_BYTEHEX_DECIMAL?CLOCK
            CODE    496CH     02B7H     UNIT         ?PR?_PROG_HORARIO_DIAS?PROG
            CODE    4C23H     02A5H     UNIT         ?PR?_PANTALLALCD_LINEA_2?PANTALLAS
            CODE    4EC8H     023FH     UNIT         ?PR?_ARMAR_TRAMA_PTO_PARALELO_EXPEDIDOR?VERIFICADOR
            CODE    5107H     022CH     UNIT         ?PR?MENU?PROG
            CODE    5333H     0208H     UNIT         ?PR?_HASH_ID?PROG
            CODE    553BH     01FAH     UNIT         ?PR?_PROG_HORARIO_DESDE_HASTA?PROG
            CODE    5735H     01F5H     UNIT         ?PR?PROG_FECHA_VENCIMIENTO?PROG
            CODE    592AH     01F3H     UNIT         ?PR?_ARMAR_TRAMA_TARJETA_SECTOR1_BLOQUE2?VERIFICADOR
            CODE    5B1DH     01DFH     UNIT         ?PR?_RESPONDE_LECTURA_TARJETA_SECTOR1_BLOQUE1?VERIFICADOR
            CODE    5CFCH     01CFH     UNIT         ?PR?_BLOCK_READ_CLOCK_ASCII_RASBERRY?CLOCK
            CODE    5ECBH     01B3H     UNIT         ?PR?COM_ISR?UART
            CODE    607EH     01A4H     UNIT         ?PR?_VALIDA_TIPO_TARJETA?VERIFICADOR
            CODE    6222H     01A3H     UNIT         ?CO?LINTECH
            CODE    63C5H     016FH     UNIT         ?PR?_BLOCK_READ_CLOCK_ASCII?CLOCK
            CODE    6534H     0166H     UNIT         ?PR?_POW?POW
            CODE    669AH     0157H     UNIT         ?PR?_RESPONDE_REELECTURA_TARJETA_SECTOR1_BLOQUE2?VERIFICADOR
            CODE    67F1H     0154H     UNIT         ?PR?_ARMAR_TRAMA_MONITOR?VERIFICADOR
            CODE    6945H     0145H     UNIT         ?PR?PROG_HORARIOS?PROG
            CODE    6A8AH     013EH     UNIT         ?PR?PROG_SIN_COBRO?PROG
            CODE    6BC8H     013EH     UNIT         ?PR?SECUENCIA_INICIO_EXPEDIDOR?VERIFICADOR
            CODE    6D06H     013CH     UNIT         ?PR?LOAD_AND_SEND_ID_COD?PTO_PARALELO
            CODE    6E42H     0137H     UNIT         ?PR?VER_HORARIO?PROG
            CODE    6F79H     012BH     UNIT         ?PR?_RESPONDE_LECTURA_TARJETA_SECTOR1_BLOQUE2?VERIFICADOR
            CODE    70A4H     0129H     UNIT         ?PR?LOG?LOG
            CODE    71CDH     0128H     UNIT         ?PR?_VER_HORARIO_DIAS?PROG
            CODE    72F5H     011AH     UNIT         ?PR?_PROG_HORARIOS_ON_OFF?PROG
            CODE    740FH     0119H     UNIT         ?PR?_VER_HORARIO_DESDE_HASTA?PROG
            CODE    7528H     0115H     UNIT         ?PR?_VALIDAR_CLK?CLOCK
            CODE    763DH     010FH     UNIT         ?PR?_HORARIOS?VERIFICADOR
            CODE    774CH     010CH     UNIT         ?PR?_ATOL?ATOL
            CODE    7858H     0103H     UNIT         ?PR?_BLOQUE_HORARIO?VERIFICADOR
            CODE    795BH     0100H     UNIT         ?PR?_WR_MF?LINTECH
            CODE    7A5BH     00FCH     UNIT         ?PR?PROG_DEBUG?PROG
            CODE    7B57H     00FCH     UNIT         ?PR?PROG_USE_LPR?PROG
            CODE    7C53H     00FCH     UNIT         ?PR?TIPO_PANTALLA?PROG
            CODE    7D4FH     00FCH     UNIT         ?PR?PROG_ANTIPASSBACK?PROG
            CODE    7E4BH     00FCH     UNIT         ?PR?PROG_PLACA?PROG
            CODE    7F47H     00FCH     UNIT         ?PR?PROG_VALIDAR_TIPO_VEHICULO_MENSUAL?PROG
            CODE    8043H     00FCH     UNIT         ?PR?PROG_APB_MENSUAL?PROG
            CODE    813FH     00F1H     UNIT         ?PR?_WRITE_EEPROM_TICKET?EEPROM
            CODE    8230H     00EAH     UNIT         ?PR?_MOV_CARD?LINTECH
            CODE    831AH     00E9H     UNIT         ?PR?_ARMAR_TRAMA_PTO_PARALELO_EXPEDIDOR_MENSUAL?VERIFICADOR
            CODE    8403H     00E4H     UNIT         ?PR?_STRTOK?STRTOK
BL51 BANKED LINKER/LOCATER V6.22.2.0                                                  05/27/2021  15:12:49  PAGE 4


            CODE    84E7H     00DEH     UNIT         ?PR?PROG_ADDRESS_HIGH_BOARD?PROG
            CODE    85C5H     00DBH     UNIT         ?PR?_ATOI?ATOI
            CODE    86A0H     00D7H     UNIT         ?PR?_ANALIZA_UID_CARD?VERIFICADOR
            CODE    8777H     00D6H     UNIT         ?PR?_CMD_LPR_SALIDA_WIEGAND?ACCESCAN
            CODE    884DH     00D3H     UNIT         ?C_INITSEG
            CODE    8920H     00CCH     UNIT         ?PR?_GRABA_SERIE?EEPROM
            CODE    89ECH     00CBH     UNIT         ?PR?_RTA_CMD_TRANSPORTE?VERIFICADOR
            CODE    8AB7H     00CAH     UNIT         ?PR?READ_EEPROM_TICKET?EEPROM
            CODE    8B81H     00C9H     UNIT         ?PR?_CHECK_FECHAOUT?CLOCK
            CODE    8C4AH     00C5H     UNIT         ?PR?_BLOCK_READ_CLOCK?CLOCK
            CODE    8D0FH     00C4H     UNIT         ?PR?_TARJETA_MENSUAL?VERIFICADOR
            CODE    8DD3H     00C3H     UNIT         ?PR?_RD_MF?LINTECH
            CODE    8E96H     00C2H     UNIT         ?PR?PROG_TARJETA_AUTOMATICA_O_BOTON?PROG
            CODE    8F58H     00C1H     UNIT         ?PR?_RECIBE_CMD_MONITOR?MONITOR
            CODE    9019H     00BFH     UNIT         ?CO?IO_SENSORES
            CODE    90D8H     00BEH     UNIT         ?PR?ERROR_RX_PTO?VERIFICADOR
            CODE    9196H     00BDH     UNIT         ?PR?PROG_COD_PARK?PROG
            CODE    9253H     00BDH     UNIT         ?PR?PROG_TIEMPO_GRACIA?PROG
            CODE    9310H     00BBH     UNIT         ?PR?_VALIDA_TRAMA_MONITOR?MONITOR
            CODE    93CBH     00B9H     UNIT         ?CO?TIBBO
            CODE    9484H     00B6H     UNIT         ?PR?PROG_ID_CLIENTE?PROG
            CODE    953AH     00B5H     UNIT         ?PR?_WAIT_PLACA?VERIFICADOR
            CODE    95EFH     00B4H     UNIT         ?PR?_SEND_PORT?PTO_PARALELO
            CODE    96A3H     00ACH     UNIT         ?PR?_HORA_MAXIMA?VERIFICADOR
            CODE    974FH     00AAH     UNIT         ?PR?CLAVE_SEGURIDAD_S2?LINTECH
            CODE    97F9H     00A9H     UNIT         ?PR?DWLOAD_EEPROM?LINTECH
            CODE    98A2H     00A7H     UNIT         ?PR?_BLOCK_READ_CLOCK_HEX?CLOCK
            CODE    9949H     00A5H     UNIT         ?PR?_SEND_PTO_PARALELO?VERIFICADOR
            CODE    99EEH     00A4H     UNIT         ?PR?_ARMAR_TRAMA_TARJETA_SECTOR1_BLOQUE1_CAMCEL?VERIFICADOR
            CODE    9A92H     00A1H     UNIT         ?PR?_BLOCK_WRITE_CLOCK_ASCII?CLOCK
            CODE    9B33H     009DH     UNIT         ?PR?_INICIALIZA?LINTECH
            CODE    9BD0H     009CH     UNIT         ?PR?_RESPUESTA_PLACA_CANCEL?VERIFICADOR
            CODE    9C6CH     009AH     UNIT         ?PR?_RESPONDE_LECTURA_TARJETA_SECTOR1_BLOQUE0?VERIFICADOR
            CODE    9D06H     009AH     UNIT         ?PR?EXP?EXP
            CODE    9DA0H     0099H     UNIT         ?PR?SHOW?PROG
            CODE    9E39H     0099H     UNIT         ?PR?_RECIBE_PORT?PTO_PARALELO
            CODE    9ED2H     0098H     UNIT         ?PR?_VALIDA_VEHICULO_CARD_MENSUAL?VERIFICADOR
            CODE    9F6AH     0091H     UNIT         ?PR?_HEX_ASCII?CLOCK
            CODE    9FFBH     0091H     UNIT         ?PR?_CARD_INSERCION?LINTECH
            CODE    A08CH     0090H     UNIT         ?PR?_GETOPTION?PROG
            CODE    A11CH     0090H     UNIT         ?PR?_DISPARO_LOCK_ENTRADA_VEHICULO?VERIFICADOR
            CODE    A1ACH     0090H     UNIT         ?PR?ENTREGA_CARD_CAPTURA?VERIFICADOR
            CODE    A23CH     008FH     UNIT         ?PR?_LEE_CLK?CLOCK
            CODE    A2CBH     008DH     UNIT         ?PR?LOADVERIFY_EEPROM?LINTECH
            CODE    A358H     008CH     UNIT         ?C_C51STARTUP
            CODE    A3E4H     0088H     UNIT         ?PR?_SEND_PORTERR?PTO_PARALELO
            CODE    A46CH     0088H     UNIT         ?PR?RX_DATA?TIBBO
            CODE    A4F4H     0088H     UNIT         ?PR?UNIQUE_IDENTIFIER_UID?LINTECH
            CODE    A57CH     0086H     UNIT         ?PR?_CHECK_STATUS?LINTECH
            CODE    A602H     0084H     UNIT         ?PR?MSJ_LCD_INFORMATIVO?IO_SENSORES
            CODE    A686H     0084H     UNIT         ?PR?_DEBUGBUFFERMF?TIBBO
            CODE    A70AH     0084H     UNIT         ?PR?_STRSPN?STRSPN
            CODE    A78EH     0083H     UNIT         ?PR?_RASPBERRY_DATA?PANTALLAS
            CODE    A811H     0081H     UNIT         ?PR?_STRPBRK?STRPBRK
            CODE    A892H     0080H     UNIT         ?PR?_INGRESADATO?PROG
            CODE    A912H     0080H     UNIT         ?PR?AUT_CARD_CHECK_STATUS?LINTECH
            CODE    A992H     0080H     UNIT         ?PR?POWER_OFF?LINTECH
BL51 BANKED LINKER/LOCATER V6.22.2.0                                                  05/27/2021  15:12:49  PAGE 5


            CODE    AA12H     007FH     UNIT         ?PR?MAIN?MAIN
            CODE    AA91H     007DH     UNIT         ?PR?RELOJ_PANTALLA_LCD?PANTALLAS
            CODE    AB0EH     007CH     UNIT         ?PR?RESPONDE_ESTADO_SENSORES_TRANSPORTE?VERIFICADOR
            CODE    AB8AH     0077H     UNIT         ?PR?RESPONDE_TIPO_TARJETA?VERIFICADOR
            CODE    AC01H     0071H     UNIT         ?PR?_EN_HORARIO?VERIFICADOR
            CODE    AC72H     006FH     UNIT         ?PR?_ESCRIBIRMEMORIA?EEPROM
            CODE    ACE1H     006CH     UNIT         ?PR?_RESPONDE_WRITE_TARJETA_SECTOR1_BLOQUE2?VERIFICADOR
            CODE    AD4DH     006BH     UNIT         ?PR?INGRESO_VEHICULO?VERIFICADOR
            CODE    ADB8H     006BH     UNIT         ?PR?_STRCAT?STRCAT
            CODE    AE23H     0066H     UNIT         ?PR?_LEERMEMORIA?EEPROM
            CODE    AE89H     0062H     UNIT         ?PR?_LISTACOMANDOS?PROG
            CODE    AEEBH     005EH     UNIT         ?PR?_BYTEHEX_DECIMAL?CLOCK
            CODE    AF49H     005DH     UNIT         ?PR?_RESPUESTA_SEGUNDA_CLAVE?VERIFICADOR
            CODE    AFA6H     005CH     UNIT         ?PR?_ARMAR_TRAMA_PLACA?VERIFICADOR
            CODE    B002H     005BH     UNIT         ?PR?VALIDA_SENSOR1_AUTO?IO_SENSORES
            CODE    B05DH     0056H     UNIT         ?PR?_WR_EEPROM?EEPROM
            CODE    B0B3H     004DH     UNIT         ?PR?VARIABLE_INICIO?MAIN
            CODE    B100H     004DH     UNIT         ?PR?L_D_M?EEPROM
            CODE    B14DH     004CH     UNIT         ?PR?LEE_NO_TICKET?EEPROM
            CODE    B199H     004CH     UNIT         ?PR?LOAD_AND_SEND_INFO_RELOJ?PTO_PARALELO
            CODE    B1E5H     004BH     UNIT         ?PR?_TX_AUX?TIBBO
            CODE    B230H     0049H     UNIT         ?PR?_DEBUG_TXT_TIBBO?TIBBO
            CODE    B279H     0048H     UNIT         ?PR?FIRST_CLAVE?PROG
            CODE    B2C1H     0047H     UNIT         ?PR?_DEBUG_CHR_TIBBO?TIBBO
            CODE    B308H     0047H     UNIT         ?PR?_RESPONDE_WRITE_TARJETA_SECTOR2_BLOQUE0?VERIFICADOR
            CODE    B34FH     0046H     UNIT         ?PR?_ESCRIBIRCADENASOFT_BUFFER?MAIN
            CODE    B395H     0046H     UNIT         ?PR?_LCD_TXT_NUM_CHAR?PANTALLAS
            CODE    B3DBH     0046H     UNIT         ?PR?_DEBUG_HEXDEC?TIBBO
            CODE    B421H     0046H     UNIT         ?PR?_PREGUNTA_LPR?VERIFICADOR
            CODE    B467H     0044H     UNIT         ?PR?_LCD_TXT?PANTALLAS
            CODE    B4ABH     0043H     UNIT         ?PR?DIR_BOARD?IO_SENSORES
            CODE    B4EEH     0042H     UNIT         ?PR?_VALIDARCLAVE?PROG
            CODE    B530H     0041H     UNIT         ?PR?_MONITOR_CHR?ACCESCAN
            CODE    B571H     0041H     UNIT         ?PR?_TWO_ONE?CLOCK
            CODE    B5B2H     0040H     UNIT         ?PR?_GETCMD?PROG
            CODE    B5F2H     0040H     UNIT         ?PR?_DEBUG_PTO_PARALELO?TIBBO
            CODE    B632H     003FH     UNIT         ?PR?_EB_CLK?CLOCK
            CODE    B671H     003EH     UNIT         ?PR?_PUTCHAR?MAIN
            CODE    B6AFH     003EH     UNIT         ?PR?TRAMA_VALIDACION_P_N?VERIFICADOR
            CODE    B6EDH     003DH     UNIT         ?PR?_HEX_BCD?CLOCK
            CODE    B72AH     003DH     UNIT         ?PR?_RD_EEPROM?EEPROM
            CODE    B767H     003DH     UNIT         ?PR?_DEBUG_MONITOR?TIBBO
            CODE    B7A4H     003DH     UNIT         ?PR?_LOAD_SECUENCIA_EXPEDIDOR?VERIFICADOR
            CODE    B7E1H     003BH     UNIT         ?CO?EEPROM
            CODE    B81CH     003BH     UNIT         ?PR?_COM_PUTCHAR?UART
            CODE    B857H     003AH     UNIT         ?PR?_DELAY_10MS?DELAY
            CODE    B891H     003AH     UNIT         ?PR?ANALIZA_CARD_MOUNT_RF?VERIFICADOR
            CODE    B8CBH     0038H     UNIT         ?PR?VALIDASENSORESPASO?IO_SENSORES
            CODE    B903H     0036H     UNIT         ?PR?_RESPONDE_WRITE_TARJETA_SECTOR1_BLOQUE1?VERIFICADOR
            CODE    B939H     0036H     UNIT         ?PR?_RESPONDE_WRITE_TARJETA_SECTOR1_BLOQUE0?VERIFICADOR
            CODE    B96FH     0034H     UNIT         ?PR?INCREMENTE_TICKET?EEPROM
            CODE    B9A3H     0034H     UNIT         ?PR?ADDR_HORARIOS?PROG
            CODE    B9D7H     0031H     UNIT         ?PR?_TARJETA_ROTACION?VERIFICADOR
            CODE    BA08H     0030H     UNIT         ?PR?PREGUNTA_PLACA?VERIFICADOR
            CODE    BA38H     002EH     UNIT         ?PR?TIMER0_INT?MAIN
            CODE    BA66H     002AH     UNIT         ?PR?COM_INITIALIZE?UART
            CODE    BA90H     0028H     UNIT         ?PR?_WR_CLK?CLOCK
BL51 BANKED LINKER/LOCATER V6.22.2.0                                                  05/27/2021  15:12:49  PAGE 6


            CODE    BAB8H     0028H     UNIT         ?PR?COM_BAUDRATE?UART
            CODE    BAE0H     0028H     UNIT         ?PR?_ARMAR_TRAMA_TARJETA_SECTOR1_BLOQUE0?VERIFICADOR
            CODE    BB08H     0027H     UNIT         ?PR?_TX_CHRLCD?PANTALLAS
            CODE    BB2FH     0026H     UNIT         ?PR?COM_GETCHAR?UART
            CODE    BB55H     0026H     UNIT         ?PR?ANALIZA_PRESENCIA_MENSUAL?VERIFICADOR
            CODE    BB7BH     0026H     UNIT         ?PR?RX_MONITOR?MONITOR
            CODE    BBA1H     0023H     UNIT         ?PR?ANALIZA_PRESENCIA_ROTACION?VERIFICADOR
            CODE    BBC4H     0022H     UNIT         ?PR?_E_D_M?EEPROM
            CODE    BBE6H     0022H     UNIT         ?PR?VALIDASENSOR_CERO?IO_SENSORES
            CODE    BC08H     0021H     UNIT         ?CO?PTO_PARALELO
            CODE    BC29H     0020H     UNIT         ?PR?ACKD?EEPROM
            CODE    BC49H     0020H     UNIT         ?PR?ACK_LECT?EEPROM
            CODE    BC69H     001FH     UNIT         ?PR?VALIDASENSOR?IO_SENSORES
            CODE    BC88H     001FH     UNIT         ?PR?TIME_BIT?TIBBO
            CODE    BCA7H     001EH     UNIT         ?PR?_BCD_HEX?CLOCK
            CODE    BCC5H     001BH     UNIT         ?PR?_DELAY_1MS?DELAY
            CODE    BCE0H     0018H     UNIT         ?PR?CLEAR_PLACA?MONITOR
            CODE    BCF8H     0017H     UNIT         ?PR?DISPLAYCURSOR?PROG
            CODE    BD0FH     0017H     UNIT         ?PR?TIME_MBIT?TIBBO
            CODE    BD26H     0016H     UNIT         ?PR?DIR_BOARD_MONITOR?IO_SENSORES
            CODE    BD3CH     0014H     UNIT         ?CO?CLOCK
            CODE    BD50H     0014H     UNIT         ?PR?_ISSPACE?ISSPACE
            CODE    BD64H     0012H     UNIT         ?PR?_DELAY_20US?DELAY
            CODE    BD76H     0012H     UNIT         ?PR?START?EEPROM
            CODE    BD88H     0012H     UNIT         ?PR?BOTTON?IO_SENSORES
            CODE    BD9AH     0012H     UNIT         ?PR?PULSO_BUS?PTO_PARALELO
            CODE    BDACH     0012H     UNIT         ?PR?COM_RBUFLEN?UART
            CODE    BDBEH     0012H     UNIT         ?PR?COM_TBUFLEN?UART
            CODE    BDD0H     0010H     UNIT         ?PR?INI_TIMER?MAIN
            CODE    BDE0H     0010H     UNIT         ?PR?INICIA_BOARD?MAIN
            CODE    BDF0H     000FH     UNIT         ?PR?_ISDIGIT?ISDIGIT
            CODE    BDFFH     000CH     UNIT         ?PR?_GETKEY?MAIN
            CODE    BE0BH     000AH     UNIT         ?PR?STOP?EEPROM
            CODE    BE15H     000AH     UNIT         ?PR?COND_INI_PTO?PTO_PARALELO
            CODE    BE1FH     0009H     UNIT         ?PR?DEBUG_DIVIDIR_TEXTO?TIBBO
            CODE    BE28H     0009H     UNIT         ?PR?CAPTURA_EXPULSA?VERIFICADOR
            CODE    BE31H     0007H     UNIT         ?PR?COND_INI_CLOCK?CLOCK
            CODE    BE38H     0007H     UNIT         ?PR?SEL_FUNCION?IO_SENSORES
            CODE    BE3FH     0007H     UNIT         ?PR?SEL_AUTO?IO_SENSORES
            CODE    BE46H     0007H     UNIT         ?PR?SEL_PULSA?IO_SENSORES
            CODE    BE4DH     0007H     UNIT         ?PR?SEL_SENSOR2?IO_SENSORES
            CODE    BE54H     0007H     UNIT         ?PR?SEL_SENSOR1?IO_SENSORES
            CODE    BE5BH     0007H     UNIT         ?PR?SEL_DIR1?IO_SENSORES
            CODE    BE62H     0007H     UNIT         ?PR?SEL_DIR2?IO_SENSORES
            CODE    BE69H     0006H     UNIT         ?PR?P_ME?EEPROM
            CODE    BE6FH     0005H     UNIT         ?PR?ON_TIMER0_INTERRUP?MAIN
            CODE    BE74H     0005H     UNIT         ?CO?ACCESCAN
            CODE    BE79H     0005H     UNIT         ?PR?COND_INI_TIBBO?TIBBO
            CODE    BE7EH     0003H     UNIT         ?PR?OFF_TIMER0_INTERRUP?MAIN
            CODE    BE81H     0001H     UNIT         ?PR?DELAY?DELAY



OVERLAY MAP OF MODULE:   .\Objects\expedidor_v_01_raspberry (MAIN)


SEGMENT                                             BIT_GROUP          DATA_GROUP          XDATA_GROUP
BL51 BANKED LINKER/LOCATER V6.22.2.0                                                  05/27/2021  15:12:49  PAGE 7


  +--> CALLED SEGMENT                            START    LENGTH     START    LENGTH     START    LENGTH
--------------------------------------------------------------------------------------------------------
?C_C51STARTUP                                    -----    -----      -----    -----      -----    -----
  +--> ?PR?MAIN?MAIN
  +--> ?C_INITSEG

?PR?MAIN?MAIN                                    -----    -----      -----    -----      0000H    0001H
  +--> ?PR?INI_TIMER?MAIN
  +--> ?PR?ON_TIMER0_INTERRUP?MAIN
  +--> ?PR?COM_INITIALIZE?UART
  +--> ?PR?COM_BAUDRATE?UART
  +--> ?PR?INICIA_BOARD?MAIN
  +--> ?PR?TIME_BIT?TIBBO
  +--> ?PR?_DELAY_20US?DELAY
  +--> ?PR?TIME_MBIT?TIBBO
  +--> ?PR?_TX_AUX?TIBBO
  +--> ?PR?SEL_FUNCION?IO_SENSORES
  +--> ?PR?MENU?PROG
  +--> ?PR?VARIABLE_INICIO?MAIN
  +--> ?PR?SECUENCIA_INICIO_EXPEDIDOR?VERIFI...
  +--> ?PR?RX_MONITOR?MONITOR
  +--> ?PR?_SECUENCIAEXPEDIDORMF?VERIFICADOR
  +--> ?PR?_RECIBE_PORT?PTO_PARALELO
  +--> ?PR?_DEBUG_PTO_PARALELO?TIBBO
  +--> ?PR?_VALIDA_TRAMA_PTO?ACCESCAN
  +--> ?PR?MSJ_LCD_INFORMATIVO?IO_SENSORES

?PR?COM_INITIALIZE?UART                          -----    -----      -----    -----      -----    -----
  +--> ?PR?COM_BAUDRATE?UART

?PR?INICIA_BOARD?MAIN                            -----    -----      -----    -----      -----    -----
  +--> ?PR?COND_INI_TIBBO?TIBBO
  +--> ?PR?COND_INI_CLOCK?CLOCK
  +--> ?PR?COND_INI_PTO?PTO_PARALELO

?PR?_TX_AUX?TIBBO                                -----    -----      -----    -----      -----    -----
  +--> ?PR?TIME_BIT?TIBBO

?PR?MENU?PROG                                    -----    -----      -----    -----      0001H    0045H
  +--> ?CO?PROG
  +--> ?PR?PRINTF?PRINTF
  +--> ?PR?_RD_EEPROM?EEPROM
  +--> ?PR?FIRST_CLAVE?PROG
  +--> ?PR?_WR_EEPROM?EEPROM
  +--> ?PR?_LEERMEMORIA?EEPROM
  +--> ?PR?_HASH_ID?PROG
  +--> ?PR?_INGRESADATO?PROG
  +--> ?PR?_GETCMD?PROG
  +--> ?PR?_ESCRIBIRMEMORIA?EEPROM
  +--> ?PR?_VALIDARCLAVE?PROG
  +--> ?PR?DISPLAYCURSOR?PROG
  +--> ?PR?_STRLEN?STRLEN
  +--> ?PR?_GETOPTION?PROG
  +--> ?PR?_STRCAT?STRCAT
  +--> ?PR?_LISTACOMANDOS?PROG
  +--> ?PR?PROG_ID_CLIENTE?PROG
  +--> ?PR?PROG_COD_PARK?PROG
BL51 BANKED LINKER/LOCATER V6.22.2.0                                                  05/27/2021  15:12:49  PAGE 8


  +--> ?PR?PROG_TIEMPO_GRACIA?PROG
  +--> ?PR?PROG_SIN_COBRO?PROG
  +--> ?PR?PROG_DEBUG?PROG
  +--> ?PR?PROG_USE_LPR?PROG
  +--> ?PR?TIPO_PANTALLA?PROG
  +--> ?PR?PROG_TARJETA_AUTOMATICA_O_BOTON?PROG
  +--> ?PR?PROG_ANTIPASSBACK?PROG
  +--> ?PR?PROG_PLACA?PROG
  +--> ?PR?PROG_ADDRESS_HIGH_BOARD?PROG
  +--> ?PR?PROG_HORARIOS?PROG
  +--> ?PR?PROG_VALIDAR_TIPO_VEHICULO_MENSUA...
  +--> ?PR?PROG_APB_MENSUAL?PROG
  +--> ?PR?VER_PROG?PROG
  +--> ?PR?SHOW?PROG
  +--> ?PR?PROG_FECHA_VENCIMIENTO?PROG

?PR?PRINTF?PRINTF                                0020H.0  0001H.1    0008H    0005H      0077H    0030H
  +--> ?PR?_PUTCHAR?MAIN

?PR?_PUTCHAR?MAIN                                -----    -----      -----    -----      00A7H    0003H
  +--> ?PR?_COM_PUTCHAR?UART

?PR?_COM_PUTCHAR?UART                            -----    -----      -----    -----      00AAH    0001H
  +--> ?PR?COM_TBUFLEN?UART

?PR?_RD_EEPROM?EEPROM                            -----    -----      -----    -----      -----    -----
  +--> ?PR?START?EEPROM
  +--> ?PR?ACK_LECT?EEPROM
  +--> ?PR?_E_D_M?EEPROM
  +--> ?PR?ACKD?EEPROM
  +--> ?PR?L_D_M?EEPROM
  +--> ?PR?STOP?EEPROM

?PR?ACK_LECT?EEPROM                              -----    -----      -----    -----      -----    -----
  +--> ?PR?_E_D_M?EEPROM

?PR?_E_D_M?EEPROM                                -----    -----      -----    -----      -----    -----
  +--> ?PR?P_ME?EEPROM

?PR?ACKD?EEPROM                                  -----    -----      -----    -----      -----    -----
  +--> ?PR?_E_D_M?EEPROM

?PR?FIRST_CLAVE?PROG                             -----    -----      -----    -----      0046H    000BH
  +--> ?PR?_BLOCK_READ_CLOCK_ASCII?CLOCK
  +--> ?PR?_HASH_ID?PROG
  +--> ?PR?_ESCRIBIRMEMORIA?EEPROM

?PR?_BLOCK_READ_CLOCK_ASCII?CLOCK                -----    -----      -----    -----      0051H    0003H
  +--> ?PR?_LEE_CLK?CLOCK

?PR?_LEE_CLK?CLOCK                               -----    -----      -----    -----      00B1H    0003H
  +--> ?PR?_DELAY_20US?DELAY
  +--> ?PR?_EB_CLK?CLOCK
  +--> ?PR?P_CK?CLOCK

?PR?_EB_CLK?CLOCK                                -----    -----      -----    -----      00B4H    0003H
  +--> ?PR?P_CK?CLOCK
BL51 BANKED LINKER/LOCATER V6.22.2.0                                                  05/27/2021  15:12:49  PAGE 9



?PR?P_CK?CLOCK                                   -----    -----      -----    -----      -----    -----
  +--> ?PR?DELAY?DELAY

?PR?_HASH_ID?PROG                                -----    -----      -----    -----      005DH    003FH
  +--> ?CO?PROG
  +--> ?PR?_LEERMEMORIA?EEPROM
  +--> ?PR?_CHECK_FECHAOUT?CLOCK
  +--> ?PR?_STRLEN?STRLEN

?PR?_LEERMEMORIA?EEPROM                          -----    -----      -----    -----      009CH    0005H
  +--> ?PR?_RD_EEPROM?EEPROM

?PR?_CHECK_FECHAOUT?CLOCK                        -----    -----      -----    -----      009CH    0012H
  +--> ?PR?_BLOCK_READ_CLOCK_HEX?CLOCK

?PR?_BLOCK_READ_CLOCK_HEX?CLOCK                  -----    -----      -----    -----      00AEH    0003H
  +--> ?PR?_LEE_CLK?CLOCK
  +--> ?PR?_BCD_HEX?CLOCK

?PR?_ESCRIBIRMEMORIA?EEPROM                      -----    -----      -----    -----      005DH    0005H
  +--> ?PR?_WR_EEPROM?EEPROM

?PR?_WR_EEPROM?EEPROM                            -----    -----      -----    -----      -----    -----
  +--> ?PR?START?EEPROM
  +--> ?PR?ACKD?EEPROM
  +--> ?PR?_E_D_M?EEPROM
  +--> ?PR?STOP?EEPROM
  +--> ?PR?_DELAY_1MS?DELAY
  +--> ?PR?_DELAY_20US?DELAY

?PR?_DELAY_1MS?DELAY                             -----    -----      -----    -----      -----    -----
  +--> ?PR?_DELAY_20US?DELAY

?PR?_INGRESADATO?PROG                            -----    -----      -----    -----      0071H    0004H
  +--> ?PR?_GETKEY?MAIN
  +--> ?CO?PROG
  +--> ?PR?PRINTF?PRINTF
  +--> ?PR?_PUTCHAR?MAIN

?PR?_GETKEY?MAIN                                 -----    -----      -----    -----      -----    -----
  +--> ?PR?COM_GETCHAR?UART

?PR?COM_GETCHAR?UART                             -----    -----      -----    -----      -----    -----
  +--> ?PR?COM_RBUFLEN?UART

?PR?_GETCMD?PROG                                 -----    -----      -----    -----      005DH    0007H
  +--> ?CO?PROG
  +--> ?PR?_STRTOK?STRTOK

?PR?_STRTOK?STRTOK                               -----    -----      -----    -----      0064H    0006H
  +--> ?PR?_STRSPN?STRSPN
  +--> ?PR?_STRPBRK?STRPBRK

?PR?_STRSPN?STRSPN                               -----    -----      -----    -----      006AH    0008H

?PR?_STRPBRK?STRPBRK                             -----    -----      -----    -----      006AH    0009H
BL51 BANKED LINKER/LOCATER V6.22.2.0                                                  05/27/2021  15:12:49  PAGE 10



?PR?_VALIDARCLAVE?PROG                           -----    -----      -----    -----      005DH    000EH

?PR?DISPLAYCURSOR?PROG                           -----    -----      -----    -----      -----    -----
  +--> ?CO?PROG
  +--> ?PR?PRINTF?PRINTF

?PR?_GETOPTION?PROG                              -----    -----      -----    -----      0046H    000BH
  +--> ?CO?PROG
  +--> ?PR?_STRTOK?STRTOK

?PR?_STRCAT?STRCAT                               -----    -----      -----    -----      0046H    0009H

?PR?_LISTACOMANDOS?PROG                          -----    -----      -----    -----      0046H    0007H

?PR?PROG_ID_CLIENTE?PROG                         -----    -----      -----    -----      0046H    000CH
  +--> ?PR?_RD_EEPROM?EEPROM
  +--> ?CO?PROG
  +--> ?PR?PRINTF?PRINTF
  +--> ?PR?_INGRESADATO?PROG
  +--> ?PR?_ATOI?ATOI
  +--> ?PR?_WR_EEPROM?EEPROM

?PR?_ATOI?ATOI                                   0020H.0  0000H.1    -----    -----      0071H    0005H
  +--> ?PR?_ISSPACE?ISSPACE
  +--> ?PR?_ISDIGIT?ISDIGIT

?PR?PROG_COD_PARK?PROG                           -----    -----      -----    -----      0046H    000CH
  +--> ?PR?_RD_EEPROM?EEPROM
  +--> ?CO?PROG
  +--> ?PR?PRINTF?PRINTF
  +--> ?PR?_INGRESADATO?PROG
  +--> ?PR?_ATOI?ATOI
  +--> ?PR?_WR_EEPROM?EEPROM

?PR?PROG_TIEMPO_GRACIA?PROG                      -----    -----      -----    -----      0046H    000CH
  +--> ?PR?_RD_EEPROM?EEPROM
  +--> ?CO?PROG
  +--> ?PR?PRINTF?PRINTF
  +--> ?PR?_INGRESADATO?PROG
  +--> ?PR?_ATOI?ATOI
  +--> ?PR?_WR_EEPROM?EEPROM

?PR?PROG_SIN_COBRO?PROG                          -----    -----      -----    -----      0046H    000CH
  +--> ?PR?_RD_EEPROM?EEPROM
  +--> ?CO?PROG
  +--> ?PR?PRINTF?PRINTF
  +--> ?PR?_INGRESADATO?PROG
  +--> ?PR?_ATOI?ATOI
  +--> ?PR?_WR_EEPROM?EEPROM

?PR?PROG_DEBUG?PROG                              -----    -----      -----    -----      0046H    000CH
  +--> ?PR?_RD_EEPROM?EEPROM
  +--> ?CO?PROG
  +--> ?PR?PRINTF?PRINTF
  +--> ?PR?_INGRESADATO?PROG
  +--> ?PR?_ATOI?ATOI
BL51 BANKED LINKER/LOCATER V6.22.2.0                                                  05/27/2021  15:12:49  PAGE 11


  +--> ?PR?_WR_EEPROM?EEPROM

?PR?PROG_USE_LPR?PROG                            -----    -----      -----    -----      0046H    000CH
  +--> ?PR?_RD_EEPROM?EEPROM
  +--> ?CO?PROG
  +--> ?PR?PRINTF?PRINTF
  +--> ?PR?_INGRESADATO?PROG
  +--> ?PR?_ATOI?ATOI
  +--> ?PR?_WR_EEPROM?EEPROM

?PR?TIPO_PANTALLA?PROG                           -----    -----      -----    -----      0046H    000CH
  +--> ?PR?_RD_EEPROM?EEPROM
  +--> ?CO?PROG
  +--> ?PR?PRINTF?PRINTF
  +--> ?PR?_INGRESADATO?PROG
  +--> ?PR?_ATOI?ATOI
  +--> ?PR?_WR_EEPROM?EEPROM

?PR?PROG_TARJETA_AUTOMATICA_O_BOTON?PROG         -----    -----      -----    -----      0046H    000CH
  +--> ?PR?_RD_EEPROM?EEPROM
  +--> ?CO?PROG
  +--> ?PR?PRINTF?PRINTF
  +--> ?PR?_INGRESADATO?PROG
  +--> ?PR?_ATOI?ATOI
  +--> ?PR?_WR_EEPROM?EEPROM

?PR?PROG_ANTIPASSBACK?PROG                       -----    -----      -----    -----      0046H    000CH
  +--> ?PR?_RD_EEPROM?EEPROM
  +--> ?CO?PROG
  +--> ?PR?PRINTF?PRINTF
  +--> ?PR?_INGRESADATO?PROG
  +--> ?PR?_ATOI?ATOI
  +--> ?PR?_WR_EEPROM?EEPROM

?PR?PROG_PLACA?PROG                              -----    -----      -----    -----      0046H    000CH
  +--> ?PR?_RD_EEPROM?EEPROM
  +--> ?CO?PROG
  +--> ?PR?PRINTF?PRINTF
  +--> ?PR?_INGRESADATO?PROG
  +--> ?PR?_ATOI?ATOI
  +--> ?PR?_WR_EEPROM?EEPROM

?PR?PROG_ADDRESS_HIGH_BOARD?PROG                 -----    -----      -----    -----      0046H    000CH
  +--> ?PR?_RD_EEPROM?EEPROM
  +--> ?CO?PROG
  +--> ?PR?PRINTF?PRINTF
  +--> ?PR?_INGRESADATO?PROG
  +--> ?PR?_ATOI?ATOI
  +--> ?PR?_WR_EEPROM?EEPROM

?PR?PROG_HORARIOS?PROG                           -----    -----      -----    -----      0046H    001BH
  +--> ?PR?ADDR_HORARIOS?PROG
  +--> ?CO?PROG
  +--> ?PR?PRINTF?PRINTF
  +--> ?PR?_INGRESADATO?PROG
  +--> ?PR?_ATOI?ATOI
  +--> ?PR?_PROG_HORARIOS_ON_OFF?PROG
BL51 BANKED LINKER/LOCATER V6.22.2.0                                                  05/27/2021  15:12:49  PAGE 12


  +--> ?PR?_WR_EEPROM?EEPROM
  +--> ?PR?_PROG_HORARIO_DIAS?PROG
  +--> ?PR?_PROG_HORARIO_DESDE_HASTA?PROG
  +--> ?PR?_RD_EEPROM?EEPROM

?PR?ADDR_HORARIOS?PROG                           -----    -----      -----    -----      0074H    000BH

?PR?_PROG_HORARIOS_ON_OFF?PROG                   -----    -----      -----    -----      0061H    0010H
  +--> ?PR?_RD_EEPROM?EEPROM
  +--> ?CO?PROG
  +--> ?PR?PRINTF?PRINTF
  +--> ?PR?_INGRESADATO?PROG
  +--> ?PR?_ATOI?ATOI
  +--> ?PR?_WR_EEPROM?EEPROM

?PR?_PROG_HORARIO_DIAS?PROG                      -----    -----      -----    -----      0061H    000FH
  +--> ?CO?PROG
  +--> ?PR?PRINTF?PRINTF
  +--> ?PR?_INGRESADATO?PROG
  +--> ?PR?_WR_EEPROM?EEPROM
  +--> ?PR?_RD_EEPROM?EEPROM

?PR?_PROG_HORARIO_DESDE_HASTA?PROG               -----    -----      -----    -----      0061H    000CH
  +--> ?CO?PROG
  +--> ?PR?PRINTF?PRINTF
  +--> ?PR?_INGRESADATO?PROG
  +--> ?PR?_WR_EEPROM?EEPROM
  +--> ?PR?_RD_EEPROM?EEPROM

?PR?PROG_VALIDAR_TIPO_VEHICULO_MENSUA...         -----    -----      -----    -----      0046H    000CH
  +--> ?PR?_RD_EEPROM?EEPROM
  +--> ?CO?PROG
  +--> ?PR?PRINTF?PRINTF
  +--> ?PR?_INGRESADATO?PROG
  +--> ?PR?_ATOI?ATOI
  +--> ?PR?_WR_EEPROM?EEPROM

?PR?PROG_APB_MENSUAL?PROG                        -----    -----      -----    -----      0046H    000CH
  +--> ?PR?_RD_EEPROM?EEPROM
  +--> ?CO?PROG
  +--> ?PR?PRINTF?PRINTF
  +--> ?PR?_INGRESADATO?PROG
  +--> ?PR?_ATOI?ATOI
  +--> ?PR?_WR_EEPROM?EEPROM

?PR?VER_PROG?PROG                                -----    -----      -----    -----      0046H    0013H
  +--> ?PR?_RD_EEPROM?EEPROM
  +--> ?CO?PROG
  +--> ?PR?PRINTF?PRINTF
  +--> ?PR?VER_HORARIO?PROG
  +--> ?PR?_LEERMEMORIA?EEPROM
  +--> ?PR?_HEX_ASCII?CLOCK

?PR?VER_HORARIO?PROG                             -----    -----      -----    -----      0059H    001BH
  +--> ?PR?ADDR_HORARIOS?PROG
  +--> ?CO?PROG
  +--> ?PR?PRINTF?PRINTF
BL51 BANKED LINKER/LOCATER V6.22.2.0                                                  05/27/2021  15:12:49  PAGE 13


  +--> ?PR?_RD_EEPROM?EEPROM
  +--> ?PR?_VER_HORARIO_DIAS?PROG
  +--> ?PR?_VER_HORARIO_DESDE_HASTA?PROG

?PR?_VER_HORARIO_DIAS?PROG                       -----    -----      -----    -----      0074H    0003H
  +--> ?PR?_RD_EEPROM?EEPROM
  +--> ?CO?PROG
  +--> ?PR?PRINTF?PRINTF

?PR?_VER_HORARIO_DESDE_HASTA?PROG                -----    -----      -----    -----      0074H    0002H
  +--> ?CO?PROG
  +--> ?PR?PRINTF?PRINTF
  +--> ?PR?_RD_EEPROM?EEPROM

?PR?_HEX_ASCII?CLOCK                             -----    -----      -----    -----      005DH    0006H
  +--> ?PR?_HEX_BCD?CLOCK

?PR?SHOW?PROG                                    -----    -----      -----    -----      -----    -----
  +--> ?CO?PROG
  +--> ?PR?PRINTF?PRINTF

?PR?PROG_FECHA_VENCIMIENTO?PROG                  -----    -----      -----    -----      0046H    0017H
  +--> ?PR?_LEERMEMORIA?EEPROM
  +--> ?PR?_HEX_ASCII?CLOCK
  +--> ?CO?PROG
  +--> ?PR?PRINTF?PRINTF
  +--> ?PR?_HASH_ID?PROG
  +--> ?PR?_INGRESADATO?PROG
  +--> ?PR?_GETCMD?PROG
  +--> ?PR?_ESCRIBIRMEMORIA?EEPROM
  +--> ?PR?_VALIDARCLAVE?PROG
  +--> ?PR?_ATOI?ATOI
  +--> ?PR?_WR_EEPROM?EEPROM

?PR?VARIABLE_INICIO?MAIN                         -----    -----      -----    -----      -----    -----
  +--> ?PR?_RD_EEPROM?EEPROM

?PR?SECUENCIA_INICIO_EXPEDIDOR?VERIFI...         -----    -----      -----    -----      0001H    0001H
  +--> ?PR?_INICIALIZA?LINTECH
  +--> ?PR?TRAMA_VALIDACION_P_N?VERIFICADOR
  +--> ?CO?VERIFICADOR
  +--> ?PR?_DEBUG_TXT_TIBBO?TIBBO
  +--> ?PR?_DEBUGBUFFERMF?TIBBO
  +--> ?PR?DWLOAD_EEPROM?LINTECH

?PR?_INICIALIZA?LINTECH                          -----    -----      -----    -----      0002H    000CH
  +--> ?CO?LINTECH
  +--> ?PR?_DEBUG_TXT_TIBBO?TIBBO
  +--> ?PR?_DEBUGBUFFERMF?TIBBO
  +--> ?PR?_ESCRIBIRCADENASOFT_BUFFER?MAIN

?PR?_DEBUG_TXT_TIBBO?TIBBO                       -----    -----      -----    -----      004EH    0004H
  +--> ?PR?_DEBUG_CHR_TIBBO?TIBBO
  +--> ?CO?TIBBO
  +--> ?PR?_TX_AUX?TIBBO

?PR?_DEBUG_CHR_TIBBO?TIBBO                       -----    -----      -----    -----      -----    -----
BL51 BANKED LINKER/LOCATER V6.22.2.0                                                  05/27/2021  15:12:49  PAGE 14


  +--> ?PR?_TX_AUX?TIBBO

?PR?_DEBUGBUFFERMF?TIBBO                         -----    -----      -----    -----      0027H    0006H
  +--> ?CO?TIBBO
  +--> ?PR?_DEBUG_TXT_TIBBO?TIBBO
  +--> ?PR?_DEBUG_CHR_TIBBO?TIBBO
  +--> ?PR?_TX_AUX?TIBBO

?PR?_ESCRIBIRCADENASOFT_BUFFER?MAIN              -----    -----      -----    -----      0027H    0006H
  +--> ?PR?_PUTCHAR?MAIN

?PR?TRAMA_VALIDACION_P_N?VERIFICADOR             -----    -----      -----    -----      -----    -----
  +--> ?CO?VERIFICADOR
  +--> ?PR?_DEBUG_TXT_TIBBO?TIBBO

?PR?DWLOAD_EEPROM?LINTECH                        -----    -----      -----    -----      0002H    0016H
  +--> ?CO?LINTECH
  +--> ?PR?_DEBUG_TXT_TIBBO?TIBBO
  +--> ?PR?_DEBUGBUFFERMF?TIBBO
  +--> ?PR?_ESCRIBIRCADENASOFT_BUFFER?MAIN

?PR?RX_MONITOR?MONITOR                           -----    -----      -----    -----      0009H    000DH
  +--> ?PR?_RECIBE_CMD_MONITOR?MONITOR
  +--> ?PR?_DEBUG_MONITOR?TIBBO
  +--> ?PR?_VALIDA_TRAMA_MONITOR?MONITOR

?PR?_RECIBE_CMD_MONITOR?MONITOR                  -----    -----      -----    -----      0016H    0009H
  +--> ?PR?RX_DATA?TIBBO

?PR?RX_DATA?TIBBO                                -----    -----      -----    -----      -----    -----
  +--> ?PR?TIME_MBIT?TIBBO
  +--> ?PR?TIME_BIT?TIBBO

?PR?_DEBUG_MONITOR?TIBBO                         -----    -----      -----    -----      0016H    0004H
  +--> ?PR?DEBUG_DIVIDIR_TEXTO?TIBBO
  +--> ?CO?TIBBO
  +--> ?PR?_DEBUG_TXT_TIBBO?TIBBO

?PR?DEBUG_DIVIDIR_TEXTO?TIBBO                    -----    -----      -----    -----      -----    -----
  +--> ?CO?TIBBO
  +--> ?PR?_DEBUG_TXT_TIBBO?TIBBO

?PR?_VALIDA_TRAMA_MONITOR?MONITOR                -----    -----      -----    -----      0016H    0006H
  +--> ?PR?_DELAY_10MS?DELAY
  +--> ?PR?_TX_AUX?TIBBO

?PR?_DELAY_10MS?DELAY                            -----    -----      -----    -----      001CH    0004H
  +--> ?PR?_DELAY_1MS?DELAY

?PR?_SECUENCIAEXPEDIDORMF?VERIFICADOR            -----    -----      -----    -----      0001H    0001H
  +--> ?PR?_CHECK_STATUS?LINTECH
  +--> ?PR?_LOAD_SECUENCIA_EXPEDIDOR?VERIFIC...
  +--> ?PR?RX_MONITOR?MONITOR
  +--> ?PR?_RTA_CMD_TRANSPORTE?VERIFICADOR
  +--> ?PR?_MOV_CARD?LINTECH
  +--> ?PR?_CARD_INSERCION?LINTECH
  +--> ?PR?AUT_CARD_CHECK_STATUS?LINTECH
BL51 BANKED LINKER/LOCATER V6.22.2.0                                                  05/27/2021  15:12:49  PAGE 15


  +--> ?PR?LOADVERIFY_EEPROM?LINTECH
  +--> ?PR?_RD_MF?LINTECH
  +--> ?PR?_WR_MF?LINTECH
  +--> ?PR?ANALIZA_CARD_MOUNT_RF?VERIFICADOR
  +--> ?PR?DWLOAD_EEPROM?LINTECH
  +--> ?PR?ENTREGA_CARD_CAPTURA?VERIFICADOR
  +--> ?PR?_SEND_PTO_PARALELO?VERIFICADOR
  +--> ?PR?_WAIT_PLACA?VERIFICADOR
  +--> ?PR?UNIQUE_IDENTIFIER_UID?LINTECH
  +--> ?PR?_PREGUNTA_LPR?VERIFICADOR
  +--> ?PR?PREGUNTA_PLACA?VERIFICADOR
  +--> ?PR?_VALIDA_TIPO_TARJETA?VERIFICADOR
  +--> ?PR?POWER_OFF?LINTECH
  +--> ?PR?CLAVE_SEGURIDAD_S2?LINTECH
  +--> ?PR?_RESPONDE_REELECTURA_TARJETA_SECT...
  +--> ?PR?RESPONDE_ESTADO_SENSORES_TRANSPOR...
  +--> ?PR?RESPONDE_TIPO_TARJETA?VERIFICADOR
  +--> ?PR?_RESPONDE_LECTURA_TARJETA_SECTOR1...
  +--> ?PR?_RESPONDE_LECTURA_TARJETA_SECTOR1...
  +--> ?PR?_RESPONDE_LECTURA_TARJETA_SECTOR1...
  +--> ?PR?_RESPONDE_WRITE_TARJETA_SECTOR1_B...
  +--> ?PR?_RESPONDE_WRITE_TARJETA_SECTOR2_B...
  +--> ?PR?_RESPONDE_WRITE_TARJETA_SECTOR1_B...
  +--> ?PR?_RESPONDE_WRITE_TARJETA_SECTOR1_B...
  +--> ?PR?_DISPARO_LOCK_ENTRADA_VEHICULO?VE...
  +--> ?PR?_RESPUESTA_SEGUNDA_CLAVE?VERIFICADOR
  +--> ?PR?ANALIZA_PRESENCIA_MENSUAL?VERIFIC...
  +--> ?PR?_ANALIZA_UID_CARD?VERIFICADOR
  +--> ?PR?ANALIZA_PRESENCIA_ROTACION?VERIFI...
  +--> ?CO?VERIFICADOR
  +--> ?PR?_DEBUG_TXT_TIBBO?TIBBO

?PR?_CHECK_STATUS?LINTECH                        -----    -----      -----    -----      0002H    000BH
  +--> ?CO?LINTECH
  +--> ?PR?_DEBUG_TXT_TIBBO?TIBBO
  +--> ?PR?_DEBUGBUFFERMF?TIBBO
  +--> ?PR?_ESCRIBIRCADENASOFT_BUFFER?MAIN

?PR?_LOAD_SECUENCIA_EXPEDIDOR?VERIFIC...         -----    -----      -----    -----      0002H    0009H

?PR?_RTA_CMD_TRANSPORTE?VERIFICADOR              -----    -----      -----    -----      0002H    0005H
  +--> ?PR?TRAMA_VALIDACION_P_N?VERIFICADOR
  +--> ?CO?VERIFICADOR
  +--> ?PR?_DEBUG_TXT_TIBBO?TIBBO
  +--> ?PR?_DEBUGBUFFERMF?TIBBO
  +--> ?PR?ERROR_RX_PTO?VERIFICADOR

?PR?ERROR_RX_PTO?VERIFICADOR                     -----    -----      -----    -----      0007H    0001H
  +--> ?CO?VERIFICADOR
  +--> ?PR?_DEBUG_TXT_TIBBO?TIBBO
  +--> ?PR?_DEBUG_CHR_TIBBO?TIBBO
  +--> ?PR?_DELAY_10MS?DELAY

?PR?_MOV_CARD?LINTECH                            -----    -----      -----    -----      0002H    000CH
  +--> ?CO?LINTECH
  +--> ?PR?_DEBUG_TXT_TIBBO?TIBBO
  +--> ?PR?_DEBUGBUFFERMF?TIBBO
BL51 BANKED LINKER/LOCATER V6.22.2.0                                                  05/27/2021  15:12:49  PAGE 16


  +--> ?PR?_ESCRIBIRCADENASOFT_BUFFER?MAIN

?PR?_CARD_INSERCION?LINTECH                      -----    -----      -----    -----      0002H    000AH
  +--> ?CO?LINTECH
  +--> ?PR?_DEBUG_TXT_TIBBO?TIBBO
  +--> ?PR?_DEBUGBUFFERMF?TIBBO
  +--> ?PR?_ESCRIBIRCADENASOFT_BUFFER?MAIN

?PR?AUT_CARD_CHECK_STATUS?LINTECH                -----    -----      -----    -----      0002H    000BH
  +--> ?CO?LINTECH
  +--> ?PR?_DEBUG_TXT_TIBBO?TIBBO
  +--> ?PR?_DEBUGBUFFERMF?TIBBO
  +--> ?PR?_ESCRIBIRCADENASOFT_BUFFER?MAIN

?PR?LOADVERIFY_EEPROM?LINTECH                    -----    -----      -----    -----      0002H    0010H
  +--> ?CO?LINTECH
  +--> ?PR?_DEBUG_TXT_TIBBO?TIBBO
  +--> ?PR?_DEBUGBUFFERMF?TIBBO
  +--> ?PR?_ESCRIBIRCADENASOFT_BUFFER?MAIN

?PR?_RD_MF?LINTECH                               -----    -----      -----    -----      0002H    0012H
  +--> ?CO?LINTECH
  +--> ?PR?_DEBUG_TXT_TIBBO?TIBBO
  +--> ?PR?_DEBUG_CHR_TIBBO?TIBBO
  +--> ?PR?_DEBUGBUFFERMF?TIBBO
  +--> ?PR?_ESCRIBIRCADENASOFT_BUFFER?MAIN

?PR?_WR_MF?LINTECH                               -----    -----      -----    -----      0002H    0025H
  +--> ?CO?LINTECH
  +--> ?PR?_DEBUG_TXT_TIBBO?TIBBO
  +--> ?PR?_DEBUG_CHR_TIBBO?TIBBO
  +--> ?PR?_DEBUGBUFFERMF?TIBBO
  +--> ?PR?_ESCRIBIRCADENASOFT_BUFFER?MAIN

?PR?ANALIZA_CARD_MOUNT_RF?VERIFICADOR            -----    -----      -----    -----      0002H    0001H
  +--> ?CO?VERIFICADOR
  +--> ?PR?_DEBUG_TXT_TIBBO?TIBBO

?PR?ENTREGA_CARD_CAPTURA?VERIFICADOR             -----    -----      -----    -----      0002H    0001H
  +--> ?CO?VERIFICADOR
  +--> ?PR?_DEBUG_TXT_TIBBO?TIBBO
  +--> ?PR?SEL_SENSOR2?IO_SENSORES
  +--> ?PR?VALIDASENSOR?IO_SENSORES
  +--> ?PR?VALIDA_SENSOR1_AUTO?IO_SENSORES

?PR?VALIDA_SENSOR1_AUTO?IO_SENSORES              -----    -----      -----    -----      0011H    0001H
  +--> ?PR?SEL_SENSOR1?IO_SENSORES
  +--> ?PR?SEL_AUTO?IO_SENSORES
  +--> ?CO?IO_SENSORES
  +--> ?PR?_DEBUG_TXT_TIBBO?TIBBO
  +--> ?PR?BOTTON?IO_SENSORES

?PR?BOTTON?IO_SENSORES                           -----    -----      -----    -----      -----    -----
  +--> ?PR?SEL_PULSA?IO_SENSORES
  +--> ?CO?IO_SENSORES
  +--> ?PR?_DEBUG_TXT_TIBBO?TIBBO

BL51 BANKED LINKER/LOCATER V6.22.2.0                                                  05/27/2021  15:12:49  PAGE 17


?PR?_SEND_PTO_PARALELO?VERIFICADOR               -----    -----      -----    -----      0002H    0007H
  +--> ?PR?_ARMAR_TRAMA_PTO_PARALELO_EXPEDID...
  +--> ?PR?_ARMAR_TRAMA_PTO_PARALELO_EXPEDID...
  +--> ?PR?INCREMENTE_TICKET?EEPROM
  +--> ?PR?_SEND_PORT?PTO_PARALELO
  +--> ?CO?VERIFICADOR
  +--> ?PR?_DEBUG_TXT_TIBBO?TIBBO
  +--> ?PR?_DEBUGBUFFERMF?TIBBO
  +--> ?PR?CLEAR_PLACA?MONITOR

?PR?_ARMAR_TRAMA_PTO_PARALELO_EXPEDID...         -----    -----      -----    -----      0009H    0006H
  +--> ?PR?_RD_EEPROM?EEPROM

?PR?_ARMAR_TRAMA_PTO_PARALELO_EXPEDID...         -----    -----      -----    -----      0009H    0012H
  +--> ?PR?LEE_NO_TICKET?EEPROM
  +--> ?PR?_STRCAT?STRCAT
  +--> ?PR?_STRLEN?STRLEN
  +--> ?PR?_RD_EEPROM?EEPROM

?PR?LEE_NO_TICKET?EEPROM                         -----    -----      -----    -----      0043H    000BH
  +--> ?PR?READ_EEPROM_TICKET?EEPROM
  +--> ?CO?EEPROM
  +--> ?PR?PRINTF?PRINTF
  +--> ?PR?_STRLEN?STRLEN
  +--> ?PR?_DEBUG_TXT_TIBBO?TIBBO

?PR?READ_EEPROM_TICKET?EEPROM                    -----    -----      -----    -----      004EH    0007H
  +--> ?PR?_RD_EEPROM?EEPROM

?PR?INCREMENTE_TICKET?EEPROM                     -----    -----      -----    -----      0009H    000BH
  +--> ?PR?READ_EEPROM_TICKET?EEPROM
  +--> ?CO?EEPROM
  +--> ?PR?PRINTF?PRINTF
  +--> ?PR?_WRITE_EEPROM_TICKET?EEPROM

?PR?_WRITE_EEPROM_TICKET?EEPROM                  -----    -----      -----    -----      0015H    000BH
  +--> ?CO?EEPROM
  +--> ?PR?_DEBUG_TXT_TIBBO?TIBBO
  +--> ?PR?_ATOL?ATOL
  +--> ?PR?_DEBUG_CHR_TIBBO?TIBBO
  +--> ?PR?_WR_EEPROM?EEPROM

?PR?_ATOL?ATOL                                   0020H.0  0000H.1    -----    -----      0020H    0007H
  +--> ?PR?_ISSPACE?ISSPACE
  +--> ?PR?_ISDIGIT?ISDIGIT

?PR?_SEND_PORT?PTO_PARALELO                      -----    -----      -----    -----      0016H    000AH
  +--> ?PR?PULSO_BUS?PTO_PARALELO
  +--> ?PR?_DELAY_20US?DELAY

?PR?PULSO_BUS?PTO_PARALELO                       -----    -----      -----    -----      -----    -----
  +--> ?PR?_DELAY_20US?DELAY

?PR?_WAIT_PLACA?VERIFICADOR                      -----    -----      -----    -----      0002H    0007H
  +--> ?CO?VERIFICADOR
  +--> ?PR?_DEBUG_TXT_TIBBO?TIBBO
  +--> ?PR?RX_MONITOR?MONITOR
BL51 BANKED LINKER/LOCATER V6.22.2.0                                                  05/27/2021  15:12:49  PAGE 18


  +--> ?PR?_RESPUESTA_PLACA_CANCEL?VERIFICADOR

?PR?_RESPUESTA_PLACA_CANCEL?VERIFICADOR          -----    -----      -----    -----      0009H    000AH
  +--> ?CO?VERIFICADOR
  +--> ?PR?_DEBUG_TXT_TIBBO?TIBBO
  +--> ?PR?_ARMAR_TRAMA_TARJETA_SECTOR1_BLOQ...

?PR?_ARMAR_TRAMA_TARJETA_SECTOR1_BLOQ...         -----    -----      -----    -----      0013H    0004H
  +--> ?PR?CLEAR_PLACA?MONITOR
  +--> ?PR?_RD_EEPROM?EEPROM

?PR?UNIQUE_IDENTIFIER_UID?LINTECH                -----    -----      -----    -----      0002H    000BH
  +--> ?CO?LINTECH
  +--> ?PR?_DEBUG_TXT_TIBBO?TIBBO
  +--> ?PR?_DEBUGBUFFERMF?TIBBO
  +--> ?PR?_ESCRIBIRCADENASOFT_BUFFER?MAIN

?PR?_PREGUNTA_LPR?VERIFICADOR                    -----    -----      -----    -----      0002H    0003H
  +--> ?CO?VERIFICADOR
  +--> ?PR?_DEBUG_TXT_TIBBO?TIBBO
  +--> ?PR?_RD_EEPROM?EEPROM
  +--> ?PR?_ARMAR_TRAMA_MONITOR?VERIFICADOR

?PR?_ARMAR_TRAMA_MONITOR?VERIFICADOR             -----    -----      -----    -----      0005H    000FH
  +--> ?PR?DIR_BOARD_MONITOR?IO_SENSORES
  +--> ?PR?LEE_NO_TICKET?EEPROM
  +--> ?PR?_STRCAT?STRCAT
  +--> ?PR?_BYTEHEX_DECIMAL?CLOCK
  +--> ?PR?_STRLEN?STRLEN
  +--> ?PR?_TWO_BYTEHEX_DECIMAL?CLOCK
  +--> ?PR?_BLOCK_READ_CLOCK_ASCII?CLOCK

?PR?DIR_BOARD_MONITOR?IO_SENSORES                -----    -----      -----    -----      -----    -----
  +--> ?PR?_RD_EEPROM?EEPROM

?PR?_BYTEHEX_DECIMAL?CLOCK                       -----    -----      -----    -----      0014H    0001H

?PR?_TWO_BYTEHEX_DECIMAL?CLOCK                   -----    -----      -----    -----      0014H    000CH
  +--> ?PR?_POW?POW

?PR?_POW?POW                                     -----    -----      -----    -----      0020H    000AH
  +--> ?PR?LOG?LOG
  +--> ?PR?EXP?EXP

?PR?LOG?LOG                                      0020H.0  0000H.1    -----    -----      002AH    0004H

?PR?PREGUNTA_PLACA?VERIFICADOR                   -----    -----      -----    -----      0002H    0001H
  +--> ?CO?VERIFICADOR
  +--> ?PR?_DEBUG_TXT_TIBBO?TIBBO
  +--> ?PR?_RD_EEPROM?EEPROM

?PR?_VALIDA_TIPO_TARJETA?VERIFICADOR             -----    -----      -----    -----      0002H    0007H
  +--> ?CO?VERIFICADOR
  +--> ?PR?_DEBUG_TXT_TIBBO?TIBBO
  +--> ?PR?_RD_EEPROM?EEPROM
  +--> ?PR?_TARJETA_MENSUAL?VERIFICADOR
  +--> ?PR?_SEND_PORTERR?PTO_PARALELO
BL51 BANKED LINKER/LOCATER V6.22.2.0                                                  05/27/2021  15:12:49  PAGE 19


  +--> ?PR?_PANTALLALCD?PANTALLAS
  +--> ?PR?CAPTURA_EXPULSA?VERIFICADOR
  +--> ?PR?_TARJETA_ROTACION?VERIFICADOR

?PR?_TARJETA_MENSUAL?VERIFICADOR                 -----    -----      -----    -----      0009H    0007H
  +--> ?PR?_HORARIOS?VERIFICADOR
  +--> ?PR?_CHECK_FECHAOUT?CLOCK
  +--> ?PR?_VALIDA_VEHICULO_CARD_MENSUAL?VER...
  +--> ?PR?CAPTURA_EXPULSA?VERIFICADOR
  +--> ?CO?VERIFICADOR
  +--> ?PR?_DEBUG_TXT_TIBBO?TIBBO
  +--> ?PR?_ARMAR_TRAMA_TARJETA_SECTOR1_BLOQ...
  +--> ?PR?_SEND_PORTERR?PTO_PARALELO
  +--> ?PR?_PANTALLALCD?PANTALLAS

?PR?_HORARIOS?VERIFICADOR                        -----    -----      -----    -----      0010H    0013H
  +--> ?PR?ADDR_HORARIOS?PROG
  +--> ?PR?_RD_EEPROM?EEPROM
  +--> ?PR?_LEE_CLK?CLOCK
  +--> ?CO?VERIFICADOR
  +--> ?PR?_DEBUG_TXT_TIBBO?TIBBO
  +--> ?PR?_DEBUG_CHR_TIBBO?TIBBO
  +--> ?PR?_BLOQUE_HORARIO?VERIFICADOR
  +--> ?PR?_PANTALLALCD?PANTALLAS

?PR?_BLOQUE_HORARIO?VERIFICADOR                  -----    -----      -----    -----      0023H    0007H
  +--> ?CO?VERIFICADOR
  +--> ?PR?_DEBUG_TXT_TIBBO?TIBBO
  +--> ?PR?_LEE_CLK?CLOCK
  +--> ?PR?_DEBUG_CHR_TIBBO?TIBBO
  +--> ?PR?_HORA_MAXIMA?VERIFICADOR
  +--> ?PR?_EN_HORARIO?VERIFICADOR
  +--> ?PR?_RD_EEPROM?EEPROM
  +--> ?PR?_SEND_PORTERR?PTO_PARALELO
  +--> ?PR?_PANTALLALCD?PANTALLAS

?PR?_HORA_MAXIMA?VERIFICADOR                     -----    -----      -----    -----      002FH    0008H
  +--> ?PR?_RD_EEPROM?EEPROM
  +--> ?PR?_DEBUG_CHR_TIBBO?TIBBO
  +--> ?CO?VERIFICADOR
  +--> ?PR?_DEBUG_TXT_TIBBO?TIBBO

?PR?_EN_HORARIO?VERIFICADOR                      -----    -----      -----    -----      002AH    0005H
  +--> ?CO?VERIFICADOR
  +--> ?PR?_DEBUG_TXT_TIBBO?TIBBO
  +--> ?PR?_HORA_MAXIMA?VERIFICADOR

?PR?_SEND_PORTERR?PTO_PARALELO                   -----    -----      -----    -----      002AH    0006H
  +--> ?PR?PULSO_BUS?PTO_PARALELO
  +--> ?PR?_DELAY_20US?DELAY

?PR?_PANTALLALCD?PANTALLAS                       -----    -----      -----    -----      002AH    000AH
  +--> ?CO?PANTALLAS
  +--> ?PR?_LCD_TXT?PANTALLAS
  +--> ?PR?_STRLEN?STRLEN
  +--> ?PR?_TX_CHRLCD?PANTALLAS
  +--> ?PR?_RASPBERRY_DATA?PANTALLAS
BL51 BANKED LINKER/LOCATER V6.22.2.0                                                  05/27/2021  15:12:49  PAGE 20



?PR?_LCD_TXT?PANTALLAS                           -----    -----      -----    -----      0043H    0005H
  +--> ?PR?_TX_CHRLCD?PANTALLAS

?PR?_TX_CHRLCD?PANTALLAS                         -----    -----      -----    -----      0048H    0002H
  +--> ?PR?_PUTCHAR?MAIN

?PR?_RASPBERRY_DATA?PANTALLAS                    -----    -----      -----    -----      0043H    0006H
  +--> ?PR?_STRLEN?STRLEN
  +--> ?PR?_PUTCHAR?MAIN

?PR?_VALIDA_VEHICULO_CARD_MENSUAL?VER...         -----    -----      -----    -----      0010H    0004H
  +--> ?CO?VERIFICADOR
  +--> ?PR?_DEBUG_TXT_TIBBO?TIBBO
  +--> ?PR?_RD_EEPROM?EEPROM
  +--> ?PR?_SEND_PORTERR?PTO_PARALELO

?PR?_ARMAR_TRAMA_TARJETA_SECTOR1_BLOQ...         -----    -----      -----    -----      0010H    0006H
  +--> ?PR?_BLOCK_READ_CLOCK_HEX?CLOCK
  +--> ?PR?DIR_BOARD?IO_SENSORES

?PR?DIR_BOARD?IO_SENSORES                        -----    -----      -----    -----      0032H    0001H
  +--> ?PR?SEL_DIR1?IO_SENSORES
  +--> ?PR?SEL_DIR2?IO_SENSORES
  +--> ?PR?_RD_EEPROM?EEPROM

?PR?_TARJETA_ROTACION?VERIFICADOR                -----    -----      -----    -----      0009H    0006H
  +--> ?PR?_ARMAR_TRAMA_TARJETA_SECTOR1_BLOQ...

?PR?POWER_OFF?LINTECH                            -----    -----      -----    -----      0002H    000BH
  +--> ?CO?LINTECH
  +--> ?PR?_DEBUG_TXT_TIBBO?TIBBO
  +--> ?PR?_DEBUGBUFFERMF?TIBBO
  +--> ?PR?_ESCRIBIRCADENASOFT_BUFFER?MAIN

?PR?CLAVE_SEGURIDAD_S2?LINTECH                   -----    -----      -----    -----      0002H    0016H
  +--> ?CO?LINTECH
  +--> ?PR?_DEBUG_TXT_TIBBO?TIBBO
  +--> ?PR?_DEBUGBUFFERMF?TIBBO
  +--> ?PR?_ESCRIBIRCADENASOFT_BUFFER?MAIN

?PR?_RESPONDE_REELECTURA_TARJETA_SECT...         -----    -----      -----    -----      0002H    000AH
  +--> ?CO?VERIFICADOR
  +--> ?PR?_DEBUG_TXT_TIBBO?TIBBO
  +--> ?PR?_DEBUGBUFFERMF?TIBBO
  +--> ?PR?_ARMAR_TRAMA_TARJETA_SECTOR1_BLOQ...

?PR?_ARMAR_TRAMA_TARJETA_SECTOR1_BLOQ...         -----    -----      -----    -----      000CH    0003H
  +--> ?PR?LEE_NO_TICKET?EEPROM

?PR?RESPONDE_ESTADO_SENSORES_TRANSPOR...         -----    -----      -----    -----      0002H    0001H
  +--> ?CO?VERIFICADOR
  +--> ?PR?_DEBUG_TXT_TIBBO?TIBBO
  +--> ?PR?_SEND_PORTERR?PTO_PARALELO
  +--> ?PR?INGRESO_VEHICULO?VERIFICADOR

?PR?INGRESO_VEHICULO?VERIFICADOR                 -----    -----      -----    -----      -----    -----
BL51 BANKED LINKER/LOCATER V6.22.2.0                                                  05/27/2021  15:12:49  PAGE 21


  +--> ?PR?VALIDASENSORESPASO?IO_SENSORES
  +--> ?PR?_RD_EEPROM?EEPROM
  +--> ?CO?VERIFICADOR
  +--> ?PR?_DEBUG_TXT_TIBBO?TIBBO
  +--> ?PR?_PANTALLALCD?PANTALLAS
  +--> ?PR?BOTTON?IO_SENSORES

?PR?VALIDASENSORESPASO?IO_SENSORES               -----    -----      -----    -----      0010H    0001H
  +--> ?PR?SEL_SENSOR2?IO_SENSORES
  +--> ?PR?VALIDASENSOR?IO_SENSORES
  +--> ?PR?VALIDA_SENSOR1_AUTO?IO_SENSORES
  +--> ?CO?IO_SENSORES
  +--> ?PR?_DEBUG_TXT_TIBBO?TIBBO

?PR?RESPONDE_TIPO_TARJETA?VERIFICADOR            -----    -----      -----    -----      0002H    0001H
  +--> ?CO?VERIFICADOR
  +--> ?PR?_DEBUG_TXT_TIBBO?TIBBO
  +--> ?PR?_SEND_PORTERR?PTO_PARALELO
  +--> ?PR?_PANTALLALCD?PANTALLAS
  +--> ?PR?CAPTURA_EXPULSA?VERIFICADOR

?PR?_RESPONDE_LECTURA_TARJETA_SECTOR1...         -----    -----      -----    -----      0002H    0016H
  +--> ?CO?VERIFICADOR
  +--> ?PR?_DEBUG_TXT_TIBBO?TIBBO
  +--> ?PR?_DEBUGBUFFERMF?TIBBO
  +--> ?PR?_RD_EEPROM?EEPROM
  +--> ?PR?_DEBUG_HEXDEC?TIBBO
  +--> ?PR?_DEBUG_CHR_TIBBO?TIBBO
  +--> ?PR?_SEND_PORTERR?PTO_PARALELO
  +--> ?PR?_PANTALLALCD?PANTALLAS
  +--> ?PR?CAPTURA_EXPULSA?VERIFICADOR

?PR?_DEBUG_HEXDEC?TIBBO                          -----    -----      -----    -----      0018H    0002H
  +--> ?PR?_TX_AUX?TIBBO

?PR?_RESPONDE_LECTURA_TARJETA_SECTOR1...         -----    -----      -----    -----      0002H    0004H
  +--> ?CO?VERIFICADOR
  +--> ?PR?_DEBUG_TXT_TIBBO?TIBBO
  +--> ?PR?CAPTURA_EXPULSA?VERIFICADOR

?PR?_RESPONDE_LECTURA_TARJETA_SECTOR1...         -----    -----      -----    -----      0002H    0015H
  +--> ?CO?VERIFICADOR
  +--> ?PR?_DEBUG_TXT_TIBBO?TIBBO
  +--> ?PR?_DEBUGBUFFERMF?TIBBO
  +--> ?PR?_DEBUG_CHR_TIBBO?TIBBO
  +--> ?PR?CAPTURA_EXPULSA?VERIFICADOR

?PR?_RESPONDE_WRITE_TARJETA_SECTOR1_B...         -----    -----      -----    -----      0002H    0007H
  +--> ?CO?VERIFICADOR
  +--> ?PR?_DEBUG_TXT_TIBBO?TIBBO
  +--> ?PR?_DEBUGBUFFERMF?TIBBO

?PR?_RESPONDE_WRITE_TARJETA_SECTOR2_B...         -----    -----      -----    -----      0002H    0003H
  +--> ?CO?VERIFICADOR
  +--> ?PR?_DEBUG_TXT_TIBBO?TIBBO
  +--> ?PR?_DEBUGBUFFERMF?TIBBO

BL51 BANKED LINKER/LOCATER V6.22.2.0                                                  05/27/2021  15:12:49  PAGE 22


?PR?_RESPONDE_WRITE_TARJETA_SECTOR1_B...         -----    -----      -----    -----      0002H    0003H
  +--> ?CO?VERIFICADOR
  +--> ?PR?_DEBUG_TXT_TIBBO?TIBBO
  +--> ?PR?_DEBUGBUFFERMF?TIBBO

?PR?_RESPONDE_WRITE_TARJETA_SECTOR1_B...         -----    -----      -----    -----      0002H    0003H
  +--> ?CO?VERIFICADOR
  +--> ?PR?_DEBUG_TXT_TIBBO?TIBBO
  +--> ?PR?_DEBUGBUFFERMF?TIBBO

?PR?_DISPARO_LOCK_ENTRADA_VEHICULO?VE...         -----    -----      -----    -----      0002H    0004H
  +--> ?CO?VERIFICADOR
  +--> ?PR?_DEBUG_TXT_TIBBO?TIBBO
  +--> ?PR?_SEND_PORTERR?PTO_PARALELO
  +--> ?PR?_PANTALLALCD_LINEA_2?PANTALLAS
  +--> ?PR?VALIDA_SENSOR1_AUTO?IO_SENSORES
  +--> ?PR?_PANTALLALCD?PANTALLAS

?PR?_PANTALLALCD_LINEA_2?PANTALLAS               -----    -----      -----    -----      0010H    0033H
  +--> ?CO?PANTALLAS
  +--> ?PR?_LCD_TXT?PANTALLAS
  +--> ?PR?_STRLEN?STRLEN
  +--> ?PR?_TX_CHRLCD?PANTALLAS
  +--> ?PR?_RASPBERRY_DATA?PANTALLAS
  +--> ?PR?LEE_NO_TICKET?EEPROM
  +--> ?PR?_STRCAT?STRCAT

?PR?_RESPUESTA_SEGUNDA_CLAVE?VERIFICADOR         -----    -----      -----    -----      0002H    0006H
  +--> ?CO?VERIFICADOR
  +--> ?PR?_DEBUG_TXT_TIBBO?TIBBO
  +--> ?PR?_DEBUGBUFFERMF?TIBBO
  +--> ?PR?_ARMAR_TRAMA_PLACA?VERIFICADOR

?PR?_ARMAR_TRAMA_PLACA?VERIFICADOR               -----    -----      -----    -----      0008H    0003H
  +--> ?PR?_STRLEN?STRLEN

?PR?ANALIZA_PRESENCIA_MENSUAL?VERIFIC...         -----    -----      -----    -----      0002H    0001H
  +--> ?PR?VALIDASENSORESPASO?IO_SENSORES
  +--> ?PR?_SEND_PORTERR?PTO_PARALELO
  +--> ?PR?_PANTALLALCD?PANTALLAS

?PR?_ANALIZA_UID_CARD?VERIFICADOR                -----    -----      -----    -----      0002H    0015H
  +--> ?CO?VERIFICADOR
  +--> ?PR?_DEBUG_TXT_TIBBO?TIBBO
  +--> ?PR?_DEBUGBUFFERMF?TIBBO
  +--> ?PR?_DEBUG_CHR_TIBBO?TIBBO

?PR?ANALIZA_PRESENCIA_ROTACION?VERIFI...         -----    -----      -----    -----      0002H    0001H
  +--> ?PR?VALIDASENSORESPASO?IO_SENSORES
  +--> ?PR?_SEND_PORTERR?PTO_PARALELO
  +--> ?PR?_PANTALLALCD?PANTALLAS

?PR?_RECIBE_PORT?PTO_PARALELO                    -----    -----      -----    -----      0001H    0008H
  +--> ?PR?OFF_TIMER0_INTERRUP?MAIN
  +--> ?PR?ON_TIMER0_INTERRUP?MAIN

?PR?_DEBUG_PTO_PARALELO?TIBBO                    -----    -----      -----    -----      0001H    0004H
BL51 BANKED LINKER/LOCATER V6.22.2.0                                                  05/27/2021  15:12:49  PAGE 23


  +--> ?CO?TIBBO
  +--> ?PR?_DEBUG_TXT_TIBBO?TIBBO
  +--> ?PR?_DEBUGBUFFERMF?TIBBO
  +--> ?PR?DEBUG_DIVIDIR_TEXTO?TIBBO

?PR?_VALIDA_TRAMA_PTO?ACCESCAN                   -----    -----      -----    -----      0001H    000FH
  +--> ?PR?_VALIDAR_CLK?CLOCK
  +--> ?PR?_BLOCK_WRITE_CLOCK_ASCII?CLOCK
  +--> ?PR?RELOJ_PANTALLA_LCD?PANTALLAS
  +--> ?PR?_PANTALLALCD?PANTALLAS
  +--> ?CO?ACCESCAN
  +--> ?PR?_DEBUG_TXT_TIBBO?TIBBO
  +--> ?PR?_BYTEHEX_DECIMAL?CLOCK
  +--> ?PR?_TWO_BYTEHEX_DECIMAL?CLOCK
  +--> ?PR?VALIDASENSORESPASO?IO_SENSORES
  +--> ?PR?_CMD_LPR_SALIDA_WIEGAND?ACCESCAN
  +--> ?PR?_PANTALLALCD_LINEA_2?PANTALLAS
  +--> ?PR?_GRABA_SERIE?EEPROM

?PR?_BLOCK_WRITE_CLOCK_ASCII?CLOCK               -----    -----      -----    -----      0010H    0003H
  +--> ?CO?CLOCK
  +--> ?PR?_DEBUG_TXT_TIBBO?TIBBO
  +--> ?PR?_TWO_ONE?CLOCK
  +--> ?PR?_WR_CLK?CLOCK

?PR?_WR_CLK?CLOCK                                -----    -----      -----    -----      0013H    0002H
  +--> ?PR?_DELAY_20US?DELAY
  +--> ?PR?_EB_CLK?CLOCK

?PR?RELOJ_PANTALLA_LCD?PANTALLAS                 -----    -----      -----    -----      0010H    000DH
  +--> ?CO?PANTALLAS
  +--> ?PR?_BLOCK_READ_CLOCK?CLOCK
  +--> ?PR?_LCD_TXT_NUM_CHAR?PANTALLAS
  +--> ?PR?_BLOCK_READ_CLOCK_ASCII_RASBERRY?...
  +--> ?PR?_STRCAT?STRCAT
  +--> ?PR?_RASPBERRY_DATA?PANTALLAS

?PR?_BLOCK_READ_CLOCK?CLOCK                      -----    -----      -----    -----      001DH    0003H
  +--> ?PR?_LEE_CLK?CLOCK

?PR?_LCD_TXT_NUM_CHAR?PANTALLAS                  -----    -----      -----    -----      001DH    0006H
  +--> ?PR?_TX_CHRLCD?PANTALLAS

?PR?_BLOCK_READ_CLOCK_ASCII_RASBERRY?...         -----    -----      -----    -----      001DH    0003H
  +--> ?PR?_LEE_CLK?CLOCK

?PR?_CMD_LPR_SALIDA_WIEGAND?ACCESCAN             -----    -----      -----    -----      0010H    0022H
  +--> ?PR?DIR_BOARD?IO_SENSORES
  +--> ?PR?_BLOCK_READ_CLOCK_ASCII?CLOCK
  +--> ?PR?_MONITOR_CHR?ACCESCAN

?PR?_MONITOR_CHR?ACCESCAN                        -----    -----      -----    -----      0032H    0005H
  +--> ?PR?_TX_AUX?TIBBO

?PR?_GRABA_SERIE?EEPROM                          -----    -----      -----    -----      0010H    0005H
  +--> ?CO?EEPROM
  +--> ?PR?_DEBUG_TXT_TIBBO?TIBBO
BL51 BANKED LINKER/LOCATER V6.22.2.0                                                  05/27/2021  15:12:49  PAGE 24


  +--> ?PR?_WRITE_EEPROM_TICKET?EEPROM
  +--> ?PR?_WR_EEPROM?EEPROM

?PR?MSJ_LCD_INFORMATIVO?IO_SENSORES              -----    -----      -----    -----      0001H    0001H
  +--> ?PR?SEL_FUNCION?IO_SENSORES
  +--> ?PR?VALIDASENSOR_CERO?IO_SENSORES
  +--> ?PR?LOAD_AND_SEND_INFO_RELOJ?PTO_PARA...
  +--> ?PR?VALIDASENSOR?IO_SENSORES
  +--> ?PR?_DELAY_10MS?DELAY
  +--> ?PR?LOAD_AND_SEND_ID_COD?PTO_PARALELO

?PR?LOAD_AND_SEND_INFO_RELOJ?PTO_PARA...         -----    -----      -----    -----      0002H    000BH
  +--> ?PR?_BLOCK_READ_CLOCK?CLOCK
  +--> ?PR?_LEE_CLK?CLOCK
  +--> ?CO?PTO_PARALELO
  +--> ?PR?_DEBUG_TXT_TIBBO?TIBBO
  +--> ?PR?_DEBUGBUFFERMF?TIBBO
  +--> ?PR?DEBUG_DIVIDIR_TEXTO?TIBBO
  +--> ?PR?_SEND_PORT?PTO_PARALELO

?PR?LOAD_AND_SEND_ID_COD?PTO_PARALELO            -----    -----      -----    -----      0002H    0014H
  +--> ?PR?_RD_EEPROM?EEPROM
  +--> ?CO?PTO_PARALELO
  +--> ?PR?PRINTF?PRINTF
  +--> ?PR?_STRCAT?STRCAT
  +--> ?PR?_STRLEN?STRLEN
  +--> ?PR?_DEBUG_TXT_TIBBO?TIBBO
  +--> ?PR?_DEBUGBUFFERMF?TIBBO
  +--> ?PR?DEBUG_DIVIDIR_TEXTO?TIBBO
  +--> ?PR?_SEND_PORT?PTO_PARALELO



SYMBOL TABLE OF MODULE:  .\Objects\expedidor_v_01_raspberry (MAIN)

  VALUE           TYPE          NAME
  ----------------------------------

  -------         MODULE        MAIN
  C:0000H         SYMBOL        _ICE_DUMMY_
  D:0080H         PUBLIC        P0
  D:0090H         PUBLIC        P1
  C:BA38H         PUBLIC        timer0_int
  D:00B0H         PUBLIC        P3
  B:00A8H.7       PUBLIC        EA
  C:BE7EH         PUBLIC        off_Timer0_Interrup
  X:016CH         PUBLIC        ValTimeOutCom
  X:016DH         PUBLIC        Buffer_Rta_Lintech
  X:019FH         PUBLIC        Timer_wait
  B:0021H.1       PUBLIC        pto_paraleo
  X:01A0H         PUBLIC        g_cContByteRx
  B:0080H.0       PUBLIC        rx_ip
  C:AA12H         PUBLIC        main
  X:01A1H         PUBLIC        Timer_tivo
  B:0080H.3       PUBLIC        Atascado_GP0_PIN_3
  C:B0B3H         PUBLIC        variable_inicio
  B:0090H.7       PUBLIC        lock
BL51 BANKED LINKER/LOCATER V6.22.2.0                                                  05/27/2021  15:12:49  PAGE 25


  I:0023H         PUBLIC        rbuf
  C:BE6FH         PUBLIC        on_Timer0_Interrup
  I:0055H         PUBLIC        tbuf
  B:0090H.1       PUBLIC        DataIn
  D:0089H         PUBLIC        TMOD
  X:01A3H         PUBLIC        USE_LPR
  X:01A4H         PUBLIC        Debug_Tibbo
  X:01A5H         PUBLIC        Raspberry
  X:01A6H         PUBLIC        SIN_COBRO
  X:01A8H         PUBLIC        Tipo_Vehiculo
  B:00B0H.3       PUBLIC        busy
  C:BDD0H         PUBLIC        ini_timer
  B:00A8H.1       PUBLIC        ET0
  B:0088H.5       PUBLIC        TF0
  D:008CH         PUBLIC        TH0
  X:01A9H         PUBLIC        ACK
  X:01AAH         PUBLIC        g_cEstadoComSoft
  D:008AH         PUBLIC        TL0
  B:0088H.4       PUBLIC        TR0
  C:BDE0H         PUBLIC        inicia_board
  X:01ABH         PUBLIC        T_GRACIA
  B:0080H.7       PUBLIC        sel_com
  X:01ADH         PUBLIC        STX_LINTECH
  C:BDFFH         PUBLIC        _getkey
  X:01AEH         PUBLIC        ETX
  C:B34FH         PUBLIC        _EscribirCadenaSoft_buffer
  B:0021H.2       PUBLIC        buffer_ready
  C:B671H         PUBLIC        _putchar
  B:0021H.3       PUBLIC        placa_ready
  -------         PROC          TIMER0_INT
  C:BA38H         LINE#         16
  C:BA3EH         LINE#         19
  C:BA44H         LINE#         20
  C:BA49H         LINE#         21
  C:BA49H         LINE#         22
  C:BA4FH         LINE#         23
  C:BA4FH         LINE#         25
  C:BA5DH         LINE#         26
  C:BA5FH         LINE#         28
  -------         ENDPROC       TIMER0_INT
  -------         PROC          INI_TIMER
  C:BDD0H         LINE#         31
  C:BDD0H         LINE#         32
  C:BDD0H         LINE#         34
  C:BDD8H         LINE#         36
  C:BDDBH         LINE#         37
  C:BDDDH         LINE#         38
  C:BDDFH         LINE#         40
  -------         ENDPROC       INI_TIMER
  -------         PROC          ON_TIMER0_INTERRUP
  C:BE6FH         LINE#         43
  C:BE6FH         LINE#         44
  C:BE6FH         LINE#         45
  C:BE71H         LINE#         46
  C:BE73H         LINE#         48
  -------         ENDPROC       ON_TIMER0_INTERRUP
  -------         PROC          OFF_TIMER0_INTERRUP
BL51 BANKED LINKER/LOCATER V6.22.2.0                                                  05/27/2021  15:12:49  PAGE 26


  C:BE7EH         LINE#         51
  C:BE7EH         LINE#         52
  C:BE7EH         LINE#         53
  C:BE80H         LINE#         55
  -------         ENDPROC       OFF_TIMER0_INTERRUP
  -------         PROC          _GETKEY
  -------         DO            
  D:0006H         SYMBOL        k
  -------         ENDDO         
  C:BDFFH         LINE#         63
  C:BDFFH         LINE#         64
  C:BDFFH         LINE#         68
  C:BDFFH         LINE#         69
  C:BE02H         LINE#         70
  C:BE02H         LINE#         71
  C:BE0AH         LINE#         73
  C:BE0AH         LINE#         74
  -------         ENDPROC       _GETKEY
  -------         PROC          _PUTCHAR
  X:00A7H         SYMBOL        c
  -------         DO            
  X:00A8H         SYMBOL        i
  -------         ENDDO         
  C:B671H         LINE#         78
  C:B676H         LINE#         79
  C:B676H         LINE#         82
  C:B685H         LINE#         83
  C:B685H         LINE#         84
  C:B69BH         LINE#         85
  C:B69BH         LINE#         87
  C:B6A9H         LINE#         88
  C:B6A9H         LINE#         90
  C:B6AEH         LINE#         91
  -------         ENDPROC       _PUTCHAR
  -------         PROC          _ESCRIBIRCADENASOFT_BUFFER
  X:0027H         SYMBOL        buffer
  X:002AH         SYMBOL        tamano_cadena
  -------         DO            
  X:002BH         SYMBOL        i
  X:002CH         SYMBOL        d
  -------         ENDDO         
  C:B34FH         LINE#         95
  C:B35DH         LINE#         96
  C:B35DH         LINE#         98
  C:B36BH         LINE#         99
  C:B36BH         LINE#         100
  C:B382H         LINE#         101
  C:B38CH         LINE#         102
  C:B394H         LINE#         103
  -------         ENDPROC       _ESCRIBIRCADENASOFT_BUFFER
  -------         PROC          INICIA_BOARD
  C:BDE0H         LINE#         108
  C:BDE0H         LINE#         109
  C:BDE0H         LINE#         110
  C:BDE3H         LINE#         111
  C:BDE6H         LINE#         112
  C:BDE9H         LINE#         113
BL51 BANKED LINKER/LOCATER V6.22.2.0                                                  05/27/2021  15:12:49  PAGE 27


  C:BDEBH         LINE#         114
  C:BDEDH         LINE#         115
  C:BDEFH         LINE#         117
  -------         ENDPROC       INICIA_BOARD
  -------         PROC          VARIABLE_INICIO
  C:B0B3H         LINE#         122
  C:B0B3H         LINE#         123
  C:B0B3H         LINE#         126
  C:B0C4H         LINE#         127
  C:B0D5H         LINE#         128
  C:B0E3H         LINE#         129
  C:B0F1H         LINE#         130
  C:B0FFH         LINE#         132
  -------         ENDPROC       VARIABLE_INICIO
  -------         PROC          MAIN
  -------         DO            
  X:0143H         SYMBOL        buffer
  X:016BH         SYMBOL        Estado_Comunicacion_Secuencia_MF
  X:0000H         SYMBOL        Length_trama
  -------         ENDDO         
  C:AA12H         LINE#         140
  C:AA12H         LINE#         141
  C:AA12H         LINE#         148
  C:AA15H         LINE#         149
  C:AA18H         LINE#         150
  C:AA1BH         LINE#         151
  C:AA1EH         LINE#         152
  C:AA21H         LINE#         153
  C:AA23H         LINE#         155
  C:AA26H         LINE#         156
  C:AA2DH         LINE#         157
  C:AA30H         LINE#         159
  C:AA35H         LINE#         161
  C:AA38H         LINE#         163
  C:AA3BH         LINE#         164
  C:AA3BH         LINE#         165
  C:AA3EH         LINE#         166
  C:AA3EH         LINE#         169
  C:AA41H         LINE#         170
  C:AA47H         LINE#         171
  C:AA4DH         LINE#         173
  C:AA4DH         LINE#         174
  C:AA4DH         LINE#         177
  C:AA50H         LINE#         178
  C:AA50H         LINE#         179
  C:AA53H         LINE#         180
  C:AA53H         LINE#         184
  C:AA60H         LINE#         189
  C:AA66H         LINE#         190
  C:AA66H         LINE#         192
  C:AA75H         LINE#         195
  C:AA7EH         LINE#         196
  C:AA8CH         LINE#         201
  C:AA8CH         LINE#         202
  C:AA8FH         LINE#         206
  -------         ENDPROC       MAIN
  -------         ENDMOD        MAIN
BL51 BANKED LINKER/LOCATER V6.22.2.0                                                  05/27/2021  15:12:49  PAGE 28



  -------         MODULE        ACCESCAN
  C:0000H         SYMBOL        _ICE_DUMMY_
  D:0080H         PUBLIC        P0
  D:0090H         PUBLIC        P1
  B:0080H.2       PUBLIC        led_err_imp
  C:B530H         PUBLIC        _Monitor_chr
  B:0080H.3       PUBLIC        Atascado_GP0_PIN_3
  B:0090H.7       PUBLIC        lock
  C:3F09H         PUBLIC        _Valida_Trama_Pto
  C:8777H         PUBLIC        _Cmd_LPR_Salida_wiegand
  -------         PROC          _VALIDA_TRAMA_PTO
  X:0001H         SYMBOL        buffer
  X:0004H         SYMBOL        length_trama
  -------         DO            
  X:0213H         SYMBOL        cont
  X:0005H         SYMBOL        buff
  -------         ENDDO         
  C:3F09H         LINE#         106
  C:3F17H         LINE#         107
  C:3F17H         LINE#         113
  C:3F4DH         LINE#         114
  C:3F4DH         LINE#         115
  C:3F62H         LINE#         116
  C:3F62H         LINE#         117
  C:3F75H         LINE#         119
  C:3F78H         LINE#         121
  C:3F78H         LINE#         123
  C:3F78H         LINE#         126
  C:3F8AH         LINE#         127
  C:3F8AH         LINE#         128
  C:3F8CH         LINE#         129
  C:3F8FH         LINE#         131
  C:3FA1H         LINE#         132
  C:3FA1H         LINE#         133
  C:3FA3H         LINE#         134
  C:3FA6H         LINE#         136
  C:3FB8H         LINE#         137
  C:3FB8H         LINE#         138
  C:3FBAH         LINE#         139
  C:3FBDH         LINE#         141
  C:3FD7H         LINE#         142
  C:3FD7H         LINE#         143
  C:3FD9H         LINE#         144
  C:3FDCH         LINE#         146
  C:3FF6H         LINE#         147
  C:3FF6H         LINE#         148
  C:3FF8H         LINE#         149
  C:3FFBH         LINE#         151
  C:400DH         LINE#         152
  C:400DH         LINE#         153
  C:4013H         LINE#         154
  C:4020H         LINE#         155
  C:4020H         LINE#         156
  C:4025H         LINE#         157
  C:4027H         LINE#         158
  C:402CH         LINE#         159
BL51 BANKED LINKER/LOCATER V6.22.2.0                                                  05/27/2021  15:12:49  PAGE 29


  C:402EH         LINE#         160
  C:4030H         LINE#         161
  C:4034H         LINE#         162
  C:4034H         LINE#         163
  C:4035H         LINE#         165
  C:404DH         LINE#         166
  C:404DH         LINE#         168
  C:405AH         LINE#         169
  C:405AH         LINE#         170
  C:405CH         LINE#         171
  C:405EH         LINE#         172
  C:4060H         LINE#         173
  C:4062H         LINE#         174
  C:4062H         LINE#         176
  C:4088H         LINE#         177
  C:4088H         LINE#         178
  C:408CH         LINE#         179
  C:4091H         LINE#         180
  C:409AH         LINE#         181
  C:409FH         LINE#         182
  C:409FH         LINE#         185
  C:40A0H         LINE#         187
  C:40BAH         LINE#         188
  C:40BAH         LINE#         189
  C:40BCH         LINE#         190
  C:40BFH         LINE#         192
  C:40D9H         LINE#         193
  C:40D9H         LINE#         194
  C:40DBH         LINE#         195
  C:40DEH         LINE#         197
  C:40F8H         LINE#         198
  C:40F8H         LINE#         199
  C:40FAH         LINE#         200
  C:40FCH         LINE#         202
  C:4116H         LINE#         203
  C:4116H         LINE#         204
  C:4118H         LINE#         205
  C:411AH         LINE#         208
  C:4134H         LINE#         209
  C:4134H         LINE#         210
  C:4136H         LINE#         211
  C:4138H         LINE#         215
  C:4152H         LINE#         216
  C:4152H         LINE#         217
  C:4154H         LINE#         218
  C:4156H         LINE#         221
  C:4170H         LINE#         222
  C:4170H         LINE#         223
  C:4175H         LINE#         224
  C:4175H         LINE#         227
  C:41A6H         LINE#         228
  C:41A6H         LINE#         229
  C:41AEH         LINE#         230
  C:41B7H         LINE#         231
  C:41BAH         LINE#         234
  C:41EBH         LINE#         235
  C:41EBH         LINE#         237
BL51 BANKED LINKER/LOCATER V6.22.2.0                                                  05/27/2021  15:12:49  PAGE 30


  C:41F3H         LINE#         238
  C:41FCH         LINE#         239
  C:41FFH         LINE#         242
  C:423FH         LINE#         243
  C:423FH         LINE#         245
  C:4254H         LINE#         246
  C:425AH         LINE#         247
  C:4284H         LINE#         250
  C:428CH         LINE#         251
  C:428CH         LINE#         254
  C:4293H         LINE#         255
  C:4293H         LINE#         256
  C:4298H         LINE#         257
  C:4298H         LINE#         258
  C:429AH         LINE#         260
  C:429AH         LINE#         261
  C:42A3H         LINE#         262
  C:42ABH         LINE#         263
  C:42ABH         LINE#         267
  C:42ADH         LINE#         270
  C:42ADH         LINE#         278
  C:42B5H         LINE#         282
  C:42B5H         LINE#         283
  C:42B7H         LINE#         285
  C:42EFH         LINE#         286
  C:42EFH         LINE#         287
  C:42F7H         LINE#         288
  C:4303H         LINE#         289
  C:4303H         LINE#         291
  C:4330H         LINE#         292
  C:4330H         LINE#         293
  C:433FH         LINE#         295
  C:433FH         LINE#         297
  -------         ENDPROC       _VALIDA_TRAMA_PTO
  -------         PROC          _MONITOR_CHR
  X:0032H         SYMBOL        str
  X:0035H         SYMBOL        num_char
  -------         DO            
  X:0036H         SYMBOL        j
  -------         ENDDO         
  C:B530H         LINE#         452
  C:B53EH         LINE#         453
  C:B53EH         LINE#         455
  C:B54CH         LINE#         456
  C:B54CH         LINE#         457
  C:B55EH         LINE#         458
  C:B568H         LINE#         459
  C:B570H         LINE#         460
  -------         ENDPROC       _MONITOR_CHR
  -------         PROC          _CMD_LPR_SALIDA_WIEGAND
  X:0010H         SYMBOL        buffer
  -------         DO            
  X:0013H         SYMBOL        Buffer_Lpr
  X:0031H         SYMBOL        j
  -------         ENDDO         
  C:8777H         LINE#         465
  C:8782H         LINE#         466
BL51 BANKED LINKER/LOCATER V6.22.2.0                                                  05/27/2021  15:12:49  PAGE 31


  C:8782H         LINE#         468
  C:8788H         LINE#         469
  C:878DH         LINE#         470
  C:8795H         LINE#         471
  C:8799H         LINE#         472
  C:87A2H         LINE#         473
  C:87A2H         LINE#         474
  C:87B3H         LINE#         475
  C:87B5H         LINE#         477
  C:87B5H         LINE#         478
  C:87C6H         LINE#         479
  C:87C6H         LINE#         483
  C:87DDH         LINE#         484
  C:87DDH         LINE#         485
  C:87ECH         LINE#         486
  C:87F6H         LINE#         488
  C:87FEH         LINE#         489
  C:8812H         LINE#         491
  C:8822H         LINE#         492
  C:8833H         LINE#         493
  C:8840H         LINE#         497
  -------         ENDPROC       _CMD_LPR_SALIDA_WIEGAND
  -------         ENDMOD        ACCESCAN

  -------         MODULE        CLOCK
  C:0000H         SYMBOL        _ICE_DUMMY_
  C:B5A5H         PUBLIC        _two_one
  D:0090H         PUBLIC        P1
  C:7528H         PUBLIC        _validar_clk
  C:BA90H         PUBLIC        _wr_clk
  C:8B81H         PUBLIC        _check_fechaOut
  C:5CFCH         PUBLIC        _Block_read_clock_ascii_rasberry
  B:00D0H.7       PUBLIC        CY
  C:0003H         PUBLIC        p_ck
  C:9F6AH         PUBLIC        _hex_ascii
  X:0214H         PUBLIC        data_clk
  C:BE31H         PUBLIC        cond_ini_clock
  C:8C4AH         PUBLIC        _Block_read_Clock
  B:0090H.4       PUBLIC        sck
  C:98A2H         PUBLIC        _Block_read_Clock_Hex
  C:63C5H         PUBLIC        _Block_read_clock_ascii
  C:B709H         PUBLIC        _hex_bcd
  C:BCA7H         PUBLIC        _bcd_hex
  C:AEEBH         PUBLIC        _ByteHex_Decimal
  C:A245H         PUBLIC        _lee_clk
  B:0090H.5       PUBLIC        io
  C:9A92H         PUBLIC        _Block_write_clock_ascii
  B:0090H.6       PUBLIC        rst
  C:B632H         PUBLIC        _eb_clk
  C:469CH         PUBLIC        _Two_ByteHex_Decimal
  -------         PROC          P_CK
  C:0003H         LINE#         48
  C:0003H         LINE#         49
  C:0003H         LINE#         50
  C:0005H         LINE#         51
  C:0008H         LINE#         52
  C:000AH         LINE#         53
BL51 BANKED LINKER/LOCATER V6.22.2.0                                                  05/27/2021  15:12:49  PAGE 32


  -------         ENDPROC       P_CK
  -------         PROC          _EB_CLK
  X:00B4H         SYMBOL        dir_clk
  -------         DO            
  X:00B5H         SYMBOL        nbits
  -------         ENDDO         
  C:B632H         LINE#         55
  C:B637H         LINE#         57
  C:B63CH         LINE#         58
  C:B63CH         LINE#         59
  C:B645H         LINE#         60
  C:B648H         LINE#         61
  C:B648H         LINE#         62
  C:B64AH         LINE#         63
  C:B64CH         LINE#         65
  C:B64CH         LINE#         66
  C:B64EH         LINE#         67
  C:B64EH         LINE#         68
  C:B651H         LINE#         69
  C:B670H         LINE#         70
  -------         ENDPROC       _EB_CLK
  C:A23CH         SYMBOL        L?0083
  -------         PROC          L?0082
  -------         ENDPROC       L?0082
  C:A23CH         SYMBOL        L?0083
  -------         PROC          _LEE_CLK
  X:00B1H         SYMBOL        dir_clk
  -------         DO            
  X:00B2H         SYMBOL        nbits
  -------         ENDDO         
  C:A245H         LINE#         72
  C:A24AH         LINE#         74
  C:A24CH         LINE#         75
  C:A253H         LINE#         76
  C:A25BH         LINE#         77
  C:A274H         LINE#         78
  C:A274H         LINE#         79
  C:A277H         LINE#         80
  C:A277H         LINE#         81
  C:A27EH         LINE#         82
  C:A288H         LINE#         83
  C:A28DH         LINE#         84
  C:A28DH         LINE#         85
  C:A28DH         LINE#         86
  C:A290H         LINE#         87
  C:A290H         LINE#         88
  C:A297H         LINE#         89
  C:A2A8H         LINE#         90
  C:A2A8H         LINE#         91
  C:A2B0H         LINE#         92
  C:A2B0H         LINE#         93
  C:A2B0H         LINE#         94
  C:A2B3H         LINE#         95
  C:A2C3H         LINE#         96
  C:A2C5H         LINE#         97
  C:A2CAH         LINE#         98
  -------         ENDPROC       _LEE_CLK
BL51 BANKED LINKER/LOCATER V6.22.2.0                                                  05/27/2021  15:12:49  PAGE 33


  -------         PROC          _WR_CLK
  X:0013H         SYMBOL        dir_clk
  X:0014H         SYMBOL        byte
  C:BA90H         LINE#         100
  C:BA98H         LINE#         101
  C:BA9AH         LINE#         102
  C:BAA1H         LINE#         103
  C:BAA9H         LINE#         104
  C:BAB2H         LINE#         105
  C:BAB5H         LINE#         106
  C:BAB7H         LINE#         108
  -------         ENDPROC       _WR_CLK
  C:B571H         SYMBOL        L?0078
  C:B58FH         SYMBOL        L?0079
  -------         PROC          L?0077
  -------         ENDPROC       L?0077
  C:B571H         SYMBOL        L?0078
  C:B58FH         SYMBOL        L?0079
  -------         PROC          _TWO_ONE
  D:0007H         SYMBOL        byte_h
  D:0005H         SYMBOL        byte_l
  -------         DO            
  D:0007H         SYMBOL        byte_out
  -------         ENDDO         
  C:B5A5H         LINE#         110
  C:B5A5H         LINE#         111
  C:B5A5H         LINE#         113
  C:B5A8H         LINE#         114
  C:B5ACH         LINE#         115
  C:B5AFH         LINE#         116
  C:B5B1H         LINE#         117
  C:B5B1H         LINE#         118
  -------         ENDPROC       _TWO_ONE
  -------         PROC          _VALIDAR_CLK
  D:0001H         SYMBOL        datos_clock
  -------         DO            
  D:0007H         SYMBOL        validador
  -------         ENDDO         
  C:7528H         LINE#         122
  C:7528H         LINE#         123
  C:7528H         LINE#         124
  C:752AH         LINE#         127
  C:753FH         LINE#         128
  C:753FH         LINE#         130
  C:7557H         LINE#         131
  C:7557H         LINE#         133
  C:756FH         LINE#         134
  C:756FH         LINE#         135
  C:7587H         LINE#         136
  C:7587H         LINE#         137
  C:759FH         LINE#         138
  C:759FH         LINE#         139
  C:75B4H         LINE#         140
  C:75B4H         LINE#         141
  C:75C6H         LINE#         142
  C:75C6H         LINE#         143
  C:75D8H         LINE#         144
BL51 BANKED LINKER/LOCATER V6.22.2.0                                                  05/27/2021  15:12:49  PAGE 34


  C:75D8H         LINE#         145
  C:75EAH         LINE#         146
  C:75EAH         LINE#         147
  C:75FCH         LINE#         148
  C:75FCH         LINE#         149
  C:760EH         LINE#         150
  C:760EH         LINE#         151
  C:761EH         LINE#         152
  C:761EH         LINE#         153
  C:761EH         LINE#         154
  C:761EH         LINE#         155
  C:761FH         LINE#         157
  C:761FH         LINE#         158
  C:7621H         LINE#         159
  C:7621H         LINE#         160
  C:7622H         LINE#         162
  C:7622H         LINE#         163
  C:7624H         LINE#         165
  C:7624H         LINE#         166
  C:7625H         LINE#         168
  C:7625H         LINE#         169
  C:7627H         LINE#         171
  C:7627H         LINE#         173
  C:7628H         LINE#         175
  C:7628H         LINE#         176
  C:762AH         LINE#         178
  C:762AH         LINE#         179
  C:762BH         LINE#         181
  C:762BH         LINE#         182
  C:762DH         LINE#         184
  C:762DH         LINE#         185
  C:762EH         LINE#         187
  C:762EH         LINE#         188
  C:7630H         LINE#         190
  C:7630H         LINE#         191
  C:7631H         LINE#         193
  C:7631H         LINE#         194
  C:7633H         LINE#         196
  C:7633H         LINE#         197
  C:7633H         LINE#         199
  C:7634H         LINE#         201
  C:7634H         LINE#         202
  C:7636H         LINE#         204
  C:7636H         LINE#         206
  C:7637H         LINE#         209
  C:7637H         LINE#         210
  C:7639H         LINE#         212
  C:7639H         LINE#         214
  C:763AH         LINE#         217
  C:763AH         LINE#         218
  C:763CH         LINE#         220
  C:763CH         LINE#         222
  C:763CH         LINE#         224
  -------         ENDPROC       _VALIDAR_CLK
  -------         PROC          _BLOCK_WRITE_CLOCK_ASCII
  X:0010H         SYMBOL        datos_clock
  -------         DO            
BL51 BANKED LINKER/LOCATER V6.22.2.0                                                  05/27/2021  15:12:49  PAGE 35


  D:0007H         SYMBOL        temp
  -------         ENDDO         
  C:9A92H         LINE#         230
  C:9A9DH         LINE#         232
  C:9A9DH         LINE#         235
  C:9AA6H         LINE#         236
  C:9AAFH         LINE#         238
  C:9AB9H         LINE#         239
  C:9AB9H         LINE#         240
  C:9AB9H         LINE#         241
  C:9AB9H         LINE#         243
  C:9AC3H         LINE#         244
  C:9ACDH         LINE#         245
  C:9AD7H         LINE#         246
  C:9AD7H         LINE#         247
  C:9AD7H         LINE#         248
  C:9AD7H         LINE#         250
  C:9AE1H         LINE#         251
  C:9AE1H         LINE#         252
  C:9AE1H         LINE#         253
  C:9AE1H         LINE#         255
  C:9AEBH         LINE#         256
  C:9AEBH         LINE#         257
  C:9AEBH         LINE#         258
  C:9AEBH         LINE#         260
  C:9AF5H         LINE#         261
  C:9AF5H         LINE#         262
  C:9AF5H         LINE#         263
  C:9AF5H         LINE#         265
  C:9AFFH         LINE#         266
  C:9B09H         LINE#         267
  C:9B13H         LINE#         268
  C:9B1DH         LINE#         270
  C:9B2DH         LINE#         271
  -------         ENDPROC       _BLOCK_WRITE_CLOCK_ASCII
  -------         PROC          _BCD_HEX
  D:0007H         SYMBOL        l_data
  -------         DO            
  D:0006H         SYMBOL        temp
  D:0005H         SYMBOL        j
  -------         ENDDO         
  C:BCA7H         LINE#         277
  C:BCA7H         LINE#         278
  C:BCA7H         LINE#         280
  C:BCA9H         LINE#         281
  C:BCADH         LINE#         282
  C:BCB0H         LINE#         283
  C:BCB2H         LINE#         284
  C:BCB2H         LINE#         285
  C:BCB6H         LINE#         286
  C:BCBDH         LINE#         287
  C:BCBDH         LINE#         288
  C:BCC1H         LINE#         289
  C:BCC4H         LINE#         290
  C:BCC4H         LINE#         291
  C:BCC4H         LINE#         292
  -------         ENDPROC       _BCD_HEX
BL51 BANKED LINKER/LOCATER V6.22.2.0                                                  05/27/2021  15:12:49  PAGE 36


  C:B6FAH         SYMBOL        L?0081
  -------         PROC          L?0080
  -------         ENDPROC       L?0080
  C:B6FAH         SYMBOL        L?0081
  -------         PROC          _HEX_BCD
  D:0007H         SYMBOL        byte
  -------         DO            
  D:0006H         SYMBOL        nibble_h
  D:0005H         SYMBOL        nibble_l
  D:0004H         SYMBOL        k
  D:0007H         SYMBOL        byte_out
  -------         ENDDO         
  C:B709H         LINE#         296
  C:B709H         LINE#         297
  C:B709H         LINE#         302
  C:B70BH         LINE#         303
  C:B70CH         LINE#         305
  C:B712H         LINE#         306
  C:B712H         LINE#         307
  C:B713H         LINE#         308
  C:B718H         LINE#         309
  C:B718H         LINE#         310
  C:B719H         LINE#         311
  C:B71AH         LINE#         312
  C:B71AH         LINE#         313
  C:B71DH         LINE#         314
  C:B721H         LINE#         315
  C:B724H         LINE#         316
  C:B727H         LINE#         317
  C:B729H         LINE#         318
  C:B729H         LINE#         320
  -------         ENDPROC       _HEX_BCD
  -------         PROC          _HEX_ASCII
  X:005DH         SYMBOL        datos
  X:0060H         SYMBOL        fecha_asii
  -------         DO            
  D:0007H         SYMBOL        dato
  -------         ENDDO         
  C:9F6AH         LINE#         321
  C:9F75H         LINE#         322
  C:9F75H         LINE#         326
  C:9F78H         LINE#         327
  C:9F90H         LINE#         328
  C:9FA5H         LINE#         329
  C:9FA5H         LINE#         331
  C:9FA8H         LINE#         332
  C:9FC3H         LINE#         333
  C:9FCBH         LINE#         334
  C:9FCBH         LINE#         336
  C:9FCEH         LINE#         337
  C:9FE9H         LINE#         338
  C:9FF4H         LINE#         340
  -------         ENDPROC       _HEX_ASCII
  -------         PROC          _BYTEHEX_DECIMAL
  D:0001H         SYMBOL        buffer
  D:0005H         SYMBOL        valorhex
  -------         DO            
BL51 BANKED LINKER/LOCATER V6.22.2.0                                                  05/27/2021  15:12:49  PAGE 37


  X:0014H         SYMBOL        numero
  D:0007H         SYMBOL        centena
  D:0006H         SYMBOL        decena
  -------         ENDDO         
  C:AEEBH         LINE#         348
  C:AEEBH         LINE#         349
  C:AEEBH         LINE#         352
  C:AEEDH         LINE#         353
  C:AEEEH         LINE#         354
  C:AEF3H         LINE#         356
  C:AF00H         LINE#         357
  C:AF00H         LINE#         358
  C:AF04H         LINE#         359
  C:AF05H         LINE#         360
  C:AF07H         LINE#         361
  C:AF0DH         LINE#         362
  C:AF14H         LINE#         363
  C:AF21H         LINE#         364
  C:AF21H         LINE#         365
  C:AF25H         LINE#         366
  C:AF26H         LINE#         367
  C:AF28H         LINE#         368
  C:AF2EH         LINE#         369
  C:AF35H         LINE#         370
  C:AF3EH         LINE#         371
  C:AF45H         LINE#         372
  -------         ENDPROC       _BYTEHEX_DECIMAL
  -------         PROC          _TWO_BYTEHEX_DECIMAL
  X:0014H         SYMBOL        buffer
  X:0017H         SYMBOL        id_h
  X:0018H         SYMBOL        id_l
  -------         DO            
  X:0019H         SYMBOL        valor
  D:0006H         SYMBOL        numero
  X:001BH         SYMBOL        temp
  X:001CH         SYMBOL        dmil
  X:001DH         SYMBOL        mil
  X:001EH         SYMBOL        centena
  X:001FH         SYMBOL        decena
  -------         ENDDO         
  C:469CH         LINE#         379
  C:46AAH         LINE#         380
  C:46AAH         LINE#         384
  C:46B1H         LINE#         385
  C:46B5H         LINE#         386
  C:46B7H         LINE#         387
  C:46B9H         LINE#         388
  C:46BBH         LINE#         391
  C:46C0H         LINE#         392
  C:46C3H         LINE#         393
  C:46C9H         LINE#         395
  C:4724H         LINE#         396
  C:472CH         LINE#         397
  C:472FH         LINE#         398
  C:478AH         LINE#         400
  C:4792H         LINE#         401
  C:4795H         LINE#         402
BL51 BANKED LINKER/LOCATER V6.22.2.0                                                  05/27/2021  15:12:49  PAGE 38


  C:479BH         LINE#         403
  C:47F6H         LINE#         404
  C:47FEH         LINE#         405
  C:4801H         LINE#         406
  C:485CH         LINE#         407
  C:485CH         LINE#         409
  C:4865H         LINE#         410
  C:4865H         LINE#         411
  C:486DH         LINE#         412
  C:4873H         LINE#         413
  C:4875H         LINE#         414
  C:488BH         LINE#         415
  C:4895H         LINE#         416
  C:489EH         LINE#         417
  C:489EH         LINE#         418
  C:48A6H         LINE#         419
  C:48ACH         LINE#         420
  C:48AEH         LINE#         421
  C:48C4H         LINE#         422
  C:48CEH         LINE#         423
  C:48D7H         LINE#         424
  C:48D7H         LINE#         425
  C:48DFH         LINE#         426
  C:48E5H         LINE#         427
  C:48E7H         LINE#         428
  C:48FDH         LINE#         429
  C:4907H         LINE#         430
  C:4910H         LINE#         431
  C:4910H         LINE#         432
  C:4918H         LINE#         433
  C:491EH         LINE#         434
  C:4920H         LINE#         435
  C:4936H         LINE#         436
  C:4940H         LINE#         437
  C:4953H         LINE#         438
  C:495DH         LINE#         439
  -------         ENDPROC       _TWO_BYTEHEX_DECIMAL
  -------         PROC          _BLOCK_READ_CLOCK_ASCII
  X:0051H         SYMBOL        datos_clock
  -------         DO            
  D:0007H         SYMBOL        dato
  -------         ENDDO         
  C:63C5H         LINE#         445
  C:63D0H         LINE#         446
  C:63D0H         LINE#         452
  C:63D5H         LINE#         453
  C:63EDH         LINE#         454
  C:63F7H         LINE#         455
  C:640CH         LINE#         456
  C:6416H         LINE#         459
  C:641BH         LINE#         460
  C:6433H         LINE#         461
  C:643DH         LINE#         462
  C:6452H         LINE#         463
  C:6455H         LINE#         466
  C:6458H         LINE#         467
  C:6470H         LINE#         468
BL51 BANKED LINKER/LOCATER V6.22.2.0                                                  05/27/2021  15:12:49  PAGE 39


  C:647AH         LINE#         469
  C:648FH         LINE#         470
  C:6499H         LINE#         474
  C:649EH         LINE#         475
  C:64B6H         LINE#         476
  C:64C0H         LINE#         477
  C:64D5H         LINE#         478
  C:64DFH         LINE#         481
  C:64E4H         LINE#         482
  C:64FCH         LINE#         483
  C:6506H         LINE#         484
  C:651BH         LINE#         485
  C:6525H         LINE#         486
  -------         ENDPROC       _BLOCK_READ_CLOCK_ASCII
  -------         PROC          _BLOCK_READ_CLOCK_ASCII_RASBERRY
  X:001DH         SYMBOL        datos_clock
  -------         DO            
  D:0007H         SYMBOL        dato
  -------         ENDDO         
  C:5CFCH         LINE#         489
  C:5D07H         LINE#         490
  C:5D07H         LINE#         495
  C:5D0CH         LINE#         496
  C:5D24H         LINE#         497
  C:5D2EH         LINE#         498
  C:5D43H         LINE#         499
  C:5D46H         LINE#         502
  C:5D49H         LINE#         503
  C:5D61H         LINE#         504
  C:5D6BH         LINE#         505
  C:5D80H         LINE#         506
  C:5D8AH         LINE#         510
  C:5D8FH         LINE#         511
  C:5DA7H         LINE#         512
  C:5DB1H         LINE#         513
  C:5DC6H         LINE#         514
  C:5DD0H         LINE#         519
  C:5DD5H         LINE#         520
  C:5DEDH         LINE#         521
  C:5DF7H         LINE#         522
  C:5E0CH         LINE#         523
  C:5E16H         LINE#         526
  C:5E1BH         LINE#         527
  C:5E33H         LINE#         528
  C:5E3DH         LINE#         529
  C:5E52H         LINE#         530
  C:5E5CH         LINE#         531
  C:5E6CH         LINE#         532
  C:5E76H         LINE#         535
  C:5E7BH         LINE#         536
  C:5E93H         LINE#         537
  C:5E9DH         LINE#         538
  C:5EB2H         LINE#         540
  C:5EBCH         LINE#         541
  -------         ENDPROC       _BLOCK_READ_CLOCK_ASCII_RASBERRY
  -------         PROC          _BLOCK_READ_CLOCK_HEX
  X:00AEH         SYMBOL        datos_clock
BL51 BANKED LINKER/LOCATER V6.22.2.0                                                  05/27/2021  15:12:49  PAGE 40


  C:98A2H         LINE#         545
  C:98ADH         LINE#         546
  C:98ADH         LINE#         549
  C:98C4H         LINE#         550
  C:98CEH         LINE#         552
  C:98E5H         LINE#         553
  C:98E8H         LINE#         555
  C:98FDH         LINE#         556
  C:9907H         LINE#         558
  C:991EH         LINE#         559
  C:9928H         LINE#         561
  C:993FH         LINE#         562
  -------         ENDPROC       _BLOCK_READ_CLOCK_HEX
  -------         PROC          _BLOCK_READ_CLOCK
  X:001DH         SYMBOL        datos_clock
  C:8C4AH         LINE#         569
  C:8C55H         LINE#         570
  C:8C55H         LINE#         572
  C:8C69H         LINE#         573
  C:8C73H         LINE#         575
  C:8C87H         LINE#         576
  C:8C8AH         LINE#         578
  C:8C9CH         LINE#         579
  C:8CA6H         LINE#         581
  C:8CBAH         LINE#         582
  C:8CC4H         LINE#         584
  C:8CD8H         LINE#         585
  C:8CE2H         LINE#         587
  C:8CF6H         LINE#         588
  C:8D00H         LINE#         589
  -------         ENDPROC       _BLOCK_READ_CLOCK
  -------         PROC          COND_INI_CLOCK
  C:BE31H         LINE#         592
  C:BE31H         LINE#         593
  C:BE31H         LINE#         594
  C:BE33H         LINE#         595
  C:BE35H         LINE#         596
  C:BE37H         LINE#         597
  -------         ENDPROC       COND_INI_CLOCK
  -------         PROC          _CHECK_FECHAOUT
  X:009CH         SYMBOL        buffer
  -------         DO            
  X:009FH         SYMBOL        fecha_inicio
  X:00A3H         SYMBOL        fecha_fin
  X:00A7H         SYMBOL        datos_clk
  X:00ADH         SYMBOL        temp
  -------         ENDDO         
  C:8B81H         LINE#         607
  C:8B8CH         LINE#         608
  C:8B8CH         LINE#         614
  C:8B95H         LINE#         615
  C:8BC4H         LINE#         616
  C:8C17H         LINE#         619
  C:8C37H         LINE#         620
  C:8C37H         LINE#         621
  C:8C3DH         LINE#         622
  C:8C3FH         LINE#         624
BL51 BANKED LINKER/LOCATER V6.22.2.0                                                  05/27/2021  15:12:49  PAGE 41


  C:8C3FH         LINE#         625
  C:8C44H         LINE#         626
  C:8C44H         LINE#         630
  C:8C49H         LINE#         631
  -------         ENDPROC       _CHECK_FECHAOUT
  -------         ENDMOD        CLOCK

  -------         MODULE        DELAY
  C:0000H         SYMBOL        _ICE_DUMMY_
  C:B857H         PUBLIC        _Delay_10ms
  C:BD64H         PUBLIC        _Delay_20us
  C:BCC5H         PUBLIC        _Delay_1ms
  C:BE81H         PUBLIC        Delay
  -------         PROC          _DELAY_20US
  D:0006H         SYMBOL        cntd_us
  -------         DO            
  D:0004H         SYMBOL        i
  -------         ENDDO         
  C:BD64H         LINE#         20
  C:BD64H         LINE#         21
  C:BD64H         LINE#         24
  C:BD6EH         LINE#         26
  C:BD75H         LINE#         27
  -------         ENDPROC       _DELAY_20US
  -------         PROC          _DELAY_1MS
  D:0002H         SYMBOL        cntd_ms
  -------         DO            
  D:0082H         SYMBOL        i
  -------         ENDDO         
  C:BCC5H         LINE#         38
  C:BCC9H         LINE#         39
  C:BCC9H         LINE#         41
  C:BCDFH         LINE#         42
  -------         ENDPROC       _DELAY_1MS
  -------         PROC          _DELAY_10MS
  X:001CH         SYMBOL        cntd_10ms
  -------         DO            
  X:001EH         SYMBOL        i
  -------         ENDDO         
  C:B857H         LINE#         54
  C:B85FH         LINE#         55
  C:B85FH         LINE#         57
  C:B890H         LINE#         58
  -------         ENDPROC       _DELAY_10MS
  -------         PROC          DELAY
  C:BE81H         LINE#         60
  C:BE81H         LINE#         62
  -------         ENDPROC       DELAY
  -------         ENDMOD        DELAY

  -------         MODULE        EEPROM
  C:0000H         SYMBOL        _ICE_DUMMY_
  D:0090H         PUBLIC        P1
  C:813FH         PUBLIC        _Write_EEprom_Ticket
  C:AC72H         PUBLIC        _EscribirMemoria
  X:0208H         PUBLIC        l_chr
  C:BC2CH         PUBLIC        ackd
BL51 BANKED LINKER/LOCATER V6.22.2.0                                                  05/27/2021  15:12:49  PAGE 42


  B:0021H.6       PUBLIC        memory_flag
  B:00D0H.7       PUBLIC        CY
  C:BE69H         PUBLIC        p_me
  C:BD7EH         PUBLIC        start
  B:0090H.2       PUBLIC        sda
  C:BC4CH         PUBLIC        ack_lect
  B:0090H.3       PUBLIC        scl
  C:B72EH         PUBLIC        _rd_eeprom
  C:BE0BH         PUBLIC        stop
  X:0209H         PUBLIC        l_data_eeprom
  C:B074H         PUBLIC        _wr_eeprom
  C:AE23H         PUBLIC        _LeerMemoria
  C:B96FH         PUBLIC        Incremente_Ticket
  X:020AH         PUBLIC        byte_rd
  C:8AB7H         PUBLIC        Read_EEprom_Ticket
  C:BBC4H         PUBLIC        _e_d_m
  C:8920H         PUBLIC        _graba_serie
  C:B14DH         PUBLIC        Lee_No_Ticket
  C:B100H         PUBLIC        l_d_m
  -------         PROC          L?0057
  -------         ENDPROC       L?0057
  -------         PROC          ACKD
  -------         DO            
  D:0006H         SYMBOL        i
  -------         ENDDO         
  C:BC2CH         LINE#         35
  C:BC2CH         LINE#         36
  C:BC2CH         LINE#         38
  C:BC2EH         LINE#         39
  C:BC30H         LINE#         40
  C:BC32H         LINE#         41
  C:BC35H         LINE#         42
  C:BC35H         LINE#         43
  C:BC38H         LINE#         44
  C:BC38H         LINE#         45
  C:BC3AH         LINE#         46
  C:BC3CH         LINE#         48
  C:BC3DH         LINE#         49
  C:BC3DH         LINE#         50
  C:BC48H         LINE#         52
  C:BC48H         LINE#         53
  C:BC48H         LINE#         55
  C:BC48H         LINE#         56
  -------         ENDPROC       ACKD
  -------         PROC          L?0061
  -------         ENDPROC       L?0061
  -------         PROC          ACK_LECT
  -------         DO            
  D:0006H         SYMBOL        i
  -------         ENDDO         
  C:BC4CH         LINE#         59
  C:BC4CH         LINE#         60
  C:BC4CH         LINE#         62
  C:BC4EH         LINE#         63
  C:BC50H         LINE#         64
  C:BC52H         LINE#         65
  C:BC55H         LINE#         66
BL51 BANKED LINKER/LOCATER V6.22.2.0                                                  05/27/2021  15:12:49  PAGE 43


  C:BC55H         LINE#         67
  C:BC58H         LINE#         68
  C:BC58H         LINE#         69
  C:BC5AH         LINE#         70
  C:BC5CH         LINE#         71
  C:BC5DH         LINE#         72
  C:BC5DH         LINE#         73
  C:BC68H         LINE#         74
  -------         ENDPROC       ACK_LECT
  -------         PROC          P_ME
  C:BE69H         LINE#         76
  C:BE69H         LINE#         77
  C:BE69H         LINE#         78
  C:BE6BH         LINE#         79
  C:BE6CH         LINE#         80
  C:BE6EH         LINE#         81
  -------         ENDPROC       P_ME
  -------         PROC          _E_D_M
  D:0007H         SYMBOL        a_serial_eeprom
  -------         DO            
  D:0006H         SYMBOL        nbits
  -------         ENDDO         
  C:BBC4H         LINE#         83
  C:BBC4H         LINE#         84
  C:BBC4H         LINE#         86
  C:BBD0H         LINE#         87
  C:BBD0H         LINE#         88
  C:BBD4H         LINE#         89
  C:BBD7H         LINE#         90
  C:BBD7H         LINE#         91
  C:BBD9H         LINE#         92
  C:BBDBH         LINE#         94
  C:BBDBH         LINE#         95
  C:BBDDH         LINE#         96
  C:BBDDH         LINE#         97
  C:BBDFH         LINE#         98
  C:BBE2H         LINE#         99
  C:BBE5H         LINE#         101
  -------         ENDPROC       _E_D_M
  -------         PROC          L?0058
  -------         ENDPROC       L?0058
  -------         PROC          START
  C:BD7EH         LINE#         103
  C:BD7EH         LINE#         104
  C:BD7EH         LINE#         105
  C:BD80H         LINE#         106
  C:BD82H         LINE#         107
  C:BD83H         LINE#         108
  C:BD85H         LINE#         109
  C:BD87H         LINE#         111
  -------         ENDPROC       START
  -------         PROC          STOP
  C:BE0BH         LINE#         113
  C:BE0BH         LINE#         114
  C:BE0BH         LINE#         115
  C:BE0DH         LINE#         116
  C:BE0FH         LINE#         117
BL51 BANKED LINKER/LOCATER V6.22.2.0                                                  05/27/2021  15:12:49  PAGE 44


  C:BE10H         LINE#         118
  C:BE12H         LINE#         119
  C:BE14H         LINE#         121
  -------         ENDPROC       STOP
  -------         PROC          L_D_M
  -------         DO            
  D:0003H         SYMBOL        nbits
  -------         ENDDO         
  C:B100H         LINE#         123
  C:B100H         LINE#         124
  C:B100H         LINE#         126
  C:B10DH         LINE#         127
  C:B10DH         LINE#         128
  C:B10FH         LINE#         129
  C:B112H         LINE#         130
  C:B112H         LINE#         131
  C:B119H         LINE#         132
  C:B122H         LINE#         133
  C:B122H         LINE#         134
  C:B126H         LINE#         135
  C:B128H         LINE#         136
  C:B128H         LINE#         137
  C:B128H         LINE#         138
  C:B12BH         LINE#         139
  C:B12BH         LINE#         140
  C:B132H         LINE#         141
  C:B13CH         LINE#         142
  C:B13CH         LINE#         143
  C:B140H         LINE#         144
  C:B142H         LINE#         145
  C:B142H         LINE#         146
  C:B142H         LINE#         147
  C:B145H         LINE#         148
  C:B147H         LINE#         149
  C:B14CH         LINE#         150
  -------         ENDPROC       L_D_M
  -------         PROC          L?0056
  -------         ENDPROC       L?0056
  -------         PROC          _WR_EEPROM
  D:0002H         SYMBOL        control
  D:0004H         SYMBOL        Dir
  D:0003H         SYMBOL        data_eeprom
  -------         DO            
  D:0005H         SYMBOL        dir_h
  D:0001H         SYMBOL        dir_l
  -------         ENDDO         
  C:B074H         LINE#         156
  C:B076H         LINE#         157
  C:B076H         LINE#         159
  C:B07AH         LINE#         160
  C:B07AH         LINE#         161
  C:B07AH         LINE#         164
  C:B07AH         LINE#         165
  C:B07AH         LINE#         167
  C:B07DH         LINE#         168
  C:B07FH         LINE#         169
  C:B082H         LINE#         170
BL51 BANKED LINKER/LOCATER V6.22.2.0                                                  05/27/2021  15:12:49  PAGE 45


  C:B084H         LINE#         171
  C:B087H         LINE#         172
  C:B08CH         LINE#         173
  C:B08FH         LINE#         174
  C:B094H         LINE#         175
  C:B097H         LINE#         176
  C:B09AH         LINE#         177
  C:B0A1H         LINE#         179
  C:B0A3H         LINE#         180
  C:B0A5H         LINE#         181
  C:B0ACH         LINE#         182
  -------         ENDPROC       _WR_EEPROM
  C:B72AH         SYMBOL        L?0060
  -------         PROC          L?0059
  -------         ENDPROC       L?0059
  C:B72AH         SYMBOL        L?0060
  -------         PROC          _RD_EEPROM
  D:0003H         SYMBOL        control
  D:0004H         SYMBOL        Dir
  -------         DO            
  D:0005H         SYMBOL        dir_h
  D:0002H         SYMBOL        dir_l
  -------         ENDDO         
  C:B72EH         LINE#         220
  C:B730H         LINE#         221
  C:B730H         LINE#         224
  C:B734H         LINE#         225
  C:B734H         LINE#         226
  C:B734H         LINE#         228
  C:B734H         LINE#         229
  C:B734H         LINE#         231
  C:B737H         LINE#         232
  C:B739H         LINE#         233
  C:B73CH         LINE#         234
  C:B73EH         LINE#         235
  C:B741H         LINE#         236
  C:B746H         LINE#         237
  C:B749H         LINE#         238
  C:B74CH         LINE#         239
  C:B752H         LINE#         240
  C:B755H         LINE#         241
  C:B757H         LINE#         242
  C:B75AH         LINE#         243
  C:B75DH         LINE#         244
  C:B75FH         LINE#         245
  C:B761H         LINE#         246
  C:B766H         LINE#         247
  -------         ENDPROC       _RD_EEPROM
  -------         PROC          _GRABA_SERIE
  X:0010H         SYMBOL        buffer
  -------         DO            
  X:0013H         SYMBOL        j
  X:0014H         SYMBOL        error
  -------         ENDDO         
  C:8920H         LINE#         254
  C:892BH         LINE#         255
  C:892BH         LINE#         258
BL51 BANKED LINKER/LOCATER V6.22.2.0                                                  05/27/2021  15:12:49  PAGE 46


  C:8930H         LINE#         263
  C:8942H         LINE#         265
  C:8955H         LINE#         266
  C:8955H         LINE#         267
  C:897EH         LINE#         268
  C:897EH         LINE#         269
  C:8984H         LINE#         271
  C:898DH         LINE#         272
  C:899BH         LINE#         273
  C:89A4H         LINE#         274
  C:89A4H         LINE#         276
  C:89ACH         LINE#         280
  C:89B2H         LINE#         281
  C:89B2H         LINE#         282
  C:89C0H         LINE#         284
  C:89C0H         LINE#         286
  C:89C0H         LINE#         287
  C:89CAH         LINE#         288
  C:89D5H         LINE#         289
  C:89E0H         LINE#         290
  C:89EBH         LINE#         292
  C:89EBH         LINE#         293
  -------         ENDPROC       _GRABA_SERIE
  -------         PROC          _WRITE_EEPROM_TICKET
  X:0015H         SYMBOL        buffer
  -------         DO            
  X:0018H         SYMBOL        cod_3
  X:0019H         SYMBOL        cod_2
  X:001AH         SYMBOL        cod_1
  X:001BH         SYMBOL        cod_0
  X:001CH         SYMBOL        Noticket
  D:0004H         SYMBOL        Bnoticket
  -------         ENDDO         
  C:813FH         LINE#         294
  C:814AH         LINE#         295
  C:814AH         LINE#         297
  C:8152H         LINE#         298
  C:815BH         LINE#         299
  C:8169H         LINE#         300
  C:8172H         LINE#         301
  C:8186H         LINE#         303
  C:818FH         LINE#         304
  C:81A2H         LINE#         305
  C:81A7H         LINE#         306
  C:81AAH         LINE#         308
  C:81BDH         LINE#         309
  C:81C2H         LINE#         310
  C:81C5H         LINE#         312
  C:81D8H         LINE#         313
  C:81DDH         LINE#         314
  C:81E0H         LINE#         316
  C:81ECH         LINE#         317
  C:81EFH         LINE#         318
  C:81F8H         LINE#         320
  C:8206H         LINE#         321
  C:8214H         LINE#         322
  C:8222H         LINE#         323
BL51 BANKED LINKER/LOCATER V6.22.2.0                                                  05/27/2021  15:12:49  PAGE 47


  -------         ENDPROC       _WRITE_EEPROM_TICKET
  -------         PROC          LEE_NO_TICKET
  -------         DO            
  D:0004H         SYMBOL        Noticket
  X:0043H         SYMBOL        Lee_No_Ticket
  D:0007H         SYMBOL        num_chr
  -------         ENDDO         
  C:B14DH         LINE#         328
  C:B14DH         LINE#         329
  C:B14DH         LINE#         333
  C:B150H         LINE#         334
  C:B16BH         LINE#         335
  C:B174H         LINE#         336
  C:B180H         LINE#         337
  C:B189H         LINE#         338
  C:B192H         LINE#         339
  C:B198H         LINE#         340
  -------         ENDPROC       LEE_NO_TICKET
  -------         PROC          READ_EEPROM_TICKET
  -------         DO            
  D:0001H         SYMBOL        cod3
  X:004EH         SYMBOL        cod2
  X:004FH         SYMBOL        cod1
  X:0050H         SYMBOL        cod0
  X:0051H         SYMBOL        Noticket
  -------         ENDDO         
  C:8AB7H         LINE#         344
  C:8AB7H         LINE#         345
  C:8AB7H         LINE#         347
  C:8AC1H         LINE#         348
  C:8AC8H         LINE#         349
  C:8AD2H         LINE#         350
  C:8AE0H         LINE#         351
  C:8AEAH         LINE#         353
  C:8B0AH         LINE#         354
  C:8B2FH         LINE#         355
  C:8B54H         LINE#         356
  C:8B72H         LINE#         357
  C:8B80H         LINE#         358
  -------         ENDPROC       READ_EEPROM_TICKET
  -------         PROC          INCREMENTE_TICKET
  -------         DO            
  D:0004H         SYMBOL        Noticket
  X:0009H         SYMBOL        Lee_No_Ticket
  -------         ENDDO         
  C:B96FH         LINE#         362
  C:B96FH         LINE#         363
  C:B96FH         LINE#         367
  C:B972H         LINE#         368
  C:B97FH         LINE#         369
  C:B99AH         LINE#         370
  -------         ENDPROC       INCREMENTE_TICKET
  -------         PROC          _LEERMEMORIA
  X:009CH         SYMBOL        addres
  X:009EH         SYMBOL        res
  -------         DO            
  D:0007H         SYMBOL        i
BL51 BANKED LINKER/LOCATER V6.22.2.0                                                  05/27/2021  15:12:49  PAGE 48


  -------         ENDDO         
  C:AE23H         LINE#         376
  C:AE34H         LINE#         377
  C:AE34H         LINE#         379
  C:AE34H         LINE#         380
  C:AE50H         LINE#         381
  C:AE5FH         LINE#         382
  C:AE6DH         LINE#         383
  C:AE77H         LINE#         384
  C:AE7AH         LINE#         385
  -------         ENDPROC       _LEERMEMORIA
  -------         PROC          _ESCRIBIRMEMORIA
  X:005DH         SYMBOL        addres
  X:005FH         SYMBOL        res
  C:AC72H         LINE#         387
  C:AC83H         LINE#         388
  C:AC83H         LINE#         391
  C:AC93H         LINE#         392
  C:AC9AH         LINE#         393
  C:AC9DH         LINE#         395
  C:ACABH         LINE#         396
  C:ACB5H         LINE#         397
  C:ACB7H         LINE#         398
  C:ACBAH         LINE#         399
  C:ACC8H         LINE#         400
  C:ACD2H         LINE#         401
  -------         ENDPROC       _ESCRIBIRMEMORIA
  -------         ENDMOD        EEPROM

  -------         MODULE        IO_SENSORES
  C:0000H         SYMBOL        _ICE_DUMMY_
  D:0090H         PUBLIC        P1
  D:00B0H         PUBLIC        P3
  C:B4ABH         PUBLIC        Dir_board
  B:0021H.7       PUBLIC        PULSADOR_BOTTON
  C:BE46H         PUBLIC        sel_Pulsa
  B:0090H.1       PUBLIC        DataIn
  C:BD26H         PUBLIC        Dir_Board_Monitor
  C:BE3FH         PUBLIC        sel_Auto
  C:B8CBH         PUBLIC        ValidaSensoresPaso
  B:00B0H.3       PUBLIC        busy
  C:BC69H         PUBLIC        ValidaSensor
  C:BE54H         PUBLIC        sel_Sensor1
  C:BE4DH         PUBLIC        sel_Sensor2
  C:BBE6H         PUBLIC        ValidaSensor_cero
  C:B002H         PUBLIC        Valida_Sensor1_Auto
  B:00B0H.5       PUBLIC        sel_A
  B:00B0H.6       PUBLIC        sel_B
  B:00B0H.7       PUBLIC        sel_C
  C:A602H         PUBLIC        msj_lcd_informativo
  C:BE5BH         PUBLIC        sel_Dir1
  C:BE62H         PUBLIC        sel_Dir2
  C:BD88H         PUBLIC        Botton
  C:BE38H         PUBLIC        sel_Funcion
  -------         PROC          SEL_FUNCION
  C:BE38H         LINE#         33
  C:BE38H         LINE#         34
BL51 BANKED LINKER/LOCATER V6.22.2.0                                                  05/27/2021  15:12:49  PAGE 49


  C:BE38H         LINE#         35
  C:BE3AH         LINE#         36
  C:BE3CH         LINE#         37
  C:BE3EH         LINE#         38
  -------         ENDPROC       SEL_FUNCION
  -------         PROC          SEL_AUTO
  C:BE3FH         LINE#         40
  C:BE3FH         LINE#         41
  C:BE3FH         LINE#         42
  C:BE41H         LINE#         43
  C:BE43H         LINE#         44
  C:BE45H         LINE#         45
  -------         ENDPROC       SEL_AUTO
  -------         PROC          SEL_PULSA
  C:BE46H         LINE#         47
  C:BE46H         LINE#         48
  C:BE46H         LINE#         49
  C:BE48H         LINE#         50
  C:BE4AH         LINE#         51
  C:BE4CH         LINE#         52
  -------         ENDPROC       SEL_PULSA
  -------         PROC          SEL_SENSOR2
  C:BE4DH         LINE#         55
  C:BE4DH         LINE#         56
  C:BE4DH         LINE#         57
  C:BE4FH         LINE#         58
  C:BE51H         LINE#         59
  C:BE53H         LINE#         60
  -------         ENDPROC       SEL_SENSOR2
  -------         PROC          SEL_SENSOR1
  C:BE54H         LINE#         62
  C:BE54H         LINE#         63
  C:BE54H         LINE#         64
  C:BE56H         LINE#         65
  C:BE58H         LINE#         66
  C:BE5AH         LINE#         67
  -------         ENDPROC       SEL_SENSOR1
  -------         PROC          SEL_DIR1
  C:BE5BH         LINE#         69
  C:BE5BH         LINE#         70
  C:BE5BH         LINE#         71
  C:BE5DH         LINE#         72
  C:BE5FH         LINE#         73
  C:BE61H         LINE#         74
  -------         ENDPROC       SEL_DIR1
  -------         PROC          SEL_DIR2
  C:BE62H         LINE#         76
  C:BE62H         LINE#         77
  C:BE62H         LINE#         78
  C:BE64H         LINE#         79
  C:BE66H         LINE#         80
  C:BE68H         LINE#         81
  -------         ENDPROC       SEL_DIR2
  -------         PROC          BOTTON
  C:BD88H         LINE#         82
  C:BD88H         LINE#         83
  C:BD88H         LINE#         84
BL51 BANKED LINKER/LOCATER V6.22.2.0                                                  05/27/2021  15:12:49  PAGE 50


  C:BD8BH         LINE#         85
  C:BD8EH         LINE#         86
  C:BD8EH         LINE#         87
  C:BD97H         LINE#         88
  C:BD99H         LINE#         89
  C:BD99H         LINE#         91
  -------         ENDPROC       BOTTON
  -------         PROC          VALIDASENSOR
  -------         DO            
  D:0007H         SYMBOL        Valido
  D:0004H         SYMBOL        Tmin
  -------         ENDDO         
  C:BC69H         LINE#         93
  C:BC69H         LINE#         94
  C:BC69H         LINE#         96
  C:BC6BH         LINE#         97
  C:BC6FH         LINE#         98
  C:BC7AH         LINE#         99
  C:BC7AH         LINE#         100
  C:BC7FH         LINE#         101
  C:BC83H         LINE#         102
  C:BC83H         LINE#         103
  C:BC85H         LINE#         104
  C:BC85H         LINE#         105
  C:BC87H         LINE#         106
  C:BC87H         LINE#         107
  -------         ENDPROC       VALIDASENSOR
  -------         PROC          VALIDASENSOR_CERO
  -------         DO            
  D:0007H         SYMBOL        Valido
  D:0004H         SYMBOL        Tmin
  -------         ENDDO         
  C:BBE6H         LINE#         108
  C:BBE6H         LINE#         109
  C:BBE6H         LINE#         111
  C:BBE8H         LINE#         112
  C:BBECH         LINE#         113
  C:BBFBH         LINE#         114
  C:BBFBH         LINE#         115
  C:BC00H         LINE#         116
  C:BC04H         LINE#         117
  C:BC04H         LINE#         118
  C:BC05H         LINE#         119
  C:BC05H         LINE#         120
  C:BC07H         LINE#         121
  C:BC07H         LINE#         122
  -------         ENDPROC       VALIDASENSOR_CERO
  -------         PROC          DIR_BOARD
  -------         DO            
  X:0032H         SYMBOL        Board
  D:0007H         SYMBOL        Board_High
  -------         ENDDO         
  C:B4ABH         LINE#         126
  C:B4ABH         LINE#         127
  C:B4ABH         LINE#         128
  C:B4B1H         LINE#         130
  C:B4B4H         LINE#         131
BL51 BANKED LINKER/LOCATER V6.22.2.0                                                  05/27/2021  15:12:49  PAGE 51


  C:B4B7H         LINE#         132
  C:B4B7H         LINE#         133
  C:B4BAH         LINE#         134
  C:B4BAH         LINE#         135
  C:B4BDH         LINE#         136
  C:B4C0H         LINE#         137
  C:B4C0H         LINE#         138
  C:B4C7H         LINE#         139
  C:B4C7H         LINE#         140
  C:B4CFH         LINE#         141
  C:B4CFH         LINE#         142
  C:B4D7H         LINE#         144
  C:B4DAH         LINE#         145
  C:B4DAH         LINE#         146
  C:B4E0H         LINE#         147
  C:B4E0H         LINE#         148
  C:B4E2H         LINE#         149
  C:B4E4H         LINE#         150
  C:B4E6H         LINE#         151
  C:B4E6H         LINE#         153
  C:B4E6H         LINE#         154
  C:B4EDH         LINE#         155
  -------         ENDPROC       DIR_BOARD
  -------         PROC          DIR_BOARD_MONITOR
  -------         DO            
  D:0007H         SYMBOL        Board_High
  -------         ENDDO         
  C:BD26H         LINE#         156
  C:BD26H         LINE#         157
  C:BD26H         LINE#         160
  C:BD2FH         LINE#         161
  C:BD32H         LINE#         162
  C:BD32H         LINE#         163
  C:BD35H         LINE#         164
  C:BD35H         LINE#         165
  C:BD37H         LINE#         166
  C:BD37H         LINE#         167
  C:BD37H         LINE#         168
  C:BD3BH         LINE#         169
  -------         ENDPROC       DIR_BOARD_MONITOR
  -------         PROC          VALIDA_SENSOR1_AUTO
  -------         DO            
  X:0011H         SYMBOL        sensor
  -------         ENDDO         
  C:B002H         LINE#         173
  C:B002H         LINE#         174
  C:B002H         LINE#         176
  C:B005H         LINE#         177
  C:B008H         LINE#         178
  C:B00BH         LINE#         179
  C:B010H         LINE#         180
  C:B010H         LINE#         181
  C:B017H         LINE#         182
  C:B01BH         LINE#         183
  C:B01BH         LINE#         184
  C:B01BH         LINE#         185
  C:B01DH         LINE#         187
BL51 BANKED LINKER/LOCATER V6.22.2.0                                                  05/27/2021  15:12:49  PAGE 52


  C:B01DH         LINE#         188
  C:B024H         LINE#         189
  C:B029H         LINE#         190
  C:B029H         LINE#         191
  C:B029H         LINE#         192
  C:B029H         LINE#         195
  C:B02BH         LINE#         197
  C:B02EH         LINE#         198
  C:B033H         LINE#         199
  C:B033H         LINE#         201
  C:B03AH         LINE#         202
  C:B040H         LINE#         203
  C:B046H         LINE#         204
  C:B049H         LINE#         205
  C:B04BH         LINE#         207
  C:B04BH         LINE#         208
  C:B052H         LINE#         209
  C:B057H         LINE#         210
  C:B057H         LINE#         213
  C:B057H         LINE#         215
  C:B05CH         LINE#         216
  -------         ENDPROC       VALIDA_SENSOR1_AUTO
  -------         PROC          VALIDASENSORESPASO
  -------         DO            
  X:0010H         SYMBOL        sensor
  -------         ENDDO         
  C:B8CBH         LINE#         221
  C:B8CBH         LINE#         222
  C:B8CBH         LINE#         224
  C:B8CEH         LINE#         225
  C:B8D1H         LINE#         226
  C:B8D1H         LINE#         227
  C:B8DFH         LINE#         228
  C:B8DFH         LINE#         229
  C:B8E7H         LINE#         231
  C:B8E9H         LINE#         233
  C:B8E9H         LINE#         234
  C:B8EFH         LINE#         235
  C:B8F1H         LINE#         236
  C:B8F1H         LINE#         237
  C:B8F1H         LINE#         238
  C:B8F1H         LINE#         239
  C:B8FAH         LINE#         240
  C:B8FDH         LINE#         241
  C:B8FDH         LINE#         242
  C:B902H         LINE#         243
  -------         ENDPROC       VALIDASENSORESPASO
  -------         PROC          MSJ_LCD_INFORMATIVO
  -------         DO            
  X:0211H         SYMBOL        contador
  X:0001H         SYMBOL        info
  X:0212H         SYMBOL        toggle
  -------         ENDDO         
  C:A602H         LINE#         253
  C:A602H         LINE#         254
  C:A602H         LINE#         256
  C:A607H         LINE#         258
BL51 BANKED LINKER/LOCATER V6.22.2.0                                                  05/27/2021  15:12:49  PAGE 53


  C:A60DH         LINE#         259
  C:A617H         LINE#         260
  C:A617H         LINE#         261
  C:A619H         LINE#         262
  C:A61CH         LINE#         263
  C:A625H         LINE#         264
  C:A625H         LINE#         265
  C:A62FH         LINE#         266
  C:A62FH         LINE#         267
  C:A63BH         LINE#         268
  C:A63BH         LINE#         269
  C:A63EH         LINE#         270
  C:A63EH         LINE#         271
  C:A640H         LINE#         272
  C:A643H         LINE#         273
  C:A649H         LINE#         274
  C:A649H         LINE#         275
  C:A657H         LINE#         276
  C:A657H         LINE#         277
  C:A65DH         LINE#         278
  C:A65DH         LINE#         279
  C:A65FH         LINE#         280
  C:A66DH         LINE#         281
  C:A66DH         LINE#         282
  C:A670H         LINE#         283
  C:A670H         LINE#         284
  C:A672H         LINE#         285
  C:A675H         LINE#         286
  C:A67AH         LINE#         287
  C:A67AH         LINE#         288
  C:A67AH         LINE#         289
  C:A67AH         LINE#         290
  C:A67AH         LINE#         291
  C:A67DH         LINE#         292
  C:A680H         LINE#         293
  C:A680H         LINE#         294
  C:A685H         LINE#         295
  C:A685H         LINE#         296
  C:A685H         LINE#         297
  -------         ENDPROC       MSJ_LCD_INFORMATIVO
  -------         ENDMOD        IO_SENSORES

  -------         MODULE        PANTALLAS
  C:0000H         SYMBOL        _ICE_DUMMY_
  D:0080H         PUBLIC        P0
  C:AA91H         PUBLIC        Reloj_Pantalla_Lcd
  C:2776H         PUBLIC        _PantallaLCD
  C:B46FH         PUBLIC        _LCD_txt
  C:A797H         PUBLIC        _Raspberry_data
  C:BB11H         PUBLIC        _tx_chrlcd
  C:356BH         SYMBOL        _?ix1000
  C:3571H         SYMBOL        _?ix1001
  C:3577H         SYMBOL        _?ix1002
  C:359FH         SYMBOL        _?ix1003
  C:B395H         PUBLIC        _LCD_txt_num_char
  C:4C23H         PUBLIC        _PantallaLCD_LINEA_2
  B:0098H.4       PUBLIC        REN
BL51 BANKED LINKER/LOCATER V6.22.2.0                                                  05/27/2021  15:12:49  PAGE 54


  B:0080H.7       PUBLIC        sel_com
  -------         PROC          _PANTALLALCD
  X:002AH         SYMBOL        cod_msg
  -------         DO            
  X:002BH         SYMBOL        Ini_LCD_Line_one
  X:0031H         SYMBOL        num_chr
  X:0032H         SYMBOL        msjpantalla
  -------         ENDDO         
  C:2776H         LINE#         96
  C:277BH         LINE#         97
  C:277BH         LINE#         99
  C:278EH         LINE#         104
  C:2795H         LINE#         108
  C:2797H         LINE#         110
  C:27A0H         LINE#         111
  C:27A0H         LINE#         112
  C:27AAH         LINE#         114
  C:2806H         LINE#         115
  C:2806H         LINE#         117
  C:2806H         LINE#         118
  C:2814H         LINE#         119
  C:281AH         LINE#         120
  C:281DH         LINE#         121
  C:2823H         LINE#         122
  C:2826H         LINE#         124
  C:2826H         LINE#         126
  C:2834H         LINE#         127
  C:283AH         LINE#         128
  C:283DH         LINE#         129
  C:2843H         LINE#         130
  C:2846H         LINE#         132
  C:2846H         LINE#         134
  C:2854H         LINE#         135
  C:285AH         LINE#         136
  C:285DH         LINE#         137
  C:2863H         LINE#         138
  C:2866H         LINE#         139
  C:2866H         LINE#         140
  C:2874H         LINE#         141
  C:287AH         LINE#         142
  C:287DH         LINE#         143
  C:2883H         LINE#         144
  C:2886H         LINE#         145
  C:2886H         LINE#         146
  C:2894H         LINE#         147
  C:289AH         LINE#         148
  C:289DH         LINE#         149
  C:28A3H         LINE#         150
  C:28A6H         LINE#         151
  C:28A6H         LINE#         152
  C:28B4H         LINE#         153
  C:28BAH         LINE#         154
  C:28BDH         LINE#         155
  C:28C3H         LINE#         156
  C:28C6H         LINE#         157
  C:28C6H         LINE#         159
  C:28D4H         LINE#         160
BL51 BANKED LINKER/LOCATER V6.22.2.0                                                  05/27/2021  15:12:49  PAGE 55


  C:28DAH         LINE#         161
  C:28DDH         LINE#         162
  C:28E3H         LINE#         163
  C:28E6H         LINE#         164
  C:28E6H         LINE#         170
  C:28E6H         LINE#         171
  C:28F4H         LINE#         172
  C:28FAH         LINE#         173
  C:28FDH         LINE#         174
  C:2903H         LINE#         175
  C:2906H         LINE#         176
  C:2906H         LINE#         177
  C:2914H         LINE#         178
  C:291AH         LINE#         179
  C:291DH         LINE#         180
  C:2923H         LINE#         181
  C:2926H         LINE#         183
  C:2926H         LINE#         184
  C:2934H         LINE#         185
  C:293AH         LINE#         186
  C:293DH         LINE#         187
  C:2943H         LINE#         188
  C:2946H         LINE#         190
  C:2946H         LINE#         191
  C:2954H         LINE#         192
  C:295AH         LINE#         193
  C:295DH         LINE#         194
  C:2963H         LINE#         195
  C:2966H         LINE#         200
  C:2966H         LINE#         202
  C:2974H         LINE#         203
  C:297AH         LINE#         204
  C:297DH         LINE#         205
  C:2983H         LINE#         206
  C:2986H         LINE#         208
  C:2986H         LINE#         210
  C:2994H         LINE#         211
  C:299AH         LINE#         212
  C:299DH         LINE#         213
  C:29A3H         LINE#         214
  C:29A6H         LINE#         216
  C:29A6H         LINE#         217
  C:29B4H         LINE#         218
  C:29BAH         LINE#         219
  C:29BDH         LINE#         220
  C:29C3H         LINE#         221
  C:29C6H         LINE#         223
  C:29C6H         LINE#         225
  C:29D4H         LINE#         226
  C:29DAH         LINE#         227
  C:29DDH         LINE#         228
  C:29E3H         LINE#         229
  C:29E6H         LINE#         231
  C:29E6H         LINE#         233
  C:29F4H         LINE#         234
  C:29FAH         LINE#         235
  C:29FDH         LINE#         236
BL51 BANKED LINKER/LOCATER V6.22.2.0                                                  05/27/2021  15:12:49  PAGE 56


  C:2A03H         LINE#         237
  C:2A06H         LINE#         239
  C:2A06H         LINE#         240
  C:2A14H         LINE#         241
  C:2A1AH         LINE#         242
  C:2A1DH         LINE#         243
  C:2A23H         LINE#         244
  C:2A26H         LINE#         246
  C:2A26H         LINE#         247
  C:2A34H         LINE#         248
  C:2A3AH         LINE#         249
  C:2A3DH         LINE#         250
  C:2A43H         LINE#         251
  C:2A46H         LINE#         253
  C:2A46H         LINE#         255
  C:2A54H         LINE#         256
  C:2A5AH         LINE#         257
  C:2A5DH         LINE#         258
  C:2A63H         LINE#         259
  C:2A66H         LINE#         261
  C:2A66H         LINE#         262
  C:2A74H         LINE#         263
  C:2A7AH         LINE#         264
  C:2A7DH         LINE#         265
  C:2A83H         LINE#         266
  C:2A86H         LINE#         267
  C:2A86H         LINE#         268
  C:2A94H         LINE#         269
  C:2A9AH         LINE#         270
  C:2A9DH         LINE#         271
  C:2AA3H         LINE#         272
  C:2AA6H         LINE#         273
  C:2AA6H         LINE#         274
  C:2AB4H         LINE#         275
  C:2ABAH         LINE#         276
  C:2ABDH         LINE#         277
  C:2AC3H         LINE#         278
  C:2AC6H         LINE#         279
  C:2AC6H         LINE#         280
  C:2AD4H         LINE#         281
  C:2AD7H         LINE#         282
  C:2ADDH         LINE#         283
  C:2ADFH         LINE#         287
  C:2ADFH         LINE#         288
  C:2AEDH         LINE#         289
  C:2AF3H         LINE#         290
  C:2AF6H         LINE#         291
  C:2AFCH         LINE#         292
  C:2AFEH         LINE#         293
  C:2AFEH         LINE#         294
  C:2B0CH         LINE#         295
  C:2B12H         LINE#         296
  C:2B15H         LINE#         297
  C:2B1BH         LINE#         298
  C:2B1DH         LINE#         299
  C:2B1DH         LINE#         300
  C:2B2BH         LINE#         301
BL51 BANKED LINKER/LOCATER V6.22.2.0                                                  05/27/2021  15:12:49  PAGE 57


  C:2B31H         LINE#         302
  C:2B34H         LINE#         303
  C:2B3FH         LINE#         304
  C:2B3FH         LINE#         313
  C:2B3FH         LINE#         315
  C:2B3FH         LINE#         316
  C:2B3FH         LINE#         317
  C:2B41H         LINE#         319
  C:2B42H         LINE#         321
  C:2B42H         LINE#         322
  C:2B44H         LINE#         323
  C:2BB2H         LINE#         324
  C:2BB2H         LINE#         327
  C:2BB2H         LINE#         328
  C:2BC6H         LINE#         329
  C:2BC6H         LINE#         331
  C:2BC9H         LINE#         332
  C:2BC9H         LINE#         335
  C:2BDDH         LINE#         336
  C:2BDDH         LINE#         337
  C:2BE0H         LINE#         339
  C:2BE0H         LINE#         340
  C:2BF4H         LINE#         341
  C:2BF4H         LINE#         343
  C:2BF7H         LINE#         344
  C:2BF7H         LINE#         345
  C:2C0BH         LINE#         346
  C:2C0BH         LINE#         348
  C:2C0EH         LINE#         349
  C:2C0EH         LINE#         350
  C:2C22H         LINE#         351
  C:2C22H         LINE#         353
  C:2C25H         LINE#         354
  C:2C25H         LINE#         355
  C:2C39H         LINE#         356
  C:2C39H         LINE#         358
  C:2C3CH         LINE#         359
  C:2C3CH         LINE#         360
  C:2C50H         LINE#         361
  C:2C50H         LINE#         363
  C:2C53H         LINE#         364
  C:2C53H         LINE#         365
  C:2C67H         LINE#         366
  C:2C67H         LINE#         368
  C:2C6AH         LINE#         369
  C:2C6AH         LINE#         370
  C:2C7EH         LINE#         371
  C:2C7EH         LINE#         373
  C:2C81H         LINE#         374
  C:2C81H         LINE#         375
  C:2C95H         LINE#         376
  C:2C95H         LINE#         378
  C:2C98H         LINE#         380
  C:2C98H         LINE#         381
  C:2CACH         LINE#         382
  C:2CACH         LINE#         384
  C:2CAFH         LINE#         386
BL51 BANKED LINKER/LOCATER V6.22.2.0                                                  05/27/2021  15:12:49  PAGE 58


  C:2CAFH         LINE#         387
  C:2CC3H         LINE#         388
  C:2CC3H         LINE#         390
  C:2CC6H         LINE#         392
  C:2CC6H         LINE#         393
  C:2CDAH         LINE#         394
  C:2CDAH         LINE#         396
  C:2CDDH         LINE#         400
  C:2CDDH         LINE#         401
  C:2CF1H         LINE#         402
  C:2CF1H         LINE#         404
  C:2CF4H         LINE#         406
  C:2CF4H         LINE#         407
  C:2D08H         LINE#         408
  C:2D08H         LINE#         410
  C:2D0BH         LINE#         412
  C:2D0BH         LINE#         413
  C:2D1FH         LINE#         414
  C:2D1FH         LINE#         417
  C:2D22H         LINE#         418
  C:2D22H         LINE#         419
  C:2D36H         LINE#         420
  C:2D36H         LINE#         422
  C:2D39H         LINE#         423
  C:2D39H         LINE#         424
  C:2D4DH         LINE#         425
  C:2D4DH         LINE#         427
  C:2D50H         LINE#         428
  C:2D50H         LINE#         429
  C:2D64H         LINE#         430
  C:2D64H         LINE#         432
  C:2D67H         LINE#         433
  C:2D67H         LINE#         434
  C:2D7BH         LINE#         435
  C:2D7BH         LINE#         437
  C:2D7EH         LINE#         439
  C:2D7EH         LINE#         440
  C:2D92H         LINE#         441
  C:2D92H         LINE#         443
  C:2D95H         LINE#         445
  C:2D95H         LINE#         446
  C:2DA9H         LINE#         447
  C:2DA9H         LINE#         449
  C:2DACH         LINE#         450
  C:2DACH         LINE#         451
  C:2DC0H         LINE#         452
  C:2DC0H         LINE#         454
  C:2DC3H         LINE#         455
  C:2DC3H         LINE#         456
  C:2DD7H         LINE#         457
  C:2DD7H         LINE#         459
  C:2DDAH         LINE#         460
  C:2DDAH         LINE#         461
  C:2DEEH         LINE#         462
  C:2DEEH         LINE#         464
  C:2DF1H         LINE#         466
  C:2DF1H         LINE#         467
BL51 BANKED LINKER/LOCATER V6.22.2.0                                                  05/27/2021  15:12:49  PAGE 59


  C:2E05H         LINE#         468
  C:2E05H         LINE#         470
  C:2E08H         LINE#         471
  C:2E08H         LINE#         472
  C:2E1CH         LINE#         473
  C:2E1CH         LINE#         475
  C:2E1FH         LINE#         476
  C:2E1FH         LINE#         477
  C:2E33H         LINE#         478
  C:2E33H         LINE#         480
  C:2E35H         LINE#         482
  C:2E35H         LINE#         483
  C:2E49H         LINE#         484
  C:2E49H         LINE#         486
  C:2E4BH         LINE#         489
  C:2E4BH         LINE#         490
  C:2E5FH         LINE#         491
  C:2E5FH         LINE#         493
  C:2E61H         LINE#         494
  C:2E61H         LINE#         495
  C:2E75H         LINE#         496
  C:2E75H         LINE#         498
  C:2E77H         LINE#         499
  C:2E77H         LINE#         500
  C:2E8BH         LINE#         501
  C:2E8BH         LINE#         502
  C:2E8DH         LINE#         504
  C:2E8DH         LINE#         505
  C:2EA4H         LINE#         506
  C:2EB3H         LINE#         507
  C:2EB3H         LINE#         512
  C:2EB3H         LINE#         513
  C:2EB3H         LINE#         514
  C:2EB3H         LINE#         516
  C:2EBAH         LINE#         517
  C:2EBCH         LINE#         518
  C:2EBCH         LINE#         522
  -------         ENDPROC       _PANTALLALCD
  -------         PROC          _PANTALLALCD_LINEA_2
  X:0010H         SYMBOL        cod_msg
  X:0011H         SYMBOL        buffer
  -------         DO            
  X:0014H         SYMBOL        Ini_LCD_Line_one
  X:001AH         SYMBOL        num_chr
  X:001BH         SYMBOL        msjpantalla
  -------         ENDDO         
  C:4C23H         LINE#         523
  C:4C31H         LINE#         524
  C:4C31H         LINE#         526
  C:4C44H         LINE#         528
  C:4C57H         LINE#         535
  C:4C59H         LINE#         537
  C:4C62H         LINE#         538
  C:4C62H         LINE#         541
  C:4C70H         LINE#         542
  C:4C70H         LINE#         544
  C:4C70H         LINE#         545
BL51 BANKED LINKER/LOCATER V6.22.2.0                                                  05/27/2021  15:12:49  PAGE 60


  C:4C73H         LINE#         546
  C:4C81H         LINE#         547
  C:4C96H         LINE#         548
  C:4C9CH         LINE#         549
  C:4CA2H         LINE#         550
  C:4CA8H         LINE#         551
  C:4CA8H         LINE#         552
  C:4CAAH         LINE#         553
  C:4CAAH         LINE#         554
  C:4CADH         LINE#         555
  C:4CBBH         LINE#         556
  C:4CD0H         LINE#         557
  C:4CD6H         LINE#         558
  C:4CDCH         LINE#         559
  C:4CE7H         LINE#         560
  C:4CF7H         LINE#         561
  C:4CF7H         LINE#         565
  C:4CF7H         LINE#         567
  C:4CF7H         LINE#         569
  C:4CF7H         LINE#         570
  C:4CF9H         LINE#         571
  C:4CFAH         LINE#         573
  C:4CFAH         LINE#         574
  C:4CFCH         LINE#         576
  C:4D24H         LINE#         577
  C:4D24H         LINE#         578
  C:4D24H         LINE#         581
  C:4D30H         LINE#         583
  C:4D30H         LINE#         585
  C:4D30H         LINE#         588
  C:4D30H         LINE#         591
  C:4D33H         LINE#         593
  C:4D33H         LINE#         594
  C:4D3FH         LINE#         595
  C:4D3FH         LINE#         596
  C:4D3FH         LINE#         597
  C:4D3FH         LINE#         598
  C:4D3FH         LINE#         599
  C:4D3FH         LINE#         601
  C:4D42H         LINE#         602
  C:4D42H         LINE#         604
  C:4D4EH         LINE#         605
  C:4D51H         LINE#         606
  C:4D54H         LINE#         607
  C:4D54H         LINE#         609
  C:4D5DH         LINE#         611
  C:4D5DH         LINE#         612
  C:4D5FH         LINE#         614
  C:4D5FH         LINE#         616
  C:4D70H         LINE#         618
  C:4D73H         LINE#         620
  C:4D73H         LINE#         621
  C:4D7EH         LINE#         622
  C:4D7EH         LINE#         623
  C:4D85H         LINE#         625
  C:4D9BH         LINE#         627
  C:4DB2H         LINE#         628
BL51 BANKED LINKER/LOCATER V6.22.2.0                                                  05/27/2021  15:12:49  PAGE 61


  C:4DB5H         LINE#         630
  C:4DB5H         LINE#         631
  C:4DBCH         LINE#         633
  C:4DBCH         LINE#         634
  C:4DBCH         LINE#         637
  C:4DBFH         LINE#         638
  C:4DBFH         LINE#         639
  C:4DCEH         LINE#         640
  C:4DECH         LINE#         641
  C:4E03H         LINE#         643
  C:4E03H         LINE#         645
  C:4E06H         LINE#         646
  C:4E06H         LINE#         647
  C:4E15H         LINE#         648
  C:4E28H         LINE#         649
  C:4E42H         LINE#         650
  C:4E60H         LINE#         651
  C:4E77H         LINE#         652
  C:4E77H         LINE#         654
  C:4E79H         LINE#         655
  C:4E79H         LINE#         656
  C:4E88H         LINE#         657
  C:4EA6H         LINE#         658
  C:4EBDH         LINE#         659
  C:4EC0H         LINE#         660
  C:4EC0H         LINE#         661
  C:4EC0H         LINE#         663
  C:4EC0H         LINE#         664
  C:4EC0H         LINE#         666
  C:4EC5H         LINE#         667
  C:4EC7H         LINE#         668
  C:4EC7H         LINE#         669
  -------         ENDPROC       _PANTALLALCD_LINEA_2
  C:BB08H         SYMBOL        L?0176
  C:BB0BH         SYMBOL        L?0177
  C:BB0CH         SYMBOL        L?0178
  -------         PROC          L?0175
  -------         ENDPROC       L?0175
  C:BB08H         SYMBOL        L?0176
  C:BB0BH         SYMBOL        L?0177
  C:BB0CH         SYMBOL        L?0178
  -------         PROC          _TX_CHRLCD
  D:0007H         SYMBOL        data_com
  X:0048H         SYMBOL        enable_char_add
  -------         DO            
  X:0049H         SYMBOL        d
  -------         ENDDO         
  C:BB11H         LINE#         675
  C:BB16H         LINE#         676
  C:BB16H         LINE#         678
  C:BB1EH         LINE#         679
  C:BB2EH         LINE#         681
  -------         ENDPROC       _TX_CHRLCD
  -------         PROC          L?0181
  -------         ENDPROC       L?0181
  -------         PROC          _LCD_TXT
  X:0043H         SYMBOL        msg
BL51 BANKED LINKER/LOCATER V6.22.2.0                                                  05/27/2021  15:12:49  PAGE 62


  X:0046H         SYMBOL        enable_char_add
  -------         DO            
  X:0047H         SYMBOL        i
  -------         ENDDO         
  C:B46FH         LINE#         688
  C:B47DH         LINE#         689
  C:B47DH         LINE#         692
  C:B49AH         LINE#         693
  C:B49AH         LINE#         694
  C:B4A2H         LINE#         695
  C:B4AAH         LINE#         696
  -------         ENDPROC       _LCD_TXT
  -------         PROC          _LCD_TXT_NUM_CHAR
  X:001DH         SYMBOL        msg
  X:0020H         SYMBOL        length_char
  X:0021H         SYMBOL        enable_char_add
  -------         DO            
  X:0022H         SYMBOL        i
  -------         ENDDO         
  C:B395H         LINE#         703
  C:B3A3H         LINE#         704
  C:B3A3H         LINE#         707
  C:B3B6H         LINE#         708
  C:B3B6H         LINE#         709
  C:B3D2H         LINE#         710
  C:B3DAH         LINE#         711
  -------         ENDPROC       _LCD_TXT_NUM_CHAR
  C:A791H         SYMBOL        L?0180
  -------         PROC          L?0179
  -------         ENDPROC       L?0179
  C:A791H         SYMBOL        L?0180
  -------         PROC          _RASPBERRY_DATA
  X:0043H         SYMBOL        msjpantalla
  -------         DO            
  X:0046H         SYMBOL        i
  X:0047H         SYMBOL        lenth_cadena
  X:0048H         SYMBOL        d
  -------         ENDDO         
  C:A797H         LINE#         713
  C:A7A2H         LINE#         714
  C:A7A2H         LINE#         721
  C:A7AAH         LINE#         723
  C:A7BCH         LINE#         724
  C:A7BCH         LINE#         726
  C:A7CEH         LINE#         727
  C:A7CEH         LINE#         728
  C:A7D3H         LINE#         729
  C:A7F1H         LINE#         731
  C:A7F9H         LINE#         734
  C:A80BH         LINE#         735
  C:A80BH         LINE#         737
  C:A810H         LINE#         739
  -------         ENDPROC       _RASPBERRY_DATA
  -------         PROC          RELOJ_PANTALLA_LCD
  -------         DO            
  X:0010H         SYMBOL        Ini_Clock_LCD
  -------         ENDDO         
BL51 BANKED LINKER/LOCATER V6.22.2.0                                                  05/27/2021  15:12:49  PAGE 63


  C:AA91H         LINE#         747
  C:AA91H         LINE#         748
  C:AA91H         LINE#         750
  C:AAA4H         LINE#         752
  C:AAAAH         LINE#         753
  C:AAAAH         LINE#         754
  C:AAACH         LINE#         755
  C:AAB5H         LINE#         759
  C:AAB7H         LINE#         760
  C:AAC7H         LINE#         762
  C:AAC9H         LINE#         763
  C:AACBH         LINE#         765
  C:AACCH         LINE#         767
  C:AACCH         LINE#         768
  C:AACEH         LINE#         769
  C:AAD3H         LINE#         770
  C:AAE2H         LINE#         772
  C:AAEBH         LINE#         773
  C:AB02H         LINE#         774
  C:AB0BH         LINE#         777
  C:AB0DH         LINE#         778
  C:AB0DH         LINE#         779
  -------         ENDPROC       RELOJ_PANTALLA_LCD
  -------         ENDMOD        PANTALLAS

  -------         MODULE        PROG
  C:0000H         SYMBOL        _ICE_DUMMY_
  C:5735H         PUBLIC        Prog_fecha_vencimiento
  C:6A8AH         PUBLIC        Prog_Sin_Cobro
  C:740FH         PUBLIC        _Ver_Horario_Desde_Hasta
  C:7A5BH         PUBLIC        Prog_debug
  C:7D4FH         PUBLIC        Prog_AntiPassBack
  C:A09FH         PUBLIC        _GetOption
  X:01B3H         PUBLIC        validacion
  C:7F47H         PUBLIC        Prog_Validar_Tipo_Vehiculo_Mensual
  X:01BEH         PUBLIC        cursor
  C:72F5H         PUBLIC        _Prog_Horarios_on_off
  C:9DA0H         PUBLIC        Show
  C:4340H         PUBLIC        Ver_Prog
  C:B9A3H         PUBLIC        Addr_Horarios
  C:9484H         PUBLIC        prog_id_cliente
  C:B4F6H         PUBLIC        _ValidarClave
  C:5107H         PUBLIC        menu
  C:7B57H         PUBLIC        Prog_Use_Lpr
  C:AE89H         PUBLIC        _ListaComandos
  C:12F7H         SYMBOL        _?ix1000
  C:1302H         SYMBOL        _?ix1001
  C:1312H         SYMBOL        _?ix1002
  C:1322H         SYMBOL        _?ix1003
  C:1326H         SYMBOL        _?ix1004
  C:6945H         PUBLIC        Prog_Horarios
  C:132AH         SYMBOL        _?ix1005
  C:8043H         PUBLIC        Prog_Apb_Mensual
  C:8E96H         PUBLIC        Prog_tarjeta_automatica_o_boton
  C:5333H         PUBLIC        _hash_id
  C:496CH         PUBLIC        _Prog_Horario_dias
  C:9253H         PUBLIC        Prog_tiempo_gracia
BL51 BANKED LINKER/LOCATER V6.22.2.0                                                  05/27/2021  15:12:49  PAGE 64


  C:A89AH         PUBLIC        _IngresaDato
  X:01D2H         PUBLIC        comandos
  C:B279H         PUBLIC        First_Clave
  C:BCF8H         PUBLIC        DisplayCursor
  C:7E4BH         PUBLIC        Prog_Placa
  C:9196H         PUBLIC        prog_cod_park
  C:6E42H         PUBLIC        Ver_Horario
  C:71CDH         PUBLIC        _Ver_Horario_dias
  C:553BH         PUBLIC        _Prog_Horario_Desde_Hasta
  C:7C53H         PUBLIC        tipo_pantalla
  C:84E7H         PUBLIC        Prog_Address_High_Board
  C:B5B8H         PUBLIC        _GetCMD
  -------         PROC          _HASH_ID
  X:005DH         SYMBOL        clave
  -------         DO            
  X:0060H         SYMBOL        len_clave
  X:0061H         SYMBOL        i
  X:01AFH         SYMBOL        temp
  X:01B1H         SYMBOL        temp1
  X:0062H         SYMBOL        aleatorio
  X:006DH         SYMBOL        suma
  X:007DH         SYMBOL        xxor
  X:008DH         SYMBOL        usuario1
  X:0098H         SYMBOL        vencimiento_password
  -------         ENDDO         
  C:5333H         LINE#         121
  C:533EH         LINE#         122
  C:533EH         LINE#         125
  C:5351H         LINE#         127
  C:5364H         LINE#         128
  C:5377H         LINE#         132
  C:5384H         LINE#         133
  C:53A0H         LINE#         135
  C:53A0H         LINE#         136
  C:53A4H         LINE#         137
  C:53A6H         LINE#         139
  C:53A6H         LINE#         140
  C:53ADH         LINE#         141
  C:53ADH         LINE#         142
  C:53C0H         LINE#         143
  C:53D4H         LINE#         144
  C:53D4H         LINE#         145
  C:5400H         LINE#         146
  C:540BH         LINE#         147
  C:5418H         LINE#         148
  C:5436H         LINE#         149
  C:5441H         LINE#         150
  C:544EH         LINE#         151
  C:5472H         LINE#         152
  C:547AH         LINE#         153
  C:547AH         LINE#         154
  C:547FH         LINE#         155
  C:547FH         LINE#         156
  C:5498H         LINE#         157
  C:5498H         LINE#         158
  C:54A4H         LINE#         160
  C:54A4H         LINE#         161
BL51 BANKED LINKER/LOCATER V6.22.2.0                                                  05/27/2021  15:12:49  PAGE 65


  C:54B3H         LINE#         162
  C:54B3H         LINE#         163
  C:54BFH         LINE#         164
  C:54BFH         LINE#         165
  C:54D8H         LINE#         166
  C:54D8H         LINE#         167
  C:54E3H         LINE#         168
  C:54E3H         LINE#         169
  C:54FCH         LINE#         170
  C:54FCH         LINE#         171
  C:5507H         LINE#         172
  C:5507H         LINE#         173
  C:551CH         LINE#         175
  C:5525H         LINE#         176
  C:5534H         LINE#         178
  C:553AH         LINE#         179
  -------         ENDPROC       _HASH_ID
  -------         PROC          _LISTACOMANDOS
  X:0046H         SYMBOL        cmd
  -------         DO            
  X:0049H         SYMBOL        buf
  X:004CH         SYMBOL        i
  -------         ENDDO         
  C:AE89H         LINE#         186
  C:AE94H         LINE#         187
  C:AE94H         LINE#         191
  C:AEA7H         LINE#         192
  C:AEA7H         LINE#         193
  C:AEBFH         LINE#         194
  C:AEDAH         LINE#         195
  C:AEE0H         LINE#         196
  C:AEE8H         LINE#         198
  C:AEEAH         LINE#         199
  -------         ENDPROC       _LISTACOMANDOS
  -------         PROC          L?0274
  -------         ENDPROC       L?0274
  -------         PROC          _VALIDARCLAVE
  X:005DH         SYMBOL        buffer
  -------         DO            
  X:0060H         SYMBOL        buf
  -------         ENDDO         
  C:B4F6H         LINE#         205
  C:B501H         LINE#         206
  C:B501H         LINE#         209
  C:B510H         LINE#         210
  C:B52BH         LINE#         211
  C:B52DH         LINE#         214
  C:B52FH         LINE#         215
  -------         ENDPROC       _VALIDARCLAVE
  -------         PROC          L?0275
  -------         ENDPROC       L?0275
  -------         PROC          _GETCMD
  X:005DH         SYMBOL        in
  -------         DO            
  X:0060H         SYMBOL        tokens
  -------         ENDDO         
  C:B5B8H         LINE#         222
BL51 BANKED LINKER/LOCATER V6.22.2.0                                                  05/27/2021  15:12:49  PAGE 66


  C:B5C3H         LINE#         223
  C:B5C3H         LINE#         224
  C:B5D6H         LINE#         225
  -------         ENDPROC       _GETCMD
  -------         PROC          L?0273
  -------         ENDPROC       L?0273
  -------         PROC          _GETOPTION
  X:0046H         SYMBOL        in
  -------         DO            
  X:0049H         SYMBOL        tokensSpace
  X:004DH         SYMBOL        tokensQuote
  -------         ENDDO         
  C:A09FH         LINE#         231
  C:A0AAH         LINE#         232
  C:A0AAH         LINE#         233
  C:A0BDH         LINE#         234
  C:A0D0H         LINE#         237
  C:A0E2H         LINE#         238
  C:A0EEH         LINE#         241
  C:A0F5H         LINE#         242
  C:A102H         LINE#         244
  C:A11BH         LINE#         245
  -------         ENDPROC       _GETOPTION
  -------         PROC          DISPLAYCURSOR
  C:BCF8H         LINE#         250
  C:BCF8H         LINE#         251
  C:BCF8H         LINE#         252
  -------         ENDPROC       DISPLAYCURSOR
  C:A896H         SYMBOL        L?0272
  -------         PROC          L?0271
  -------         ENDPROC       L?0271
  C:A896H         SYMBOL        L?0272
  -------         PROC          _INGRESADATO
  X:0071H         SYMBOL        buffer
  X:0074H         SYMBOL        modo
  -------         DO            
  D:0006H         SYMBOL        i
  -------         ENDDO         
  C:A89AH         LINE#         259
  C:A8A8H         LINE#         260
  C:A8A8H         LINE#         265
  C:A8A8H         LINE#         266
  C:A8BAH         LINE#         267
  C:A8C0H         LINE#         268
  C:A8C0H         LINE#         269
  C:A8DBH         LINE#         270
  C:A8DDH         LINE#         272
  C:A8DDH         LINE#         273
  C:A8E2H         LINE#         274
  C:A8E2H         LINE#         275
  C:A8F3H         LINE#         276
  C:A8FDH         LINE#         277
  C:A90CH         LINE#         279
  C:A911H         LINE#         283
  -------         ENDPROC       _INGRESADATO
  -------         PROC          PROG_ID_CLIENTE
  -------         DO            
BL51 BANKED LINKER/LOCATER V6.22.2.0                                                  05/27/2021  15:12:49  PAGE 67


  X:0046H         SYMBOL        buffer
  X:0050H         SYMBOL        dataee
  -------         ENDDO         
  C:9484H         LINE#         300
  C:9484H         LINE#         301
  C:9484H         LINE#         305
  C:9496H         LINE#         306
  C:94B3H         LINE#         308
  C:94CAH         LINE#         310
  C:94D3H         LINE#         311
  C:94DAH         LINE#         312
  C:94EBH         LINE#         313
  C:94F4H         LINE#         315
  C:9506H         LINE#         316
  C:9523H         LINE#         317
  -------         ENDPROC       PROG_ID_CLIENTE
  -------         PROC          PROG_COD_PARK
  -------         DO            
  X:0046H         SYMBOL        buffer
  X:0050H         SYMBOL        dataee
  -------         ENDDO         
  C:9196H         LINE#         322
  C:9196H         LINE#         323
  C:9196H         LINE#         327
  C:91A9H         LINE#         328
  C:91C6H         LINE#         330
  C:91DDH         LINE#         332
  C:91E6H         LINE#         333
  C:91F1H         LINE#         334
  C:9202H         LINE#         335
  C:920CH         LINE#         337
  C:921FH         LINE#         338
  C:923CH         LINE#         339
  -------         ENDPROC       PROG_COD_PARK
  -------         PROC          PROG_TIEMPO_GRACIA
  -------         DO            
  X:0046H         SYMBOL        buffer
  X:0050H         SYMBOL        dataee
  -------         ENDDO         
  C:9253H         LINE#         344
  C:9253H         LINE#         345
  C:9253H         LINE#         349
  C:9266H         LINE#         350
  C:9283H         LINE#         352
  C:929AH         LINE#         354
  C:92A3H         LINE#         355
  C:92AEH         LINE#         356
  C:92BFH         LINE#         357
  C:92C9H         LINE#         359
  C:92DCH         LINE#         360
  C:92F9H         LINE#         361
  -------         ENDPROC       PROG_TIEMPO_GRACIA
  -------         PROC          PROG_SIN_COBRO
  -------         DO            
  X:0046H         SYMBOL        buffer
  X:0050H         SYMBOL        dataee
  -------         ENDDO         
BL51 BANKED LINKER/LOCATER V6.22.2.0                                                  05/27/2021  15:12:49  PAGE 68


  C:6A8AH         LINE#         367
  C:6A8AH         LINE#         368
  C:6A8AH         LINE#         374
  C:6A9DH         LINE#         375
  C:6ABAH         LINE#         376
  C:6AC4H         LINE#         377
  C:6AC4H         LINE#         378
  C:6AD7H         LINE#         379
  C:6AD9H         LINE#         380
  C:6AE5H         LINE#         381
  C:6AE5H         LINE#         382
  C:6AF8H         LINE#         383
  C:6AFAH         LINE#         385
  C:6AFAH         LINE#         386
  C:6B11H         LINE#         387
  C:6B11H         LINE#         389
  C:6B1AH         LINE#         390
  C:6B25H         LINE#         391
  C:6B36H         LINE#         392
  C:6B40H         LINE#         394
  C:6B53H         LINE#         395
  C:6B70H         LINE#         396
  C:6B7AH         LINE#         397
  C:6B7AH         LINE#         398
  C:6B8DH         LINE#         399
  C:6B8FH         LINE#         400
  C:6B9BH         LINE#         401
  C:6B9BH         LINE#         402
  C:6BAEH         LINE#         403
  C:6BB0H         LINE#         405
  C:6BB0H         LINE#         406
  C:6BC7H         LINE#         407
  C:6BC7H         LINE#         409
  -------         ENDPROC       PROG_SIN_COBRO
  -------         PROC          PROG_DEBUG
  -------         DO            
  X:0046H         SYMBOL        buffer
  X:0050H         SYMBOL        dataee
  -------         ENDDO         
  C:7A5BH         LINE#         415
  C:7A5BH         LINE#         416
  C:7A5BH         LINE#         421
  C:7A6EH         LINE#         422
  C:7A8BH         LINE#         423
  C:7A95H         LINE#         424
  C:7A95H         LINE#         425
  C:7AA8H         LINE#         426
  C:7AAAH         LINE#         428
  C:7AAAH         LINE#         429
  C:7AC1H         LINE#         430
  C:7AC1H         LINE#         432
  C:7ACAH         LINE#         433
  C:7AD5H         LINE#         434
  C:7AE6H         LINE#         435
  C:7AF0H         LINE#         437
  C:7B03H         LINE#         438
  C:7B20H         LINE#         439
BL51 BANKED LINKER/LOCATER V6.22.2.0                                                  05/27/2021  15:12:49  PAGE 69


  C:7B2AH         LINE#         440
  C:7B2AH         LINE#         441
  C:7B3DH         LINE#         442
  C:7B3FH         LINE#         444
  C:7B3FH         LINE#         445
  C:7B56H         LINE#         446
  C:7B56H         LINE#         447
  -------         ENDPROC       PROG_DEBUG
  -------         PROC          PROG_USE_LPR
  -------         DO            
  X:0046H         SYMBOL        buffer
  X:0050H         SYMBOL        dataee
  -------         ENDDO         
  C:7B57H         LINE#         452
  C:7B57H         LINE#         453
  C:7B57H         LINE#         458
  C:7B6AH         LINE#         459
  C:7B87H         LINE#         460
  C:7B91H         LINE#         461
  C:7B91H         LINE#         462
  C:7BA4H         LINE#         463
  C:7BA6H         LINE#         465
  C:7BA6H         LINE#         466
  C:7BBDH         LINE#         467
  C:7BBDH         LINE#         469
  C:7BC6H         LINE#         470
  C:7BD1H         LINE#         471
  C:7BE2H         LINE#         472
  C:7BECH         LINE#         474
  C:7BFFH         LINE#         475
  C:7C1CH         LINE#         476
  C:7C26H         LINE#         477
  C:7C26H         LINE#         478
  C:7C39H         LINE#         479
  C:7C3BH         LINE#         481
  C:7C3BH         LINE#         482
  C:7C52H         LINE#         483
  C:7C52H         LINE#         484
  -------         ENDPROC       PROG_USE_LPR
  -------         PROC          TIPO_PANTALLA
  -------         DO            
  X:0046H         SYMBOL        buffer
  X:0050H         SYMBOL        dataee
  -------         ENDDO         
  C:7C53H         LINE#         491
  C:7C53H         LINE#         492
  C:7C53H         LINE#         497
  C:7C66H         LINE#         498
  C:7C83H         LINE#         499
  C:7C8DH         LINE#         500
  C:7C8DH         LINE#         501
  C:7CA0H         LINE#         502
  C:7CA2H         LINE#         504
  C:7CA2H         LINE#         505
  C:7CB9H         LINE#         506
  C:7CB9H         LINE#         508
  C:7CC2H         LINE#         509
BL51 BANKED LINKER/LOCATER V6.22.2.0                                                  05/27/2021  15:12:49  PAGE 70


  C:7CCDH         LINE#         510
  C:7CDEH         LINE#         511
  C:7CE8H         LINE#         513
  C:7CFBH         LINE#         514
  C:7D18H         LINE#         515
  C:7D22H         LINE#         516
  C:7D22H         LINE#         517
  C:7D35H         LINE#         518
  C:7D37H         LINE#         520
  C:7D37H         LINE#         521
  C:7D4EH         LINE#         522
  C:7D4EH         LINE#         524
  -------         ENDPROC       TIPO_PANTALLA
  -------         PROC          PROG_TARJETA_AUTOMATICA_O_BOTON
  -------         DO            
  X:0046H         SYMBOL        buffer
  X:0050H         SYMBOL        dataee
  -------         ENDDO         
  C:8E96H         LINE#         525
  C:8E96H         LINE#         526
  C:8E96H         LINE#         531
  C:8EA9H         LINE#         532
  C:8EC6H         LINE#         533
  C:8ED2H         LINE#         534
  C:8ED2H         LINE#         535
  C:8ED6H         LINE#         536
  C:8ED8H         LINE#         538
  C:8ED8H         LINE#         539
  C:8EDFH         LINE#         540
  C:8EDFH         LINE#         542
  C:8EE8H         LINE#         543
  C:8EF3H         LINE#         544
  C:8F04H         LINE#         545
  C:8F0EH         LINE#         547
  C:8F21H         LINE#         548
  C:8F3EH         LINE#         549
  C:8F4AH         LINE#         550
  C:8F4AH         LINE#         551
  C:8F4EH         LINE#         552
  C:8F50H         LINE#         554
  C:8F50H         LINE#         555
  C:8F57H         LINE#         556
  C:8F57H         LINE#         557
  -------         ENDPROC       PROG_TARJETA_AUTOMATICA_O_BOTON
  -------         PROC          PROG_ANTIPASSBACK
  -------         DO            
  X:0046H         SYMBOL        buffer
  X:0050H         SYMBOL        dataee
  -------         ENDDO         
  C:7D4FH         LINE#         558
  C:7D4FH         LINE#         559
  C:7D4FH         LINE#         564
  C:7D62H         LINE#         565
  C:7D7FH         LINE#         566
  C:7D89H         LINE#         567
  C:7D89H         LINE#         568
  C:7D9CH         LINE#         569
BL51 BANKED LINKER/LOCATER V6.22.2.0                                                  05/27/2021  15:12:49  PAGE 71


  C:7D9EH         LINE#         571
  C:7D9EH         LINE#         572
  C:7DB5H         LINE#         573
  C:7DB5H         LINE#         575
  C:7DBEH         LINE#         576
  C:7DC9H         LINE#         577
  C:7DDAH         LINE#         578
  C:7DE4H         LINE#         580
  C:7DF7H         LINE#         581
  C:7E14H         LINE#         582
  C:7E1EH         LINE#         583
  C:7E1EH         LINE#         584
  C:7E31H         LINE#         585
  C:7E33H         LINE#         587
  C:7E33H         LINE#         588
  C:7E4AH         LINE#         589
  C:7E4AH         LINE#         590
  -------         ENDPROC       PROG_ANTIPASSBACK
  -------         PROC          PROG_PLACA
  -------         DO            
  X:0046H         SYMBOL        buffer
  X:0050H         SYMBOL        dataee
  -------         ENDDO         
  C:7E4BH         LINE#         591
  C:7E4BH         LINE#         592
  C:7E4BH         LINE#         597
  C:7E5EH         LINE#         598
  C:7E7BH         LINE#         599
  C:7E85H         LINE#         600
  C:7E85H         LINE#         601
  C:7E98H         LINE#         602
  C:7E9AH         LINE#         604
  C:7E9AH         LINE#         605
  C:7EB1H         LINE#         606
  C:7EB1H         LINE#         608
  C:7EBAH         LINE#         609
  C:7EC5H         LINE#         610
  C:7ED6H         LINE#         611
  C:7EE0H         LINE#         613
  C:7EF3H         LINE#         614
  C:7F10H         LINE#         615
  C:7F1AH         LINE#         616
  C:7F1AH         LINE#         617
  C:7F2DH         LINE#         618
  C:7F2FH         LINE#         620
  C:7F2FH         LINE#         621
  C:7F46H         LINE#         622
  C:7F46H         LINE#         623
  -------         ENDPROC       PROG_PLACA
  -------         PROC          PROG_ADDRESS_HIGH_BOARD
  -------         DO            
  X:0046H         SYMBOL        buffer
  X:0050H         SYMBOL        dataee
  -------         ENDDO         
  C:84E7H         LINE#         624
  C:84E7H         LINE#         625
  C:84E7H         LINE#         630
BL51 BANKED LINKER/LOCATER V6.22.2.0                                                  05/27/2021  15:12:49  PAGE 72


  C:84FAH         LINE#         631
  C:8517H         LINE#         632
  C:8521H         LINE#         633
  C:8521H         LINE#         634
  C:8525H         LINE#         635
  C:8527H         LINE#         637
  C:8527H         LINE#         638
  C:853EH         LINE#         639
  C:853EH         LINE#         641
  C:8547H         LINE#         642
  C:8552H         LINE#         643
  C:8563H         LINE#         644
  C:856DH         LINE#         646
  C:8580H         LINE#         647
  C:859DH         LINE#         648
  C:85A7H         LINE#         649
  C:85A7H         LINE#         650
  C:85ABH         LINE#         651
  C:85ADH         LINE#         653
  C:85ADH         LINE#         654
  C:85C4H         LINE#         655
  C:85C4H         LINE#         656
  -------         ENDPROC       PROG_ADDRESS_HIGH_BOARD
  -------         PROC          ADDR_HORARIOS
  -------         DO            
  X:0074H         SYMBOL        ee_addr_horario
  -------         ENDDO         
  C:B9A3H         LINE#         658
  C:B9A3H         LINE#         659
  C:B9A3H         LINE#         662
  C:B9A9H         LINE#         663
  C:B9ADH         LINE#         664
  C:B9B1H         LINE#         665
  C:B9B5H         LINE#         666
  C:B9B9H         LINE#         667
  C:B9BDH         LINE#         668
  C:B9C1H         LINE#         669
  C:B9C5H         LINE#         670
  C:B9C9H         LINE#         671
  C:B9CDH         LINE#         672
  C:B9D0H         LINE#         673
  C:B9D6H         LINE#         674
  -------         ENDPROC       ADDR_HORARIOS
  -------         PROC          _PROG_HORARIOS_ON_OFF
  X:0061H         SYMBOL        addr
  -------         DO            
  X:0063H         SYMBOL        buffer
  X:006DH         SYMBOL        dataee
  X:006FH         SYMBOL        habilitado
  -------         ENDDO         
  C:72F5H         LINE#         675
  C:72FFH         LINE#         676
  C:72FFH         LINE#         679
  C:730EH         LINE#         680
  C:732BH         LINE#         681
  C:7335H         LINE#         682
  C:7335H         LINE#         683
BL51 BANKED LINKER/LOCATER V6.22.2.0                                                  05/27/2021  15:12:49  PAGE 73


  C:7348H         LINE#         684
  C:734AH         LINE#         686
  C:734AH         LINE#         687
  C:7361H         LINE#         688
  C:7361H         LINE#         689
  C:736AH         LINE#         690
  C:7375H         LINE#         691
  C:7386H         LINE#         692
  C:7395H         LINE#         694
  C:73ACH         LINE#         695
  C:73C9H         LINE#         696
  C:73D6H         LINE#         697
  C:73D6H         LINE#         698
  C:73D9H         LINE#         699
  C:73ECH         LINE#         700
  C:73EEH         LINE#         702
  C:73EEH         LINE#         703
  C:73F3H         LINE#         704
  C:7408H         LINE#         705
  C:7408H         LINE#         706
  C:740EH         LINE#         707
  -------         ENDPROC       _PROG_HORARIOS_ON_OFF
  -------         PROC          _PROG_HORARIO_DESDE_HASTA
  X:0061H         SYMBOL        addr
  -------         DO            
  X:0063H         SYMBOL        buffer
  D:0007H         SYMBOL        dataee
  -------         ENDDO         
  C:553BH         LINE#         708
  C:5543H         LINE#         709
  C:5543H         LINE#         714
  C:554CH         LINE#         715
  C:554FH         LINE#         716
  C:5558H         LINE#         717
  C:5570H         LINE#         718
  C:5583H         LINE#         719
  C:5591H         LINE#         720
  C:55A9H         LINE#         721
  C:55BCH         LINE#         722
  C:55CAH         LINE#         723
  C:55E2H         LINE#         724
  C:55F5H         LINE#         725
  C:5603H         LINE#         726
  C:561BH         LINE#         727
  C:562EH         LINE#         728
  C:563CH         LINE#         732
  C:5645H         LINE#         733
  C:5648H         LINE#         735
  C:5651H         LINE#         737
  C:5669H         LINE#         738
  C:567CH         LINE#         739
  C:568AH         LINE#         740
  C:56A2H         LINE#         741
  C:56B5H         LINE#         742
  C:56C3H         LINE#         743
  C:56DBH         LINE#         744
  C:56EEH         LINE#         745
BL51 BANKED LINKER/LOCATER V6.22.2.0                                                  05/27/2021  15:12:49  PAGE 74


  C:56FCH         LINE#         746
  C:5714H         LINE#         747
  C:5727H         LINE#         748
  -------         ENDPROC       _PROG_HORARIO_DESDE_HASTA
  -------         PROC          _VER_HORARIO_DESDE_HASTA
  X:0074H         SYMBOL        addr
  -------         DO            
  D:0007H         SYMBOL        dataee
  -------         ENDDO         
  C:740FH         LINE#         750
  C:7417H         LINE#         751
  C:7417H         LINE#         753
  C:7420H         LINE#         754
  C:7433H         LINE#         755
  C:7441H         LINE#         756
  C:7454H         LINE#         757
  C:7462H         LINE#         758
  C:7475H         LINE#         759
  C:7483H         LINE#         760
  C:7496H         LINE#         761
  C:74A4H         LINE#         763
  C:74B7H         LINE#         764
  C:74C5H         LINE#         766
  C:74D8H         LINE#         767
  C:74E6H         LINE#         769
  C:74F9H         LINE#         770
  C:7507H         LINE#         772
  C:751AH         LINE#         773
  -------         ENDPROC       _VER_HORARIO_DESDE_HASTA
  -------         PROC          _PROG_HORARIO_DIAS
  X:0061H         SYMBOL        addr
  -------         DO            
  X:0063H         SYMBOL        buffer
  X:006DH         SYMBOL        dataee
  X:006EH         SYMBOL        j
  X:006FH         SYMBOL        temp
  -------         ENDDO         
  C:496CH         LINE#         775
  C:4974H         LINE#         776
  C:4974H         LINE#         780
  C:497DH         LINE#         781
  C:4986H         LINE#         782
  C:498FH         LINE#         783
  C:499AH         LINE#         786
  C:49A3H         LINE#         788
  C:49B9H         LINE#         789
  C:49B9H         LINE#         791
  C:49CCH         LINE#         792
  C:49CCH         LINE#         793
  C:49D5H         LINE#         795
  C:49EAH         LINE#         796
  C:4A02H         LINE#         797
  C:4A0FH         LINE#         798
  C:4A0FH         LINE#         800
  C:4A25H         LINE#         801
  C:4A25H         LINE#         802
  C:4A2EH         LINE#         803
BL51 BANKED LINKER/LOCATER V6.22.2.0                                                  05/27/2021  15:12:49  PAGE 75


  C:4A43H         LINE#         804
  C:4A5BH         LINE#         805
  C:4A68H         LINE#         806
  C:4A68H         LINE#         808
  C:4A7EH         LINE#         809
  C:4A7EH         LINE#         810
  C:4A87H         LINE#         811
  C:4A9CH         LINE#         812
  C:4AB4H         LINE#         813
  C:4AC1H         LINE#         814
  C:4AC1H         LINE#         816
  C:4AD7H         LINE#         817
  C:4AD7H         LINE#         818
  C:4AE0H         LINE#         819
  C:4AF5H         LINE#         820
  C:4B0DH         LINE#         821
  C:4B1AH         LINE#         822
  C:4B1AH         LINE#         824
  C:4B30H         LINE#         825
  C:4B30H         LINE#         826
  C:4B39H         LINE#         827
  C:4B4EH         LINE#         828
  C:4B66H         LINE#         829
  C:4B73H         LINE#         830
  C:4B73H         LINE#         832
  C:4B89H         LINE#         833
  C:4B89H         LINE#         834
  C:4B92H         LINE#         835
  C:4BA7H         LINE#         836
  C:4BBFH         LINE#         837
  C:4BCCH         LINE#         838
  C:4BCCH         LINE#         840
  C:4BE2H         LINE#         841
  C:4BE2H         LINE#         842
  C:4BEBH         LINE#         843
  C:4BFAH         LINE#         844
  C:4C0CH         LINE#         845
  C:4C19H         LINE#         846
  C:4C19H         LINE#         847
  C:4C22H         LINE#         849
  -------         ENDPROC       _PROG_HORARIO_DIAS
  -------         PROC          _VER_HORARIO_DIAS
  X:0074H         SYMBOL        addr
  -------         DO            
  X:0076H         SYMBOL        dataee
  -------         ENDDO         
  C:71CDH         LINE#         850
  C:71D5H         LINE#         851
  C:71D5H         LINE#         854
  C:71E5H         LINE#         855
  C:71EBH         LINE#         856
  C:71EBH         LINE#         857
  C:71EFH         LINE#         858
  C:71F1H         LINE#         860
  C:71F1H         LINE#         861
  C:71F8H         LINE#         862
  C:71F8H         LINE#         865
BL51 BANKED LINKER/LOCATER V6.22.2.0                                                  05/27/2021  15:12:49  PAGE 76


  C:7210H         LINE#         866
  C:7216H         LINE#         867
  C:7216H         LINE#         868
  C:721AH         LINE#         869
  C:721CH         LINE#         871
  C:721CH         LINE#         872
  C:7223H         LINE#         873
  C:7223H         LINE#         876
  C:723BH         LINE#         877
  C:7241H         LINE#         878
  C:7241H         LINE#         879
  C:7245H         LINE#         880
  C:7247H         LINE#         882
  C:7247H         LINE#         883
  C:724EH         LINE#         884
  C:724EH         LINE#         886
  C:7266H         LINE#         887
  C:726CH         LINE#         888
  C:726CH         LINE#         889
  C:7270H         LINE#         890
  C:7272H         LINE#         892
  C:7272H         LINE#         893
  C:7279H         LINE#         894
  C:7279H         LINE#         896
  C:7291H         LINE#         897
  C:7297H         LINE#         898
  C:7297H         LINE#         899
  C:729BH         LINE#         900
  C:729DH         LINE#         902
  C:729DH         LINE#         903
  C:72A4H         LINE#         904
  C:72A4H         LINE#         907
  C:72BCH         LINE#         908
  C:72C2H         LINE#         909
  C:72C2H         LINE#         910
  C:72C6H         LINE#         911
  C:72C8H         LINE#         913
  C:72C8H         LINE#         914
  C:72CFH         LINE#         915
  C:72CFH         LINE#         917
  C:72E1H         LINE#         918
  C:72E7H         LINE#         919
  C:72E7H         LINE#         920
  C:72EBH         LINE#         921
  C:72EDH         LINE#         923
  C:72EDH         LINE#         924
  C:72F4H         LINE#         925
  C:72F4H         LINE#         926
  -------         ENDPROC       _VER_HORARIO_DIAS
  -------         PROC          PROG_HORARIOS
  -------         DO            
  X:0046H         SYMBOL        buffer
  X:0050H         SYMBOL        ee_addr_horario
  X:005BH         SYMBOL        addr
  X:005DH         SYMBOL        temp
  X:005FH         SYMBOL        dataee
  X:0060H         SYMBOL        j
BL51 BANKED LINKER/LOCATER V6.22.2.0                                                  05/27/2021  15:12:49  PAGE 77


  -------         ENDDO         
  C:6945H         LINE#         927
  C:6945H         LINE#         928
  C:6945H         LINE#         937
  C:6951H         LINE#         941
  C:695AH         LINE#         942
  C:6965H         LINE#         944
  C:6974H         LINE#         948
  C:698AH         LINE#         949
  C:6990H         LINE#         953
  C:699EH         LINE#         954
  C:69A6H         LINE#         955
  C:69A6H         LINE#         957
  C:69B5H         LINE#         958
  C:69C9H         LINE#         959
  C:69C9H         LINE#         960
  C:69DDH         LINE#         961
  C:69E5H         LINE#         963
  C:69F5H         LINE#         966
  C:69F8H         LINE#         970
  C:6A03H         LINE#         973
  C:6A0CH         LINE#         974
  C:6A17H         LINE#         975
  C:6A26H         LINE#         976
  C:6A39H         LINE#         978
  C:6A51H         LINE#         979
  C:6A6BH         LINE#         980
  C:6A73H         LINE#         981
  C:6A73H         LINE#         983
  C:6A81H         LINE#         984
  C:6A89H         LINE#         985
  C:6A89H         LINE#         986
  C:6A89H         LINE#         988
  -------         ENDPROC       PROG_HORARIOS
  -------         PROC          PROG_VALIDAR_TIPO_VEHICULO_MENSUAL
  -------         DO            
  X:0046H         SYMBOL        buffer
  X:0050H         SYMBOL        dataee
  -------         ENDDO         
  C:7F47H         LINE#         989
  C:7F47H         LINE#         990
  C:7F47H         LINE#         995
  C:7F5AH         LINE#         996
  C:7F77H         LINE#         997
  C:7F81H         LINE#         998
  C:7F81H         LINE#         999
  C:7F94H         LINE#         1000
  C:7F96H         LINE#         1002
  C:7F96H         LINE#         1003
  C:7FADH         LINE#         1004
  C:7FADH         LINE#         1006
  C:7FB6H         LINE#         1007
  C:7FC1H         LINE#         1008
  C:7FD2H         LINE#         1009
  C:7FDCH         LINE#         1011
  C:7FEFH         LINE#         1012
  C:800CH         LINE#         1013
BL51 BANKED LINKER/LOCATER V6.22.2.0                                                  05/27/2021  15:12:49  PAGE 78


  C:8016H         LINE#         1014
  C:8016H         LINE#         1015
  C:8029H         LINE#         1016
  C:802BH         LINE#         1018
  C:802BH         LINE#         1019
  C:8042H         LINE#         1020
  C:8042H         LINE#         1021
  -------         ENDPROC       PROG_VALIDAR_TIPO_VEHICULO_MENSUAL
  -------         PROC          PROG_APB_MENSUAL
  -------         DO            
  X:0046H         SYMBOL        buffer
  X:0050H         SYMBOL        dataee
  -------         ENDDO         
  C:8043H         LINE#         1022
  C:8043H         LINE#         1023
  C:8043H         LINE#         1028
  C:8056H         LINE#         1029
  C:8073H         LINE#         1030
  C:807DH         LINE#         1031
  C:807DH         LINE#         1032
  C:8090H         LINE#         1033
  C:8092H         LINE#         1035
  C:8092H         LINE#         1036
  C:80A9H         LINE#         1037
  C:80A9H         LINE#         1039
  C:80B2H         LINE#         1040
  C:80BDH         LINE#         1041
  C:80CEH         LINE#         1042
  C:80D8H         LINE#         1044
  C:80EBH         LINE#         1045
  C:8108H         LINE#         1046
  C:8112H         LINE#         1047
  C:8112H         LINE#         1048
  C:8125H         LINE#         1049
  C:8127H         LINE#         1051
  C:8127H         LINE#         1052
  C:813EH         LINE#         1053
  C:813EH         LINE#         1054
  -------         ENDPROC       PROG_APB_MENSUAL
  -------         PROC          PROG_FECHA_VENCIMIENTO
  -------         DO            
  X:0046H         SYMBOL        buffer
  X:0051H         SYMBOL        cmd
  X:0054H         SYMBOL        fecha
  X:005BH         SYMBOL        dataee
  -------         ENDDO         
  C:5735H         LINE#         1056
  C:5735H         LINE#         1057
  C:5735H         LINE#         1064
  C:5742H         LINE#         1065
  C:5759H         LINE#         1068
  C:5770H         LINE#         1070
  C:5770H         LINE#         1071
  C:5779H         LINE#         1072
  C:5786H         LINE#         1073
  C:579DH         LINE#         1074
  C:57AFH         LINE#         1075
BL51 BANKED LINKER/LOCATER V6.22.2.0                                                  05/27/2021  15:12:49  PAGE 79


  C:57B8H         LINE#         1080
  C:57C3H         LINE#         1081
  C:57D7H         LINE#         1082
  C:57E4H         LINE#         1084
  C:57EDH         LINE#         1087
  C:57F6H         LINE#         1088
  C:5801H         LINE#         1089
  C:5818H         LINE#         1091
  C:5820H         LINE#         1092
  C:5828H         LINE#         1093
  C:582BH         LINE#         1095
  C:583CH         LINE#         1096
  C:584DH         LINE#         1098
  C:585CH         LINE#         1099
  C:5864H         LINE#         1100
  C:586CH         LINE#         1101
  C:586FH         LINE#         1102
  C:5880H         LINE#         1103
  C:5891H         LINE#         1104
  C:58A0H         LINE#         1105
  C:58A8H         LINE#         1106
  C:58B0H         LINE#         1107
  C:58B3H         LINE#         1108
  C:58C4H         LINE#         1109
  C:58D5H         LINE#         1110
  C:58E4H         LINE#         1111
  C:58EFH         LINE#         1113
  C:58FCH         LINE#         1115
  C:5913H         LINE#         1116
  -------         ENDPROC       PROG_FECHA_VENCIMIENTO
  -------         PROC          VER_HORARIO
  -------         DO            
  X:0059H         SYMBOL        buffer
  X:0063H         SYMBOL        ee_addr_horario
  X:006EH         SYMBOL        conta
  X:006FH         SYMBOL        addr
  X:0071H         SYMBOL        temp
  X:0073H         SYMBOL        dataee
  -------         ENDDO         
  C:6E42H         LINE#         1119
  C:6E42H         LINE#         1120
  C:6E42H         LINE#         1129
  C:6E4EH         LINE#         1130
  C:6E64H         LINE#         1131
  C:6E64H         LINE#         1133
  C:6E74H         LINE#         1136
  C:6E8DH         LINE#         1137
  C:6E93H         LINE#         1140
  C:6EA1H         LINE#         1141
  C:6EB0H         LINE#         1142
  C:6ECAH         LINE#         1143
  C:6ED5H         LINE#         1144
  C:6ED5H         LINE#         1145
  C:6EDEH         LINE#         1147
  C:6EE7H         LINE#         1148
  C:6EF7H         LINE#         1149
  C:6EFAH         LINE#         1151
BL51 BANKED LINKER/LOCATER V6.22.2.0                                                  05/27/2021  15:12:49  PAGE 80


  C:6F05H         LINE#         1152
  C:6F1DH         LINE#         1153
  C:6F37H         LINE#         1154
  C:6F41H         LINE#         1155
  C:6F41H         LINE#         1156
  C:6F48H         LINE#         1158
  C:6F56H         LINE#         1159
  C:6F5EH         LINE#         1160
  C:6F60H         LINE#         1162
  C:6F60H         LINE#         1163
  C:6F64H         LINE#         1164
  C:6F64H         LINE#         1165
  C:6F66H         LINE#         1167
  C:6F66H         LINE#         1168
  C:6F6FH         LINE#         1169
  C:6F6FH         LINE#         1171
  C:6F78H         LINE#         1174
  -------         ENDPROC       VER_HORARIO
  -------         PROC          VER_PROG
  -------         DO            
  X:0046H         SYMBOL        buffer
  X:0050H         SYMBOL        dataee
  X:0052H         SYMBOL        fecha
  -------         ENDDO         
  C:4340H         LINE#         1175
  C:4340H         LINE#         1176
  C:4340H         LINE#         1182
  C:4352H         LINE#         1183
  C:436FH         LINE#         1185
  C:4386H         LINE#         1187
  C:4399H         LINE#         1188
  C:43B6H         LINE#         1190
  C:43CDH         LINE#         1192
  C:43E0H         LINE#         1193
  C:43FDH         LINE#         1194
  C:440BH         LINE#         1195
  C:440BH         LINE#         1196
  C:440FH         LINE#         1197
  C:4411H         LINE#         1199
  C:4411H         LINE#         1200
  C:4418H         LINE#         1201
  C:4418H         LINE#         1203
  C:442BH         LINE#         1204
  C:4448H         LINE#         1205
  C:4454H         LINE#         1206
  C:4454H         LINE#         1207
  C:4458H         LINE#         1208
  C:445AH         LINE#         1210
  C:445AH         LINE#         1211
  C:4461H         LINE#         1212
  C:4461H         LINE#         1214
  C:4474H         LINE#         1215
  C:4491H         LINE#         1216
  C:449DH         LINE#         1217
  C:449DH         LINE#         1218
  C:44A1H         LINE#         1219
  C:44A3H         LINE#         1221
BL51 BANKED LINKER/LOCATER V6.22.2.0                                                  05/27/2021  15:12:49  PAGE 81


  C:44A3H         LINE#         1222
  C:44AAH         LINE#         1223
  C:44AAH         LINE#         1225
  C:44BDH         LINE#         1226
  C:44DAH         LINE#         1227
  C:44E6H         LINE#         1228
  C:44E6H         LINE#         1229
  C:44EAH         LINE#         1230
  C:44ECH         LINE#         1232
  C:44ECH         LINE#         1233
  C:44F3H         LINE#         1234
  C:44F3H         LINE#         1236
  C:4506H         LINE#         1237
  C:4523H         LINE#         1238
  C:452FH         LINE#         1239
  C:452FH         LINE#         1240
  C:4533H         LINE#         1241
  C:4535H         LINE#         1243
  C:4535H         LINE#         1244
  C:453CH         LINE#         1245
  C:453CH         LINE#         1247
  C:454FH         LINE#         1248
  C:456CH         LINE#         1249
  C:4578H         LINE#         1250
  C:4578H         LINE#         1251
  C:457CH         LINE#         1252
  C:457EH         LINE#         1254
  C:457EH         LINE#         1255
  C:4585H         LINE#         1256
  C:4585H         LINE#         1259
  C:4598H         LINE#         1260
  C:45B5H         LINE#         1262
  C:45CCH         LINE#         1264
  C:45CFH         LINE#         1268
  C:45E2H         LINE#         1269
  C:45FFH         LINE#         1270
  C:460BH         LINE#         1271
  C:460BH         LINE#         1272
  C:460FH         LINE#         1273
  C:4611H         LINE#         1275
  C:4611H         LINE#         1276
  C:4618H         LINE#         1277
  C:4618H         LINE#         1279
  C:462BH         LINE#         1280
  C:4648H         LINE#         1281
  C:4654H         LINE#         1282
  C:4654H         LINE#         1283
  C:4658H         LINE#         1284
  C:465AH         LINE#         1286
  C:465AH         LINE#         1287
  C:4661H         LINE#         1288
  C:4661H         LINE#         1290
  C:466EH         LINE#         1292
  C:4685H         LINE#         1293
  -------         ENDPROC       VER_PROG
  -------         PROC          SHOW
  C:9DA0H         LINE#         1299
BL51 BANKED LINKER/LOCATER V6.22.2.0                                                  05/27/2021  15:12:49  PAGE 82


  C:9DA0H         LINE#         1300
  C:9DA0H         LINE#         1301
  C:9DA9H         LINE#         1302
  C:9DB2H         LINE#         1303
  C:9DBBH         LINE#         1304
  C:9DC4H         LINE#         1305
  C:9DCDH         LINE#         1306
  C:9DD6H         LINE#         1307
  C:9DDFH         LINE#         1308
  C:9DE8H         LINE#         1309
  C:9DF1H         LINE#         1310
  C:9DFAH         LINE#         1311
  C:9E03H         LINE#         1312
  C:9E0CH         LINE#         1313
  C:9E15H         LINE#         1314
  C:9E1EH         LINE#         1315
  C:9E27H         LINE#         1316
  C:9E30H         LINE#         1317
  -------         ENDPROC       SHOW
  -------         PROC          FIRST_CLAVE
  -------         DO            
  X:0046H         SYMBOL        clave
  -------         ENDDO         
  C:B279H         LINE#         1324
  C:B279H         LINE#         1325
  C:B279H         LINE#         1329
  C:B282H         LINE#         1330
  C:B287H         LINE#         1331
  C:B299H         LINE#         1332
  C:B2A6H         LINE#         1333
  C:B2ACH         LINE#         1334
  C:B2AFH         LINE#         1335
  C:B2B2H         LINE#         1336
  C:B2B4H         LINE#         1338
  -------         ENDPROC       FIRST_CLAVE
  -------         PROC          MENU
  -------         DO            
  X:0001H         SYMBOL        cmd
  X:0004H         SYMBOL        option1
  X:0007H         SYMBOL        option2
  X:000AH         SYMBOL        opt_buffer
  X:0032H         SYMBOL        buffer
  -------         ENDDO         
  C:5107H         LINE#         1342
  C:5107H         LINE#         1343
  C:5107H         LINE#         1352
  C:5110H         LINE#         1357
  C:511CH         LINE#         1358
  C:511CH         LINE#         1359
  C:511FH         LINE#         1360
  C:5129H         LINE#         1363
  C:5129H         LINE#         1365
  C:5129H         LINE#         1366
  C:5132H         LINE#         1367
  C:513FH         LINE#         1368
  C:5144H         LINE#         1369
  C:515AH         LINE#         1370
BL51 BANKED LINKER/LOCATER V6.22.2.0                                                  05/27/2021  15:12:49  PAGE 83


  C:516CH         LINE#         1371
  C:5175H         LINE#         1376
  C:5180H         LINE#         1377
  C:518EH         LINE#         1378
  C:519BH         LINE#         1380
  C:51A4H         LINE#         1384
  C:51A7H         LINE#         1385
  C:51A7H         LINE#         1386
  C:51A7H         LINE#         1387
  C:51AAH         LINE#         1390
  C:51B5H         LINE#         1391
  C:51C3H         LINE#         1392
  C:51D7H         LINE#         1393
  C:51EBH         LINE#         1398
  C:5201H         LINE#         1399
  C:5201H         LINE#         1401
  C:5210H         LINE#         1402
  C:5212H         LINE#         1403
  C:5222H         LINE#         1404
  C:5222H         LINE#         1406
  C:5231H         LINE#         1407
  C:524FH         LINE#         1408
  C:524FH         LINE#         1414
  C:5262H         LINE#         1415
  C:5262H         LINE#         1416
  C:52ABH         LINE#         1417
  C:52ABH         LINE#         1418
  C:52ABH         LINE#         1419
  C:52AEH         LINE#         1421
  C:52B1H         LINE#         1423
  C:52B1H         LINE#         1424
  C:52B4H         LINE#         1425
  C:52B7H         LINE#         1426
  C:52B7H         LINE#         1427
  C:52BAH         LINE#         1428
  C:52BDH         LINE#         1429
  C:52BDH         LINE#         1430
  C:52C0H         LINE#         1431
  C:52C3H         LINE#         1432
  C:52C3H         LINE#         1433
  C:52C6H         LINE#         1434
  C:52C9H         LINE#         1435
  C:52C9H         LINE#         1436
  C:52CCH         LINE#         1437
  C:52CFH         LINE#         1438
  C:52CFH         LINE#         1439
  C:52D2H         LINE#         1440
  C:52D5H         LINE#         1441
  C:52D5H         LINE#         1442
  C:52D8H         LINE#         1443
  C:52DBH         LINE#         1444
  C:52DBH         LINE#         1445
  C:52DEH         LINE#         1446
  C:52E1H         LINE#         1447
  C:52E1H         LINE#         1448
  C:52E4H         LINE#         1449
  C:52E7H         LINE#         1450
BL51 BANKED LINKER/LOCATER V6.22.2.0                                                  05/27/2021  15:12:49  PAGE 84


  C:52E7H         LINE#         1451
  C:52EAH         LINE#         1452
  C:52EDH         LINE#         1453
  C:52EDH         LINE#         1454
  C:52F0H         LINE#         1455
  C:52F3H         LINE#         1456
  C:52F3H         LINE#         1457
  C:52F6H         LINE#         1458
  C:52F9H         LINE#         1459
  C:52F9H         LINE#         1460
  C:52FCH         LINE#         1461
  C:52FFH         LINE#         1462
  C:52FFH         LINE#         1463
  C:5302H         LINE#         1464
  C:5305H         LINE#         1465
  C:5305H         LINE#         1466
  C:5308H         LINE#         1467
  C:530BH         LINE#         1468
  C:530BH         LINE#         1470
  C:530BH         LINE#         1471
  C:530BH         LINE#         1472
  C:530EH         LINE#         1473
  C:5311H         LINE#         1476
  C:5311H         LINE#         1477
  C:532FH         LINE#         1478
  C:5332H         LINE#         1479
  C:5332H         LINE#         1480
  C:5332H         LINE#         1481
  C:5332H         LINE#         1482
  -------         ENDPROC       MENU
  -------         ENDMOD        PROG

  -------         MODULE        PTO_PARALELO
  C:0000H         SYMBOL        _ICE_DUMMY_
  D:0080H         PUBLIC        P0
  D:00A0H         PUBLIC        P2
  D:00B0H         PUBLIC        P3
  B:0080H.2       PUBLIC        led_err_imp
  C:6D06H         PUBLIC        load_and_send_id_cod
  C:9E39H         PUBLIC        _recibe_port
  B:00B0H.2       PUBLIC        ready
  B:0080H.6       PUBLIC        rx_in_data
  C:BD9AH         PUBLIC        Pulso_Bus
  C:A3E4H         PUBLIC        _send_portERR
  B:00B0H.3       PUBLIC        busy
  C:B199H         PUBLIC        load_and_send_info_reloj
  C:95EFH         PUBLIC        _send_port
  B:00B0H.4       PUBLIC        port_clk
  C:BE15H         PUBLIC        cond_ini_pto
  -------         PROC          _RECIBE_PORT
  X:0001H         SYMBOL        buffer_port
  -------         DO            
  D:0006H         SYMBOL        count
  X:0004H         SYMBOL        time_out
  X:0005H         SYMBOL        num_data
  X:0006H         SYMBOL        T_ANCHO
  X:0008H         SYMBOL        data_temp
BL51 BANKED LINKER/LOCATER V6.22.2.0                                                  05/27/2021  15:12:49  PAGE 85


  -------         ENDDO         
  C:9E39H         LINE#         60
  C:9E44H         LINE#         61
  C:9E44H         LINE#         65
  C:9E4DH         LINE#         66
  C:9E50H         LINE#         69
  C:9E53H         LINE#         70
  C:9E53H         LINE#         72
  C:9E56H         LINE#         73
  C:9E5BH         LINE#         74
  C:9E5DH         LINE#         75
  C:9E61H         LINE#         76
  C:9E63H         LINE#         79
  C:9E68H         LINE#         80
  C:9E71H         LINE#         81
  C:9E71H         LINE#         82
  C:9E74H         LINE#         83
  C:9E74H         LINE#         85
  C:9E79H         LINE#         86
  C:9E7DH         LINE#         87
  C:9E7DH         LINE#         88
  C:9E7FH         LINE#         89
  C:9E81H         LINE#         90
  C:9E81H         LINE#         91
  C:9E81H         LINE#         93
  C:9E81H         LINE#         94
  C:9E8EH         LINE#         95
  C:9E8EH         LINE#         97
  C:9E91H         LINE#         98
  C:9E91H         LINE#         100
  C:9E97H         LINE#         102
  C:9E99H         LINE#         103
  C:9EADH         LINE#         104
  C:9EB7H         LINE#         105
  C:9EBDH         LINE#         106
  C:9EC3H         LINE#         107
  C:9EC5H         LINE#         108
  C:9EC5H         LINE#         109
  C:9EC5H         LINE#         110
  C:9EC5H         LINE#         113
  C:9EC7H         LINE#         114
  C:9EC9H         LINE#         115
  C:9EC9H         LINE#         116
  C:9ECCH         LINE#         118
  C:9ED1H         LINE#         119
  -------         ENDPROC       _RECIBE_PORT
  -------         PROC          _SEND_PORT
  X:0016H         SYMBOL        buffer_port
  X:0019H         SYMBOL        length_char
  -------         DO            
  X:001AH         SYMBOL        cont
  X:001EH         SYMBOL        timeOut
  X:001FH         SYMBOL        length
  -------         ENDDO         
  C:95EFH         LINE#         126
  C:95FDH         LINE#         127
  C:95FDH         LINE#         132
BL51 BANKED LINKER/LOCATER V6.22.2.0                                                  05/27/2021  15:12:49  PAGE 86


  C:9601H         LINE#         134
  C:9603H         LINE#         135
  C:9605H         LINE#         136
  C:9607H         LINE#         137
  C:960CH         LINE#         138
  C:960EH         LINE#         139
  C:9618H         LINE#         141
  C:9621H         LINE#         142
  C:9621H         LINE#         143
  C:9623H         LINE#         144
  C:9625H         LINE#         145
  C:9649H         LINE#         146
  C:965DH         LINE#         147
  C:965DH         LINE#         148
  C:9660H         LINE#         149
  C:9662H         LINE#         150
  C:9662H         LINE#         151
  C:9664H         LINE#         152
  C:966DH         LINE#         153
  C:966DH         LINE#         157
  C:966DH         LINE#         159
  C:967DH         LINE#         160
  C:9680H         LINE#         161
  C:968AH         LINE#         163
  C:9690H         LINE#         164
  C:9693H         LINE#         166
  C:9693H         LINE#         168
  C:9696H         LINE#         169
  C:9698H         LINE#         170
  C:969AH         LINE#         171
  C:969CH         LINE#         172
  -------         ENDPROC       _SEND_PORT
  -------         PROC          PULSO_BUS
  C:BD9AH         LINE#         180
  C:BD9AH         LINE#         181
  C:BD9AH         LINE#         182
  C:BD9CH         LINE#         183
  C:BDA3H         LINE#         184
  C:BDA5H         LINE#         185
  -------         ENDPROC       PULSO_BUS
  -------         PROC          _SEND_PORTERR
  X:002AH         SYMBOL        cod_err
  -------         DO            
  X:002BH         SYMBOL        timeOut
  X:002CH         SYMBOL        cont
  -------         ENDDO         
  C:A3E4H         LINE#         190
  C:A3EAH         LINE#         191
  C:A3EAH         LINE#         195
  C:A3ECH         LINE#         196
  C:A3EEH         LINE#         197
  C:A3F1H         LINE#         198
  C:A3F9H         LINE#         200
  C:A3FBH         LINE#         201
  C:A3FDH         LINE#         202
  C:A406H         LINE#         203
  C:A406H         LINE#         204
BL51 BANKED LINKER/LOCATER V6.22.2.0                                                  05/27/2021  15:12:49  PAGE 87


  C:A428H         LINE#         205
  C:A43CH         LINE#         206
  C:A43CH         LINE#         207
  C:A441H         LINE#         208
  C:A441H         LINE#         209
  C:A443H         LINE#         210
  C:A44CH         LINE#         211
  C:A44CH         LINE#         212
  C:A452H         LINE#         213
  C:A455H         LINE#         214
  C:A455H         LINE#         215
  C:A457H         LINE#         216
  C:A459H         LINE#         217
  C:A45BH         LINE#         219
  C:A45EH         LINE#         221
  C:A465H         LINE#         222
  -------         ENDPROC       _SEND_PORTERR
  -------         PROC          COND_INI_PTO
  C:BE15H         LINE#         228
  C:BE15H         LINE#         229
  C:BE15H         LINE#         231
  C:BE17H         LINE#         232
  C:BE19H         LINE#         233
  C:BE1BH         LINE#         234
  C:BE1EH         LINE#         235
  -------         ENDPROC       COND_INI_PTO
  -------         PROC          LOAD_AND_SEND_INFO_RELOJ
  -------         DO            
  X:0002H         SYMBOL        buffer_info
  -------         ENDDO         
  C:B199H         LINE#         240
  C:B199H         LINE#         241
  C:B199H         LINE#         244
  C:B19FH         LINE#         246
  C:B1A3H         LINE#         249
  C:B1ACH         LINE#         251
  C:B1B6H         LINE#         252
  C:B1BAH         LINE#         253
  C:B1BDH         LINE#         254
  C:B1C6H         LINE#         255
  C:B1D7H         LINE#         256
  C:B1DAH         LINE#         257
  -------         ENDPROC       LOAD_AND_SEND_INFO_RELOJ
  -------         PROC          LOAD_AND_SEND_ID_COD
  -------         DO            
  X:0002H         SYMBOL        buffer_info
  X:000DH         SYMBOL        buf
  X:0011H         SYMBOL        i
  X:0012H         SYMBOL        ID_CLIENTE
  X:0014H         SYMBOL        COD_PARK
  -------         ENDDO         
  C:6D06H         LINE#         264
  C:6D06H         LINE#         265
  C:6D06H         LINE#         273
  C:6D16H         LINE#         275
  C:6D27H         LINE#         277
  C:6D2DH         LINE#         278
BL51 BANKED LINKER/LOCATER V6.22.2.0                                                  05/27/2021  15:12:49  PAGE 88


  C:6D31H         LINE#         279
  C:6D34H         LINE#         281
  C:6D5AH         LINE#         282
  C:6D71H         LINE#         285
  C:6D88H         LINE#         288
  C:6DAEH         LINE#         289
  C:6DC5H         LINE#         291
  C:6DDCH         LINE#         292
  C:6DEAH         LINE#         293
  C:6DFBH         LINE#         294
  C:6E0EH         LINE#         295
  C:6E14H         LINE#         296
  C:6E1DH         LINE#         297
  C:6E31H         LINE#         298
  C:6E34H         LINE#         299
  -------         ENDPROC       LOAD_AND_SEND_ID_COD
  -------         ENDMOD        PTO_PARALELO

  -------         MODULE        TIBBO
  C:0000H         SYMBOL        _ICE_DUMMY_
  C:B3DBH         PUBLIC        _Debug_HexDec
  C:B23BH         PUBLIC        _Debug_txt_Tibbo
  D:0080H         PUBLIC        P0
  D:0090H         PUBLIC        P1
  B:0090H.0       PUBLIC        txd2
  B:00A8H.7       PUBLIC        EA
  C:B1E8H         PUBLIC        _tx_aux
  B:0080H.0       PUBLIC        rx_ip
  C:BE1FH         PUBLIC        Debug_Dividir_texto
  C:BE79H         PUBLIC        cond_ini_tibbo
  C:BD0FH         PUBLIC        time_mbit
  C:A46CH         PUBLIC        rx_Data
  C:BC8EH         PUBLIC        time_bit
  C:B5F2H         PUBLIC        _Debug_pto_paralelo
  C:B767H         PUBLIC        _Debug_monitor
  C:A686H         PUBLIC        _DebugBufferMF
  C:B2C1H         PUBLIC        _Debug_chr_Tibbo
  C:BC88H         SYMBOL        L?0067
  -------         PROC          L?0066
  -------         ENDPROC       L?0066
  C:BC88H         SYMBOL        L?0067
  -------         PROC          TIME_BIT
  -------         DO            
  D:0007H         SYMBOL        j
  -------         ENDDO         
  C:BC8EH         LINE#         20
  C:BC8EH         LINE#         21
  C:BC8EH         LINE#         24
  C:BC9AH         LINE#         25
  C:BC9AH         LINE#         26
  C:BC9BH         LINE#         27
  C:BC9CH         LINE#         28
  C:BC9DH         LINE#         29
  C:BC9EH         LINE#         30
  C:BC9FH         LINE#         31
  C:BCA0H         LINE#         32
  C:BCA1H         LINE#         33
BL51 BANKED LINKER/LOCATER V6.22.2.0                                                  05/27/2021  15:12:49  PAGE 89


  C:BCA2H         LINE#         34
  C:BCA3H         LINE#         39
  C:BCA6H         LINE#         40
  -------         ENDPROC       TIME_BIT
  -------         PROC          TIME_MBIT
  -------         DO            
  D:0007H         SYMBOL        j
  -------         ENDDO         
  C:BD0FH         LINE#         43
  C:BD0FH         LINE#         44
  C:BD0FH         LINE#         46
  C:BD1BH         LINE#         47
  C:BD1BH         LINE#         48
  C:BD1CH         LINE#         49
  C:BD1DH         LINE#         50
  C:BD1EH         LINE#         51
  C:BD1FH         LINE#         52
  C:BD20H         LINE#         53
  C:BD21H         LINE#         54
  C:BD22H         LINE#         55
  C:BD25H         LINE#         57
  -------         ENDPROC       TIME_MBIT
  -------         PROC          L?0070
  -------         ENDPROC       L?0070
  -------         PROC          _TX_AUX
  D:0006H         SYMBOL        caracter
  -------         DO            
  D:0004H         SYMBOL        j
  D:0005H         SYMBOL        temporal
  D:0006H         SYMBOL        bitTX
  -------         ENDDO         
  C:B1E8H         LINE#         62
  C:B1EAH         LINE#         63
  C:B1EAH         LINE#         66
  C:B1ECH         LINE#         67
  C:B1EEH         LINE#         68
  C:B1F1H         LINE#         69
  C:B1F2H         LINE#         70
  C:B1F3H         LINE#         71
  C:B1F5H         LINE#         72
  C:B1F9H         LINE#         73
  C:B1FBH         LINE#         74
  C:B1FBH         LINE#         75
  C:B1FDH         LINE#         76
  C:B1FFH         LINE#         78
  C:B1FFH         LINE#         79
  C:B201H         LINE#         80
  C:B201H         LINE#         81
  C:B204H         LINE#         82
  C:B210H         LINE#         83
  C:B210H         LINE#         84
  C:B214H         LINE#         85
  C:B217H         LINE#         86
  C:B219H         LINE#         87
  C:B219H         LINE#         88
  C:B21BH         LINE#         89
  C:B21DH         LINE#         91
BL51 BANKED LINKER/LOCATER V6.22.2.0                                                  05/27/2021  15:12:49  PAGE 90


  C:B21DH         LINE#         92
  C:B21FH         LINE#         93
  C:B21FH         LINE#         94
  C:B222H         LINE#         95
  C:B225H         LINE#         96
  C:B227H         LINE#         97
  C:B22AH         LINE#         98
  C:B22DH         LINE#         100
  C:B22FH         LINE#         101
  -------         ENDPROC       _TX_AUX
  -------         PROC          _DEBUG_HEXDEC
  D:0007H         SYMBOL        xfc
  -------         DO            
  X:0018H         SYMBOL        valor
  D:0006H         SYMBOL        centena
  D:0003H         SYMBOL        decena
  D:0002H         SYMBOL        unidad
  -------         ENDDO         
  C:B3DBH         LINE#         104
  C:B3DBH         LINE#         105
  C:B3DBH         LINE#         108
  C:B3E2H         LINE#         110
  C:B3E3H         LINE#         111
  C:B3E4H         LINE#         112
  C:B3E5H         LINE#         113
  C:B3EDH         LINE#         114
  C:B3EDH         LINE#         115
  C:B3F7H         LINE#         116
  C:B3F7H         LINE#         117
  C:B3FBH         LINE#         118
  C:B3FCH         LINE#         119
  C:B3FEH         LINE#         120
  C:B408H         LINE#         121
  C:B408H         LINE#         122
  C:B40CH         LINE#         123
  C:B40DH         LINE#         124
  C:B40FH         LINE#         125
  C:B411H         LINE#         126
  C:B415H         LINE#         127
  C:B419H         LINE#         128
  C:B420H         LINE#         130
  C:B420H         LINE#         131
  -------         ENDPROC       _DEBUG_HEXDEC
  -------         PROC          _DEBUG_CHR_TIBBO
  D:0003H         SYMBOL        Dat
  -------         DO            
  D:0007H         SYMBOL        temp
  -------         ENDDO         
  C:B2C1H         LINE#         136
  C:B2C3H         LINE#         137
  C:B2C3H         LINE#         139
  C:B2CBH         LINE#         140
  C:B2CBH         LINE#         141
  C:B2D2H         LINE#         142
  C:B2E5H         LINE#         144
  C:B2E8H         LINE#         146
  C:B2ECH         LINE#         147
BL51 BANKED LINKER/LOCATER V6.22.2.0                                                  05/27/2021  15:12:49  PAGE 91


  C:B2FFH         LINE#         148
  C:B302H         LINE#         149
  C:B307H         LINE#         151
  C:B307H         LINE#         152
  -------         ENDPROC       _DEBUG_CHR_TIBBO
  -------         PROC          _DEBUGBUFFERMF
  X:0027H         SYMBOL        str
  X:002AH         SYMBOL        num_char
  X:002BH         SYMBOL        io
  -------         DO            
  X:002CH         SYMBOL        j
  -------         ENDDO         
  C:A686H         LINE#         160
  C:A694H         LINE#         161
  C:A694H         LINE#         165
  C:A69CH         LINE#         166
  C:A69CH         LINE#         167
  C:A6ABH         LINE#         168
  C:A6ABH         LINE#         169
  C:A6B1H         LINE#         170
  C:A6B3H         LINE#         171
  C:A6C0H         LINE#         172
  C:A6C0H         LINE#         173
  C:A6C9H         LINE#         174
  C:A6C9H         LINE#         176
  C:A6DBH         LINE#         177
  C:A6DBH         LINE#         178
  C:A6EDH         LINE#         179
  C:A6F7H         LINE#         180
  C:A6FFH         LINE#         181
  C:A704H         LINE#         182
  C:A709H         LINE#         183
  C:A709H         LINE#         185
  -------         ENDPROC       _DEBUGBUFFERMF
  C:B235H         SYMBOL        L?0069
  -------         PROC          L?0068
  -------         ENDPROC       L?0068
  C:B235H         SYMBOL        L?0069
  -------         PROC          _DEBUG_TXT_TIBBO
  X:004EH         SYMBOL        str
  -------         DO            
  X:0051H         SYMBOL        i
  -------         ENDDO         
  C:B23BH         LINE#         190
  C:B246H         LINE#         191
  C:B246H         LINE#         193
  C:B249H         LINE#         195
  C:B251H         LINE#         196
  C:B251H         LINE#         197
  C:B26DH         LINE#         198
  C:B26DH         LINE#         199
  C:B270H         LINE#         200
  C:B278H         LINE#         202
  C:B278H         LINE#         203
  -------         ENDPROC       _DEBUG_TXT_TIBBO
  -------         PROC          DEBUG_DIVIDIR_TEXTO
  C:BE1FH         LINE#         205
BL51 BANKED LINKER/LOCATER V6.22.2.0                                                  05/27/2021  15:12:49  PAGE 92


  C:BE1FH         LINE#         206
  C:BE1FH         LINE#         207
  -------         ENDPROC       DEBUG_DIVIDIR_TEXTO
  -------         PROC          RX_DATA
  -------         DO            
  D:0006H         SYMBOL        temporal
  -------         ENDDO         
  C:A46CH         LINE#         213
  C:A46CH         LINE#         214
  C:A46CH         LINE#         217
  C:A46EH         LINE#         218
  C:A471H         LINE#         220
  C:A474H         LINE#         222
  C:A480H         LINE#         223
  C:A480H         LINE#         225
  C:A483H         LINE#         227
  C:A48FH         LINE#         228
  C:A48FH         LINE#         230
  C:A492H         LINE#         232
  C:A49EH         LINE#         233
  C:A49EH         LINE#         235
  C:A4A1H         LINE#         237
  C:A4ADH         LINE#         238
  C:A4ADH         LINE#         240
  C:A4B0H         LINE#         242
  C:A4BCH         LINE#         243
  C:A4BCH         LINE#         245
  C:A4BFH         LINE#         247
  C:A4CBH         LINE#         248
  C:A4CBH         LINE#         250
  C:A4CEH         LINE#         252
  C:A4DAH         LINE#         253
  C:A4DAH         LINE#         255
  C:A4DDH         LINE#         256
  C:A4EBH         LINE#         258
  C:A4EEH         LINE#         259
  C:A4F1H         LINE#         260
  C:A4F1H         LINE#         261
  C:A4F1H         LINE#         264
  C:A4F3H         LINE#         266
  -------         ENDPROC       RX_DATA
  -------         PROC          COND_INI_TIBBO
  C:BE79H         LINE#         284
  C:BE79H         LINE#         285
  C:BE79H         LINE#         287
  C:BE7BH         LINE#         288
  C:BE7DH         LINE#         289
  -------         ENDPROC       COND_INI_TIBBO
  -------         PROC          _DEBUG_PTO_PARALELO
  X:0001H         SYMBOL        buffer
  X:0004H         SYMBOL        Length_trama
  C:B5F2H         LINE#         290
  C:B600H         LINE#         291
  C:B600H         LINE#         293
  C:B609H         LINE#         294
  C:B620H         LINE#         295
  C:B629H         LINE#         296
BL51 BANKED LINKER/LOCATER V6.22.2.0                                                  05/27/2021  15:12:49  PAGE 93


  C:B62CH         LINE#         297
  C:B62FH         LINE#         298
  -------         ENDPROC       _DEBUG_PTO_PARALELO
  -------         PROC          _DEBUG_MONITOR
  X:0016H         SYMBOL        buffer
  X:0019H         SYMBOL        Length_trama
  C:B767H         LINE#         301
  C:B775H         LINE#         302
  C:B775H         LINE#         303
  C:B778H         LINE#         304
  C:B781H         LINE#         305
  C:B78FH         LINE#         306
  C:B792H         LINE#         307
  C:B79BH         LINE#         308
  C:B79EH         LINE#         309
  C:B7A1H         LINE#         310
  -------         ENDPROC       _DEBUG_MONITOR
  -------         ENDMOD        TIBBO

  -------         MODULE        UART
  C:0000H         SYMBOL        _ICE_DUMMY_
  C:BB2FH         PUBLIC        com_getchar
  C:BDACH         PUBLIC        com_rbuflen
  C:BDBEH         PUBLIC        com_tbuflen
  B:00A8H.4       PUBLIC        ES
  B:0098H.0       PUBLIC        RI
  C:B81CH         PUBLIC        _com_putchar
  B:0098H.1       PUBLIC        TI
  B:0021H.4       PUBLIC        aSk
  B:00B8H.4       PUBLIC        PS
  D:000DH         SYMBOL        r_in
  D:000EH         SYMBOL        r_out
  D:000FH         SYMBOL        t_in
  D:0010H         SYMBOL        t_out
  D:0099H         PUBLIC        SBUF
  D:0087H         PUBLIC        PCON
  D:0089H         PUBLIC        TMOD
  B:0021H.5       SYMBOL        ti_restart
  B:00A8H.3       PUBLIC        ET1
  D:008DH         PUBLIC        TH1
  B:0098H.7       PUBLIC        SM0
  B:0098H.6       PUBLIC        SM1
  D:008BH         PUBLIC        TL1
  B:0098H.5       PUBLIC        SM2
  B:0088H.6       PUBLIC        TR1
  C:BA66H         PUBLIC        com_initialize
  X:020DH         PUBLIC        cnt__ask_off
  B:0098H.4       PUBLIC        REN
  C:BAB8H         PUBLIC        com_baudrate
  C:5ECBH         SYMBOL        com_isr
  -------         PROC          COM_ISR
  -------         DO            
  X:020BH         SYMBOL        cDatoRx
  D:0006H         SYMBOL        k
  D:0007H         SYMBOL        bcc
  X:020CH         SYMBOL        num_datos
  -------         ENDDO         
BL51 BANKED LINKER/LOCATER V6.22.2.0                                                  05/27/2021  15:12:49  PAGE 94


  C:5ECBH         LINE#         95
  C:5EE0H         LINE#         103
  C:5EE6H         LINE#         104
  C:5EE6H         LINE#         106
  C:5EE8H         LINE#         107
  C:5EEEH         LINE#         108
  C:5EFEH         LINE#         109
  C:5EFEH         LINE#         110
  C:5F09H         LINE#         111
  C:5F0BH         LINE#         113
  C:5F0BH         LINE#         114
  C:5F1BH         LINE#         115
  C:5F1BH         LINE#         116
  C:5F20H         LINE#         117
  C:5F20H         LINE#         118
  C:5F37H         LINE#         119
  C:5F37H         LINE#         123
  C:5F37H         LINE#         126
  C:5F46H         LINE#         127
  C:5F46H         LINE#         128
  C:5F48H         LINE#         129
  C:5F50H         LINE#         130
  C:5F55H         LINE#         132
  C:5F55H         LINE#         133
  C:5F58H         LINE#         137
  C:5F58H         LINE#         138
  C:5F58H         LINE#         139
  C:5F70H         LINE#         140
  C:5F7FH         LINE#         141
  C:5F7FH         LINE#         142
  C:5F7FH         LINE#         143
  C:5F81H         LINE#         145
  C:5F81H         LINE#         146
  C:5F83H         LINE#         147
  C:5F83H         LINE#         148
  C:5F83H         LINE#         149
  C:5F86H         LINE#         153
  C:5F86H         LINE#         155
  C:5F8FH         LINE#         156
  C:5F8FH         LINE#         158
  C:5F95H         LINE#         159
  C:5FA8H         LINE#         160
  C:5FA8H         LINE#         161
  C:5FABH         LINE#         163
  C:5FABH         LINE#         164
  C:5FC0H         LINE#         165
  C:5FC6H         LINE#         166
  C:5FC6H         LINE#         168
  C:5FC9H         LINE#         172
  C:5FC9H         LINE#         174
  C:5FE1H         LINE#         175
  C:5FE7H         LINE#         176
  C:5FEAH         LINE#         177
  C:5FEAH         LINE#         178
  C:6002H         LINE#         179
  C:6002H         LINE#         180
  C:6003H         LINE#         181
BL51 BANKED LINKER/LOCATER V6.22.2.0                                                  05/27/2021  15:12:49  PAGE 95


  C:6010H         LINE#         182
  C:6010H         LINE#         183
  C:601DH         LINE#         184
  C:6020H         LINE#         185
  C:602EH         LINE#         186
  C:602EH         LINE#         187
  C:6030H         LINE#         188
  C:6035H         LINE#         189
  C:6037H         LINE#         190
  C:603BH         LINE#         192
  C:603DH         LINE#         194
  C:603DH         LINE#         195
  C:603DH         LINE#         196
  C:603DH         LINE#         197
  C:603FH         LINE#         199
  C:603FH         LINE#         200
  C:603FH         LINE#         201
  C:603FH         LINE#         203
  C:6041H         LINE#         205
  C:6041H         LINE#         206
  C:6047H         LINE#         207
  C:6047H         LINE#         209
  C:6049H         LINE#         214
  C:6049H         LINE#         215
  C:604EH         LINE#         216
  C:604EH         LINE#         217
  C:604EH         LINE#         218
  C:604EH         LINE#         223
  C:6051H         LINE#         224
  C:6051H         LINE#         225
  C:6053H         LINE#         227
  C:6059H         LINE#         228
  C:6059H         LINE#         229
  C:6063H         LINE#         231
  C:6065H         LINE#         232
  C:6067H         LINE#         233
  C:6069H         LINE#         235
  C:6069H         LINE#         236
  C:606BH         LINE#         237
  C:606BH         LINE#         238
  C:606BH         LINE#         240
  -------         ENDPROC       COM_ISR
  -------         PROC          COM_INITIALIZE
  C:BA66H         LINE#         256
  C:BA6DH         LINE#         257
  C:BA6DH         LINE#         261
  C:BA70H         LINE#         266
  C:BA73H         LINE#         267
  C:BA75H         LINE#         269
  C:BA77H         LINE#         270
  C:BA79H         LINE#         275
  C:BA7DH         LINE#         276
  C:BA7FH         LINE#         277
  C:BA81H         LINE#         279
  C:BA83H         LINE#         280
  C:BA85H         LINE#         281
  C:BA87H         LINE#         283
BL51 BANKED LINKER/LOCATER V6.22.2.0                                                  05/27/2021  15:12:49  PAGE 96


  C:BA89H         LINE#         284
  C:BA8BH         LINE#         285
  -------         ENDPROC       COM_INITIALIZE
  -------         PROC          COM_BAUDRATE
  C:BAB8H         LINE#         291
  C:BABFH         LINE#         293
  C:BABFH         LINE#         297
  C:BAC1H         LINE#         298
  C:BAC4H         LINE#         299
  C:BAC6H         LINE#         304
  C:BAC8H         LINE#         305
  C:BACAH         LINE#         307
  C:BACDH         LINE#         309
  C:BAD0H         LINE#         310
  C:BAD3H         LINE#         312
  C:BAD6H         LINE#         313
  C:BAD9H         LINE#         314
  C:BADBH         LINE#         315
  -------         ENDPROC       COM_BAUDRATE
  -------         PROC          _COM_PUTCHAR
  X:00AAH         SYMBOL        c
  C:B81CH         LINE#         321
  C:B828H         LINE#         322
  C:B828H         LINE#         326
  C:B835H         LINE#         327
  C:B839H         LINE#         333
  C:B847H         LINE#         335
  C:B849H         LINE#         337
  C:B84CH         LINE#         338
  C:B84CH         LINE#         339
  C:B84EH         LINE#         340
  C:B850H         LINE#         341
  C:B850H         LINE#         343
  C:B852H         LINE#         344
  -------         ENDPROC       _COM_PUTCHAR
  -------         PROC          COM_GETCHAR
  C:BB2FH         LINE#         350
  C:BB36H         LINE#         351
  C:BB36H         LINE#         352
  C:BB3CH         LINE#         353
  C:BB42H         LINE#         355
  C:BB50H         LINE#         356
  -------         ENDPROC       COM_GETCHAR
  -------         PROC          COM_RBUFLEN
  C:BDACH         LINE#         362
  C:BDB3H         LINE#         363
  C:BDB3H         LINE#         364
  C:BDB9H         LINE#         365
  -------         ENDPROC       COM_RBUFLEN
  -------         PROC          COM_TBUFLEN
  C:BDBEH         LINE#         371
  C:BDC5H         LINE#         372
  C:BDC5H         LINE#         373
  C:BDCBH         LINE#         374
  -------         ENDPROC       COM_TBUFLEN
  -------         ENDMOD        UART

BL51 BANKED LINKER/LOCATER V6.22.2.0                                                  05/27/2021  15:12:49  PAGE 97


  -------         MODULE        LINTECH
  C:0000H         SYMBOL        _ICE_DUMMY_
  C:9B33H         PUBLIC        _Inicializa
  C:8DD3H         PUBLIC        _RD_MF
  C:97F9H         PUBLIC        Dwload_EEprom
  C:9FFBH         PUBLIC        _Card_Insercion
  C:8230H         PUBLIC        _Mov_Card
  C:795BH         PUBLIC        _WR_MF
  C:A2CBH         PUBLIC        LoadVerify_EEprom
  C:A4F4H         PUBLIC        Unique_Identifier_UID
  C:A992H         PUBLIC        Power_off
  C:A57CH         PUBLIC        _Check_Status
  C:974FH         PUBLIC        Clave_Seguridad_S2
  C:A912H         PUBLIC        Aut_Card_check_Status
  -------         PROC          _INICIALIZA
  X:0002H         SYMBOL        TipoMovimiento
  -------         DO            
  D:0003H         SYMBOL        j
  X:0003H         SYMBOL        bcc
  X:0004H         SYMBOL        g_scArrTxComSoft
  -------         ENDDO         
  C:9B33H         LINE#         68
  C:9B38H         LINE#         69
  C:9B38H         LINE#         72
  C:9B3BH         LINE#         73
  C:9B51H         LINE#         74
  C:9B51H         LINE#         76
  C:9B5AH         LINE#         78
  C:9B60H         LINE#         79
  C:9B63H         LINE#         80
  C:9B65H         LINE#         81
  C:9B69H         LINE#         82
  C:9B6DH         LINE#         83
  C:9B71H         LINE#         84
  C:9B79H         LINE#         85
  C:9B7DH         LINE#         86
  C:9B89H         LINE#         87
  C:9B89H         LINE#         88
  C:9B9DH         LINE#         89
  C:9BA0H         LINE#         90
  C:9BA8H         LINE#         91
  C:9BAAH         LINE#         92
  C:9BAFH         LINE#         93
  C:9BBEH         LINE#         94
  C:9BC9H         LINE#         95
  C:9BCFH         LINE#         96
  C:9BCFH         LINE#         97
  -------         ENDPROC       _INICIALIZA
  -------         PROC          _CHECK_STATUS
  X:0002H         SYMBOL        Detalle
  -------         DO            
  D:0006H         SYMBOL        j
  D:0007H         SYMBOL        bcc
  X:0003H         SYMBOL        g_scArrTxComSoft
  -------         ENDDO         
  C:A57CH         LINE#         109
  C:A581H         LINE#         110
BL51 BANKED LINKER/LOCATER V6.22.2.0                                                  05/27/2021  15:12:49  PAGE 98


  C:A581H         LINE#         114
  C:A587H         LINE#         115
  C:A587H         LINE#         116
  C:A58BH         LINE#         117
  C:A58DH         LINE#         119
  C:A58DH         LINE#         120
  C:A594H         LINE#         121
  C:A594H         LINE#         122
  C:A596H         LINE#         124
  C:A59CH         LINE#         125
  C:A59FH         LINE#         126
  C:A5A1H         LINE#         127
  C:A5A5H         LINE#         128
  C:A5A9H         LINE#         129
  C:A5ADH         LINE#         130
  C:A5B5H         LINE#         131
  C:A5B9H         LINE#         132
  C:A5C5H         LINE#         133
  C:A5C5H         LINE#         134
  C:A5D2H         LINE#         135
  C:A5D5H         LINE#         136
  C:A5DAH         LINE#         137
  C:A5DCH         LINE#         138
  C:A5E1H         LINE#         139
  C:A5F0H         LINE#         140
  C:A5FBH         LINE#         141
  C:A601H         LINE#         142
  -------         ENDPROC       _CHECK_STATUS
  -------         PROC          _CARD_INSERCION
  D:0007H         SYMBOL        Tipo
  -------         DO            
  D:0006H         SYMBOL        j
  D:0007H         SYMBOL        bcc
  X:0002H         SYMBOL        g_scArrTxComSoft
  -------         ENDDO         
  C:9FFBH         LINE#         152
  C:9FFBH         LINE#         153
  C:9FFBH         LINE#         156
  C:A008H         LINE#         157
  C:A008H         LINE#         158
  C:A00FH         LINE#         159
  C:A015H         LINE#         160
  C:A017H         LINE#         162
  C:A017H         LINE#         164
  C:A01EH         LINE#         165
  C:A024H         LINE#         167
  C:A024H         LINE#         169
  C:A026H         LINE#         171
  C:A02CH         LINE#         172
  C:A02FH         LINE#         173
  C:A031H         LINE#         174
  C:A035H         LINE#         175
  C:A039H         LINE#         176
  C:A03DH         LINE#         178
  C:A043H         LINE#         179
  C:A04FH         LINE#         180
  C:A04FH         LINE#         181
BL51 BANKED LINKER/LOCATER V6.22.2.0                                                  05/27/2021  15:12:49  PAGE 99


  C:A05CH         LINE#         182
  C:A05FH         LINE#         184
  C:A064H         LINE#         186
  C:A066H         LINE#         187
  C:A06BH         LINE#         188
  C:A07AH         LINE#         189
  C:A085H         LINE#         190
  C:A08BH         LINE#         191
  -------         ENDPROC       _CARD_INSERCION
  -------         PROC          _MOV_CARD
  X:0002H         SYMBOL        Posicion
  -------         DO            
  D:0003H         SYMBOL        j
  X:0003H         SYMBOL        bcc
  X:0004H         SYMBOL        g_scArrTxComSoft
  -------         ENDDO         
  C:8230H         LINE#         202
  C:8235H         LINE#         203
  C:8235H         LINE#         206
  C:8238H         LINE#         208
  C:8258H         LINE#         209
  C:8258H         LINE#         210
  C:825FH         LINE#         211
  C:825FH         LINE#         212
  C:8265H         LINE#         213
  C:8267H         LINE#         214
  C:826EH         LINE#         215
  C:826EH         LINE#         216
  C:8274H         LINE#         217
  C:8276H         LINE#         218
  C:827DH         LINE#         219
  C:827DH         LINE#         220
  C:8283H         LINE#         221
  C:8285H         LINE#         222
  C:828CH         LINE#         223
  C:828CH         LINE#         224
  C:8292H         LINE#         225
  C:8294H         LINE#         226
  C:829BH         LINE#         227
  C:829BH         LINE#         228
  C:82A4H         LINE#         229
  C:82A4H         LINE#         231
  C:82AAH         LINE#         232
  C:82ADH         LINE#         233
  C:82AFH         LINE#         234
  C:82B3H         LINE#         235
  C:82B7H         LINE#         236
  C:82BBH         LINE#         237
  C:82C3H         LINE#         238
  C:82C7H         LINE#         239
  C:82D3H         LINE#         240
  C:82D3H         LINE#         241
  C:82E7H         LINE#         242
  C:82EAH         LINE#         243
  C:82F2H         LINE#         244
  C:82F4H         LINE#         245
  C:82F9H         LINE#         246
BL51 BANKED LINKER/LOCATER V6.22.2.0                                                  05/27/2021  15:12:49  PAGE 100


  C:8308H         LINE#         247
  C:8313H         LINE#         248
  C:8319H         LINE#         249
  C:8319H         LINE#         251
  -------         ENDPROC       _MOV_CARD
  -------         PROC          AUT_CARD_CHECK_STATUS
  -------         DO            
  D:0003H         SYMBOL        j
  X:0002H         SYMBOL        bcc
  X:0003H         SYMBOL        g_scArrTxComSoft
  -------         ENDDO         
  C:A912H         LINE#         257
  C:A912H         LINE#         258
  C:A912H         LINE#         261
  C:A917H         LINE#         263
  C:A920H         LINE#         265
  C:A926H         LINE#         266
  C:A929H         LINE#         267
  C:A92BH         LINE#         268
  C:A92FH         LINE#         269
  C:A933H         LINE#         270
  C:A937H         LINE#         271
  C:A93BH         LINE#         272
  C:A93FH         LINE#         273
  C:A94BH         LINE#         274
  C:A94BH         LINE#         275
  C:A95FH         LINE#         276
  C:A962H         LINE#         277
  C:A96AH         LINE#         278
  C:A96CH         LINE#         279
  C:A971H         LINE#         280
  C:A980H         LINE#         281
  C:A98BH         LINE#         282
  C:A991H         LINE#         283
  -------         ENDPROC       AUT_CARD_CHECK_STATUS
  -------         PROC          CLAVE_SEGURIDAD_S2
  -------         DO            
  D:0003H         SYMBOL        j
  X:0002H         SYMBOL        bcc
  X:0003H         SYMBOL        g_scArrTxComSoft
  -------         ENDDO         
  C:974FH         LINE#         286
  C:974FH         LINE#         287
  C:974FH         LINE#         290
  C:9754H         LINE#         291
  C:975DH         LINE#         294
  C:9763H         LINE#         295
  C:9766H         LINE#         296
  C:9768H         LINE#         297
  C:976CH         LINE#         298
  C:9770H         LINE#         299
  C:9774H         LINE#         300
  C:9778H         LINE#         301
  C:977BH         LINE#         302
  C:977FH         LINE#         303
  C:9782H         LINE#         304
  C:9786H         LINE#         306
BL51 BANKED LINKER/LOCATER V6.22.2.0                                                  05/27/2021  15:12:49  PAGE 101


  C:978AH         LINE#         308
  C:978EH         LINE#         309
  C:9792H         LINE#         310
  C:9796H         LINE#         311
  C:979AH         LINE#         312
  C:979EH         LINE#         313
  C:97A2H         LINE#         316
  C:97A6H         LINE#         318
  C:97B2H         LINE#         319
  C:97B2H         LINE#         320
  C:97C6H         LINE#         321
  C:97C9H         LINE#         322
  C:97D1H         LINE#         323
  C:97D3H         LINE#         324
  C:97D8H         LINE#         325
  C:97E7H         LINE#         326
  C:97F2H         LINE#         327
  C:97F8H         LINE#         330
  -------         ENDPROC       CLAVE_SEGURIDAD_S2
  -------         PROC          DWLOAD_EEPROM
  -------         DO            
  D:0003H         SYMBOL        j
  X:0002H         SYMBOL        bcc
  X:0003H         SYMBOL        g_scArrTxComSoft
  -------         ENDDO         
  C:97F9H         LINE#         335
  C:97F9H         LINE#         336
  C:97F9H         LINE#         339
  C:97FEH         LINE#         340
  C:9807H         LINE#         342
  C:980DH         LINE#         343
  C:9810H         LINE#         344
  C:9812H         LINE#         345
  C:9816H         LINE#         346
  C:981AH         LINE#         347
  C:981EH         LINE#         348
  C:9822H         LINE#         349
  C:9825H         LINE#         350
  C:9829H         LINE#         351
  C:982CH         LINE#         352
  C:982FH         LINE#         353
  C:9833H         LINE#         354
  C:9837H         LINE#         355
  C:983BH         LINE#         356
  C:983FH         LINE#         357
  C:9843H         LINE#         358
  C:9847H         LINE#         359
  C:984BH         LINE#         360
  C:984FH         LINE#         362
  C:985BH         LINE#         363
  C:985BH         LINE#         364
  C:986FH         LINE#         365
  C:9872H         LINE#         366
  C:987AH         LINE#         367
  C:987CH         LINE#         368
  C:9881H         LINE#         369
  C:9890H         LINE#         370
BL51 BANKED LINKER/LOCATER V6.22.2.0                                                  05/27/2021  15:12:49  PAGE 102


  C:989BH         LINE#         371
  C:98A1H         LINE#         372
  -------         ENDPROC       DWLOAD_EEPROM
  -------         PROC          LOADVERIFY_EEPROM
  -------         DO            
  D:0003H         SYMBOL        j
  X:0002H         SYMBOL        bcc
  X:0003H         SYMBOL        g_scArrTxComSoft
  -------         ENDDO         
  C:A2CBH         LINE#         378
  C:A2CBH         LINE#         379
  C:A2CBH         LINE#         382
  C:A2D0H         LINE#         383
  C:A2D9H         LINE#         386
  C:A2DFH         LINE#         387
  C:A2E2H         LINE#         388
  C:A2E4H         LINE#         389
  C:A2E8H         LINE#         390
  C:A2ECH         LINE#         391
  C:A2F0H         LINE#         392
  C:A2F4H         LINE#         393
  C:A2F7H         LINE#         394
  C:A2FBH         LINE#         395
  C:A2FEH         LINE#         396
  C:A301H         LINE#         397
  C:A305H         LINE#         402
  C:A311H         LINE#         403
  C:A311H         LINE#         404
  C:A325H         LINE#         405
  C:A328H         LINE#         406
  C:A330H         LINE#         407
  C:A332H         LINE#         408
  C:A337H         LINE#         409
  C:A346H         LINE#         410
  C:A351H         LINE#         411
  C:A357H         LINE#         413
  -------         ENDPROC       LOADVERIFY_EEPROM
  -------         PROC          _RD_MF
  X:0002H         SYMBOL        Sector
  X:0003H         SYMBOL        Bloque
  -------         DO            
  D:0003H         SYMBOL        j
  X:0004H         SYMBOL        bcc
  X:0005H         SYMBOL        g_scArrTxComSoft
  -------         ENDDO         
  C:8DD3H         LINE#         419
  C:8DDBH         LINE#         420
  C:8DDBH         LINE#         424
  C:8DDEH         LINE#         426
  C:8DE7H         LINE#         427
  C:8DEFH         LINE#         429
  C:8DF8H         LINE#         430
  C:8E00H         LINE#         431
  C:8E09H         LINE#         434
  C:8E0FH         LINE#         435
  C:8E12H         LINE#         436
  C:8E14H         LINE#         437
BL51 BANKED LINKER/LOCATER V6.22.2.0                                                  05/27/2021  15:12:49  PAGE 103


  C:8E18H         LINE#         438
  C:8E1CH         LINE#         439
  C:8E20H         LINE#         440
  C:8E24H         LINE#         441
  C:8E27H         LINE#         442
  C:8E2BH         LINE#         443
  C:8E33H         LINE#         444
  C:8E3BH         LINE#         445
  C:8E3FH         LINE#         446
  C:8E43H         LINE#         448
  C:8E4FH         LINE#         449
  C:8E4FH         LINE#         450
  C:8E63H         LINE#         451
  C:8E66H         LINE#         452
  C:8E6EH         LINE#         455
  C:8E70H         LINE#         456
  C:8E75H         LINE#         457
  C:8E84H         LINE#         458
  C:8E8FH         LINE#         459
  C:8E95H         LINE#         461
  -------         ENDPROC       _RD_MF
  -------         PROC          _WR_MF
  X:0002H         SYMBOL        Sector
  X:0003H         SYMBOL        Bloque
  X:0004H         SYMBOL        buffer
  -------         DO            
  D:0005H         SYMBOL        j
  X:0007H         SYMBOL        bcc
  X:0008H         SYMBOL        g_scArrTxComSoft
  -------         ENDDO         
  C:795BH         LINE#         468
  C:796CH         LINE#         470
  C:796CH         LINE#         473
  C:796FH         LINE#         475
  C:7978H         LINE#         476
  C:7980H         LINE#         478
  C:7989H         LINE#         479
  C:7991H         LINE#         480
  C:799AH         LINE#         482
  C:79A0H         LINE#         483
  C:79A3H         LINE#         484
  C:79A5H         LINE#         485
  C:79A9H         LINE#         487
  C:79ADH         LINE#         488
  C:79B1H         LINE#         489
  C:79B5H         LINE#         490
  C:79B8H         LINE#         491
  C:79BCH         LINE#         492
  C:79C4H         LINE#         493
  C:79CCH         LINE#         494
  C:79D0H         LINE#         496
  C:79DCH         LINE#         497
  C:79DCH         LINE#         498
  C:79FCH         LINE#         499
  C:79FFH         LINE#         501
  C:7A05H         LINE#         503
  C:7A11H         LINE#         504
BL51 BANKED LINKER/LOCATER V6.22.2.0                                                  05/27/2021  15:12:49  PAGE 104


  C:7A11H         LINE#         505
  C:7A28H         LINE#         506
  C:7A2BH         LINE#         507
  C:7A33H         LINE#         510
  C:7A35H         LINE#         511
  C:7A3AH         LINE#         512
  C:7A49H         LINE#         513
  C:7A54H         LINE#         514
  C:7A5AH         LINE#         516
  -------         ENDPROC       _WR_MF
  -------         PROC          UNIQUE_IDENTIFIER_UID
  -------         DO            
  D:0003H         SYMBOL        j
  X:0002H         SYMBOL        bcc
  X:0003H         SYMBOL        g_scArrTxComSoft
  -------         ENDDO         
  C:A4F4H         LINE#         521
  C:A4F4H         LINE#         522
  C:A4F4H         LINE#         525
  C:A4F9H         LINE#         527
  C:A502H         LINE#         529
  C:A508H         LINE#         530
  C:A50BH         LINE#         531
  C:A50DH         LINE#         532
  C:A511H         LINE#         533
  C:A515H         LINE#         534
  C:A519H         LINE#         535
  C:A51DH         LINE#         536
  C:A521H         LINE#         537
  C:A525H         LINE#         538
  C:A529H         LINE#         539
  C:A535H         LINE#         540
  C:A535H         LINE#         541
  C:A549H         LINE#         542
  C:A54CH         LINE#         543
  C:A554H         LINE#         544
  C:A556H         LINE#         545
  C:A55BH         LINE#         546
  C:A56AH         LINE#         547
  C:A575H         LINE#         548
  C:A57BH         LINE#         549
  -------         ENDPROC       UNIQUE_IDENTIFIER_UID
  -------         PROC          POWER_OFF
  -------         DO            
  D:0003H         SYMBOL        j
  X:0002H         SYMBOL        bcc
  X:0003H         SYMBOL        g_scArrTxComSoft
  -------         ENDDO         
  C:A992H         LINE#         550
  C:A992H         LINE#         551
  C:A992H         LINE#         554
  C:A997H         LINE#         556
  C:A9A0H         LINE#         558
  C:A9A6H         LINE#         559
  C:A9A9H         LINE#         560
  C:A9ABH         LINE#         561
  C:A9AFH         LINE#         562
BL51 BANKED LINKER/LOCATER V6.22.2.0                                                  05/27/2021  15:12:49  PAGE 105


  C:A9B3H         LINE#         563
  C:A9B7H         LINE#         564
  C:A9BBH         LINE#         565
  C:A9BFH         LINE#         566
  C:A9CBH         LINE#         567
  C:A9CBH         LINE#         568
  C:A9DFH         LINE#         569
  C:A9E2H         LINE#         570
  C:A9EAH         LINE#         571
  C:A9ECH         LINE#         572
  C:A9F1H         LINE#         573
  C:AA00H         LINE#         574
  C:AA0BH         LINE#         575
  C:AA11H         LINE#         578
  -------         ENDPROC       POWER_OFF
  -------         ENDMOD        LINTECH

  -------         MODULE        VERIFICADOR
  C:0000H         SYMBOL        _ICE_DUMMY_
  D:0080H         PUBLIC        P0
  C:BB55H         PUBLIC        Analiza_Presencia_Mensual
  C:AD4DH         PUBLIC        Ingreso_Vehiculo
  D:0090H         PUBLIC        P1
  C:BAE0H         PUBLIC        _Armar_Trama_Tarjeta_Sector1_Bloque0
  D:00B0H         PUBLIC        P3
  C:607EH         PUBLIC        _Valida_Tipo_Tarjeta
  C:B7C0H         PUBLIC        _Load_Secuencia_Expedidor
  C:592AH         PUBLIC        _Armar_Trama_Tarjeta_Sector1_Bloque2
  C:4EC8H         PUBLIC        _Armar_Trama_Pto_Paralelo_Expedidor
  C:8D0FH         PUBLIC        _Tarjeta_Mensual
  C:BBA1H         PUBLIC        Analiza_Presencia_rotacion
  C:A11CH         PUBLIC        _Disparo_Lock_Entrada_Vehiculo
  C:BA08H         PUBLIC        Pregunta_Placa
  C:9ED2H         PUBLIC        _Valida_Vehiculo_Card_Mensual
  C:B891H         PUBLIC        Analiza_card_mount_rf
  C:AFA6H         PUBLIC        _Armar_Trama_Placa
  C:89ECH         PUBLIC        _rta_cmd_transporte
  C:BE28H         PUBLIC        Captura_Expulsa
  C:67F1H         PUBLIC        _Armar_Trama_Monitor
  C:6BC8H         PUBLIC        Secuencia_inicio_expedidor
  C:86A0H         PUBLIC        _Analiza_Uid_Card
  B:0080H.0       PUBLIC        rx_ip
  C:7858H         PUBLIC        _Bloque_Horario
  B:0080H.3       PUBLIC        Atascado_GP0_PIN_3
  B:0090H.7       PUBLIC        lock
  C:99EEH         PUBLIC        _Armar_Trama_Tarjeta_Sector1_Bloque1_Camcel
  C:9C6CH         PUBLIC        _Responde_Lectura_Tarjeta_Sector1_Bloque0
  C:90D8H         PUBLIC        error_rx_pto
  C:5B1DH         PUBLIC        _Responde_Lectura_Tarjeta_Sector1_Bloque1
  C:6F79H         PUBLIC        _Responde_Lectura_Tarjeta_Sector1_Bloque2
  C:9BD0H         PUBLIC        _Respuesta_Placa_Cancel
  B:0090H.1       PUBLIC        DataIn
  C:9949H         PUBLIC        _Send_Pto_Paralelo
  C:B6AFH         PUBLIC        Trama_Validacion_P_N
  B:0022H.0       PUBLIC        MenSual
  C:831AH         PUBLIC        _Armar_Trama_Pto_Paralelo_Expedidor_Mensual
  C:763DH         PUBLIC        _Horarios
BL51 BANKED LINKER/LOCATER V6.22.2.0                                                  05/27/2021  15:12:49  PAGE 106


  C:96A3H         PUBLIC        _Hora_Maxima
  C:669AH         PUBLIC        _Responde_ReeLectura_Tarjeta_Sector1_Bloque2
  C:35ACH         PUBLIC        _SecuenciaExpedidorMF
  C:B421H         PUBLIC        _Pregunta_Lpr
  C:953AH         PUBLIC        _Wait_Placa
  C:AB0EH         PUBLIC        Responde_Estado_Sensores_Transporte
  C:A1ACH         PUBLIC        Entrega_Card_Captura
  C:AF49H         PUBLIC        _Respuesta_Segunda_clave
  X:0142H         SYMBOL        Estado
  C:B939H         PUBLIC        _Responde_Write_Tarjeta_Sector1_Bloque0
  C:B903H         PUBLIC        _Responde_Write_Tarjeta_Sector1_Bloque1
  C:B308H         PUBLIC        _Responde_Write_Tarjeta_Sector2_Bloque0
  C:ACE1H         PUBLIC        _Responde_Write_Tarjeta_Sector1_Bloque2
  C:AC01H         PUBLIC        _En_Horario
  C:AB8AH         PUBLIC        Responde_Tipo_Tarjeta
  C:B9D7H         PUBLIC        _Tarjeta_Rotacion
  -------         PROC          CAPTURA_EXPULSA
  -------         DO            
  D:0007H         SYMBOL        Estado_expedidor
  -------         ENDDO         
  C:BE28H         LINE#         540
  C:BE28H         LINE#         541
  C:BE28H         LINE#         545
  C:BE2BH         LINE#         546
  C:BE2BH         LINE#         547
  C:BE2DH         LINE#         548
  C:BE2EH         LINE#         550
  C:BE2EH         LINE#         552
  C:BE30H         LINE#         553
  C:BE30H         LINE#         556
  C:BE30H         LINE#         557
  -------         ENDPROC       CAPTURA_EXPULSA
  -------         PROC          TRAMA_VALIDACION_P_N
  -------         DO            
  D:0007H         SYMBOL        Trama_Validacion_P_N
  -------         ENDDO         
  C:B6AFH         LINE#         568
  C:B6AFH         LINE#         569
  C:B6AFH         LINE#         570
  C:B6B1H         LINE#         572
  C:B6C7H         LINE#         573
  C:B6C7H         LINE#         574
  C:B6CAH         LINE#         575
  C:B6CAH         LINE#         576
  C:B6CCH         LINE#         579
  C:B6D4H         LINE#         580
  C:B6D4H         LINE#         582
  C:B6D6H         LINE#         584
  C:B6D7H         LINE#         585
  C:B6DBH         LINE#         586
  C:B6DBH         LINE#         588
  C:B6DDH         LINE#         590
  C:B6DEH         LINE#         592
  C:B6DEH         LINE#         593
  C:B6E7H         LINE#         594
  C:B6E9H         LINE#         596
  C:B6E9H         LINE#         597
BL51 BANKED LINKER/LOCATER V6.22.2.0                                                  05/27/2021  15:12:49  PAGE 107


  C:B6EAH         LINE#         599
  C:B6EAH         LINE#         601
  C:B6ECH         LINE#         603
  C:B6ECH         LINE#         605
  C:B6ECH         LINE#         607
  C:B6ECH         LINE#         608
  -------         ENDPROC       TRAMA_VALIDACION_P_N
  -------         PROC          ERROR_RX_PTO
  -------         DO            
  X:00B7H         SYMBOL        cnt_espera_ask_on
  X:0007H         SYMBOL        error_rx_pto
  -------         ENDDO         
  C:90D8H         LINE#         632
  C:90D8H         LINE#         633
  C:90D8H         LINE#         636
  C:90DEH         LINE#         640
  C:90E7H         LINE#         641
  C:90EFH         LINE#         642
  C:90F8H         LINE#         643
  C:9100H         LINE#         644
  C:9109H         LINE#         645
  C:910CH         LINE#         647
  C:910CH         LINE#         648
  C:9112H         LINE#         649
  C:911CH         LINE#         650
  C:911CH         LINE#         651
  C:9125H         LINE#         652
  C:9127H         LINE#         653
  C:912EH         LINE#         654
  C:9133H         LINE#         655
  C:9139H         LINE#         656
  C:913EH         LINE#         657
  C:9140H         LINE#         658
  C:9147H         LINE#         659
  C:914DH         LINE#         660
  C:914DH         LINE#         662
  C:914DH         LINE#         663
  C:9152H         LINE#         664
  C:9152H         LINE#         665
  C:9152H         LINE#         666
  C:9154H         LINE#         668
  C:9154H         LINE#         669
  C:9162H         LINE#         670
  C:9175H         LINE#         671
  C:9175H         LINE#         672
  C:9176H         LINE#         674
  C:917CH         LINE#         675
  C:9180H         LINE#         676
  C:9182H         LINE#         677
  C:9182H         LINE#         678
  C:9184H         LINE#         680
  C:9184H         LINE#         681
  C:9185H         LINE#         682
  C:918AH         LINE#         683
  C:9190H         LINE#         684
  C:9190H         LINE#         685
  C:9190H         LINE#         686
BL51 BANKED LINKER/LOCATER V6.22.2.0                                                  05/27/2021  15:12:49  PAGE 108


  C:9195H         LINE#         687
  -------         ENDPROC       ERROR_RX_PTO
  -------         PROC          _RTA_CMD_TRANSPORTE
  X:0002H         SYMBOL        secuencia_Expedidor
  -------         DO            
  X:0005H         SYMBOL        temp
  X:0006H         SYMBOL        EstadoComSeqMF
  -------         ENDDO         
  C:89ECH         LINE#         703
  C:89F7H         LINE#         704
  C:89F7H         LINE#         710
  C:8A04H         LINE#         711
  C:8A04H         LINE#         712
  C:8A0CH         LINE#         713
  C:8A0CH         LINE#         714
  C:8A1AH         LINE#         715
  C:8A1DH         LINE#         716
  C:8A23H         LINE#         717
  C:8A23H         LINE#         718
  C:8A2CH         LINE#         719
  C:8A40H         LINE#         720
  C:8A51H         LINE#         722
  C:8A53H         LINE#         724
  C:8A53H         LINE#         727
  C:8A6BH         LINE#         728
  C:8A6BH         LINE#         729
  C:8A76H         LINE#         730
  C:8A78H         LINE#         732
  C:8A78H         LINE#         733
  C:8A86H         LINE#         734
  C:8A86H         LINE#         735
  C:8A86H         LINE#         736
  C:8A88H         LINE#         738
  C:8A88H         LINE#         740
  C:8A9CH         LINE#         741
  C:8AB1H         LINE#         742
  C:8AB1H         LINE#         743
  C:8AB6H         LINE#         744
  -------         ENDPROC       _RTA_CMD_TRANSPORTE
  -------         PROC          ANALIZA_PRESENCIA_MENSUAL
  -------         DO            
  X:0002H         SYMBOL        Estado_expedidor
  -------         ENDDO         
  C:BB55H         LINE#         748
  C:BB55H         LINE#         749
  C:BB55H         LINE#         753
  C:BB5BH         LINE#         754
  C:BB5BH         LINE#         755
  C:BB5DH         LINE#         756
  C:BB63H         LINE#         757
  C:BB65H         LINE#         759
  C:BB65H         LINE#         761
  C:BB6AH         LINE#         762
  C:BB6FH         LINE#         763
  C:BB75H         LINE#         764
  C:BB75H         LINE#         765
  C:BB7AH         LINE#         766
BL51 BANKED LINKER/LOCATER V6.22.2.0                                                  05/27/2021  15:12:49  PAGE 109


  -------         ENDPROC       ANALIZA_PRESENCIA_MENSUAL
  -------         PROC          ANALIZA_CARD_MOUNT_RF
  -------         DO            
  X:0002H         SYMBOL        Estado_expedidor
  -------         ENDDO         
  C:B891H         LINE#         770
  C:B891H         LINE#         771
  C:B891H         LINE#         773
  C:B897H         LINE#         774
  C:B89EH         LINE#         775
  C:B89EH         LINE#         777
  C:B8A7H         LINE#         779
  C:B8ADH         LINE#         780
  C:B8AFH         LINE#         781
  C:B8B6H         LINE#         783
  C:B8B6H         LINE#         784
  C:B8BFH         LINE#         785
  C:B8C5H         LINE#         786
  C:B8C5H         LINE#         789
  C:B8CAH         LINE#         790
  -------         ENDPROC       ANALIZA_CARD_MOUNT_RF
  -------         PROC          ANALIZA_PRESENCIA_ROTACION
  -------         DO            
  X:0002H         SYMBOL        Estado_expedidor
  -------         ENDDO         
  C:BBA1H         LINE#         794
  C:BBA1H         LINE#         795
  C:BBA1H         LINE#         797
  C:BBA7H         LINE#         798
  C:BBA7H         LINE#         800
  C:BBADH         LINE#         801
  C:BBAFH         LINE#         803
  C:BBAFH         LINE#         805
  C:BBB4H         LINE#         806
  C:BBB9H         LINE#         807
  C:BBBEH         LINE#         809
  C:BBBEH         LINE#         810
  C:BBC3H         LINE#         811
  -------         ENDPROC       ANALIZA_PRESENCIA_ROTACION
  -------         PROC          _ANALIZA_UID_CARD
  X:0002H         SYMBOL        Atributos_Expedidor
  -------         DO            
  X:0005H         SYMBOL        Estado_expedidor
  D:0007H         SYMBOL        temp
  X:0006H         SYMBOL        buffer_UID
  -------         ENDDO         
  C:86A0H         LINE#         815
  C:86ABH         LINE#         816
  C:86ABH         LINE#         820
  C:86BBH         LINE#         821
  C:86BBH         LINE#         823
  C:86C7H         LINE#         824
  C:86C7H         LINE#         825
  C:86DFH         LINE#         827
  C:86E2H         LINE#         829
  C:86EBH         LINE#         830
  C:86FCH         LINE#         833
BL51 BANKED LINKER/LOCATER V6.22.2.0                                                  05/27/2021  15:12:49  PAGE 110


  C:8705H         LINE#         834
  C:870DH         LINE#         835
  C:8715H         LINE#         836
  C:871DH         LINE#         837
  C:8725H         LINE#         838
  C:872EH         LINE#         840
  C:8745H         LINE#         841
  C:874FH         LINE#         842
  C:8759H         LINE#         843
  C:8763H         LINE#         844
  C:8769H         LINE#         845
  C:876BH         LINE#         847
  C:876BH         LINE#         848
  C:8771H         LINE#         849
  C:8771H         LINE#         850
  C:8776H         LINE#         851
  -------         ENDPROC       _ANALIZA_UID_CARD
  -------         PROC          INGRESO_VEHICULO
  -------         DO            
  D:0007H         SYMBOL        CardAutomatic
  X:00B9H         SYMBOL        pulseboton
  -------         ENDDO         
  C:AD4DH         LINE#         855
  C:AD4DH         LINE#         856
  C:AD4DH         LINE#         861
  C:AD53H         LINE#         862
  C:AD53H         LINE#         863
  C:AD5CH         LINE#         865
  C:AD61H         LINE#         866
  C:AD61H         LINE#         867
  C:AD6AH         LINE#         869
  C:AD6AH         LINE#         870
  C:AD6CH         LINE#         872
  C:AD6CH         LINE#         874
  C:AD79H         LINE#         875
  C:AD7EH         LINE#         876
  C:AD83H         LINE#         877
  C:AD85H         LINE#         879
  C:AD85H         LINE#         880
  C:AD8BH         LINE#         883
  C:AD8BH         LINE#         884
  C:AD8EH         LINE#         885
  C:AD91H         LINE#         886
  C:AD91H         LINE#         887
  C:AD93H         LINE#         888
  C:AD98H         LINE#         889
  C:AD9EH         LINE#         890
  C:ADA0H         LINE#         892
  C:ADA0H         LINE#         893
  C:ADA5H         LINE#         894
  C:ADABH         LINE#         895
  C:ADABH         LINE#         898
  C:ADABH         LINE#         899
  C:ADADH         LINE#         901
  C:ADADH         LINE#         903
  C:ADB2H         LINE#         904
  C:ADB2H         LINE#         905
BL51 BANKED LINKER/LOCATER V6.22.2.0                                                  05/27/2021  15:12:49  PAGE 111


  C:ADB7H         LINE#         906
  -------         ENDPROC       INGRESO_VEHICULO
  -------         PROC          RESPONDE_ESTADO_SENSORES_TRANSPORTE
  -------         DO            
  X:0002H         SYMBOL        Estado_expedidor
  -------         ENDDO         
  C:AB0EH         LINE#         913
  C:AB0EH         LINE#         914
  C:AB0EH         LINE#         917
  C:AB17H         LINE#         919
  C:AB1FH         LINE#         920
  C:AB1FH         LINE#         922
  C:AB2AH         LINE#         923
  C:AB2AH         LINE#         924
  C:AB2EH         LINE#         925
  C:AB2EH         LINE#         926
  C:AB37H         LINE#         927
  C:AB3CH         LINE#         929
  C:AB3CH         LINE#         930
  C:AB3EH         LINE#         932
  C:AB3EH         LINE#         934
  C:AB46H         LINE#         936
  C:AB46H         LINE#         937
  C:AB48H         LINE#         939
  C:AB48H         LINE#         941
  C:AB51H         LINE#         943
  C:AB56H         LINE#         946
  C:AB56H         LINE#         947
  C:AB56H         LINE#         948
  C:AB58H         LINE#         949
  C:AB5FH         LINE#         950
  C:AB5FH         LINE#         952
  C:AB65H         LINE#         954
  C:AB65H         LINE#         955
  C:AB67H         LINE#         956
  C:AB6EH         LINE#         958
  C:AB6EH         LINE#         959
  C:AB77H         LINE#         960
  C:AB7DH         LINE#         961
  C:AB7FH         LINE#         963
  C:AB7FH         LINE#         964
  C:AB84H         LINE#         965
  C:AB84H         LINE#         966
  C:AB89H         LINE#         967
  -------         ENDPROC       RESPONDE_ESTADO_SENSORES_TRANSPORTE
  -------         PROC          RESPONDE_TIPO_TARJETA
  -------         DO            
  X:0002H         SYMBOL        Estado_expedidor
  -------         ENDDO         
  C:AB8AH         LINE#         983
  C:AB8AH         LINE#         984
  C:AB8AH         LINE#         987
  C:AB93H         LINE#         989
  C:AB9BH         LINE#         990
  C:AB9BH         LINE#         991
  C:ABA6H         LINE#         992
  C:ABA6H         LINE#         993
BL51 BANKED LINKER/LOCATER V6.22.2.0                                                  05/27/2021  15:12:49  PAGE 112


  C:ABAFH         LINE#         994
  C:ABB5H         LINE#         995
  C:ABB5H         LINE#         996
  C:ABB8H         LINE#         997
  C:ABBAH         LINE#         999
  C:ABBAH         LINE#         1000
  C:ABBDH         LINE#         1001
  C:ABBDH         LINE#         1002
  C:ABBFH         LINE#         1004
  C:ABBFH         LINE#         1005
  C:ABC6H         LINE#         1006
  C:ABC6H         LINE#         1008
  C:ABCCH         LINE#         1010
  C:ABCCH         LINE#         1011
  C:ABCCH         LINE#         1013
  C:ABCCH         LINE#         1015
  C:ABCEH         LINE#         1017
  C:ABCEH         LINE#         1018
  C:ABCEH         LINE#         1019
  C:ABCEH         LINE#         1020
  C:ABCEH         LINE#         1021
  C:ABCEH         LINE#         1022
  C:ABD0H         LINE#         1024
  C:ABD0H         LINE#         1025
  C:ABD7H         LINE#         1026
  C:ABD7H         LINE#         1029
  C:ABE0H         LINE#         1031
  C:ABE5H         LINE#         1032
  C:ABEAH         LINE#         1034
  C:ABF2H         LINE#         1037
  C:ABF4H         LINE#         1039
  C:ABF4H         LINE#         1040
  C:ABF6H         LINE#         1041
  C:ABFBH         LINE#         1042
  C:ABFBH         LINE#         1043
  C:ABFBH         LINE#         1045
  C:AC00H         LINE#         1046
  -------         ENDPROC       RESPONDE_TIPO_TARJETA
  -------         PROC          _RESPONDE_LECTURA_TARJETA_SECTOR1_BLOQUE1
  X:0002H         SYMBOL        Atributos_Expedidor
  -------         DO            
  D:0007H         SYMBOL        temp
  X:0005H         SYMBOL        Estado_expedidor
  X:0006H         SYMBOL        buffer_S1_B1
  X:0017H         SYMBOL        ID_CLIENTE
  D:0007H         SYMBOL        COD_PARK
  X:00BAH         SYMBOL        falla
  -------         ENDDO         
  C:5B1DH         LINE#         1058
  C:5B28H         LINE#         1059
  C:5B28H         LINE#         1066
  C:5B31H         LINE#         1070
  C:5B41H         LINE#         1071
  C:5B41H         LINE#         1073
  C:5B4DH         LINE#         1074
  C:5B4DH         LINE#         1075
  C:5B65H         LINE#         1077
BL51 BANKED LINKER/LOCATER V6.22.2.0                                                  05/27/2021  15:12:49  PAGE 113


  C:5B68H         LINE#         1080
  C:5B71H         LINE#         1081
  C:5B82H         LINE#         1082
  C:5B8FH         LINE#         1083
  C:5B98H         LINE#         1086
  C:5BB7H         LINE#         1087
  C:5BB7H         LINE#         1089
  C:5BC0H         LINE#         1090
  C:5BC8H         LINE#         1091
  C:5BD1H         LINE#         1093
  C:5BDAH         LINE#         1094
  C:5BE2H         LINE#         1095
  C:5BEBH         LINE#         1097
  C:5BF4H         LINE#         1098
  C:5BFCH         LINE#         1099
  C:5C05H         LINE#         1101
  C:5C0EH         LINE#         1102
  C:5C16H         LINE#         1103
  C:5C1FH         LINE#         1105
  C:5C28H         LINE#         1106
  C:5C30H         LINE#         1107
  C:5C39H         LINE#         1109
  C:5C50H         LINE#         1111
  C:5C5AH         LINE#         1112
  C:5C64H         LINE#         1113
  C:5C6EH         LINE#         1115
  C:5C73H         LINE#         1116
  C:5C86H         LINE#         1117
  C:5C8BH         LINE#         1118
  C:5C91H         LINE#         1120
  C:5C93H         LINE#         1122
  C:5C93H         LINE#         1123
  C:5C98H         LINE#         1124
  C:5CA1H         LINE#         1125
  C:5CA6H         LINE#         1126
  C:5CA8H         LINE#         1127
  C:5CA8H         LINE#         1128
  C:5CA8H         LINE#         1129
  C:5CAAH         LINE#         1131
  C:5CAAH         LINE#         1133
  C:5CB2H         LINE#         1134
  C:5CB2H         LINE#         1135
  C:5CB8H         LINE#         1136
  C:5CB8H         LINE#         1137
  C:5CC5H         LINE#         1139
  C:5CC5H         LINE#         1140
  C:5CCEH         LINE#         1141
  C:5CD4H         LINE#         1143
  C:5CD6H         LINE#         1145
  C:5CD6H         LINE#         1146
  C:5CDBH         LINE#         1147
  C:5CE4H         LINE#         1148
  C:5CE9H         LINE#         1149
  C:5CEEH         LINE#         1150
  C:5CF6H         LINE#         1151
  C:5CF6H         LINE#         1152
  C:5CF6H         LINE#         1154
BL51 BANKED LINKER/LOCATER V6.22.2.0                                                  05/27/2021  15:12:49  PAGE 114


  C:5CFBH         LINE#         1155
  -------         ENDPROC       _RESPONDE_LECTURA_TARJETA_SECTOR1_BLOQUE1
  -------         PROC          _RESPONDE_LECTURA_TARJETA_SECTOR1_BLOQUE2
  X:0002H         SYMBOL        Atributos_Expedidor
  -------         DO            
  D:0007H         SYMBOL        temp
  X:0005H         SYMBOL        Estado_expedidor
  X:0006H         SYMBOL        buffer_S1_B2
  -------         ENDDO         
  C:6F79H         LINE#         1160
  C:6F84H         LINE#         1161
  C:6F84H         LINE#         1167
  C:6F8DH         LINE#         1171
  C:6F9DH         LINE#         1172
  C:6F9DH         LINE#         1174
  C:6FA9H         LINE#         1175
  C:6FA9H         LINE#         1176
  C:6FC1H         LINE#         1177
  C:6FC4H         LINE#         1178
  C:6FCDH         LINE#         1179
  C:6FDEH         LINE#         1183
  C:6FE7H         LINE#         1184
  C:6FF4H         LINE#         1185
  C:7010H         LINE#         1186
  C:7019H         LINE#         1188
  C:7022H         LINE#         1190
  C:703EH         LINE#         1191
  C:7048H         LINE#         1192
  C:7051H         LINE#         1195
  C:705AH         LINE#         1196
  C:7062H         LINE#         1197
  C:706BH         LINE#         1201
  C:7082H         LINE#         1204
  C:708EH         LINE#         1205
  C:7094H         LINE#         1208
  C:7096H         LINE#         1210
  C:7096H         LINE#         1211
  C:709EH         LINE#         1212
  C:709EH         LINE#         1213
  C:70A3H         LINE#         1214
  -------         ENDPROC       _RESPONDE_LECTURA_TARJETA_SECTOR1_BLOQUE2
  -------         PROC          _RESPONDE_LECTURA_TARJETA_SECTOR1_BLOQUE0
  X:0002H         SYMBOL        Nombre_Mensual
  -------         DO            
  D:0007H         SYMBOL        temp
  X:0005H         SYMBOL        Estado_expedidor
  -------         ENDDO         
  C:9C6CH         LINE#         1216
  C:9C77H         LINE#         1217
  C:9C77H         LINE#         1223
  C:9C80H         LINE#         1227
  C:9C8DH         LINE#         1228
  C:9C8DH         LINE#         1230
  C:9C99H         LINE#         1231
  C:9C99H         LINE#         1232
  C:9CB9H         LINE#         1233
  C:9CBCH         LINE#         1234
BL51 BANKED LINKER/LOCATER V6.22.2.0                                                  05/27/2021  15:12:49  PAGE 115


  C:9CD0H         LINE#         1235
  C:9CD9H         LINE#         1236
  C:9CE7H         LINE#         1237
  C:9CF0H         LINE#         1238
  C:9CF6H         LINE#         1241
  C:9CF8H         LINE#         1243
  C:9CF8H         LINE#         1244
  C:9D00H         LINE#         1245
  C:9D00H         LINE#         1246
  C:9D05H         LINE#         1247
  -------         ENDPROC       _RESPONDE_LECTURA_TARJETA_SECTOR1_BLOQUE0
  -------         PROC          _RESPONDE_REELECTURA_TARJETA_SECTOR1_BLOQUE2
  X:0002H         SYMBOL        lectura_anterior
  X:0005H         SYMBOL        Atributos_Expedidor
  -------         DO            
  D:0007H         SYMBOL        temp
  X:0008H         SYMBOL        Estado_expedidor
  X:0009H         SYMBOL        reelectura
  X:00BBH         SYMBOL        error_lectura
  -------         ENDDO         
  C:669AH         LINE#         1248
  C:66A5H         LINE#         1249
  C:66A5H         LINE#         1255
  C:66AEH         LINE#         1258
  C:66BEH         LINE#         1259
  C:66BEH         LINE#         1261
  C:66CAH         LINE#         1262
  C:66CAH         LINE#         1263
  C:66EAH         LINE#         1264
  C:66EDH         LINE#         1265
  C:6701H         LINE#         1266
  C:670AH         LINE#         1267
  C:6720H         LINE#         1268
  C:6729H         LINE#         1270
  C:674DH         LINE#         1271
  C:674DH         LINE#         1272
  C:6751H         LINE#         1273
  C:675AH         LINE#         1274
  C:6763H         LINE#         1275
  C:6773H         LINE#         1276
  C:6785H         LINE#         1277
  C:6793H         LINE#         1278
  C:6793H         LINE#         1279
  C:6795H         LINE#         1281
  C:6795H         LINE#         1282
  C:679BH         LINE#         1283
  C:67ABH         LINE#         1284
  C:67ABH         LINE#         1285
  C:67AEH         LINE#         1286
  C:67B4H         LINE#         1288
  C:67B6H         LINE#         1290
  C:67B6H         LINE#         1291
  C:67B9H         LINE#         1292
  C:67C2H         LINE#         1293
  C:67D2H         LINE#         1294
  C:67E5H         LINE#         1295
  C:67EBH         LINE#         1297
BL51 BANKED LINKER/LOCATER V6.22.2.0                                                  05/27/2021  15:12:49  PAGE 116


  C:67EBH         LINE#         1298
  C:67EBH         LINE#         1300
  C:67EBH         LINE#         1301
  C:67F0H         LINE#         1302
  -------         ENDPROC       _RESPONDE_REELECTURA_TARJETA_SECTOR1_BLOQUE2
  -------         PROC          _RESPONDE_WRITE_TARJETA_SECTOR1_BLOQUE1
  X:0002H         SYMBOL        Buffer_Write_MF
  -------         DO            
  D:0007H         SYMBOL        Estado_expedidor
  -------         ENDDO         
  C:B903H         LINE#         1303
  C:B90EH         LINE#         1304
  C:B90EH         LINE#         1306
  C:B917H         LINE#         1307
  C:B920H         LINE#         1308
  C:B936H         LINE#         1309
  C:B938H         LINE#         1310
  C:B938H         LINE#         1311
  -------         ENDPROC       _RESPONDE_WRITE_TARJETA_SECTOR1_BLOQUE1
  -------         PROC          _RESPONDE_WRITE_TARJETA_SECTOR1_BLOQUE2
  X:0002H         SYMBOL        Atributos_Expedidor
  X:0005H         SYMBOL        Buffer_Write_MF
  -------         DO            
  X:0008H         SYMBOL        Estado_expedidor
  -------         ENDDO         
  C:ACE1H         LINE#         1312
  C:ACECH         LINE#         1313
  C:ACECH         LINE#         1315
  C:ACF5H         LINE#         1316
  C:ACFEH         LINE#         1317
  C:AD14H         LINE#         1318
  C:AD17H         LINE#         1319
  C:AD17H         LINE#         1320
  C:AD1DH         LINE#         1326
  C:AD1FH         LINE#         1328
  C:AD1FH         LINE#         1329
  C:AD2FH         LINE#         1330
  C:AD41H         LINE#         1331
  C:AD47H         LINE#         1333
  C:AD47H         LINE#         1334
  C:AD4CH         LINE#         1335
  -------         ENDPROC       _RESPONDE_WRITE_TARJETA_SECTOR1_BLOQUE2
  -------         PROC          _RESPONDE_WRITE_TARJETA_SECTOR1_BLOQUE0
  X:0002H         SYMBOL        Buffer_Write_MF
  C:B939H         LINE#         1338
  C:B944H         LINE#         1339
  C:B944H         LINE#         1341
  C:B94DH         LINE#         1342
  C:B956H         LINE#         1343
  C:B96CH         LINE#         1345
  C:B96EH         LINE#         1346
  -------         ENDPROC       _RESPONDE_WRITE_TARJETA_SECTOR1_BLOQUE0
  -------         PROC          _RESPONDE_WRITE_TARJETA_SECTOR2_BLOQUE0
  X:0002H         SYMBOL        Buffer_Write_MF
  C:B308H         LINE#         1349
  C:B313H         LINE#         1350
  C:B313H         LINE#         1352
BL51 BANKED LINKER/LOCATER V6.22.2.0                                                  05/27/2021  15:12:49  PAGE 117


  C:B31CH         LINE#         1353
  C:B325H         LINE#         1354
  C:B32EH         LINE#         1355
  C:B337H         LINE#         1356
  C:B34CH         LINE#         1357
  C:B34EH         LINE#         1358
  -------         ENDPROC       _RESPONDE_WRITE_TARJETA_SECTOR2_BLOQUE0
  -------         PROC          _PREGUNTA_LPR
  X:0002H         SYMBOL        Atributos_Expedidor
  -------         DO            
  D:0007H         SYMBOL        Estado_expedidor
  -------         ENDDO         
  C:B421H         LINE#         1362
  C:B42CH         LINE#         1363
  C:B42CH         LINE#         1365
  C:B435H         LINE#         1366
  C:B443H         LINE#         1367
  C:B443H         LINE#         1369
  C:B454H         LINE#         1370
  C:B460H         LINE#         1371
  C:B460H         LINE#         1372
  C:B464H         LINE#         1373
  C:B464H         LINE#         1374
  C:B464H         LINE#         1377
  C:B466H         LINE#         1379
  C:B466H         LINE#         1380
  -------         ENDPROC       _PREGUNTA_LPR
  -------         PROC          PREGUNTA_PLACA
  -------         DO            
  X:0002H         SYMBOL        Estado_expedidor
  -------         ENDDO         
  C:BA08H         LINE#         1381
  C:BA08H         LINE#         1382
  C:BA08H         LINE#         1384
  C:BA11H         LINE#         1385
  C:BA20H         LINE#         1386
  C:BA20H         LINE#         1388
  C:BA23H         LINE#         1389
  C:BA28H         LINE#         1390
  C:BA2DH         LINE#         1391
  C:BA2FH         LINE#         1393
  C:BA2FH         LINE#         1394
  C:BA32H         LINE#         1395
  C:BA32H         LINE#         1396
  C:BA37H         LINE#         1397
  -------         ENDPROC       PREGUNTA_PLACA
  -------         PROC          _RESPUESTA_SEGUNDA_CLAVE
  X:0002H         SYMBOL        Atributos_Expedidor
  X:0005H         SYMBOL        Buffer_Write_MF
  C:AF49H         LINE#         1398
  C:AF54H         LINE#         1399
  C:AF54H         LINE#         1401
  C:AF5DH         LINE#         1402
  C:AF73H         LINE#         1405
  C:AF83H         LINE#         1406
  C:AF95H         LINE#         1407
  C:AFA3H         LINE#         1409
BL51 BANKED LINKER/LOCATER V6.22.2.0                                                  05/27/2021  15:12:49  PAGE 118


  C:AFA5H         LINE#         1410
  -------         ENDPROC       _RESPUESTA_SEGUNDA_CLAVE
  -------         PROC          _RESPUESTA_PLACA_CANCEL
  X:0009H         SYMBOL        Atributos_Expedidor
  X:000CH         SYMBOL        Buffer_Write_MF
  -------         DO            
  X:000FH         SYMBOL        Estado_expedidor
  X:0010H         SYMBOL        Cancel
  -------         ENDDO         
  C:9BD0H         LINE#         1411
  C:9BDBH         LINE#         1412
  C:9BDBH         LINE#         1414
  C:9BE9H         LINE#         1415
  C:9BF2H         LINE#         1416
  C:9BFBH         LINE#         1417
  C:9C04H         LINE#         1419
  C:9C1FH         LINE#         1420
  C:9C1FH         LINE#         1421
  C:9C2FH         LINE#         1422
  C:9C42H         LINE#         1423
  C:9C50H         LINE#         1424
  C:9C56H         LINE#         1425
  C:9C58H         LINE#         1427
  C:9C58H         LINE#         1428
  C:9C5EH         LINE#         1429
  C:9C5EH         LINE#         1430
  C:9C61H         LINE#         1431
  C:9C63H         LINE#         1433
  C:9C63H         LINE#         1435
  C:9C66H         LINE#         1436
  C:9C66H         LINE#         1437
  C:9C66H         LINE#         1438
  C:9C6BH         LINE#         1439
  -------         ENDPROC       _RESPUESTA_PLACA_CANCEL
  -------         PROC          _ARMAR_TRAMA_TARJETA_SECTOR1_BLOQUE1_CAMCEL
  X:0013H         SYMBOL        Buffer_Write_MF
  -------         DO            
  X:0016H         SYMBOL        ID_CLIENTE
  D:0007H         SYMBOL        COD_PARK
  -------         ENDDO         
  C:99EEH         LINE#         1442
  C:99F9H         LINE#         1443
  C:99F9H         LINE#         1447
  C:99FCH         LINE#         1448
  C:9A09H         LINE#         1449
  C:9A12H         LINE#         1451
  C:9A22H         LINE#         1452
  C:9A34H         LINE#         1453
  C:9A3BH         LINE#         1454
  C:9A45H         LINE#         1455
  C:9A4CH         LINE#         1456
  C:9A53H         LINE#         1457
  C:9A5AH         LINE#         1458
  C:9A61H         LINE#         1459
  C:9A68H         LINE#         1460
  C:9A6FH         LINE#         1461
  C:9A76H         LINE#         1462
BL51 BANKED LINKER/LOCATER V6.22.2.0                                                  05/27/2021  15:12:49  PAGE 119


  C:9A7DH         LINE#         1463
  C:9A84H         LINE#         1464
  C:9A8BH         LINE#         1465
  -------         ENDPROC       _ARMAR_TRAMA_TARJETA_SECTOR1_BLOQUE1_CAMCEL
  -------         PROC          _ARMAR_TRAMA_TARJETA_SECTOR1_BLOQUE2
  X:0010H         SYMBOL        Atributos_Expedidor
  X:0013H         SYMBOL        Buffer_Write_MF
  C:592AH         LINE#         1471
  C:5935H         LINE#         1472
  C:5935H         LINE#         1476
  C:5941H         LINE#         1477
  C:5962H         LINE#         1478
  C:5986H         LINE#         1479
  C:59AAH         LINE#         1480
  C:59CEH         LINE#         1481
  C:59F2H         LINE#         1485
  C:5A04H         LINE#         1486
  C:5A0BH         LINE#         1487
  C:5A12H         LINE#         1489
  C:5A27H         LINE#         1490
  C:5A27H         LINE#         1491
  C:5A3EH         LINE#         1492
  C:5A57H         LINE#         1493
  C:5A57H         LINE#         1494
  C:5A5AH         LINE#         1498
  C:5A5AH         LINE#         1500
  C:5A89H         LINE#         1501
  C:5AB8H         LINE#         1503
  C:5AD0H         LINE#         1504
  C:5AD0H         LINE#         1505
  C:5ADDH         LINE#         1506
  C:5ADFH         LINE#         1508
  C:5ADFH         LINE#         1509
  C:5AEFH         LINE#         1510
  C:5AEFH         LINE#         1511
  C:5AEFH         LINE#         1513
  C:5B01H         LINE#         1514
  C:5B08H         LINE#         1515
  C:5B0FH         LINE#         1516
  C:5B16H         LINE#         1517
  -------         ENDPROC       _ARMAR_TRAMA_TARJETA_SECTOR1_BLOQUE2
  -------         PROC          _ARMAR_TRAMA_TARJETA_SECTOR1_BLOQUE0
  X:000CH         SYMBOL        Buffer_Write_MF
  C:BAE0H         LINE#         1519
  C:BAEBH         LINE#         1520
  C:BAEBH         LINE#         1522
  -------         ENDPROC       _ARMAR_TRAMA_TARJETA_SECTOR1_BLOQUE0
  -------         PROC          _ARMAR_TRAMA_PTO_PARALELO_EXPEDIDOR
  X:0009H         SYMBOL        Atributos_Expedidor
  X:000CH         SYMBOL        h
  -------         DO            
  X:00BCH         SYMBOL        buffer
  X:000FH         SYMBOL        ticket
  X:001AH         SYMBOL        j
  -------         ENDDO         
  C:4EC8H         LINE#         1524
  C:4ED3H         LINE#         1525
BL51 BANKED LINKER/LOCATER V6.22.2.0                                                  05/27/2021  15:12:49  PAGE 120


  C:4ED3H         LINE#         1532
  C:4ED9H         LINE#         1533
  C:4EDDH         LINE#         1534
  C:4EE0H         LINE#         1535
  C:4EECH         LINE#         1536
  C:4F03H         LINE#         1537
  C:4F11H         LINE#         1539
  C:4F22H         LINE#         1540
  C:4F35H         LINE#         1541
  C:4F43H         LINE#         1544
  C:4F65H         LINE#         1545
  C:4F78H         LINE#         1546
  C:4F8BH         LINE#         1547
  C:4F9EH         LINE#         1548
  C:4FB1H         LINE#         1549
  C:4FBDH         LINE#         1550
  C:4FCBH         LINE#         1553
  C:4FDAH         LINE#         1554
  C:4FE8H         LINE#         1555
  C:4FF6H         LINE#         1556
  C:5004H         LINE#         1557
  C:5012H         LINE#         1558
  C:501FH         LINE#         1560
  C:502EH         LINE#         1561
  C:502EH         LINE#         1562
  C:5031H         LINE#         1563
  C:5031H         LINE#         1564
  C:5045H         LINE#         1565
  C:5054H         LINE#         1566
  C:5063H         LINE#         1567
  C:5072H         LINE#         1568
  C:5081H         LINE#         1569
  C:5090H         LINE#         1570
  C:5098H         LINE#         1571
  C:509AH         LINE#         1573
  C:509AH         LINE#         1574
  C:50ABH         LINE#         1575
  C:50B3H         LINE#         1576
  C:50B3H         LINE#         1577
  C:50B5H         LINE#         1579
  C:50B5H         LINE#         1580
  C:50C6H         LINE#         1581
  C:50D2H         LINE#         1582
  C:50D2H         LINE#         1583
  C:50E0H         LINE#         1584
  C:50EEH         LINE#         1585
  C:5100H         LINE#         1587
  C:5106H         LINE#         1588
  -------         ENDPROC       _ARMAR_TRAMA_PTO_PARALELO_EXPEDIDOR
  -------         PROC          _ARMAR_TRAMA_PTO_PARALELO_EXPEDIDOR_MENSUAL
  X:0009H         SYMBOL        Atributos_Expedidor
  X:000CH         SYMBOL        j
  -------         DO            
  X:00D8H         SYMBOL        buffer
  -------         ENDDO         
  C:831AH         LINE#         1589
  C:8325H         LINE#         1590
BL51 BANKED LINKER/LOCATER V6.22.2.0                                                  05/27/2021  15:12:49  PAGE 121


  C:8325H         LINE#         1596
  C:832BH         LINE#         1597
  C:832FH         LINE#         1598
  C:8344H         LINE#         1599
  C:834EH         LINE#         1600
  C:8358H         LINE#         1601
  C:8362H         LINE#         1605
  C:836EH         LINE#         1606
  C:837AH         LINE#         1607
  C:8386H         LINE#         1608
  C:8392H         LINE#         1609
  C:839EH         LINE#         1620
  C:83AAH         LINE#         1621
  C:83AAH         LINE#         1623
  C:83B1H         LINE#         1624
  C:83B5H         LINE#         1625
  C:83B9H         LINE#         1626
  C:83BDH         LINE#         1627
  C:83C1H         LINE#         1628
  C:83C5H         LINE#         1630
  C:83C5H         LINE#         1632
  C:83DBH         LINE#         1633
  C:83DBH         LINE#         1634
  C:83DEH         LINE#         1635
  C:83E0H         LINE#         1637
  C:83E0H         LINE#         1638
  C:83E3H         LINE#         1639
  C:83E3H         LINE#         1641
  C:83E9H         LINE#         1642
  C:83ECH         LINE#         1643
  C:83FCH         LINE#         1644
  C:8402H         LINE#         1645
  -------         ENDPROC       _ARMAR_TRAMA_PTO_PARALELO_EXPEDIDOR_MENSUAL
  -------         PROC          _ARMAR_TRAMA_MONITOR
  X:0005H         SYMBOL        Atributos_Expedidor
  -------         DO            
  X:00F4H         SYMBOL        buffer
  X:0008H         SYMBOL        ticket
  X:0013H         SYMBOL        j
  -------         ENDDO         
  C:67F1H         LINE#         1646
  C:67FCH         LINE#         1647
  C:67FCH         LINE#         1653
  C:6801H         LINE#         1654
  C:6807H         LINE#         1655
  C:680FH         LINE#         1656
  C:6813H         LINE#         1657
  C:681CH         LINE#         1658
  C:681CH         LINE#         1659
  C:681FH         LINE#         1660
  C:6821H         LINE#         1662
  C:6821H         LINE#         1663
  C:6824H         LINE#         1664
  C:6824H         LINE#         1667
  C:6827H         LINE#         1668
  C:6827H         LINE#         1669
  C:682CH         LINE#         1670
BL51 BANKED LINKER/LOCATER V6.22.2.0                                                  05/27/2021  15:12:49  PAGE 122


  C:6838H         LINE#         1671
  C:684FH         LINE#         1672
  C:6852H         LINE#         1674
  C:6852H         LINE#         1675
  C:686DH         LINE#         1676
  C:687BH         LINE#         1677
  C:6889H         LINE#         1678
  C:6895H         LINE#         1679
  C:68A3H         LINE#         1680
  C:68DCH         LINE#         1682
  C:68DCH         LINE#         1683
  C:68EAH         LINE#         1684
  C:68F8H         LINE#         1687
  C:6905H         LINE#         1688
  C:6913H         LINE#         1690
  C:6921H         LINE#         1691
  C:692EH         LINE#         1692
  C:693AH         LINE#         1693
  C:693FH         LINE#         1694
  C:6944H         LINE#         1695
  -------         ENDPROC       _ARMAR_TRAMA_MONITOR
  -------         PROC          _ARMAR_TRAMA_PLACA
  X:0008H         SYMBOL        Buffer_Write_MF
  -------         DO            
  D:0006H         SYMBOL        j
  D:0007H         SYMBOL        len_placa
  -------         ENDDO         
  C:AFA6H         LINE#         1696
  C:AFB1H         LINE#         1697
  C:AFB1H         LINE#         1700
  C:AFBAH         LINE#         1701
  C:AFC1H         LINE#         1702
  C:AFC1H         LINE#         1703
  C:AFDBH         LINE#         1704
  C:AFDEH         LINE#         1705
  C:AFEAH         LINE#         1706
  C:AFEAH         LINE#         1707
  C:AFFEH         LINE#         1708
  C:B001H         LINE#         1709
  -------         ENDPROC       _ARMAR_TRAMA_PLACA
  C:B7A4H         SYMBOL        L?0402
  -------         PROC          L?0401
  -------         ENDPROC       L?0401
  C:B7A4H         SYMBOL        L?0402
  -------         PROC          _LOAD_SECUENCIA_EXPEDIDOR
  D:0001H         SYMBOL        Secuencia_Expedidor
  D:0004H         SYMBOL        estadoactivo
  X:0007H         SYMBOL        estadoactual
  X:0009H         SYMBOL        estadofuturo
  C:B7C0H         LINE#         1710
  C:B7C0H         LINE#         1711
  C:B7C0H         LINE#         1712
  C:B7C7H         LINE#         1713
  C:B7CFH         LINE#         1714
  C:B7DAH         LINE#         1715
  C:B7E0H         LINE#         1716
  -------         ENDPROC       _LOAD_SECUENCIA_EXPEDIDOR
BL51 BANKED LINKER/LOCATER V6.22.2.0                                                  05/27/2021  15:12:49  PAGE 123


  -------         PROC          _DISPARO_LOCK_ENTRADA_VEHICULO
  X:0002H         SYMBOL        Nombre_Mensual
  -------         DO            
  X:0005H         SYMBOL        Estado_expedidor
  X:010CH         SYMBOL        take_card
  -------         ENDDO         
  C:A11CH         LINE#         1717
  C:A127H         LINE#         1718
  C:A127H         LINE#         1723
  C:A130H         LINE#         1727
  C:A137H         LINE#         1728
  C:A137H         LINE#         1730
  C:A140H         LINE#         1732
  C:A146H         LINE#         1733
  C:A148H         LINE#         1734
  C:A14DH         LINE#         1735
  C:A15DH         LINE#         1736
  C:A163H         LINE#         1739
  C:A165H         LINE#         1740
  C:A16DH         LINE#         1741
  C:A16DH         LINE#         1742
  C:A173H         LINE#         1743
  C:A173H         LINE#         1744
  C:A180H         LINE#         1745
  C:A185H         LINE#         1746
  C:A18AH         LINE#         1747
  C:A18CH         LINE#         1749
  C:A18CH         LINE#         1750
  C:A192H         LINE#         1752
  C:A192H         LINE#         1754
  C:A198H         LINE#         1755
  C:A19EH         LINE#         1757
  C:A1A0H         LINE#         1759
  C:A1A0H         LINE#         1760
  C:A1A6H         LINE#         1761
  C:A1A6H         LINE#         1763
  C:A1A6H         LINE#         1768
  C:A1ABH         LINE#         1769
  -------         ENDPROC       _DISPARO_LOCK_ENTRADA_VEHICULO
  -------         PROC          _SEND_PTO_PARALELO
  X:0002H         SYMBOL        Atributos_Expedidor
  -------         DO            
  X:0005H         SYMBOL        Trama_Expedidor
  X:0008H         SYMBOL        leng_trama_pto
  -------         ENDDO         
  C:9949H         LINE#         1770
  C:9954H         LINE#         1771
  C:9954H         LINE#         1774
  C:9957H         LINE#         1775
  C:9957H         LINE#         1776
  C:997EH         LINE#         1777
  C:9980H         LINE#         1779
  C:9980H         LINE#         1780
  C:99A7H         LINE#         1781
  C:99AAH         LINE#         1782
  C:99AAH         LINE#         1784
  C:99BBH         LINE#         1785
BL51 BANKED LINKER/LOCATER V6.22.2.0                                                  05/27/2021  15:12:49  PAGE 124


  C:99C4H         LINE#         1786
  C:99DBH         LINE#         1790
  C:99DEH         LINE#         1791
  C:99E4H         LINE#         1792
  C:99E9H         LINE#         1793
  C:99EBH         LINE#         1794
  C:99EDH         LINE#         1795
  -------         ENDPROC       _SEND_PTO_PARALELO
  -------         PROC          ENTREGA_CARD_CAPTURA
  -------         DO            
  X:0002H         SYMBOL        Estado_expedidor
  -------         ENDDO         
  C:A1ACH         LINE#         1799
  C:A1ACH         LINE#         1800
  C:A1ACH         LINE#         1804
  C:A1B5H         LINE#         1805
  C:A1B8H         LINE#         1806
  C:A1BBH         LINE#         1807
  C:A1BBH         LINE#         1808
  C:A1C5H         LINE#         1809
  C:A1C5H         LINE#         1810
  C:A1C7H         LINE#         1811
  C:A1C9H         LINE#         1812
  C:A1D2H         LINE#         1813
  C:A1D2H         LINE#         1814
  C:A1D2H         LINE#         1816
  C:A1D4H         LINE#         1818
  C:A1D4H         LINE#         1819
  C:A1DAH         LINE#         1820
  C:A1DAH         LINE#         1822
  C:A1E0H         LINE#         1824
  C:A1F3H         LINE#         1825
  C:A1F3H         LINE#         1826
  C:A200H         LINE#         1827
  C:A200H         LINE#         1828
  C:A202H         LINE#         1829
  C:A20BH         LINE#         1831
  C:A20DH         LINE#         1832
  C:A20DH         LINE#         1833
  C:A20FH         LINE#         1834
  C:A21CH         LINE#         1835
  C:A21CH         LINE#         1836
  C:A222H         LINE#         1837
  C:A222H         LINE#         1838
  C:A222H         LINE#         1840
  C:A224H         LINE#         1842
  C:A224H         LINE#         1843
  C:A226H         LINE#         1844
  C:A22FH         LINE#         1845
  C:A231H         LINE#         1846
  C:A236H         LINE#         1847
  C:A236H         LINE#         1848
  C:A236H         LINE#         1850
  C:A23BH         LINE#         1851
  -------         ENDPROC       ENTREGA_CARD_CAPTURA
  -------         PROC          _WAIT_PLACA
  X:0002H         SYMBOL        Atributos_Expedidor
BL51 BANKED LINKER/LOCATER V6.22.2.0                                                  05/27/2021  15:12:49  PAGE 125


  X:0005H         SYMBOL        Buffer_Write_MF
  -------         DO            
  X:0008H         SYMBOL        Estado_expedidor
  -------         ENDDO         
  C:953AH         LINE#         1852
  C:9545H         LINE#         1853
  C:9545H         LINE#         1856
  C:954EH         LINE#         1858
  C:9564H         LINE#         1859
  C:9564H         LINE#         1860
  C:9567H         LINE#         1861
  C:9567H         LINE#         1863
  C:956AH         LINE#         1864
  C:956AH         LINE#         1865
  C:956CH         LINE#         1867
  C:956FH         LINE#         1868
  C:956FH         LINE#         1869
  C:9597H         LINE#         1870
  C:9599H         LINE#         1873
  C:9599H         LINE#         1874
  C:959FH         LINE#         1875
  C:95B2H         LINE#         1876
  C:95B2H         LINE#         1877
  C:95BFH         LINE#         1878
  C:95BFH         LINE#         1879
  C:95CEH         LINE#         1880
  C:95D4H         LINE#         1881
  C:95D6H         LINE#         1882
  C:95E3H         LINE#         1883
  C:95E3H         LINE#         1884
  C:95E9H         LINE#         1885
  C:95E9H         LINE#         1886
  C:95E9H         LINE#         1887
  C:95E9H         LINE#         1888
  C:95EEH         LINE#         1889
  -------         ENDPROC       _WAIT_PLACA
  -------         PROC          _VALIDA_VEHICULO_CARD_MENSUAL
  X:0010H         SYMBOL        Atributos_Expedidor
  -------         DO            
  X:0013H         SYMBOL        Estado_expedidor
  -------         ENDDO         
  C:9ED2H         LINE#         1890
  C:9EDDH         LINE#         1891
  C:9EDDH         LINE#         1894
  C:9EE6H         LINE#         1895
  C:9EFBH         LINE#         1896
  C:9EFBH         LINE#         1897
  C:9EFFH         LINE#         1898
  C:9F01H         LINE#         1900
  C:9F01H         LINE#         1901
  C:9F08H         LINE#         1902
  C:9F08H         LINE#         1904
  C:9F11H         LINE#         1905
  C:9F1FH         LINE#         1906
  C:9F1FH         LINE#         1907
  C:9F38H         LINE#         1908
  C:9F38H         LINE#         1909
BL51 BANKED LINKER/LOCATER V6.22.2.0                                                  05/27/2021  15:12:49  PAGE 126


  C:9F3EH         LINE#         1910
  C:9F3EH         LINE#         1911
  C:9F40H         LINE#         1914
  C:9F40H         LINE#         1915
  C:9F45H         LINE#         1916
  C:9F4EH         LINE#         1917
  C:9F53H         LINE#         1918
  C:9F53H         LINE#         1919
  C:9F55H         LINE#         1921
  C:9F55H         LINE#         1922
  C:9F5EH         LINE#         1923
  C:9F64H         LINE#         1924
  C:9F64H         LINE#         1925
  C:9F69H         LINE#         1926
  -------         ENDPROC       _VALIDA_VEHICULO_CARD_MENSUAL
  -------         PROC          _TARJETA_MENSUAL
  X:0009H         SYMBOL        Atributos_Expedidor
  X:000CH         SYMBOL        Buffer_Write_MF
  -------         DO            
  X:000FH         SYMBOL        Estado_expedidor
  -------         ENDDO         
  C:8D0FH         LINE#         1927
  C:8D1AH         LINE#         1928
  C:8D1AH         LINE#         1933
  C:8D25H         LINE#         1934
  C:8D25H         LINE#         1935
  C:8D43H         LINE#         1936
  C:8D43H         LINE#         1938
  C:8D54H         LINE#         1939
  C:8D54H         LINE#         1940
  C:8D5CH         LINE#         1941
  C:8D5EH         LINE#         1943
  C:8D5EH         LINE#         1944
  C:8D67H         LINE#         1945
  C:8D77H         LINE#         1946
  C:8D8AH         LINE#         1947
  C:8DAAH         LINE#         1948
  C:8DB0H         LINE#         1949
  C:8DB0H         LINE#         1950
  C:8DB2H         LINE#         1952
  C:8DB2H         LINE#         1953
  C:8DB7H         LINE#         1955
  C:8DBCH         LINE#         1956
  C:8DC5H         LINE#         1957
  C:8DC5H         LINE#         1958
  C:8DC5H         LINE#         1959
  C:8DC7H         LINE#         1961
  C:8DC7H         LINE#         1963
  C:8DCDH         LINE#         1964
  C:8DCDH         LINE#         1965
  C:8DD2H         LINE#         1966
  -------         ENDPROC       _TARJETA_MENSUAL
  -------         PROC          _TARJETA_ROTACION
  D:0001H         SYMBOL        Atributos_Expedidor
  X:000CH         SYMBOL        Buffer_Write_MF
  C:B9D7H         LINE#         1967
  C:B9D7H         LINE#         1968
BL51 BANKED LINKER/LOCATER V6.22.2.0                                                  05/27/2021  15:12:49  PAGE 127


  C:B9D7H         LINE#         1969
  C:B9DCH         LINE#         1970
  C:B9E5H         LINE#         1971
  C:BA05H         LINE#         1972
  C:BA07H         LINE#         1975
  -------         ENDPROC       _TARJETA_ROTACION
  -------         PROC          _VALIDA_TIPO_TARJETA
  X:0002H         SYMBOL        Atributos_Expedidor
  X:0005H         SYMBOL        Buffer_Write_MF
  -------         DO            
  X:0008H         SYMBOL        Estado_expedidor
  -------         ENDDO         
  C:607EH         LINE#         1976
  C:6089H         LINE#         1977
  C:6089H         LINE#         1979
  C:6096H         LINE#         1980
  C:6096H         LINE#         1981
  C:609FH         LINE#         1982
  C:60A5H         LINE#         1983
  C:60A5H         LINE#         1987
  C:60B3H         LINE#         1988
  C:60B3H         LINE#         1991
  C:60D0H         LINE#         1992
  C:60D0H         LINE#         1993
  C:60EDH         LINE#         1995
  C:60EFH         LINE#         1997
  C:60EFH         LINE#         1998
  C:60F8H         LINE#         1999
  C:60FAH         LINE#         2000
  C:60FAH         LINE#         2001
  C:60FAH         LINE#         2002
  C:60FDH         LINE#         2005
  C:60FDH         LINE#         2006
  C:6106H         LINE#         2008
  C:6129H         LINE#         2009
  C:6129H         LINE#         2010
  C:612CH         LINE#         2012
  C:612CH         LINE#         2013
  C:6131H         LINE#         2014
  C:6136H         LINE#         2015
  C:6139H         LINE#         2016
  C:6139H         LINE#         2017
  C:613CH         LINE#         2018
  C:6154H         LINE#         2019
  C:6154H         LINE#         2021
  C:615DH         LINE#         2022
  C:6163H         LINE#         2023
  C:6163H         LINE#         2024
  C:616FH         LINE#         2025
  C:616FH         LINE#         2026
  C:618CH         LINE#         2028
  C:618CH         LINE#         2029
  C:61ACH         LINE#         2030
  C:61AEH         LINE#         2032
  C:61AEH         LINE#         2033
  C:61B7H         LINE#         2034
  C:61BCH         LINE#         2035
BL51 BANKED LINKER/LOCATER V6.22.2.0                                                  05/27/2021  15:12:49  PAGE 128


  C:61C1H         LINE#         2036
  C:61C4H         LINE#         2037
  C:61C4H         LINE#         2038
  C:61C6H         LINE#         2040
  C:61C6H         LINE#         2041
  C:61CFH         LINE#         2042
  C:61F2H         LINE#         2043
  C:61F2H         LINE#         2044
  C:61F4H         LINE#         2046
  C:61F4H         LINE#         2048
  C:61F9H         LINE#         2049
  C:61FEH         LINE#         2050
  C:6204H         LINE#         2051
  C:6204H         LINE#         2052
  C:6206H         LINE#         2054
  C:6206H         LINE#         2055
  C:620FH         LINE#         2056
  C:6214H         LINE#         2058
  C:621CH         LINE#         2059
  C:621CH         LINE#         2061
  C:6221H         LINE#         2062
  -------         ENDPROC       _VALIDA_TIPO_TARJETA
  -------         PROC          _HORARIOS
  X:0010H         SYMBOL        Atributos_Expedidor
  -------         DO            
  X:0013H         SYMBOL        Estado_Horario
  X:0014H         SYMBOL        Addr_horarios
  X:001FH         SYMBOL        dia_semana
  X:0020H         SYMBOL        EE_dia_semana
  X:0021H         SYMBOL        addr
  -------         ENDDO         
  C:763DH         LINE#         2156
  C:7648H         LINE#         2157
  C:7648H         LINE#         2163
  C:7653H         LINE#         2164
  C:7653H         LINE#         2166
  C:765FH         LINE#         2168
  C:7685H         LINE#         2172
  C:7698H         LINE#         2173
  C:7698H         LINE#         2175
  C:76A2H         LINE#         2176
  C:76ABH         LINE#         2177
  C:76B3H         LINE#         2178
  C:76BCH         LINE#         2181
  C:76E1H         LINE#         2182
  C:76EAH         LINE#         2183
  C:76F2H         LINE#         2184
  C:76FBH         LINE#         2186
  C:7705H         LINE#         2187
  C:7705H         LINE#         2189
  C:7713H         LINE#         2190
  C:7715H         LINE#         2192
  C:7715H         LINE#         2194
  C:771EH         LINE#         2195
  C:7723H         LINE#         2196
  C:7723H         LINE#         2197
  C:7725H         LINE#         2199
BL51 BANKED LINKER/LOCATER V6.22.2.0                                                  05/27/2021  15:12:49  PAGE 129


  C:7725H         LINE#         2201
  C:772AH         LINE#         2202
  C:772FH         LINE#         2203
  C:7735H         LINE#         2205
  C:7735H         LINE#         2207
  C:7737H         LINE#         2209
  C:7737H         LINE#         2210
  C:773DH         LINE#         2212
  C:7746H         LINE#         2213
  C:7746H         LINE#         2214
  C:774BH         LINE#         2215
  -------         ENDPROC       _HORARIOS
  -------         PROC          _HORA_MAXIMA
  X:002FH         SYMBOL        addr
  -------         DO            
  X:0031H         SYMBOL        Hora_High
  X:0032H         SYMBOL        Minuto_High
  X:0033H         SYMBOL        HoraIni
  X:0034H         SYMBOL        MinutoIni
  X:0035H         SYMBOL        Hora_Prog
  -------         ENDDO         
  C:96A3H         LINE#         2216
  C:96ABH         LINE#         2217
  C:96ABH         LINE#         2222
  C:96C0H         LINE#         2223
  C:96E0H         LINE#         2224
  C:96FDH         LINE#         2225
  C:971DH         LINE#         2226
  C:9725H         LINE#         2227
  C:972DH         LINE#         2228
  C:9736H         LINE#         2230
  C:974EH         LINE#         2231
  -------         ENDPROC       _HORA_MAXIMA
  -------         PROC          _EN_HORARIO
  X:002AH         SYMBOL        HoraNow
  D:0004H         SYMBOL        Hora_Prog
  X:002CH         SYMBOL        addr
  -------         DO            
  X:002EH         SYMBOL        Estado_Horario
  -------         ENDDO         
  C:AC01H         LINE#         2232
  C:AC0FH         LINE#         2233
  C:AC0FH         LINE#         2236
  C:AC1CH         LINE#         2237
  C:AC1CH         LINE#         2240
  C:AC25H         LINE#         2241
  C:AC3AH         LINE#         2244
  C:AC49H         LINE#         2245
  C:AC49H         LINE#         2247
  C:AC50H         LINE#         2248
  C:AC56H         LINE#         2249
  C:AC58H         LINE#         2251
  C:AC58H         LINE#         2254
  C:AC5CH         LINE#         2255
  C:AC5CH         LINE#         2256
  C:AC5CH         LINE#         2258
  C:AC5EH         LINE#         2260
BL51 BANKED LINKER/LOCATER V6.22.2.0                                                  05/27/2021  15:12:49  PAGE 130


  C:AC5EH         LINE#         2263
  C:AC67H         LINE#         2264
  C:AC6CH         LINE#         2266
  C:AC6CH         LINE#         2267
  C:AC71H         LINE#         2268
  -------         ENDPROC       _EN_HORARIO
  -------         PROC          _BLOQUE_HORARIO
  X:0023H         SYMBOL        addr
  -------         DO            
  X:0025H         SYMBOL        Estado_Horario
  X:0026H         SYMBOL        HoraNow
  X:0028H         SYMBOL        Hora_Prog
  -------         ENDDO         
  C:7858H         LINE#         2270
  C:7860H         LINE#         2271
  C:7860H         LINE#         2277
  C:7869H         LINE#         2278
  C:7871H         LINE#         2279
  C:7879H         LINE#         2280
  C:7882H         LINE#         2281
  C:78B0H         LINE#         2286
  C:78B9H         LINE#         2287
  C:78CEH         LINE#         2288
  C:78E6H         LINE#         2289
  C:78E8H         LINE#         2290
  C:78E8H         LINE#         2293
  C:7900H         LINE#         2294
  C:7900H         LINE#         2295
  C:7909H         LINE#         2296
  C:7924H         LINE#         2297
  C:7942H         LINE#         2298
  C:7944H         LINE#         2300
  C:7944H         LINE#         2301
  C:7949H         LINE#         2302
  C:794EH         LINE#         2303
  C:7953H         LINE#         2304
  C:7953H         LINE#         2305
  C:7953H         LINE#         2307
  C:795AH         LINE#         2308
  -------         ENDPROC       _BLOQUE_HORARIO
  -------         PROC          SECUENCIA_INICIO_EXPEDIDOR
  -------         DO            
  X:0001H         SYMBOL        temp
  -------         ENDDO         
  C:6BC8H         LINE#         2317
  C:6BC8H         LINE#         2318
  C:6BC8H         LINE#         2320
  C:6BE8H         LINE#         2321
  C:6BE8H         LINE#         2322
  C:6BE8H         LINE#         2325
  C:6BEDH         LINE#         2326
  C:6BF3H         LINE#         2329
  C:6BF5H         LINE#         2330
  C:6BF5H         LINE#         2341
  C:6BF5H         LINE#         2343
  C:6C03H         LINE#         2344
  C:6C03H         LINE#         2345
BL51 BANKED LINKER/LOCATER V6.22.2.0                                                  05/27/2021  15:12:49  PAGE 131


  C:6C0FH         LINE#         2346
  C:6C0FH         LINE#         2347
  C:6C15H         LINE#         2348
  C:6C18H         LINE#         2349
  C:6C20H         LINE#         2350
  C:6C20H         LINE#         2351
  C:6C27H         LINE#         2352
  C:6C3BH         LINE#         2353
  C:6C3BH         LINE#         2354
  C:6C3DH         LINE#         2356
  C:6C3DH         LINE#         2357
  C:6C44H         LINE#         2358
  C:6C4AH         LINE#         2359
  C:6C4AH         LINE#         2360
  C:6C4DH         LINE#         2362
  C:6C4DH         LINE#         2363
  C:6C56H         LINE#         2364
  C:6C6AH         LINE#         2365
  C:6C70H         LINE#         2366
  C:6C70H         LINE#         2367
  C:6C73H         LINE#         2368
  C:6C73H         LINE#         2374
  C:6C73H         LINE#         2376
  C:6C76H         LINE#         2377
  C:6C7CH         LINE#         2381
  C:6C7EH         LINE#         2382
  C:6C7EH         LINE#         2392
  C:6C7EH         LINE#         2394
  C:6C8CH         LINE#         2395
  C:6C8CH         LINE#         2396
  C:6C98H         LINE#         2397
  C:6C98H         LINE#         2398
  C:6C9EH         LINE#         2399
  C:6CA0H         LINE#         2400
  C:6CA8H         LINE#         2401
  C:6CA8H         LINE#         2402
  C:6CAFH         LINE#         2403
  C:6CC3H         LINE#         2404
  C:6CC3H         LINE#         2405
  C:6CC5H         LINE#         2407
  C:6CC5H         LINE#         2408
  C:6CCCH         LINE#         2409
  C:6CD2H         LINE#         2410
  C:6CD2H         LINE#         2411
  C:6CD4H         LINE#         2413
  C:6CD4H         LINE#         2414
  C:6CDDH         LINE#         2415
  C:6CF1H         LINE#         2416
  C:6CF6H         LINE#         2417
  C:6CF6H         LINE#         2419
  C:6CF8H         LINE#         2420
  C:6CF8H         LINE#         2426
  C:6CF8H         LINE#         2428
  C:6CFEH         LINE#         2429
  C:6CFEH         LINE#         2432
  C:6CFEH         LINE#         2433
  C:6D05H         LINE#         2434
BL51 BANKED LINKER/LOCATER V6.22.2.0                                                  05/27/2021  15:12:49  PAGE 132


  C:6D05H         LINE#         2435
  C:6D05H         LINE#         2436
  -------         ENDPROC       SECUENCIA_INICIO_EXPEDIDOR
  -------         PROC          _SECUENCIAEXPEDIDORMF
  X:0001H         SYMBOL        EstadoActivo
  -------         DO            
  X:010DH         SYMBOL        Buffer_Write_MF
  X:011EH         SYMBOL        Atributos_Expedidor
  X:012DH         SYMBOL        Secuencia_Expedidor
  X:0131H         SYMBOL        Nombre_Mensual
  -------         ENDDO         
  C:35ACH         LINE#         2446
  C:35B1H         LINE#         2447
  C:35B1H         LINE#         2453
  C:3614H         LINE#         2454
  C:3614H         LINE#         2457
  C:3614H         LINE#         2459
  C:3624H         LINE#         2460
  C:3624H         LINE#         2463
  C:3626H         LINE#         2464
  C:3628H         LINE#         2465
  C:362DH         LINE#         2466
  C:3635H         LINE#         2467
  C:363AH         LINE#         2468
  C:363DH         LINE#         2469
  C:363DH         LINE#         2470
  C:3643H         LINE#         2471
  C:3643H         LINE#         2472
  C:3646H         LINE#         2473
  C:3646H         LINE#         2474
  C:3646H         LINE#         2476
  C:3649H         LINE#         2477
  C:3649H         LINE#         2479
  C:3652H         LINE#         2480
  C:3655H         LINE#         2481
  C:3655H         LINE#         2482
  C:365AH         LINE#         2483
  C:367AH         LINE#         2484
  C:367DH         LINE#         2485
  C:367DH         LINE#         2486
  C:3682H         LINE#         2487
  C:368AH         LINE#         2488
  C:3690H         LINE#         2489
  C:3693H         LINE#         2490
  C:3693H         LINE#         2491
  C:3696H         LINE#         2492
  C:369EH         LINE#         2493
  C:36A4H         LINE#         2494
  C:36A7H         LINE#         2495
  C:36A7H         LINE#         2496
  C:36AAH         LINE#         2497
  C:36CFH         LINE#         2498
  C:36D5H         LINE#         2499
  C:36D7H         LINE#         2500
  C:36DAH         LINE#         2501
  C:36DAH         LINE#         2502
  C:36E5H         LINE#         2503
BL51 BANKED LINKER/LOCATER V6.22.2.0                                                  05/27/2021  15:12:49  PAGE 133


  C:36EDH         LINE#         2504
  C:36F3H         LINE#         2505
  C:36F6H         LINE#         2506
  C:36F6H         LINE#         2507
  C:3707H         LINE#         2508
  C:370FH         LINE#         2509
  C:3715H         LINE#         2510
  C:3718H         LINE#         2511
  C:3718H         LINE#         2512
  C:371DH         LINE#         2513
  C:373BH         LINE#         2514
  C:373EH         LINE#         2515
  C:373EH         LINE#         2516
  C:3743H         LINE#         2517
  C:3763H         LINE#         2518
  C:3766H         LINE#         2519
  C:3766H         LINE#         2520
  C:376BH         LINE#         2521
  C:376DH         LINE#         2522
  C:378BH         LINE#         2523
  C:378EH         LINE#         2524
  C:378EH         LINE#         2525
  C:3793H         LINE#         2526
  C:37B3H         LINE#         2527
  C:37B6H         LINE#         2528
  C:37B6H         LINE#         2529
  C:37C9H         LINE#         2530
  C:37C9H         LINE#         2531
  C:37CEH         LINE#         2532
  C:37D6H         LINE#         2533
  C:37DCH         LINE#         2534
  C:37DCH         LINE#         2535
  C:37DFH         LINE#         2536
  C:37DFH         LINE#         2537
  C:37F2H         LINE#         2538
  C:37F2H         LINE#         2539
  C:37F7H         LINE#         2540
  C:37FAH         LINE#         2541
  C:37FAH         LINE#         2542
  C:37FDH         LINE#         2543
  C:37FDH         LINE#         2544
  C:3800H         LINE#         2545
  C:3820H         LINE#         2546
  C:3823H         LINE#         2547
  C:3823H         LINE#         2548
  C:3825H         LINE#         2549
  C:3828H         LINE#         2550
  C:382BH         LINE#         2551
  C:382BH         LINE#         2552
  C:3834H         LINE#         2553
  C:3837H         LINE#         2554
  C:3837H         LINE#         2555
  C:384EH         LINE#         2556
  C:3851H         LINE#         2557
  C:3851H         LINE#         2558
  C:3854H         LINE#         2559
  C:385CH         LINE#         2560
BL51 BANKED LINKER/LOCATER V6.22.2.0                                                  05/27/2021  15:12:49  PAGE 134


  C:3862H         LINE#         2561
  C:3865H         LINE#         2562
  C:3865H         LINE#         2563
  C:386EH         LINE#         2564
  C:3871H         LINE#         2565
  C:3871H         LINE#         2566
  C:3873H         LINE#         2567
  C:3876H         LINE#         2568
  C:3879H         LINE#         2569
  C:3879H         LINE#         2570
  C:3890H         LINE#         2571
  C:3893H         LINE#         2572
  C:3893H         LINE#         2573
  C:3898H         LINE#         2574
  C:38A0H         LINE#         2575
  C:38A6H         LINE#         2576
  C:38A9H         LINE#         2577
  C:38A9H         LINE#         2578
  C:38ACH         LINE#         2579
  C:38CCH         LINE#         2580
  C:38CFH         LINE#         2581
  C:38CFH         LINE#         2582
  C:38D2H         LINE#         2583
  C:38F2H         LINE#         2584
  C:38F5H         LINE#         2585
  C:38F5H         LINE#         2586
  C:38F8H         LINE#         2587
  C:3900H         LINE#         2588
  C:3903H         LINE#         2589
  C:3905H         LINE#         2590
  C:3905H         LINE#         2592
  C:3910H         LINE#         2593
  C:3918H         LINE#         2594
  C:392CH         LINE#         2595
  C:392FH         LINE#         2599
  C:392FH         LINE#         2600
  C:3935H         LINE#         2601
  C:393BH         LINE#         2602
  C:393BH         LINE#         2603
  C:3943H         LINE#         2604
  C:3949H         LINE#         2606
  C:394CH         LINE#         2607
  C:3954H         LINE#         2608
  C:3954H         LINE#         2610
  C:3957H         LINE#         2611
  C:395AH         LINE#         2612
  C:3962H         LINE#         2613
  C:3962H         LINE#         2614
  C:3970H         LINE#         2615
  C:3970H         LINE#         2616
  C:3979H         LINE#         2617
  C:397CH         LINE#         2618
  C:3988H         LINE#         2619
  C:3988H         LINE#         2620
  C:3991H         LINE#         2621
  C:3994H         LINE#         2623
  C:3994H         LINE#         2624
BL51 BANKED LINKER/LOCATER V6.22.2.0                                                  05/27/2021  15:12:49  PAGE 135


  C:399DH         LINE#         2625
  C:399DH         LINE#         2626
  C:39A0H         LINE#         2627
  C:39A8H         LINE#         2628
  C:39A8H         LINE#         2629
  C:39B6H         LINE#         2630
  C:39B6H         LINE#         2631
  C:39CCH         LINE#         2632
  C:39CFH         LINE#         2633
  C:39DBH         LINE#         2634
  C:39DBH         LINE#         2635
  C:39E4H         LINE#         2636
  C:39E7H         LINE#         2637
  C:39F5H         LINE#         2638
  C:39F5H         LINE#         2639
  C:39FEH         LINE#         2640
  C:3A00H         LINE#         2642
  C:3A00H         LINE#         2643
  C:3A09H         LINE#         2644
  C:3A09H         LINE#         2645
  C:3A0BH         LINE#         2646
  C:3A13H         LINE#         2647
  C:3A13H         LINE#         2648
  C:3A1CH         LINE#         2649
  C:3A1EH         LINE#         2650
  C:3A26H         LINE#         2651
  C:3A26H         LINE#         2652
  C:3A3CH         LINE#         2653
  C:3A3EH         LINE#         2654
  C:3A46H         LINE#         2655
  C:3A46H         LINE#         2656
  C:3A49H         LINE#         2657
  C:3A4BH         LINE#         2659
  C:3A53H         LINE#         2660
  C:3A53H         LINE#         2661
  C:3A5CH         LINE#         2662
  C:3A5EH         LINE#         2665
  C:3A66H         LINE#         2666
  C:3A66H         LINE#         2667
  C:3A6EH         LINE#         2668
  C:3A70H         LINE#         2670
  C:3A70H         LINE#         2671
  C:3A79H         LINE#         2672
  C:3A79H         LINE#         2673
  C:3A7BH         LINE#         2674
  C:3A7BH         LINE#         2675
  C:3A80H         LINE#         2676
  C:3A80H         LINE#         2678
  C:3A80H         LINE#         2679
  C:3A85H         LINE#         2680
  -------         ENDPROC       _SECUENCIAEXPEDIDORMF
  -------         ENDMOD        VERIFICADOR

  -------         MODULE        MONITOR
  C:0000H         SYMBOL        _ICE_DUMMY_
  D:0080H         PUBLIC        P0
  D:0090H         PUBLIC        P1
BL51 BANKED LINKER/LOCATER V6.22.2.0                                                  05/27/2021  15:12:49  PAGE 136


  I:0011H         PUBLIC        placa
  C:BB7BH         PUBLIC        Rx_Monitor
  B:0080H.0       PUBLIC        rx_ip
  B:0090H.7       PUBLIC        lock
  C:8F58H         PUBLIC        _recibe_cmd_Monitor
  C:BCE0H         PUBLIC        clear_placa
  C:9310H         PUBLIC        _Valida_Trama_Monitor
  -------         PROC          _RECIBE_CMD_MONITOR
  X:0016H         SYMBOL        buffer_cmd
  -------         DO            
  X:0019H         SYMBOL        j
  X:001AH         SYMBOL        NumDatos
  X:001BH         SYMBOL        time_out
  X:001CH         SYMBOL        MaxChrRx
  X:001DH         SYMBOL        contador
  -------         ENDDO         
  C:8F58H         LINE#         50
  C:8F63H         LINE#         51
  C:8F63H         LINE#         55
  C:8F68H         LINE#         56
  C:8F6EH         LINE#         58
  C:8F79H         LINE#         59
  C:8F79H         LINE#         60
  C:8F8AH         LINE#         61
  C:8F8AH         LINE#         62
  C:8F91H         LINE#         63
  C:8F95H         LINE#         64
  C:8F9EH         LINE#         65
  C:8F9EH         LINE#         66
  C:8FACH         LINE#         67
  C:8FC3H         LINE#         68
  C:8FC3H         LINE#         69
  C:8FC9H         LINE#         70
  C:8FCFH         LINE#         71
  C:8FCFH         LINE#         72
  C:8FD1H         LINE#         73
  C:8FD9H         LINE#         74
  C:8FDFH         LINE#         75
  C:8FF1H         LINE#         76
  C:8FFBH         LINE#         77
  C:9004H         LINE#         79
  C:9013H         LINE#         82
  C:9013H         LINE#         83
  C:9018H         LINE#         84
  -------         ENDPROC       _RECIBE_CMD_MONITOR
  -------         PROC          _VALIDA_TRAMA_MONITOR
  X:0016H         SYMBOL        buffer
  D:0005H         SYMBOL        length_trama
  -------         DO            
  X:0019H         SYMBOL        j
  X:001AH         SYMBOL        p
  X:001BH         SYMBOL        cont
  -------         ENDDO         
  C:9310H         LINE#         89
  C:931BH         LINE#         90
  C:931BH         LINE#         91
  C:931EH         LINE#         92
BL51 BANKED LINKER/LOCATER V6.22.2.0                                                  05/27/2021  15:12:49  PAGE 137


  C:9322H         LINE#         93
  C:9325H         LINE#         94
  C:9327H         LINE#         97
  C:933BH         LINE#         98
  C:933BH         LINE#         100
  C:933DH         LINE#         102
  C:9344H         LINE#         103
  C:9349H         LINE#         106
  C:9349H         LINE#         108
  C:9364H         LINE#         109
  C:9364H         LINE#         112
  C:9364H         LINE#         113
  C:9385H         LINE#         114
  C:9389H         LINE#         115
  C:938FH         LINE#         116
  C:93A1H         LINE#         117
  C:93B9H         LINE#         118
  C:93C2H         LINE#         119
  C:93C4H         LINE#         120
  C:93CAH         LINE#         123
  C:93CAH         LINE#         126
  -------         ENDPROC       _VALIDA_TRAMA_MONITOR
  -------         PROC          CLEAR_PLACA
  -------         DO            
  D:0007H         SYMBOL        i
  -------         ENDDO         
  C:BCE0H         LINE#         127
  C:BCE0H         LINE#         128
  C:BCE0H         LINE#         130
  C:BCECH         LINE#         131
  C:BCECH         LINE#         132
  C:BCF2H         LINE#         133
  C:BCF5H         LINE#         134
  C:BCF7H         LINE#         135
  -------         ENDPROC       CLEAR_PLACA
  -------         PROC          RX_MONITOR
  -------         DO            
  X:0009H         SYMBOL        Length_trama
  X:000AH         SYMBOL        buffer1
  -------         ENDDO         
  C:BB7BH         LINE#         136
  C:BB7BH         LINE#         137
  C:BB7BH         LINE#         140
  C:BB8AH         LINE#         141
  C:BB93H         LINE#         142
  -------         ENDPROC       RX_MONITOR
  -------         ENDMOD        MONITOR

  -------         MODULE        ?C?FPADD
  C:1335H         PUBLIC        ?C?FPADD
  C:1331H         PUBLIC        ?C?FPSUB
  -------         ENDMOD        ?C?FPADD

  -------         MODULE        ?C?FPMUL
  C:1426H         PUBLIC        ?C?FPMUL
  -------         ENDMOD        ?C?FPMUL

BL51 BANKED LINKER/LOCATER V6.22.2.0                                                  05/27/2021  15:12:49  PAGE 138


  -------         MODULE        ?C?FCAST
  C:1536H         PUBLIC        ?C?FCASTC
  C:1531H         PUBLIC        ?C?FCASTI
  C:152CH         PUBLIC        ?C?FCASTL
  -------         ENDMOD        ?C?FCAST

  -------         MODULE        ?C?CASTF
  C:156AH         PUBLIC        ?C?CASTF
  -------         ENDMOD        ?C?CASTF

  -------         MODULE        PRINTF
  X:0077H         PUBLIC        ?_PRINTF?BYTE
  X:0077H         PUBLIC        ?_SPRINTF?BYTE
  C:3AF1H         PUBLIC        _PRINTF
  C:3AEBH         PUBLIC        _SPRINTF
  -------         ENDMOD        PRINTF

  -------         MODULE        POW
  X:0020H         PUBLIC        ?_pow?BYTE
  C:6534H         PUBLIC        _pow
  -------         ENDMOD        POW

  -------         MODULE        ?C?CHKFLOAT
  C:15EBH         PUBLIC        ?C?CHKFLOAT
  -------         ENDMOD        ?C?CHKFLOAT

  -------         MODULE        ?C?FPCMP
  C:1607H         PUBLIC        ?C?FPCMP
  C:1605H         PUBLIC        ?C?FPCMP3
  -------         ENDMOD        ?C?FPCMP

  -------         MODULE        ?C?FPNEG
  C:167EH         PUBLIC        ?C?FPNEG
  -------         ENDMOD        ?C?FPNEG

  -------         MODULE        ?C?FPROUND
  C:168FH         PUBLIC        ?C?FPROUND
  -------         ENDMOD        ?C?FPROUND

  -------         MODULE        ?C?FPCONVERT
  C:16CCH         PUBLIC        ?C?FPCONVERT
  -------         ENDMOD        ?C?FPCONVERT

  -------         MODULE        EXP
  C:9D3EH         PUBLIC        _EXP
  -------         ENDMOD        EXP

  -------         MODULE        LOG
  C:70D8H         PUBLIC        _LOG
  C:70D4H         PUBLIC        _LOG10
  -------         ENDMOD        LOG

  -------         MODULE        ?C?FPDIV
  C:17D4H         PUBLIC        ?C?FPDIV
  -------         ENDMOD        ?C?FPDIV

  -------         MODULE        ?C?FTNPWR
BL51 BANKED LINKER/LOCATER V6.22.2.0                                                  05/27/2021  15:12:49  PAGE 139


  C:18A1H         PUBLIC        ?C?FTNPWR
  -------         ENDMOD        ?C?FTNPWR

  -------         MODULE        ?C?COPY
  C:19FEH         PUBLIC        ?C?COPY
  -------         ENDMOD        ?C?COPY

  -------         MODULE        ?C?CLDPTR
  C:1A24H         PUBLIC        ?C?CLDPTR
  -------         ENDMOD        ?C?CLDPTR

  -------         MODULE        ?C?CLDOPTR
  C:1A3DH         PUBLIC        ?C?CLDOPTR
  -------         ENDMOD        ?C?CLDOPTR

  -------         MODULE        ?C?CSTPTR
  C:1A6AH         PUBLIC        ?C?CSTPTR
  -------         ENDMOD        ?C?CSTPTR

  -------         MODULE        ?C?CSTOPTR
  C:1A7CH         PUBLIC        ?C?CSTOPTR
  -------         ENDMOD        ?C?CSTOPTR

  -------         MODULE        ?C?IMUL
  C:1A9EH         PUBLIC        ?C?IMUL
  -------         ENDMOD        ?C?IMUL

  -------         MODULE        ?C?IILDX
  C:1AB0H         PUBLIC        ?C?IILDX
  -------         ENDMOD        ?C?IILDX

  -------         MODULE        ?C?LNEG
  C:1AC6H         PUBLIC        ?C?LNEG
  -------         ENDMOD        ?C?LNEG

  -------         MODULE        ?C?SLCMP
  C:1AD4H         PUBLIC        ?C?SLCMP
  -------         ENDMOD        ?C?SLCMP

  -------         MODULE        ?C?ULCMP
  C:1AEAH         PUBLIC        ?C?ULCMP
  -------         ENDMOD        ?C?ULCMP

  -------         MODULE        ?C?ULSHR
  C:1AFBH         PUBLIC        ?C?ULSHR
  -------         ENDMOD        ?C?ULSHR

  -------         MODULE        ?C?LSHL
  C:1B0EH         PUBLIC        ?C?LSHL
  -------         ENDMOD        ?C?LSHL

  -------         MODULE        ?C?LLDCODE
  C:1B21H         PUBLIC        ?C?LLDCODE
  -------         ENDMOD        ?C?LLDCODE

  -------         MODULE        ?C?LLDXDATA0
  C:1B31H         PUBLIC        ?C?LLDXDATA0
BL51 BANKED LINKER/LOCATER V6.22.2.0                                                  05/27/2021  15:12:49  PAGE 140


  -------         ENDMOD        ?C?LLDXDATA0

  -------         MODULE        ?C?LLDCODE0
  C:1B3DH         PUBLIC        ?C?LLDCODE0
  -------         ENDMOD        ?C?LLDCODE0

  -------         MODULE        ?C?LSTXDATA
  C:1B4DH         PUBLIC        ?C?LSTXDATA
  -------         ENDMOD        ?C?LSTXDATA

  -------         MODULE        ?C?LSTKXDATA
  C:1B59H         PUBLIC        ?C?LSTKXDATA
  -------         ENDMOD        ?C?LSTKXDATA

  -------         MODULE        ?C?PLDIXDATA
  C:1B8AH         PUBLIC        ?C?PLDIXDATA
  -------         ENDMOD        ?C?PLDIXDATA

  -------         MODULE        ?C?PSTXDATA
  C:1BA1H         PUBLIC        ?C?PSTXDATA
  -------         ENDMOD        ?C?PSTXDATA

  -------         MODULE        ?C?CCASE
  C:1BAAH         PUBLIC        ?C?CCASE
  -------         ENDMOD        ?C?CCASE

  -------         MODULE        STRCAT
  X:0046H         PUBLIC        ?_strcat?BYTE
  C:ADB8H         PUBLIC        _strcat
  -------         ENDMOD        STRCAT

  -------         MODULE        ?C?STRCMP
  C:1D4EH         PUBLIC        ?C?STRCMP
  -------         ENDMOD        ?C?STRCMP

  -------         MODULE        ?C?STRCPY
  C:1E37H         PUBLIC        ?C?STRCPY
  -------         ENDMOD        ?C?STRCPY

  -------         MODULE        STRLEN
  C:000EH         PUBLIC        _STRLEN
  -------         ENDMOD        STRLEN

  -------         MODULE        STRTOK
  X:0064H         PUBLIC        ?_strtok?BYTE
  C:8403H         PUBLIC        _strtok
  -------         ENDMOD        STRTOK

  -------         MODULE        ATOL
  C:774CH         PUBLIC        _atol
  -------         ENDMOD        ATOL

  -------         MODULE        ATOI
  C:85C5H         PUBLIC        _atoi
  -------         ENDMOD        ATOI

  -------         MODULE        ?C?ILDIX
BL51 BANKED LINKER/LOCATER V6.22.2.0                                                  05/27/2021  15:12:49  PAGE 141


  C:1E54H         PUBLIC        ?C?ILDIX
  -------         ENDMOD        ?C?ILDIX

  -------         MODULE        ?C?LMUL
  C:1E6AH         PUBLIC        ?C?LMUL
  -------         ENDMOD        ?C?LMUL

  -------         MODULE        ISDIGIT
  C:BDF0H         PUBLIC        _isdigit
  -------         ENDMOD        ISDIGIT

  -------         MODULE        ISSPACE
  C:BD50H         PUBLIC        _isspace
  -------         ENDMOD        ISSPACE

  -------         MODULE        STRSPN
  X:006AH         PUBLIC        ?_strspn?BYTE
  C:A70AH         PUBLIC        _strspn
  -------         ENDMOD        STRSPN

  -------         MODULE        STRPBRK
  X:006AH         PUBLIC        ?_strpbrk?BYTE
  C:A811H         PUBLIC        _strpbrk
  -------         ENDMOD        STRPBRK

Program Size: data=99.1 xdata=533 code=48770
LINK/LOCATE RUN COMPLETE.  0 WARNING(S),  0 ERROR(S)
