BL51 BANKED LINKER/LOCATER V6.22.2.0                                                    05/14/2021  10:23:20  PAGE 1


BL51 BANKED LINKER/LOCATER V6.22.2.0, INVOKED BY:
C:\KEIL_V5\C51\BIN\BL51.EXE .\Objects\main.obj, .\Objects\Accescan.obj, .\Objects\Clock.obj, .\Objects\delay.obj, .\Obje
>> cts\eeprom.obj, .\Objects\io_sensores.obj, .\Objects\pantallas.obj, .\Objects\prog.obj, .\Objects\pto_paralelo.obj, .
>> \Objects\tibbo.obj, .\Objects\uart.obj, .\Objects\lintech.obj, .\Objects\verificador.obj, .\Objects\Monitor.obj TO .\
>> Objects\expedidor_v_01_raspberry PRINT (.\Listings\expedidor_v_01_raspberry.m51) RAMSIZE (256)


MEMORY MODEL: LARGE WITH FLOATING POINT ARITHMETIC


INPUT MODULES INCLUDED:
  .\Objects\main.obj (MAIN)
  .\Objects\Accescan.obj (ACCESCAN)
  .\Objects\Clock.obj (CLOCK)
  .\Objects\delay.obj (DELAY)
  .\Objects\eeprom.obj (EEPROM)
  .\Objects\io_sensores.obj (IO_SENSORES)
  .\Objects\pantallas.obj (PANTALLAS)
  .\Objects\prog.obj (PROG)
  .\Objects\pto_paralelo.obj (PTO_PARALELO)
  .\Objects\tibbo.obj (TIBBO)
  .\Objects\uart.obj (UART)
  .\Objects\lintech.obj (LINTECH)
  .\Objects\verificador.obj (VERIFICADOR)
  .\Objects\Monitor.obj (MONITOR)
  C:\KEIL_V5\C51\LIB\C51FPL.LIB (?C?FPADD)
  C:\KEIL_V5\C51\LIB\C51FPL.LIB (?C?FPMUL)
  C:\KEIL_V5\C51\LIB\C51FPL.LIB (?C?FCAST)
  C:\KEIL_V5\C51\LIB\C51FPL.LIB (?C?CASTF)
  C:\KEIL_V5\C51\LIB\C51FPL.LIB (PRINTF)
  C:\KEIL_V5\C51\LIB\C51FPL.LIB (POW)
  C:\KEIL_V5\C51\LIB\C51FPL.LIB (?C?FPGETOPN)
  C:\KEIL_V5\C51\LIB\C51FPL.LIB (?C?CHKFLOAT)
  C:\KEIL_V5\C51\LIB\C51FPL.LIB (?C?FPCMP)
  C:\KEIL_V5\C51\LIB\C51FPL.LIB (?C?FPNEG)
  C:\KEIL_V5\C51\LIB\C51FPL.LIB (?C?FPROUND)
  C:\KEIL_V5\C51\LIB\C51FPL.LIB (?C?FPCONVERT)
  C:\KEIL_V5\C51\LIB\C51FPL.LIB (EXP)
  C:\KEIL_V5\C51\LIB\C51FPL.LIB (LOG)
  C:\KEIL_V5\C51\LIB\C51FPL.LIB (?C?FPDIV)
  C:\KEIL_V5\C51\LIB\C51FPL.LIB (?C?FTNPWR)
  C:\KEIL_V5\C51\LIB\C51FPL.LIB (?C?FPSERIES)
  C:\KEIL_V5\C51\LIB\C51L.LIB (?C_STARTUP)
  C:\KEIL_V5\C51\LIB\C51L.LIB (?C?COPY)
  C:\KEIL_V5\C51\LIB\C51L.LIB (?C?CLDPTR)
  C:\KEIL_V5\C51\LIB\C51L.LIB (?C?CLDOPTR)
  C:\KEIL_V5\C51\LIB\C51L.LIB (?C?CSTPTR)
  C:\KEIL_V5\C51\LIB\C51L.LIB (?C?CSTOPTR)
  C:\KEIL_V5\C51\LIB\C51L.LIB (?C?IMUL)
  C:\KEIL_V5\C51\LIB\C51L.LIB (?C?IILDX)
  C:\KEIL_V5\C51\LIB\C51L.LIB (?C?LNEG)
  C:\KEIL_V5\C51\LIB\C51L.LIB (?C?SLCMP)
  C:\KEIL_V5\C51\LIB\C51L.LIB (?C?ULCMP)
  C:\KEIL_V5\C51\LIB\C51L.LIB (?C?ULSHR)
  C:\KEIL_V5\C51\LIB\C51L.LIB (?C?LSHL)
  C:\KEIL_V5\C51\LIB\C51L.LIB (?C?LLDCODE)
  C:\KEIL_V5\C51\LIB\C51L.LIB (?C?LLDXDATA0)
  C:\KEIL_V5\C51\LIB\C51L.LIB (?C?LLDCODE0)
BL51 BANKED LINKER/LOCATER V6.22.2.0                                                  05/14/2021  10:23:20  PAGE 2


  C:\KEIL_V5\C51\LIB\C51L.LIB (?C?LSTXDATA)
  C:\KEIL_V5\C51\LIB\C51L.LIB (?C?LSTKXDATA)
  C:\KEIL_V5\C51\LIB\C51L.LIB (?C?PLDIXDATA)
  C:\KEIL_V5\C51\LIB\C51L.LIB (?C?PSTXDATA)
  C:\KEIL_V5\C51\LIB\C51L.LIB (?C?CCASE)
  C:\KEIL_V5\C51\LIB\C51L.LIB (STRCAT)
  C:\KEIL_V5\C51\LIB\C51L.LIB (?C?STRCMP)
  C:\KEIL_V5\C51\LIB\C51L.LIB (?C?STRCPY)
  C:\KEIL_V5\C51\LIB\C51L.LIB (STRLEN)
  C:\KEIL_V5\C51\LIB\C51L.LIB (STRTOK)
  C:\KEIL_V5\C51\LIB\C51L.LIB (ATOL)
  C:\KEIL_V5\C51\LIB\C51L.LIB (ATOI)
  C:\KEIL_V5\C51\LIB\C51L.LIB (?C_INIT)
  C:\KEIL_V5\C51\LIB\C51L.LIB (?C?ILDIX)
  C:\KEIL_V5\C51\LIB\C51L.LIB (?C?LMUL)
  C:\KEIL_V5\C51\LIB\C51L.LIB (ISDIGIT)
  C:\KEIL_V5\C51\LIB\C51L.LIB (ISSPACE)
  C:\KEIL_V5\C51\LIB\C51L.LIB (STRSPN)
  C:\KEIL_V5\C51\LIB\C51L.LIB (STRPBRK)


LINK MAP OF MODULE:  .\Objects\expedidor_v_01_raspberry (MAIN)


            TYPE    BASE      LENGTH    RELOCATION   SEGMENT NAME
            -----------------------------------------------------

            * * * * * * *   D A T A   M E M O R Y   * * * * * * *
            REG     0000H     0008H     ABSOLUTE     "REG BANK 0"
            DATA    0008H     0005H     UNIT         _DATA_GROUP_
            DATA    000DH     0004H     UNIT         ?DT?UART
            IDATA   0011H     0009H     UNIT         ?ID?MONITOR
                    001AH     0006H                  *** GAP ***
            BIT     0020H.0   0001H.1   UNIT         _BIT_GROUP_
            BIT     0021H.1   0000H.3   UNIT         ?BI?MAIN
            BIT     0021H.4   0000H.2   UNIT         ?BI?UART
            BIT     0021H.6   0000H.1   UNIT         ?BI?EEPROM
            BIT     0021H.7   0000H.1   UNIT         ?BI?IO_SENSORES
            BIT     0022H.0   0000H.1   UNIT         ?BI?VERIFICADOR
                    0022H.1   0000H.7                *** GAP ***
            IDATA   0023H     0046H     UNIT         ?ID?MAIN
            IDATA   0069H     0001H     UNIT         ?STACK

            * * * * * * *  X D A T A   M E M O R Y  * * * * * * *
            XDATA   0000H     00B7H     UNIT         _XDATA_GROUP_
            XDATA   00B7H     008BH     UNIT         ?XD?VERIFICADOR
            XDATA   0142H     006CH     UNIT         ?XD?MAIN
            XDATA   01AEH     0059H     UNIT         ?XD?PROG
            XDATA   0207H     0003H     UNIT         ?XD?EEPROM
            XDATA   020AH     0003H     UNIT         ?XD?UART
            XDATA   020DH     0003H     UNIT         ?XD?STRTOK
            XDATA   0210H     0002H     UNIT         ?XD?IO_SENSORES
            XDATA   0212H     0001H     UNIT         ?XD?ACCESCAN
            XDATA   0213H     0001H     UNIT         ?XD?CLOCK

            * * * * * * *   C O D E   M E M O R Y   * * * * * * *
            CODE    0000H     0003H     ABSOLUTE     
BL51 BANKED LINKER/LOCATER V6.22.2.0                                                  05/14/2021  10:23:20  PAGE 3


            CODE    0003H     0008H     UNIT         ?PR?P_CK?CLOCK
            CODE    000BH     0003H     ABSOLUTE     
            CODE    000EH     0015H     UNIT         ?PR?_STRLEN?STRLEN
            CODE    0023H     0003H     ABSOLUTE     
            CODE    0026H     1308H     UNIT         ?CO?PROG
            CODE    132EH     0B8BH     UNIT         ?C?LIB_CODE
            CODE    1EB9H     0834H     UNIT         ?CO?VERIFICADOR
            CODE    26EDH     0747H     UNIT         ?PR?_PANTALLALCD?PANTALLAS
            CODE    2E34H     06EFH     UNIT         ?CO?PANTALLAS
            CODE    3523H     04B6H     UNIT         ?PR?_SECUENCIAEXPEDIDORMF?VERIFICADOR
            CODE    39D9H     0483H     UNIT         ?PR?PRINTF?PRINTF
            CODE    3E5CH     0437H     UNIT         ?PR?_VALIDA_TRAMA_PTO?ACCESCAN
            CODE    4293H     035CH     UNIT         ?PR?VER_PROG?PROG
            CODE    45EFH     02D0H     UNIT         ?PR?_TWO_BYTEHEX_DECIMAL?CLOCK
            CODE    48BFH     02B7H     UNIT         ?PR?_PROG_HORARIO_DIAS?PROG
            CODE    4B76H     02A5H     UNIT         ?PR?_PANTALLALCD_LINEA_2?PANTALLAS
            CODE    4E1BH     022CH     UNIT         ?PR?MENU?PROG
            CODE    5047H     0208H     UNIT         ?PR?_HASH_ID?PROG
            CODE    524FH     01FAH     UNIT         ?PR?_PROG_HORARIO_DESDE_HASTA?PROG
            CODE    5449H     01F5H     UNIT         ?PR?PROG_FECHA_VENCIMIENTO?PROG
            CODE    563EH     01DFH     UNIT         ?PR?_RESPONDE_LECTURA_TARJETA_SECTOR1_BLOQUE1?VERIFICADOR
            CODE    581DH     01CFH     UNIT         ?PR?_BLOCK_READ_CLOCK_ASCII_RASBERRY?CLOCK
            CODE    59ECH     01B3H     UNIT         ?PR?COM_ISR?UART
            CODE    5B9FH     01A9H     UNIT         ?PR?_ARMAR_TRAMA_PTO_PARALELO_EXPEDIDOR?VERIFICADOR
            CODE    5D48H     01A4H     UNIT         ?PR?_VALIDA_TIPO_TARJETA?VERIFICADOR
            CODE    5EECH     01A3H     UNIT         ?CO?LINTECH
            CODE    608FH     016FH     UNIT         ?PR?_BLOCK_READ_CLOCK_ASCII?CLOCK
            CODE    61FEH     0166H     UNIT         ?PR?_POW?POW
            CODE    6364H     0154H     UNIT         ?PR?_ARMAR_TRAMA_MONITOR?VERIFICADOR
            CODE    64B8H     0145H     UNIT         ?PR?PROG_HORARIOS?PROG
            CODE    65FDH     0142H     UNIT         ?PR?_ARMAR_TRAMA_TARJETA_SECTOR1_BLOQUE2?VERIFICADOR
            CODE    673FH     013EH     UNIT         ?PR?PROG_SIN_COBRO?PROG
            CODE    687DH     013EH     UNIT         ?PR?SECUENCIA_INICIO_EXPEDIDOR?VERIFICADOR
            CODE    69BBH     013CH     UNIT         ?PR?LOAD_AND_SEND_ID_COD?PTO_PARALELO
            CODE    6AF7H     0137H     UNIT         ?PR?VER_HORARIO?PROG
            CODE    6C2EH     012BH     UNIT         ?PR?_RESPONDE_LECTURA_TARJETA_SECTOR1_BLOQUE2?VERIFICADOR
            CODE    6D59H     0129H     UNIT         ?PR?LOG?LOG
            CODE    6E82H     0128H     UNIT         ?PR?_VER_HORARIO_DIAS?PROG
            CODE    6FAAH     011AH     UNIT         ?PR?_PROG_HORARIOS_ON_OFF?PROG
            CODE    70C4H     0119H     UNIT         ?PR?_VER_HORARIO_DESDE_HASTA?PROG
            CODE    71DDH     0115H     UNIT         ?PR?_VALIDAR_CLK?CLOCK
            CODE    72F2H     010FH     UNIT         ?PR?_HORARIOS?VERIFICADOR
            CODE    7401H     010CH     UNIT         ?PR?_ATOL?ATOL
            CODE    750DH     0103H     UNIT         ?PR?_BLOQUE_HORARIO?VERIFICADOR
            CODE    7610H     0100H     UNIT         ?PR?_WR_MF?LINTECH
            CODE    7710H     00FCH     UNIT         ?PR?PROG_DEBUG?PROG
            CODE    780CH     00FCH     UNIT         ?PR?PROG_USE_LPR?PROG
            CODE    7908H     00FCH     UNIT         ?PR?TIPO_PANTALLA?PROG
            CODE    7A04H     00FCH     UNIT         ?PR?PROG_ANTIPASSBACK?PROG
            CODE    7B00H     00FCH     UNIT         ?PR?PROG_PLACA?PROG
            CODE    7BFCH     00FCH     UNIT         ?PR?PROG_VALIDAR_TIPO_VEHICULO_MENSUAL?PROG
            CODE    7CF8H     00FCH     UNIT         ?PR?PROG_APB_MENSUAL?PROG
            CODE    7DF4H     00F1H     UNIT         ?PR?_WRITE_EEPROM_TICKET?EEPROM
            CODE    7EE5H     00EAH     UNIT         ?PR?_MOV_CARD?LINTECH
            CODE    7FCFH     00E4H     UNIT         ?PR?_STRTOK?STRTOK
            CODE    80B3H     00DEH     UNIT         ?PR?PROG_ADDRESS_HIGH_BOARD?PROG
            CODE    8191H     00DBH     UNIT         ?PR?_ATOI?ATOI
BL51 BANKED LINKER/LOCATER V6.22.2.0                                                  05/14/2021  10:23:20  PAGE 4


            CODE    826CH     00D7H     UNIT         ?PR?_ANALIZA_UID_CARD?VERIFICADOR
            CODE    8343H     00D6H     UNIT         ?PR?_CMD_LPR_SALIDA_WIEGAND?ACCESCAN
            CODE    8419H     00D1H     UNIT         ?PR?_ARMAR_TRAMA_PTO_PARALELO_EXPEDIDOR_MENSUAL?VERIFICADOR
            CODE    84EAH     00CFH     UNIT         ?C_INITSEG
            CODE    85B9H     00CCH     UNIT         ?PR?_GRABA_SERIE?EEPROM
            CODE    8685H     00CBH     UNIT         ?PR?_RTA_CMD_TRANSPORTE?VERIFICADOR
            CODE    8750H     00CAH     UNIT         ?PR?READ_EEPROM_TICKET?EEPROM
            CODE    881AH     00C9H     UNIT         ?PR?_CHECK_FECHAOUT?CLOCK
            CODE    88E3H     00C5H     UNIT         ?PR?_BLOCK_READ_CLOCK?CLOCK
            CODE    89A8H     00C4H     UNIT         ?PR?_TARJETA_MENSUAL?VERIFICADOR
            CODE    8A6CH     00C3H     UNIT         ?PR?_RD_MF?LINTECH
            CODE    8B2FH     00C2H     UNIT         ?PR?PROG_TARJETA_AUTOMATICA_O_BOTON?PROG
            CODE    8BF1H     00C1H     UNIT         ?PR?_RECIBE_CMD_MONITOR?MONITOR
            CODE    8CB2H     00BFH     UNIT         ?CO?IO_SENSORES
            CODE    8D71H     00BEH     UNIT         ?PR?ERROR_RX_PTO?VERIFICADOR
            CODE    8E2FH     00BDH     UNIT         ?PR?PROG_COD_PARK?PROG
            CODE    8EECH     00BDH     UNIT         ?PR?PROG_TIEMPO_GRACIA?PROG
            CODE    8FA9H     00BBH     UNIT         ?PR?_VALIDA_TRAMA_MONITOR?MONITOR
            CODE    9064H     00B9H     UNIT         ?CO?TIBBO
            CODE    911DH     00B6H     UNIT         ?PR?PROG_ID_CLIENTE?PROG
            CODE    91D3H     00B5H     UNIT         ?PR?_WAIT_PLACA?VERIFICADOR
            CODE    9288H     00B4H     UNIT         ?PR?_SEND_PORT?PTO_PARALELO
            CODE    933CH     00ACH     UNIT         ?PR?_HORA_MAXIMA?VERIFICADOR
            CODE    93E8H     00AAH     UNIT         ?PR?CLAVE_SEGURIDAD_S2?LINTECH
            CODE    9492H     00A9H     UNIT         ?PR?DWLOAD_EEPROM?LINTECH
            CODE    953BH     00A7H     UNIT         ?PR?_BLOCK_READ_CLOCK_HEX?CLOCK
            CODE    95E2H     00A4H     UNIT         ?PR?_ARMAR_TRAMA_TARJETA_SECTOR1_BLOQUE1_CAMCEL?VERIFICADOR
            CODE    9686H     009DH     UNIT         ?PR?_INICIALIZA?LINTECH
            CODE    9723H     009CH     UNIT         ?PR?_RESPUESTA_PLACA_CANCEL?VERIFICADOR
            CODE    97BFH     009AH     UNIT         ?PR?_RESPONDE_LECTURA_TARJETA_SECTOR1_BLOQUE0?VERIFICADOR
            CODE    9859H     009AH     UNIT         ?PR?EXP?EXP
            CODE    98F3H     0099H     UNIT         ?PR?SHOW?PROG
            CODE    998CH     0099H     UNIT         ?PR?_RECIBE_PORT?PTO_PARALELO
            CODE    9A25H     0098H     UNIT         ?PR?_VALIDA_VEHICULO_CARD_MENSUAL?VERIFICADOR
            CODE    9ABDH     0091H     UNIT         ?PR?_HEX_ASCII?CLOCK
            CODE    9B4EH     0091H     UNIT         ?PR?_CARD_INSERCION?LINTECH
            CODE    9BDFH     0090H     UNIT         ?PR?_GETOPTION?PROG
            CODE    9C6FH     0090H     UNIT         ?PR?_DISPARO_LOCK_ENTRADA_VEHICULO?VERIFICADOR
            CODE    9CFFH     0090H     UNIT         ?PR?ENTREGA_CARD_CAPTURA?VERIFICADOR
            CODE    9D8FH     008FH     UNIT         ?PR?_LEE_CLK?CLOCK
            CODE    9E1EH     008FH     UNIT         ?PR?_BLOCK_WRITE_CLOCK_ASCII?CLOCK
            CODE    9EADH     008FH     UNIT         ?PR?_RESPONDE_WRITE_TARJETA_SECTOR1_BLOQUE2?VERIFICADOR
            CODE    9F3CH     008DH     UNIT         ?PR?LOADVERIFY_EEPROM?LINTECH
            CODE    9FC9H     008CH     UNIT         ?C_C51STARTUP
            CODE    A055H     0088H     UNIT         ?PR?_SEND_PORTERR?PTO_PARALELO
            CODE    A0DDH     0088H     UNIT         ?PR?RX_DATA?TIBBO
            CODE    A165H     0088H     UNIT         ?PR?UNIQUE_IDENTIFIER_UID?LINTECH
            CODE    A1EDH     0086H     UNIT         ?PR?_CHECK_STATUS?LINTECH
            CODE    A273H     0084H     UNIT         ?PR?MSJ_LCD_INFORMATIVO?IO_SENSORES
            CODE    A2F7H     0084H     UNIT         ?PR?_DEBUGBUFFERMF?TIBBO
            CODE    A37BH     0084H     UNIT         ?PR?_STRSPN?STRSPN
            CODE    A3FFH     0083H     UNIT         ?PR?_RASPBERRY_DATA?PANTALLAS
            CODE    A482H     0081H     UNIT         ?PR?_STRPBRK?STRPBRK
            CODE    A503H     0080H     UNIT         ?PR?_INGRESADATO?PROG
            CODE    A583H     0080H     UNIT         ?PR?AUT_CARD_CHECK_STATUS?LINTECH
            CODE    A603H     0080H     UNIT         ?PR?POWER_OFF?LINTECH
            CODE    A683H     007FH     UNIT         ?PR?MAIN?MAIN
BL51 BANKED LINKER/LOCATER V6.22.2.0                                                  05/14/2021  10:23:20  PAGE 5


            CODE    A702H     007DH     UNIT         ?PR?RELOJ_PANTALLA_LCD?PANTALLAS
            CODE    A77FH     007CH     UNIT         ?PR?RESPONDE_ESTADO_SENSORES_TRANSPORTE?VERIFICADOR
            CODE    A7FBH     007CH     UNIT         ?PR?_SEND_PTO_PARALELO?VERIFICADOR
            CODE    A877H     0077H     UNIT         ?PR?RESPONDE_TIPO_TARJETA?VERIFICADOR
            CODE    A8EEH     0071H     UNIT         ?PR?_EN_HORARIO?VERIFICADOR
            CODE    A95FH     006FH     UNIT         ?PR?_ESCRIBIRMEMORIA?EEPROM
            CODE    A9CEH     006BH     UNIT         ?PR?_STRCAT?STRCAT
            CODE    AA39H     0066H     UNIT         ?PR?_LEERMEMORIA?EEPROM
            CODE    AA9FH     0062H     UNIT         ?PR?_LISTACOMANDOS?PROG
            CODE    AB01H     005EH     UNIT         ?PR?_BYTEHEX_DECIMAL?CLOCK
            CODE    AB5FH     005EH     UNIT         ?PR?INGRESO_VEHICULO?VERIFICADOR
            CODE    ABBDH     005DH     UNIT         ?PR?_RESPUESTA_SEGUNDA_CLAVE?VERIFICADOR
            CODE    AC1AH     005CH     UNIT         ?PR?_ARMAR_TRAMA_PLACA?VERIFICADOR
            CODE    AC76H     005BH     UNIT         ?PR?VALIDA_SENSOR1_AUTO?IO_SENSORES
            CODE    ACD1H     0056H     UNIT         ?PR?_WR_EEPROM?EEPROM
            CODE    AD27H     004DH     UNIT         ?PR?VARIABLE_INICIO?MAIN
            CODE    AD74H     004DH     UNIT         ?PR?L_D_M?EEPROM
            CODE    ADC1H     004CH     UNIT         ?PR?LEE_NO_TICKET?EEPROM
            CODE    AE0DH     004CH     UNIT         ?PR?LOAD_AND_SEND_INFO_RELOJ?PTO_PARALELO
            CODE    AE59H     004BH     UNIT         ?PR?_TX_AUX?TIBBO
            CODE    AEA4H     0049H     UNIT         ?PR?_DEBUG_TXT_TIBBO?TIBBO
            CODE    AEEDH     0048H     UNIT         ?PR?FIRST_CLAVE?PROG
            CODE    AF35H     0047H     UNIT         ?PR?_DEBUG_CHR_TIBBO?TIBBO
            CODE    AF7CH     0047H     UNIT         ?PR?_RESPONDE_WRITE_TARJETA_SECTOR2_BLOQUE0?VERIFICADOR
            CODE    AFC3H     0046H     UNIT         ?PR?_ESCRIBIRCADENASOFT_BUFFER?MAIN
            CODE    B009H     0046H     UNIT         ?PR?_LCD_TXT_NUM_CHAR?PANTALLAS
            CODE    B04FH     0046H     UNIT         ?PR?_DEBUG_HEXDEC?TIBBO
            CODE    B095H     0046H     UNIT         ?PR?_PREGUNTA_LPR?VERIFICADOR
            CODE    B0DBH     0044H     UNIT         ?PR?_LCD_TXT?PANTALLAS
            CODE    B11FH     0043H     UNIT         ?PR?DIR_BOARD?IO_SENSORES
            CODE    B162H     0042H     UNIT         ?PR?_VALIDARCLAVE?PROG
            CODE    B1A4H     0041H     UNIT         ?PR?_MONITOR_CHR?ACCESCAN
            CODE    B1E5H     0041H     UNIT         ?PR?_TWO_ONE?CLOCK
            CODE    B226H     0040H     UNIT         ?PR?_GETCMD?PROG
            CODE    B266H     0040H     UNIT         ?PR?_DEBUG_PTO_PARALELO?TIBBO
            CODE    B2A6H     003FH     UNIT         ?PR?_EB_CLK?CLOCK
            CODE    B2E5H     003EH     UNIT         ?PR?_PUTCHAR?MAIN
            CODE    B323H     003EH     UNIT         ?PR?TRAMA_VALIDACION_P_N?VERIFICADOR
            CODE    B361H     003DH     UNIT         ?PR?_HEX_BCD?CLOCK
            CODE    B39EH     003DH     UNIT         ?PR?_RD_EEPROM?EEPROM
            CODE    B3DBH     003DH     UNIT         ?PR?_DEBUG_MONITOR?TIBBO
            CODE    B418H     003DH     UNIT         ?PR?_LOAD_SECUENCIA_EXPEDIDOR?VERIFICADOR
            CODE    B455H     003BH     UNIT         ?CO?EEPROM
            CODE    B490H     003BH     UNIT         ?PR?_COM_PUTCHAR?UART
            CODE    B4CBH     003AH     UNIT         ?PR?_DELAY_10MS?DELAY
            CODE    B505H     003AH     UNIT         ?PR?ANALIZA_CARD_MOUNT_RF?VERIFICADOR
            CODE    B53FH     0038H     UNIT         ?PR?VALIDASENSORESPASO?IO_SENSORES
            CODE    B577H     0036H     UNIT         ?PR?_RESPONDE_WRITE_TARJETA_SECTOR1_BLOQUE1?VERIFICADOR
            CODE    B5ADH     0036H     UNIT         ?PR?_RESPONDE_WRITE_TARJETA_SECTOR1_BLOQUE0?VERIFICADOR
            CODE    B5E3H     0034H     UNIT         ?PR?INCREMENTE_TICKET?EEPROM
            CODE    B617H     0034H     UNIT         ?PR?ADDR_HORARIOS?PROG
            CODE    B64BH     0031H     UNIT         ?PR?_TARJETA_ROTACION?VERIFICADOR
            CODE    B67CH     0030H     UNIT         ?PR?PREGUNTA_PLACA?VERIFICADOR
            CODE    B6ACH     002EH     UNIT         ?PR?TIMER0_INT?MAIN
            CODE    B6DAH     002AH     UNIT         ?PR?COM_INITIALIZE?UART
            CODE    B704H     0028H     UNIT         ?PR?_WR_CLK?CLOCK
            CODE    B72CH     0028H     UNIT         ?PR?COM_BAUDRATE?UART
BL51 BANKED LINKER/LOCATER V6.22.2.0                                                  05/14/2021  10:23:20  PAGE 6


            CODE    B754H     0028H     UNIT         ?PR?_ARMAR_TRAMA_TARJETA_SECTOR1_BLOQUE0?VERIFICADOR
            CODE    B77CH     0027H     UNIT         ?PR?_TX_CHRLCD?PANTALLAS
            CODE    B7A3H     0026H     UNIT         ?PR?COM_GETCHAR?UART
            CODE    B7C9H     0026H     UNIT         ?PR?ANALIZA_PRESENCIA_MENSUAL?VERIFICADOR
            CODE    B7EFH     0026H     UNIT         ?PR?RX_MONITOR?MONITOR
            CODE    B815H     0023H     UNIT         ?PR?ANALIZA_PRESENCIA_ROTACION?VERIFICADOR
            CODE    B838H     0022H     UNIT         ?PR?_E_D_M?EEPROM
            CODE    B85AH     0022H     UNIT         ?PR?VALIDASENSOR_CERO?IO_SENSORES
            CODE    B87CH     0021H     UNIT         ?CO?PTO_PARALELO
            CODE    B89DH     0020H     UNIT         ?PR?ACKD?EEPROM
            CODE    B8BDH     0020H     UNIT         ?PR?ACK_LECT?EEPROM
            CODE    B8DDH     001FH     UNIT         ?PR?VALIDASENSOR?IO_SENSORES
            CODE    B8FCH     001FH     UNIT         ?PR?TIME_BIT?TIBBO
            CODE    B91BH     001EH     UNIT         ?PR?_BCD_HEX?CLOCK
            CODE    B939H     001BH     UNIT         ?PR?_DELAY_1MS?DELAY
            CODE    B954H     0018H     UNIT         ?PR?CLEAR_PLACA?MONITOR
            CODE    B96CH     0017H     UNIT         ?PR?DISPLAYCURSOR?PROG
            CODE    B983H     0017H     UNIT         ?PR?TIME_MBIT?TIBBO
            CODE    B99AH     0016H     UNIT         ?PR?DIR_BOARD_MONITOR?IO_SENSORES
            CODE    B9B0H     0014H     UNIT         ?PR?_ISSPACE?ISSPACE
            CODE    B9C4H     0012H     UNIT         ?PR?_DELAY_20US?DELAY
            CODE    B9D6H     0012H     UNIT         ?PR?START?EEPROM
            CODE    B9E8H     0012H     UNIT         ?PR?BOTTON?IO_SENSORES
            CODE    B9FAH     0012H     UNIT         ?PR?PULSO_BUS?PTO_PARALELO
            CODE    BA0CH     0012H     UNIT         ?PR?COM_RBUFLEN?UART
            CODE    BA1EH     0012H     UNIT         ?PR?COM_TBUFLEN?UART
            CODE    BA30H     0010H     UNIT         ?PR?INI_TIMER?MAIN
            CODE    BA40H     0010H     UNIT         ?PR?INICIA_BOARD?MAIN
            CODE    BA50H     000FH     UNIT         ?PR?_ISDIGIT?ISDIGIT
            CODE    BA5FH     000CH     UNIT         ?PR?_GETKEY?MAIN
            CODE    BA6BH     000AH     UNIT         ?PR?STOP?EEPROM
            CODE    BA75H     000AH     UNIT         ?PR?COND_INI_PTO?PTO_PARALELO
            CODE    BA7FH     0009H     UNIT         ?PR?DEBUG_DIVIDIR_TEXTO?TIBBO
            CODE    BA88H     0009H     UNIT         ?PR?CAPTURA_EXPULSA?VERIFICADOR
            CODE    BA91H     0007H     UNIT         ?PR?COND_INI_CLOCK?CLOCK
            CODE    BA98H     0007H     UNIT         ?PR?SEL_FUNCION?IO_SENSORES
            CODE    BA9FH     0007H     UNIT         ?PR?SEL_AUTO?IO_SENSORES
            CODE    BAA6H     0007H     UNIT         ?PR?SEL_PULSA?IO_SENSORES
            CODE    BAADH     0007H     UNIT         ?PR?SEL_SENSOR2?IO_SENSORES
            CODE    BAB4H     0007H     UNIT         ?PR?SEL_SENSOR1?IO_SENSORES
            CODE    BABBH     0007H     UNIT         ?PR?SEL_DIR1?IO_SENSORES
            CODE    BAC2H     0007H     UNIT         ?PR?SEL_DIR2?IO_SENSORES
            CODE    BAC9H     0006H     UNIT         ?PR?P_ME?EEPROM
            CODE    BACFH     0005H     UNIT         ?PR?ON_TIMER0_INTERRUP?MAIN
            CODE    BAD4H     0005H     UNIT         ?CO?ACCESCAN
            CODE    BAD9H     0005H     UNIT         ?PR?COND_INI_TIBBO?TIBBO
            CODE    BADEH     0003H     UNIT         ?PR?OFF_TIMER0_INTERRUP?MAIN
            CODE    BAE1H     0001H     UNIT         ?PR?DELAY?DELAY



OVERLAY MAP OF MODULE:   .\Objects\expedidor_v_01_raspberry (MAIN)


SEGMENT                                             BIT_GROUP          DATA_GROUP          XDATA_GROUP
  +--> CALLED SEGMENT                            START    LENGTH     START    LENGTH     START    LENGTH
--------------------------------------------------------------------------------------------------------
BL51 BANKED LINKER/LOCATER V6.22.2.0                                                  05/14/2021  10:23:20  PAGE 7


?C_C51STARTUP                                    -----    -----      -----    -----      -----    -----
  +--> ?PR?MAIN?MAIN
  +--> ?C_INITSEG

?PR?MAIN?MAIN                                    -----    -----      -----    -----      0000H    0001H
  +--> ?PR?INI_TIMER?MAIN
  +--> ?PR?ON_TIMER0_INTERRUP?MAIN
  +--> ?PR?COM_INITIALIZE?UART
  +--> ?PR?COM_BAUDRATE?UART
  +--> ?PR?INICIA_BOARD?MAIN
  +--> ?PR?TIME_BIT?TIBBO
  +--> ?PR?_DELAY_20US?DELAY
  +--> ?PR?TIME_MBIT?TIBBO
  +--> ?PR?_TX_AUX?TIBBO
  +--> ?PR?SEL_FUNCION?IO_SENSORES
  +--> ?PR?MENU?PROG
  +--> ?PR?VARIABLE_INICIO?MAIN
  +--> ?PR?SECUENCIA_INICIO_EXPEDIDOR?VERIFI...
  +--> ?PR?RX_MONITOR?MONITOR
  +--> ?PR?_SECUENCIAEXPEDIDORMF?VERIFICADOR
  +--> ?PR?_RECIBE_PORT?PTO_PARALELO
  +--> ?PR?_DEBUG_PTO_PARALELO?TIBBO
  +--> ?PR?_VALIDA_TRAMA_PTO?ACCESCAN
  +--> ?PR?MSJ_LCD_INFORMATIVO?IO_SENSORES

?PR?COM_INITIALIZE?UART                          -----    -----      -----    -----      -----    -----
  +--> ?PR?COM_BAUDRATE?UART

?PR?INICIA_BOARD?MAIN                            -----    -----      -----    -----      -----    -----
  +--> ?PR?COND_INI_TIBBO?TIBBO
  +--> ?PR?COND_INI_CLOCK?CLOCK
  +--> ?PR?COND_INI_PTO?PTO_PARALELO

?PR?_TX_AUX?TIBBO                                -----    -----      -----    -----      -----    -----
  +--> ?PR?TIME_BIT?TIBBO

?PR?MENU?PROG                                    -----    -----      -----    -----      0001H    0045H
  +--> ?CO?PROG
  +--> ?PR?PRINTF?PRINTF
  +--> ?PR?_RD_EEPROM?EEPROM
  +--> ?PR?FIRST_CLAVE?PROG
  +--> ?PR?_WR_EEPROM?EEPROM
  +--> ?PR?_LEERMEMORIA?EEPROM
  +--> ?PR?_HASH_ID?PROG
  +--> ?PR?_INGRESADATO?PROG
  +--> ?PR?_GETCMD?PROG
  +--> ?PR?_ESCRIBIRMEMORIA?EEPROM
  +--> ?PR?_VALIDARCLAVE?PROG
  +--> ?PR?DISPLAYCURSOR?PROG
  +--> ?PR?_STRLEN?STRLEN
  +--> ?PR?_GETOPTION?PROG
  +--> ?PR?_STRCAT?STRCAT
  +--> ?PR?_LISTACOMANDOS?PROG
  +--> ?PR?PROG_ID_CLIENTE?PROG
  +--> ?PR?PROG_COD_PARK?PROG
  +--> ?PR?PROG_TIEMPO_GRACIA?PROG
  +--> ?PR?PROG_SIN_COBRO?PROG
BL51 BANKED LINKER/LOCATER V6.22.2.0                                                  05/14/2021  10:23:20  PAGE 8


  +--> ?PR?PROG_DEBUG?PROG
  +--> ?PR?PROG_USE_LPR?PROG
  +--> ?PR?TIPO_PANTALLA?PROG
  +--> ?PR?PROG_TARJETA_AUTOMATICA_O_BOTON?PROG
  +--> ?PR?PROG_ANTIPASSBACK?PROG
  +--> ?PR?PROG_PLACA?PROG
  +--> ?PR?PROG_ADDRESS_HIGH_BOARD?PROG
  +--> ?PR?PROG_HORARIOS?PROG
  +--> ?PR?PROG_VALIDAR_TIPO_VEHICULO_MENSUA...
  +--> ?PR?PROG_APB_MENSUAL?PROG
  +--> ?PR?VER_PROG?PROG
  +--> ?PR?SHOW?PROG
  +--> ?PR?PROG_FECHA_VENCIMIENTO?PROG

?PR?PRINTF?PRINTF                                0020H.0  0001H.1    0008H    0005H      0077H    0030H
  +--> ?PR?_PUTCHAR?MAIN

?PR?_PUTCHAR?MAIN                                -----    -----      -----    -----      00A7H    0003H
  +--> ?PR?_COM_PUTCHAR?UART

?PR?_COM_PUTCHAR?UART                            -----    -----      -----    -----      00AAH    0001H
  +--> ?PR?COM_TBUFLEN?UART

?PR?_RD_EEPROM?EEPROM                            -----    -----      -----    -----      -----    -----
  +--> ?PR?START?EEPROM
  +--> ?PR?ACK_LECT?EEPROM
  +--> ?PR?_E_D_M?EEPROM
  +--> ?PR?ACKD?EEPROM
  +--> ?PR?L_D_M?EEPROM
  +--> ?PR?STOP?EEPROM

?PR?ACK_LECT?EEPROM                              -----    -----      -----    -----      -----    -----
  +--> ?PR?_E_D_M?EEPROM

?PR?_E_D_M?EEPROM                                -----    -----      -----    -----      -----    -----
  +--> ?PR?P_ME?EEPROM

?PR?ACKD?EEPROM                                  -----    -----      -----    -----      -----    -----
  +--> ?PR?_E_D_M?EEPROM

?PR?FIRST_CLAVE?PROG                             -----    -----      -----    -----      0046H    000BH
  +--> ?PR?_BLOCK_READ_CLOCK_ASCII?CLOCK
  +--> ?PR?_HASH_ID?PROG
  +--> ?PR?_ESCRIBIRMEMORIA?EEPROM

?PR?_BLOCK_READ_CLOCK_ASCII?CLOCK                -----    -----      -----    -----      0051H    0003H
  +--> ?PR?_LEE_CLK?CLOCK

?PR?_LEE_CLK?CLOCK                               -----    -----      -----    -----      00B1H    0003H
  +--> ?PR?_DELAY_20US?DELAY
  +--> ?PR?_EB_CLK?CLOCK
  +--> ?PR?P_CK?CLOCK

?PR?_EB_CLK?CLOCK                                -----    -----      -----    -----      00B4H    0003H
  +--> ?PR?P_CK?CLOCK

?PR?P_CK?CLOCK                                   -----    -----      -----    -----      -----    -----
BL51 BANKED LINKER/LOCATER V6.22.2.0                                                  05/14/2021  10:23:20  PAGE 9


  +--> ?PR?DELAY?DELAY

?PR?_HASH_ID?PROG                                -----    -----      -----    -----      005DH    003FH
  +--> ?CO?PROG
  +--> ?PR?_LEERMEMORIA?EEPROM
  +--> ?PR?_CHECK_FECHAOUT?CLOCK
  +--> ?PR?_STRLEN?STRLEN

?PR?_LEERMEMORIA?EEPROM                          -----    -----      -----    -----      009CH    0005H
  +--> ?PR?_RD_EEPROM?EEPROM

?PR?_CHECK_FECHAOUT?CLOCK                        -----    -----      -----    -----      009CH    0012H
  +--> ?PR?_BLOCK_READ_CLOCK_HEX?CLOCK

?PR?_BLOCK_READ_CLOCK_HEX?CLOCK                  -----    -----      -----    -----      00AEH    0003H
  +--> ?PR?_LEE_CLK?CLOCK
  +--> ?PR?_BCD_HEX?CLOCK

?PR?_ESCRIBIRMEMORIA?EEPROM                      -----    -----      -----    -----      005DH    0005H
  +--> ?PR?_WR_EEPROM?EEPROM

?PR?_WR_EEPROM?EEPROM                            -----    -----      -----    -----      -----    -----
  +--> ?PR?START?EEPROM
  +--> ?PR?ACKD?EEPROM
  +--> ?PR?_E_D_M?EEPROM
  +--> ?PR?STOP?EEPROM
  +--> ?PR?_DELAY_1MS?DELAY
  +--> ?PR?_DELAY_20US?DELAY

?PR?_DELAY_1MS?DELAY                             -----    -----      -----    -----      -----    -----
  +--> ?PR?_DELAY_20US?DELAY

?PR?_INGRESADATO?PROG                            -----    -----      -----    -----      0071H    0004H
  +--> ?PR?_GETKEY?MAIN
  +--> ?CO?PROG
  +--> ?PR?PRINTF?PRINTF
  +--> ?PR?_PUTCHAR?MAIN

?PR?_GETKEY?MAIN                                 -----    -----      -----    -----      -----    -----
  +--> ?PR?COM_GETCHAR?UART

?PR?COM_GETCHAR?UART                             -----    -----      -----    -----      -----    -----
  +--> ?PR?COM_RBUFLEN?UART

?PR?_GETCMD?PROG                                 -----    -----      -----    -----      005DH    0007H
  +--> ?CO?PROG
  +--> ?PR?_STRTOK?STRTOK

?PR?_STRTOK?STRTOK                               -----    -----      -----    -----      0064H    0006H
  +--> ?PR?_STRSPN?STRSPN
  +--> ?PR?_STRPBRK?STRPBRK

?PR?_STRSPN?STRSPN                               -----    -----      -----    -----      006AH    0008H

?PR?_STRPBRK?STRPBRK                             -----    -----      -----    -----      006AH    0009H

?PR?_VALIDARCLAVE?PROG                           -----    -----      -----    -----      005DH    000EH
BL51 BANKED LINKER/LOCATER V6.22.2.0                                                  05/14/2021  10:23:20  PAGE 10



?PR?DISPLAYCURSOR?PROG                           -----    -----      -----    -----      -----    -----
  +--> ?CO?PROG
  +--> ?PR?PRINTF?PRINTF

?PR?_GETOPTION?PROG                              -----    -----      -----    -----      0046H    000BH
  +--> ?CO?PROG
  +--> ?PR?_STRTOK?STRTOK

?PR?_STRCAT?STRCAT                               -----    -----      -----    -----      0046H    0009H

?PR?_LISTACOMANDOS?PROG                          -----    -----      -----    -----      0046H    0007H

?PR?PROG_ID_CLIENTE?PROG                         -----    -----      -----    -----      0046H    000CH
  +--> ?PR?_RD_EEPROM?EEPROM
  +--> ?CO?PROG
  +--> ?PR?PRINTF?PRINTF
  +--> ?PR?_INGRESADATO?PROG
  +--> ?PR?_ATOI?ATOI
  +--> ?PR?_WR_EEPROM?EEPROM

?PR?_ATOI?ATOI                                   0020H.0  0000H.1    -----    -----      0071H    0005H
  +--> ?PR?_ISSPACE?ISSPACE
  +--> ?PR?_ISDIGIT?ISDIGIT

?PR?PROG_COD_PARK?PROG                           -----    -----      -----    -----      0046H    000CH
  +--> ?PR?_RD_EEPROM?EEPROM
  +--> ?CO?PROG
  +--> ?PR?PRINTF?PRINTF
  +--> ?PR?_INGRESADATO?PROG
  +--> ?PR?_ATOI?ATOI
  +--> ?PR?_WR_EEPROM?EEPROM

?PR?PROG_TIEMPO_GRACIA?PROG                      -----    -----      -----    -----      0046H    000CH
  +--> ?PR?_RD_EEPROM?EEPROM
  +--> ?CO?PROG
  +--> ?PR?PRINTF?PRINTF
  +--> ?PR?_INGRESADATO?PROG
  +--> ?PR?_ATOI?ATOI
  +--> ?PR?_WR_EEPROM?EEPROM

?PR?PROG_SIN_COBRO?PROG                          -----    -----      -----    -----      0046H    000CH
  +--> ?PR?_RD_EEPROM?EEPROM
  +--> ?CO?PROG
  +--> ?PR?PRINTF?PRINTF
  +--> ?PR?_INGRESADATO?PROG
  +--> ?PR?_ATOI?ATOI
  +--> ?PR?_WR_EEPROM?EEPROM

?PR?PROG_DEBUG?PROG                              -----    -----      -----    -----      0046H    000CH
  +--> ?PR?_RD_EEPROM?EEPROM
  +--> ?CO?PROG
  +--> ?PR?PRINTF?PRINTF
  +--> ?PR?_INGRESADATO?PROG
  +--> ?PR?_ATOI?ATOI
  +--> ?PR?_WR_EEPROM?EEPROM

BL51 BANKED LINKER/LOCATER V6.22.2.0                                                  05/14/2021  10:23:20  PAGE 11


?PR?PROG_USE_LPR?PROG                            -----    -----      -----    -----      0046H    000CH
  +--> ?PR?_RD_EEPROM?EEPROM
  +--> ?CO?PROG
  +--> ?PR?PRINTF?PRINTF
  +--> ?PR?_INGRESADATO?PROG
  +--> ?PR?_ATOI?ATOI
  +--> ?PR?_WR_EEPROM?EEPROM

?PR?TIPO_PANTALLA?PROG                           -----    -----      -----    -----      0046H    000CH
  +--> ?PR?_RD_EEPROM?EEPROM
  +--> ?CO?PROG
  +--> ?PR?PRINTF?PRINTF
  +--> ?PR?_INGRESADATO?PROG
  +--> ?PR?_ATOI?ATOI
  +--> ?PR?_WR_EEPROM?EEPROM

?PR?PROG_TARJETA_AUTOMATICA_O_BOTON?PROG         -----    -----      -----    -----      0046H    000CH
  +--> ?PR?_RD_EEPROM?EEPROM
  +--> ?CO?PROG
  +--> ?PR?PRINTF?PRINTF
  +--> ?PR?_INGRESADATO?PROG
  +--> ?PR?_ATOI?ATOI
  +--> ?PR?_WR_EEPROM?EEPROM

?PR?PROG_ANTIPASSBACK?PROG                       -----    -----      -----    -----      0046H    000CH
  +--> ?PR?_RD_EEPROM?EEPROM
  +--> ?CO?PROG
  +--> ?PR?PRINTF?PRINTF
  +--> ?PR?_INGRESADATO?PROG
  +--> ?PR?_ATOI?ATOI
  +--> ?PR?_WR_EEPROM?EEPROM

?PR?PROG_PLACA?PROG                              -----    -----      -----    -----      0046H    000CH
  +--> ?PR?_RD_EEPROM?EEPROM
  +--> ?CO?PROG
  +--> ?PR?PRINTF?PRINTF
  +--> ?PR?_INGRESADATO?PROG
  +--> ?PR?_ATOI?ATOI
  +--> ?PR?_WR_EEPROM?EEPROM

?PR?PROG_ADDRESS_HIGH_BOARD?PROG                 -----    -----      -----    -----      0046H    000CH
  +--> ?PR?_RD_EEPROM?EEPROM
  +--> ?CO?PROG
  +--> ?PR?PRINTF?PRINTF
  +--> ?PR?_INGRESADATO?PROG
  +--> ?PR?_ATOI?ATOI
  +--> ?PR?_WR_EEPROM?EEPROM

?PR?PROG_HORARIOS?PROG                           -----    -----      -----    -----      0046H    001BH
  +--> ?PR?ADDR_HORARIOS?PROG
  +--> ?CO?PROG
  +--> ?PR?PRINTF?PRINTF
  +--> ?PR?_INGRESADATO?PROG
  +--> ?PR?_ATOI?ATOI
  +--> ?PR?_PROG_HORARIOS_ON_OFF?PROG
  +--> ?PR?_WR_EEPROM?EEPROM
  +--> ?PR?_PROG_HORARIO_DIAS?PROG
BL51 BANKED LINKER/LOCATER V6.22.2.0                                                  05/14/2021  10:23:20  PAGE 12


  +--> ?PR?_PROG_HORARIO_DESDE_HASTA?PROG
  +--> ?PR?_RD_EEPROM?EEPROM

?PR?ADDR_HORARIOS?PROG                           -----    -----      -----    -----      0074H    000BH

?PR?_PROG_HORARIOS_ON_OFF?PROG                   -----    -----      -----    -----      0061H    0010H
  +--> ?PR?_RD_EEPROM?EEPROM
  +--> ?CO?PROG
  +--> ?PR?PRINTF?PRINTF
  +--> ?PR?_INGRESADATO?PROG
  +--> ?PR?_ATOI?ATOI
  +--> ?PR?_WR_EEPROM?EEPROM

?PR?_PROG_HORARIO_DIAS?PROG                      -----    -----      -----    -----      0061H    000FH
  +--> ?CO?PROG
  +--> ?PR?PRINTF?PRINTF
  +--> ?PR?_INGRESADATO?PROG
  +--> ?PR?_WR_EEPROM?EEPROM
  +--> ?PR?_RD_EEPROM?EEPROM

?PR?_PROG_HORARIO_DESDE_HASTA?PROG               -----    -----      -----    -----      0061H    000CH
  +--> ?CO?PROG
  +--> ?PR?PRINTF?PRINTF
  +--> ?PR?_INGRESADATO?PROG
  +--> ?PR?_WR_EEPROM?EEPROM
  +--> ?PR?_RD_EEPROM?EEPROM

?PR?PROG_VALIDAR_TIPO_VEHICULO_MENSUA...         -----    -----      -----    -----      0046H    000CH
  +--> ?PR?_RD_EEPROM?EEPROM
  +--> ?CO?PROG
  +--> ?PR?PRINTF?PRINTF
  +--> ?PR?_INGRESADATO?PROG
  +--> ?PR?_ATOI?ATOI
  +--> ?PR?_WR_EEPROM?EEPROM

?PR?PROG_APB_MENSUAL?PROG                        -----    -----      -----    -----      0046H    000CH
  +--> ?PR?_RD_EEPROM?EEPROM
  +--> ?CO?PROG
  +--> ?PR?PRINTF?PRINTF
  +--> ?PR?_INGRESADATO?PROG
  +--> ?PR?_ATOI?ATOI
  +--> ?PR?_WR_EEPROM?EEPROM

?PR?VER_PROG?PROG                                -----    -----      -----    -----      0046H    0013H
  +--> ?PR?_RD_EEPROM?EEPROM
  +--> ?CO?PROG
  +--> ?PR?PRINTF?PRINTF
  +--> ?PR?VER_HORARIO?PROG
  +--> ?PR?_LEERMEMORIA?EEPROM
  +--> ?PR?_HEX_ASCII?CLOCK

?PR?VER_HORARIO?PROG                             -----    -----      -----    -----      0059H    001BH
  +--> ?PR?ADDR_HORARIOS?PROG
  +--> ?CO?PROG
  +--> ?PR?PRINTF?PRINTF
  +--> ?PR?_RD_EEPROM?EEPROM
  +--> ?PR?_VER_HORARIO_DIAS?PROG
BL51 BANKED LINKER/LOCATER V6.22.2.0                                                  05/14/2021  10:23:20  PAGE 13


  +--> ?PR?_VER_HORARIO_DESDE_HASTA?PROG

?PR?_VER_HORARIO_DIAS?PROG                       -----    -----      -----    -----      0074H    0003H
  +--> ?PR?_RD_EEPROM?EEPROM
  +--> ?CO?PROG
  +--> ?PR?PRINTF?PRINTF

?PR?_VER_HORARIO_DESDE_HASTA?PROG                -----    -----      -----    -----      0074H    0002H
  +--> ?CO?PROG
  +--> ?PR?PRINTF?PRINTF
  +--> ?PR?_RD_EEPROM?EEPROM

?PR?_HEX_ASCII?CLOCK                             -----    -----      -----    -----      005DH    0006H
  +--> ?PR?_HEX_BCD?CLOCK

?PR?SHOW?PROG                                    -----    -----      -----    -----      -----    -----
  +--> ?CO?PROG
  +--> ?PR?PRINTF?PRINTF

?PR?PROG_FECHA_VENCIMIENTO?PROG                  -----    -----      -----    -----      0046H    0017H
  +--> ?PR?_LEERMEMORIA?EEPROM
  +--> ?PR?_HEX_ASCII?CLOCK
  +--> ?CO?PROG
  +--> ?PR?PRINTF?PRINTF
  +--> ?PR?_HASH_ID?PROG
  +--> ?PR?_INGRESADATO?PROG
  +--> ?PR?_GETCMD?PROG
  +--> ?PR?_ESCRIBIRMEMORIA?EEPROM
  +--> ?PR?_VALIDARCLAVE?PROG
  +--> ?PR?_ATOI?ATOI
  +--> ?PR?_WR_EEPROM?EEPROM

?PR?VARIABLE_INICIO?MAIN                         -----    -----      -----    -----      -----    -----
  +--> ?PR?_RD_EEPROM?EEPROM

?PR?SECUENCIA_INICIO_EXPEDIDOR?VERIFI...         -----    -----      -----    -----      0001H    0001H
  +--> ?PR?_INICIALIZA?LINTECH
  +--> ?PR?TRAMA_VALIDACION_P_N?VERIFICADOR
  +--> ?CO?VERIFICADOR
  +--> ?PR?_DEBUG_TXT_TIBBO?TIBBO
  +--> ?PR?_DEBUGBUFFERMF?TIBBO
  +--> ?PR?DWLOAD_EEPROM?LINTECH

?PR?_INICIALIZA?LINTECH                          -----    -----      -----    -----      0002H    000CH
  +--> ?CO?LINTECH
  +--> ?PR?_DEBUG_TXT_TIBBO?TIBBO
  +--> ?PR?_DEBUGBUFFERMF?TIBBO
  +--> ?PR?_ESCRIBIRCADENASOFT_BUFFER?MAIN

?PR?_DEBUG_TXT_TIBBO?TIBBO                       -----    -----      -----    -----      004EH    0004H
  +--> ?PR?_DEBUG_CHR_TIBBO?TIBBO
  +--> ?CO?TIBBO
  +--> ?PR?_TX_AUX?TIBBO

?PR?_DEBUG_CHR_TIBBO?TIBBO                       -----    -----      -----    -----      -----    -----
  +--> ?PR?_TX_AUX?TIBBO

BL51 BANKED LINKER/LOCATER V6.22.2.0                                                  05/14/2021  10:23:20  PAGE 14


?PR?_DEBUGBUFFERMF?TIBBO                         -----    -----      -----    -----      0027H    0006H
  +--> ?CO?TIBBO
  +--> ?PR?_DEBUG_TXT_TIBBO?TIBBO
  +--> ?PR?_DEBUG_CHR_TIBBO?TIBBO
  +--> ?PR?_TX_AUX?TIBBO

?PR?_ESCRIBIRCADENASOFT_BUFFER?MAIN              -----    -----      -----    -----      0027H    0006H
  +--> ?PR?_PUTCHAR?MAIN

?PR?TRAMA_VALIDACION_P_N?VERIFICADOR             -----    -----      -----    -----      -----    -----
  +--> ?CO?VERIFICADOR
  +--> ?PR?_DEBUG_TXT_TIBBO?TIBBO

?PR?DWLOAD_EEPROM?LINTECH                        -----    -----      -----    -----      0002H    0016H
  +--> ?CO?LINTECH
  +--> ?PR?_DEBUG_TXT_TIBBO?TIBBO
  +--> ?PR?_DEBUGBUFFERMF?TIBBO
  +--> ?PR?_ESCRIBIRCADENASOFT_BUFFER?MAIN

?PR?RX_MONITOR?MONITOR                           -----    -----      -----    -----      0009H    000DH
  +--> ?PR?_RECIBE_CMD_MONITOR?MONITOR
  +--> ?PR?_DEBUG_MONITOR?TIBBO
  +--> ?PR?_VALIDA_TRAMA_MONITOR?MONITOR

?PR?_RECIBE_CMD_MONITOR?MONITOR                  -----    -----      -----    -----      0016H    0009H
  +--> ?PR?RX_DATA?TIBBO

?PR?RX_DATA?TIBBO                                -----    -----      -----    -----      -----    -----
  +--> ?PR?TIME_MBIT?TIBBO
  +--> ?PR?TIME_BIT?TIBBO

?PR?_DEBUG_MONITOR?TIBBO                         -----    -----      -----    -----      0016H    0004H
  +--> ?PR?DEBUG_DIVIDIR_TEXTO?TIBBO
  +--> ?CO?TIBBO
  +--> ?PR?_DEBUG_TXT_TIBBO?TIBBO

?PR?DEBUG_DIVIDIR_TEXTO?TIBBO                    -----    -----      -----    -----      -----    -----
  +--> ?CO?TIBBO
  +--> ?PR?_DEBUG_TXT_TIBBO?TIBBO

?PR?_VALIDA_TRAMA_MONITOR?MONITOR                -----    -----      -----    -----      0016H    0006H
  +--> ?PR?_DELAY_10MS?DELAY
  +--> ?PR?_TX_AUX?TIBBO

?PR?_DELAY_10MS?DELAY                            -----    -----      -----    -----      001CH    0004H
  +--> ?PR?_DELAY_1MS?DELAY

?PR?_SECUENCIAEXPEDIDORMF?VERIFICADOR            -----    -----      -----    -----      0001H    0001H
  +--> ?PR?_CHECK_STATUS?LINTECH
  +--> ?PR?_LOAD_SECUENCIA_EXPEDIDOR?VERIFIC...
  +--> ?PR?RX_MONITOR?MONITOR
  +--> ?PR?_RTA_CMD_TRANSPORTE?VERIFICADOR
  +--> ?PR?_MOV_CARD?LINTECH
  +--> ?PR?_CARD_INSERCION?LINTECH
  +--> ?PR?AUT_CARD_CHECK_STATUS?LINTECH
  +--> ?PR?LOADVERIFY_EEPROM?LINTECH
  +--> ?PR?_RD_MF?LINTECH
BL51 BANKED LINKER/LOCATER V6.22.2.0                                                  05/14/2021  10:23:20  PAGE 15


  +--> ?PR?_WR_MF?LINTECH
  +--> ?PR?ANALIZA_CARD_MOUNT_RF?VERIFICADOR
  +--> ?PR?DWLOAD_EEPROM?LINTECH
  +--> ?PR?ENTREGA_CARD_CAPTURA?VERIFICADOR
  +--> ?PR?_SEND_PTO_PARALELO?VERIFICADOR
  +--> ?PR?_WAIT_PLACA?VERIFICADOR
  +--> ?PR?UNIQUE_IDENTIFIER_UID?LINTECH
  +--> ?PR?_PREGUNTA_LPR?VERIFICADOR
  +--> ?PR?PREGUNTA_PLACA?VERIFICADOR
  +--> ?PR?_VALIDA_TIPO_TARJETA?VERIFICADOR
  +--> ?PR?POWER_OFF?LINTECH
  +--> ?PR?CLAVE_SEGURIDAD_S2?LINTECH
  +--> ?PR?RESPONDE_ESTADO_SENSORES_TRANSPOR...
  +--> ?PR?RESPONDE_TIPO_TARJETA?VERIFICADOR
  +--> ?PR?_RESPONDE_LECTURA_TARJETA_SECTOR1...
  +--> ?PR?_RESPONDE_LECTURA_TARJETA_SECTOR1...
  +--> ?PR?_RESPONDE_LECTURA_TARJETA_SECTOR1...
  +--> ?PR?_RESPONDE_WRITE_TARJETA_SECTOR1_B...
  +--> ?PR?_RESPONDE_WRITE_TARJETA_SECTOR2_B...
  +--> ?PR?_RESPONDE_WRITE_TARJETA_SECTOR1_B...
  +--> ?PR?_RESPONDE_WRITE_TARJETA_SECTOR1_B...
  +--> ?PR?_DISPARO_LOCK_ENTRADA_VEHICULO?VE...
  +--> ?PR?_RESPUESTA_SEGUNDA_CLAVE?VERIFICADOR
  +--> ?PR?ANALIZA_PRESENCIA_MENSUAL?VERIFIC...
  +--> ?PR?_ANALIZA_UID_CARD?VERIFICADOR
  +--> ?PR?ANALIZA_PRESENCIA_ROTACION?VERIFI...
  +--> ?CO?VERIFICADOR
  +--> ?PR?_DEBUG_TXT_TIBBO?TIBBO

?PR?_CHECK_STATUS?LINTECH                        -----    -----      -----    -----      0002H    000BH
  +--> ?CO?LINTECH
  +--> ?PR?_DEBUG_TXT_TIBBO?TIBBO
  +--> ?PR?_DEBUGBUFFERMF?TIBBO
  +--> ?PR?_ESCRIBIRCADENASOFT_BUFFER?MAIN

?PR?_LOAD_SECUENCIA_EXPEDIDOR?VERIFIC...         -----    -----      -----    -----      0002H    0009H

?PR?_RTA_CMD_TRANSPORTE?VERIFICADOR              -----    -----      -----    -----      0002H    0005H
  +--> ?PR?TRAMA_VALIDACION_P_N?VERIFICADOR
  +--> ?CO?VERIFICADOR
  +--> ?PR?_DEBUG_TXT_TIBBO?TIBBO
  +--> ?PR?_DEBUGBUFFERMF?TIBBO
  +--> ?PR?ERROR_RX_PTO?VERIFICADOR

?PR?ERROR_RX_PTO?VERIFICADOR                     -----    -----      -----    -----      0007H    0001H
  +--> ?CO?VERIFICADOR
  +--> ?PR?_DEBUG_TXT_TIBBO?TIBBO
  +--> ?PR?_DEBUG_CHR_TIBBO?TIBBO
  +--> ?PR?_DELAY_10MS?DELAY

?PR?_MOV_CARD?LINTECH                            -----    -----      -----    -----      0002H    000CH
  +--> ?CO?LINTECH
  +--> ?PR?_DEBUG_TXT_TIBBO?TIBBO
  +--> ?PR?_DEBUGBUFFERMF?TIBBO
  +--> ?PR?_ESCRIBIRCADENASOFT_BUFFER?MAIN

?PR?_CARD_INSERCION?LINTECH                      -----    -----      -----    -----      0002H    000AH
BL51 BANKED LINKER/LOCATER V6.22.2.0                                                  05/14/2021  10:23:20  PAGE 16


  +--> ?CO?LINTECH
  +--> ?PR?_DEBUG_TXT_TIBBO?TIBBO
  +--> ?PR?_DEBUGBUFFERMF?TIBBO
  +--> ?PR?_ESCRIBIRCADENASOFT_BUFFER?MAIN

?PR?AUT_CARD_CHECK_STATUS?LINTECH                -----    -----      -----    -----      0002H    000BH
  +--> ?CO?LINTECH
  +--> ?PR?_DEBUG_TXT_TIBBO?TIBBO
  +--> ?PR?_DEBUGBUFFERMF?TIBBO
  +--> ?PR?_ESCRIBIRCADENASOFT_BUFFER?MAIN

?PR?LOADVERIFY_EEPROM?LINTECH                    -----    -----      -----    -----      0002H    0010H
  +--> ?CO?LINTECH
  +--> ?PR?_DEBUG_TXT_TIBBO?TIBBO
  +--> ?PR?_DEBUGBUFFERMF?TIBBO
  +--> ?PR?_ESCRIBIRCADENASOFT_BUFFER?MAIN

?PR?_RD_MF?LINTECH                               -----    -----      -----    -----      0002H    0012H
  +--> ?CO?LINTECH
  +--> ?PR?_DEBUG_TXT_TIBBO?TIBBO
  +--> ?PR?_DEBUG_CHR_TIBBO?TIBBO
  +--> ?PR?_DEBUGBUFFERMF?TIBBO
  +--> ?PR?_ESCRIBIRCADENASOFT_BUFFER?MAIN

?PR?_WR_MF?LINTECH                               -----    -----      -----    -----      0002H    0025H
  +--> ?CO?LINTECH
  +--> ?PR?_DEBUG_TXT_TIBBO?TIBBO
  +--> ?PR?_DEBUG_CHR_TIBBO?TIBBO
  +--> ?PR?_DEBUGBUFFERMF?TIBBO
  +--> ?PR?_ESCRIBIRCADENASOFT_BUFFER?MAIN

?PR?ANALIZA_CARD_MOUNT_RF?VERIFICADOR            -----    -----      -----    -----      0002H    0001H
  +--> ?CO?VERIFICADOR
  +--> ?PR?_DEBUG_TXT_TIBBO?TIBBO

?PR?ENTREGA_CARD_CAPTURA?VERIFICADOR             -----    -----      -----    -----      0002H    0001H
  +--> ?CO?VERIFICADOR
  +--> ?PR?_DEBUG_TXT_TIBBO?TIBBO
  +--> ?PR?SEL_SENSOR2?IO_SENSORES
  +--> ?PR?VALIDASENSOR?IO_SENSORES
  +--> ?PR?VALIDA_SENSOR1_AUTO?IO_SENSORES

?PR?VALIDA_SENSOR1_AUTO?IO_SENSORES              -----    -----      -----    -----      0011H    0001H
  +--> ?PR?SEL_SENSOR1?IO_SENSORES
  +--> ?PR?SEL_AUTO?IO_SENSORES
  +--> ?CO?IO_SENSORES
  +--> ?PR?_DEBUG_TXT_TIBBO?TIBBO
  +--> ?PR?BOTTON?IO_SENSORES

?PR?BOTTON?IO_SENSORES                           -----    -----      -----    -----      -----    -----
  +--> ?PR?SEL_PULSA?IO_SENSORES
  +--> ?CO?IO_SENSORES
  +--> ?PR?_DEBUG_TXT_TIBBO?TIBBO

?PR?_SEND_PTO_PARALELO?VERIFICADOR               -----    -----      -----    -----      0002H    0004H
  +--> ?PR?_ARMAR_TRAMA_PTO_PARALELO_EXPEDID...
  +--> ?PR?_ARMAR_TRAMA_PTO_PARALELO_EXPEDID...
BL51 BANKED LINKER/LOCATER V6.22.2.0                                                  05/14/2021  10:23:20  PAGE 17


  +--> ?PR?INCREMENTE_TICKET?EEPROM
  +--> ?PR?_SEND_PORT?PTO_PARALELO
  +--> ?CO?VERIFICADOR
  +--> ?PR?_DEBUG_TXT_TIBBO?TIBBO
  +--> ?PR?_DEBUGBUFFERMF?TIBBO
  +--> ?PR?CLEAR_PLACA?MONITOR

?PR?_ARMAR_TRAMA_PTO_PARALELO_EXPEDID...         -----    -----      -----    -----      0006H    0006H
  +--> ?PR?_BLOCK_READ_CLOCK_HEX?CLOCK
  +--> ?PR?_RD_EEPROM?EEPROM

?PR?_ARMAR_TRAMA_PTO_PARALELO_EXPEDID...         -----    -----      -----    -----      0006H    000FH
  +--> ?PR?LEE_NO_TICKET?EEPROM
  +--> ?PR?_STRCAT?STRCAT
  +--> ?PR?_STRLEN?STRLEN
  +--> ?PR?_BLOCK_READ_CLOCK_HEX?CLOCK
  +--> ?PR?_RD_EEPROM?EEPROM

?PR?LEE_NO_TICKET?EEPROM                         -----    -----      -----    -----      0043H    000BH
  +--> ?PR?READ_EEPROM_TICKET?EEPROM
  +--> ?CO?EEPROM
  +--> ?PR?PRINTF?PRINTF
  +--> ?PR?_STRLEN?STRLEN
  +--> ?PR?_DEBUG_TXT_TIBBO?TIBBO

?PR?READ_EEPROM_TICKET?EEPROM                    -----    -----      -----    -----      004EH    0007H
  +--> ?PR?_RD_EEPROM?EEPROM

?PR?INCREMENTE_TICKET?EEPROM                     -----    -----      -----    -----      0006H    000BH
  +--> ?PR?READ_EEPROM_TICKET?EEPROM
  +--> ?CO?EEPROM
  +--> ?PR?PRINTF?PRINTF
  +--> ?PR?_WRITE_EEPROM_TICKET?EEPROM

?PR?_WRITE_EEPROM_TICKET?EEPROM                  -----    -----      -----    -----      0015H    000BH
  +--> ?CO?EEPROM
  +--> ?PR?_DEBUG_TXT_TIBBO?TIBBO
  +--> ?PR?_ATOL?ATOL
  +--> ?PR?_DEBUG_CHR_TIBBO?TIBBO
  +--> ?PR?_WR_EEPROM?EEPROM

?PR?_ATOL?ATOL                                   0020H.0  0000H.1    -----    -----      0020H    0007H
  +--> ?PR?_ISSPACE?ISSPACE
  +--> ?PR?_ISDIGIT?ISDIGIT

?PR?_SEND_PORT?PTO_PARALELO                      -----    -----      -----    -----      0016H    000AH
  +--> ?PR?PULSO_BUS?PTO_PARALELO
  +--> ?PR?_DELAY_20US?DELAY

?PR?PULSO_BUS?PTO_PARALELO                       -----    -----      -----    -----      -----    -----
  +--> ?PR?_DELAY_20US?DELAY

?PR?_WAIT_PLACA?VERIFICADOR                      -----    -----      -----    -----      0002H    0007H
  +--> ?CO?VERIFICADOR
  +--> ?PR?_DEBUG_TXT_TIBBO?TIBBO
  +--> ?PR?RX_MONITOR?MONITOR
  +--> ?PR?_RESPUESTA_PLACA_CANCEL?VERIFICADOR
BL51 BANKED LINKER/LOCATER V6.22.2.0                                                  05/14/2021  10:23:20  PAGE 18



?PR?_RESPUESTA_PLACA_CANCEL?VERIFICADOR          -----    -----      -----    -----      0009H    000AH
  +--> ?CO?VERIFICADOR
  +--> ?PR?_DEBUG_TXT_TIBBO?TIBBO
  +--> ?PR?_ARMAR_TRAMA_TARJETA_SECTOR1_BLOQ...

?PR?_ARMAR_TRAMA_TARJETA_SECTOR1_BLOQ...         -----    -----      -----    -----      0013H    0004H
  +--> ?PR?CLEAR_PLACA?MONITOR
  +--> ?PR?_RD_EEPROM?EEPROM

?PR?UNIQUE_IDENTIFIER_UID?LINTECH                -----    -----      -----    -----      0002H    000BH
  +--> ?CO?LINTECH
  +--> ?PR?_DEBUG_TXT_TIBBO?TIBBO
  +--> ?PR?_DEBUGBUFFERMF?TIBBO
  +--> ?PR?_ESCRIBIRCADENASOFT_BUFFER?MAIN

?PR?_PREGUNTA_LPR?VERIFICADOR                    -----    -----      -----    -----      0002H    0003H
  +--> ?CO?VERIFICADOR
  +--> ?PR?_DEBUG_TXT_TIBBO?TIBBO
  +--> ?PR?_RD_EEPROM?EEPROM
  +--> ?PR?_ARMAR_TRAMA_MONITOR?VERIFICADOR

?PR?_ARMAR_TRAMA_MONITOR?VERIFICADOR             -----    -----      -----    -----      0005H    000FH
  +--> ?PR?DIR_BOARD_MONITOR?IO_SENSORES
  +--> ?PR?LEE_NO_TICKET?EEPROM
  +--> ?PR?_STRCAT?STRCAT
  +--> ?PR?_BYTEHEX_DECIMAL?CLOCK
  +--> ?PR?_STRLEN?STRLEN
  +--> ?PR?_TWO_BYTEHEX_DECIMAL?CLOCK
  +--> ?PR?_BLOCK_READ_CLOCK_ASCII?CLOCK

?PR?DIR_BOARD_MONITOR?IO_SENSORES                -----    -----      -----    -----      -----    -----
  +--> ?PR?_RD_EEPROM?EEPROM

?PR?_BYTEHEX_DECIMAL?CLOCK                       -----    -----      -----    -----      0014H    0001H

?PR?_TWO_BYTEHEX_DECIMAL?CLOCK                   -----    -----      -----    -----      0014H    000CH
  +--> ?PR?_POW?POW

?PR?_POW?POW                                     -----    -----      -----    -----      0020H    000AH
  +--> ?PR?LOG?LOG
  +--> ?PR?EXP?EXP

?PR?LOG?LOG                                      0020H.0  0000H.1    -----    -----      002AH    0004H

?PR?PREGUNTA_PLACA?VERIFICADOR                   -----    -----      -----    -----      0002H    0001H
  +--> ?CO?VERIFICADOR
  +--> ?PR?_DEBUG_TXT_TIBBO?TIBBO
  +--> ?PR?_RD_EEPROM?EEPROM

?PR?_VALIDA_TIPO_TARJETA?VERIFICADOR             -----    -----      -----    -----      0002H    0007H
  +--> ?CO?VERIFICADOR
  +--> ?PR?_DEBUG_TXT_TIBBO?TIBBO
  +--> ?PR?_RD_EEPROM?EEPROM
  +--> ?PR?_TARJETA_MENSUAL?VERIFICADOR
  +--> ?PR?_SEND_PORTERR?PTO_PARALELO
  +--> ?PR?_PANTALLALCD?PANTALLAS
BL51 BANKED LINKER/LOCATER V6.22.2.0                                                  05/14/2021  10:23:20  PAGE 19


  +--> ?PR?CAPTURA_EXPULSA?VERIFICADOR
  +--> ?PR?_TARJETA_ROTACION?VERIFICADOR

?PR?_TARJETA_MENSUAL?VERIFICADOR                 -----    -----      -----    -----      0009H    0007H
  +--> ?PR?_HORARIOS?VERIFICADOR
  +--> ?PR?_CHECK_FECHAOUT?CLOCK
  +--> ?PR?_VALIDA_VEHICULO_CARD_MENSUAL?VER...
  +--> ?PR?CAPTURA_EXPULSA?VERIFICADOR
  +--> ?CO?VERIFICADOR
  +--> ?PR?_DEBUG_TXT_TIBBO?TIBBO
  +--> ?PR?_ARMAR_TRAMA_TARJETA_SECTOR1_BLOQ...
  +--> ?PR?_SEND_PORTERR?PTO_PARALELO
  +--> ?PR?_PANTALLALCD?PANTALLAS

?PR?_HORARIOS?VERIFICADOR                        -----    -----      -----    -----      0010H    0013H
  +--> ?PR?ADDR_HORARIOS?PROG
  +--> ?PR?_RD_EEPROM?EEPROM
  +--> ?PR?_LEE_CLK?CLOCK
  +--> ?CO?VERIFICADOR
  +--> ?PR?_DEBUG_TXT_TIBBO?TIBBO
  +--> ?PR?_DEBUG_CHR_TIBBO?TIBBO
  +--> ?PR?_BLOQUE_HORARIO?VERIFICADOR
  +--> ?PR?_PANTALLALCD?PANTALLAS

?PR?_BLOQUE_HORARIO?VERIFICADOR                  -----    -----      -----    -----      0023H    0007H
  +--> ?CO?VERIFICADOR
  +--> ?PR?_DEBUG_TXT_TIBBO?TIBBO
  +--> ?PR?_LEE_CLK?CLOCK
  +--> ?PR?_DEBUG_CHR_TIBBO?TIBBO
  +--> ?PR?_HORA_MAXIMA?VERIFICADOR
  +--> ?PR?_EN_HORARIO?VERIFICADOR
  +--> ?PR?_RD_EEPROM?EEPROM
  +--> ?PR?_SEND_PORTERR?PTO_PARALELO
  +--> ?PR?_PANTALLALCD?PANTALLAS

?PR?_HORA_MAXIMA?VERIFICADOR                     -----    -----      -----    -----      002FH    0008H
  +--> ?PR?_RD_EEPROM?EEPROM
  +--> ?PR?_DEBUG_CHR_TIBBO?TIBBO
  +--> ?CO?VERIFICADOR
  +--> ?PR?_DEBUG_TXT_TIBBO?TIBBO

?PR?_EN_HORARIO?VERIFICADOR                      -----    -----      -----    -----      002AH    0005H
  +--> ?CO?VERIFICADOR
  +--> ?PR?_DEBUG_TXT_TIBBO?TIBBO
  +--> ?PR?_HORA_MAXIMA?VERIFICADOR

?PR?_SEND_PORTERR?PTO_PARALELO                   -----    -----      -----    -----      002AH    0006H
  +--> ?PR?PULSO_BUS?PTO_PARALELO
  +--> ?PR?_DELAY_20US?DELAY

?PR?_PANTALLALCD?PANTALLAS                       -----    -----      -----    -----      002AH    000AH
  +--> ?CO?PANTALLAS
  +--> ?PR?_LCD_TXT?PANTALLAS
  +--> ?PR?_STRLEN?STRLEN
  +--> ?PR?_TX_CHRLCD?PANTALLAS
  +--> ?PR?_RASPBERRY_DATA?PANTALLAS

BL51 BANKED LINKER/LOCATER V6.22.2.0                                                  05/14/2021  10:23:20  PAGE 20


?PR?_LCD_TXT?PANTALLAS                           -----    -----      -----    -----      0043H    0005H
  +--> ?PR?_TX_CHRLCD?PANTALLAS

?PR?_TX_CHRLCD?PANTALLAS                         -----    -----      -----    -----      0048H    0002H
  +--> ?PR?_PUTCHAR?MAIN

?PR?_RASPBERRY_DATA?PANTALLAS                    -----    -----      -----    -----      0043H    0006H
  +--> ?PR?_STRLEN?STRLEN
  +--> ?PR?_PUTCHAR?MAIN

?PR?_VALIDA_VEHICULO_CARD_MENSUAL?VER...         -----    -----      -----    -----      0010H    0004H
  +--> ?CO?VERIFICADOR
  +--> ?PR?_DEBUG_TXT_TIBBO?TIBBO
  +--> ?PR?_RD_EEPROM?EEPROM
  +--> ?PR?_SEND_PORTERR?PTO_PARALELO

?PR?_ARMAR_TRAMA_TARJETA_SECTOR1_BLOQ...         -----    -----      -----    -----      0010H    0006H
  +--> ?PR?_BLOCK_READ_CLOCK_HEX?CLOCK
  +--> ?PR?DIR_BOARD?IO_SENSORES

?PR?DIR_BOARD?IO_SENSORES                        -----    -----      -----    -----      0032H    0001H
  +--> ?PR?SEL_DIR1?IO_SENSORES
  +--> ?PR?SEL_DIR2?IO_SENSORES
  +--> ?PR?_RD_EEPROM?EEPROM

?PR?_TARJETA_ROTACION?VERIFICADOR                -----    -----      -----    -----      0009H    0006H
  +--> ?PR?_ARMAR_TRAMA_TARJETA_SECTOR1_BLOQ...

?PR?POWER_OFF?LINTECH                            -----    -----      -----    -----      0002H    000BH
  +--> ?CO?LINTECH
  +--> ?PR?_DEBUG_TXT_TIBBO?TIBBO
  +--> ?PR?_DEBUGBUFFERMF?TIBBO
  +--> ?PR?_ESCRIBIRCADENASOFT_BUFFER?MAIN

?PR?CLAVE_SEGURIDAD_S2?LINTECH                   -----    -----      -----    -----      0002H    0016H
  +--> ?CO?LINTECH
  +--> ?PR?_DEBUG_TXT_TIBBO?TIBBO
  +--> ?PR?_DEBUGBUFFERMF?TIBBO
  +--> ?PR?_ESCRIBIRCADENASOFT_BUFFER?MAIN

?PR?RESPONDE_ESTADO_SENSORES_TRANSPOR...         -----    -----      -----    -----      0002H    0001H
  +--> ?CO?VERIFICADOR
  +--> ?PR?_DEBUG_TXT_TIBBO?TIBBO
  +--> ?PR?_SEND_PORTERR?PTO_PARALELO
  +--> ?PR?INGRESO_VEHICULO?VERIFICADOR

?PR?INGRESO_VEHICULO?VERIFICADOR                 -----    -----      -----    -----      -----    -----
  +--> ?PR?VALIDASENSORESPASO?IO_SENSORES
  +--> ?PR?_RD_EEPROM?EEPROM
  +--> ?CO?VERIFICADOR
  +--> ?PR?_DEBUG_TXT_TIBBO?TIBBO
  +--> ?PR?_PANTALLALCD?PANTALLAS
  +--> ?PR?BOTTON?IO_SENSORES

?PR?VALIDASENSORESPASO?IO_SENSORES               -----    -----      -----    -----      0010H    0001H
  +--> ?PR?SEL_SENSOR2?IO_SENSORES
  +--> ?PR?VALIDASENSOR?IO_SENSORES
BL51 BANKED LINKER/LOCATER V6.22.2.0                                                  05/14/2021  10:23:20  PAGE 21


  +--> ?PR?VALIDA_SENSOR1_AUTO?IO_SENSORES
  +--> ?CO?IO_SENSORES
  +--> ?PR?_DEBUG_TXT_TIBBO?TIBBO

?PR?RESPONDE_TIPO_TARJETA?VERIFICADOR            -----    -----      -----    -----      0002H    0001H
  +--> ?CO?VERIFICADOR
  +--> ?PR?_DEBUG_TXT_TIBBO?TIBBO
  +--> ?PR?_SEND_PORTERR?PTO_PARALELO
  +--> ?PR?_PANTALLALCD?PANTALLAS
  +--> ?PR?CAPTURA_EXPULSA?VERIFICADOR

?PR?_RESPONDE_LECTURA_TARJETA_SECTOR1...         -----    -----      -----    -----      0002H    0016H
  +--> ?CO?VERIFICADOR
  +--> ?PR?_DEBUG_TXT_TIBBO?TIBBO
  +--> ?PR?_DEBUGBUFFERMF?TIBBO
  +--> ?PR?_RD_EEPROM?EEPROM
  +--> ?PR?_DEBUG_HEXDEC?TIBBO
  +--> ?PR?_DEBUG_CHR_TIBBO?TIBBO
  +--> ?PR?_SEND_PORTERR?PTO_PARALELO
  +--> ?PR?_PANTALLALCD?PANTALLAS
  +--> ?PR?CAPTURA_EXPULSA?VERIFICADOR

?PR?_DEBUG_HEXDEC?TIBBO                          -----    -----      -----    -----      0018H    0002H
  +--> ?PR?_TX_AUX?TIBBO

?PR?_RESPONDE_LECTURA_TARJETA_SECTOR1...         -----    -----      -----    -----      0002H    0004H
  +--> ?CO?VERIFICADOR
  +--> ?PR?_DEBUG_TXT_TIBBO?TIBBO
  +--> ?PR?CAPTURA_EXPULSA?VERIFICADOR

?PR?_RESPONDE_LECTURA_TARJETA_SECTOR1...         -----    -----      -----    -----      0002H    0015H
  +--> ?CO?VERIFICADOR
  +--> ?PR?_DEBUG_TXT_TIBBO?TIBBO
  +--> ?PR?_DEBUGBUFFERMF?TIBBO
  +--> ?PR?_DEBUG_CHR_TIBBO?TIBBO
  +--> ?PR?CAPTURA_EXPULSA?VERIFICADOR

?PR?_RESPONDE_WRITE_TARJETA_SECTOR1_B...         -----    -----      -----    -----      0002H    0007H
  +--> ?CO?VERIFICADOR
  +--> ?PR?_DEBUG_TXT_TIBBO?TIBBO
  +--> ?PR?_DEBUGBUFFERMF?TIBBO
  +--> ?PR?_ARMAR_TRAMA_TARJETA_SECTOR1_BLOQ...

?PR?_ARMAR_TRAMA_TARJETA_SECTOR1_BLOQ...         -----    -----      -----    -----      0009H    0003H
  +--> ?PR?LEE_NO_TICKET?EEPROM

?PR?_RESPONDE_WRITE_TARJETA_SECTOR2_B...         -----    -----      -----    -----      0002H    0003H
  +--> ?CO?VERIFICADOR
  +--> ?PR?_DEBUG_TXT_TIBBO?TIBBO
  +--> ?PR?_DEBUGBUFFERMF?TIBBO

?PR?_RESPONDE_WRITE_TARJETA_SECTOR1_B...         -----    -----      -----    -----      0002H    0003H
  +--> ?CO?VERIFICADOR
  +--> ?PR?_DEBUG_TXT_TIBBO?TIBBO
  +--> ?PR?_DEBUGBUFFERMF?TIBBO

?PR?_RESPONDE_WRITE_TARJETA_SECTOR1_B...         -----    -----      -----    -----      0002H    0003H
BL51 BANKED LINKER/LOCATER V6.22.2.0                                                  05/14/2021  10:23:20  PAGE 22


  +--> ?CO?VERIFICADOR
  +--> ?PR?_DEBUG_TXT_TIBBO?TIBBO
  +--> ?PR?_DEBUGBUFFERMF?TIBBO

?PR?_DISPARO_LOCK_ENTRADA_VEHICULO?VE...         -----    -----      -----    -----      0002H    0004H
  +--> ?CO?VERIFICADOR
  +--> ?PR?_DEBUG_TXT_TIBBO?TIBBO
  +--> ?PR?_SEND_PORTERR?PTO_PARALELO
  +--> ?PR?_PANTALLALCD_LINEA_2?PANTALLAS
  +--> ?PR?VALIDA_SENSOR1_AUTO?IO_SENSORES
  +--> ?PR?_PANTALLALCD?PANTALLAS

?PR?_PANTALLALCD_LINEA_2?PANTALLAS               -----    -----      -----    -----      0010H    0033H
  +--> ?CO?PANTALLAS
  +--> ?PR?_LCD_TXT?PANTALLAS
  +--> ?PR?_STRLEN?STRLEN
  +--> ?PR?_TX_CHRLCD?PANTALLAS
  +--> ?PR?_RASPBERRY_DATA?PANTALLAS
  +--> ?PR?LEE_NO_TICKET?EEPROM
  +--> ?PR?_STRCAT?STRCAT

?PR?_RESPUESTA_SEGUNDA_CLAVE?VERIFICADOR         -----    -----      -----    -----      0002H    0006H
  +--> ?CO?VERIFICADOR
  +--> ?PR?_DEBUG_TXT_TIBBO?TIBBO
  +--> ?PR?_DEBUGBUFFERMF?TIBBO
  +--> ?PR?_ARMAR_TRAMA_PLACA?VERIFICADOR

?PR?_ARMAR_TRAMA_PLACA?VERIFICADOR               -----    -----      -----    -----      0008H    0003H
  +--> ?PR?_STRLEN?STRLEN

?PR?ANALIZA_PRESENCIA_MENSUAL?VERIFIC...         -----    -----      -----    -----      0002H    0001H
  +--> ?PR?VALIDASENSORESPASO?IO_SENSORES
  +--> ?PR?_SEND_PORTERR?PTO_PARALELO
  +--> ?PR?_PANTALLALCD?PANTALLAS

?PR?_ANALIZA_UID_CARD?VERIFICADOR                -----    -----      -----    -----      0002H    0015H
  +--> ?CO?VERIFICADOR
  +--> ?PR?_DEBUG_TXT_TIBBO?TIBBO
  +--> ?PR?_DEBUGBUFFERMF?TIBBO
  +--> ?PR?_DEBUG_CHR_TIBBO?TIBBO

?PR?ANALIZA_PRESENCIA_ROTACION?VERIFI...         -----    -----      -----    -----      0002H    0001H
  +--> ?PR?VALIDASENSORESPASO?IO_SENSORES
  +--> ?PR?_SEND_PORTERR?PTO_PARALELO
  +--> ?PR?_PANTALLALCD?PANTALLAS

?PR?_RECIBE_PORT?PTO_PARALELO                    -----    -----      -----    -----      0001H    0008H
  +--> ?PR?OFF_TIMER0_INTERRUP?MAIN
  +--> ?PR?ON_TIMER0_INTERRUP?MAIN

?PR?_DEBUG_PTO_PARALELO?TIBBO                    -----    -----      -----    -----      0001H    0004H
  +--> ?CO?TIBBO
  +--> ?PR?_DEBUG_TXT_TIBBO?TIBBO
  +--> ?PR?_DEBUGBUFFERMF?TIBBO
  +--> ?PR?DEBUG_DIVIDIR_TEXTO?TIBBO

?PR?_VALIDA_TRAMA_PTO?ACCESCAN                   -----    -----      -----    -----      0001H    000FH
BL51 BANKED LINKER/LOCATER V6.22.2.0                                                  05/14/2021  10:23:20  PAGE 23


  +--> ?PR?_VALIDAR_CLK?CLOCK
  +--> ?PR?_BLOCK_WRITE_CLOCK_ASCII?CLOCK
  +--> ?PR?RELOJ_PANTALLA_LCD?PANTALLAS
  +--> ?PR?_PANTALLALCD?PANTALLAS
  +--> ?CO?ACCESCAN
  +--> ?PR?_DEBUG_TXT_TIBBO?TIBBO
  +--> ?PR?_BYTEHEX_DECIMAL?CLOCK
  +--> ?PR?_TWO_BYTEHEX_DECIMAL?CLOCK
  +--> ?PR?VALIDASENSORESPASO?IO_SENSORES
  +--> ?PR?_CMD_LPR_SALIDA_WIEGAND?ACCESCAN
  +--> ?PR?_PANTALLALCD_LINEA_2?PANTALLAS
  +--> ?PR?_GRABA_SERIE?EEPROM

?PR?_BLOCK_WRITE_CLOCK_ASCII?CLOCK               -----    -----      -----    -----      0010H    0003H
  +--> ?PR?_TWO_ONE?CLOCK
  +--> ?PR?_WR_CLK?CLOCK

?PR?_WR_CLK?CLOCK                                -----    -----      -----    -----      0013H    0002H
  +--> ?PR?_DELAY_20US?DELAY
  +--> ?PR?_EB_CLK?CLOCK

?PR?RELOJ_PANTALLA_LCD?PANTALLAS                 -----    -----      -----    -----      0010H    000DH
  +--> ?CO?PANTALLAS
  +--> ?PR?_BLOCK_READ_CLOCK?CLOCK
  +--> ?PR?_LCD_TXT_NUM_CHAR?PANTALLAS
  +--> ?PR?_BLOCK_READ_CLOCK_ASCII_RASBERRY?...
  +--> ?PR?_STRCAT?STRCAT
  +--> ?PR?_RASPBERRY_DATA?PANTALLAS

?PR?_BLOCK_READ_CLOCK?CLOCK                      -----    -----      -----    -----      001DH    0003H
  +--> ?PR?_LEE_CLK?CLOCK

?PR?_LCD_TXT_NUM_CHAR?PANTALLAS                  -----    -----      -----    -----      001DH    0006H
  +--> ?PR?_TX_CHRLCD?PANTALLAS

?PR?_BLOCK_READ_CLOCK_ASCII_RASBERRY?...         -----    -----      -----    -----      001DH    0003H
  +--> ?PR?_LEE_CLK?CLOCK

?PR?_CMD_LPR_SALIDA_WIEGAND?ACCESCAN             -----    -----      -----    -----      0010H    0022H
  +--> ?PR?DIR_BOARD?IO_SENSORES
  +--> ?PR?_BLOCK_READ_CLOCK_ASCII?CLOCK
  +--> ?PR?_MONITOR_CHR?ACCESCAN

?PR?_MONITOR_CHR?ACCESCAN                        -----    -----      -----    -----      0032H    0005H
  +--> ?PR?_TX_AUX?TIBBO

?PR?_GRABA_SERIE?EEPROM                          -----    -----      -----    -----      0010H    0005H
  +--> ?CO?EEPROM
  +--> ?PR?_DEBUG_TXT_TIBBO?TIBBO
  +--> ?PR?_WRITE_EEPROM_TICKET?EEPROM
  +--> ?PR?_WR_EEPROM?EEPROM

?PR?MSJ_LCD_INFORMATIVO?IO_SENSORES              -----    -----      -----    -----      0001H    0001H
  +--> ?PR?SEL_FUNCION?IO_SENSORES
  +--> ?PR?VALIDASENSOR_CERO?IO_SENSORES
  +--> ?PR?LOAD_AND_SEND_INFO_RELOJ?PTO_PARA...
  +--> ?PR?VALIDASENSOR?IO_SENSORES
BL51 BANKED LINKER/LOCATER V6.22.2.0                                                  05/14/2021  10:23:20  PAGE 24


  +--> ?PR?_DELAY_10MS?DELAY
  +--> ?PR?LOAD_AND_SEND_ID_COD?PTO_PARALELO

?PR?LOAD_AND_SEND_INFO_RELOJ?PTO_PARA...         -----    -----      -----    -----      0002H    000BH
  +--> ?PR?_BLOCK_READ_CLOCK?CLOCK
  +--> ?PR?_LEE_CLK?CLOCK
  +--> ?CO?PTO_PARALELO
  +--> ?PR?_DEBUG_TXT_TIBBO?TIBBO
  +--> ?PR?_DEBUGBUFFERMF?TIBBO
  +--> ?PR?DEBUG_DIVIDIR_TEXTO?TIBBO
  +--> ?PR?_SEND_PORT?PTO_PARALELO

?PR?LOAD_AND_SEND_ID_COD?PTO_PARALELO            -----    -----      -----    -----      0002H    0014H
  +--> ?PR?_RD_EEPROM?EEPROM
  +--> ?CO?PTO_PARALELO
  +--> ?PR?PRINTF?PRINTF
  +--> ?PR?_STRCAT?STRCAT
  +--> ?PR?_STRLEN?STRLEN
  +--> ?PR?_DEBUG_TXT_TIBBO?TIBBO
  +--> ?PR?_DEBUGBUFFERMF?TIBBO
  +--> ?PR?DEBUG_DIVIDIR_TEXTO?TIBBO
  +--> ?PR?_SEND_PORT?PTO_PARALELO



SYMBOL TABLE OF MODULE:  .\Objects\expedidor_v_01_raspberry (MAIN)

  VALUE           TYPE          NAME
  ----------------------------------

  -------         MODULE        MAIN
  C:0000H         SYMBOL        _ICE_DUMMY_
  D:0080H         PUBLIC        P0
  D:0090H         PUBLIC        P1
  C:B6ACH         PUBLIC        timer0_int
  D:00B0H         PUBLIC        P3
  B:00A8H.7       PUBLIC        EA
  C:BADEH         PUBLIC        off_Timer0_Interrup
  X:016BH         PUBLIC        ValTimeOutCom
  X:016CH         PUBLIC        Buffer_Rta_Lintech
  X:019EH         PUBLIC        Timer_wait
  B:0021H.1       PUBLIC        pto_paraleo
  X:019FH         PUBLIC        g_cContByteRx
  B:0080H.0       PUBLIC        rx_ip
  C:A683H         PUBLIC        main
  X:01A0H         PUBLIC        Timer_tivo
  B:0080H.3       PUBLIC        Atascado_GP0_PIN_3
  C:AD27H         PUBLIC        variable_inicio
  B:0090H.7       PUBLIC        lock
  I:0023H         PUBLIC        rbuf
  C:BACFH         PUBLIC        on_Timer0_Interrup
  I:0055H         PUBLIC        tbuf
  B:0090H.1       PUBLIC        DataIn
  D:0089H         PUBLIC        TMOD
  X:01A2H         PUBLIC        USE_LPR
  X:01A3H         PUBLIC        Debug_Tibbo
  X:01A4H         PUBLIC        Raspberry
BL51 BANKED LINKER/LOCATER V6.22.2.0                                                  05/14/2021  10:23:20  PAGE 25


  X:01A5H         PUBLIC        SIN_COBRO
  X:01A7H         PUBLIC        Tipo_Vehiculo
  B:00B0H.3       PUBLIC        busy
  C:BA30H         PUBLIC        ini_timer
  B:00A8H.1       PUBLIC        ET0
  B:0088H.5       PUBLIC        TF0
  D:008CH         PUBLIC        TH0
  X:01A8H         PUBLIC        ACK
  X:01A9H         PUBLIC        g_cEstadoComSoft
  D:008AH         PUBLIC        TL0
  B:0088H.4       PUBLIC        TR0
  C:BA40H         PUBLIC        inicia_board
  X:01AAH         PUBLIC        T_GRACIA
  B:0080H.7       PUBLIC        sel_com
  X:01ACH         PUBLIC        STX_LINTECH
  C:BA5FH         PUBLIC        _getkey
  X:01ADH         PUBLIC        ETX
  C:AFC3H         PUBLIC        _EscribirCadenaSoft_buffer
  B:0021H.2       PUBLIC        buffer_ready
  C:B2E5H         PUBLIC        _putchar
  B:0021H.3       PUBLIC        placa_ready
  -------         PROC          TIMER0_INT
  C:B6ACH         LINE#         16
  C:B6B2H         LINE#         19
  C:B6B8H         LINE#         20
  C:B6BDH         LINE#         21
  C:B6BDH         LINE#         22
  C:B6C3H         LINE#         23
  C:B6C3H         LINE#         25
  C:B6D1H         LINE#         26
  C:B6D3H         LINE#         28
  -------         ENDPROC       TIMER0_INT
  -------         PROC          INI_TIMER
  C:BA30H         LINE#         31
  C:BA30H         LINE#         32
  C:BA30H         LINE#         34
  C:BA38H         LINE#         36
  C:BA3BH         LINE#         37
  C:BA3DH         LINE#         38
  C:BA3FH         LINE#         40
  -------         ENDPROC       INI_TIMER
  -------         PROC          ON_TIMER0_INTERRUP
  C:BACFH         LINE#         43
  C:BACFH         LINE#         44
  C:BACFH         LINE#         45
  C:BAD1H         LINE#         46
  C:BAD3H         LINE#         48
  -------         ENDPROC       ON_TIMER0_INTERRUP
  -------         PROC          OFF_TIMER0_INTERRUP
  C:BADEH         LINE#         51
  C:BADEH         LINE#         52
  C:BADEH         LINE#         53
  C:BAE0H         LINE#         55
  -------         ENDPROC       OFF_TIMER0_INTERRUP
  -------         PROC          _GETKEY
  -------         DO            
  D:0006H         SYMBOL        k
BL51 BANKED LINKER/LOCATER V6.22.2.0                                                  05/14/2021  10:23:20  PAGE 26


  -------         ENDDO         
  C:BA5FH         LINE#         63
  C:BA5FH         LINE#         64
  C:BA5FH         LINE#         68
  C:BA5FH         LINE#         69
  C:BA62H         LINE#         70
  C:BA62H         LINE#         71
  C:BA6AH         LINE#         73
  C:BA6AH         LINE#         74
  -------         ENDPROC       _GETKEY
  -------         PROC          _PUTCHAR
  X:00A7H         SYMBOL        c
  -------         DO            
  X:00A8H         SYMBOL        i
  -------         ENDDO         
  C:B2E5H         LINE#         78
  C:B2EAH         LINE#         79
  C:B2EAH         LINE#         82
  C:B2F9H         LINE#         83
  C:B2F9H         LINE#         84
  C:B30FH         LINE#         85
  C:B30FH         LINE#         87
  C:B31DH         LINE#         88
  C:B31DH         LINE#         90
  C:B322H         LINE#         91
  -------         ENDPROC       _PUTCHAR
  -------         PROC          _ESCRIBIRCADENASOFT_BUFFER
  X:0027H         SYMBOL        buffer
  X:002AH         SYMBOL        tamano_cadena
  -------         DO            
  X:002BH         SYMBOL        i
  X:002CH         SYMBOL        d
  -------         ENDDO         
  C:AFC3H         LINE#         95
  C:AFD1H         LINE#         96
  C:AFD1H         LINE#         98
  C:AFDFH         LINE#         99
  C:AFDFH         LINE#         100
  C:AFF6H         LINE#         101
  C:B000H         LINE#         102
  C:B008H         LINE#         103
  -------         ENDPROC       _ESCRIBIRCADENASOFT_BUFFER
  -------         PROC          INICIA_BOARD
  C:BA40H         LINE#         108
  C:BA40H         LINE#         109
  C:BA40H         LINE#         110
  C:BA43H         LINE#         111
  C:BA46H         LINE#         112
  C:BA49H         LINE#         113
  C:BA4BH         LINE#         114
  C:BA4DH         LINE#         115
  C:BA4FH         LINE#         117
  -------         ENDPROC       INICIA_BOARD
  -------         PROC          VARIABLE_INICIO
  C:AD27H         LINE#         122
  C:AD27H         LINE#         123
  C:AD27H         LINE#         126
BL51 BANKED LINKER/LOCATER V6.22.2.0                                                  05/14/2021  10:23:20  PAGE 27


  C:AD38H         LINE#         127
  C:AD49H         LINE#         128
  C:AD57H         LINE#         129
  C:AD65H         LINE#         130
  C:AD73H         LINE#         132
  -------         ENDPROC       VARIABLE_INICIO
  -------         PROC          MAIN
  -------         DO            
  X:0142H         SYMBOL        buffer
  X:016AH         SYMBOL        Estado_Comunicacion_Secuencia_MF
  X:0000H         SYMBOL        Length_trama
  -------         ENDDO         
  C:A683H         LINE#         140
  C:A683H         LINE#         141
  C:A683H         LINE#         148
  C:A686H         LINE#         149
  C:A689H         LINE#         150
  C:A68CH         LINE#         151
  C:A68FH         LINE#         152
  C:A692H         LINE#         153
  C:A694H         LINE#         155
  C:A697H         LINE#         156
  C:A69EH         LINE#         157
  C:A6A1H         LINE#         159
  C:A6A6H         LINE#         161
  C:A6A9H         LINE#         163
  C:A6ACH         LINE#         164
  C:A6ACH         LINE#         165
  C:A6AFH         LINE#         166
  C:A6AFH         LINE#         169
  C:A6B2H         LINE#         170
  C:A6B8H         LINE#         171
  C:A6BEH         LINE#         173
  C:A6BEH         LINE#         174
  C:A6BEH         LINE#         177
  C:A6C1H         LINE#         178
  C:A6C1H         LINE#         179
  C:A6C4H         LINE#         180
  C:A6C4H         LINE#         184
  C:A6D1H         LINE#         189
  C:A6D7H         LINE#         190
  C:A6D7H         LINE#         192
  C:A6E6H         LINE#         195
  C:A6EFH         LINE#         196
  C:A6FDH         LINE#         201
  C:A6FDH         LINE#         202
  C:A700H         LINE#         206
  -------         ENDPROC       MAIN
  -------         ENDMOD        MAIN

  -------         MODULE        ACCESCAN
  C:0000H         SYMBOL        _ICE_DUMMY_
  D:0080H         PUBLIC        P0
  D:0090H         PUBLIC        P1
  B:0080H.2       PUBLIC        led_err_imp
  C:B1A4H         PUBLIC        _Monitor_chr
  B:0080H.3       PUBLIC        Atascado_GP0_PIN_3
BL51 BANKED LINKER/LOCATER V6.22.2.0                                                  05/14/2021  10:23:20  PAGE 28


  B:0090H.7       PUBLIC        lock
  C:3E5CH         PUBLIC        _Valida_Trama_Pto
  C:8343H         PUBLIC        _Cmd_LPR_Salida_wiegand
  -------         PROC          _VALIDA_TRAMA_PTO
  X:0001H         SYMBOL        buffer
  X:0004H         SYMBOL        length_trama
  -------         DO            
  X:0212H         SYMBOL        cont
  X:0005H         SYMBOL        buff
  -------         ENDDO         
  C:3E5CH         LINE#         106
  C:3E6AH         LINE#         107
  C:3E6AH         LINE#         113
  C:3EA0H         LINE#         114
  C:3EA0H         LINE#         115
  C:3EB5H         LINE#         116
  C:3EB5H         LINE#         117
  C:3EC8H         LINE#         119
  C:3ECBH         LINE#         121
  C:3ECBH         LINE#         123
  C:3ECBH         LINE#         126
  C:3EDDH         LINE#         127
  C:3EDDH         LINE#         128
  C:3EDFH         LINE#         129
  C:3EE2H         LINE#         131
  C:3EF4H         LINE#         132
  C:3EF4H         LINE#         133
  C:3EF6H         LINE#         134
  C:3EF9H         LINE#         136
  C:3F0BH         LINE#         137
  C:3F0BH         LINE#         138
  C:3F0DH         LINE#         139
  C:3F10H         LINE#         141
  C:3F2AH         LINE#         142
  C:3F2AH         LINE#         143
  C:3F2CH         LINE#         144
  C:3F2FH         LINE#         146
  C:3F49H         LINE#         147
  C:3F49H         LINE#         148
  C:3F4BH         LINE#         149
  C:3F4EH         LINE#         151
  C:3F60H         LINE#         152
  C:3F60H         LINE#         153
  C:3F66H         LINE#         154
  C:3F73H         LINE#         155
  C:3F73H         LINE#         156
  C:3F78H         LINE#         157
  C:3F7AH         LINE#         158
  C:3F7FH         LINE#         159
  C:3F81H         LINE#         160
  C:3F83H         LINE#         161
  C:3F87H         LINE#         162
  C:3F87H         LINE#         163
  C:3F88H         LINE#         165
  C:3FA0H         LINE#         166
  C:3FA0H         LINE#         168
  C:3FADH         LINE#         169
BL51 BANKED LINKER/LOCATER V6.22.2.0                                                  05/14/2021  10:23:20  PAGE 29


  C:3FADH         LINE#         170
  C:3FAFH         LINE#         171
  C:3FB1H         LINE#         172
  C:3FB3H         LINE#         173
  C:3FB5H         LINE#         174
  C:3FB5H         LINE#         176
  C:3FDBH         LINE#         177
  C:3FDBH         LINE#         178
  C:3FDFH         LINE#         179
  C:3FE4H         LINE#         180
  C:3FEDH         LINE#         181
  C:3FF2H         LINE#         182
  C:3FF2H         LINE#         185
  C:3FF3H         LINE#         187
  C:400DH         LINE#         188
  C:400DH         LINE#         189
  C:400FH         LINE#         190
  C:4012H         LINE#         192
  C:402CH         LINE#         193
  C:402CH         LINE#         194
  C:402EH         LINE#         195
  C:4031H         LINE#         197
  C:404BH         LINE#         198
  C:404BH         LINE#         199
  C:404DH         LINE#         200
  C:404FH         LINE#         202
  C:4069H         LINE#         203
  C:4069H         LINE#         204
  C:406BH         LINE#         205
  C:406DH         LINE#         208
  C:4087H         LINE#         209
  C:4087H         LINE#         210
  C:4089H         LINE#         211
  C:408BH         LINE#         215
  C:40A5H         LINE#         216
  C:40A5H         LINE#         217
  C:40A7H         LINE#         218
  C:40A9H         LINE#         221
  C:40C3H         LINE#         222
  C:40C3H         LINE#         223
  C:40C8H         LINE#         224
  C:40C8H         LINE#         227
  C:40F9H         LINE#         228
  C:40F9H         LINE#         229
  C:4101H         LINE#         230
  C:410AH         LINE#         231
  C:410DH         LINE#         234
  C:413EH         LINE#         235
  C:413EH         LINE#         237
  C:4146H         LINE#         238
  C:414FH         LINE#         239
  C:4152H         LINE#         242
  C:4192H         LINE#         243
  C:4192H         LINE#         245
  C:41A7H         LINE#         246
  C:41ADH         LINE#         247
  C:41D7H         LINE#         250
BL51 BANKED LINKER/LOCATER V6.22.2.0                                                  05/14/2021  10:23:20  PAGE 30


  C:41DFH         LINE#         251
  C:41DFH         LINE#         254
  C:41E6H         LINE#         255
  C:41E6H         LINE#         256
  C:41EBH         LINE#         257
  C:41EBH         LINE#         258
  C:41EDH         LINE#         260
  C:41EDH         LINE#         261
  C:41F6H         LINE#         262
  C:41FEH         LINE#         263
  C:41FEH         LINE#         267
  C:4200H         LINE#         270
  C:4200H         LINE#         278
  C:4208H         LINE#         282
  C:4208H         LINE#         283
  C:420AH         LINE#         285
  C:4242H         LINE#         286
  C:4242H         LINE#         287
  C:424AH         LINE#         288
  C:4256H         LINE#         289
  C:4256H         LINE#         291
  C:4283H         LINE#         292
  C:4283H         LINE#         293
  C:4292H         LINE#         295
  C:4292H         LINE#         297
  -------         ENDPROC       _VALIDA_TRAMA_PTO
  -------         PROC          _MONITOR_CHR
  X:0032H         SYMBOL        str
  X:0035H         SYMBOL        num_char
  -------         DO            
  X:0036H         SYMBOL        j
  -------         ENDDO         
  C:B1A4H         LINE#         452
  C:B1B2H         LINE#         453
  C:B1B2H         LINE#         455
  C:B1C0H         LINE#         456
  C:B1C0H         LINE#         457
  C:B1D2H         LINE#         458
  C:B1DCH         LINE#         459
  C:B1E4H         LINE#         460
  -------         ENDPROC       _MONITOR_CHR
  -------         PROC          _CMD_LPR_SALIDA_WIEGAND
  X:0010H         SYMBOL        buffer
  -------         DO            
  X:0013H         SYMBOL        Buffer_Lpr
  X:0031H         SYMBOL        j
  -------         ENDDO         
  C:8343H         LINE#         465
  C:834EH         LINE#         466
  C:834EH         LINE#         468
  C:8354H         LINE#         469
  C:8359H         LINE#         470
  C:8361H         LINE#         471
  C:8365H         LINE#         472
  C:836EH         LINE#         473
  C:836EH         LINE#         474
  C:837FH         LINE#         475
BL51 BANKED LINKER/LOCATER V6.22.2.0                                                  05/14/2021  10:23:20  PAGE 31


  C:8381H         LINE#         477
  C:8381H         LINE#         478
  C:8392H         LINE#         479
  C:8392H         LINE#         483
  C:83A9H         LINE#         484
  C:83A9H         LINE#         485
  C:83B8H         LINE#         486
  C:83C2H         LINE#         488
  C:83CAH         LINE#         489
  C:83DEH         LINE#         491
  C:83EEH         LINE#         492
  C:83FFH         LINE#         493
  C:840CH         LINE#         497
  -------         ENDPROC       _CMD_LPR_SALIDA_WIEGAND
  -------         ENDMOD        ACCESCAN

  -------         MODULE        CLOCK
  C:0000H         SYMBOL        _ICE_DUMMY_
  C:B219H         PUBLIC        _two_one
  D:0090H         PUBLIC        P1
  C:71DDH         PUBLIC        _validar_clk
  C:B704H         PUBLIC        _wr_clk
  C:881AH         PUBLIC        _check_fechaOut
  C:581DH         PUBLIC        _Block_read_clock_ascii_rasberry
  B:00D0H.7       PUBLIC        CY
  C:0003H         PUBLIC        p_ck
  C:9ABDH         PUBLIC        _hex_ascii
  X:0213H         PUBLIC        data_clk
  C:BA91H         PUBLIC        cond_ini_clock
  C:88E3H         PUBLIC        _Block_read_Clock
  B:0090H.4       PUBLIC        sck
  C:953BH         PUBLIC        _Block_read_Clock_Hex
  C:608FH         PUBLIC        _Block_read_clock_ascii
  C:B37DH         PUBLIC        _hex_bcd
  C:B91BH         PUBLIC        _bcd_hex
  C:AB01H         PUBLIC        _ByteHex_Decimal
  C:9D98H         PUBLIC        _lee_clk
  B:0090H.5       PUBLIC        io
  C:9E1EH         PUBLIC        _Block_write_clock_ascii
  B:0090H.6       PUBLIC        rst
  C:B2A6H         PUBLIC        _eb_clk
  C:45EFH         PUBLIC        _Two_ByteHex_Decimal
  -------         PROC          P_CK
  C:0003H         LINE#         48
  C:0003H         LINE#         49
  C:0003H         LINE#         50
  C:0005H         LINE#         51
  C:0008H         LINE#         52
  C:000AH         LINE#         53
  -------         ENDPROC       P_CK
  -------         PROC          _EB_CLK
  X:00B4H         SYMBOL        dir_clk
  -------         DO            
  X:00B5H         SYMBOL        nbits
  -------         ENDDO         
  C:B2A6H         LINE#         55
  C:B2ABH         LINE#         57
BL51 BANKED LINKER/LOCATER V6.22.2.0                                                  05/14/2021  10:23:20  PAGE 32


  C:B2B0H         LINE#         58
  C:B2B0H         LINE#         59
  C:B2B9H         LINE#         60
  C:B2BCH         LINE#         61
  C:B2BCH         LINE#         62
  C:B2BEH         LINE#         63
  C:B2C0H         LINE#         65
  C:B2C0H         LINE#         66
  C:B2C2H         LINE#         67
  C:B2C2H         LINE#         68
  C:B2C5H         LINE#         69
  C:B2E4H         LINE#         70
  -------         ENDPROC       _EB_CLK
  C:9D8FH         SYMBOL        L?0083
  -------         PROC          L?0082
  -------         ENDPROC       L?0082
  C:9D8FH         SYMBOL        L?0083
  -------         PROC          _LEE_CLK
  X:00B1H         SYMBOL        dir_clk
  -------         DO            
  X:00B2H         SYMBOL        nbits
  -------         ENDDO         
  C:9D98H         LINE#         72
  C:9D9DH         LINE#         74
  C:9D9FH         LINE#         75
  C:9DA6H         LINE#         76
  C:9DAEH         LINE#         77
  C:9DC7H         LINE#         78
  C:9DC7H         LINE#         79
  C:9DCAH         LINE#         80
  C:9DCAH         LINE#         81
  C:9DD1H         LINE#         82
  C:9DDBH         LINE#         83
  C:9DE0H         LINE#         84
  C:9DE0H         LINE#         85
  C:9DE0H         LINE#         86
  C:9DE3H         LINE#         87
  C:9DE3H         LINE#         88
  C:9DEAH         LINE#         89
  C:9DFBH         LINE#         90
  C:9DFBH         LINE#         91
  C:9E03H         LINE#         92
  C:9E03H         LINE#         93
  C:9E03H         LINE#         94
  C:9E06H         LINE#         95
  C:9E16H         LINE#         96
  C:9E18H         LINE#         97
  C:9E1DH         LINE#         98
  -------         ENDPROC       _LEE_CLK
  -------         PROC          _WR_CLK
  X:0013H         SYMBOL        dir_clk
  X:0014H         SYMBOL        byte
  C:B704H         LINE#         100
  C:B70CH         LINE#         101
  C:B70EH         LINE#         102
  C:B715H         LINE#         103
  C:B71DH         LINE#         104
BL51 BANKED LINKER/LOCATER V6.22.2.0                                                  05/14/2021  10:23:20  PAGE 33


  C:B726H         LINE#         105
  C:B729H         LINE#         106
  C:B72BH         LINE#         108
  -------         ENDPROC       _WR_CLK
  C:B1E5H         SYMBOL        L?0078
  C:B203H         SYMBOL        L?0079
  -------         PROC          L?0077
  -------         ENDPROC       L?0077
  C:B1E5H         SYMBOL        L?0078
  C:B203H         SYMBOL        L?0079
  -------         PROC          _TWO_ONE
  D:0007H         SYMBOL        byte_h
  D:0005H         SYMBOL        byte_l
  -------         DO            
  D:0007H         SYMBOL        byte_out
  -------         ENDDO         
  C:B219H         LINE#         110
  C:B219H         LINE#         111
  C:B219H         LINE#         113
  C:B21CH         LINE#         114
  C:B220H         LINE#         115
  C:B223H         LINE#         116
  C:B225H         LINE#         117
  C:B225H         LINE#         118
  -------         ENDPROC       _TWO_ONE
  -------         PROC          _VALIDAR_CLK
  D:0001H         SYMBOL        datos_clock
  -------         DO            
  D:0007H         SYMBOL        validador
  -------         ENDDO         
  C:71DDH         LINE#         122
  C:71DDH         LINE#         123
  C:71DDH         LINE#         124
  C:71DFH         LINE#         127
  C:71F4H         LINE#         128
  C:71F4H         LINE#         130
  C:720CH         LINE#         131
  C:720CH         LINE#         133
  C:7224H         LINE#         134
  C:7224H         LINE#         135
  C:723CH         LINE#         136
  C:723CH         LINE#         137
  C:7254H         LINE#         138
  C:7254H         LINE#         139
  C:7269H         LINE#         140
  C:7269H         LINE#         141
  C:727BH         LINE#         142
  C:727BH         LINE#         143
  C:728DH         LINE#         144
  C:728DH         LINE#         145
  C:729FH         LINE#         146
  C:729FH         LINE#         147
  C:72B1H         LINE#         148
  C:72B1H         LINE#         149
  C:72C3H         LINE#         150
  C:72C3H         LINE#         151
  C:72D3H         LINE#         152
BL51 BANKED LINKER/LOCATER V6.22.2.0                                                  05/14/2021  10:23:20  PAGE 34


  C:72D3H         LINE#         153
  C:72D3H         LINE#         154
  C:72D3H         LINE#         155
  C:72D4H         LINE#         157
  C:72D4H         LINE#         158
  C:72D6H         LINE#         159
  C:72D6H         LINE#         160
  C:72D7H         LINE#         162
  C:72D7H         LINE#         163
  C:72D9H         LINE#         165
  C:72D9H         LINE#         166
  C:72DAH         LINE#         168
  C:72DAH         LINE#         169
  C:72DCH         LINE#         171
  C:72DCH         LINE#         173
  C:72DDH         LINE#         175
  C:72DDH         LINE#         176
  C:72DFH         LINE#         178
  C:72DFH         LINE#         179
  C:72E0H         LINE#         181
  C:72E0H         LINE#         182
  C:72E2H         LINE#         184
  C:72E2H         LINE#         185
  C:72E3H         LINE#         187
  C:72E3H         LINE#         188
  C:72E5H         LINE#         190
  C:72E5H         LINE#         191
  C:72E6H         LINE#         193
  C:72E6H         LINE#         194
  C:72E8H         LINE#         196
  C:72E8H         LINE#         197
  C:72E8H         LINE#         199
  C:72E9H         LINE#         201
  C:72E9H         LINE#         202
  C:72EBH         LINE#         204
  C:72EBH         LINE#         206
  C:72ECH         LINE#         209
  C:72ECH         LINE#         210
  C:72EEH         LINE#         212
  C:72EEH         LINE#         214
  C:72EFH         LINE#         217
  C:72EFH         LINE#         218
  C:72F1H         LINE#         220
  C:72F1H         LINE#         222
  C:72F1H         LINE#         224
  -------         ENDPROC       _VALIDAR_CLK
  -------         PROC          _BLOCK_WRITE_CLOCK_ASCII
  X:0010H         SYMBOL        datos_clock
  -------         DO            
  D:0007H         SYMBOL        temp
  -------         ENDDO         
  C:9E1EH         LINE#         230
  C:9E29H         LINE#         232
  C:9E29H         LINE#         237
  C:9E33H         LINE#         238
  C:9E33H         LINE#         239
  C:9E33H         LINE#         240
BL51 BANKED LINKER/LOCATER V6.22.2.0                                                  05/14/2021  10:23:20  PAGE 35


  C:9E33H         LINE#         242
  C:9E3DH         LINE#         243
  C:9E47H         LINE#         244
  C:9E51H         LINE#         245
  C:9E51H         LINE#         246
  C:9E51H         LINE#         247
  C:9E51H         LINE#         249
  C:9E5BH         LINE#         250
  C:9E5BH         LINE#         251
  C:9E5BH         LINE#         252
  C:9E5BH         LINE#         254
  C:9E65H         LINE#         255
  C:9E65H         LINE#         256
  C:9E65H         LINE#         257
  C:9E65H         LINE#         259
  C:9E6FH         LINE#         260
  C:9E6FH         LINE#         261
  C:9E6FH         LINE#         262
  C:9E6FH         LINE#         264
  C:9E79H         LINE#         265
  C:9E83H         LINE#         266
  C:9E8DH         LINE#         267
  C:9E97H         LINE#         269
  C:9EA7H         LINE#         270
  -------         ENDPROC       _BLOCK_WRITE_CLOCK_ASCII
  -------         PROC          _BCD_HEX
  D:0007H         SYMBOL        l_data
  -------         DO            
  D:0006H         SYMBOL        temp
  D:0005H         SYMBOL        j
  -------         ENDDO         
  C:B91BH         LINE#         276
  C:B91BH         LINE#         277
  C:B91BH         LINE#         279
  C:B91DH         LINE#         280
  C:B921H         LINE#         281
  C:B924H         LINE#         282
  C:B926H         LINE#         283
  C:B926H         LINE#         284
  C:B92AH         LINE#         285
  C:B931H         LINE#         286
  C:B931H         LINE#         287
  C:B935H         LINE#         288
  C:B938H         LINE#         289
  C:B938H         LINE#         290
  C:B938H         LINE#         291
  -------         ENDPROC       _BCD_HEX
  C:B36EH         SYMBOL        L?0081
  -------         PROC          L?0080
  -------         ENDPROC       L?0080
  C:B36EH         SYMBOL        L?0081
  -------         PROC          _HEX_BCD
  D:0007H         SYMBOL        byte
  -------         DO            
  D:0006H         SYMBOL        nibble_h
  D:0005H         SYMBOL        nibble_l
  D:0004H         SYMBOL        k
BL51 BANKED LINKER/LOCATER V6.22.2.0                                                  05/14/2021  10:23:20  PAGE 36


  D:0007H         SYMBOL        byte_out
  -------         ENDDO         
  C:B37DH         LINE#         295
  C:B37DH         LINE#         296
  C:B37DH         LINE#         301
  C:B37FH         LINE#         302
  C:B380H         LINE#         304
  C:B386H         LINE#         305
  C:B386H         LINE#         306
  C:B387H         LINE#         307
  C:B38CH         LINE#         308
  C:B38CH         LINE#         309
  C:B38DH         LINE#         310
  C:B38EH         LINE#         311
  C:B38EH         LINE#         312
  C:B391H         LINE#         313
  C:B395H         LINE#         314
  C:B398H         LINE#         315
  C:B39BH         LINE#         316
  C:B39DH         LINE#         317
  C:B39DH         LINE#         319
  -------         ENDPROC       _HEX_BCD
  -------         PROC          _HEX_ASCII
  X:005DH         SYMBOL        datos
  X:0060H         SYMBOL        fecha_asii
  -------         DO            
  D:0007H         SYMBOL        dato
  -------         ENDDO         
  C:9ABDH         LINE#         320
  C:9AC8H         LINE#         321
  C:9AC8H         LINE#         325
  C:9ACBH         LINE#         326
  C:9AE3H         LINE#         327
  C:9AF8H         LINE#         328
  C:9AF8H         LINE#         330
  C:9AFBH         LINE#         331
  C:9B16H         LINE#         332
  C:9B1EH         LINE#         333
  C:9B1EH         LINE#         335
  C:9B21H         LINE#         336
  C:9B3CH         LINE#         337
  C:9B47H         LINE#         339
  -------         ENDPROC       _HEX_ASCII
  -------         PROC          _BYTEHEX_DECIMAL
  D:0001H         SYMBOL        buffer
  D:0005H         SYMBOL        valorhex
  -------         DO            
  X:0014H         SYMBOL        numero
  D:0007H         SYMBOL        centena
  D:0006H         SYMBOL        decena
  -------         ENDDO         
  C:AB01H         LINE#         347
  C:AB01H         LINE#         348
  C:AB01H         LINE#         351
  C:AB03H         LINE#         352
  C:AB04H         LINE#         353
  C:AB09H         LINE#         355
BL51 BANKED LINKER/LOCATER V6.22.2.0                                                  05/14/2021  10:23:20  PAGE 37


  C:AB16H         LINE#         356
  C:AB16H         LINE#         357
  C:AB1AH         LINE#         358
  C:AB1BH         LINE#         359
  C:AB1DH         LINE#         360
  C:AB23H         LINE#         361
  C:AB2AH         LINE#         362
  C:AB37H         LINE#         363
  C:AB37H         LINE#         364
  C:AB3BH         LINE#         365
  C:AB3CH         LINE#         366
  C:AB3EH         LINE#         367
  C:AB44H         LINE#         368
  C:AB4BH         LINE#         369
  C:AB54H         LINE#         370
  C:AB5BH         LINE#         371
  -------         ENDPROC       _BYTEHEX_DECIMAL
  -------         PROC          _TWO_BYTEHEX_DECIMAL
  X:0014H         SYMBOL        buffer
  X:0017H         SYMBOL        id_h
  X:0018H         SYMBOL        id_l
  -------         DO            
  X:0019H         SYMBOL        valor
  D:0006H         SYMBOL        numero
  X:001BH         SYMBOL        temp
  X:001CH         SYMBOL        dmil
  X:001DH         SYMBOL        mil
  X:001EH         SYMBOL        centena
  X:001FH         SYMBOL        decena
  -------         ENDDO         
  C:45EFH         LINE#         378
  C:45FDH         LINE#         379
  C:45FDH         LINE#         383
  C:4604H         LINE#         384
  C:4608H         LINE#         385
  C:460AH         LINE#         386
  C:460CH         LINE#         387
  C:460EH         LINE#         390
  C:4613H         LINE#         391
  C:4616H         LINE#         392
  C:461CH         LINE#         394
  C:4677H         LINE#         395
  C:467FH         LINE#         396
  C:4682H         LINE#         397
  C:46DDH         LINE#         399
  C:46E5H         LINE#         400
  C:46E8H         LINE#         401
  C:46EEH         LINE#         402
  C:4749H         LINE#         403
  C:4751H         LINE#         404
  C:4754H         LINE#         405
  C:47AFH         LINE#         406
  C:47AFH         LINE#         408
  C:47B8H         LINE#         409
  C:47B8H         LINE#         410
  C:47C0H         LINE#         411
  C:47C6H         LINE#         412
BL51 BANKED LINKER/LOCATER V6.22.2.0                                                  05/14/2021  10:23:20  PAGE 38


  C:47C8H         LINE#         413
  C:47DEH         LINE#         414
  C:47E8H         LINE#         415
  C:47F1H         LINE#         416
  C:47F1H         LINE#         417
  C:47F9H         LINE#         418
  C:47FFH         LINE#         419
  C:4801H         LINE#         420
  C:4817H         LINE#         421
  C:4821H         LINE#         422
  C:482AH         LINE#         423
  C:482AH         LINE#         424
  C:4832H         LINE#         425
  C:4838H         LINE#         426
  C:483AH         LINE#         427
  C:4850H         LINE#         428
  C:485AH         LINE#         429
  C:4863H         LINE#         430
  C:4863H         LINE#         431
  C:486BH         LINE#         432
  C:4871H         LINE#         433
  C:4873H         LINE#         434
  C:4889H         LINE#         435
  C:4893H         LINE#         436
  C:48A6H         LINE#         437
  C:48B0H         LINE#         438
  -------         ENDPROC       _TWO_BYTEHEX_DECIMAL
  -------         PROC          _BLOCK_READ_CLOCK_ASCII
  X:0051H         SYMBOL        datos_clock
  -------         DO            
  D:0007H         SYMBOL        dato
  -------         ENDDO         
  C:608FH         LINE#         444
  C:609AH         LINE#         445
  C:609AH         LINE#         451
  C:609FH         LINE#         452
  C:60B7H         LINE#         453
  C:60C1H         LINE#         454
  C:60D6H         LINE#         455
  C:60E0H         LINE#         458
  C:60E5H         LINE#         459
  C:60FDH         LINE#         460
  C:6107H         LINE#         461
  C:611CH         LINE#         462
  C:611FH         LINE#         465
  C:6122H         LINE#         466
  C:613AH         LINE#         467
  C:6144H         LINE#         468
  C:6159H         LINE#         469
  C:6163H         LINE#         473
  C:6168H         LINE#         474
  C:6180H         LINE#         475
  C:618AH         LINE#         476
  C:619FH         LINE#         477
  C:61A9H         LINE#         480
  C:61AEH         LINE#         481
  C:61C6H         LINE#         482
BL51 BANKED LINKER/LOCATER V6.22.2.0                                                  05/14/2021  10:23:20  PAGE 39


  C:61D0H         LINE#         483
  C:61E5H         LINE#         484
  C:61EFH         LINE#         485
  -------         ENDPROC       _BLOCK_READ_CLOCK_ASCII
  -------         PROC          _BLOCK_READ_CLOCK_ASCII_RASBERRY
  X:001DH         SYMBOL        datos_clock
  -------         DO            
  D:0007H         SYMBOL        dato
  -------         ENDDO         
  C:581DH         LINE#         488
  C:5828H         LINE#         489
  C:5828H         LINE#         494
  C:582DH         LINE#         495
  C:5845H         LINE#         496
  C:584FH         LINE#         497
  C:5864H         LINE#         498
  C:5867H         LINE#         501
  C:586AH         LINE#         502
  C:5882H         LINE#         503
  C:588CH         LINE#         504
  C:58A1H         LINE#         505
  C:58ABH         LINE#         509
  C:58B0H         LINE#         510
  C:58C8H         LINE#         511
  C:58D2H         LINE#         512
  C:58E7H         LINE#         513
  C:58F1H         LINE#         518
  C:58F6H         LINE#         519
  C:590EH         LINE#         520
  C:5918H         LINE#         521
  C:592DH         LINE#         522
  C:5937H         LINE#         525
  C:593CH         LINE#         526
  C:5954H         LINE#         527
  C:595EH         LINE#         528
  C:5973H         LINE#         529
  C:597DH         LINE#         530
  C:598DH         LINE#         531
  C:5997H         LINE#         534
  C:599CH         LINE#         535
  C:59B4H         LINE#         536
  C:59BEH         LINE#         537
  C:59D3H         LINE#         539
  C:59DDH         LINE#         540
  -------         ENDPROC       _BLOCK_READ_CLOCK_ASCII_RASBERRY
  -------         PROC          _BLOCK_READ_CLOCK_HEX
  X:00AEH         SYMBOL        datos_clock
  C:953BH         LINE#         544
  C:9546H         LINE#         545
  C:9546H         LINE#         548
  C:955DH         LINE#         549
  C:9567H         LINE#         551
  C:957EH         LINE#         552
  C:9581H         LINE#         554
  C:9596H         LINE#         555
  C:95A0H         LINE#         557
  C:95B7H         LINE#         558
BL51 BANKED LINKER/LOCATER V6.22.2.0                                                  05/14/2021  10:23:20  PAGE 40


  C:95C1H         LINE#         560
  C:95D8H         LINE#         561
  -------         ENDPROC       _BLOCK_READ_CLOCK_HEX
  -------         PROC          _BLOCK_READ_CLOCK
  X:001DH         SYMBOL        datos_clock
  C:88E3H         LINE#         568
  C:88EEH         LINE#         569
  C:88EEH         LINE#         571
  C:8902H         LINE#         572
  C:890CH         LINE#         574
  C:8920H         LINE#         575
  C:8923H         LINE#         577
  C:8935H         LINE#         578
  C:893FH         LINE#         580
  C:8953H         LINE#         581
  C:895DH         LINE#         583
  C:8971H         LINE#         584
  C:897BH         LINE#         586
  C:898FH         LINE#         587
  C:8999H         LINE#         588
  -------         ENDPROC       _BLOCK_READ_CLOCK
  -------         PROC          COND_INI_CLOCK
  C:BA91H         LINE#         591
  C:BA91H         LINE#         592
  C:BA91H         LINE#         593
  C:BA93H         LINE#         594
  C:BA95H         LINE#         595
  C:BA97H         LINE#         596
  -------         ENDPROC       COND_INI_CLOCK
  -------         PROC          _CHECK_FECHAOUT
  X:009CH         SYMBOL        buffer
  -------         DO            
  X:009FH         SYMBOL        fecha_inicio
  X:00A3H         SYMBOL        fecha_fin
  X:00A7H         SYMBOL        datos_clk
  X:00ADH         SYMBOL        temp
  -------         ENDDO         
  C:881AH         LINE#         606
  C:8825H         LINE#         607
  C:8825H         LINE#         613
  C:882EH         LINE#         614
  C:885DH         LINE#         615
  C:88B0H         LINE#         618
  C:88D0H         LINE#         619
  C:88D0H         LINE#         620
  C:88D6H         LINE#         621
  C:88D8H         LINE#         623
  C:88D8H         LINE#         624
  C:88DDH         LINE#         625
  C:88DDH         LINE#         629
  C:88E2H         LINE#         630
  -------         ENDPROC       _CHECK_FECHAOUT
  -------         ENDMOD        CLOCK

  -------         MODULE        DELAY
  C:0000H         SYMBOL        _ICE_DUMMY_
  C:B4CBH         PUBLIC        _Delay_10ms
BL51 BANKED LINKER/LOCATER V6.22.2.0                                                  05/14/2021  10:23:20  PAGE 41


  C:B9C4H         PUBLIC        _Delay_20us
  C:B939H         PUBLIC        _Delay_1ms
  C:BAE1H         PUBLIC        Delay
  -------         PROC          _DELAY_20US
  D:0006H         SYMBOL        cntd_us
  -------         DO            
  D:0004H         SYMBOL        i
  -------         ENDDO         
  C:B9C4H         LINE#         20
  C:B9C4H         LINE#         21
  C:B9C4H         LINE#         24
  C:B9CEH         LINE#         26
  C:B9D5H         LINE#         27
  -------         ENDPROC       _DELAY_20US
  -------         PROC          _DELAY_1MS
  D:0002H         SYMBOL        cntd_ms
  -------         DO            
  D:0082H         SYMBOL        i
  -------         ENDDO         
  C:B939H         LINE#         38
  C:B93DH         LINE#         39
  C:B93DH         LINE#         41
  C:B953H         LINE#         42
  -------         ENDPROC       _DELAY_1MS
  -------         PROC          _DELAY_10MS
  X:001CH         SYMBOL        cntd_10ms
  -------         DO            
  X:001EH         SYMBOL        i
  -------         ENDDO         
  C:B4CBH         LINE#         54
  C:B4D3H         LINE#         55
  C:B4D3H         LINE#         57
  C:B504H         LINE#         58
  -------         ENDPROC       _DELAY_10MS
  -------         PROC          DELAY
  C:BAE1H         LINE#         60
  C:BAE1H         LINE#         62
  -------         ENDPROC       DELAY
  -------         ENDMOD        DELAY

  -------         MODULE        EEPROM
  C:0000H         SYMBOL        _ICE_DUMMY_
  D:0090H         PUBLIC        P1
  C:7DF4H         PUBLIC        _Write_EEprom_Ticket
  C:A95FH         PUBLIC        _EscribirMemoria
  X:0207H         PUBLIC        l_chr
  C:B8A0H         PUBLIC        ackd
  B:0021H.6       PUBLIC        memory_flag
  B:00D0H.7       PUBLIC        CY
  C:BAC9H         PUBLIC        p_me
  C:B9DEH         PUBLIC        start
  B:0090H.2       PUBLIC        sda
  C:B8C0H         PUBLIC        ack_lect
  B:0090H.3       PUBLIC        scl
  C:B3A2H         PUBLIC        _rd_eeprom
  C:BA6BH         PUBLIC        stop
  X:0208H         PUBLIC        l_data_eeprom
BL51 BANKED LINKER/LOCATER V6.22.2.0                                                  05/14/2021  10:23:20  PAGE 42


  C:ACE8H         PUBLIC        _wr_eeprom
  C:AA39H         PUBLIC        _LeerMemoria
  C:B5E3H         PUBLIC        Incremente_Ticket
  X:0209H         PUBLIC        byte_rd
  C:8750H         PUBLIC        Read_EEprom_Ticket
  C:B838H         PUBLIC        _e_d_m
  C:85B9H         PUBLIC        _graba_serie
  C:ADC1H         PUBLIC        Lee_No_Ticket
  C:AD74H         PUBLIC        l_d_m
  -------         PROC          L?0057
  -------         ENDPROC       L?0057
  -------         PROC          ACKD
  -------         DO            
  D:0006H         SYMBOL        i
  -------         ENDDO         
  C:B8A0H         LINE#         35
  C:B8A0H         LINE#         36
  C:B8A0H         LINE#         38
  C:B8A2H         LINE#         39
  C:B8A4H         LINE#         40
  C:B8A6H         LINE#         41
  C:B8A9H         LINE#         42
  C:B8A9H         LINE#         43
  C:B8ACH         LINE#         44
  C:B8ACH         LINE#         45
  C:B8AEH         LINE#         46
  C:B8B0H         LINE#         48
  C:B8B1H         LINE#         49
  C:B8B1H         LINE#         50
  C:B8BCH         LINE#         52
  C:B8BCH         LINE#         53
  C:B8BCH         LINE#         55
  C:B8BCH         LINE#         56
  -------         ENDPROC       ACKD
  -------         PROC          L?0061
  -------         ENDPROC       L?0061
  -------         PROC          ACK_LECT
  -------         DO            
  D:0006H         SYMBOL        i
  -------         ENDDO         
  C:B8C0H         LINE#         59
  C:B8C0H         LINE#         60
  C:B8C0H         LINE#         62
  C:B8C2H         LINE#         63
  C:B8C4H         LINE#         64
  C:B8C6H         LINE#         65
  C:B8C9H         LINE#         66
  C:B8C9H         LINE#         67
  C:B8CCH         LINE#         68
  C:B8CCH         LINE#         69
  C:B8CEH         LINE#         70
  C:B8D0H         LINE#         71
  C:B8D1H         LINE#         72
  C:B8D1H         LINE#         73
  C:B8DCH         LINE#         74
  -------         ENDPROC       ACK_LECT
  -------         PROC          P_ME
BL51 BANKED LINKER/LOCATER V6.22.2.0                                                  05/14/2021  10:23:20  PAGE 43


  C:BAC9H         LINE#         76
  C:BAC9H         LINE#         77
  C:BAC9H         LINE#         78
  C:BACBH         LINE#         79
  C:BACCH         LINE#         80
  C:BACEH         LINE#         81
  -------         ENDPROC       P_ME
  -------         PROC          _E_D_M
  D:0007H         SYMBOL        a_serial_eeprom
  -------         DO            
  D:0006H         SYMBOL        nbits
  -------         ENDDO         
  C:B838H         LINE#         83
  C:B838H         LINE#         84
  C:B838H         LINE#         86
  C:B844H         LINE#         87
  C:B844H         LINE#         88
  C:B848H         LINE#         89
  C:B84BH         LINE#         90
  C:B84BH         LINE#         91
  C:B84DH         LINE#         92
  C:B84FH         LINE#         94
  C:B84FH         LINE#         95
  C:B851H         LINE#         96
  C:B851H         LINE#         97
  C:B853H         LINE#         98
  C:B856H         LINE#         99
  C:B859H         LINE#         101
  -------         ENDPROC       _E_D_M
  -------         PROC          L?0058
  -------         ENDPROC       L?0058
  -------         PROC          START
  C:B9DEH         LINE#         103
  C:B9DEH         LINE#         104
  C:B9DEH         LINE#         105
  C:B9E0H         LINE#         106
  C:B9E2H         LINE#         107
  C:B9E3H         LINE#         108
  C:B9E5H         LINE#         109
  C:B9E7H         LINE#         111
  -------         ENDPROC       START
  -------         PROC          STOP
  C:BA6BH         LINE#         113
  C:BA6BH         LINE#         114
  C:BA6BH         LINE#         115
  C:BA6DH         LINE#         116
  C:BA6FH         LINE#         117
  C:BA70H         LINE#         118
  C:BA72H         LINE#         119
  C:BA74H         LINE#         121
  -------         ENDPROC       STOP
  -------         PROC          L_D_M
  -------         DO            
  D:0003H         SYMBOL        nbits
  -------         ENDDO         
  C:AD74H         LINE#         123
  C:AD74H         LINE#         124
BL51 BANKED LINKER/LOCATER V6.22.2.0                                                  05/14/2021  10:23:20  PAGE 44


  C:AD74H         LINE#         126
  C:AD81H         LINE#         127
  C:AD81H         LINE#         128
  C:AD83H         LINE#         129
  C:AD86H         LINE#         130
  C:AD86H         LINE#         131
  C:AD8DH         LINE#         132
  C:AD96H         LINE#         133
  C:AD96H         LINE#         134
  C:AD9AH         LINE#         135
  C:AD9CH         LINE#         136
  C:AD9CH         LINE#         137
  C:AD9CH         LINE#         138
  C:AD9FH         LINE#         139
  C:AD9FH         LINE#         140
  C:ADA6H         LINE#         141
  C:ADB0H         LINE#         142
  C:ADB0H         LINE#         143
  C:ADB4H         LINE#         144
  C:ADB6H         LINE#         145
  C:ADB6H         LINE#         146
  C:ADB6H         LINE#         147
  C:ADB9H         LINE#         148
  C:ADBBH         LINE#         149
  C:ADC0H         LINE#         150
  -------         ENDPROC       L_D_M
  -------         PROC          L?0056
  -------         ENDPROC       L?0056
  -------         PROC          _WR_EEPROM
  D:0002H         SYMBOL        control
  D:0004H         SYMBOL        Dir
  D:0003H         SYMBOL        data_eeprom
  -------         DO            
  D:0005H         SYMBOL        dir_h
  D:0001H         SYMBOL        dir_l
  -------         ENDDO         
  C:ACE8H         LINE#         156
  C:ACEAH         LINE#         157
  C:ACEAH         LINE#         159
  C:ACEEH         LINE#         160
  C:ACEEH         LINE#         161
  C:ACEEH         LINE#         164
  C:ACEEH         LINE#         165
  C:ACEEH         LINE#         167
  C:ACF1H         LINE#         168
  C:ACF3H         LINE#         169
  C:ACF6H         LINE#         170
  C:ACF8H         LINE#         171
  C:ACFBH         LINE#         172
  C:AD00H         LINE#         173
  C:AD03H         LINE#         174
  C:AD08H         LINE#         175
  C:AD0BH         LINE#         176
  C:AD0EH         LINE#         177
  C:AD15H         LINE#         179
  C:AD17H         LINE#         180
  C:AD19H         LINE#         181
BL51 BANKED LINKER/LOCATER V6.22.2.0                                                  05/14/2021  10:23:20  PAGE 45


  C:AD20H         LINE#         182
  -------         ENDPROC       _WR_EEPROM
  C:B39EH         SYMBOL        L?0060
  -------         PROC          L?0059
  -------         ENDPROC       L?0059
  C:B39EH         SYMBOL        L?0060
  -------         PROC          _RD_EEPROM
  D:0003H         SYMBOL        control
  D:0004H         SYMBOL        Dir
  -------         DO            
  D:0005H         SYMBOL        dir_h
  D:0002H         SYMBOL        dir_l
  -------         ENDDO         
  C:B3A2H         LINE#         220
  C:B3A4H         LINE#         221
  C:B3A4H         LINE#         224
  C:B3A8H         LINE#         225
  C:B3A8H         LINE#         226
  C:B3A8H         LINE#         228
  C:B3A8H         LINE#         229
  C:B3A8H         LINE#         231
  C:B3ABH         LINE#         232
  C:B3ADH         LINE#         233
  C:B3B0H         LINE#         234
  C:B3B2H         LINE#         235
  C:B3B5H         LINE#         236
  C:B3BAH         LINE#         237
  C:B3BDH         LINE#         238
  C:B3C0H         LINE#         239
  C:B3C6H         LINE#         240
  C:B3C9H         LINE#         241
  C:B3CBH         LINE#         242
  C:B3CEH         LINE#         243
  C:B3D1H         LINE#         244
  C:B3D3H         LINE#         245
  C:B3D5H         LINE#         246
  C:B3DAH         LINE#         247
  -------         ENDPROC       _RD_EEPROM
  -------         PROC          _GRABA_SERIE
  X:0010H         SYMBOL        buffer
  -------         DO            
  X:0013H         SYMBOL        j
  X:0014H         SYMBOL        error
  -------         ENDDO         
  C:85B9H         LINE#         254
  C:85C4H         LINE#         255
  C:85C4H         LINE#         258
  C:85C9H         LINE#         263
  C:85DBH         LINE#         265
  C:85EEH         LINE#         266
  C:85EEH         LINE#         267
  C:8617H         LINE#         268
  C:8617H         LINE#         269
  C:861DH         LINE#         271
  C:8626H         LINE#         272
  C:8634H         LINE#         273
  C:863DH         LINE#         274
BL51 BANKED LINKER/LOCATER V6.22.2.0                                                  05/14/2021  10:23:20  PAGE 46


  C:863DH         LINE#         276
  C:8645H         LINE#         280
  C:864BH         LINE#         281
  C:864BH         LINE#         282
  C:8659H         LINE#         284
  C:8659H         LINE#         286
  C:8659H         LINE#         287
  C:8663H         LINE#         288
  C:866EH         LINE#         289
  C:8679H         LINE#         290
  C:8684H         LINE#         292
  C:8684H         LINE#         293
  -------         ENDPROC       _GRABA_SERIE
  -------         PROC          _WRITE_EEPROM_TICKET
  X:0015H         SYMBOL        buffer
  -------         DO            
  X:0018H         SYMBOL        cod_3
  X:0019H         SYMBOL        cod_2
  X:001AH         SYMBOL        cod_1
  X:001BH         SYMBOL        cod_0
  X:001CH         SYMBOL        Noticket
  D:0004H         SYMBOL        Bnoticket
  -------         ENDDO         
  C:7DF4H         LINE#         294
  C:7DFFH         LINE#         295
  C:7DFFH         LINE#         297
  C:7E07H         LINE#         298
  C:7E10H         LINE#         299
  C:7E1EH         LINE#         300
  C:7E27H         LINE#         301
  C:7E3BH         LINE#         303
  C:7E44H         LINE#         304
  C:7E57H         LINE#         305
  C:7E5CH         LINE#         306
  C:7E5FH         LINE#         308
  C:7E72H         LINE#         309
  C:7E77H         LINE#         310
  C:7E7AH         LINE#         312
  C:7E8DH         LINE#         313
  C:7E92H         LINE#         314
  C:7E95H         LINE#         316
  C:7EA1H         LINE#         317
  C:7EA4H         LINE#         318
  C:7EADH         LINE#         320
  C:7EBBH         LINE#         321
  C:7EC9H         LINE#         322
  C:7ED7H         LINE#         323
  -------         ENDPROC       _WRITE_EEPROM_TICKET
  -------         PROC          LEE_NO_TICKET
  -------         DO            
  D:0004H         SYMBOL        Noticket
  X:0043H         SYMBOL        Lee_No_Ticket
  D:0007H         SYMBOL        num_chr
  -------         ENDDO         
  C:ADC1H         LINE#         328
  C:ADC1H         LINE#         329
  C:ADC1H         LINE#         333
BL51 BANKED LINKER/LOCATER V6.22.2.0                                                  05/14/2021  10:23:20  PAGE 47


  C:ADC4H         LINE#         334
  C:ADDFH         LINE#         335
  C:ADE8H         LINE#         336
  C:ADF4H         LINE#         337
  C:ADFDH         LINE#         338
  C:AE06H         LINE#         339
  C:AE0CH         LINE#         340
  -------         ENDPROC       LEE_NO_TICKET
  -------         PROC          READ_EEPROM_TICKET
  -------         DO            
  D:0001H         SYMBOL        cod3
  X:004EH         SYMBOL        cod2
  X:004FH         SYMBOL        cod1
  X:0050H         SYMBOL        cod0
  X:0051H         SYMBOL        Noticket
  -------         ENDDO         
  C:8750H         LINE#         344
  C:8750H         LINE#         345
  C:8750H         LINE#         347
  C:875AH         LINE#         348
  C:8761H         LINE#         349
  C:876BH         LINE#         350
  C:8779H         LINE#         351
  C:8783H         LINE#         353
  C:87A3H         LINE#         354
  C:87C8H         LINE#         355
  C:87EDH         LINE#         356
  C:880BH         LINE#         357
  C:8819H         LINE#         358
  -------         ENDPROC       READ_EEPROM_TICKET
  -------         PROC          INCREMENTE_TICKET
  -------         DO            
  D:0004H         SYMBOL        Noticket
  X:0006H         SYMBOL        Lee_No_Ticket
  -------         ENDDO         
  C:B5E3H         LINE#         362
  C:B5E3H         LINE#         363
  C:B5E3H         LINE#         367
  C:B5E6H         LINE#         368
  C:B5F3H         LINE#         369
  C:B60EH         LINE#         370
  -------         ENDPROC       INCREMENTE_TICKET
  -------         PROC          _LEERMEMORIA
  X:009CH         SYMBOL        addres
  X:009EH         SYMBOL        res
  -------         DO            
  D:0007H         SYMBOL        i
  -------         ENDDO         
  C:AA39H         LINE#         376
  C:AA4AH         LINE#         377
  C:AA4AH         LINE#         379
  C:AA4AH         LINE#         380
  C:AA66H         LINE#         381
  C:AA75H         LINE#         382
  C:AA83H         LINE#         383
  C:AA8DH         LINE#         384
  C:AA90H         LINE#         385
BL51 BANKED LINKER/LOCATER V6.22.2.0                                                  05/14/2021  10:23:20  PAGE 48


  -------         ENDPROC       _LEERMEMORIA
  -------         PROC          _ESCRIBIRMEMORIA
  X:005DH         SYMBOL        addres
  X:005FH         SYMBOL        res
  C:A95FH         LINE#         387
  C:A970H         LINE#         388
  C:A970H         LINE#         391
  C:A980H         LINE#         392
  C:A987H         LINE#         393
  C:A98AH         LINE#         395
  C:A998H         LINE#         396
  C:A9A2H         LINE#         397
  C:A9A4H         LINE#         398
  C:A9A7H         LINE#         399
  C:A9B5H         LINE#         400
  C:A9BFH         LINE#         401
  -------         ENDPROC       _ESCRIBIRMEMORIA
  -------         ENDMOD        EEPROM

  -------         MODULE        IO_SENSORES
  C:0000H         SYMBOL        _ICE_DUMMY_
  D:0090H         PUBLIC        P1
  D:00B0H         PUBLIC        P3
  C:B11FH         PUBLIC        Dir_board
  B:0021H.7       PUBLIC        PULSADOR_BOTTON
  C:BAA6H         PUBLIC        sel_Pulsa
  B:0090H.1       PUBLIC        DataIn
  C:B99AH         PUBLIC        Dir_Board_Monitor
  C:BA9FH         PUBLIC        sel_Auto
  C:B53FH         PUBLIC        ValidaSensoresPaso
  B:00B0H.3       PUBLIC        busy
  C:B8DDH         PUBLIC        ValidaSensor
  C:BAB4H         PUBLIC        sel_Sensor1
  C:BAADH         PUBLIC        sel_Sensor2
  C:B85AH         PUBLIC        ValidaSensor_cero
  C:AC76H         PUBLIC        Valida_Sensor1_Auto
  B:00B0H.5       PUBLIC        sel_A
  B:00B0H.6       PUBLIC        sel_B
  B:00B0H.7       PUBLIC        sel_C
  C:A273H         PUBLIC        msj_lcd_informativo
  C:BABBH         PUBLIC        sel_Dir1
  C:BAC2H         PUBLIC        sel_Dir2
  C:B9E8H         PUBLIC        Botton
  C:BA98H         PUBLIC        sel_Funcion
  -------         PROC          SEL_FUNCION
  C:BA98H         LINE#         33
  C:BA98H         LINE#         34
  C:BA98H         LINE#         35
  C:BA9AH         LINE#         36
  C:BA9CH         LINE#         37
  C:BA9EH         LINE#         38
  -------         ENDPROC       SEL_FUNCION
  -------         PROC          SEL_AUTO
  C:BA9FH         LINE#         40
  C:BA9FH         LINE#         41
  C:BA9FH         LINE#         42
  C:BAA1H         LINE#         43
BL51 BANKED LINKER/LOCATER V6.22.2.0                                                  05/14/2021  10:23:20  PAGE 49


  C:BAA3H         LINE#         44
  C:BAA5H         LINE#         45
  -------         ENDPROC       SEL_AUTO
  -------         PROC          SEL_PULSA
  C:BAA6H         LINE#         47
  C:BAA6H         LINE#         48
  C:BAA6H         LINE#         49
  C:BAA8H         LINE#         50
  C:BAAAH         LINE#         51
  C:BAACH         LINE#         52
  -------         ENDPROC       SEL_PULSA
  -------         PROC          SEL_SENSOR2
  C:BAADH         LINE#         55
  C:BAADH         LINE#         56
  C:BAADH         LINE#         57
  C:BAAFH         LINE#         58
  C:BAB1H         LINE#         59
  C:BAB3H         LINE#         60
  -------         ENDPROC       SEL_SENSOR2
  -------         PROC          SEL_SENSOR1
  C:BAB4H         LINE#         62
  C:BAB4H         LINE#         63
  C:BAB4H         LINE#         64
  C:BAB6H         LINE#         65
  C:BAB8H         LINE#         66
  C:BABAH         LINE#         67
  -------         ENDPROC       SEL_SENSOR1
  -------         PROC          SEL_DIR1
  C:BABBH         LINE#         69
  C:BABBH         LINE#         70
  C:BABBH         LINE#         71
  C:BABDH         LINE#         72
  C:BABFH         LINE#         73
  C:BAC1H         LINE#         74
  -------         ENDPROC       SEL_DIR1
  -------         PROC          SEL_DIR2
  C:BAC2H         LINE#         76
  C:BAC2H         LINE#         77
  C:BAC2H         LINE#         78
  C:BAC4H         LINE#         79
  C:BAC6H         LINE#         80
  C:BAC8H         LINE#         81
  -------         ENDPROC       SEL_DIR2
  -------         PROC          BOTTON
  C:B9E8H         LINE#         82
  C:B9E8H         LINE#         83
  C:B9E8H         LINE#         84
  C:B9EBH         LINE#         85
  C:B9EEH         LINE#         86
  C:B9EEH         LINE#         87
  C:B9F7H         LINE#         88
  C:B9F9H         LINE#         89
  C:B9F9H         LINE#         91
  -------         ENDPROC       BOTTON
  -------         PROC          VALIDASENSOR
  -------         DO            
  D:0007H         SYMBOL        Valido
BL51 BANKED LINKER/LOCATER V6.22.2.0                                                  05/14/2021  10:23:20  PAGE 50


  D:0004H         SYMBOL        Tmin
  -------         ENDDO         
  C:B8DDH         LINE#         93
  C:B8DDH         LINE#         94
  C:B8DDH         LINE#         96
  C:B8DFH         LINE#         97
  C:B8E3H         LINE#         98
  C:B8EEH         LINE#         99
  C:B8EEH         LINE#         100
  C:B8F3H         LINE#         101
  C:B8F7H         LINE#         102
  C:B8F7H         LINE#         103
  C:B8F9H         LINE#         104
  C:B8F9H         LINE#         105
  C:B8FBH         LINE#         106
  C:B8FBH         LINE#         107
  -------         ENDPROC       VALIDASENSOR
  -------         PROC          VALIDASENSOR_CERO
  -------         DO            
  D:0007H         SYMBOL        Valido
  D:0004H         SYMBOL        Tmin
  -------         ENDDO         
  C:B85AH         LINE#         108
  C:B85AH         LINE#         109
  C:B85AH         LINE#         111
  C:B85CH         LINE#         112
  C:B860H         LINE#         113
  C:B86FH         LINE#         114
  C:B86FH         LINE#         115
  C:B874H         LINE#         116
  C:B878H         LINE#         117
  C:B878H         LINE#         118
  C:B879H         LINE#         119
  C:B879H         LINE#         120
  C:B87BH         LINE#         121
  C:B87BH         LINE#         122
  -------         ENDPROC       VALIDASENSOR_CERO
  -------         PROC          DIR_BOARD
  -------         DO            
  X:0032H         SYMBOL        Board
  D:0007H         SYMBOL        Board_High
  -------         ENDDO         
  C:B11FH         LINE#         126
  C:B11FH         LINE#         127
  C:B11FH         LINE#         128
  C:B125H         LINE#         130
  C:B128H         LINE#         131
  C:B12BH         LINE#         132
  C:B12BH         LINE#         133
  C:B12EH         LINE#         134
  C:B12EH         LINE#         135
  C:B131H         LINE#         136
  C:B134H         LINE#         137
  C:B134H         LINE#         138
  C:B13BH         LINE#         139
  C:B13BH         LINE#         140
  C:B143H         LINE#         141
BL51 BANKED LINKER/LOCATER V6.22.2.0                                                  05/14/2021  10:23:20  PAGE 51


  C:B143H         LINE#         142
  C:B14BH         LINE#         144
  C:B14EH         LINE#         145
  C:B14EH         LINE#         146
  C:B154H         LINE#         147
  C:B154H         LINE#         148
  C:B156H         LINE#         149
  C:B158H         LINE#         150
  C:B15AH         LINE#         151
  C:B15AH         LINE#         153
  C:B15AH         LINE#         154
  C:B161H         LINE#         155
  -------         ENDPROC       DIR_BOARD
  -------         PROC          DIR_BOARD_MONITOR
  -------         DO            
  D:0007H         SYMBOL        Board_High
  -------         ENDDO         
  C:B99AH         LINE#         156
  C:B99AH         LINE#         157
  C:B99AH         LINE#         160
  C:B9A3H         LINE#         161
  C:B9A6H         LINE#         162
  C:B9A6H         LINE#         163
  C:B9A9H         LINE#         164
  C:B9A9H         LINE#         165
  C:B9ABH         LINE#         166
  C:B9ABH         LINE#         167
  C:B9ABH         LINE#         168
  C:B9AFH         LINE#         169
  -------         ENDPROC       DIR_BOARD_MONITOR
  -------         PROC          VALIDA_SENSOR1_AUTO
  -------         DO            
  X:0011H         SYMBOL        sensor
  -------         ENDDO         
  C:AC76H         LINE#         173
  C:AC76H         LINE#         174
  C:AC76H         LINE#         176
  C:AC79H         LINE#         177
  C:AC7CH         LINE#         178
  C:AC7FH         LINE#         179
  C:AC84H         LINE#         180
  C:AC84H         LINE#         181
  C:AC8BH         LINE#         182
  C:AC8FH         LINE#         183
  C:AC8FH         LINE#         184
  C:AC8FH         LINE#         185
  C:AC91H         LINE#         187
  C:AC91H         LINE#         188
  C:AC98H         LINE#         189
  C:AC9DH         LINE#         190
  C:AC9DH         LINE#         191
  C:AC9DH         LINE#         192
  C:AC9DH         LINE#         195
  C:AC9FH         LINE#         197
  C:ACA2H         LINE#         198
  C:ACA7H         LINE#         199
  C:ACA7H         LINE#         201
BL51 BANKED LINKER/LOCATER V6.22.2.0                                                  05/14/2021  10:23:20  PAGE 52


  C:ACAEH         LINE#         202
  C:ACB4H         LINE#         203
  C:ACBAH         LINE#         204
  C:ACBDH         LINE#         205
  C:ACBFH         LINE#         207
  C:ACBFH         LINE#         208
  C:ACC6H         LINE#         209
  C:ACCBH         LINE#         210
  C:ACCBH         LINE#         213
  C:ACCBH         LINE#         215
  C:ACD0H         LINE#         216
  -------         ENDPROC       VALIDA_SENSOR1_AUTO
  -------         PROC          VALIDASENSORESPASO
  -------         DO            
  X:0010H         SYMBOL        sensor
  -------         ENDDO         
  C:B53FH         LINE#         221
  C:B53FH         LINE#         222
  C:B53FH         LINE#         224
  C:B542H         LINE#         225
  C:B545H         LINE#         226
  C:B545H         LINE#         227
  C:B553H         LINE#         228
  C:B553H         LINE#         229
  C:B55BH         LINE#         231
  C:B55DH         LINE#         233
  C:B55DH         LINE#         234
  C:B563H         LINE#         235
  C:B565H         LINE#         236
  C:B565H         LINE#         237
  C:B565H         LINE#         238
  C:B565H         LINE#         239
  C:B56EH         LINE#         240
  C:B571H         LINE#         241
  C:B571H         LINE#         242
  C:B576H         LINE#         243
  -------         ENDPROC       VALIDASENSORESPASO
  -------         PROC          MSJ_LCD_INFORMATIVO
  -------         DO            
  X:0210H         SYMBOL        contador
  X:0001H         SYMBOL        info
  X:0211H         SYMBOL        toggle
  -------         ENDDO         
  C:A273H         LINE#         253
  C:A273H         LINE#         254
  C:A273H         LINE#         256
  C:A278H         LINE#         258
  C:A27EH         LINE#         259
  C:A288H         LINE#         260
  C:A288H         LINE#         261
  C:A28AH         LINE#         262
  C:A28DH         LINE#         263
  C:A296H         LINE#         264
  C:A296H         LINE#         265
  C:A2A0H         LINE#         266
  C:A2A0H         LINE#         267
  C:A2ACH         LINE#         268
BL51 BANKED LINKER/LOCATER V6.22.2.0                                                  05/14/2021  10:23:20  PAGE 53


  C:A2ACH         LINE#         269
  C:A2AFH         LINE#         270
  C:A2AFH         LINE#         271
  C:A2B1H         LINE#         272
  C:A2B4H         LINE#         273
  C:A2BAH         LINE#         274
  C:A2BAH         LINE#         275
  C:A2C8H         LINE#         276
  C:A2C8H         LINE#         277
  C:A2CEH         LINE#         278
  C:A2CEH         LINE#         279
  C:A2D0H         LINE#         280
  C:A2DEH         LINE#         281
  C:A2DEH         LINE#         282
  C:A2E1H         LINE#         283
  C:A2E1H         LINE#         284
  C:A2E3H         LINE#         285
  C:A2E6H         LINE#         286
  C:A2EBH         LINE#         287
  C:A2EBH         LINE#         288
  C:A2EBH         LINE#         289
  C:A2EBH         LINE#         290
  C:A2EBH         LINE#         291
  C:A2EEH         LINE#         292
  C:A2F1H         LINE#         293
  C:A2F1H         LINE#         294
  C:A2F6H         LINE#         295
  C:A2F6H         LINE#         296
  C:A2F6H         LINE#         297
  -------         ENDPROC       MSJ_LCD_INFORMATIVO
  -------         ENDMOD        IO_SENSORES

  -------         MODULE        PANTALLAS
  C:0000H         SYMBOL        _ICE_DUMMY_
  D:0080H         PUBLIC        P0
  C:A702H         PUBLIC        Reloj_Pantalla_Lcd
  C:26EDH         PUBLIC        _PantallaLCD
  C:B0E3H         PUBLIC        _LCD_txt
  C:A408H         PUBLIC        _Raspberry_data
  C:B785H         PUBLIC        _tx_chrlcd
  C:34E2H         SYMBOL        _?ix1000
  C:34E8H         SYMBOL        _?ix1001
  C:34EEH         SYMBOL        _?ix1002
  C:3516H         SYMBOL        _?ix1003
  C:B009H         PUBLIC        _LCD_txt_num_char
  C:4B76H         PUBLIC        _PantallaLCD_LINEA_2
  B:0098H.4       PUBLIC        REN
  B:0080H.7       PUBLIC        sel_com
  -------         PROC          _PANTALLALCD
  X:002AH         SYMBOL        cod_msg
  -------         DO            
  X:002BH         SYMBOL        Ini_LCD_Line_one
  X:0031H         SYMBOL        num_chr
  X:0032H         SYMBOL        msjpantalla
  -------         ENDDO         
  C:26EDH         LINE#         96
  C:26F2H         LINE#         97
BL51 BANKED LINKER/LOCATER V6.22.2.0                                                  05/14/2021  10:23:20  PAGE 54


  C:26F2H         LINE#         99
  C:2705H         LINE#         104
  C:270CH         LINE#         108
  C:270EH         LINE#         110
  C:2717H         LINE#         111
  C:2717H         LINE#         112
  C:2721H         LINE#         114
  C:277DH         LINE#         115
  C:277DH         LINE#         117
  C:277DH         LINE#         118
  C:278BH         LINE#         119
  C:2791H         LINE#         120
  C:2794H         LINE#         121
  C:279AH         LINE#         122
  C:279DH         LINE#         124
  C:279DH         LINE#         126
  C:27ABH         LINE#         127
  C:27B1H         LINE#         128
  C:27B4H         LINE#         129
  C:27BAH         LINE#         130
  C:27BDH         LINE#         132
  C:27BDH         LINE#         134
  C:27CBH         LINE#         135
  C:27D1H         LINE#         136
  C:27D4H         LINE#         137
  C:27DAH         LINE#         138
  C:27DDH         LINE#         139
  C:27DDH         LINE#         140
  C:27EBH         LINE#         141
  C:27F1H         LINE#         142
  C:27F4H         LINE#         143
  C:27FAH         LINE#         144
  C:27FDH         LINE#         145
  C:27FDH         LINE#         146
  C:280BH         LINE#         147
  C:2811H         LINE#         148
  C:2814H         LINE#         149
  C:281AH         LINE#         150
  C:281DH         LINE#         151
  C:281DH         LINE#         152
  C:282BH         LINE#         153
  C:2831H         LINE#         154
  C:2834H         LINE#         155
  C:283AH         LINE#         156
  C:283DH         LINE#         157
  C:283DH         LINE#         159
  C:284BH         LINE#         160
  C:2851H         LINE#         161
  C:2854H         LINE#         162
  C:285AH         LINE#         163
  C:285DH         LINE#         164
  C:285DH         LINE#         170
  C:285DH         LINE#         171
  C:286BH         LINE#         172
  C:2871H         LINE#         173
  C:2874H         LINE#         174
  C:287AH         LINE#         175
BL51 BANKED LINKER/LOCATER V6.22.2.0                                                  05/14/2021  10:23:20  PAGE 55


  C:287DH         LINE#         176
  C:287DH         LINE#         177
  C:288BH         LINE#         178
  C:2891H         LINE#         179
  C:2894H         LINE#         180
  C:289AH         LINE#         181
  C:289DH         LINE#         183
  C:289DH         LINE#         184
  C:28ABH         LINE#         185
  C:28B1H         LINE#         186
  C:28B4H         LINE#         187
  C:28BAH         LINE#         188
  C:28BDH         LINE#         190
  C:28BDH         LINE#         191
  C:28CBH         LINE#         192
  C:28D1H         LINE#         193
  C:28D4H         LINE#         194
  C:28DAH         LINE#         195
  C:28DDH         LINE#         200
  C:28DDH         LINE#         202
  C:28EBH         LINE#         203
  C:28F1H         LINE#         204
  C:28F4H         LINE#         205
  C:28FAH         LINE#         206
  C:28FDH         LINE#         208
  C:28FDH         LINE#         210
  C:290BH         LINE#         211
  C:2911H         LINE#         212
  C:2914H         LINE#         213
  C:291AH         LINE#         214
  C:291DH         LINE#         216
  C:291DH         LINE#         217
  C:292BH         LINE#         218
  C:2931H         LINE#         219
  C:2934H         LINE#         220
  C:293AH         LINE#         221
  C:293DH         LINE#         223
  C:293DH         LINE#         225
  C:294BH         LINE#         226
  C:2951H         LINE#         227
  C:2954H         LINE#         228
  C:295AH         LINE#         229
  C:295DH         LINE#         231
  C:295DH         LINE#         233
  C:296BH         LINE#         234
  C:2971H         LINE#         235
  C:2974H         LINE#         236
  C:297AH         LINE#         237
  C:297DH         LINE#         239
  C:297DH         LINE#         240
  C:298BH         LINE#         241
  C:2991H         LINE#         242
  C:2994H         LINE#         243
  C:299AH         LINE#         244
  C:299DH         LINE#         246
  C:299DH         LINE#         247
  C:29ABH         LINE#         248
BL51 BANKED LINKER/LOCATER V6.22.2.0                                                  05/14/2021  10:23:20  PAGE 56


  C:29B1H         LINE#         249
  C:29B4H         LINE#         250
  C:29BAH         LINE#         251
  C:29BDH         LINE#         253
  C:29BDH         LINE#         255
  C:29CBH         LINE#         256
  C:29D1H         LINE#         257
  C:29D4H         LINE#         258
  C:29DAH         LINE#         259
  C:29DDH         LINE#         261
  C:29DDH         LINE#         262
  C:29EBH         LINE#         263
  C:29F1H         LINE#         264
  C:29F4H         LINE#         265
  C:29FAH         LINE#         266
  C:29FDH         LINE#         267
  C:29FDH         LINE#         268
  C:2A0BH         LINE#         269
  C:2A11H         LINE#         270
  C:2A14H         LINE#         271
  C:2A1AH         LINE#         272
  C:2A1DH         LINE#         273
  C:2A1DH         LINE#         274
  C:2A2BH         LINE#         275
  C:2A31H         LINE#         276
  C:2A34H         LINE#         277
  C:2A3AH         LINE#         278
  C:2A3DH         LINE#         279
  C:2A3DH         LINE#         280
  C:2A4BH         LINE#         281
  C:2A4EH         LINE#         282
  C:2A54H         LINE#         283
  C:2A56H         LINE#         287
  C:2A56H         LINE#         288
  C:2A64H         LINE#         289
  C:2A6AH         LINE#         290
  C:2A6DH         LINE#         291
  C:2A73H         LINE#         292
  C:2A75H         LINE#         293
  C:2A75H         LINE#         294
  C:2A83H         LINE#         295
  C:2A89H         LINE#         296
  C:2A8CH         LINE#         297
  C:2A92H         LINE#         298
  C:2A94H         LINE#         299
  C:2A94H         LINE#         300
  C:2AA2H         LINE#         301
  C:2AA8H         LINE#         302
  C:2AABH         LINE#         303
  C:2AB6H         LINE#         304
  C:2AB6H         LINE#         313
  C:2AB6H         LINE#         315
  C:2AB6H         LINE#         316
  C:2AB6H         LINE#         317
  C:2AB8H         LINE#         319
  C:2AB9H         LINE#         321
  C:2AB9H         LINE#         322
BL51 BANKED LINKER/LOCATER V6.22.2.0                                                  05/14/2021  10:23:20  PAGE 57


  C:2ABBH         LINE#         323
  C:2B29H         LINE#         324
  C:2B29H         LINE#         327
  C:2B29H         LINE#         328
  C:2B3DH         LINE#         329
  C:2B3DH         LINE#         331
  C:2B40H         LINE#         332
  C:2B40H         LINE#         335
  C:2B54H         LINE#         336
  C:2B54H         LINE#         337
  C:2B57H         LINE#         339
  C:2B57H         LINE#         340
  C:2B6BH         LINE#         341
  C:2B6BH         LINE#         343
  C:2B6EH         LINE#         344
  C:2B6EH         LINE#         345
  C:2B82H         LINE#         346
  C:2B82H         LINE#         348
  C:2B85H         LINE#         349
  C:2B85H         LINE#         350
  C:2B99H         LINE#         351
  C:2B99H         LINE#         353
  C:2B9CH         LINE#         354
  C:2B9CH         LINE#         355
  C:2BB0H         LINE#         356
  C:2BB0H         LINE#         358
  C:2BB3H         LINE#         359
  C:2BB3H         LINE#         360
  C:2BC7H         LINE#         361
  C:2BC7H         LINE#         363
  C:2BCAH         LINE#         364
  C:2BCAH         LINE#         365
  C:2BDEH         LINE#         366
  C:2BDEH         LINE#         368
  C:2BE1H         LINE#         369
  C:2BE1H         LINE#         370
  C:2BF5H         LINE#         371
  C:2BF5H         LINE#         373
  C:2BF8H         LINE#         374
  C:2BF8H         LINE#         375
  C:2C0CH         LINE#         376
  C:2C0CH         LINE#         378
  C:2C0FH         LINE#         380
  C:2C0FH         LINE#         381
  C:2C23H         LINE#         382
  C:2C23H         LINE#         384
  C:2C26H         LINE#         386
  C:2C26H         LINE#         387
  C:2C3AH         LINE#         388
  C:2C3AH         LINE#         390
  C:2C3DH         LINE#         392
  C:2C3DH         LINE#         393
  C:2C51H         LINE#         394
  C:2C51H         LINE#         396
  C:2C54H         LINE#         400
  C:2C54H         LINE#         401
  C:2C68H         LINE#         402
BL51 BANKED LINKER/LOCATER V6.22.2.0                                                  05/14/2021  10:23:20  PAGE 58


  C:2C68H         LINE#         404
  C:2C6BH         LINE#         406
  C:2C6BH         LINE#         407
  C:2C7FH         LINE#         408
  C:2C7FH         LINE#         410
  C:2C82H         LINE#         412
  C:2C82H         LINE#         413
  C:2C96H         LINE#         414
  C:2C96H         LINE#         417
  C:2C99H         LINE#         418
  C:2C99H         LINE#         419
  C:2CADH         LINE#         420
  C:2CADH         LINE#         422
  C:2CB0H         LINE#         423
  C:2CB0H         LINE#         424
  C:2CC4H         LINE#         425
  C:2CC4H         LINE#         427
  C:2CC7H         LINE#         428
  C:2CC7H         LINE#         429
  C:2CDBH         LINE#         430
  C:2CDBH         LINE#         432
  C:2CDEH         LINE#         433
  C:2CDEH         LINE#         434
  C:2CF2H         LINE#         435
  C:2CF2H         LINE#         437
  C:2CF5H         LINE#         439
  C:2CF5H         LINE#         440
  C:2D09H         LINE#         441
  C:2D09H         LINE#         443
  C:2D0CH         LINE#         445
  C:2D0CH         LINE#         446
  C:2D20H         LINE#         447
  C:2D20H         LINE#         449
  C:2D23H         LINE#         450
  C:2D23H         LINE#         451
  C:2D37H         LINE#         452
  C:2D37H         LINE#         454
  C:2D3AH         LINE#         455
  C:2D3AH         LINE#         456
  C:2D4EH         LINE#         457
  C:2D4EH         LINE#         459
  C:2D51H         LINE#         460
  C:2D51H         LINE#         461
  C:2D65H         LINE#         462
  C:2D65H         LINE#         464
  C:2D68H         LINE#         466
  C:2D68H         LINE#         467
  C:2D7CH         LINE#         468
  C:2D7CH         LINE#         470
  C:2D7FH         LINE#         471
  C:2D7FH         LINE#         472
  C:2D93H         LINE#         473
  C:2D93H         LINE#         475
  C:2D96H         LINE#         476
  C:2D96H         LINE#         477
  C:2DAAH         LINE#         478
  C:2DAAH         LINE#         480
BL51 BANKED LINKER/LOCATER V6.22.2.0                                                  05/14/2021  10:23:20  PAGE 59


  C:2DACH         LINE#         482
  C:2DACH         LINE#         483
  C:2DC0H         LINE#         484
  C:2DC0H         LINE#         486
  C:2DC2H         LINE#         489
  C:2DC2H         LINE#         490
  C:2DD6H         LINE#         491
  C:2DD6H         LINE#         493
  C:2DD8H         LINE#         494
  C:2DD8H         LINE#         495
  C:2DECH         LINE#         496
  C:2DECH         LINE#         498
  C:2DEEH         LINE#         499
  C:2DEEH         LINE#         500
  C:2E02H         LINE#         501
  C:2E02H         LINE#         502
  C:2E04H         LINE#         504
  C:2E04H         LINE#         505
  C:2E1BH         LINE#         506
  C:2E2AH         LINE#         507
  C:2E2AH         LINE#         512
  C:2E2AH         LINE#         513
  C:2E2AH         LINE#         514
  C:2E2AH         LINE#         516
  C:2E31H         LINE#         517
  C:2E33H         LINE#         518
  C:2E33H         LINE#         522
  -------         ENDPROC       _PANTALLALCD
  -------         PROC          _PANTALLALCD_LINEA_2
  X:0010H         SYMBOL        cod_msg
  X:0011H         SYMBOL        buffer
  -------         DO            
  X:0014H         SYMBOL        Ini_LCD_Line_one
  X:001AH         SYMBOL        num_chr
  X:001BH         SYMBOL        msjpantalla
  -------         ENDDO         
  C:4B76H         LINE#         523
  C:4B84H         LINE#         524
  C:4B84H         LINE#         526
  C:4B97H         LINE#         528
  C:4BAAH         LINE#         535
  C:4BACH         LINE#         537
  C:4BB5H         LINE#         538
  C:4BB5H         LINE#         541
  C:4BC3H         LINE#         542
  C:4BC3H         LINE#         544
  C:4BC3H         LINE#         545
  C:4BC6H         LINE#         546
  C:4BD4H         LINE#         547
  C:4BE9H         LINE#         548
  C:4BEFH         LINE#         549
  C:4BF5H         LINE#         550
  C:4BFBH         LINE#         551
  C:4BFBH         LINE#         552
  C:4BFDH         LINE#         553
  C:4BFDH         LINE#         554
  C:4C00H         LINE#         555
BL51 BANKED LINKER/LOCATER V6.22.2.0                                                  05/14/2021  10:23:20  PAGE 60


  C:4C0EH         LINE#         556
  C:4C23H         LINE#         557
  C:4C29H         LINE#         558
  C:4C2FH         LINE#         559
  C:4C3AH         LINE#         560
  C:4C4AH         LINE#         561
  C:4C4AH         LINE#         565
  C:4C4AH         LINE#         567
  C:4C4AH         LINE#         569
  C:4C4AH         LINE#         570
  C:4C4CH         LINE#         571
  C:4C4DH         LINE#         573
  C:4C4DH         LINE#         574
  C:4C4FH         LINE#         576
  C:4C77H         LINE#         577
  C:4C77H         LINE#         578
  C:4C77H         LINE#         581
  C:4C83H         LINE#         583
  C:4C83H         LINE#         585
  C:4C83H         LINE#         588
  C:4C83H         LINE#         591
  C:4C86H         LINE#         593
  C:4C86H         LINE#         594
  C:4C92H         LINE#         595
  C:4C92H         LINE#         596
  C:4C92H         LINE#         597
  C:4C92H         LINE#         598
  C:4C92H         LINE#         599
  C:4C92H         LINE#         601
  C:4C95H         LINE#         602
  C:4C95H         LINE#         604
  C:4CA1H         LINE#         605
  C:4CA4H         LINE#         606
  C:4CA7H         LINE#         607
  C:4CA7H         LINE#         609
  C:4CB0H         LINE#         611
  C:4CB0H         LINE#         612
  C:4CB2H         LINE#         614
  C:4CB2H         LINE#         616
  C:4CC3H         LINE#         618
  C:4CC6H         LINE#         620
  C:4CC6H         LINE#         621
  C:4CD1H         LINE#         622
  C:4CD1H         LINE#         623
  C:4CD8H         LINE#         625
  C:4CEEH         LINE#         627
  C:4D05H         LINE#         628
  C:4D08H         LINE#         630
  C:4D08H         LINE#         631
  C:4D0FH         LINE#         633
  C:4D0FH         LINE#         634
  C:4D0FH         LINE#         637
  C:4D12H         LINE#         638
  C:4D12H         LINE#         639
  C:4D21H         LINE#         640
  C:4D3FH         LINE#         641
  C:4D56H         LINE#         643
BL51 BANKED LINKER/LOCATER V6.22.2.0                                                  05/14/2021  10:23:20  PAGE 61


  C:4D56H         LINE#         645
  C:4D59H         LINE#         646
  C:4D59H         LINE#         647
  C:4D68H         LINE#         648
  C:4D7BH         LINE#         649
  C:4D95H         LINE#         650
  C:4DB3H         LINE#         651
  C:4DCAH         LINE#         652
  C:4DCAH         LINE#         654
  C:4DCCH         LINE#         655
  C:4DCCH         LINE#         656
  C:4DDBH         LINE#         657
  C:4DF9H         LINE#         658
  C:4E10H         LINE#         659
  C:4E13H         LINE#         660
  C:4E13H         LINE#         661
  C:4E13H         LINE#         663
  C:4E13H         LINE#         664
  C:4E13H         LINE#         666
  C:4E18H         LINE#         667
  C:4E1AH         LINE#         668
  C:4E1AH         LINE#         669
  -------         ENDPROC       _PANTALLALCD_LINEA_2
  C:B77CH         SYMBOL        L?0176
  C:B77FH         SYMBOL        L?0177
  C:B780H         SYMBOL        L?0178
  -------         PROC          L?0175
  -------         ENDPROC       L?0175
  C:B77CH         SYMBOL        L?0176
  C:B77FH         SYMBOL        L?0177
  C:B780H         SYMBOL        L?0178
  -------         PROC          _TX_CHRLCD
  D:0007H         SYMBOL        data_com
  X:0048H         SYMBOL        enable_char_add
  -------         DO            
  X:0049H         SYMBOL        d
  -------         ENDDO         
  C:B785H         LINE#         675
  C:B78AH         LINE#         676
  C:B78AH         LINE#         678
  C:B792H         LINE#         679
  C:B7A2H         LINE#         681
  -------         ENDPROC       _TX_CHRLCD
  -------         PROC          L?0181
  -------         ENDPROC       L?0181
  -------         PROC          _LCD_TXT
  X:0043H         SYMBOL        msg
  X:0046H         SYMBOL        enable_char_add
  -------         DO            
  X:0047H         SYMBOL        i
  -------         ENDDO         
  C:B0E3H         LINE#         688
  C:B0F1H         LINE#         689
  C:B0F1H         LINE#         692
  C:B10EH         LINE#         693
  C:B10EH         LINE#         694
  C:B116H         LINE#         695
BL51 BANKED LINKER/LOCATER V6.22.2.0                                                  05/14/2021  10:23:20  PAGE 62


  C:B11EH         LINE#         696
  -------         ENDPROC       _LCD_TXT
  -------         PROC          _LCD_TXT_NUM_CHAR
  X:001DH         SYMBOL        msg
  X:0020H         SYMBOL        length_char
  X:0021H         SYMBOL        enable_char_add
  -------         DO            
  X:0022H         SYMBOL        i
  -------         ENDDO         
  C:B009H         LINE#         703
  C:B017H         LINE#         704
  C:B017H         LINE#         707
  C:B02AH         LINE#         708
  C:B02AH         LINE#         709
  C:B046H         LINE#         710
  C:B04EH         LINE#         711
  -------         ENDPROC       _LCD_TXT_NUM_CHAR
  C:A402H         SYMBOL        L?0180
  -------         PROC          L?0179
  -------         ENDPROC       L?0179
  C:A402H         SYMBOL        L?0180
  -------         PROC          _RASPBERRY_DATA
  X:0043H         SYMBOL        msjpantalla
  -------         DO            
  X:0046H         SYMBOL        i
  X:0047H         SYMBOL        lenth_cadena
  X:0048H         SYMBOL        d
  -------         ENDDO         
  C:A408H         LINE#         713
  C:A413H         LINE#         714
  C:A413H         LINE#         721
  C:A41BH         LINE#         723
  C:A42DH         LINE#         724
  C:A42DH         LINE#         726
  C:A43FH         LINE#         727
  C:A43FH         LINE#         728
  C:A444H         LINE#         729
  C:A462H         LINE#         731
  C:A46AH         LINE#         734
  C:A47CH         LINE#         735
  C:A47CH         LINE#         737
  C:A481H         LINE#         739
  -------         ENDPROC       _RASPBERRY_DATA
  -------         PROC          RELOJ_PANTALLA_LCD
  -------         DO            
  X:0010H         SYMBOL        Ini_Clock_LCD
  -------         ENDDO         
  C:A702H         LINE#         747
  C:A702H         LINE#         748
  C:A702H         LINE#         750
  C:A715H         LINE#         752
  C:A71BH         LINE#         753
  C:A71BH         LINE#         754
  C:A71DH         LINE#         755
  C:A726H         LINE#         759
  C:A728H         LINE#         760
  C:A738H         LINE#         762
BL51 BANKED LINKER/LOCATER V6.22.2.0                                                  05/14/2021  10:23:20  PAGE 63


  C:A73AH         LINE#         763
  C:A73CH         LINE#         765
  C:A73DH         LINE#         767
  C:A73DH         LINE#         768
  C:A73FH         LINE#         769
  C:A744H         LINE#         770
  C:A753H         LINE#         772
  C:A75CH         LINE#         773
  C:A773H         LINE#         774
  C:A77CH         LINE#         777
  C:A77EH         LINE#         778
  C:A77EH         LINE#         779
  -------         ENDPROC       RELOJ_PANTALLA_LCD
  -------         ENDMOD        PANTALLAS

  -------         MODULE        PROG
  C:0000H         SYMBOL        _ICE_DUMMY_
  C:5449H         PUBLIC        Prog_fecha_vencimiento
  C:673FH         PUBLIC        Prog_Sin_Cobro
  C:70C4H         PUBLIC        _Ver_Horario_Desde_Hasta
  C:7710H         PUBLIC        Prog_debug
  C:7A04H         PUBLIC        Prog_AntiPassBack
  C:9BF2H         PUBLIC        _GetOption
  X:01B2H         PUBLIC        validacion
  C:7BFCH         PUBLIC        Prog_Validar_Tipo_Vehiculo_Mensual
  X:01BDH         PUBLIC        cursor
  C:6FAAH         PUBLIC        _Prog_Horarios_on_off
  C:98F3H         PUBLIC        Show
  C:4293H         PUBLIC        Ver_Prog
  C:B617H         PUBLIC        Addr_Horarios
  C:911DH         PUBLIC        prog_id_cliente
  C:B16AH         PUBLIC        _ValidarClave
  C:4E1BH         PUBLIC        menu
  C:780CH         PUBLIC        Prog_Use_Lpr
  C:AA9FH         PUBLIC        _ListaComandos
  C:12F7H         SYMBOL        _?ix1000
  C:1302H         SYMBOL        _?ix1001
  C:1312H         SYMBOL        _?ix1002
  C:1322H         SYMBOL        _?ix1003
  C:1326H         SYMBOL        _?ix1004
  C:64B8H         PUBLIC        Prog_Horarios
  C:132AH         SYMBOL        _?ix1005
  C:7CF8H         PUBLIC        Prog_Apb_Mensual
  C:8B2FH         PUBLIC        Prog_tarjeta_automatica_o_boton
  C:5047H         PUBLIC        _hash_id
  C:48BFH         PUBLIC        _Prog_Horario_dias
  C:8EECH         PUBLIC        Prog_tiempo_gracia
  C:A50BH         PUBLIC        _IngresaDato
  X:01D1H         PUBLIC        comandos
  C:AEEDH         PUBLIC        First_Clave
  C:B96CH         PUBLIC        DisplayCursor
  C:7B00H         PUBLIC        Prog_Placa
  C:8E2FH         PUBLIC        prog_cod_park
  C:6AF7H         PUBLIC        Ver_Horario
  C:6E82H         PUBLIC        _Ver_Horario_dias
  C:524FH         PUBLIC        _Prog_Horario_Desde_Hasta
  C:7908H         PUBLIC        tipo_pantalla
BL51 BANKED LINKER/LOCATER V6.22.2.0                                                  05/14/2021  10:23:20  PAGE 64


  C:80B3H         PUBLIC        Prog_Address_High_Board
  C:B22CH         PUBLIC        _GetCMD
  -------         PROC          _HASH_ID
  X:005DH         SYMBOL        clave
  -------         DO            
  X:0060H         SYMBOL        len_clave
  X:0061H         SYMBOL        i
  X:01AEH         SYMBOL        temp
  X:01B0H         SYMBOL        temp1
  X:0062H         SYMBOL        aleatorio
  X:006DH         SYMBOL        suma
  X:007DH         SYMBOL        xxor
  X:008DH         SYMBOL        usuario1
  X:0098H         SYMBOL        vencimiento_password
  -------         ENDDO         
  C:5047H         LINE#         121
  C:5052H         LINE#         122
  C:5052H         LINE#         125
  C:5065H         LINE#         127
  C:5078H         LINE#         128
  C:508BH         LINE#         132
  C:5098H         LINE#         133
  C:50B4H         LINE#         135
  C:50B4H         LINE#         136
  C:50B8H         LINE#         137
  C:50BAH         LINE#         139
  C:50BAH         LINE#         140
  C:50C1H         LINE#         141
  C:50C1H         LINE#         142
  C:50D4H         LINE#         143
  C:50E8H         LINE#         144
  C:50E8H         LINE#         145
  C:5114H         LINE#         146
  C:511FH         LINE#         147
  C:512CH         LINE#         148
  C:514AH         LINE#         149
  C:5155H         LINE#         150
  C:5162H         LINE#         151
  C:5186H         LINE#         152
  C:518EH         LINE#         153
  C:518EH         LINE#         154
  C:5193H         LINE#         155
  C:5193H         LINE#         156
  C:51ACH         LINE#         157
  C:51ACH         LINE#         158
  C:51B8H         LINE#         160
  C:51B8H         LINE#         161
  C:51C7H         LINE#         162
  C:51C7H         LINE#         163
  C:51D3H         LINE#         164
  C:51D3H         LINE#         165
  C:51ECH         LINE#         166
  C:51ECH         LINE#         167
  C:51F7H         LINE#         168
  C:51F7H         LINE#         169
  C:5210H         LINE#         170
  C:5210H         LINE#         171
BL51 BANKED LINKER/LOCATER V6.22.2.0                                                  05/14/2021  10:23:20  PAGE 65


  C:521BH         LINE#         172
  C:521BH         LINE#         173
  C:5230H         LINE#         175
  C:5239H         LINE#         176
  C:5248H         LINE#         178
  C:524EH         LINE#         179
  -------         ENDPROC       _HASH_ID
  -------         PROC          _LISTACOMANDOS
  X:0046H         SYMBOL        cmd
  -------         DO            
  X:0049H         SYMBOL        buf
  X:004CH         SYMBOL        i
  -------         ENDDO         
  C:AA9FH         LINE#         186
  C:AAAAH         LINE#         187
  C:AAAAH         LINE#         191
  C:AABDH         LINE#         192
  C:AABDH         LINE#         193
  C:AAD5H         LINE#         194
  C:AAF0H         LINE#         195
  C:AAF6H         LINE#         196
  C:AAFEH         LINE#         198
  C:AB00H         LINE#         199
  -------         ENDPROC       _LISTACOMANDOS
  -------         PROC          L?0274
  -------         ENDPROC       L?0274
  -------         PROC          _VALIDARCLAVE
  X:005DH         SYMBOL        buffer
  -------         DO            
  X:0060H         SYMBOL        buf
  -------         ENDDO         
  C:B16AH         LINE#         205
  C:B175H         LINE#         206
  C:B175H         LINE#         209
  C:B184H         LINE#         210
  C:B19FH         LINE#         211
  C:B1A1H         LINE#         214
  C:B1A3H         LINE#         215
  -------         ENDPROC       _VALIDARCLAVE
  -------         PROC          L?0275
  -------         ENDPROC       L?0275
  -------         PROC          _GETCMD
  X:005DH         SYMBOL        in
  -------         DO            
  X:0060H         SYMBOL        tokens
  -------         ENDDO         
  C:B22CH         LINE#         222
  C:B237H         LINE#         223
  C:B237H         LINE#         224
  C:B24AH         LINE#         225
  -------         ENDPROC       _GETCMD
  -------         PROC          L?0273
  -------         ENDPROC       L?0273
  -------         PROC          _GETOPTION
  X:0046H         SYMBOL        in
  -------         DO            
  X:0049H         SYMBOL        tokensSpace
BL51 BANKED LINKER/LOCATER V6.22.2.0                                                  05/14/2021  10:23:20  PAGE 66


  X:004DH         SYMBOL        tokensQuote
  -------         ENDDO         
  C:9BF2H         LINE#         231
  C:9BFDH         LINE#         232
  C:9BFDH         LINE#         233
  C:9C10H         LINE#         234
  C:9C23H         LINE#         237
  C:9C35H         LINE#         238
  C:9C41H         LINE#         241
  C:9C48H         LINE#         242
  C:9C55H         LINE#         244
  C:9C6EH         LINE#         245
  -------         ENDPROC       _GETOPTION
  -------         PROC          DISPLAYCURSOR
  C:B96CH         LINE#         250
  C:B96CH         LINE#         251
  C:B96CH         LINE#         252
  -------         ENDPROC       DISPLAYCURSOR
  C:A507H         SYMBOL        L?0272
  -------         PROC          L?0271
  -------         ENDPROC       L?0271
  C:A507H         SYMBOL        L?0272
  -------         PROC          _INGRESADATO
  X:0071H         SYMBOL        buffer
  X:0074H         SYMBOL        modo
  -------         DO            
  D:0006H         SYMBOL        i
  -------         ENDDO         
  C:A50BH         LINE#         259
  C:A519H         LINE#         260
  C:A519H         LINE#         265
  C:A519H         LINE#         266
  C:A52BH         LINE#         267
  C:A531H         LINE#         268
  C:A531H         LINE#         269
  C:A54CH         LINE#         270
  C:A54EH         LINE#         272
  C:A54EH         LINE#         273
  C:A553H         LINE#         274
  C:A553H         LINE#         275
  C:A564H         LINE#         276
  C:A56EH         LINE#         277
  C:A57DH         LINE#         279
  C:A582H         LINE#         283
  -------         ENDPROC       _INGRESADATO
  -------         PROC          PROG_ID_CLIENTE
  -------         DO            
  X:0046H         SYMBOL        buffer
  X:0050H         SYMBOL        dataee
  -------         ENDDO         
  C:911DH         LINE#         300
  C:911DH         LINE#         301
  C:911DH         LINE#         305
  C:912FH         LINE#         306
  C:914CH         LINE#         308
  C:9163H         LINE#         310
  C:916CH         LINE#         311
BL51 BANKED LINKER/LOCATER V6.22.2.0                                                  05/14/2021  10:23:20  PAGE 67


  C:9173H         LINE#         312
  C:9184H         LINE#         313
  C:918DH         LINE#         315
  C:919FH         LINE#         316
  C:91BCH         LINE#         317
  -------         ENDPROC       PROG_ID_CLIENTE
  -------         PROC          PROG_COD_PARK
  -------         DO            
  X:0046H         SYMBOL        buffer
  X:0050H         SYMBOL        dataee
  -------         ENDDO         
  C:8E2FH         LINE#         322
  C:8E2FH         LINE#         323
  C:8E2FH         LINE#         327
  C:8E42H         LINE#         328
  C:8E5FH         LINE#         330
  C:8E76H         LINE#         332
  C:8E7FH         LINE#         333
  C:8E8AH         LINE#         334
  C:8E9BH         LINE#         335
  C:8EA5H         LINE#         337
  C:8EB8H         LINE#         338
  C:8ED5H         LINE#         339
  -------         ENDPROC       PROG_COD_PARK
  -------         PROC          PROG_TIEMPO_GRACIA
  -------         DO            
  X:0046H         SYMBOL        buffer
  X:0050H         SYMBOL        dataee
  -------         ENDDO         
  C:8EECH         LINE#         344
  C:8EECH         LINE#         345
  C:8EECH         LINE#         349
  C:8EFFH         LINE#         350
  C:8F1CH         LINE#         352
  C:8F33H         LINE#         354
  C:8F3CH         LINE#         355
  C:8F47H         LINE#         356
  C:8F58H         LINE#         357
  C:8F62H         LINE#         359
  C:8F75H         LINE#         360
  C:8F92H         LINE#         361
  -------         ENDPROC       PROG_TIEMPO_GRACIA
  -------         PROC          PROG_SIN_COBRO
  -------         DO            
  X:0046H         SYMBOL        buffer
  X:0050H         SYMBOL        dataee
  -------         ENDDO         
  C:673FH         LINE#         367
  C:673FH         LINE#         368
  C:673FH         LINE#         374
  C:6752H         LINE#         375
  C:676FH         LINE#         376
  C:6779H         LINE#         377
  C:6779H         LINE#         378
  C:678CH         LINE#         379
  C:678EH         LINE#         380
  C:679AH         LINE#         381
BL51 BANKED LINKER/LOCATER V6.22.2.0                                                  05/14/2021  10:23:20  PAGE 68


  C:679AH         LINE#         382
  C:67ADH         LINE#         383
  C:67AFH         LINE#         385
  C:67AFH         LINE#         386
  C:67C6H         LINE#         387
  C:67C6H         LINE#         389
  C:67CFH         LINE#         390
  C:67DAH         LINE#         391
  C:67EBH         LINE#         392
  C:67F5H         LINE#         394
  C:6808H         LINE#         395
  C:6825H         LINE#         396
  C:682FH         LINE#         397
  C:682FH         LINE#         398
  C:6842H         LINE#         399
  C:6844H         LINE#         400
  C:6850H         LINE#         401
  C:6850H         LINE#         402
  C:6863H         LINE#         403
  C:6865H         LINE#         405
  C:6865H         LINE#         406
  C:687CH         LINE#         407
  C:687CH         LINE#         409
  -------         ENDPROC       PROG_SIN_COBRO
  -------         PROC          PROG_DEBUG
  -------         DO            
  X:0046H         SYMBOL        buffer
  X:0050H         SYMBOL        dataee
  -------         ENDDO         
  C:7710H         LINE#         415
  C:7710H         LINE#         416
  C:7710H         LINE#         421
  C:7723H         LINE#         422
  C:7740H         LINE#         423
  C:774AH         LINE#         424
  C:774AH         LINE#         425
  C:775DH         LINE#         426
  C:775FH         LINE#         428
  C:775FH         LINE#         429
  C:7776H         LINE#         430
  C:7776H         LINE#         432
  C:777FH         LINE#         433
  C:778AH         LINE#         434
  C:779BH         LINE#         435
  C:77A5H         LINE#         437
  C:77B8H         LINE#         438
  C:77D5H         LINE#         439
  C:77DFH         LINE#         440
  C:77DFH         LINE#         441
  C:77F2H         LINE#         442
  C:77F4H         LINE#         444
  C:77F4H         LINE#         445
  C:780BH         LINE#         446
  C:780BH         LINE#         447
  -------         ENDPROC       PROG_DEBUG
  -------         PROC          PROG_USE_LPR
  -------         DO            
BL51 BANKED LINKER/LOCATER V6.22.2.0                                                  05/14/2021  10:23:20  PAGE 69


  X:0046H         SYMBOL        buffer
  X:0050H         SYMBOL        dataee
  -------         ENDDO         
  C:780CH         LINE#         452
  C:780CH         LINE#         453
  C:780CH         LINE#         458
  C:781FH         LINE#         459
  C:783CH         LINE#         460
  C:7846H         LINE#         461
  C:7846H         LINE#         462
  C:7859H         LINE#         463
  C:785BH         LINE#         465
  C:785BH         LINE#         466
  C:7872H         LINE#         467
  C:7872H         LINE#         469
  C:787BH         LINE#         470
  C:7886H         LINE#         471
  C:7897H         LINE#         472
  C:78A1H         LINE#         474
  C:78B4H         LINE#         475
  C:78D1H         LINE#         476
  C:78DBH         LINE#         477
  C:78DBH         LINE#         478
  C:78EEH         LINE#         479
  C:78F0H         LINE#         481
  C:78F0H         LINE#         482
  C:7907H         LINE#         483
  C:7907H         LINE#         484
  -------         ENDPROC       PROG_USE_LPR
  -------         PROC          TIPO_PANTALLA
  -------         DO            
  X:0046H         SYMBOL        buffer
  X:0050H         SYMBOL        dataee
  -------         ENDDO         
  C:7908H         LINE#         491
  C:7908H         LINE#         492
  C:7908H         LINE#         497
  C:791BH         LINE#         498
  C:7938H         LINE#         499
  C:7942H         LINE#         500
  C:7942H         LINE#         501
  C:7955H         LINE#         502
  C:7957H         LINE#         504
  C:7957H         LINE#         505
  C:796EH         LINE#         506
  C:796EH         LINE#         508
  C:7977H         LINE#         509
  C:7982H         LINE#         510
  C:7993H         LINE#         511
  C:799DH         LINE#         513
  C:79B0H         LINE#         514
  C:79CDH         LINE#         515
  C:79D7H         LINE#         516
  C:79D7H         LINE#         517
  C:79EAH         LINE#         518
  C:79ECH         LINE#         520
  C:79ECH         LINE#         521
BL51 BANKED LINKER/LOCATER V6.22.2.0                                                  05/14/2021  10:23:20  PAGE 70


  C:7A03H         LINE#         522
  C:7A03H         LINE#         524
  -------         ENDPROC       TIPO_PANTALLA
  -------         PROC          PROG_TARJETA_AUTOMATICA_O_BOTON
  -------         DO            
  X:0046H         SYMBOL        buffer
  X:0050H         SYMBOL        dataee
  -------         ENDDO         
  C:8B2FH         LINE#         525
  C:8B2FH         LINE#         526
  C:8B2FH         LINE#         531
  C:8B42H         LINE#         532
  C:8B5FH         LINE#         533
  C:8B6BH         LINE#         534
  C:8B6BH         LINE#         535
  C:8B6FH         LINE#         536
  C:8B71H         LINE#         538
  C:8B71H         LINE#         539
  C:8B78H         LINE#         540
  C:8B78H         LINE#         542
  C:8B81H         LINE#         543
  C:8B8CH         LINE#         544
  C:8B9DH         LINE#         545
  C:8BA7H         LINE#         547
  C:8BBAH         LINE#         548
  C:8BD7H         LINE#         549
  C:8BE3H         LINE#         550
  C:8BE3H         LINE#         551
  C:8BE7H         LINE#         552
  C:8BE9H         LINE#         554
  C:8BE9H         LINE#         555
  C:8BF0H         LINE#         556
  C:8BF0H         LINE#         557
  -------         ENDPROC       PROG_TARJETA_AUTOMATICA_O_BOTON
  -------         PROC          PROG_ANTIPASSBACK
  -------         DO            
  X:0046H         SYMBOL        buffer
  X:0050H         SYMBOL        dataee
  -------         ENDDO         
  C:7A04H         LINE#         558
  C:7A04H         LINE#         559
  C:7A04H         LINE#         564
  C:7A17H         LINE#         565
  C:7A34H         LINE#         566
  C:7A3EH         LINE#         567
  C:7A3EH         LINE#         568
  C:7A51H         LINE#         569
  C:7A53H         LINE#         571
  C:7A53H         LINE#         572
  C:7A6AH         LINE#         573
  C:7A6AH         LINE#         575
  C:7A73H         LINE#         576
  C:7A7EH         LINE#         577
  C:7A8FH         LINE#         578
  C:7A99H         LINE#         580
  C:7AACH         LINE#         581
  C:7AC9H         LINE#         582
BL51 BANKED LINKER/LOCATER V6.22.2.0                                                  05/14/2021  10:23:20  PAGE 71


  C:7AD3H         LINE#         583
  C:7AD3H         LINE#         584
  C:7AE6H         LINE#         585
  C:7AE8H         LINE#         587
  C:7AE8H         LINE#         588
  C:7AFFH         LINE#         589
  C:7AFFH         LINE#         590
  -------         ENDPROC       PROG_ANTIPASSBACK
  -------         PROC          PROG_PLACA
  -------         DO            
  X:0046H         SYMBOL        buffer
  X:0050H         SYMBOL        dataee
  -------         ENDDO         
  C:7B00H         LINE#         591
  C:7B00H         LINE#         592
  C:7B00H         LINE#         597
  C:7B13H         LINE#         598
  C:7B30H         LINE#         599
  C:7B3AH         LINE#         600
  C:7B3AH         LINE#         601
  C:7B4DH         LINE#         602
  C:7B4FH         LINE#         604
  C:7B4FH         LINE#         605
  C:7B66H         LINE#         606
  C:7B66H         LINE#         608
  C:7B6FH         LINE#         609
  C:7B7AH         LINE#         610
  C:7B8BH         LINE#         611
  C:7B95H         LINE#         613
  C:7BA8H         LINE#         614
  C:7BC5H         LINE#         615
  C:7BCFH         LINE#         616
  C:7BCFH         LINE#         617
  C:7BE2H         LINE#         618
  C:7BE4H         LINE#         620
  C:7BE4H         LINE#         621
  C:7BFBH         LINE#         622
  C:7BFBH         LINE#         623
  -------         ENDPROC       PROG_PLACA
  -------         PROC          PROG_ADDRESS_HIGH_BOARD
  -------         DO            
  X:0046H         SYMBOL        buffer
  X:0050H         SYMBOL        dataee
  -------         ENDDO         
  C:80B3H         LINE#         624
  C:80B3H         LINE#         625
  C:80B3H         LINE#         630
  C:80C6H         LINE#         631
  C:80E3H         LINE#         632
  C:80EDH         LINE#         633
  C:80EDH         LINE#         634
  C:80F1H         LINE#         635
  C:80F3H         LINE#         637
  C:80F3H         LINE#         638
  C:810AH         LINE#         639
  C:810AH         LINE#         641
  C:8113H         LINE#         642
BL51 BANKED LINKER/LOCATER V6.22.2.0                                                  05/14/2021  10:23:20  PAGE 72


  C:811EH         LINE#         643
  C:812FH         LINE#         644
  C:8139H         LINE#         646
  C:814CH         LINE#         647
  C:8169H         LINE#         648
  C:8173H         LINE#         649
  C:8173H         LINE#         650
  C:8177H         LINE#         651
  C:8179H         LINE#         653
  C:8179H         LINE#         654
  C:8190H         LINE#         655
  C:8190H         LINE#         656
  -------         ENDPROC       PROG_ADDRESS_HIGH_BOARD
  -------         PROC          ADDR_HORARIOS
  -------         DO            
  X:0074H         SYMBOL        ee_addr_horario
  -------         ENDDO         
  C:B617H         LINE#         658
  C:B617H         LINE#         659
  C:B617H         LINE#         662
  C:B61DH         LINE#         663
  C:B621H         LINE#         664
  C:B625H         LINE#         665
  C:B629H         LINE#         666
  C:B62DH         LINE#         667
  C:B631H         LINE#         668
  C:B635H         LINE#         669
  C:B639H         LINE#         670
  C:B63DH         LINE#         671
  C:B641H         LINE#         672
  C:B644H         LINE#         673
  C:B64AH         LINE#         674
  -------         ENDPROC       ADDR_HORARIOS
  -------         PROC          _PROG_HORARIOS_ON_OFF
  X:0061H         SYMBOL        addr
  -------         DO            
  X:0063H         SYMBOL        buffer
  X:006DH         SYMBOL        dataee
  X:006FH         SYMBOL        habilitado
  -------         ENDDO         
  C:6FAAH         LINE#         675
  C:6FB4H         LINE#         676
  C:6FB4H         LINE#         679
  C:6FC3H         LINE#         680
  C:6FE0H         LINE#         681
  C:6FEAH         LINE#         682
  C:6FEAH         LINE#         683
  C:6FFDH         LINE#         684
  C:6FFFH         LINE#         686
  C:6FFFH         LINE#         687
  C:7016H         LINE#         688
  C:7016H         LINE#         689
  C:701FH         LINE#         690
  C:702AH         LINE#         691
  C:703BH         LINE#         692
  C:704AH         LINE#         694
  C:7061H         LINE#         695
BL51 BANKED LINKER/LOCATER V6.22.2.0                                                  05/14/2021  10:23:20  PAGE 73


  C:707EH         LINE#         696
  C:708BH         LINE#         697
  C:708BH         LINE#         698
  C:708EH         LINE#         699
  C:70A1H         LINE#         700
  C:70A3H         LINE#         702
  C:70A3H         LINE#         703
  C:70A8H         LINE#         704
  C:70BDH         LINE#         705
  C:70BDH         LINE#         706
  C:70C3H         LINE#         707
  -------         ENDPROC       _PROG_HORARIOS_ON_OFF
  -------         PROC          _PROG_HORARIO_DESDE_HASTA
  X:0061H         SYMBOL        addr
  -------         DO            
  X:0063H         SYMBOL        buffer
  D:0007H         SYMBOL        dataee
  -------         ENDDO         
  C:524FH         LINE#         708
  C:5257H         LINE#         709
  C:5257H         LINE#         714
  C:5260H         LINE#         715
  C:5263H         LINE#         716
  C:526CH         LINE#         717
  C:5284H         LINE#         718
  C:5297H         LINE#         719
  C:52A5H         LINE#         720
  C:52BDH         LINE#         721
  C:52D0H         LINE#         722
  C:52DEH         LINE#         723
  C:52F6H         LINE#         724
  C:5309H         LINE#         725
  C:5317H         LINE#         726
  C:532FH         LINE#         727
  C:5342H         LINE#         728
  C:5350H         LINE#         732
  C:5359H         LINE#         733
  C:535CH         LINE#         735
  C:5365H         LINE#         737
  C:537DH         LINE#         738
  C:5390H         LINE#         739
  C:539EH         LINE#         740
  C:53B6H         LINE#         741
  C:53C9H         LINE#         742
  C:53D7H         LINE#         743
  C:53EFH         LINE#         744
  C:5402H         LINE#         745
  C:5410H         LINE#         746
  C:5428H         LINE#         747
  C:543BH         LINE#         748
  -------         ENDPROC       _PROG_HORARIO_DESDE_HASTA
  -------         PROC          _VER_HORARIO_DESDE_HASTA
  X:0074H         SYMBOL        addr
  -------         DO            
  D:0007H         SYMBOL        dataee
  -------         ENDDO         
  C:70C4H         LINE#         750
BL51 BANKED LINKER/LOCATER V6.22.2.0                                                  05/14/2021  10:23:20  PAGE 74


  C:70CCH         LINE#         751
  C:70CCH         LINE#         753
  C:70D5H         LINE#         754
  C:70E8H         LINE#         755
  C:70F6H         LINE#         756
  C:7109H         LINE#         757
  C:7117H         LINE#         758
  C:712AH         LINE#         759
  C:7138H         LINE#         760
  C:714BH         LINE#         761
  C:7159H         LINE#         763
  C:716CH         LINE#         764
  C:717AH         LINE#         766
  C:718DH         LINE#         767
  C:719BH         LINE#         769
  C:71AEH         LINE#         770
  C:71BCH         LINE#         772
  C:71CFH         LINE#         773
  -------         ENDPROC       _VER_HORARIO_DESDE_HASTA
  -------         PROC          _PROG_HORARIO_DIAS
  X:0061H         SYMBOL        addr
  -------         DO            
  X:0063H         SYMBOL        buffer
  X:006DH         SYMBOL        dataee
  X:006EH         SYMBOL        j
  X:006FH         SYMBOL        temp
  -------         ENDDO         
  C:48BFH         LINE#         775
  C:48C7H         LINE#         776
  C:48C7H         LINE#         780
  C:48D0H         LINE#         781
  C:48D9H         LINE#         782
  C:48E2H         LINE#         783
  C:48EDH         LINE#         786
  C:48F6H         LINE#         788
  C:490CH         LINE#         789
  C:490CH         LINE#         791
  C:491FH         LINE#         792
  C:491FH         LINE#         793
  C:4928H         LINE#         795
  C:493DH         LINE#         796
  C:4955H         LINE#         797
  C:4962H         LINE#         798
  C:4962H         LINE#         800
  C:4978H         LINE#         801
  C:4978H         LINE#         802
  C:4981H         LINE#         803
  C:4996H         LINE#         804
  C:49AEH         LINE#         805
  C:49BBH         LINE#         806
  C:49BBH         LINE#         808
  C:49D1H         LINE#         809
  C:49D1H         LINE#         810
  C:49DAH         LINE#         811
  C:49EFH         LINE#         812
  C:4A07H         LINE#         813
  C:4A14H         LINE#         814
BL51 BANKED LINKER/LOCATER V6.22.2.0                                                  05/14/2021  10:23:20  PAGE 75


  C:4A14H         LINE#         816
  C:4A2AH         LINE#         817
  C:4A2AH         LINE#         818
  C:4A33H         LINE#         819
  C:4A48H         LINE#         820
  C:4A60H         LINE#         821
  C:4A6DH         LINE#         822
  C:4A6DH         LINE#         824
  C:4A83H         LINE#         825
  C:4A83H         LINE#         826
  C:4A8CH         LINE#         827
  C:4AA1H         LINE#         828
  C:4AB9H         LINE#         829
  C:4AC6H         LINE#         830
  C:4AC6H         LINE#         832
  C:4ADCH         LINE#         833
  C:4ADCH         LINE#         834
  C:4AE5H         LINE#         835
  C:4AFAH         LINE#         836
  C:4B12H         LINE#         837
  C:4B1FH         LINE#         838
  C:4B1FH         LINE#         840
  C:4B35H         LINE#         841
  C:4B35H         LINE#         842
  C:4B3EH         LINE#         843
  C:4B4DH         LINE#         844
  C:4B5FH         LINE#         845
  C:4B6CH         LINE#         846
  C:4B6CH         LINE#         847
  C:4B75H         LINE#         849
  -------         ENDPROC       _PROG_HORARIO_DIAS
  -------         PROC          _VER_HORARIO_DIAS
  X:0074H         SYMBOL        addr
  -------         DO            
  X:0076H         SYMBOL        dataee
  -------         ENDDO         
  C:6E82H         LINE#         850
  C:6E8AH         LINE#         851
  C:6E8AH         LINE#         854
  C:6E9AH         LINE#         855
  C:6EA0H         LINE#         856
  C:6EA0H         LINE#         857
  C:6EA4H         LINE#         858
  C:6EA6H         LINE#         860
  C:6EA6H         LINE#         861
  C:6EADH         LINE#         862
  C:6EADH         LINE#         865
  C:6EC5H         LINE#         866
  C:6ECBH         LINE#         867
  C:6ECBH         LINE#         868
  C:6ECFH         LINE#         869
  C:6ED1H         LINE#         871
  C:6ED1H         LINE#         872
  C:6ED8H         LINE#         873
  C:6ED8H         LINE#         876
  C:6EF0H         LINE#         877
  C:6EF6H         LINE#         878
BL51 BANKED LINKER/LOCATER V6.22.2.0                                                  05/14/2021  10:23:20  PAGE 76


  C:6EF6H         LINE#         879
  C:6EFAH         LINE#         880
  C:6EFCH         LINE#         882
  C:6EFCH         LINE#         883
  C:6F03H         LINE#         884
  C:6F03H         LINE#         886
  C:6F1BH         LINE#         887
  C:6F21H         LINE#         888
  C:6F21H         LINE#         889
  C:6F25H         LINE#         890
  C:6F27H         LINE#         892
  C:6F27H         LINE#         893
  C:6F2EH         LINE#         894
  C:6F2EH         LINE#         896
  C:6F46H         LINE#         897
  C:6F4CH         LINE#         898
  C:6F4CH         LINE#         899
  C:6F50H         LINE#         900
  C:6F52H         LINE#         902
  C:6F52H         LINE#         903
  C:6F59H         LINE#         904
  C:6F59H         LINE#         907
  C:6F71H         LINE#         908
  C:6F77H         LINE#         909
  C:6F77H         LINE#         910
  C:6F7BH         LINE#         911
  C:6F7DH         LINE#         913
  C:6F7DH         LINE#         914
  C:6F84H         LINE#         915
  C:6F84H         LINE#         917
  C:6F96H         LINE#         918
  C:6F9CH         LINE#         919
  C:6F9CH         LINE#         920
  C:6FA0H         LINE#         921
  C:6FA2H         LINE#         923
  C:6FA2H         LINE#         924
  C:6FA9H         LINE#         925
  C:6FA9H         LINE#         926
  -------         ENDPROC       _VER_HORARIO_DIAS
  -------         PROC          PROG_HORARIOS
  -------         DO            
  X:0046H         SYMBOL        buffer
  X:0050H         SYMBOL        ee_addr_horario
  X:005BH         SYMBOL        addr
  X:005DH         SYMBOL        temp
  X:005FH         SYMBOL        dataee
  X:0060H         SYMBOL        j
  -------         ENDDO         
  C:64B8H         LINE#         927
  C:64B8H         LINE#         928
  C:64B8H         LINE#         937
  C:64C4H         LINE#         941
  C:64CDH         LINE#         942
  C:64D8H         LINE#         944
  C:64E7H         LINE#         948
  C:64FDH         LINE#         949
  C:6503H         LINE#         953
BL51 BANKED LINKER/LOCATER V6.22.2.0                                                  05/14/2021  10:23:20  PAGE 77


  C:6511H         LINE#         954
  C:6519H         LINE#         955
  C:6519H         LINE#         957
  C:6528H         LINE#         958
  C:653CH         LINE#         959
  C:653CH         LINE#         960
  C:6550H         LINE#         961
  C:6558H         LINE#         963
  C:6568H         LINE#         966
  C:656BH         LINE#         970
  C:6576H         LINE#         973
  C:657FH         LINE#         974
  C:658AH         LINE#         975
  C:6599H         LINE#         976
  C:65ACH         LINE#         978
  C:65C4H         LINE#         979
  C:65DEH         LINE#         980
  C:65E6H         LINE#         981
  C:65E6H         LINE#         983
  C:65F4H         LINE#         984
  C:65FCH         LINE#         985
  C:65FCH         LINE#         986
  C:65FCH         LINE#         988
  -------         ENDPROC       PROG_HORARIOS
  -------         PROC          PROG_VALIDAR_TIPO_VEHICULO_MENSUAL
  -------         DO            
  X:0046H         SYMBOL        buffer
  X:0050H         SYMBOL        dataee
  -------         ENDDO         
  C:7BFCH         LINE#         989
  C:7BFCH         LINE#         990
  C:7BFCH         LINE#         995
  C:7C0FH         LINE#         996
  C:7C2CH         LINE#         997
  C:7C36H         LINE#         998
  C:7C36H         LINE#         999
  C:7C49H         LINE#         1000
  C:7C4BH         LINE#         1002
  C:7C4BH         LINE#         1003
  C:7C62H         LINE#         1004
  C:7C62H         LINE#         1006
  C:7C6BH         LINE#         1007
  C:7C76H         LINE#         1008
  C:7C87H         LINE#         1009
  C:7C91H         LINE#         1011
  C:7CA4H         LINE#         1012
  C:7CC1H         LINE#         1013
  C:7CCBH         LINE#         1014
  C:7CCBH         LINE#         1015
  C:7CDEH         LINE#         1016
  C:7CE0H         LINE#         1018
  C:7CE0H         LINE#         1019
  C:7CF7H         LINE#         1020
  C:7CF7H         LINE#         1021
  -------         ENDPROC       PROG_VALIDAR_TIPO_VEHICULO_MENSUAL
  -------         PROC          PROG_APB_MENSUAL
  -------         DO            
BL51 BANKED LINKER/LOCATER V6.22.2.0                                                  05/14/2021  10:23:20  PAGE 78


  X:0046H         SYMBOL        buffer
  X:0050H         SYMBOL        dataee
  -------         ENDDO         
  C:7CF8H         LINE#         1022
  C:7CF8H         LINE#         1023
  C:7CF8H         LINE#         1028
  C:7D0BH         LINE#         1029
  C:7D28H         LINE#         1030
  C:7D32H         LINE#         1031
  C:7D32H         LINE#         1032
  C:7D45H         LINE#         1033
  C:7D47H         LINE#         1035
  C:7D47H         LINE#         1036
  C:7D5EH         LINE#         1037
  C:7D5EH         LINE#         1039
  C:7D67H         LINE#         1040
  C:7D72H         LINE#         1041
  C:7D83H         LINE#         1042
  C:7D8DH         LINE#         1044
  C:7DA0H         LINE#         1045
  C:7DBDH         LINE#         1046
  C:7DC7H         LINE#         1047
  C:7DC7H         LINE#         1048
  C:7DDAH         LINE#         1049
  C:7DDCH         LINE#         1051
  C:7DDCH         LINE#         1052
  C:7DF3H         LINE#         1053
  C:7DF3H         LINE#         1054
  -------         ENDPROC       PROG_APB_MENSUAL
  -------         PROC          PROG_FECHA_VENCIMIENTO
  -------         DO            
  X:0046H         SYMBOL        buffer
  X:0051H         SYMBOL        cmd
  X:0054H         SYMBOL        fecha
  X:005BH         SYMBOL        dataee
  -------         ENDDO         
  C:5449H         LINE#         1056
  C:5449H         LINE#         1057
  C:5449H         LINE#         1064
  C:5456H         LINE#         1065
  C:546DH         LINE#         1068
  C:5484H         LINE#         1070
  C:5484H         LINE#         1071
  C:548DH         LINE#         1072
  C:549AH         LINE#         1073
  C:54B1H         LINE#         1074
  C:54C3H         LINE#         1075
  C:54CCH         LINE#         1080
  C:54D7H         LINE#         1081
  C:54EBH         LINE#         1082
  C:54F8H         LINE#         1084
  C:5501H         LINE#         1087
  C:550AH         LINE#         1088
  C:5515H         LINE#         1089
  C:552CH         LINE#         1091
  C:5534H         LINE#         1092
  C:553CH         LINE#         1093
BL51 BANKED LINKER/LOCATER V6.22.2.0                                                  05/14/2021  10:23:20  PAGE 79


  C:553FH         LINE#         1095
  C:5550H         LINE#         1096
  C:5561H         LINE#         1098
  C:5570H         LINE#         1099
  C:5578H         LINE#         1100
  C:5580H         LINE#         1101
  C:5583H         LINE#         1102
  C:5594H         LINE#         1103
  C:55A5H         LINE#         1104
  C:55B4H         LINE#         1105
  C:55BCH         LINE#         1106
  C:55C4H         LINE#         1107
  C:55C7H         LINE#         1108
  C:55D8H         LINE#         1109
  C:55E9H         LINE#         1110
  C:55F8H         LINE#         1111
  C:5603H         LINE#         1113
  C:5610H         LINE#         1115
  C:5627H         LINE#         1116
  -------         ENDPROC       PROG_FECHA_VENCIMIENTO
  -------         PROC          VER_HORARIO
  -------         DO            
  X:0059H         SYMBOL        buffer
  X:0063H         SYMBOL        ee_addr_horario
  X:006EH         SYMBOL        conta
  X:006FH         SYMBOL        addr
  X:0071H         SYMBOL        temp
  X:0073H         SYMBOL        dataee
  -------         ENDDO         
  C:6AF7H         LINE#         1119
  C:6AF7H         LINE#         1120
  C:6AF7H         LINE#         1129
  C:6B03H         LINE#         1130
  C:6B19H         LINE#         1131
  C:6B19H         LINE#         1133
  C:6B29H         LINE#         1136
  C:6B42H         LINE#         1137
  C:6B48H         LINE#         1140
  C:6B56H         LINE#         1141
  C:6B65H         LINE#         1142
  C:6B7FH         LINE#         1143
  C:6B8AH         LINE#         1144
  C:6B8AH         LINE#         1145
  C:6B93H         LINE#         1147
  C:6B9CH         LINE#         1148
  C:6BACH         LINE#         1149
  C:6BAFH         LINE#         1151
  C:6BBAH         LINE#         1152
  C:6BD2H         LINE#         1153
  C:6BECH         LINE#         1154
  C:6BF6H         LINE#         1155
  C:6BF6H         LINE#         1156
  C:6BFDH         LINE#         1158
  C:6C0BH         LINE#         1159
  C:6C13H         LINE#         1160
  C:6C15H         LINE#         1162
  C:6C15H         LINE#         1163
BL51 BANKED LINKER/LOCATER V6.22.2.0                                                  05/14/2021  10:23:20  PAGE 80


  C:6C19H         LINE#         1164
  C:6C19H         LINE#         1165
  C:6C1BH         LINE#         1167
  C:6C1BH         LINE#         1168
  C:6C24H         LINE#         1169
  C:6C24H         LINE#         1171
  C:6C2DH         LINE#         1174
  -------         ENDPROC       VER_HORARIO
  -------         PROC          VER_PROG
  -------         DO            
  X:0046H         SYMBOL        buffer
  X:0050H         SYMBOL        dataee
  X:0052H         SYMBOL        fecha
  -------         ENDDO         
  C:4293H         LINE#         1175
  C:4293H         LINE#         1176
  C:4293H         LINE#         1182
  C:42A5H         LINE#         1183
  C:42C2H         LINE#         1185
  C:42D9H         LINE#         1187
  C:42ECH         LINE#         1188
  C:4309H         LINE#         1190
  C:4320H         LINE#         1192
  C:4333H         LINE#         1193
  C:4350H         LINE#         1194
  C:435EH         LINE#         1195
  C:435EH         LINE#         1196
  C:4362H         LINE#         1197
  C:4364H         LINE#         1199
  C:4364H         LINE#         1200
  C:436BH         LINE#         1201
  C:436BH         LINE#         1203
  C:437EH         LINE#         1204
  C:439BH         LINE#         1205
  C:43A7H         LINE#         1206
  C:43A7H         LINE#         1207
  C:43ABH         LINE#         1208
  C:43ADH         LINE#         1210
  C:43ADH         LINE#         1211
  C:43B4H         LINE#         1212
  C:43B4H         LINE#         1214
  C:43C7H         LINE#         1215
  C:43E4H         LINE#         1216
  C:43F0H         LINE#         1217
  C:43F0H         LINE#         1218
  C:43F4H         LINE#         1219
  C:43F6H         LINE#         1221
  C:43F6H         LINE#         1222
  C:43FDH         LINE#         1223
  C:43FDH         LINE#         1225
  C:4410H         LINE#         1226
  C:442DH         LINE#         1227
  C:4439H         LINE#         1228
  C:4439H         LINE#         1229
  C:443DH         LINE#         1230
  C:443FH         LINE#         1232
  C:443FH         LINE#         1233
BL51 BANKED LINKER/LOCATER V6.22.2.0                                                  05/14/2021  10:23:20  PAGE 81


  C:4446H         LINE#         1234
  C:4446H         LINE#         1236
  C:4459H         LINE#         1237
  C:4476H         LINE#         1238
  C:4482H         LINE#         1239
  C:4482H         LINE#         1240
  C:4486H         LINE#         1241
  C:4488H         LINE#         1243
  C:4488H         LINE#         1244
  C:448FH         LINE#         1245
  C:448FH         LINE#         1247
  C:44A2H         LINE#         1248
  C:44BFH         LINE#         1249
  C:44CBH         LINE#         1250
  C:44CBH         LINE#         1251
  C:44CFH         LINE#         1252
  C:44D1H         LINE#         1254
  C:44D1H         LINE#         1255
  C:44D8H         LINE#         1256
  C:44D8H         LINE#         1259
  C:44EBH         LINE#         1260
  C:4508H         LINE#         1262
  C:451FH         LINE#         1264
  C:4522H         LINE#         1268
  C:4535H         LINE#         1269
  C:4552H         LINE#         1270
  C:455EH         LINE#         1271
  C:455EH         LINE#         1272
  C:4562H         LINE#         1273
  C:4564H         LINE#         1275
  C:4564H         LINE#         1276
  C:456BH         LINE#         1277
  C:456BH         LINE#         1279
  C:457EH         LINE#         1280
  C:459BH         LINE#         1281
  C:45A7H         LINE#         1282
  C:45A7H         LINE#         1283
  C:45ABH         LINE#         1284
  C:45ADH         LINE#         1286
  C:45ADH         LINE#         1287
  C:45B4H         LINE#         1288
  C:45B4H         LINE#         1290
  C:45C1H         LINE#         1292
  C:45D8H         LINE#         1293
  -------         ENDPROC       VER_PROG
  -------         PROC          SHOW
  C:98F3H         LINE#         1299
  C:98F3H         LINE#         1300
  C:98F3H         LINE#         1301
  C:98FCH         LINE#         1302
  C:9905H         LINE#         1303
  C:990EH         LINE#         1304
  C:9917H         LINE#         1305
  C:9920H         LINE#         1306
  C:9929H         LINE#         1307
  C:9932H         LINE#         1308
  C:993BH         LINE#         1309
BL51 BANKED LINKER/LOCATER V6.22.2.0                                                  05/14/2021  10:23:20  PAGE 82


  C:9944H         LINE#         1310
  C:994DH         LINE#         1311
  C:9956H         LINE#         1312
  C:995FH         LINE#         1313
  C:9968H         LINE#         1314
  C:9971H         LINE#         1315
  C:997AH         LINE#         1316
  C:9983H         LINE#         1317
  -------         ENDPROC       SHOW
  -------         PROC          FIRST_CLAVE
  -------         DO            
  X:0046H         SYMBOL        clave
  -------         ENDDO         
  C:AEEDH         LINE#         1324
  C:AEEDH         LINE#         1325
  C:AEEDH         LINE#         1329
  C:AEF6H         LINE#         1330
  C:AEFBH         LINE#         1331
  C:AF0DH         LINE#         1332
  C:AF1AH         LINE#         1333
  C:AF20H         LINE#         1334
  C:AF23H         LINE#         1335
  C:AF26H         LINE#         1336
  C:AF28H         LINE#         1338
  -------         ENDPROC       FIRST_CLAVE
  -------         PROC          MENU
  -------         DO            
  X:0001H         SYMBOL        cmd
  X:0004H         SYMBOL        option1
  X:0007H         SYMBOL        option2
  X:000AH         SYMBOL        opt_buffer
  X:0032H         SYMBOL        buffer
  -------         ENDDO         
  C:4E1BH         LINE#         1342
  C:4E1BH         LINE#         1343
  C:4E1BH         LINE#         1352
  C:4E24H         LINE#         1357
  C:4E30H         LINE#         1358
  C:4E30H         LINE#         1359
  C:4E33H         LINE#         1360
  C:4E3DH         LINE#         1363
  C:4E3DH         LINE#         1365
  C:4E3DH         LINE#         1366
  C:4E46H         LINE#         1367
  C:4E53H         LINE#         1368
  C:4E58H         LINE#         1369
  C:4E6EH         LINE#         1370
  C:4E80H         LINE#         1371
  C:4E89H         LINE#         1376
  C:4E94H         LINE#         1377
  C:4EA2H         LINE#         1378
  C:4EAFH         LINE#         1380
  C:4EB8H         LINE#         1384
  C:4EBBH         LINE#         1385
  C:4EBBH         LINE#         1386
  C:4EBBH         LINE#         1387
  C:4EBEH         LINE#         1390
BL51 BANKED LINKER/LOCATER V6.22.2.0                                                  05/14/2021  10:23:20  PAGE 83


  C:4EC9H         LINE#         1391
  C:4ED7H         LINE#         1392
  C:4EEBH         LINE#         1393
  C:4EFFH         LINE#         1398
  C:4F15H         LINE#         1399
  C:4F15H         LINE#         1401
  C:4F24H         LINE#         1402
  C:4F26H         LINE#         1403
  C:4F36H         LINE#         1404
  C:4F36H         LINE#         1406
  C:4F45H         LINE#         1407
  C:4F63H         LINE#         1408
  C:4F63H         LINE#         1414
  C:4F76H         LINE#         1415
  C:4F76H         LINE#         1416
  C:4FBFH         LINE#         1417
  C:4FBFH         LINE#         1418
  C:4FBFH         LINE#         1419
  C:4FC2H         LINE#         1421
  C:4FC5H         LINE#         1423
  C:4FC5H         LINE#         1424
  C:4FC8H         LINE#         1425
  C:4FCBH         LINE#         1426
  C:4FCBH         LINE#         1427
  C:4FCEH         LINE#         1428
  C:4FD1H         LINE#         1429
  C:4FD1H         LINE#         1430
  C:4FD4H         LINE#         1431
  C:4FD7H         LINE#         1432
  C:4FD7H         LINE#         1433
  C:4FDAH         LINE#         1434
  C:4FDDH         LINE#         1435
  C:4FDDH         LINE#         1436
  C:4FE0H         LINE#         1437
  C:4FE3H         LINE#         1438
  C:4FE3H         LINE#         1439
  C:4FE6H         LINE#         1440
  C:4FE9H         LINE#         1441
  C:4FE9H         LINE#         1442
  C:4FECH         LINE#         1443
  C:4FEFH         LINE#         1444
  C:4FEFH         LINE#         1445
  C:4FF2H         LINE#         1446
  C:4FF5H         LINE#         1447
  C:4FF5H         LINE#         1448
  C:4FF8H         LINE#         1449
  C:4FFBH         LINE#         1450
  C:4FFBH         LINE#         1451
  C:4FFEH         LINE#         1452
  C:5001H         LINE#         1453
  C:5001H         LINE#         1454
  C:5004H         LINE#         1455
  C:5007H         LINE#         1456
  C:5007H         LINE#         1457
  C:500AH         LINE#         1458
  C:500DH         LINE#         1459
  C:500DH         LINE#         1460
BL51 BANKED LINKER/LOCATER V6.22.2.0                                                  05/14/2021  10:23:20  PAGE 84


  C:5010H         LINE#         1461
  C:5013H         LINE#         1462
  C:5013H         LINE#         1463
  C:5016H         LINE#         1464
  C:5019H         LINE#         1465
  C:5019H         LINE#         1466
  C:501CH         LINE#         1467
  C:501FH         LINE#         1468
  C:501FH         LINE#         1470
  C:501FH         LINE#         1471
  C:501FH         LINE#         1472
  C:5022H         LINE#         1473
  C:5025H         LINE#         1476
  C:5025H         LINE#         1477
  C:5043H         LINE#         1478
  C:5046H         LINE#         1479
  C:5046H         LINE#         1480
  C:5046H         LINE#         1481
  C:5046H         LINE#         1482
  -------         ENDPROC       MENU
  -------         ENDMOD        PROG

  -------         MODULE        PTO_PARALELO
  C:0000H         SYMBOL        _ICE_DUMMY_
  D:0080H         PUBLIC        P0
  D:00A0H         PUBLIC        P2
  D:00B0H         PUBLIC        P3
  B:0080H.2       PUBLIC        led_err_imp
  C:69BBH         PUBLIC        load_and_send_id_cod
  C:998CH         PUBLIC        _recibe_port
  B:00B0H.2       PUBLIC        ready
  B:0080H.6       PUBLIC        rx_in_data
  C:B9FAH         PUBLIC        Pulso_Bus
  C:A055H         PUBLIC        _send_portERR
  B:00B0H.3       PUBLIC        busy
  C:AE0DH         PUBLIC        load_and_send_info_reloj
  C:9288H         PUBLIC        _send_port
  B:00B0H.4       PUBLIC        port_clk
  C:BA75H         PUBLIC        cond_ini_pto
  -------         PROC          _RECIBE_PORT
  X:0001H         SYMBOL        buffer_port
  -------         DO            
  D:0006H         SYMBOL        count
  X:0004H         SYMBOL        time_out
  X:0005H         SYMBOL        num_data
  X:0006H         SYMBOL        T_ANCHO
  X:0008H         SYMBOL        data_temp
  -------         ENDDO         
  C:998CH         LINE#         60
  C:9997H         LINE#         61
  C:9997H         LINE#         65
  C:99A0H         LINE#         66
  C:99A3H         LINE#         69
  C:99A6H         LINE#         70
  C:99A6H         LINE#         72
  C:99A9H         LINE#         73
  C:99AEH         LINE#         74
BL51 BANKED LINKER/LOCATER V6.22.2.0                                                  05/14/2021  10:23:20  PAGE 85


  C:99B0H         LINE#         75
  C:99B4H         LINE#         76
  C:99B6H         LINE#         79
  C:99BBH         LINE#         80
  C:99C4H         LINE#         81
  C:99C4H         LINE#         82
  C:99C7H         LINE#         83
  C:99C7H         LINE#         85
  C:99CCH         LINE#         86
  C:99D0H         LINE#         87
  C:99D0H         LINE#         88
  C:99D2H         LINE#         89
  C:99D4H         LINE#         90
  C:99D4H         LINE#         91
  C:99D4H         LINE#         93
  C:99D4H         LINE#         94
  C:99E1H         LINE#         95
  C:99E1H         LINE#         97
  C:99E4H         LINE#         98
  C:99E4H         LINE#         100
  C:99EAH         LINE#         102
  C:99ECH         LINE#         103
  C:9A00H         LINE#         104
  C:9A0AH         LINE#         105
  C:9A10H         LINE#         106
  C:9A16H         LINE#         107
  C:9A18H         LINE#         108
  C:9A18H         LINE#         109
  C:9A18H         LINE#         110
  C:9A18H         LINE#         113
  C:9A1AH         LINE#         114
  C:9A1CH         LINE#         115
  C:9A1CH         LINE#         116
  C:9A1FH         LINE#         118
  C:9A24H         LINE#         119
  -------         ENDPROC       _RECIBE_PORT
  -------         PROC          _SEND_PORT
  X:0016H         SYMBOL        buffer_port
  X:0019H         SYMBOL        length_char
  -------         DO            
  X:001AH         SYMBOL        cont
  X:001EH         SYMBOL        timeOut
  X:001FH         SYMBOL        length
  -------         ENDDO         
  C:9288H         LINE#         126
  C:9296H         LINE#         127
  C:9296H         LINE#         132
  C:929AH         LINE#         134
  C:929CH         LINE#         135
  C:929EH         LINE#         136
  C:92A0H         LINE#         137
  C:92A5H         LINE#         138
  C:92A7H         LINE#         139
  C:92B1H         LINE#         141
  C:92BAH         LINE#         142
  C:92BAH         LINE#         143
  C:92BCH         LINE#         144
BL51 BANKED LINKER/LOCATER V6.22.2.0                                                  05/14/2021  10:23:20  PAGE 86


  C:92BEH         LINE#         145
  C:92E2H         LINE#         146
  C:92F6H         LINE#         147
  C:92F6H         LINE#         148
  C:92F9H         LINE#         149
  C:92FBH         LINE#         150
  C:92FBH         LINE#         151
  C:92FDH         LINE#         152
  C:9306H         LINE#         153
  C:9306H         LINE#         157
  C:9306H         LINE#         159
  C:9316H         LINE#         160
  C:9319H         LINE#         161
  C:9323H         LINE#         163
  C:9329H         LINE#         164
  C:932CH         LINE#         166
  C:932CH         LINE#         168
  C:932FH         LINE#         169
  C:9331H         LINE#         170
  C:9333H         LINE#         171
  C:9335H         LINE#         172
  -------         ENDPROC       _SEND_PORT
  -------         PROC          PULSO_BUS
  C:B9FAH         LINE#         180
  C:B9FAH         LINE#         181
  C:B9FAH         LINE#         182
  C:B9FCH         LINE#         183
  C:BA03H         LINE#         184
  C:BA05H         LINE#         185
  -------         ENDPROC       PULSO_BUS
  -------         PROC          _SEND_PORTERR
  X:002AH         SYMBOL        cod_err
  -------         DO            
  X:002BH         SYMBOL        timeOut
  X:002CH         SYMBOL        cont
  -------         ENDDO         
  C:A055H         LINE#         190
  C:A05BH         LINE#         191
  C:A05BH         LINE#         195
  C:A05DH         LINE#         196
  C:A05FH         LINE#         197
  C:A062H         LINE#         198
  C:A06AH         LINE#         200
  C:A06CH         LINE#         201
  C:A06EH         LINE#         202
  C:A077H         LINE#         203
  C:A077H         LINE#         204
  C:A099H         LINE#         205
  C:A0ADH         LINE#         206
  C:A0ADH         LINE#         207
  C:A0B2H         LINE#         208
  C:A0B2H         LINE#         209
  C:A0B4H         LINE#         210
  C:A0BDH         LINE#         211
  C:A0BDH         LINE#         212
  C:A0C3H         LINE#         213
  C:A0C6H         LINE#         214
BL51 BANKED LINKER/LOCATER V6.22.2.0                                                  05/14/2021  10:23:20  PAGE 87


  C:A0C6H         LINE#         215
  C:A0C8H         LINE#         216
  C:A0CAH         LINE#         217
  C:A0CCH         LINE#         219
  C:A0CFH         LINE#         221
  C:A0D6H         LINE#         222
  -------         ENDPROC       _SEND_PORTERR
  -------         PROC          COND_INI_PTO
  C:BA75H         LINE#         228
  C:BA75H         LINE#         229
  C:BA75H         LINE#         231
  C:BA77H         LINE#         232
  C:BA79H         LINE#         233
  C:BA7BH         LINE#         234
  C:BA7EH         LINE#         235
  -------         ENDPROC       COND_INI_PTO
  -------         PROC          LOAD_AND_SEND_INFO_RELOJ
  -------         DO            
  X:0002H         SYMBOL        buffer_info
  -------         ENDDO         
  C:AE0DH         LINE#         240
  C:AE0DH         LINE#         241
  C:AE0DH         LINE#         244
  C:AE13H         LINE#         246
  C:AE17H         LINE#         249
  C:AE20H         LINE#         251
  C:AE2AH         LINE#         252
  C:AE2EH         LINE#         253
  C:AE31H         LINE#         254
  C:AE3AH         LINE#         255
  C:AE4BH         LINE#         256
  C:AE4EH         LINE#         257
  -------         ENDPROC       LOAD_AND_SEND_INFO_RELOJ
  -------         PROC          LOAD_AND_SEND_ID_COD
  -------         DO            
  X:0002H         SYMBOL        buffer_info
  X:000DH         SYMBOL        buf
  X:0011H         SYMBOL        i
  X:0012H         SYMBOL        ID_CLIENTE
  X:0014H         SYMBOL        COD_PARK
  -------         ENDDO         
  C:69BBH         LINE#         264
  C:69BBH         LINE#         265
  C:69BBH         LINE#         273
  C:69CBH         LINE#         275
  C:69DCH         LINE#         277
  C:69E2H         LINE#         278
  C:69E6H         LINE#         279
  C:69E9H         LINE#         281
  C:6A0FH         LINE#         282
  C:6A26H         LINE#         285
  C:6A3DH         LINE#         288
  C:6A63H         LINE#         289
  C:6A7AH         LINE#         291
  C:6A91H         LINE#         292
  C:6A9FH         LINE#         293
  C:6AB0H         LINE#         294
BL51 BANKED LINKER/LOCATER V6.22.2.0                                                  05/14/2021  10:23:20  PAGE 88


  C:6AC3H         LINE#         295
  C:6AC9H         LINE#         296
  C:6AD2H         LINE#         297
  C:6AE6H         LINE#         298
  C:6AE9H         LINE#         299
  -------         ENDPROC       LOAD_AND_SEND_ID_COD
  -------         ENDMOD        PTO_PARALELO

  -------         MODULE        TIBBO
  C:0000H         SYMBOL        _ICE_DUMMY_
  C:B04FH         PUBLIC        _Debug_HexDec
  C:AEAFH         PUBLIC        _Debug_txt_Tibbo
  D:0080H         PUBLIC        P0
  D:0090H         PUBLIC        P1
  B:0090H.0       PUBLIC        txd2
  B:00A8H.7       PUBLIC        EA
  C:AE5CH         PUBLIC        _tx_aux
  B:0080H.0       PUBLIC        rx_ip
  C:BA7FH         PUBLIC        Debug_Dividir_texto
  C:BAD9H         PUBLIC        cond_ini_tibbo
  C:B983H         PUBLIC        time_mbit
  C:A0DDH         PUBLIC        rx_Data
  C:B902H         PUBLIC        time_bit
  C:B266H         PUBLIC        _Debug_pto_paralelo
  C:B3DBH         PUBLIC        _Debug_monitor
  C:A2F7H         PUBLIC        _DebugBufferMF
  C:AF35H         PUBLIC        _Debug_chr_Tibbo
  C:B8FCH         SYMBOL        L?0067
  -------         PROC          L?0066
  -------         ENDPROC       L?0066
  C:B8FCH         SYMBOL        L?0067
  -------         PROC          TIME_BIT
  -------         DO            
  D:0007H         SYMBOL        j
  -------         ENDDO         
  C:B902H         LINE#         20
  C:B902H         LINE#         21
  C:B902H         LINE#         24
  C:B90EH         LINE#         25
  C:B90EH         LINE#         26
  C:B90FH         LINE#         27
  C:B910H         LINE#         28
  C:B911H         LINE#         29
  C:B912H         LINE#         30
  C:B913H         LINE#         31
  C:B914H         LINE#         32
  C:B915H         LINE#         33
  C:B916H         LINE#         34
  C:B917H         LINE#         39
  C:B91AH         LINE#         40
  -------         ENDPROC       TIME_BIT
  -------         PROC          TIME_MBIT
  -------         DO            
  D:0007H         SYMBOL        j
  -------         ENDDO         
  C:B983H         LINE#         43
  C:B983H         LINE#         44
BL51 BANKED LINKER/LOCATER V6.22.2.0                                                  05/14/2021  10:23:20  PAGE 89


  C:B983H         LINE#         46
  C:B98FH         LINE#         47
  C:B98FH         LINE#         48
  C:B990H         LINE#         49
  C:B991H         LINE#         50
  C:B992H         LINE#         51
  C:B993H         LINE#         52
  C:B994H         LINE#         53
  C:B995H         LINE#         54
  C:B996H         LINE#         55
  C:B999H         LINE#         57
  -------         ENDPROC       TIME_MBIT
  -------         PROC          L?0070
  -------         ENDPROC       L?0070
  -------         PROC          _TX_AUX
  D:0006H         SYMBOL        caracter
  -------         DO            
  D:0004H         SYMBOL        j
  D:0005H         SYMBOL        temporal
  D:0006H         SYMBOL        bitTX
  -------         ENDDO         
  C:AE5CH         LINE#         62
  C:AE5EH         LINE#         63
  C:AE5EH         LINE#         66
  C:AE60H         LINE#         67
  C:AE62H         LINE#         68
  C:AE65H         LINE#         69
  C:AE66H         LINE#         70
  C:AE67H         LINE#         71
  C:AE69H         LINE#         72
  C:AE6DH         LINE#         73
  C:AE6FH         LINE#         74
  C:AE6FH         LINE#         75
  C:AE71H         LINE#         76
  C:AE73H         LINE#         78
  C:AE73H         LINE#         79
  C:AE75H         LINE#         80
  C:AE75H         LINE#         81
  C:AE78H         LINE#         82
  C:AE84H         LINE#         83
  C:AE84H         LINE#         84
  C:AE88H         LINE#         85
  C:AE8BH         LINE#         86
  C:AE8DH         LINE#         87
  C:AE8DH         LINE#         88
  C:AE8FH         LINE#         89
  C:AE91H         LINE#         91
  C:AE91H         LINE#         92
  C:AE93H         LINE#         93
  C:AE93H         LINE#         94
  C:AE96H         LINE#         95
  C:AE99H         LINE#         96
  C:AE9BH         LINE#         97
  C:AE9EH         LINE#         98
  C:AEA1H         LINE#         100
  C:AEA3H         LINE#         101
  -------         ENDPROC       _TX_AUX
BL51 BANKED LINKER/LOCATER V6.22.2.0                                                  05/14/2021  10:23:20  PAGE 90


  -------         PROC          _DEBUG_HEXDEC
  D:0007H         SYMBOL        xfc
  -------         DO            
  X:0018H         SYMBOL        valor
  D:0006H         SYMBOL        centena
  D:0003H         SYMBOL        decena
  D:0002H         SYMBOL        unidad
  -------         ENDDO         
  C:B04FH         LINE#         104
  C:B04FH         LINE#         105
  C:B04FH         LINE#         108
  C:B056H         LINE#         110
  C:B057H         LINE#         111
  C:B058H         LINE#         112
  C:B059H         LINE#         113
  C:B061H         LINE#         114
  C:B061H         LINE#         115
  C:B06BH         LINE#         116
  C:B06BH         LINE#         117
  C:B06FH         LINE#         118
  C:B070H         LINE#         119
  C:B072H         LINE#         120
  C:B07CH         LINE#         121
  C:B07CH         LINE#         122
  C:B080H         LINE#         123
  C:B081H         LINE#         124
  C:B083H         LINE#         125
  C:B085H         LINE#         126
  C:B089H         LINE#         127
  C:B08DH         LINE#         128
  C:B094H         LINE#         130
  C:B094H         LINE#         131
  -------         ENDPROC       _DEBUG_HEXDEC
  -------         PROC          _DEBUG_CHR_TIBBO
  D:0003H         SYMBOL        Dat
  -------         DO            
  D:0007H         SYMBOL        temp
  -------         ENDDO         
  C:AF35H         LINE#         136
  C:AF37H         LINE#         137
  C:AF37H         LINE#         139
  C:AF3FH         LINE#         140
  C:AF3FH         LINE#         141
  C:AF46H         LINE#         142
  C:AF59H         LINE#         144
  C:AF5CH         LINE#         146
  C:AF60H         LINE#         147
  C:AF73H         LINE#         148
  C:AF76H         LINE#         149
  C:AF7BH         LINE#         151
  C:AF7BH         LINE#         152
  -------         ENDPROC       _DEBUG_CHR_TIBBO
  -------         PROC          _DEBUGBUFFERMF
  X:0027H         SYMBOL        str
  X:002AH         SYMBOL        num_char
  X:002BH         SYMBOL        io
  -------         DO            
BL51 BANKED LINKER/LOCATER V6.22.2.0                                                  05/14/2021  10:23:20  PAGE 91


  X:002CH         SYMBOL        j
  -------         ENDDO         
  C:A2F7H         LINE#         160
  C:A305H         LINE#         161
  C:A305H         LINE#         165
  C:A30DH         LINE#         166
  C:A30DH         LINE#         167
  C:A31CH         LINE#         168
  C:A31CH         LINE#         169
  C:A322H         LINE#         170
  C:A324H         LINE#         171
  C:A331H         LINE#         172
  C:A331H         LINE#         173
  C:A33AH         LINE#         174
  C:A33AH         LINE#         176
  C:A34CH         LINE#         177
  C:A34CH         LINE#         178
  C:A35EH         LINE#         179
  C:A368H         LINE#         180
  C:A370H         LINE#         181
  C:A375H         LINE#         182
  C:A37AH         LINE#         183
  C:A37AH         LINE#         185
  -------         ENDPROC       _DEBUGBUFFERMF
  C:AEA9H         SYMBOL        L?0069
  -------         PROC          L?0068
  -------         ENDPROC       L?0068
  C:AEA9H         SYMBOL        L?0069
  -------         PROC          _DEBUG_TXT_TIBBO
  X:004EH         SYMBOL        str
  -------         DO            
  X:0051H         SYMBOL        i
  -------         ENDDO         
  C:AEAFH         LINE#         190
  C:AEBAH         LINE#         191
  C:AEBAH         LINE#         193
  C:AEBDH         LINE#         195
  C:AEC5H         LINE#         196
  C:AEC5H         LINE#         197
  C:AEE1H         LINE#         198
  C:AEE1H         LINE#         199
  C:AEE4H         LINE#         200
  C:AEECH         LINE#         202
  C:AEECH         LINE#         203
  -------         ENDPROC       _DEBUG_TXT_TIBBO
  -------         PROC          DEBUG_DIVIDIR_TEXTO
  C:BA7FH         LINE#         205
  C:BA7FH         LINE#         206
  C:BA7FH         LINE#         207
  -------         ENDPROC       DEBUG_DIVIDIR_TEXTO
  -------         PROC          RX_DATA
  -------         DO            
  D:0006H         SYMBOL        temporal
  -------         ENDDO         
  C:A0DDH         LINE#         213
  C:A0DDH         LINE#         214
  C:A0DDH         LINE#         217
BL51 BANKED LINKER/LOCATER V6.22.2.0                                                  05/14/2021  10:23:20  PAGE 92


  C:A0DFH         LINE#         218
  C:A0E2H         LINE#         220
  C:A0E5H         LINE#         222
  C:A0F1H         LINE#         223
  C:A0F1H         LINE#         225
  C:A0F4H         LINE#         227
  C:A100H         LINE#         228
  C:A100H         LINE#         230
  C:A103H         LINE#         232
  C:A10FH         LINE#         233
  C:A10FH         LINE#         235
  C:A112H         LINE#         237
  C:A11EH         LINE#         238
  C:A11EH         LINE#         240
  C:A121H         LINE#         242
  C:A12DH         LINE#         243
  C:A12DH         LINE#         245
  C:A130H         LINE#         247
  C:A13CH         LINE#         248
  C:A13CH         LINE#         250
  C:A13FH         LINE#         252
  C:A14BH         LINE#         253
  C:A14BH         LINE#         255
  C:A14EH         LINE#         256
  C:A15CH         LINE#         258
  C:A15FH         LINE#         259
  C:A162H         LINE#         260
  C:A162H         LINE#         261
  C:A162H         LINE#         264
  C:A164H         LINE#         266
  -------         ENDPROC       RX_DATA
  -------         PROC          COND_INI_TIBBO
  C:BAD9H         LINE#         284
  C:BAD9H         LINE#         285
  C:BAD9H         LINE#         287
  C:BADBH         LINE#         288
  C:BADDH         LINE#         289
  -------         ENDPROC       COND_INI_TIBBO
  -------         PROC          _DEBUG_PTO_PARALELO
  X:0001H         SYMBOL        buffer
  X:0004H         SYMBOL        Length_trama
  C:B266H         LINE#         290
  C:B274H         LINE#         291
  C:B274H         LINE#         293
  C:B27DH         LINE#         294
  C:B294H         LINE#         295
  C:B29DH         LINE#         296
  C:B2A0H         LINE#         297
  C:B2A3H         LINE#         298
  -------         ENDPROC       _DEBUG_PTO_PARALELO
  -------         PROC          _DEBUG_MONITOR
  X:0016H         SYMBOL        buffer
  X:0019H         SYMBOL        Length_trama
  C:B3DBH         LINE#         301
  C:B3E9H         LINE#         302
  C:B3E9H         LINE#         303
  C:B3ECH         LINE#         304
BL51 BANKED LINKER/LOCATER V6.22.2.0                                                  05/14/2021  10:23:20  PAGE 93


  C:B3F5H         LINE#         305
  C:B403H         LINE#         306
  C:B406H         LINE#         307
  C:B40FH         LINE#         308
  C:B412H         LINE#         309
  C:B415H         LINE#         310
  -------         ENDPROC       _DEBUG_MONITOR
  -------         ENDMOD        TIBBO

  -------         MODULE        UART
  C:0000H         SYMBOL        _ICE_DUMMY_
  C:B7A3H         PUBLIC        com_getchar
  C:BA0CH         PUBLIC        com_rbuflen
  C:BA1EH         PUBLIC        com_tbuflen
  B:00A8H.4       PUBLIC        ES
  B:0098H.0       PUBLIC        RI
  C:B490H         PUBLIC        _com_putchar
  B:0098H.1       PUBLIC        TI
  B:0021H.4       PUBLIC        aSk
  B:00B8H.4       PUBLIC        PS
  D:000DH         SYMBOL        r_in
  D:000EH         SYMBOL        r_out
  D:000FH         SYMBOL        t_in
  D:0010H         SYMBOL        t_out
  D:0099H         PUBLIC        SBUF
  D:0087H         PUBLIC        PCON
  D:0089H         PUBLIC        TMOD
  B:0021H.5       SYMBOL        ti_restart
  B:00A8H.3       PUBLIC        ET1
  D:008DH         PUBLIC        TH1
  B:0098H.7       PUBLIC        SM0
  B:0098H.6       PUBLIC        SM1
  D:008BH         PUBLIC        TL1
  B:0098H.5       PUBLIC        SM2
  B:0088H.6       PUBLIC        TR1
  C:B6DAH         PUBLIC        com_initialize
  X:020CH         PUBLIC        cnt__ask_off
  B:0098H.4       PUBLIC        REN
  C:B72CH         PUBLIC        com_baudrate
  C:59ECH         SYMBOL        com_isr
  -------         PROC          COM_ISR
  -------         DO            
  X:020AH         SYMBOL        cDatoRx
  D:0006H         SYMBOL        k
  D:0007H         SYMBOL        bcc
  X:020BH         SYMBOL        num_datos
  -------         ENDDO         
  C:59ECH         LINE#         96
  C:5A01H         LINE#         104
  C:5A07H         LINE#         105
  C:5A07H         LINE#         107
  C:5A09H         LINE#         108
  C:5A0FH         LINE#         109
  C:5A1FH         LINE#         110
  C:5A1FH         LINE#         111
  C:5A2AH         LINE#         112
  C:5A2CH         LINE#         114
BL51 BANKED LINKER/LOCATER V6.22.2.0                                                  05/14/2021  10:23:20  PAGE 94


  C:5A2CH         LINE#         115
  C:5A3CH         LINE#         116
  C:5A3CH         LINE#         117
  C:5A41H         LINE#         118
  C:5A41H         LINE#         119
  C:5A58H         LINE#         120
  C:5A58H         LINE#         124
  C:5A58H         LINE#         127
  C:5A67H         LINE#         128
  C:5A67H         LINE#         129
  C:5A69H         LINE#         130
  C:5A71H         LINE#         131
  C:5A76H         LINE#         133
  C:5A76H         LINE#         134
  C:5A79H         LINE#         138
  C:5A79H         LINE#         139
  C:5A79H         LINE#         140
  C:5A91H         LINE#         141
  C:5AA0H         LINE#         142
  C:5AA0H         LINE#         143
  C:5AA0H         LINE#         144
  C:5AA2H         LINE#         146
  C:5AA2H         LINE#         147
  C:5AA4H         LINE#         148
  C:5AA4H         LINE#         149
  C:5AA4H         LINE#         150
  C:5AA7H         LINE#         154
  C:5AA7H         LINE#         156
  C:5AB0H         LINE#         157
  C:5AB0H         LINE#         159
  C:5AB6H         LINE#         160
  C:5AC9H         LINE#         161
  C:5AC9H         LINE#         162
  C:5ACCH         LINE#         164
  C:5ACCH         LINE#         165
  C:5AE1H         LINE#         166
  C:5AE7H         LINE#         167
  C:5AE7H         LINE#         169
  C:5AEAH         LINE#         173
  C:5AEAH         LINE#         175
  C:5B02H         LINE#         176
  C:5B08H         LINE#         177
  C:5B0BH         LINE#         178
  C:5B0BH         LINE#         179
  C:5B23H         LINE#         180
  C:5B23H         LINE#         181
  C:5B24H         LINE#         182
  C:5B31H         LINE#         183
  C:5B31H         LINE#         184
  C:5B3EH         LINE#         185
  C:5B41H         LINE#         186
  C:5B4FH         LINE#         187
  C:5B4FH         LINE#         188
  C:5B51H         LINE#         189
  C:5B56H         LINE#         190
  C:5B58H         LINE#         191
  C:5B5CH         LINE#         193
BL51 BANKED LINKER/LOCATER V6.22.2.0                                                  05/14/2021  10:23:20  PAGE 95


  C:5B5EH         LINE#         195
  C:5B5EH         LINE#         196
  C:5B5EH         LINE#         197
  C:5B5EH         LINE#         198
  C:5B60H         LINE#         200
  C:5B60H         LINE#         201
  C:5B60H         LINE#         202
  C:5B60H         LINE#         204
  C:5B62H         LINE#         206
  C:5B62H         LINE#         207
  C:5B68H         LINE#         208
  C:5B68H         LINE#         210
  C:5B6AH         LINE#         215
  C:5B6AH         LINE#         216
  C:5B6FH         LINE#         217
  C:5B6FH         LINE#         218
  C:5B6FH         LINE#         219
  C:5B6FH         LINE#         224
  C:5B72H         LINE#         225
  C:5B72H         LINE#         226
  C:5B74H         LINE#         228
  C:5B7AH         LINE#         229
  C:5B7AH         LINE#         230
  C:5B84H         LINE#         232
  C:5B86H         LINE#         233
  C:5B88H         LINE#         234
  C:5B8AH         LINE#         236
  C:5B8AH         LINE#         237
  C:5B8CH         LINE#         238
  C:5B8CH         LINE#         239
  C:5B8CH         LINE#         241
  -------         ENDPROC       COM_ISR
  -------         PROC          COM_INITIALIZE
  C:B6DAH         LINE#         257
  C:B6E1H         LINE#         258
  C:B6E1H         LINE#         262
  C:B6E4H         LINE#         267
  C:B6E7H         LINE#         268
  C:B6E9H         LINE#         270
  C:B6EBH         LINE#         271
  C:B6EDH         LINE#         276
  C:B6F1H         LINE#         277
  C:B6F3H         LINE#         278
  C:B6F5H         LINE#         280
  C:B6F7H         LINE#         281
  C:B6F9H         LINE#         282
  C:B6FBH         LINE#         284
  C:B6FDH         LINE#         285
  C:B6FFH         LINE#         286
  -------         ENDPROC       COM_INITIALIZE
  -------         PROC          COM_BAUDRATE
  C:B72CH         LINE#         292
  C:B733H         LINE#         294
  C:B733H         LINE#         298
  C:B735H         LINE#         299
  C:B738H         LINE#         300
  C:B73AH         LINE#         305
BL51 BANKED LINKER/LOCATER V6.22.2.0                                                  05/14/2021  10:23:20  PAGE 96


  C:B73CH         LINE#         306
  C:B73EH         LINE#         308
  C:B741H         LINE#         310
  C:B744H         LINE#         311
  C:B747H         LINE#         313
  C:B74AH         LINE#         314
  C:B74DH         LINE#         315
  C:B74FH         LINE#         316
  -------         ENDPROC       COM_BAUDRATE
  -------         PROC          _COM_PUTCHAR
  X:00AAH         SYMBOL        c
  C:B490H         LINE#         322
  C:B49CH         LINE#         323
  C:B49CH         LINE#         327
  C:B4A9H         LINE#         328
  C:B4ADH         LINE#         334
  C:B4BBH         LINE#         336
  C:B4BDH         LINE#         338
  C:B4C0H         LINE#         339
  C:B4C0H         LINE#         340
  C:B4C2H         LINE#         341
  C:B4C4H         LINE#         342
  C:B4C4H         LINE#         344
  C:B4C6H         LINE#         345
  -------         ENDPROC       _COM_PUTCHAR
  -------         PROC          COM_GETCHAR
  C:B7A3H         LINE#         351
  C:B7AAH         LINE#         352
  C:B7AAH         LINE#         353
  C:B7B0H         LINE#         354
  C:B7B6H         LINE#         356
  C:B7C4H         LINE#         357
  -------         ENDPROC       COM_GETCHAR
  -------         PROC          COM_RBUFLEN
  C:BA0CH         LINE#         363
  C:BA13H         LINE#         364
  C:BA13H         LINE#         365
  C:BA19H         LINE#         366
  -------         ENDPROC       COM_RBUFLEN
  -------         PROC          COM_TBUFLEN
  C:BA1EH         LINE#         372
  C:BA25H         LINE#         373
  C:BA25H         LINE#         374
  C:BA2BH         LINE#         375
  -------         ENDPROC       COM_TBUFLEN
  -------         ENDMOD        UART

  -------         MODULE        LINTECH
  C:0000H         SYMBOL        _ICE_DUMMY_
  C:9686H         PUBLIC        _Inicializa
  C:8A6CH         PUBLIC        _RD_MF
  C:9492H         PUBLIC        Dwload_EEprom
  C:9B4EH         PUBLIC        _Card_Insercion
  C:7EE5H         PUBLIC        _Mov_Card
  C:7610H         PUBLIC        _WR_MF
  C:9F3CH         PUBLIC        LoadVerify_EEprom
  C:A165H         PUBLIC        Unique_Identifier_UID
BL51 BANKED LINKER/LOCATER V6.22.2.0                                                  05/14/2021  10:23:20  PAGE 97


  C:A603H         PUBLIC        Power_off
  C:A1EDH         PUBLIC        _Check_Status
  C:93E8H         PUBLIC        Clave_Seguridad_S2
  C:A583H         PUBLIC        Aut_Card_check_Status
  -------         PROC          _INICIALIZA
  X:0002H         SYMBOL        TipoMovimiento
  -------         DO            
  D:0003H         SYMBOL        j
  X:0003H         SYMBOL        bcc
  X:0004H         SYMBOL        g_scArrTxComSoft
  -------         ENDDO         
  C:9686H         LINE#         68
  C:968BH         LINE#         69
  C:968BH         LINE#         72
  C:968EH         LINE#         73
  C:96A4H         LINE#         74
  C:96A4H         LINE#         76
  C:96ADH         LINE#         78
  C:96B3H         LINE#         79
  C:96B6H         LINE#         80
  C:96B8H         LINE#         81
  C:96BCH         LINE#         82
  C:96C0H         LINE#         83
  C:96C4H         LINE#         84
  C:96CCH         LINE#         85
  C:96D0H         LINE#         86
  C:96DCH         LINE#         87
  C:96DCH         LINE#         88
  C:96F0H         LINE#         89
  C:96F3H         LINE#         90
  C:96FBH         LINE#         91
  C:96FDH         LINE#         92
  C:9702H         LINE#         93
  C:9711H         LINE#         94
  C:971CH         LINE#         95
  C:9722H         LINE#         96
  C:9722H         LINE#         97
  -------         ENDPROC       _INICIALIZA
  -------         PROC          _CHECK_STATUS
  X:0002H         SYMBOL        Detalle
  -------         DO            
  D:0006H         SYMBOL        j
  D:0007H         SYMBOL        bcc
  X:0003H         SYMBOL        g_scArrTxComSoft
  -------         ENDDO         
  C:A1EDH         LINE#         109
  C:A1F2H         LINE#         110
  C:A1F2H         LINE#         114
  C:A1F8H         LINE#         115
  C:A1F8H         LINE#         116
  C:A1FCH         LINE#         117
  C:A1FEH         LINE#         119
  C:A1FEH         LINE#         120
  C:A205H         LINE#         121
  C:A205H         LINE#         122
  C:A207H         LINE#         124
  C:A20DH         LINE#         125
BL51 BANKED LINKER/LOCATER V6.22.2.0                                                  05/14/2021  10:23:20  PAGE 98


  C:A210H         LINE#         126
  C:A212H         LINE#         127
  C:A216H         LINE#         128
  C:A21AH         LINE#         129
  C:A21EH         LINE#         130
  C:A226H         LINE#         131
  C:A22AH         LINE#         132
  C:A236H         LINE#         133
  C:A236H         LINE#         134
  C:A243H         LINE#         135
  C:A246H         LINE#         136
  C:A24BH         LINE#         137
  C:A24DH         LINE#         138
  C:A252H         LINE#         139
  C:A261H         LINE#         140
  C:A26CH         LINE#         141
  C:A272H         LINE#         142
  -------         ENDPROC       _CHECK_STATUS
  -------         PROC          _CARD_INSERCION
  D:0007H         SYMBOL        Tipo
  -------         DO            
  D:0006H         SYMBOL        j
  D:0007H         SYMBOL        bcc
  X:0002H         SYMBOL        g_scArrTxComSoft
  -------         ENDDO         
  C:9B4EH         LINE#         152
  C:9B4EH         LINE#         153
  C:9B4EH         LINE#         156
  C:9B5BH         LINE#         157
  C:9B5BH         LINE#         158
  C:9B62H         LINE#         159
  C:9B68H         LINE#         160
  C:9B6AH         LINE#         162
  C:9B6AH         LINE#         164
  C:9B71H         LINE#         165
  C:9B77H         LINE#         167
  C:9B77H         LINE#         169
  C:9B79H         LINE#         171
  C:9B7FH         LINE#         172
  C:9B82H         LINE#         173
  C:9B84H         LINE#         174
  C:9B88H         LINE#         175
  C:9B8CH         LINE#         176
  C:9B90H         LINE#         178
  C:9B96H         LINE#         179
  C:9BA2H         LINE#         180
  C:9BA2H         LINE#         181
  C:9BAFH         LINE#         182
  C:9BB2H         LINE#         184
  C:9BB7H         LINE#         186
  C:9BB9H         LINE#         187
  C:9BBEH         LINE#         188
  C:9BCDH         LINE#         189
  C:9BD8H         LINE#         190
  C:9BDEH         LINE#         191
  -------         ENDPROC       _CARD_INSERCION
  -------         PROC          _MOV_CARD
BL51 BANKED LINKER/LOCATER V6.22.2.0                                                  05/14/2021  10:23:20  PAGE 99


  X:0002H         SYMBOL        Posicion
  -------         DO            
  D:0003H         SYMBOL        j
  X:0003H         SYMBOL        bcc
  X:0004H         SYMBOL        g_scArrTxComSoft
  -------         ENDDO         
  C:7EE5H         LINE#         202
  C:7EEAH         LINE#         203
  C:7EEAH         LINE#         206
  C:7EEDH         LINE#         208
  C:7F0DH         LINE#         209
  C:7F0DH         LINE#         210
  C:7F14H         LINE#         211
  C:7F14H         LINE#         212
  C:7F1AH         LINE#         213
  C:7F1CH         LINE#         214
  C:7F23H         LINE#         215
  C:7F23H         LINE#         216
  C:7F29H         LINE#         217
  C:7F2BH         LINE#         218
  C:7F32H         LINE#         219
  C:7F32H         LINE#         220
  C:7F38H         LINE#         221
  C:7F3AH         LINE#         222
  C:7F41H         LINE#         223
  C:7F41H         LINE#         224
  C:7F47H         LINE#         225
  C:7F49H         LINE#         226
  C:7F50H         LINE#         227
  C:7F50H         LINE#         228
  C:7F59H         LINE#         229
  C:7F59H         LINE#         231
  C:7F5FH         LINE#         232
  C:7F62H         LINE#         233
  C:7F64H         LINE#         234
  C:7F68H         LINE#         235
  C:7F6CH         LINE#         236
  C:7F70H         LINE#         237
  C:7F78H         LINE#         238
  C:7F7CH         LINE#         239
  C:7F88H         LINE#         240
  C:7F88H         LINE#         241
  C:7F9CH         LINE#         242
  C:7F9FH         LINE#         243
  C:7FA7H         LINE#         244
  C:7FA9H         LINE#         245
  C:7FAEH         LINE#         246
  C:7FBDH         LINE#         247
  C:7FC8H         LINE#         248
  C:7FCEH         LINE#         249
  C:7FCEH         LINE#         251
  -------         ENDPROC       _MOV_CARD
  -------         PROC          AUT_CARD_CHECK_STATUS
  -------         DO            
  D:0003H         SYMBOL        j
  X:0002H         SYMBOL        bcc
  X:0003H         SYMBOL        g_scArrTxComSoft
BL51 BANKED LINKER/LOCATER V6.22.2.0                                                  05/14/2021  10:23:20  PAGE 100


  -------         ENDDO         
  C:A583H         LINE#         257
  C:A583H         LINE#         258
  C:A583H         LINE#         261
  C:A588H         LINE#         263
  C:A591H         LINE#         265
  C:A597H         LINE#         266
  C:A59AH         LINE#         267
  C:A59CH         LINE#         268
  C:A5A0H         LINE#         269
  C:A5A4H         LINE#         270
  C:A5A8H         LINE#         271
  C:A5ACH         LINE#         272
  C:A5B0H         LINE#         273
  C:A5BCH         LINE#         274
  C:A5BCH         LINE#         275
  C:A5D0H         LINE#         276
  C:A5D3H         LINE#         277
  C:A5DBH         LINE#         278
  C:A5DDH         LINE#         279
  C:A5E2H         LINE#         280
  C:A5F1H         LINE#         281
  C:A5FCH         LINE#         282
  C:A602H         LINE#         283
  -------         ENDPROC       AUT_CARD_CHECK_STATUS
  -------         PROC          CLAVE_SEGURIDAD_S2
  -------         DO            
  D:0003H         SYMBOL        j
  X:0002H         SYMBOL        bcc
  X:0003H         SYMBOL        g_scArrTxComSoft
  -------         ENDDO         
  C:93E8H         LINE#         286
  C:93E8H         LINE#         287
  C:93E8H         LINE#         290
  C:93EDH         LINE#         291
  C:93F6H         LINE#         294
  C:93FCH         LINE#         295
  C:93FFH         LINE#         296
  C:9401H         LINE#         297
  C:9405H         LINE#         298
  C:9409H         LINE#         299
  C:940DH         LINE#         300
  C:9411H         LINE#         301
  C:9414H         LINE#         302
  C:9418H         LINE#         303
  C:941BH         LINE#         304
  C:941FH         LINE#         306
  C:9423H         LINE#         308
  C:9427H         LINE#         309
  C:942BH         LINE#         310
  C:942FH         LINE#         311
  C:9433H         LINE#         312
  C:9437H         LINE#         313
  C:943BH         LINE#         316
  C:943FH         LINE#         318
  C:944BH         LINE#         319
  C:944BH         LINE#         320
BL51 BANKED LINKER/LOCATER V6.22.2.0                                                  05/14/2021  10:23:20  PAGE 101


  C:945FH         LINE#         321
  C:9462H         LINE#         322
  C:946AH         LINE#         323
  C:946CH         LINE#         324
  C:9471H         LINE#         325
  C:9480H         LINE#         326
  C:948BH         LINE#         327
  C:9491H         LINE#         330
  -------         ENDPROC       CLAVE_SEGURIDAD_S2
  -------         PROC          DWLOAD_EEPROM
  -------         DO            
  D:0003H         SYMBOL        j
  X:0002H         SYMBOL        bcc
  X:0003H         SYMBOL        g_scArrTxComSoft
  -------         ENDDO         
  C:9492H         LINE#         335
  C:9492H         LINE#         336
  C:9492H         LINE#         339
  C:9497H         LINE#         340
  C:94A0H         LINE#         342
  C:94A6H         LINE#         343
  C:94A9H         LINE#         344
  C:94ABH         LINE#         345
  C:94AFH         LINE#         346
  C:94B3H         LINE#         347
  C:94B7H         LINE#         348
  C:94BBH         LINE#         349
  C:94BEH         LINE#         350
  C:94C2H         LINE#         351
  C:94C5H         LINE#         352
  C:94C8H         LINE#         353
  C:94CCH         LINE#         354
  C:94D0H         LINE#         355
  C:94D4H         LINE#         356
  C:94D8H         LINE#         357
  C:94DCH         LINE#         358
  C:94E0H         LINE#         359
  C:94E4H         LINE#         360
  C:94E8H         LINE#         362
  C:94F4H         LINE#         363
  C:94F4H         LINE#         364
  C:9508H         LINE#         365
  C:950BH         LINE#         366
  C:9513H         LINE#         367
  C:9515H         LINE#         368
  C:951AH         LINE#         369
  C:9529H         LINE#         370
  C:9534H         LINE#         371
  C:953AH         LINE#         372
  -------         ENDPROC       DWLOAD_EEPROM
  -------         PROC          LOADVERIFY_EEPROM
  -------         DO            
  D:0003H         SYMBOL        j
  X:0002H         SYMBOL        bcc
  X:0003H         SYMBOL        g_scArrTxComSoft
  -------         ENDDO         
  C:9F3CH         LINE#         378
BL51 BANKED LINKER/LOCATER V6.22.2.0                                                  05/14/2021  10:23:20  PAGE 102


  C:9F3CH         LINE#         379
  C:9F3CH         LINE#         382
  C:9F41H         LINE#         383
  C:9F4AH         LINE#         386
  C:9F50H         LINE#         387
  C:9F53H         LINE#         388
  C:9F55H         LINE#         389
  C:9F59H         LINE#         390
  C:9F5DH         LINE#         391
  C:9F61H         LINE#         392
  C:9F65H         LINE#         393
  C:9F68H         LINE#         394
  C:9F6CH         LINE#         395
  C:9F6FH         LINE#         396
  C:9F72H         LINE#         397
  C:9F76H         LINE#         402
  C:9F82H         LINE#         403
  C:9F82H         LINE#         404
  C:9F96H         LINE#         405
  C:9F99H         LINE#         406
  C:9FA1H         LINE#         407
  C:9FA3H         LINE#         408
  C:9FA8H         LINE#         409
  C:9FB7H         LINE#         410
  C:9FC2H         LINE#         411
  C:9FC8H         LINE#         413
  -------         ENDPROC       LOADVERIFY_EEPROM
  -------         PROC          _RD_MF
  X:0002H         SYMBOL        Sector
  X:0003H         SYMBOL        Bloque
  -------         DO            
  D:0003H         SYMBOL        j
  X:0004H         SYMBOL        bcc
  X:0005H         SYMBOL        g_scArrTxComSoft
  -------         ENDDO         
  C:8A6CH         LINE#         419
  C:8A74H         LINE#         420
  C:8A74H         LINE#         424
  C:8A77H         LINE#         426
  C:8A80H         LINE#         427
  C:8A88H         LINE#         429
  C:8A91H         LINE#         430
  C:8A99H         LINE#         431
  C:8AA2H         LINE#         434
  C:8AA8H         LINE#         435
  C:8AABH         LINE#         436
  C:8AADH         LINE#         437
  C:8AB1H         LINE#         438
  C:8AB5H         LINE#         439
  C:8AB9H         LINE#         440
  C:8ABDH         LINE#         441
  C:8AC0H         LINE#         442
  C:8AC4H         LINE#         443
  C:8ACCH         LINE#         444
  C:8AD4H         LINE#         445
  C:8AD8H         LINE#         446
  C:8ADCH         LINE#         448
BL51 BANKED LINKER/LOCATER V6.22.2.0                                                  05/14/2021  10:23:20  PAGE 103


  C:8AE8H         LINE#         449
  C:8AE8H         LINE#         450
  C:8AFCH         LINE#         451
  C:8AFFH         LINE#         452
  C:8B07H         LINE#         455
  C:8B09H         LINE#         456
  C:8B0EH         LINE#         457
  C:8B1DH         LINE#         458
  C:8B28H         LINE#         459
  C:8B2EH         LINE#         461
  -------         ENDPROC       _RD_MF
  -------         PROC          _WR_MF
  X:0002H         SYMBOL        Sector
  X:0003H         SYMBOL        Bloque
  X:0004H         SYMBOL        buffer
  -------         DO            
  D:0005H         SYMBOL        j
  X:0007H         SYMBOL        bcc
  X:0008H         SYMBOL        g_scArrTxComSoft
  -------         ENDDO         
  C:7610H         LINE#         468
  C:7621H         LINE#         470
  C:7621H         LINE#         473
  C:7624H         LINE#         475
  C:762DH         LINE#         476
  C:7635H         LINE#         478
  C:763EH         LINE#         479
  C:7646H         LINE#         480
  C:764FH         LINE#         482
  C:7655H         LINE#         483
  C:7658H         LINE#         484
  C:765AH         LINE#         485
  C:765EH         LINE#         487
  C:7662H         LINE#         488
  C:7666H         LINE#         489
  C:766AH         LINE#         490
  C:766DH         LINE#         491
  C:7671H         LINE#         492
  C:7679H         LINE#         493
  C:7681H         LINE#         494
  C:7685H         LINE#         496
  C:7691H         LINE#         497
  C:7691H         LINE#         498
  C:76B1H         LINE#         499
  C:76B4H         LINE#         501
  C:76BAH         LINE#         503
  C:76C6H         LINE#         504
  C:76C6H         LINE#         505
  C:76DDH         LINE#         506
  C:76E0H         LINE#         507
  C:76E8H         LINE#         510
  C:76EAH         LINE#         511
  C:76EFH         LINE#         512
  C:76FEH         LINE#         513
  C:7709H         LINE#         514
  C:770FH         LINE#         516
  -------         ENDPROC       _WR_MF
BL51 BANKED LINKER/LOCATER V6.22.2.0                                                  05/14/2021  10:23:20  PAGE 104


  -------         PROC          UNIQUE_IDENTIFIER_UID
  -------         DO            
  D:0003H         SYMBOL        j
  X:0002H         SYMBOL        bcc
  X:0003H         SYMBOL        g_scArrTxComSoft
  -------         ENDDO         
  C:A165H         LINE#         521
  C:A165H         LINE#         522
  C:A165H         LINE#         525
  C:A16AH         LINE#         527
  C:A173H         LINE#         529
  C:A179H         LINE#         530
  C:A17CH         LINE#         531
  C:A17EH         LINE#         532
  C:A182H         LINE#         533
  C:A186H         LINE#         534
  C:A18AH         LINE#         535
  C:A18EH         LINE#         536
  C:A192H         LINE#         537
  C:A196H         LINE#         538
  C:A19AH         LINE#         539
  C:A1A6H         LINE#         540
  C:A1A6H         LINE#         541
  C:A1BAH         LINE#         542
  C:A1BDH         LINE#         543
  C:A1C5H         LINE#         544
  C:A1C7H         LINE#         545
  C:A1CCH         LINE#         546
  C:A1DBH         LINE#         547
  C:A1E6H         LINE#         548
  C:A1ECH         LINE#         549
  -------         ENDPROC       UNIQUE_IDENTIFIER_UID
  -------         PROC          POWER_OFF
  -------         DO            
  D:0003H         SYMBOL        j
  X:0002H         SYMBOL        bcc
  X:0003H         SYMBOL        g_scArrTxComSoft
  -------         ENDDO         
  C:A603H         LINE#         550
  C:A603H         LINE#         551
  C:A603H         LINE#         554
  C:A608H         LINE#         556
  C:A611H         LINE#         558
  C:A617H         LINE#         559
  C:A61AH         LINE#         560
  C:A61CH         LINE#         561
  C:A620H         LINE#         562
  C:A624H         LINE#         563
  C:A628H         LINE#         564
  C:A62CH         LINE#         565
  C:A630H         LINE#         566
  C:A63CH         LINE#         567
  C:A63CH         LINE#         568
  C:A650H         LINE#         569
  C:A653H         LINE#         570
  C:A65BH         LINE#         571
  C:A65DH         LINE#         572
BL51 BANKED LINKER/LOCATER V6.22.2.0                                                  05/14/2021  10:23:20  PAGE 105


  C:A662H         LINE#         573
  C:A671H         LINE#         574
  C:A67CH         LINE#         575
  C:A682H         LINE#         578
  -------         ENDPROC       POWER_OFF
  -------         ENDMOD        LINTECH

  -------         MODULE        VERIFICADOR
  C:0000H         SYMBOL        _ICE_DUMMY_
  D:0080H         PUBLIC        P0
  C:B7C9H         PUBLIC        Analiza_Presencia_Mensual
  C:AB5FH         PUBLIC        Ingreso_Vehiculo
  D:0090H         PUBLIC        P1
  C:B754H         PUBLIC        _Armar_Trama_Tarjeta_Sector1_Bloque0
  D:00B0H         PUBLIC        P3
  C:5D48H         PUBLIC        _Valida_Tipo_Tarjeta
  C:B434H         PUBLIC        _Load_Secuencia_Expedidor
  C:65FDH         PUBLIC        _Armar_Trama_Tarjeta_Sector1_Bloque2
  C:5B9FH         PUBLIC        _Armar_Trama_Pto_Paralelo_Expedidor
  C:89A8H         PUBLIC        _Tarjeta_Mensual
  C:B815H         PUBLIC        Analiza_Presencia_rotacion
  C:9C6FH         PUBLIC        _Disparo_Lock_Entrada_Vehiculo
  C:B67CH         PUBLIC        Pregunta_Placa
  C:9A25H         PUBLIC        _Valida_Vehiculo_Card_Mensual
  C:B505H         PUBLIC        Analiza_card_mount_rf
  C:AC1AH         PUBLIC        _Armar_Trama_Placa
  C:8685H         PUBLIC        _rta_cmd_transporte
  C:BA88H         PUBLIC        Captura_Expulsa
  C:6364H         PUBLIC        _Armar_Trama_Monitor
  C:687DH         PUBLIC        Secuencia_inicio_expedidor
  C:826CH         PUBLIC        _Analiza_Uid_Card
  B:0080H.0       PUBLIC        rx_ip
  C:750DH         PUBLIC        _Bloque_Horario
  B:0080H.3       PUBLIC        Atascado_GP0_PIN_3
  B:0090H.7       PUBLIC        lock
  C:95E2H         PUBLIC        _Armar_Trama_Tarjeta_Sector1_Bloque1_Camcel
  C:97BFH         PUBLIC        _Responde_Lectura_Tarjeta_Sector1_Bloque0
  C:8D71H         PUBLIC        error_rx_pto
  C:563EH         PUBLIC        _Responde_Lectura_Tarjeta_Sector1_Bloque1
  C:6C2EH         PUBLIC        _Responde_Lectura_Tarjeta_Sector1_Bloque2
  C:9723H         PUBLIC        _Respuesta_Placa_Cancel
  B:0090H.1       PUBLIC        DataIn
  C:A7FBH         PUBLIC        _Send_Pto_Paralelo
  C:B323H         PUBLIC        Trama_Validacion_P_N
  B:0022H.0       PUBLIC        MenSual
  C:8419H         PUBLIC        _Armar_Trama_Pto_Paralelo_Expedidor_Mensual
  C:72F2H         PUBLIC        _Horarios
  C:933CH         PUBLIC        _Hora_Maxima
  C:3523H         PUBLIC        _SecuenciaExpedidorMF
  C:B095H         PUBLIC        _Pregunta_Lpr
  C:91D3H         PUBLIC        _Wait_Placa
  C:A77FH         PUBLIC        Responde_Estado_Sensores_Transporte
  C:9CFFH         PUBLIC        Entrega_Card_Captura
  C:ABBDH         PUBLIC        _Respuesta_Segunda_clave
  X:0141H         SYMBOL        Estado
  C:B5ADH         PUBLIC        _Responde_Write_Tarjeta_Sector1_Bloque0
  C:B577H         PUBLIC        _Responde_Write_Tarjeta_Sector1_Bloque1
BL51 BANKED LINKER/LOCATER V6.22.2.0                                                  05/14/2021  10:23:20  PAGE 106


  C:AF7CH         PUBLIC        _Responde_Write_Tarjeta_Sector2_Bloque0
  C:9EADH         PUBLIC        _Responde_Write_Tarjeta_Sector1_Bloque2
  C:A8EEH         PUBLIC        _En_Horario
  C:A877H         PUBLIC        Responde_Tipo_Tarjeta
  C:B64BH         PUBLIC        _Tarjeta_Rotacion
  -------         PROC          CAPTURA_EXPULSA
  -------         DO            
  D:0007H         SYMBOL        Estado_expedidor
  -------         ENDDO         
  C:BA88H         LINE#         534
  C:BA88H         LINE#         535
  C:BA88H         LINE#         539
  C:BA8BH         LINE#         540
  C:BA8BH         LINE#         541
  C:BA8DH         LINE#         542
  C:BA8EH         LINE#         544
  C:BA8EH         LINE#         546
  C:BA90H         LINE#         547
  C:BA90H         LINE#         550
  C:BA90H         LINE#         551
  -------         ENDPROC       CAPTURA_EXPULSA
  -------         PROC          TRAMA_VALIDACION_P_N
  -------         DO            
  D:0007H         SYMBOL        Trama_Validacion_P_N
  -------         ENDDO         
  C:B323H         LINE#         562
  C:B323H         LINE#         563
  C:B323H         LINE#         564
  C:B325H         LINE#         566
  C:B33BH         LINE#         567
  C:B33BH         LINE#         568
  C:B33EH         LINE#         569
  C:B33EH         LINE#         570
  C:B340H         LINE#         573
  C:B348H         LINE#         574
  C:B348H         LINE#         576
  C:B34AH         LINE#         578
  C:B34BH         LINE#         579
  C:B34FH         LINE#         580
  C:B34FH         LINE#         582
  C:B351H         LINE#         584
  C:B352H         LINE#         586
  C:B352H         LINE#         587
  C:B35BH         LINE#         588
  C:B35DH         LINE#         590
  C:B35DH         LINE#         591
  C:B35EH         LINE#         593
  C:B35EH         LINE#         595
  C:B360H         LINE#         597
  C:B360H         LINE#         599
  C:B360H         LINE#         601
  C:B360H         LINE#         602
  -------         ENDPROC       TRAMA_VALIDACION_P_N
  -------         PROC          ERROR_RX_PTO
  -------         DO            
  X:00B7H         SYMBOL        cnt_espera_ask_on
  X:0007H         SYMBOL        error_rx_pto
BL51 BANKED LINKER/LOCATER V6.22.2.0                                                  05/14/2021  10:23:20  PAGE 107


  -------         ENDDO         
  C:8D71H         LINE#         626
  C:8D71H         LINE#         627
  C:8D71H         LINE#         630
  C:8D77H         LINE#         634
  C:8D80H         LINE#         635
  C:8D88H         LINE#         636
  C:8D91H         LINE#         637
  C:8D99H         LINE#         638
  C:8DA2H         LINE#         639
  C:8DA5H         LINE#         641
  C:8DA5H         LINE#         642
  C:8DABH         LINE#         643
  C:8DB5H         LINE#         644
  C:8DB5H         LINE#         645
  C:8DBEH         LINE#         646
  C:8DC0H         LINE#         647
  C:8DC7H         LINE#         648
  C:8DCCH         LINE#         649
  C:8DD2H         LINE#         650
  C:8DD7H         LINE#         651
  C:8DD9H         LINE#         652
  C:8DE0H         LINE#         653
  C:8DE6H         LINE#         654
  C:8DE6H         LINE#         656
  C:8DE6H         LINE#         657
  C:8DEBH         LINE#         658
  C:8DEBH         LINE#         659
  C:8DEBH         LINE#         660
  C:8DEDH         LINE#         662
  C:8DEDH         LINE#         663
  C:8DFBH         LINE#         664
  C:8E0EH         LINE#         665
  C:8E0EH         LINE#         666
  C:8E0FH         LINE#         668
  C:8E15H         LINE#         669
  C:8E19H         LINE#         670
  C:8E1BH         LINE#         671
  C:8E1BH         LINE#         672
  C:8E1DH         LINE#         674
  C:8E1DH         LINE#         675
  C:8E1EH         LINE#         676
  C:8E23H         LINE#         677
  C:8E29H         LINE#         678
  C:8E29H         LINE#         679
  C:8E29H         LINE#         680
  C:8E2EH         LINE#         681
  -------         ENDPROC       ERROR_RX_PTO
  -------         PROC          _RTA_CMD_TRANSPORTE
  X:0002H         SYMBOL        secuencia_Expedidor
  -------         DO            
  X:0005H         SYMBOL        temp
  X:0006H         SYMBOL        EstadoComSeqMF
  -------         ENDDO         
  C:8685H         LINE#         697
  C:8690H         LINE#         698
  C:8690H         LINE#         704
BL51 BANKED LINKER/LOCATER V6.22.2.0                                                  05/14/2021  10:23:20  PAGE 108


  C:869DH         LINE#         705
  C:869DH         LINE#         706
  C:86A5H         LINE#         707
  C:86A5H         LINE#         708
  C:86B3H         LINE#         709
  C:86B6H         LINE#         710
  C:86BCH         LINE#         711
  C:86BCH         LINE#         712
  C:86C5H         LINE#         713
  C:86D9H         LINE#         714
  C:86EAH         LINE#         716
  C:86ECH         LINE#         718
  C:86ECH         LINE#         721
  C:8704H         LINE#         722
  C:8704H         LINE#         723
  C:870FH         LINE#         724
  C:8711H         LINE#         726
  C:8711H         LINE#         727
  C:871FH         LINE#         728
  C:871FH         LINE#         729
  C:871FH         LINE#         730
  C:8721H         LINE#         732
  C:8721H         LINE#         734
  C:8735H         LINE#         735
  C:874AH         LINE#         736
  C:874AH         LINE#         737
  C:874FH         LINE#         738
  -------         ENDPROC       _RTA_CMD_TRANSPORTE
  -------         PROC          ANALIZA_PRESENCIA_MENSUAL
  -------         DO            
  X:0002H         SYMBOL        Estado_expedidor
  -------         ENDDO         
  C:B7C9H         LINE#         742
  C:B7C9H         LINE#         743
  C:B7C9H         LINE#         747
  C:B7CFH         LINE#         748
  C:B7CFH         LINE#         749
  C:B7D1H         LINE#         750
  C:B7D7H         LINE#         751
  C:B7D9H         LINE#         753
  C:B7D9H         LINE#         755
  C:B7DEH         LINE#         756
  C:B7E3H         LINE#         757
  C:B7E9H         LINE#         758
  C:B7E9H         LINE#         759
  C:B7EEH         LINE#         760
  -------         ENDPROC       ANALIZA_PRESENCIA_MENSUAL
  -------         PROC          ANALIZA_CARD_MOUNT_RF
  -------         DO            
  X:0002H         SYMBOL        Estado_expedidor
  -------         ENDDO         
  C:B505H         LINE#         761
  C:B505H         LINE#         762
  C:B505H         LINE#         764
  C:B50BH         LINE#         765
  C:B512H         LINE#         766
  C:B512H         LINE#         768
BL51 BANKED LINKER/LOCATER V6.22.2.0                                                  05/14/2021  10:23:20  PAGE 109


  C:B51BH         LINE#         770
  C:B521H         LINE#         771
  C:B523H         LINE#         772
  C:B52AH         LINE#         774
  C:B52AH         LINE#         775
  C:B533H         LINE#         776
  C:B539H         LINE#         777
  C:B539H         LINE#         780
  C:B53EH         LINE#         781
  -------         ENDPROC       ANALIZA_CARD_MOUNT_RF
  -------         PROC          ANALIZA_PRESENCIA_ROTACION
  -------         DO            
  X:0002H         SYMBOL        Estado_expedidor
  -------         ENDDO         
  C:B815H         LINE#         782
  C:B815H         LINE#         783
  C:B815H         LINE#         785
  C:B81BH         LINE#         786
  C:B81BH         LINE#         788
  C:B821H         LINE#         789
  C:B823H         LINE#         791
  C:B823H         LINE#         793
  C:B828H         LINE#         794
  C:B82DH         LINE#         795
  C:B832H         LINE#         797
  C:B832H         LINE#         798
  C:B837H         LINE#         799
  -------         ENDPROC       ANALIZA_PRESENCIA_ROTACION
  -------         PROC          _ANALIZA_UID_CARD
  X:0002H         SYMBOL        Atributos_Expedidor
  -------         DO            
  X:0005H         SYMBOL        Estado_expedidor
  D:0007H         SYMBOL        temp
  X:0006H         SYMBOL        buffer_UID
  -------         ENDDO         
  C:826CH         LINE#         803
  C:8277H         LINE#         804
  C:8277H         LINE#         808
  C:8287H         LINE#         809
  C:8287H         LINE#         811
  C:8293H         LINE#         812
  C:8293H         LINE#         813
  C:82ABH         LINE#         815
  C:82AEH         LINE#         817
  C:82B7H         LINE#         818
  C:82C8H         LINE#         821
  C:82D1H         LINE#         822
  C:82D9H         LINE#         823
  C:82E1H         LINE#         824
  C:82E9H         LINE#         825
  C:82F1H         LINE#         826
  C:82FAH         LINE#         828
  C:8311H         LINE#         829
  C:831BH         LINE#         830
  C:8325H         LINE#         831
  C:832FH         LINE#         832
  C:8335H         LINE#         833
BL51 BANKED LINKER/LOCATER V6.22.2.0                                                  05/14/2021  10:23:20  PAGE 110


  C:8337H         LINE#         835
  C:8337H         LINE#         836
  C:833DH         LINE#         837
  C:833DH         LINE#         838
  C:8342H         LINE#         839
  -------         ENDPROC       _ANALIZA_UID_CARD
  -------         PROC          INGRESO_VEHICULO
  -------         DO            
  D:0007H         SYMBOL        CardAutomatic
  X:00B9H         SYMBOL        pulseboton
  -------         ENDDO         
  C:AB5FH         LINE#         843
  C:AB5FH         LINE#         844
  C:AB5FH         LINE#         849
  C:AB65H         LINE#         850
  C:AB65H         LINE#         851
  C:AB6EH         LINE#         853
  C:AB73H         LINE#         854
  C:AB73H         LINE#         855
  C:AB7CH         LINE#         857
  C:AB7CH         LINE#         858
  C:AB7EH         LINE#         860
  C:AB7EH         LINE#         862
  C:AB8BH         LINE#         863
  C:AB90H         LINE#         864
  C:AB95H         LINE#         865
  C:AB97H         LINE#         867
  C:AB97H         LINE#         868
  C:AB9DH         LINE#         871
  C:AB9DH         LINE#         872
  C:ABA0H         LINE#         873
  C:ABA3H         LINE#         874
  C:ABA3H         LINE#         875
  C:ABA5H         LINE#         876
  C:ABAAH         LINE#         877
  C:ABB0H         LINE#         878
  C:ABB2H         LINE#         888
  C:ABB2H         LINE#         890
  C:ABB7H         LINE#         891
  C:ABB7H         LINE#         892
  C:ABBCH         LINE#         893
  -------         ENDPROC       INGRESO_VEHICULO
  -------         PROC          RESPONDE_ESTADO_SENSORES_TRANSPORTE
  -------         DO            
  X:0002H         SYMBOL        Estado_expedidor
  -------         ENDDO         
  C:A77FH         LINE#         900
  C:A77FH         LINE#         901
  C:A77FH         LINE#         904
  C:A788H         LINE#         906
  C:A790H         LINE#         907
  C:A790H         LINE#         909
  C:A79BH         LINE#         910
  C:A79BH         LINE#         911
  C:A79FH         LINE#         912
  C:A79FH         LINE#         913
  C:A7A8H         LINE#         914
BL51 BANKED LINKER/LOCATER V6.22.2.0                                                  05/14/2021  10:23:20  PAGE 111


  C:A7ADH         LINE#         916
  C:A7ADH         LINE#         917
  C:A7AFH         LINE#         919
  C:A7AFH         LINE#         921
  C:A7B7H         LINE#         923
  C:A7B7H         LINE#         924
  C:A7B9H         LINE#         926
  C:A7B9H         LINE#         928
  C:A7C2H         LINE#         930
  C:A7C7H         LINE#         933
  C:A7C7H         LINE#         934
  C:A7C7H         LINE#         935
  C:A7C9H         LINE#         936
  C:A7D0H         LINE#         937
  C:A7D0H         LINE#         939
  C:A7D6H         LINE#         941
  C:A7D6H         LINE#         942
  C:A7D8H         LINE#         943
  C:A7DFH         LINE#         945
  C:A7DFH         LINE#         946
  C:A7E8H         LINE#         947
  C:A7EEH         LINE#         948
  C:A7F0H         LINE#         950
  C:A7F0H         LINE#         951
  C:A7F5H         LINE#         952
  C:A7F5H         LINE#         953
  C:A7FAH         LINE#         954
  -------         ENDPROC       RESPONDE_ESTADO_SENSORES_TRANSPORTE
  -------         PROC          RESPONDE_TIPO_TARJETA
  -------         DO            
  X:0002H         SYMBOL        Estado_expedidor
  -------         ENDDO         
  C:A877H         LINE#         970
  C:A877H         LINE#         971
  C:A877H         LINE#         974
  C:A880H         LINE#         976
  C:A888H         LINE#         977
  C:A888H         LINE#         978
  C:A893H         LINE#         979
  C:A893H         LINE#         980
  C:A89CH         LINE#         981
  C:A8A2H         LINE#         982
  C:A8A2H         LINE#         983
  C:A8A5H         LINE#         984
  C:A8A7H         LINE#         986
  C:A8A7H         LINE#         987
  C:A8AAH         LINE#         988
  C:A8AAH         LINE#         989
  C:A8ACH         LINE#         991
  C:A8ACH         LINE#         992
  C:A8B3H         LINE#         993
  C:A8B3H         LINE#         995
  C:A8B9H         LINE#         997
  C:A8B9H         LINE#         998
  C:A8B9H         LINE#         1000
  C:A8B9H         LINE#         1002
  C:A8BBH         LINE#         1004
BL51 BANKED LINKER/LOCATER V6.22.2.0                                                  05/14/2021  10:23:20  PAGE 112


  C:A8BBH         LINE#         1005
  C:A8BBH         LINE#         1006
  C:A8BBH         LINE#         1007
  C:A8BBH         LINE#         1008
  C:A8BBH         LINE#         1009
  C:A8BDH         LINE#         1011
  C:A8BDH         LINE#         1012
  C:A8C4H         LINE#         1013
  C:A8C4H         LINE#         1016
  C:A8CDH         LINE#         1018
  C:A8D2H         LINE#         1019
  C:A8D7H         LINE#         1021
  C:A8DFH         LINE#         1024
  C:A8E1H         LINE#         1026
  C:A8E1H         LINE#         1027
  C:A8E3H         LINE#         1028
  C:A8E8H         LINE#         1029
  C:A8E8H         LINE#         1030
  C:A8E8H         LINE#         1032
  C:A8EDH         LINE#         1033
  -------         ENDPROC       RESPONDE_TIPO_TARJETA
  -------         PROC          _RESPONDE_LECTURA_TARJETA_SECTOR1_BLOQUE1
  X:0002H         SYMBOL        Atributos_Expedidor
  -------         DO            
  D:0007H         SYMBOL        temp
  X:0005H         SYMBOL        Estado_expedidor
  X:0006H         SYMBOL        buffer_S1_B1
  X:0017H         SYMBOL        ID_CLIENTE
  D:0007H         SYMBOL        COD_PARK
  X:00BAH         SYMBOL        falla
  -------         ENDDO         
  C:563EH         LINE#         1045
  C:5649H         LINE#         1046
  C:5649H         LINE#         1053
  C:5652H         LINE#         1057
  C:5662H         LINE#         1058
  C:5662H         LINE#         1060
  C:566EH         LINE#         1061
  C:566EH         LINE#         1062
  C:5686H         LINE#         1064
  C:5689H         LINE#         1067
  C:5692H         LINE#         1068
  C:56A3H         LINE#         1069
  C:56B0H         LINE#         1070
  C:56B9H         LINE#         1073
  C:56D8H         LINE#         1074
  C:56D8H         LINE#         1076
  C:56E1H         LINE#         1077
  C:56E9H         LINE#         1078
  C:56F2H         LINE#         1080
  C:56FBH         LINE#         1081
  C:5703H         LINE#         1082
  C:570CH         LINE#         1084
  C:5715H         LINE#         1085
  C:571DH         LINE#         1086
  C:5726H         LINE#         1088
  C:572FH         LINE#         1089
BL51 BANKED LINKER/LOCATER V6.22.2.0                                                  05/14/2021  10:23:20  PAGE 113


  C:5737H         LINE#         1090
  C:5740H         LINE#         1092
  C:5749H         LINE#         1093
  C:5751H         LINE#         1094
  C:575AH         LINE#         1096
  C:5771H         LINE#         1098
  C:577BH         LINE#         1099
  C:5785H         LINE#         1100
  C:578FH         LINE#         1102
  C:5794H         LINE#         1103
  C:57A7H         LINE#         1104
  C:57ACH         LINE#         1105
  C:57B2H         LINE#         1107
  C:57B4H         LINE#         1109
  C:57B4H         LINE#         1110
  C:57B9H         LINE#         1111
  C:57C2H         LINE#         1112
  C:57C7H         LINE#         1113
  C:57C9H         LINE#         1114
  C:57C9H         LINE#         1115
  C:57C9H         LINE#         1116
  C:57CBH         LINE#         1118
  C:57CBH         LINE#         1120
  C:57D3H         LINE#         1121
  C:57D3H         LINE#         1122
  C:57D9H         LINE#         1123
  C:57D9H         LINE#         1124
  C:57E6H         LINE#         1126
  C:57E6H         LINE#         1127
  C:57EFH         LINE#         1128
  C:57F5H         LINE#         1130
  C:57F7H         LINE#         1132
  C:57F7H         LINE#         1133
  C:57FCH         LINE#         1134
  C:5805H         LINE#         1135
  C:580AH         LINE#         1136
  C:580FH         LINE#         1137
  C:5817H         LINE#         1138
  C:5817H         LINE#         1139
  C:5817H         LINE#         1141
  C:581CH         LINE#         1142
  -------         ENDPROC       _RESPONDE_LECTURA_TARJETA_SECTOR1_BLOQUE1
  -------         PROC          _RESPONDE_LECTURA_TARJETA_SECTOR1_BLOQUE2
  X:0002H         SYMBOL        Atributos_Expedidor
  -------         DO            
  D:0007H         SYMBOL        temp
  X:0005H         SYMBOL        Estado_expedidor
  X:0006H         SYMBOL        buffer_S1_B2
  -------         ENDDO         
  C:6C2EH         LINE#         1147
  C:6C39H         LINE#         1148
  C:6C39H         LINE#         1154
  C:6C42H         LINE#         1158
  C:6C52H         LINE#         1159
  C:6C52H         LINE#         1161
  C:6C5EH         LINE#         1162
  C:6C5EH         LINE#         1163
BL51 BANKED LINKER/LOCATER V6.22.2.0                                                  05/14/2021  10:23:20  PAGE 114


  C:6C76H         LINE#         1164
  C:6C79H         LINE#         1165
  C:6C82H         LINE#         1166
  C:6C93H         LINE#         1170
  C:6C9CH         LINE#         1171
  C:6CA9H         LINE#         1172
  C:6CC5H         LINE#         1173
  C:6CCEH         LINE#         1175
  C:6CD7H         LINE#         1177
  C:6CF3H         LINE#         1178
  C:6CFDH         LINE#         1179
  C:6D06H         LINE#         1182
  C:6D0FH         LINE#         1183
  C:6D17H         LINE#         1184
  C:6D20H         LINE#         1188
  C:6D37H         LINE#         1191
  C:6D43H         LINE#         1192
  C:6D49H         LINE#         1195
  C:6D4BH         LINE#         1197
  C:6D4BH         LINE#         1198
  C:6D53H         LINE#         1199
  C:6D53H         LINE#         1200
  C:6D58H         LINE#         1201
  -------         ENDPROC       _RESPONDE_LECTURA_TARJETA_SECTOR1_BLOQUE2
  -------         PROC          _RESPONDE_LECTURA_TARJETA_SECTOR1_BLOQUE0
  X:0002H         SYMBOL        Nombre_Mensual
  -------         DO            
  D:0007H         SYMBOL        temp
  X:0005H         SYMBOL        Estado_expedidor
  -------         ENDDO         
  C:97BFH         LINE#         1203
  C:97CAH         LINE#         1204
  C:97CAH         LINE#         1210
  C:97D3H         LINE#         1214
  C:97E0H         LINE#         1215
  C:97E0H         LINE#         1217
  C:97ECH         LINE#         1218
  C:97ECH         LINE#         1219
  C:980CH         LINE#         1220
  C:980FH         LINE#         1221
  C:9823H         LINE#         1222
  C:982CH         LINE#         1223
  C:983AH         LINE#         1224
  C:9843H         LINE#         1225
  C:9849H         LINE#         1228
  C:984BH         LINE#         1230
  C:984BH         LINE#         1231
  C:9853H         LINE#         1232
  C:9853H         LINE#         1233
  C:9858H         LINE#         1234
  -------         ENDPROC       _RESPONDE_LECTURA_TARJETA_SECTOR1_BLOQUE0
  -------         PROC          _RESPONDE_WRITE_TARJETA_SECTOR1_BLOQUE1
  X:0002H         SYMBOL        Buffer_Write_MF
  -------         DO            
  D:0007H         SYMBOL        Estado_expedidor
  -------         ENDDO         
  C:B577H         LINE#         1235
BL51 BANKED LINKER/LOCATER V6.22.2.0                                                  05/14/2021  10:23:20  PAGE 115


  C:B582H         LINE#         1236
  C:B582H         LINE#         1238
  C:B58BH         LINE#         1239
  C:B594H         LINE#         1240
  C:B5AAH         LINE#         1241
  C:B5ACH         LINE#         1242
  C:B5ACH         LINE#         1243
  -------         ENDPROC       _RESPONDE_WRITE_TARJETA_SECTOR1_BLOQUE1
  -------         PROC          _RESPONDE_WRITE_TARJETA_SECTOR1_BLOQUE2
  X:0002H         SYMBOL        Atributos_Expedidor
  X:0005H         SYMBOL        Buffer_Write_MF
  -------         DO            
  X:0008H         SYMBOL        Estado_expedidor
  -------         ENDDO         
  C:9EADH         LINE#         1244
  C:9EB8H         LINE#         1245
  C:9EB8H         LINE#         1247
  C:9EC1H         LINE#         1248
  C:9ECAH         LINE#         1249
  C:9EE0H         LINE#         1250
  C:9EF0H         LINE#         1251
  C:9EF0H         LINE#         1252
  C:9EF3H         LINE#         1253
  C:9F05H         LINE#         1254
  C:9F13H         LINE#         1255
  C:9F19H         LINE#         1256
  C:9F1BH         LINE#         1258
  C:9F1BH         LINE#         1259
  C:9F1EH         LINE#         1260
  C:9F30H         LINE#         1261
  C:9F36H         LINE#         1263
  C:9F36H         LINE#         1264
  C:9F3BH         LINE#         1265
  -------         ENDPROC       _RESPONDE_WRITE_TARJETA_SECTOR1_BLOQUE2
  -------         PROC          _RESPONDE_WRITE_TARJETA_SECTOR1_BLOQUE0
  X:0002H         SYMBOL        Buffer_Write_MF
  C:B5ADH         LINE#         1268
  C:B5B8H         LINE#         1269
  C:B5B8H         LINE#         1271
  C:B5C1H         LINE#         1272
  C:B5CAH         LINE#         1273
  C:B5E0H         LINE#         1275
  C:B5E2H         LINE#         1276
  -------         ENDPROC       _RESPONDE_WRITE_TARJETA_SECTOR1_BLOQUE0
  -------         PROC          _RESPONDE_WRITE_TARJETA_SECTOR2_BLOQUE0
  X:0002H         SYMBOL        Buffer_Write_MF
  C:AF7CH         LINE#         1279
  C:AF87H         LINE#         1280
  C:AF87H         LINE#         1282
  C:AF90H         LINE#         1283
  C:AF99H         LINE#         1284
  C:AFA2H         LINE#         1285
  C:AFABH         LINE#         1286
  C:AFC0H         LINE#         1287
  C:AFC2H         LINE#         1288
  -------         ENDPROC       _RESPONDE_WRITE_TARJETA_SECTOR2_BLOQUE0
  -------         PROC          _PREGUNTA_LPR
BL51 BANKED LINKER/LOCATER V6.22.2.0                                                  05/14/2021  10:23:20  PAGE 116


  X:0002H         SYMBOL        Atributos_Expedidor
  -------         DO            
  D:0007H         SYMBOL        Estado_expedidor
  -------         ENDDO         
  C:B095H         LINE#         1292
  C:B0A0H         LINE#         1293
  C:B0A0H         LINE#         1295
  C:B0A9H         LINE#         1296
  C:B0B7H         LINE#         1297
  C:B0B7H         LINE#         1299
  C:B0C8H         LINE#         1300
  C:B0D4H         LINE#         1301
  C:B0D4H         LINE#         1302
  C:B0D8H         LINE#         1303
  C:B0D8H         LINE#         1304
  C:B0D8H         LINE#         1307
  C:B0DAH         LINE#         1309
  C:B0DAH         LINE#         1310
  -------         ENDPROC       _PREGUNTA_LPR
  -------         PROC          PREGUNTA_PLACA
  -------         DO            
  X:0002H         SYMBOL        Estado_expedidor
  -------         ENDDO         
  C:B67CH         LINE#         1311
  C:B67CH         LINE#         1312
  C:B67CH         LINE#         1314
  C:B685H         LINE#         1315
  C:B694H         LINE#         1316
  C:B694H         LINE#         1318
  C:B697H         LINE#         1319
  C:B69CH         LINE#         1320
  C:B6A1H         LINE#         1321
  C:B6A3H         LINE#         1323
  C:B6A3H         LINE#         1324
  C:B6A6H         LINE#         1325
  C:B6A6H         LINE#         1326
  C:B6ABH         LINE#         1327
  -------         ENDPROC       PREGUNTA_PLACA
  -------         PROC          _RESPUESTA_SEGUNDA_CLAVE
  X:0002H         SYMBOL        Atributos_Expedidor
  X:0005H         SYMBOL        Buffer_Write_MF
  C:ABBDH         LINE#         1328
  C:ABC8H         LINE#         1329
  C:ABC8H         LINE#         1331
  C:ABD1H         LINE#         1332
  C:ABE7H         LINE#         1335
  C:ABF7H         LINE#         1336
  C:AC09H         LINE#         1337
  C:AC17H         LINE#         1339
  C:AC19H         LINE#         1340
  -------         ENDPROC       _RESPUESTA_SEGUNDA_CLAVE
  -------         PROC          _RESPUESTA_PLACA_CANCEL
  X:0009H         SYMBOL        Atributos_Expedidor
  X:000CH         SYMBOL        Buffer_Write_MF
  -------         DO            
  X:000FH         SYMBOL        Estado_expedidor
  X:0010H         SYMBOL        Cancel
BL51 BANKED LINKER/LOCATER V6.22.2.0                                                  05/14/2021  10:23:20  PAGE 117


  -------         ENDDO         
  C:9723H         LINE#         1341
  C:972EH         LINE#         1342
  C:972EH         LINE#         1344
  C:973CH         LINE#         1345
  C:9745H         LINE#         1346
  C:974EH         LINE#         1347
  C:9757H         LINE#         1349
  C:9772H         LINE#         1350
  C:9772H         LINE#         1351
  C:9782H         LINE#         1352
  C:9795H         LINE#         1353
  C:97A3H         LINE#         1354
  C:97A9H         LINE#         1355
  C:97ABH         LINE#         1357
  C:97ABH         LINE#         1358
  C:97B1H         LINE#         1359
  C:97B1H         LINE#         1360
  C:97B4H         LINE#         1361
  C:97B6H         LINE#         1363
  C:97B6H         LINE#         1365
  C:97B9H         LINE#         1366
  C:97B9H         LINE#         1367
  C:97B9H         LINE#         1368
  C:97BEH         LINE#         1369
  -------         ENDPROC       _RESPUESTA_PLACA_CANCEL
  -------         PROC          _ARMAR_TRAMA_TARJETA_SECTOR1_BLOQUE1_CAMCEL
  X:0013H         SYMBOL        Buffer_Write_MF
  -------         DO            
  X:0016H         SYMBOL        ID_CLIENTE
  D:0007H         SYMBOL        COD_PARK
  -------         ENDDO         
  C:95E2H         LINE#         1372
  C:95EDH         LINE#         1373
  C:95EDH         LINE#         1377
  C:95F0H         LINE#         1378
  C:95FDH         LINE#         1379
  C:9606H         LINE#         1381
  C:9616H         LINE#         1382
  C:9628H         LINE#         1383
  C:962FH         LINE#         1384
  C:9639H         LINE#         1385
  C:9640H         LINE#         1386
  C:9647H         LINE#         1387
  C:964EH         LINE#         1388
  C:9655H         LINE#         1389
  C:965CH         LINE#         1390
  C:9663H         LINE#         1391
  C:966AH         LINE#         1392
  C:9671H         LINE#         1393
  C:9678H         LINE#         1394
  C:967FH         LINE#         1395
  -------         ENDPROC       _ARMAR_TRAMA_TARJETA_SECTOR1_BLOQUE1_CAMCEL
  -------         PROC          _ARMAR_TRAMA_TARJETA_SECTOR1_BLOQUE2
  X:0010H         SYMBOL        Atributos_Expedidor
  X:0013H         SYMBOL        Buffer_Write_MF
  C:65FDH         LINE#         1401
BL51 BANKED LINKER/LOCATER V6.22.2.0                                                  05/14/2021  10:23:20  PAGE 118


  C:6608H         LINE#         1402
  C:6608H         LINE#         1406
  C:6614H         LINE#         1410
  C:6626H         LINE#         1411
  C:662DH         LINE#         1412
  C:6634H         LINE#         1414
  C:6649H         LINE#         1415
  C:6649H         LINE#         1416
  C:6660H         LINE#         1417
  C:6679H         LINE#         1418
  C:6679H         LINE#         1419
  C:667CH         LINE#         1423
  C:667CH         LINE#         1425
  C:66ABH         LINE#         1426
  C:66DAH         LINE#         1428
  C:66F2H         LINE#         1429
  C:66F2H         LINE#         1430
  C:66FFH         LINE#         1431
  C:6701H         LINE#         1433
  C:6701H         LINE#         1434
  C:6711H         LINE#         1435
  C:6711H         LINE#         1436
  C:6711H         LINE#         1438
  C:6723H         LINE#         1439
  C:672AH         LINE#         1440
  C:6731H         LINE#         1441
  C:6738H         LINE#         1442
  -------         ENDPROC       _ARMAR_TRAMA_TARJETA_SECTOR1_BLOQUE2
  -------         PROC          _ARMAR_TRAMA_TARJETA_SECTOR1_BLOQUE0
  X:0009H         SYMBOL        Buffer_Write_MF
  C:B754H         LINE#         1444
  C:B75FH         LINE#         1445
  C:B75FH         LINE#         1447
  -------         ENDPROC       _ARMAR_TRAMA_TARJETA_SECTOR1_BLOQUE0
  -------         PROC          _ARMAR_TRAMA_PTO_PARALELO_EXPEDIDOR
  X:0006H         SYMBOL        h
  -------         DO            
  X:00BBH         SYMBOL        buffer
  X:0009H         SYMBOL        ticket
  X:0014H         SYMBOL        j
  -------         ENDDO         
  C:5B9FH         LINE#         1449
  C:5BAAH         LINE#         1450
  C:5BAAH         LINE#         1457
  C:5BB0H         LINE#         1458
  C:5BB4H         LINE#         1459
  C:5BB7H         LINE#         1460
  C:5BC3H         LINE#         1461
  C:5BDAH         LINE#         1462
  C:5BE8H         LINE#         1464
  C:5BF9H         LINE#         1466
  C:5C09H         LINE#         1467
  C:5C1BH         LINE#         1468
  C:5C29H         LINE#         1469
  C:5C37H         LINE#         1470
  C:5C45H         LINE#         1471
  C:5C53H         LINE#         1472
BL51 BANKED LINKER/LOCATER V6.22.2.0                                                  05/14/2021  10:23:20  PAGE 119


  C:5C60H         LINE#         1474
  C:5C6FH         LINE#         1475
  C:5C6FH         LINE#         1476
  C:5C72H         LINE#         1477
  C:5C72H         LINE#         1478
  C:5C86H         LINE#         1479
  C:5C95H         LINE#         1480
  C:5CA4H         LINE#         1481
  C:5CB3H         LINE#         1482
  C:5CC2H         LINE#         1483
  C:5CD1H         LINE#         1484
  C:5CD9H         LINE#         1485
  C:5CDBH         LINE#         1487
  C:5CDBH         LINE#         1488
  C:5CECH         LINE#         1489
  C:5CF4H         LINE#         1490
  C:5CF4H         LINE#         1491
  C:5CF6H         LINE#         1493
  C:5CF6H         LINE#         1494
  C:5D07H         LINE#         1495
  C:5D13H         LINE#         1496
  C:5D13H         LINE#         1497
  C:5D21H         LINE#         1498
  C:5D2FH         LINE#         1499
  C:5D41H         LINE#         1501
  C:5D47H         LINE#         1502
  -------         ENDPROC       _ARMAR_TRAMA_PTO_PARALELO_EXPEDIDOR
  -------         PROC          _ARMAR_TRAMA_PTO_PARALELO_EXPEDIDOR_MENSUAL
  X:0006H         SYMBOL        Atributos_Expedidor
  X:0009H         SYMBOL        j
  -------         DO            
  X:00D7H         SYMBOL        buffer
  -------         ENDDO         
  C:8419H         LINE#         1503
  C:8424H         LINE#         1504
  C:8424H         LINE#         1510
  C:842AH         LINE#         1511
  C:842EH         LINE#         1512
  C:8443H         LINE#         1513
  C:844DH         LINE#         1514
  C:8457H         LINE#         1515
  C:8461H         LINE#         1518
  C:846AH         LINE#         1519
  C:8471H         LINE#         1520
  C:8476H         LINE#         1521
  C:847BH         LINE#         1522
  C:8480H         LINE#         1523
  C:8485H         LINE#         1526
  C:8491H         LINE#         1527
  C:8491H         LINE#         1529
  C:8498H         LINE#         1530
  C:849CH         LINE#         1531
  C:84A0H         LINE#         1532
  C:84A4H         LINE#         1533
  C:84A8H         LINE#         1534
  C:84ACH         LINE#         1536
  C:84ACH         LINE#         1538
BL51 BANKED LINKER/LOCATER V6.22.2.0                                                  05/14/2021  10:23:20  PAGE 120


  C:84C2H         LINE#         1539
  C:84C2H         LINE#         1540
  C:84C5H         LINE#         1541
  C:84C7H         LINE#         1543
  C:84C7H         LINE#         1544
  C:84CAH         LINE#         1545
  C:84CAH         LINE#         1547
  C:84D0H         LINE#         1548
  C:84D3H         LINE#         1549
  C:84E3H         LINE#         1550
  C:84E9H         LINE#         1551
  -------         ENDPROC       _ARMAR_TRAMA_PTO_PARALELO_EXPEDIDOR_MENSUAL
  -------         PROC          _ARMAR_TRAMA_MONITOR
  X:0005H         SYMBOL        Atributos_Expedidor
  -------         DO            
  X:00F3H         SYMBOL        buffer
  X:0008H         SYMBOL        ticket
  X:0013H         SYMBOL        j
  -------         ENDDO         
  C:6364H         LINE#         1552
  C:636FH         LINE#         1553
  C:636FH         LINE#         1559
  C:6374H         LINE#         1560
  C:637AH         LINE#         1561
  C:6382H         LINE#         1562
  C:6386H         LINE#         1563
  C:638FH         LINE#         1564
  C:638FH         LINE#         1565
  C:6392H         LINE#         1566
  C:6394H         LINE#         1568
  C:6394H         LINE#         1569
  C:6397H         LINE#         1570
  C:6397H         LINE#         1573
  C:639AH         LINE#         1574
  C:639AH         LINE#         1575
  C:639FH         LINE#         1576
  C:63ABH         LINE#         1577
  C:63C2H         LINE#         1578
  C:63C5H         LINE#         1580
  C:63C5H         LINE#         1581
  C:63E0H         LINE#         1582
  C:63EEH         LINE#         1583
  C:63FCH         LINE#         1584
  C:6408H         LINE#         1585
  C:6416H         LINE#         1586
  C:644FH         LINE#         1588
  C:644FH         LINE#         1589
  C:645DH         LINE#         1590
  C:646BH         LINE#         1593
  C:6478H         LINE#         1594
  C:6486H         LINE#         1596
  C:6494H         LINE#         1597
  C:64A1H         LINE#         1598
  C:64ADH         LINE#         1599
  C:64B2H         LINE#         1600
  C:64B7H         LINE#         1601
  -------         ENDPROC       _ARMAR_TRAMA_MONITOR
BL51 BANKED LINKER/LOCATER V6.22.2.0                                                  05/14/2021  10:23:20  PAGE 121


  -------         PROC          _ARMAR_TRAMA_PLACA
  X:0008H         SYMBOL        Buffer_Write_MF
  -------         DO            
  D:0006H         SYMBOL        j
  D:0007H         SYMBOL        len_placa
  -------         ENDDO         
  C:AC1AH         LINE#         1602
  C:AC25H         LINE#         1603
  C:AC25H         LINE#         1606
  C:AC2EH         LINE#         1607
  C:AC35H         LINE#         1608
  C:AC35H         LINE#         1609
  C:AC4FH         LINE#         1610
  C:AC52H         LINE#         1611
  C:AC5EH         LINE#         1612
  C:AC5EH         LINE#         1613
  C:AC72H         LINE#         1614
  C:AC75H         LINE#         1615
  -------         ENDPROC       _ARMAR_TRAMA_PLACA
  C:B418H         SYMBOL        L?0391
  -------         PROC          L?0390
  -------         ENDPROC       L?0390
  C:B418H         SYMBOL        L?0391
  -------         PROC          _LOAD_SECUENCIA_EXPEDIDOR
  D:0001H         SYMBOL        Secuencia_Expedidor
  D:0004H         SYMBOL        estadoactivo
  X:0007H         SYMBOL        estadoactual
  X:0009H         SYMBOL        estadofuturo
  C:B434H         LINE#         1616
  C:B434H         LINE#         1617
  C:B434H         LINE#         1618
  C:B43BH         LINE#         1619
  C:B443H         LINE#         1620
  C:B44EH         LINE#         1621
  C:B454H         LINE#         1622
  -------         ENDPROC       _LOAD_SECUENCIA_EXPEDIDOR
  -------         PROC          _DISPARO_LOCK_ENTRADA_VEHICULO
  X:0002H         SYMBOL        Nombre_Mensual
  -------         DO            
  X:0005H         SYMBOL        Estado_expedidor
  X:010BH         SYMBOL        take_card
  -------         ENDDO         
  C:9C6FH         LINE#         1623
  C:9C7AH         LINE#         1624
  C:9C7AH         LINE#         1629
  C:9C83H         LINE#         1633
  C:9C8AH         LINE#         1634
  C:9C8AH         LINE#         1636
  C:9C93H         LINE#         1638
  C:9C99H         LINE#         1639
  C:9C9BH         LINE#         1640
  C:9CA0H         LINE#         1641
  C:9CB0H         LINE#         1642
  C:9CB6H         LINE#         1645
  C:9CB8H         LINE#         1646
  C:9CC0H         LINE#         1647
  C:9CC0H         LINE#         1648
BL51 BANKED LINKER/LOCATER V6.22.2.0                                                  05/14/2021  10:23:20  PAGE 122


  C:9CC6H         LINE#         1649
  C:9CC6H         LINE#         1650
  C:9CD3H         LINE#         1651
  C:9CD8H         LINE#         1652
  C:9CDDH         LINE#         1653
  C:9CDFH         LINE#         1655
  C:9CDFH         LINE#         1656
  C:9CE5H         LINE#         1658
  C:9CE5H         LINE#         1660
  C:9CEBH         LINE#         1661
  C:9CF1H         LINE#         1663
  C:9CF3H         LINE#         1665
  C:9CF3H         LINE#         1666
  C:9CF9H         LINE#         1667
  C:9CF9H         LINE#         1669
  C:9CF9H         LINE#         1674
  C:9CFEH         LINE#         1675
  -------         ENDPROC       _DISPARO_LOCK_ENTRADA_VEHICULO
  -------         PROC          _SEND_PTO_PARALELO
  D:0001H         SYMBOL        Atributos_Expedidor
  -------         DO            
  X:0002H         SYMBOL        Trama_Expedidor
  X:0005H         SYMBOL        leng_trama_pto
  -------         ENDDO         
  C:A7FBH         LINE#         1676
  C:A7FBH         LINE#         1677
  C:A7FBH         LINE#         1680
  C:A7FEH         LINE#         1681
  C:A7FEH         LINE#         1682
  C:A81AH         LINE#         1683
  C:A81CH         LINE#         1685
  C:A81CH         LINE#         1686
  C:A830H         LINE#         1687
  C:A833H         LINE#         1688
  C:A833H         LINE#         1690
  C:A844H         LINE#         1691
  C:A84DH         LINE#         1692
  C:A864H         LINE#         1696
  C:A867H         LINE#         1697
  C:A86DH         LINE#         1698
  C:A872H         LINE#         1699
  C:A874H         LINE#         1700
  C:A876H         LINE#         1701
  -------         ENDPROC       _SEND_PTO_PARALELO
  -------         PROC          ENTREGA_CARD_CAPTURA
  -------         DO            
  X:0002H         SYMBOL        Estado_expedidor
  -------         ENDDO         
  C:9CFFH         LINE#         1705
  C:9CFFH         LINE#         1706
  C:9CFFH         LINE#         1710
  C:9D08H         LINE#         1711
  C:9D0BH         LINE#         1712
  C:9D0EH         LINE#         1713
  C:9D0EH         LINE#         1714
  C:9D18H         LINE#         1715
  C:9D18H         LINE#         1716
BL51 BANKED LINKER/LOCATER V6.22.2.0                                                  05/14/2021  10:23:20  PAGE 123


  C:9D1AH         LINE#         1717
  C:9D1CH         LINE#         1718
  C:9D25H         LINE#         1719
  C:9D25H         LINE#         1720
  C:9D25H         LINE#         1722
  C:9D27H         LINE#         1724
  C:9D27H         LINE#         1725
  C:9D2DH         LINE#         1726
  C:9D2DH         LINE#         1728
  C:9D33H         LINE#         1730
  C:9D46H         LINE#         1731
  C:9D46H         LINE#         1732
  C:9D53H         LINE#         1733
  C:9D53H         LINE#         1734
  C:9D55H         LINE#         1735
  C:9D5EH         LINE#         1737
  C:9D60H         LINE#         1738
  C:9D60H         LINE#         1739
  C:9D62H         LINE#         1740
  C:9D6FH         LINE#         1741
  C:9D6FH         LINE#         1742
  C:9D75H         LINE#         1743
  C:9D75H         LINE#         1744
  C:9D75H         LINE#         1746
  C:9D77H         LINE#         1748
  C:9D77H         LINE#         1749
  C:9D79H         LINE#         1750
  C:9D82H         LINE#         1751
  C:9D84H         LINE#         1752
  C:9D89H         LINE#         1753
  C:9D89H         LINE#         1754
  C:9D89H         LINE#         1756
  C:9D8EH         LINE#         1757
  -------         ENDPROC       ENTREGA_CARD_CAPTURA
  -------         PROC          _WAIT_PLACA
  X:0002H         SYMBOL        Atributos_Expedidor
  X:0005H         SYMBOL        Buffer_Write_MF
  -------         DO            
  X:0008H         SYMBOL        Estado_expedidor
  -------         ENDDO         
  C:91D3H         LINE#         1758
  C:91DEH         LINE#         1759
  C:91DEH         LINE#         1762
  C:91E7H         LINE#         1764
  C:91FDH         LINE#         1765
  C:91FDH         LINE#         1766
  C:9200H         LINE#         1767
  C:9200H         LINE#         1769
  C:9203H         LINE#         1770
  C:9203H         LINE#         1771
  C:9205H         LINE#         1773
  C:9208H         LINE#         1774
  C:9208H         LINE#         1775
  C:9230H         LINE#         1776
  C:9232H         LINE#         1779
  C:9232H         LINE#         1780
  C:9238H         LINE#         1781
BL51 BANKED LINKER/LOCATER V6.22.2.0                                                  05/14/2021  10:23:20  PAGE 124


  C:924BH         LINE#         1782
  C:924BH         LINE#         1783
  C:9258H         LINE#         1784
  C:9258H         LINE#         1785
  C:9267H         LINE#         1786
  C:926DH         LINE#         1787
  C:926FH         LINE#         1788
  C:927CH         LINE#         1789
  C:927CH         LINE#         1790
  C:9282H         LINE#         1791
  C:9282H         LINE#         1792
  C:9282H         LINE#         1793
  C:9282H         LINE#         1794
  C:9287H         LINE#         1795
  -------         ENDPROC       _WAIT_PLACA
  -------         PROC          _VALIDA_VEHICULO_CARD_MENSUAL
  X:0010H         SYMBOL        Atributos_Expedidor
  -------         DO            
  X:0013H         SYMBOL        Estado_expedidor
  -------         ENDDO         
  C:9A25H         LINE#         1796
  C:9A30H         LINE#         1797
  C:9A30H         LINE#         1800
  C:9A39H         LINE#         1801
  C:9A4EH         LINE#         1802
  C:9A4EH         LINE#         1803
  C:9A52H         LINE#         1804
  C:9A54H         LINE#         1806
  C:9A54H         LINE#         1807
  C:9A5BH         LINE#         1808
  C:9A5BH         LINE#         1810
  C:9A64H         LINE#         1811
  C:9A72H         LINE#         1812
  C:9A72H         LINE#         1813
  C:9A8BH         LINE#         1814
  C:9A8BH         LINE#         1815
  C:9A91H         LINE#         1816
  C:9A91H         LINE#         1817
  C:9A93H         LINE#         1820
  C:9A93H         LINE#         1821
  C:9A98H         LINE#         1822
  C:9AA1H         LINE#         1823
  C:9AA6H         LINE#         1824
  C:9AA6H         LINE#         1825
  C:9AA8H         LINE#         1827
  C:9AA8H         LINE#         1828
  C:9AB1H         LINE#         1829
  C:9AB7H         LINE#         1830
  C:9AB7H         LINE#         1831
  C:9ABCH         LINE#         1832
  -------         ENDPROC       _VALIDA_VEHICULO_CARD_MENSUAL
  -------         PROC          _TARJETA_MENSUAL
  X:0009H         SYMBOL        Atributos_Expedidor
  X:000CH         SYMBOL        Buffer_Write_MF
  -------         DO            
  X:000FH         SYMBOL        Estado_expedidor
  -------         ENDDO         
BL51 BANKED LINKER/LOCATER V6.22.2.0                                                  05/14/2021  10:23:20  PAGE 125


  C:89A8H         LINE#         1833
  C:89B3H         LINE#         1834
  C:89B3H         LINE#         1839
  C:89BEH         LINE#         1840
  C:89BEH         LINE#         1841
  C:89DCH         LINE#         1842
  C:89DCH         LINE#         1844
  C:89EDH         LINE#         1845
  C:89EDH         LINE#         1846
  C:89F5H         LINE#         1847
  C:89F7H         LINE#         1849
  C:89F7H         LINE#         1850
  C:8A00H         LINE#         1851
  C:8A10H         LINE#         1852
  C:8A23H         LINE#         1853
  C:8A43H         LINE#         1854
  C:8A49H         LINE#         1855
  C:8A49H         LINE#         1856
  C:8A4BH         LINE#         1858
  C:8A4BH         LINE#         1859
  C:8A50H         LINE#         1861
  C:8A55H         LINE#         1862
  C:8A5EH         LINE#         1863
  C:8A5EH         LINE#         1864
  C:8A5EH         LINE#         1865
  C:8A60H         LINE#         1867
  C:8A60H         LINE#         1869
  C:8A66H         LINE#         1870
  C:8A66H         LINE#         1871
  C:8A6BH         LINE#         1872
  -------         ENDPROC       _TARJETA_MENSUAL
  -------         PROC          _TARJETA_ROTACION
  D:0001H         SYMBOL        Atributos_Expedidor
  X:000CH         SYMBOL        Buffer_Write_MF
  C:B64BH         LINE#         1873
  C:B64BH         LINE#         1874
  C:B64BH         LINE#         1875
  C:B650H         LINE#         1876
  C:B659H         LINE#         1877
  C:B679H         LINE#         1878
  C:B67BH         LINE#         1881
  -------         ENDPROC       _TARJETA_ROTACION
  -------         PROC          _VALIDA_TIPO_TARJETA
  X:0002H         SYMBOL        Atributos_Expedidor
  X:0005H         SYMBOL        Buffer_Write_MF
  -------         DO            
  X:0008H         SYMBOL        Estado_expedidor
  -------         ENDDO         
  C:5D48H         LINE#         1882
  C:5D53H         LINE#         1883
  C:5D53H         LINE#         1885
  C:5D60H         LINE#         1886
  C:5D60H         LINE#         1887
  C:5D69H         LINE#         1888
  C:5D6FH         LINE#         1889
  C:5D6FH         LINE#         1893
  C:5D7DH         LINE#         1894
BL51 BANKED LINKER/LOCATER V6.22.2.0                                                  05/14/2021  10:23:20  PAGE 126


  C:5D7DH         LINE#         1897
  C:5D9AH         LINE#         1898
  C:5D9AH         LINE#         1899
  C:5DB7H         LINE#         1901
  C:5DB9H         LINE#         1903
  C:5DB9H         LINE#         1904
  C:5DC2H         LINE#         1905
  C:5DC4H         LINE#         1906
  C:5DC4H         LINE#         1907
  C:5DC4H         LINE#         1908
  C:5DC7H         LINE#         1911
  C:5DC7H         LINE#         1912
  C:5DD0H         LINE#         1914
  C:5DF3H         LINE#         1915
  C:5DF3H         LINE#         1916
  C:5DF6H         LINE#         1918
  C:5DF6H         LINE#         1919
  C:5DFBH         LINE#         1920
  C:5E00H         LINE#         1921
  C:5E03H         LINE#         1922
  C:5E03H         LINE#         1923
  C:5E06H         LINE#         1924
  C:5E1EH         LINE#         1925
  C:5E1EH         LINE#         1927
  C:5E27H         LINE#         1928
  C:5E2DH         LINE#         1929
  C:5E2DH         LINE#         1930
  C:5E39H         LINE#         1931
  C:5E39H         LINE#         1932
  C:5E56H         LINE#         1934
  C:5E56H         LINE#         1935
  C:5E76H         LINE#         1936
  C:5E78H         LINE#         1938
  C:5E78H         LINE#         1939
  C:5E81H         LINE#         1940
  C:5E86H         LINE#         1941
  C:5E8BH         LINE#         1942
  C:5E8EH         LINE#         1943
  C:5E8EH         LINE#         1944
  C:5E90H         LINE#         1946
  C:5E90H         LINE#         1947
  C:5E99H         LINE#         1948
  C:5EBCH         LINE#         1949
  C:5EBCH         LINE#         1950
  C:5EBEH         LINE#         1952
  C:5EBEH         LINE#         1954
  C:5EC3H         LINE#         1955
  C:5EC8H         LINE#         1956
  C:5ECEH         LINE#         1957
  C:5ECEH         LINE#         1958
  C:5ED0H         LINE#         1960
  C:5ED0H         LINE#         1961
  C:5ED9H         LINE#         1962
  C:5EDEH         LINE#         1964
  C:5EE6H         LINE#         1965
  C:5EE6H         LINE#         1967
  C:5EEBH         LINE#         1968
BL51 BANKED LINKER/LOCATER V6.22.2.0                                                  05/14/2021  10:23:20  PAGE 127


  -------         ENDPROC       _VALIDA_TIPO_TARJETA
  -------         PROC          _HORARIOS
  X:0010H         SYMBOL        Atributos_Expedidor
  -------         DO            
  X:0013H         SYMBOL        Estado_Horario
  X:0014H         SYMBOL        Addr_horarios
  X:001FH         SYMBOL        dia_semana
  X:0020H         SYMBOL        EE_dia_semana
  X:0021H         SYMBOL        addr
  -------         ENDDO         
  C:72F2H         LINE#         2062
  C:72FDH         LINE#         2063
  C:72FDH         LINE#         2069
  C:7308H         LINE#         2070
  C:7308H         LINE#         2072
  C:7314H         LINE#         2074
  C:733AH         LINE#         2078
  C:734DH         LINE#         2079
  C:734DH         LINE#         2081
  C:7357H         LINE#         2082
  C:7360H         LINE#         2083
  C:7368H         LINE#         2084
  C:7371H         LINE#         2087
  C:7396H         LINE#         2088
  C:739FH         LINE#         2089
  C:73A7H         LINE#         2090
  C:73B0H         LINE#         2092
  C:73BAH         LINE#         2093
  C:73BAH         LINE#         2095
  C:73C8H         LINE#         2096
  C:73CAH         LINE#         2098
  C:73CAH         LINE#         2100
  C:73D3H         LINE#         2101
  C:73D8H         LINE#         2102
  C:73D8H         LINE#         2103
  C:73DAH         LINE#         2105
  C:73DAH         LINE#         2107
  C:73DFH         LINE#         2108
  C:73E4H         LINE#         2109
  C:73EAH         LINE#         2111
  C:73EAH         LINE#         2113
  C:73ECH         LINE#         2115
  C:73ECH         LINE#         2116
  C:73F2H         LINE#         2118
  C:73FBH         LINE#         2119
  C:73FBH         LINE#         2120
  C:7400H         LINE#         2121
  -------         ENDPROC       _HORARIOS
  -------         PROC          _HORA_MAXIMA
  X:002FH         SYMBOL        addr
  -------         DO            
  X:0031H         SYMBOL        Hora_High
  X:0032H         SYMBOL        Minuto_High
  X:0033H         SYMBOL        HoraIni
  X:0034H         SYMBOL        MinutoIni
  X:0035H         SYMBOL        Hora_Prog
  -------         ENDDO         
BL51 BANKED LINKER/LOCATER V6.22.2.0                                                  05/14/2021  10:23:20  PAGE 128


  C:933CH         LINE#         2122
  C:9344H         LINE#         2123
  C:9344H         LINE#         2128
  C:9359H         LINE#         2129
  C:9379H         LINE#         2130
  C:9396H         LINE#         2131
  C:93B6H         LINE#         2132
  C:93BEH         LINE#         2133
  C:93C6H         LINE#         2134
  C:93CFH         LINE#         2136
  C:93E7H         LINE#         2137
  -------         ENDPROC       _HORA_MAXIMA
  -------         PROC          _EN_HORARIO
  X:002AH         SYMBOL        HoraNow
  D:0004H         SYMBOL        Hora_Prog
  X:002CH         SYMBOL        addr
  -------         DO            
  X:002EH         SYMBOL        Estado_Horario
  -------         ENDDO         
  C:A8EEH         LINE#         2138
  C:A8FCH         LINE#         2139
  C:A8FCH         LINE#         2142
  C:A909H         LINE#         2143
  C:A909H         LINE#         2146
  C:A912H         LINE#         2147
  C:A927H         LINE#         2150
  C:A936H         LINE#         2151
  C:A936H         LINE#         2153
  C:A93DH         LINE#         2154
  C:A943H         LINE#         2155
  C:A945H         LINE#         2157
  C:A945H         LINE#         2160
  C:A949H         LINE#         2161
  C:A949H         LINE#         2162
  C:A949H         LINE#         2164
  C:A94BH         LINE#         2166
  C:A94BH         LINE#         2169
  C:A954H         LINE#         2170
  C:A959H         LINE#         2172
  C:A959H         LINE#         2173
  C:A95EH         LINE#         2174
  -------         ENDPROC       _EN_HORARIO
  -------         PROC          _BLOQUE_HORARIO
  X:0023H         SYMBOL        addr
  -------         DO            
  X:0025H         SYMBOL        Estado_Horario
  X:0026H         SYMBOL        HoraNow
  X:0028H         SYMBOL        Hora_Prog
  -------         ENDDO         
  C:750DH         LINE#         2176
  C:7515H         LINE#         2177
  C:7515H         LINE#         2183
  C:751EH         LINE#         2184
  C:7526H         LINE#         2185
  C:752EH         LINE#         2186
  C:7537H         LINE#         2187
  C:7565H         LINE#         2192
BL51 BANKED LINKER/LOCATER V6.22.2.0                                                  05/14/2021  10:23:20  PAGE 129


  C:756EH         LINE#         2193
  C:7583H         LINE#         2194
  C:759BH         LINE#         2195
  C:759DH         LINE#         2196
  C:759DH         LINE#         2199
  C:75B5H         LINE#         2200
  C:75B5H         LINE#         2201
  C:75BEH         LINE#         2202
  C:75D9H         LINE#         2203
  C:75F7H         LINE#         2204
  C:75F9H         LINE#         2206
  C:75F9H         LINE#         2207
  C:75FEH         LINE#         2208
  C:7603H         LINE#         2209
  C:7608H         LINE#         2210
  C:7608H         LINE#         2211
  C:7608H         LINE#         2213
  C:760FH         LINE#         2214
  -------         ENDPROC       _BLOQUE_HORARIO
  -------         PROC          SECUENCIA_INICIO_EXPEDIDOR
  -------         DO            
  X:0001H         SYMBOL        temp
  -------         ENDDO         
  C:687DH         LINE#         2223
  C:687DH         LINE#         2224
  C:687DH         LINE#         2226
  C:689DH         LINE#         2227
  C:689DH         LINE#         2228
  C:689DH         LINE#         2231
  C:68A2H         LINE#         2232
  C:68A8H         LINE#         2235
  C:68AAH         LINE#         2236
  C:68AAH         LINE#         2247
  C:68AAH         LINE#         2249
  C:68B8H         LINE#         2250
  C:68B8H         LINE#         2251
  C:68C4H         LINE#         2252
  C:68C4H         LINE#         2253
  C:68CAH         LINE#         2254
  C:68CDH         LINE#         2255
  C:68D5H         LINE#         2256
  C:68D5H         LINE#         2257
  C:68DCH         LINE#         2258
  C:68F0H         LINE#         2259
  C:68F0H         LINE#         2260
  C:68F2H         LINE#         2262
  C:68F2H         LINE#         2263
  C:68F9H         LINE#         2264
  C:68FFH         LINE#         2265
  C:68FFH         LINE#         2266
  C:6902H         LINE#         2268
  C:6902H         LINE#         2269
  C:690BH         LINE#         2270
  C:691FH         LINE#         2271
  C:6925H         LINE#         2272
  C:6925H         LINE#         2273
  C:6928H         LINE#         2274
BL51 BANKED LINKER/LOCATER V6.22.2.0                                                  05/14/2021  10:23:20  PAGE 130


  C:6928H         LINE#         2280
  C:6928H         LINE#         2282
  C:692BH         LINE#         2283
  C:6931H         LINE#         2287
  C:6933H         LINE#         2288
  C:6933H         LINE#         2298
  C:6933H         LINE#         2300
  C:6941H         LINE#         2301
  C:6941H         LINE#         2302
  C:694DH         LINE#         2303
  C:694DH         LINE#         2304
  C:6953H         LINE#         2305
  C:6955H         LINE#         2306
  C:695DH         LINE#         2307
  C:695DH         LINE#         2308
  C:6964H         LINE#         2309
  C:6978H         LINE#         2310
  C:6978H         LINE#         2311
  C:697AH         LINE#         2313
  C:697AH         LINE#         2314
  C:6981H         LINE#         2315
  C:6987H         LINE#         2316
  C:6987H         LINE#         2317
  C:6989H         LINE#         2319
  C:6989H         LINE#         2320
  C:6992H         LINE#         2321
  C:69A6H         LINE#         2322
  C:69ABH         LINE#         2323
  C:69ABH         LINE#         2325
  C:69ADH         LINE#         2326
  C:69ADH         LINE#         2332
  C:69ADH         LINE#         2334
  C:69B3H         LINE#         2335
  C:69B3H         LINE#         2338
  C:69B3H         LINE#         2339
  C:69BAH         LINE#         2340
  C:69BAH         LINE#         2341
  C:69BAH         LINE#         2342
  -------         ENDPROC       SECUENCIA_INICIO_EXPEDIDOR
  -------         PROC          _SECUENCIAEXPEDIDORMF
  X:0001H         SYMBOL        EstadoActivo
  -------         DO            
  X:010CH         SYMBOL        Buffer_Write_MF
  X:011DH         SYMBOL        Atributos_Expedidor
  X:012CH         SYMBOL        Secuencia_Expedidor
  X:0130H         SYMBOL        Nombre_Mensual
  -------         ENDDO         
  C:3523H         LINE#         2352
  C:3528H         LINE#         2353
  C:3528H         LINE#         2359
  C:3588H         LINE#         2360
  C:3588H         LINE#         2363
  C:3588H         LINE#         2365
  C:359BH         LINE#         2366
  C:359BH         LINE#         2369
  C:359DH         LINE#         2370
  C:359FH         LINE#         2371
BL51 BANKED LINKER/LOCATER V6.22.2.0                                                  05/14/2021  10:23:20  PAGE 131


  C:35A4H         LINE#         2372
  C:35ACH         LINE#         2373
  C:35B1H         LINE#         2374
  C:35B4H         LINE#         2375
  C:35B4H         LINE#         2376
  C:35BAH         LINE#         2377
  C:35BAH         LINE#         2378
  C:35BDH         LINE#         2379
  C:35BDH         LINE#         2380
  C:35BDH         LINE#         2382
  C:35C0H         LINE#         2383
  C:35C0H         LINE#         2385
  C:35C9H         LINE#         2386
  C:35CCH         LINE#         2387
  C:35CCH         LINE#         2388
  C:35D1H         LINE#         2389
  C:35F1H         LINE#         2390
  C:35F4H         LINE#         2391
  C:35F4H         LINE#         2392
  C:35F9H         LINE#         2393
  C:3601H         LINE#         2394
  C:3607H         LINE#         2395
  C:360AH         LINE#         2396
  C:360AH         LINE#         2397
  C:360DH         LINE#         2398
  C:3615H         LINE#         2399
  C:361BH         LINE#         2400
  C:361EH         LINE#         2401
  C:361EH         LINE#         2402
  C:3621H         LINE#         2403
  C:3646H         LINE#         2404
  C:364CH         LINE#         2405
  C:364EH         LINE#         2406
  C:3651H         LINE#         2407
  C:3651H         LINE#         2408
  C:365CH         LINE#         2409
  C:3664H         LINE#         2410
  C:366AH         LINE#         2411
  C:366DH         LINE#         2412
  C:366DH         LINE#         2413
  C:367EH         LINE#         2414
  C:3686H         LINE#         2415
  C:368CH         LINE#         2416
  C:368FH         LINE#         2417
  C:368FH         LINE#         2418
  C:3694H         LINE#         2419
  C:36B2H         LINE#         2420
  C:36B5H         LINE#         2421
  C:36B5H         LINE#         2422
  C:36BAH         LINE#         2423
  C:36DAH         LINE#         2424
  C:36DDH         LINE#         2425
  C:36DDH         LINE#         2426
  C:36E2H         LINE#         2427
  C:36E4H         LINE#         2428
  C:3702H         LINE#         2429
  C:3705H         LINE#         2430
BL51 BANKED LINKER/LOCATER V6.22.2.0                                                  05/14/2021  10:23:20  PAGE 132


  C:3705H         LINE#         2431
  C:370AH         LINE#         2432
  C:372AH         LINE#         2433
  C:372DH         LINE#         2434
  C:372DH         LINE#         2435
  C:3743H         LINE#         2436
  C:3743H         LINE#         2437
  C:3748H         LINE#         2438
  C:3750H         LINE#         2439
  C:3756H         LINE#         2440
  C:3756H         LINE#         2441
  C:3759H         LINE#         2442
  C:3759H         LINE#         2443
  C:376FH         LINE#         2444
  C:376FH         LINE#         2445
  C:3774H         LINE#         2446
  C:3777H         LINE#         2447
  C:3777H         LINE#         2448
  C:377AH         LINE#         2449
  C:377AH         LINE#         2450
  C:377DH         LINE#         2451
  C:379DH         LINE#         2452
  C:37A0H         LINE#         2453
  C:37A0H         LINE#         2454
  C:37A2H         LINE#         2455
  C:37A5H         LINE#         2456
  C:37A8H         LINE#         2457
  C:37A8H         LINE#         2458
  C:37B1H         LINE#         2459
  C:37B4H         LINE#         2460
  C:37B4H         LINE#         2461
  C:37CBH         LINE#         2462
  C:37CEH         LINE#         2463
  C:37CEH         LINE#         2464
  C:37D1H         LINE#         2465
  C:37D9H         LINE#         2466
  C:37DFH         LINE#         2467
  C:37E2H         LINE#         2468
  C:37E2H         LINE#         2469
  C:37EBH         LINE#         2470
  C:37EEH         LINE#         2471
  C:37EEH         LINE#         2472
  C:37F0H         LINE#         2473
  C:37F3H         LINE#         2474
  C:37F6H         LINE#         2475
  C:37F6H         LINE#         2476
  C:380DH         LINE#         2477
  C:3810H         LINE#         2478
  C:3810H         LINE#         2479
  C:3815H         LINE#         2480
  C:381DH         LINE#         2481
  C:3823H         LINE#         2482
  C:3826H         LINE#         2483
  C:3826H         LINE#         2484
  C:3829H         LINE#         2485
  C:3849H         LINE#         2486
  C:384CH         LINE#         2487
BL51 BANKED LINKER/LOCATER V6.22.2.0                                                  05/14/2021  10:23:20  PAGE 133


  C:384CH         LINE#         2488
  C:384FH         LINE#         2489
  C:386FH         LINE#         2490
  C:3872H         LINE#         2491
  C:3872H         LINE#         2492
  C:3875H         LINE#         2493
  C:387DH         LINE#         2494
  C:3880H         LINE#         2495
  C:3882H         LINE#         2499
  C:3882H         LINE#         2500
  C:3888H         LINE#         2501
  C:388EH         LINE#         2502
  C:388EH         LINE#         2503
  C:3896H         LINE#         2504
  C:389CH         LINE#         2506
  C:389FH         LINE#         2507
  C:38A7H         LINE#         2508
  C:38A7H         LINE#         2510
  C:38AAH         LINE#         2511
  C:38ADH         LINE#         2512
  C:38B5H         LINE#         2513
  C:38B5H         LINE#         2514
  C:38C3H         LINE#         2515
  C:38C3H         LINE#         2516
  C:38CCH         LINE#         2517
  C:38CFH         LINE#         2518
  C:38DBH         LINE#         2519
  C:38DBH         LINE#         2520
  C:38E4H         LINE#         2521
  C:38E7H         LINE#         2523
  C:38E7H         LINE#         2524
  C:38F0H         LINE#         2525
  C:38F0H         LINE#         2526
  C:38F3H         LINE#         2527
  C:38FBH         LINE#         2528
  C:38FBH         LINE#         2529
  C:3909H         LINE#         2530
  C:3909H         LINE#         2531
  C:391FH         LINE#         2532
  C:3922H         LINE#         2533
  C:392EH         LINE#         2534
  C:392EH         LINE#         2535
  C:3937H         LINE#         2536
  C:393AH         LINE#         2537
  C:3948H         LINE#         2538
  C:3948H         LINE#         2539
  C:3951H         LINE#         2540
  C:3953H         LINE#         2542
  C:3953H         LINE#         2543
  C:395CH         LINE#         2544
  C:395CH         LINE#         2545
  C:395EH         LINE#         2546
  C:3966H         LINE#         2547
  C:3966H         LINE#         2548
  C:396FH         LINE#         2549
  C:3971H         LINE#         2550
  C:3979H         LINE#         2551
BL51 BANKED LINKER/LOCATER V6.22.2.0                                                  05/14/2021  10:23:20  PAGE 134


  C:3979H         LINE#         2552
  C:398FH         LINE#         2553
  C:3991H         LINE#         2554
  C:3999H         LINE#         2555
  C:3999H         LINE#         2556
  C:399CH         LINE#         2557
  C:399EH         LINE#         2559
  C:39A6H         LINE#         2560
  C:39A6H         LINE#         2561
  C:39AFH         LINE#         2562
  C:39B1H         LINE#         2565
  C:39B9H         LINE#         2566
  C:39B9H         LINE#         2567
  C:39C1H         LINE#         2568
  C:39C3H         LINE#         2570
  C:39C3H         LINE#         2571
  C:39CCH         LINE#         2572
  C:39CCH         LINE#         2573
  C:39CEH         LINE#         2574
  C:39CEH         LINE#         2575
  C:39D3H         LINE#         2576
  C:39D3H         LINE#         2578
  C:39D3H         LINE#         2579
  C:39D8H         LINE#         2580
  -------         ENDPROC       _SECUENCIAEXPEDIDORMF
  -------         ENDMOD        VERIFICADOR

  -------         MODULE        MONITOR
  C:0000H         SYMBOL        _ICE_DUMMY_
  D:0080H         PUBLIC        P0
  D:0090H         PUBLIC        P1
  I:0011H         PUBLIC        placa
  C:B7EFH         PUBLIC        Rx_Monitor
  B:0080H.0       PUBLIC        rx_ip
  B:0090H.7       PUBLIC        lock
  C:8BF1H         PUBLIC        _recibe_cmd_Monitor
  C:B954H         PUBLIC        clear_placa
  C:8FA9H         PUBLIC        _Valida_Trama_Monitor
  -------         PROC          _RECIBE_CMD_MONITOR
  X:0016H         SYMBOL        buffer_cmd
  -------         DO            
  X:0019H         SYMBOL        j
  X:001AH         SYMBOL        NumDatos
  X:001BH         SYMBOL        time_out
  X:001CH         SYMBOL        MaxChrRx
  X:001DH         SYMBOL        contador
  -------         ENDDO         
  C:8BF1H         LINE#         50
  C:8BFCH         LINE#         51
  C:8BFCH         LINE#         55
  C:8C01H         LINE#         56
  C:8C07H         LINE#         58
  C:8C12H         LINE#         59
  C:8C12H         LINE#         60
  C:8C23H         LINE#         61
  C:8C23H         LINE#         62
  C:8C2AH         LINE#         63
BL51 BANKED LINKER/LOCATER V6.22.2.0                                                  05/14/2021  10:23:20  PAGE 135


  C:8C2EH         LINE#         64
  C:8C37H         LINE#         65
  C:8C37H         LINE#         66
  C:8C45H         LINE#         67
  C:8C5CH         LINE#         68
  C:8C5CH         LINE#         69
  C:8C62H         LINE#         70
  C:8C68H         LINE#         71
  C:8C68H         LINE#         72
  C:8C6AH         LINE#         73
  C:8C72H         LINE#         74
  C:8C78H         LINE#         75
  C:8C8AH         LINE#         76
  C:8C94H         LINE#         77
  C:8C9DH         LINE#         79
  C:8CACH         LINE#         82
  C:8CACH         LINE#         83
  C:8CB1H         LINE#         84
  -------         ENDPROC       _RECIBE_CMD_MONITOR
  -------         PROC          _VALIDA_TRAMA_MONITOR
  X:0016H         SYMBOL        buffer
  D:0005H         SYMBOL        length_trama
  -------         DO            
  X:0019H         SYMBOL        j
  X:001AH         SYMBOL        p
  X:001BH         SYMBOL        cont
  -------         ENDDO         
  C:8FA9H         LINE#         89
  C:8FB4H         LINE#         90
  C:8FB4H         LINE#         91
  C:8FB7H         LINE#         92
  C:8FBBH         LINE#         93
  C:8FBEH         LINE#         94
  C:8FC0H         LINE#         97
  C:8FD4H         LINE#         98
  C:8FD4H         LINE#         100
  C:8FD6H         LINE#         102
  C:8FDDH         LINE#         103
  C:8FE2H         LINE#         106
  C:8FE2H         LINE#         108
  C:8FFDH         LINE#         109
  C:8FFDH         LINE#         112
  C:8FFDH         LINE#         113
  C:901EH         LINE#         114
  C:9022H         LINE#         115
  C:9028H         LINE#         116
  C:903AH         LINE#         117
  C:9052H         LINE#         118
  C:905BH         LINE#         119
  C:905DH         LINE#         120
  C:9063H         LINE#         123
  C:9063H         LINE#         126
  -------         ENDPROC       _VALIDA_TRAMA_MONITOR
  -------         PROC          CLEAR_PLACA
  -------         DO            
  D:0007H         SYMBOL        i
  -------         ENDDO         
BL51 BANKED LINKER/LOCATER V6.22.2.0                                                  05/14/2021  10:23:20  PAGE 136


  C:B954H         LINE#         127
  C:B954H         LINE#         128
  C:B954H         LINE#         130
  C:B960H         LINE#         131
  C:B960H         LINE#         132
  C:B966H         LINE#         133
  C:B969H         LINE#         134
  C:B96BH         LINE#         135
  -------         ENDPROC       CLEAR_PLACA
  -------         PROC          RX_MONITOR
  -------         DO            
  X:0009H         SYMBOL        Length_trama
  X:000AH         SYMBOL        buffer1
  -------         ENDDO         
  C:B7EFH         LINE#         136
  C:B7EFH         LINE#         137
  C:B7EFH         LINE#         140
  C:B7FEH         LINE#         141
  C:B807H         LINE#         142
  -------         ENDPROC       RX_MONITOR
  -------         ENDMOD        MONITOR

  -------         MODULE        ?C?FPADD
  C:1335H         PUBLIC        ?C?FPADD
  C:1331H         PUBLIC        ?C?FPSUB
  -------         ENDMOD        ?C?FPADD

  -------         MODULE        ?C?FPMUL
  C:1426H         PUBLIC        ?C?FPMUL
  -------         ENDMOD        ?C?FPMUL

  -------         MODULE        ?C?FCAST
  C:1536H         PUBLIC        ?C?FCASTC
  C:1531H         PUBLIC        ?C?FCASTI
  C:152CH         PUBLIC        ?C?FCASTL
  -------         ENDMOD        ?C?FCAST

  -------         MODULE        ?C?CASTF
  C:156AH         PUBLIC        ?C?CASTF
  -------         ENDMOD        ?C?CASTF

  -------         MODULE        PRINTF
  X:0077H         PUBLIC        ?_PRINTF?BYTE
  X:0077H         PUBLIC        ?_SPRINTF?BYTE
  C:3A44H         PUBLIC        _PRINTF
  C:3A3EH         PUBLIC        _SPRINTF
  -------         ENDMOD        PRINTF

  -------         MODULE        POW
  X:0020H         PUBLIC        ?_pow?BYTE
  C:61FEH         PUBLIC        _pow
  -------         ENDMOD        POW

  -------         MODULE        ?C?CHKFLOAT
  C:15EBH         PUBLIC        ?C?CHKFLOAT
  -------         ENDMOD        ?C?CHKFLOAT

BL51 BANKED LINKER/LOCATER V6.22.2.0                                                  05/14/2021  10:23:20  PAGE 137


  -------         MODULE        ?C?FPCMP
  C:1607H         PUBLIC        ?C?FPCMP
  C:1605H         PUBLIC        ?C?FPCMP3
  -------         ENDMOD        ?C?FPCMP

  -------         MODULE        ?C?FPNEG
  C:167EH         PUBLIC        ?C?FPNEG
  -------         ENDMOD        ?C?FPNEG

  -------         MODULE        ?C?FPROUND
  C:168FH         PUBLIC        ?C?FPROUND
  -------         ENDMOD        ?C?FPROUND

  -------         MODULE        ?C?FPCONVERT
  C:16CCH         PUBLIC        ?C?FPCONVERT
  -------         ENDMOD        ?C?FPCONVERT

  -------         MODULE        EXP
  C:9891H         PUBLIC        _EXP
  -------         ENDMOD        EXP

  -------         MODULE        LOG
  C:6D8DH         PUBLIC        _LOG
  C:6D89H         PUBLIC        _LOG10
  -------         ENDMOD        LOG

  -------         MODULE        ?C?FPDIV
  C:17D4H         PUBLIC        ?C?FPDIV
  -------         ENDMOD        ?C?FPDIV

  -------         MODULE        ?C?FTNPWR
  C:18A1H         PUBLIC        ?C?FTNPWR
  -------         ENDMOD        ?C?FTNPWR

  -------         MODULE        ?C?COPY
  C:19FEH         PUBLIC        ?C?COPY
  -------         ENDMOD        ?C?COPY

  -------         MODULE        ?C?CLDPTR
  C:1A24H         PUBLIC        ?C?CLDPTR
  -------         ENDMOD        ?C?CLDPTR

  -------         MODULE        ?C?CLDOPTR
  C:1A3DH         PUBLIC        ?C?CLDOPTR
  -------         ENDMOD        ?C?CLDOPTR

  -------         MODULE        ?C?CSTPTR
  C:1A6AH         PUBLIC        ?C?CSTPTR
  -------         ENDMOD        ?C?CSTPTR

  -------         MODULE        ?C?CSTOPTR
  C:1A7CH         PUBLIC        ?C?CSTOPTR
  -------         ENDMOD        ?C?CSTOPTR

  -------         MODULE        ?C?IMUL
  C:1A9EH         PUBLIC        ?C?IMUL
  -------         ENDMOD        ?C?IMUL
BL51 BANKED LINKER/LOCATER V6.22.2.0                                                  05/14/2021  10:23:20  PAGE 138



  -------         MODULE        ?C?IILDX
  C:1AB0H         PUBLIC        ?C?IILDX
  -------         ENDMOD        ?C?IILDX

  -------         MODULE        ?C?LNEG
  C:1AC6H         PUBLIC        ?C?LNEG
  -------         ENDMOD        ?C?LNEG

  -------         MODULE        ?C?SLCMP
  C:1AD4H         PUBLIC        ?C?SLCMP
  -------         ENDMOD        ?C?SLCMP

  -------         MODULE        ?C?ULCMP
  C:1AEAH         PUBLIC        ?C?ULCMP
  -------         ENDMOD        ?C?ULCMP

  -------         MODULE        ?C?ULSHR
  C:1AFBH         PUBLIC        ?C?ULSHR
  -------         ENDMOD        ?C?ULSHR

  -------         MODULE        ?C?LSHL
  C:1B0EH         PUBLIC        ?C?LSHL
  -------         ENDMOD        ?C?LSHL

  -------         MODULE        ?C?LLDCODE
  C:1B21H         PUBLIC        ?C?LLDCODE
  -------         ENDMOD        ?C?LLDCODE

  -------         MODULE        ?C?LLDXDATA0
  C:1B31H         PUBLIC        ?C?LLDXDATA0
  -------         ENDMOD        ?C?LLDXDATA0

  -------         MODULE        ?C?LLDCODE0
  C:1B3DH         PUBLIC        ?C?LLDCODE0
  -------         ENDMOD        ?C?LLDCODE0

  -------         MODULE        ?C?LSTXDATA
  C:1B4DH         PUBLIC        ?C?LSTXDATA
  -------         ENDMOD        ?C?LSTXDATA

  -------         MODULE        ?C?LSTKXDATA
  C:1B59H         PUBLIC        ?C?LSTKXDATA
  -------         ENDMOD        ?C?LSTKXDATA

  -------         MODULE        ?C?PLDIXDATA
  C:1B8AH         PUBLIC        ?C?PLDIXDATA
  -------         ENDMOD        ?C?PLDIXDATA

  -------         MODULE        ?C?PSTXDATA
  C:1BA1H         PUBLIC        ?C?PSTXDATA
  -------         ENDMOD        ?C?PSTXDATA

  -------         MODULE        ?C?CCASE
  C:1BAAH         PUBLIC        ?C?CCASE
  -------         ENDMOD        ?C?CCASE

BL51 BANKED LINKER/LOCATER V6.22.2.0                                                  05/14/2021  10:23:20  PAGE 139


  -------         MODULE        STRCAT
  X:0046H         PUBLIC        ?_strcat?BYTE
  C:A9CEH         PUBLIC        _strcat
  -------         ENDMOD        STRCAT

  -------         MODULE        ?C?STRCMP
  C:1D4EH         PUBLIC        ?C?STRCMP
  -------         ENDMOD        ?C?STRCMP

  -------         MODULE        ?C?STRCPY
  C:1E37H         PUBLIC        ?C?STRCPY
  -------         ENDMOD        ?C?STRCPY

  -------         MODULE        STRLEN
  C:000EH         PUBLIC        _STRLEN
  -------         ENDMOD        STRLEN

  -------         MODULE        STRTOK
  X:0064H         PUBLIC        ?_strtok?BYTE
  C:7FCFH         PUBLIC        _strtok
  -------         ENDMOD        STRTOK

  -------         MODULE        ATOL
  C:7401H         PUBLIC        _atol
  -------         ENDMOD        ATOL

  -------         MODULE        ATOI
  C:8191H         PUBLIC        _atoi
  -------         ENDMOD        ATOI

  -------         MODULE        ?C?ILDIX
  C:1E54H         PUBLIC        ?C?ILDIX
  -------         ENDMOD        ?C?ILDIX

  -------         MODULE        ?C?LMUL
  C:1E6AH         PUBLIC        ?C?LMUL
  -------         ENDMOD        ?C?LMUL

  -------         MODULE        ISDIGIT
  C:BA50H         PUBLIC        _isdigit
  -------         ENDMOD        ISDIGIT

  -------         MODULE        ISSPACE
  C:B9B0H         PUBLIC        _isspace
  -------         ENDMOD        ISSPACE

  -------         MODULE        STRSPN
  X:006AH         PUBLIC        ?_strspn?BYTE
  C:A37BH         PUBLIC        _strspn
  -------         ENDMOD        STRSPN

  -------         MODULE        STRPBRK
  X:006AH         PUBLIC        ?_strpbrk?BYTE
  C:A482H         PUBLIC        _strpbrk
  -------         ENDMOD        STRPBRK

Program Size: data=99.1 xdata=532 code=47842
BL51 BANKED LINKER/LOCATER V6.22.2.0                                                  05/14/2021  10:23:20  PAGE 140


LINK/LOCATE RUN COMPLETE.  0 WARNING(S),  0 ERROR(S)
